ARM GAS  /var/folders/84/_x1cyy_j36g486tldtwl37280000gn/T//ccYvaShd.s 			page 1


   1              		.cpu cortex-m4
   2              		.eabi_attribute 27, 1
   3              		.eabi_attribute 28, 1
   4              		.eabi_attribute 20, 1
   5              		.eabi_attribute 21, 1
   6              		.eabi_attribute 23, 3
   7              		.eabi_attribute 24, 1
   8              		.eabi_attribute 25, 1
   9              		.eabi_attribute 26, 1
  10              		.eabi_attribute 30, 2
  11              		.eabi_attribute 34, 1
  12              		.eabi_attribute 18, 4
  13              		.file	"baseTrack.cpp"
  14              		.text
  15              	.Ltext0:
  16              		.cfi_sections	.debug_frame
  17              		.section	.text._ZN9BaseTrack18clear_pattern_listEv,"ax",%progbits
  18              		.align	1
  19              		.p2align 2,,3
  20              		.global	_ZN9BaseTrack18clear_pattern_listEv
  21              		.arch armv7e-m
  22              		.syntax unified
  23              		.thumb
  24              		.thumb_func
  25              		.fpu fpv4-sp-d16
  27              	_ZN9BaseTrack18clear_pattern_listEv:
  28              	.LVL0:
  29              	.LFB2270:
  30              		.file 1 "Src/Settings/baseTrack.cpp"
   1:Src/Settings/baseTrack.cpp **** #include "baseTrack.h"
   2:Src/Settings/baseTrack.cpp **** 
   3:Src/Settings/baseTrack.cpp **** char BaseTrack::text[TrackData::kMaxLabelLength];
   4:Src/Settings/baseTrack.cpp **** 
   5:Src/Settings/baseTrack.cpp **** void BaseTrack::clear_pattern_list() {
  31              		.loc 1 5 38 view -0
  32              		.cfi_startproc
  33              		@ args = 0, pretend = 0, frame = 0
  34              		@ frame_needed = 0, uses_anonymous_args = 0
  35              		@ link register save eliminated.
   6:Src/Settings/baseTrack.cpp **** 	int pool_index;
  36              		.loc 1 6 2 view .LVU1
   7:Src/Settings/baseTrack.cpp **** 
   8:Src/Settings/baseTrack.cpp **** 	for (int i = 0; i < pattern_list->size_; ++i) {
  37              		.loc 1 8 2 view .LVU2
  38              	.LBB2:
  39              		.loc 1 8 20 view .LVU3
  40              		.loc 1 8 22 is_stmt 0 view .LVU4
  41 0000 8268     		ldr	r2, [r0, #8]
  42              		.loc 1 8 20 view .LVU5
  43 0002 92F8FF30 		ldrb	r3, [r2, #255]	@ zero_extendqisi2
  44 0006 C3B1     		cbz	r3, .L9
  45              	.LBE2:
   5:Src/Settings/baseTrack.cpp **** 	int pool_index;
  46              		.loc 1 5 38 view .LVU6
  47 0008 10B4     		push	{r4}
  48              		.cfi_def_cfa_offset 4
  49              		.cfi_offset 4, -4
ARM GAS  /var/folders/84/_x1cyy_j36g486tldtwl37280000gn/T//ccYvaShd.s 			page 2


  50              	.LBB3:
  51              		.loc 1 8 11 view .LVU7
  52 000a 0023     		movs	r3, #0
  53              	.LVL1:
  54              	.L3:
   9:Src/Settings/baseTrack.cpp **** 		pool_index = pattern_pool->size_;
  55              		.loc 1 9 3 is_stmt 1 discriminator 2 view .LVU8
  56              		.loc 1 9 16 is_stmt 0 discriminator 2 view .LVU9
  57 000c C168     		ldr	r1, [r0, #12]
  58              	.LVL2:
  10:Src/Settings/baseTrack.cpp **** 		pattern_pool->entry_[pool_index] = pattern_list->entry_[i];
  59              		.loc 1 10 3 is_stmt 1 discriminator 2 view .LVU10
  60              		.loc 1 10 60 is_stmt 0 discriminator 2 view .LVU11
  61 000e D45C     		ldrb	r4, [r2, r3]	@ zero_extendqisi2
   9:Src/Settings/baseTrack.cpp **** 		pool_index = pattern_pool->size_;
  62              		.loc 1 9 14 discriminator 2 view .LVU12
  63 0010 91F8FF20 		ldrb	r2, [r1, #255]	@ zero_extendqisi2
  64              	.LVL3:
  65              		.loc 1 10 36 discriminator 2 view .LVU13
  66 0014 8C54     		strb	r4, [r1, r2]
  11:Src/Settings/baseTrack.cpp **** 		++pattern_pool->size_;
  67              		.loc 1 11 3 is_stmt 1 discriminator 2 view .LVU14
  68              		.loc 1 11 5 is_stmt 0 discriminator 2 view .LVU15
  69 0016 C168     		ldr	r1, [r0, #12]
  70              		.loc 1 11 3 discriminator 2 view .LVU16
  71 0018 91F8FF40 		ldrb	r4, [r1, #255]	@ zero_extendqisi2
  72 001c 0134     		adds	r4, r4, #1
  73 001e 81F8FF40 		strb	r4, [r1, #255]
   8:Src/Settings/baseTrack.cpp **** 		pool_index = pattern_pool->size_;
  74              		.loc 1 8 2 is_stmt 1 discriminator 2 view .LVU17
   8:Src/Settings/baseTrack.cpp **** 		pool_index = pattern_pool->size_;
  75              		.loc 1 8 22 is_stmt 0 discriminator 2 view .LVU18
  76 0022 8268     		ldr	r2, [r0, #8]
  77              	.LVL4:
   8:Src/Settings/baseTrack.cpp **** 		pool_index = pattern_pool->size_;
  78              		.loc 1 8 36 discriminator 2 view .LVU19
  79 0024 92F8FFC0 		ldrb	ip, [r2, #255]	@ zero_extendqisi2
   8:Src/Settings/baseTrack.cpp **** 		pool_index = pattern_pool->size_;
  80              		.loc 1 8 2 discriminator 2 view .LVU20
  81 0028 0133     		adds	r3, r3, #1
  82              	.LVL5:
   8:Src/Settings/baseTrack.cpp **** 		pool_index = pattern_pool->size_;
  83              		.loc 1 8 20 is_stmt 1 discriminator 2 view .LVU21
  84 002a 9C45     		cmp	ip, r3
  85 002c EEDC     		bgt	.L3
  86              	.LBE3:
  12:Src/Settings/baseTrack.cpp **** 	}
  13:Src/Settings/baseTrack.cpp **** 
  14:Src/Settings/baseTrack.cpp **** 	pattern_list->size_ = 0;
  87              		.loc 1 14 2 view .LVU22
  88              		.loc 1 14 22 is_stmt 0 view .LVU23
  89 002e 0020     		movs	r0, #0
  90              	.LVL6:
  91              		.loc 1 14 22 view .LVU24
  92 0030 82F8FF00 		strb	r0, [r2, #255]
  15:Src/Settings/baseTrack.cpp **** }
  93              		.loc 1 15 1 view .LVU25
ARM GAS  /var/folders/84/_x1cyy_j36g486tldtwl37280000gn/T//ccYvaShd.s 			page 3


  94 0034 5DF8044B 		ldr	r4, [sp], #4
  95              		.cfi_restore 4
  96              		.cfi_def_cfa_offset 0
  97 0038 7047     		bx	lr
  98              	.LVL7:
  99              	.L9:
  14:Src/Settings/baseTrack.cpp **** }
 100              		.loc 1 14 2 is_stmt 1 view .LVU26
  14:Src/Settings/baseTrack.cpp **** }
 101              		.loc 1 14 22 is_stmt 0 view .LVU27
 102 003a 0023     		movs	r3, #0
 103 003c 82F8FF30 		strb	r3, [r2, #255]
 104 0040 7047     		bx	lr
 105              		.cfi_endproc
 106              	.LFE2270:
 108 0042 00BF     		.section	.text._ZN9BaseTrack19append_pattern_listEv,"ax",%progbits
 109              		.align	1
 110              		.p2align 2,,3
 111              		.global	_ZN9BaseTrack19append_pattern_listEv
 112              		.syntax unified
 113              		.thumb
 114              		.thumb_func
 115              		.fpu fpv4-sp-d16
 117              	_ZN9BaseTrack19append_pattern_listEv:
 118              	.LVL8:
 119              	.LFB2271:
  16:Src/Settings/baseTrack.cpp **** 
  17:Src/Settings/baseTrack.cpp **** int BaseTrack::append_pattern_list() {
 120              		.loc 1 17 38 is_stmt 1 view -0
 121              		.cfi_startproc
 122              		@ args = 0, pretend = 0, frame = 0
 123              		@ frame_needed = 0, uses_anonymous_args = 0
 124              		@ link register save eliminated.
  18:Src/Settings/baseTrack.cpp **** 	int list_index = pattern_list->size_;
 125              		.loc 1 18 2 view .LVU29
  17:Src/Settings/baseTrack.cpp **** 	int list_index = pattern_list->size_;
 126              		.loc 1 17 38 is_stmt 0 view .LVU30
 127 0000 10B4     		push	{r4}
 128              		.cfi_def_cfa_offset 4
 129              		.cfi_offset 4, -4
 130              		.loc 1 18 19 view .LVU31
 131 0002 D0E90212 		ldrd	r1, r2, [r0, #8]
  19:Src/Settings/baseTrack.cpp **** 	int pool_index = pattern_pool->size_;
 132              		.loc 1 19 6 view .LVU32
 133 0006 92F8FF40 		ldrb	r4, [r2, #255]	@ zero_extendqisi2
  20:Src/Settings/baseTrack.cpp **** 	int pattern_index = pattern_pool->entry_[pool_index - 1];
 134              		.loc 1 20 57 view .LVU33
 135 000a 2244     		add	r2, r2, r4
  17:Src/Settings/baseTrack.cpp **** 	int list_index = pattern_list->size_;
 136              		.loc 1 17 38 view .LVU34
 137 000c 0346     		mov	r3, r0
  18:Src/Settings/baseTrack.cpp **** 	int pool_index = pattern_pool->size_;
 138              		.loc 1 18 6 view .LVU35
 139 000e 91F8FF00 		ldrb	r0, [r1, #255]	@ zero_extendqisi2
 140              	.LVL9:
  19:Src/Settings/baseTrack.cpp **** 	int pool_index = pattern_pool->size_;
 141              		.loc 1 19 2 is_stmt 1 view .LVU36
ARM GAS  /var/folders/84/_x1cyy_j36g486tldtwl37280000gn/T//ccYvaShd.s 			page 4


 142              		.loc 1 20 2 view .LVU37
 143              		.loc 1 20 57 is_stmt 0 view .LVU38
 144 0012 12F8012C 		ldrb	r2, [r2, #-1]	@ zero_extendqisi2
 145              	.LVL10:
  21:Src/Settings/baseTrack.cpp **** 
  22:Src/Settings/baseTrack.cpp **** 	pattern_list->entry_[list_index] = pattern_index;
 146              		.loc 1 22 2 is_stmt 1 view .LVU39
 147              		.loc 1 22 35 is_stmt 0 view .LVU40
 148 0016 0A54     		strb	r2, [r1, r0]
  23:Src/Settings/baseTrack.cpp **** 
  24:Src/Settings/baseTrack.cpp **** 	++pattern_list->size_;
 149              		.loc 1 24 2 is_stmt 1 view .LVU41
 150              		.loc 1 24 4 is_stmt 0 view .LVU42
 151 0018 9968     		ldr	r1, [r3, #8]
 152              		.loc 1 24 2 view .LVU43
 153 001a 91F8FF40 		ldrb	r4, [r1, #255]	@ zero_extendqisi2
 154 001e 0134     		adds	r4, r4, #1
 155 0020 81F8FF40 		strb	r4, [r1, #255]
  25:Src/Settings/baseTrack.cpp **** 	--pattern_pool->size_;
 156              		.loc 1 25 2 is_stmt 1 view .LVU44
 157              		.loc 1 25 4 is_stmt 0 view .LVU45
 158 0024 DA68     		ldr	r2, [r3, #12]
 159              	.LVL11:
 160              		.loc 1 25 2 view .LVU46
 161 0026 92F8FFC0 		ldrb	ip, [r2, #255]	@ zero_extendqisi2
 162 002a 0CF1FF33 		add	r3, ip, #-1
 163              	.LVL12:
 164              		.loc 1 25 2 view .LVU47
 165 002e 82F8FF30 		strb	r3, [r2, #255]
  26:Src/Settings/baseTrack.cpp **** 
  27:Src/Settings/baseTrack.cpp **** 	return list_index;
 166              		.loc 1 27 2 is_stmt 1 view .LVU48
  28:Src/Settings/baseTrack.cpp **** }
 167              		.loc 1 28 1 is_stmt 0 view .LVU49
 168 0032 5DF8044B 		ldr	r4, [sp], #4
 169              		.cfi_restore 4
 170              		.cfi_def_cfa_offset 0
 171 0036 7047     		bx	lr
 172              		.cfi_endproc
 173              	.LFE2271:
 175              		.section	.text._ZN9BaseTrack16remove_from_listEi,"ax",%progbits
 176              		.align	1
 177              		.p2align 2,,3
 178              		.global	_ZN9BaseTrack16remove_from_listEi
 179              		.syntax unified
 180              		.thumb
 181              		.thumb_func
 182              		.fpu fpv4-sp-d16
 184              	_ZN9BaseTrack16remove_from_listEi:
 185              	.LVL13:
 186              	.LFB2272:
  29:Src/Settings/baseTrack.cpp **** 
  30:Src/Settings/baseTrack.cpp **** void BaseTrack::remove_from_list(int list_index) {
 187              		.loc 1 30 50 is_stmt 1 view -0
 188              		.cfi_startproc
 189              		@ args = 0, pretend = 0, frame = 0
 190              		@ frame_needed = 0, uses_anonymous_args = 0
ARM GAS  /var/folders/84/_x1cyy_j36g486tldtwl37280000gn/T//ccYvaShd.s 			page 5


 191              		@ link register save eliminated.
  31:Src/Settings/baseTrack.cpp **** 	int pattern_index = pattern_list->entry_[list_index];
 192              		.loc 1 31 2 view .LVU51
  30:Src/Settings/baseTrack.cpp **** 	int pattern_index = pattern_list->entry_[list_index];
 193              		.loc 1 30 50 is_stmt 0 view .LVU52
 194 0000 10B4     		push	{r4}
 195              		.cfi_def_cfa_offset 4
 196              		.cfi_offset 4, -4
 197              		.loc 1 31 53 view .LVU53
 198 0002 D0E90243 		ldrd	r4, r3, [r0, #8]
  32:Src/Settings/baseTrack.cpp **** 	int pool_index = pattern_pool->size_;
 199              		.loc 1 32 6 view .LVU54
 200 0006 93F8FF20 		ldrb	r2, [r3, #255]	@ zero_extendqisi2
  31:Src/Settings/baseTrack.cpp **** 	int pattern_index = pattern_list->entry_[list_index];
 201              		.loc 1 31 53 view .LVU55
 202 000a 645C     		ldrb	r4, [r4, r1]	@ zero_extendqisi2
 203              	.LVL14:
 204              		.loc 1 32 2 is_stmt 1 view .LVU56
  33:Src/Settings/baseTrack.cpp **** 
  34:Src/Settings/baseTrack.cpp **** 	pattern_pool->entry_[pool_index] = pattern_index;
 205              		.loc 1 34 2 view .LVU57
 206              		.loc 1 34 35 is_stmt 0 view .LVU58
 207 000c 9C54     		strb	r4, [r3, r2]
  35:Src/Settings/baseTrack.cpp **** 
  36:Src/Settings/baseTrack.cpp **** 	--pattern_list->size_;
 208              		.loc 1 36 2 is_stmt 1 view .LVU59
 209              		.loc 1 36 4 is_stmt 0 view .LVU60
 210 000e 8268     		ldr	r2, [r0, #8]
 211              	.LVL15:
 212              		.loc 1 36 2 view .LVU61
 213 0010 92F8FFC0 		ldrb	ip, [r2, #255]	@ zero_extendqisi2
 214 0014 0CF1FF33 		add	r3, ip, #-1
 215 0018 82F8FF30 		strb	r3, [r2, #255]
  37:Src/Settings/baseTrack.cpp **** 	++pattern_pool->size_;
 216              		.loc 1 37 2 is_stmt 1 view .LVU62
 217              		.loc 1 37 4 is_stmt 0 view .LVU63
 218 001c C468     		ldr	r4, [r0, #12]
 219              	.LVL16:
 220              		.loc 1 37 2 view .LVU64
 221 001e 94F8FF20 		ldrb	r2, [r4, #255]	@ zero_extendqisi2
 222 0022 0132     		adds	r2, r2, #1
 223 0024 84F8FF20 		strb	r2, [r4, #255]
  38:Src/Settings/baseTrack.cpp **** 
  39:Src/Settings/baseTrack.cpp **** 	for (int i = list_index; i < pattern_list->size_; ++i) {
 224              		.loc 1 39 2 is_stmt 1 view .LVU65
 225              	.LVL17:
 226              	.LBB4:
 227              		.loc 1 39 29 view .LVU66
 228              		.loc 1 39 31 is_stmt 0 view .LVU67
 229 0028 8368     		ldr	r3, [r0, #8]
 230              		.loc 1 39 45 view .LVU68
 231 002a 93F8FF40 		ldrb	r4, [r3, #255]	@ zero_extendqisi2
 232              		.loc 1 39 29 view .LVU69
 233 002e A142     		cmp	r1, r4
 234 0030 09DA     		bge	.L15
 235              	.LVL18:
 236              	.L17:
ARM GAS  /var/folders/84/_x1cyy_j36g486tldtwl37280000gn/T//ccYvaShd.s 			page 6


  40:Src/Settings/baseTrack.cpp **** 		pattern_list->entry_[i] = pattern_list->entry_[i + 1];
 237              		.loc 1 40 3 is_stmt 1 discriminator 2 view .LVU70
 238 0032 8C46     		mov	ip, r1
 239              		.loc 1 40 52 is_stmt 0 discriminator 2 view .LVU71
 240 0034 0131     		adds	r1, r1, #1
 241              	.LVL19:
 242              		.loc 1 40 55 discriminator 2 view .LVU72
 243 0036 5A5C     		ldrb	r2, [r3, r1]	@ zero_extendqisi2
 244              		.loc 1 40 27 discriminator 2 view .LVU73
 245 0038 03F80C20 		strb	r2, [r3, ip]
  39:Src/Settings/baseTrack.cpp **** 		pattern_list->entry_[i] = pattern_list->entry_[i + 1];
 246              		.loc 1 39 2 is_stmt 1 discriminator 2 view .LVU74
 247              	.LVL20:
  39:Src/Settings/baseTrack.cpp **** 		pattern_list->entry_[i] = pattern_list->entry_[i + 1];
 248              		.loc 1 39 29 discriminator 2 view .LVU75
  39:Src/Settings/baseTrack.cpp **** 		pattern_list->entry_[i] = pattern_list->entry_[i + 1];
 249              		.loc 1 39 31 is_stmt 0 discriminator 2 view .LVU76
 250 003c 8368     		ldr	r3, [r0, #8]
  39:Src/Settings/baseTrack.cpp **** 		pattern_list->entry_[i] = pattern_list->entry_[i + 1];
 251              		.loc 1 39 45 discriminator 2 view .LVU77
 252 003e 93F8FF40 		ldrb	r4, [r3, #255]	@ zero_extendqisi2
  39:Src/Settings/baseTrack.cpp **** 		pattern_list->entry_[i] = pattern_list->entry_[i + 1];
 253              		.loc 1 39 29 discriminator 2 view .LVU78
 254 0042 8C42     		cmp	r4, r1
 255 0044 F5DC     		bgt	.L17
 256              	.L15:
  39:Src/Settings/baseTrack.cpp **** 		pattern_list->entry_[i] = pattern_list->entry_[i + 1];
 257              		.loc 1 39 29 discriminator 2 view .LVU79
 258              	.LBE4:
  41:Src/Settings/baseTrack.cpp **** 	}
  42:Src/Settings/baseTrack.cpp **** }
 259              		.loc 1 42 1 view .LVU80
 260 0046 5DF8044B 		ldr	r4, [sp], #4
 261              		.cfi_restore 4
 262              		.cfi_def_cfa_offset 0
 263 004a 7047     		bx	lr
 264              		.cfi_endproc
 265              	.LFE2272:
 267              		.section	.text._ZN9BaseTrack14swap_with_leftEi,"ax",%progbits
 268              		.align	1
 269              		.p2align 2,,3
 270              		.global	_ZN9BaseTrack14swap_with_leftEi
 271              		.syntax unified
 272              		.thumb
 273              		.thumb_func
 274              		.fpu fpv4-sp-d16
 276              	_ZN9BaseTrack14swap_with_leftEi:
 277              	.LVL21:
 278              	.LFB2273:
  43:Src/Settings/baseTrack.cpp **** 
  44:Src/Settings/baseTrack.cpp **** void BaseTrack::swap_with_left(int list_index) {
 279              		.loc 1 44 48 is_stmt 1 view -0
 280              		.cfi_startproc
 281              		@ args = 0, pretend = 0, frame = 0
 282              		@ frame_needed = 0, uses_anonymous_args = 0
 283              		@ link register save eliminated.
  45:Src/Settings/baseTrack.cpp **** 	int left = pattern_list->entry_[list_index - 1];
ARM GAS  /var/folders/84/_x1cyy_j36g486tldtwl37280000gn/T//ccYvaShd.s 			page 7


 284              		.loc 1 45 2 view .LVU82
  44:Src/Settings/baseTrack.cpp **** 	int left = pattern_list->entry_[list_index - 1];
 285              		.loc 1 44 48 is_stmt 0 view .LVU83
 286 0000 30B4     		push	{r4, r5}
 287              		.cfi_def_cfa_offset 8
 288              		.cfi_offset 4, -8
 289              		.cfi_offset 5, -4
 290              		.loc 1 45 13 view .LVU84
 291 0002 8368     		ldr	r3, [r0, #8]
 292              		.loc 1 45 45 view .LVU85
 293 0004 4A1E     		subs	r2, r1, #1
  46:Src/Settings/baseTrack.cpp **** 	pattern_list->entry_[list_index - 1] = pattern_list->entry_[list_index];
 294              		.loc 1 46 72 view .LVU86
 295 0006 5D5C     		ldrb	r5, [r3, r1]	@ zero_extendqisi2
  45:Src/Settings/baseTrack.cpp **** 	int left = pattern_list->entry_[list_index - 1];
 296              		.loc 1 45 48 view .LVU87
 297 0008 9C5C     		ldrb	r4, [r3, r2]	@ zero_extendqisi2
 298              	.LVL22:
 299              		.loc 1 46 2 is_stmt 1 view .LVU88
 300              		.loc 1 46 39 is_stmt 0 view .LVU89
 301 000a 9D54     		strb	r5, [r3, r2]
  47:Src/Settings/baseTrack.cpp **** 	pattern_list->entry_[list_index] = left;
 302              		.loc 1 47 2 is_stmt 1 view .LVU90
 303 000c 8068     		ldr	r0, [r0, #8]
 304              	.LVL23:
 305              		.loc 1 47 35 is_stmt 0 view .LVU91
 306 000e 4454     		strb	r4, [r0, r1]
  48:Src/Settings/baseTrack.cpp **** }
 307              		.loc 1 48 1 view .LVU92
 308 0010 30BC     		pop	{r4, r5}
 309              		.cfi_restore 5
 310              		.cfi_restore 4
 311              		.cfi_def_cfa_offset 0
 312              	.LVL24:
 313              		.loc 1 48 1 view .LVU93
 314 0012 7047     		bx	lr
 315              		.cfi_endproc
 316              	.LFE2273:
 318              		.section	.text._ZN9BaseTrack15swap_with_rightEi,"ax",%progbits
 319              		.align	1
 320              		.p2align 2,,3
 321              		.global	_ZN9BaseTrack15swap_with_rightEi
 322              		.syntax unified
 323              		.thumb
 324              		.thumb_func
 325              		.fpu fpv4-sp-d16
 327              	_ZN9BaseTrack15swap_with_rightEi:
 328              	.LVL25:
 329              	.LFB2274:
  49:Src/Settings/baseTrack.cpp **** 
  50:Src/Settings/baseTrack.cpp **** void BaseTrack::swap_with_right(int list_index) {
 330              		.loc 1 50 49 is_stmt 1 view -0
 331              		.cfi_startproc
 332              		@ args = 0, pretend = 0, frame = 0
 333              		@ frame_needed = 0, uses_anonymous_args = 0
 334              		@ link register save eliminated.
  51:Src/Settings/baseTrack.cpp **** 	int right = pattern_list->entry_[list_index + 1];
ARM GAS  /var/folders/84/_x1cyy_j36g486tldtwl37280000gn/T//ccYvaShd.s 			page 8


 335              		.loc 1 51 2 view .LVU95
  50:Src/Settings/baseTrack.cpp **** 	int right = pattern_list->entry_[list_index + 1];
 336              		.loc 1 50 49 is_stmt 0 view .LVU96
 337 0000 30B4     		push	{r4, r5}
 338              		.cfi_def_cfa_offset 8
 339              		.cfi_offset 4, -8
 340              		.cfi_offset 5, -4
 341              		.loc 1 51 14 view .LVU97
 342 0002 8368     		ldr	r3, [r0, #8]
 343              		.loc 1 51 46 view .LVU98
 344 0004 4A1C     		adds	r2, r1, #1
  52:Src/Settings/baseTrack.cpp **** 	pattern_list->entry_[list_index + 1] = pattern_list->entry_[list_index];
 345              		.loc 1 52 72 view .LVU99
 346 0006 5D5C     		ldrb	r5, [r3, r1]	@ zero_extendqisi2
  51:Src/Settings/baseTrack.cpp **** 	int right = pattern_list->entry_[list_index + 1];
 347              		.loc 1 51 49 view .LVU100
 348 0008 9C5C     		ldrb	r4, [r3, r2]	@ zero_extendqisi2
 349              	.LVL26:
 350              		.loc 1 52 2 is_stmt 1 view .LVU101
 351              		.loc 1 52 39 is_stmt 0 view .LVU102
 352 000a 9D54     		strb	r5, [r3, r2]
  53:Src/Settings/baseTrack.cpp **** 	pattern_list->entry_[list_index] = right;
 353              		.loc 1 53 2 is_stmt 1 view .LVU103
 354 000c 8068     		ldr	r0, [r0, #8]
 355              	.LVL27:
 356              		.loc 1 53 35 is_stmt 0 view .LVU104
 357 000e 4454     		strb	r4, [r0, r1]
  54:Src/Settings/baseTrack.cpp **** }
 358              		.loc 1 54 1 view .LVU105
 359 0010 30BC     		pop	{r4, r5}
 360              		.cfi_restore 5
 361              		.cfi_restore 4
 362              		.cfi_def_cfa_offset 0
 363              	.LVL28:
 364              		.loc 1 54 1 view .LVU106
 365 0012 7047     		bx	lr
 366              		.cfi_endproc
 367              	.LFE2274:
 369              		.global	_ZN9BaseTrack4textE
 370              		.section	.bss._ZN9BaseTrack4textE,"aw",%nobits
 371              		.align	2
 374              	_ZN9BaseTrack4textE:
 375 0000 00000000 		.space	8
 375      00000000 
 376              		.text
 377              	.Letext0:
 378              		.file 2 "/usr/local/Caskroom/gcc-arm-embedded/9-2019-q4-major/gcc-arm-none-eabi-9-2019-q4-major/ar
 379              		.file 3 "/usr/local/Caskroom/gcc-arm-embedded/9-2019-q4-major/gcc-arm-none-eabi-9-2019-q4-major/ar
 380              		.file 4 "/usr/local/Caskroom/gcc-arm-embedded/9-2019-q4-major/gcc-arm-none-eabi-9-2019-q4-major/ar
 381              		.file 5 "/Users/joostbooy/STM32Cube/Repository/STM32Cube_FW_F4_V1.26.1/Drivers/CMSIS/Include/core_
 382              		.file 6 "/Users/joostbooy/STM32Cube/Repository/STM32Cube_FW_F4_V1.26.1/Drivers/CMSIS/Device/ST/STM
 383              		.file 7 "/usr/local/Caskroom/gcc-arm-embedded/9-2019-q4-major/gcc-arm-none-eabi-9-2019-q4-major/li
 384              		.file 8 "/Users/joostbooy/STM32Cube/Repository/STM32Cube_FW_F4_V1.26.1/Drivers/STM32F4xx_HAL_Drive
 385              		.file 9 "/usr/local/Caskroom/gcc-arm-embedded/9-2019-q4-major/gcc-arm-none-eabi-9-2019-q4-major/ar
 386              		.file 10 "/usr/local/Caskroom/gcc-arm-embedded/9-2019-q4-major/gcc-arm-none-eabi-9-2019-q4-major/a
 387              		.file 11 "/usr/local/Caskroom/gcc-arm-embedded/9-2019-q4-major/gcc-arm-none-eabi-9-2019-q4-major/a
 388              		.file 12 "/usr/local/Caskroom/gcc-arm-embedded/9-2019-q4-major/gcc-arm-none-eabi-9-2019-q4-major/a
ARM GAS  /var/folders/84/_x1cyy_j36g486tldtwl37280000gn/T//ccYvaShd.s 			page 9


 389              		.file 13 "/usr/local/Caskroom/gcc-arm-embedded/9-2019-q4-major/gcc-arm-none-eabi-9-2019-q4-major/a
 390              		.file 14 "/usr/local/Caskroom/gcc-arm-embedded/9-2019-q4-major/gcc-arm-none-eabi-9-2019-q4-major/a
 391              		.file 15 "/usr/local/Caskroom/gcc-arm-embedded/9-2019-q4-major/gcc-arm-none-eabi-9-2019-q4-major/a
 392              		.file 16 "/usr/local/Caskroom/gcc-arm-embedded/9-2019-q4-major/gcc-arm-none-eabi-9-2019-q4-major/a
 393              		.file 17 "/usr/local/Caskroom/gcc-arm-embedded/9-2019-q4-major/gcc-arm-none-eabi-9-2019-q4-major/a
 394              		.file 18 "/usr/local/Caskroom/gcc-arm-embedded/9-2019-q4-major/gcc-arm-none-eabi-9-2019-q4-major/a
 395              		.file 19 "/usr/local/Caskroom/gcc-arm-embedded/9-2019-q4-major/gcc-arm-none-eabi-9-2019-q4-major/a
 396              		.file 20 "/usr/local/Caskroom/gcc-arm-embedded/9-2019-q4-major/gcc-arm-none-eabi-9-2019-q4-major/a
 397              		.file 21 "/usr/local/Caskroom/gcc-arm-embedded/9-2019-q4-major/gcc-arm-none-eabi-9-2019-q4-major/a
 398              		.file 22 "/usr/local/Caskroom/gcc-arm-embedded/9-2019-q4-major/gcc-arm-none-eabi-9-2019-q4-major/a
 399              		.file 23 "/usr/local/Caskroom/gcc-arm-embedded/9-2019-q4-major/gcc-arm-none-eabi-9-2019-q4-major/a
 400              		.file 24 "/usr/local/Caskroom/gcc-arm-embedded/9-2019-q4-major/gcc-arm-none-eabi-9-2019-q4-major/a
 401              		.file 25 "/usr/local/Caskroom/gcc-arm-embedded/9-2019-q4-major/gcc-arm-none-eabi-9-2019-q4-major/a
 402              		.file 26 "/usr/local/Caskroom/gcc-arm-embedded/9-2019-q4-major/gcc-arm-none-eabi-9-2019-q4-major/a
 403              		.file 27 "/usr/local/Caskroom/gcc-arm-embedded/9-2019-q4-major/gcc-arm-none-eabi-9-2019-q4-major/a
 404              		.file 28 "/usr/local/Caskroom/gcc-arm-embedded/9-2019-q4-major/gcc-arm-none-eabi-9-2019-q4-major/a
 405              		.file 29 "/usr/local/Caskroom/gcc-arm-embedded/9-2019-q4-major/gcc-arm-none-eabi-9-2019-q4-major/a
 406              		.file 30 "/usr/local/Caskroom/gcc-arm-embedded/9-2019-q4-major/gcc-arm-none-eabi-9-2019-q4-major/a
 407              		.file 31 "/usr/local/Caskroom/gcc-arm-embedded/9-2019-q4-major/gcc-arm-none-eabi-9-2019-q4-major/a
 408              		.file 32 "/usr/local/Caskroom/gcc-arm-embedded/9-2019-q4-major/gcc-arm-none-eabi-9-2019-q4-major/a
 409              		.file 33 "/usr/local/Caskroom/gcc-arm-embedded/9-2019-q4-major/gcc-arm-none-eabi-9-2019-q4-major/l
 410              		.file 34 "<built-in>"
 411              		.file 35 "/usr/local/Caskroom/gcc-arm-embedded/9-2019-q4-major/gcc-arm-none-eabi-9-2019-q4-major/a
 412              		.file 36 "/usr/local/Caskroom/gcc-arm-embedded/9-2019-q4-major/gcc-arm-none-eabi-9-2019-q4-major/a
 413              		.file 37 "/usr/local/Caskroom/gcc-arm-embedded/9-2019-q4-major/gcc-arm-none-eabi-9-2019-q4-major/a
 414              		.file 38 "/usr/local/Caskroom/gcc-arm-embedded/9-2019-q4-major/gcc-arm-none-eabi-9-2019-q4-major/a
 415              		.file 39 "/usr/local/Caskroom/gcc-arm-embedded/9-2019-q4-major/gcc-arm-none-eabi-9-2019-q4-major/a
 416              		.file 40 "/usr/local/Caskroom/gcc-arm-embedded/9-2019-q4-major/gcc-arm-none-eabi-9-2019-q4-major/a
 417              		.file 41 "/usr/local/Caskroom/gcc-arm-embedded/9-2019-q4-major/gcc-arm-none-eabi-9-2019-q4-major/a
 418              		.file 42 "/usr/local/Caskroom/gcc-arm-embedded/9-2019-q4-major/gcc-arm-none-eabi-9-2019-q4-major/a
 419              		.file 43 "/usr/local/Caskroom/gcc-arm-embedded/9-2019-q4-major/gcc-arm-none-eabi-9-2019-q4-major/a
 420              		.file 44 "Src/Settings/trackData.h"
 421              		.file 45 "lookupTables/lookUpTables.h"
 422              		.file 46 "Drivers/uart.h"
 423              		.file 47 "Drivers/Usb/usb.h"
 424              		.file 48 "lookupTables/font.h"
 425              		.file 49 "Src/Settings/pattern.h"
 426              		.file 50 "Src/Settings/baseTrack.h"
ARM GAS  /var/folders/84/_x1cyy_j36g486tldtwl37280000gn/T//ccYvaShd.s 			page 10

