ARM GAS  /var/folders/84/_x1cyy_j36g486tldtwl37280000gn/T//ccyKhbRf.s 			page 1


   1              		.cpu cortex-m4
   2              		.eabi_attribute 27, 1
   3              		.eabi_attribute 28, 1
   4              		.eabi_attribute 20, 1
   5              		.eabi_attribute 21, 1
   6              		.eabi_attribute 23, 3
   7              		.eabi_attribute 24, 1
   8              		.eabi_attribute 25, 1
   9              		.eabi_attribute 26, 1
  10              		.eabi_attribute 30, 2
  11              		.eabi_attribute 34, 1
  12              		.eabi_attribute 18, 4
  13              		.file	"bitmap.cpp"
  14              		.text
  15              	.Ltext0:
  16              		.cfi_sections	.debug_frame
  17              		.section	.text._ZN6Bitmap3setENS_2IdE,"ax",%progbits
  18              		.align	1
  19              		.p2align 2,,3
  20              		.global	_ZN6Bitmap3setENS_2IdE
  21              		.arch armv7e-m
  22              		.syntax unified
  23              		.thumb
  24              		.thumb_func
  25              		.fpu fpv4-sp-d16
  27              	_ZN6Bitmap3setENS_2IdE:
  28              	.LVL0:
  29              	.LFB1974:
  30              		.file 1 "LookupTables/bitmap.cpp"
   1:LookupTables/bitmap.cpp **** #include "bitMap.h"
   2:LookupTables/bitmap.cpp **** 
   3:LookupTables/bitmap.cpp **** Bitmap bitmap;
   4:LookupTables/bitmap.cpp **** 
   5:LookupTables/bitmap.cpp **** static const uint8_t placeholder_page_16x16[] = {
   6:LookupTables/bitmap.cpp **** 	0x00, 0x00, 0xFE, 0x7F, 0x02, 0x40, 0x02, 0x40, 0x32, 0x48,
   7:LookupTables/bitmap.cpp **** 	0x62, 0x44, 0xC2, 0x42, 0x82, 0x41, 0x82, 0x43, 0x42, 0x46, 0x22,
   8:LookupTables/bitmap.cpp **** 	0x4C, 0x12, 0x48, 0x02, 0x40, 0x02, 0x40, 0xFE, 0x7F, 0x00, 0x00,
   9:LookupTables/bitmap.cpp **** };
  10:LookupTables/bitmap.cpp **** 
  11:LookupTables/bitmap.cpp **** static const uint8_t midi_out_page_16x16[] = {
  12:LookupTables/bitmap.cpp **** 	0xFF, 0xFF, 0xC1, 0xFF, 0xFD, 0xFF, 0xC1, 0xE7, 0xFD, 0xCB, 0xC3,
  13:LookupTables/bitmap.cpp **** 	0x9D, 0xFF, 0x3E, 0x41, 0x7F, 0x7F, 0x1C, 0xC5, 0x9D, 0xDD, 0x9D,
  14:LookupTables/bitmap.cpp **** 	0xC1, 0x9D, 0xFF, 0x81, 0xC1, 0xFF, 0xFF, 0xFF, 0xFF, 0xFF,
  15:LookupTables/bitmap.cpp **** };
  16:LookupTables/bitmap.cpp **** 
  17:LookupTables/bitmap.cpp **** static const uint8_t midi_in_page_16x16[] = {
  18:LookupTables/bitmap.cpp **** 	0xFF, 0xFF, 0xC1, 0xFF, 0xFD, 0xFF, 0xC1, 0x81, 0xFD, 0x9D, 0xC3,
  19:LookupTables/bitmap.cpp **** 	0x9D, 0xFF, 0x9D, 0x41, 0x1C, 0x7F, 0x7F, 0xC5, 0x3E, 0xDD, 0x9D,
  20:LookupTables/bitmap.cpp **** 	0xC1, 0xCB, 0xFF, 0xE7, 0xC1, 0xFF, 0xFF, 0xFF, 0xFF, 0xFF,
  21:LookupTables/bitmap.cpp **** };
  22:LookupTables/bitmap.cpp **** 
  23:LookupTables/bitmap.cpp **** static const uint8_t cv_out_page_16x16[] = {
  24:LookupTables/bitmap.cpp **** 	0x7F, 0x00, 0x7F, 0x00, 0x22, 0x00, 0x22, 0x18, 0x22, 0x34, 0x22,
  25:LookupTables/bitmap.cpp **** 	0x62, 0x22, 0xC1, 0xA2, 0x80, 0xBE, 0xE3, 0x3E, 0x62, 0x22, 0x62,
  26:LookupTables/bitmap.cpp **** 	0x14, 0x62, 0x22, 0x7E, 0x22, 0x00, 0x22, 0x00, 0x1C, 0x00,
  27:LookupTables/bitmap.cpp **** };
  28:LookupTables/bitmap.cpp **** 
ARM GAS  /var/folders/84/_x1cyy_j36g486tldtwl37280000gn/T//ccyKhbRf.s 			page 2


  29:LookupTables/bitmap.cpp **** static const uint8_t cv_in_page_16x16[] = {
  30:LookupTables/bitmap.cpp **** 	0x7F, 0x00, 0x7F, 0x00, 0x22, 0x00, 0x22, 0x7E, 0x22, 0x62,
  31:LookupTables/bitmap.cpp **** 	0x22, 0x62, 0x22, 0x62, 0xA2, 0xE3, 0xBE, 0x80, 0x3E, 0xC1, 0x22,
  32:LookupTables/bitmap.cpp **** 	0x62, 0x14, 0x34, 0x22, 0x18, 0x22, 0x00, 0x22, 0x00, 0x1C, 0x00,
  33:LookupTables/bitmap.cpp **** };
  34:LookupTables/bitmap.cpp **** 
  35:LookupTables/bitmap.cpp **** static const uint8_t project_load_page_16x16[] = {
  36:LookupTables/bitmap.cpp **** 	0x00, 0x00, 0x00, 0x00, 0xFF, 0xFF, 0x01, 0x80, 0x01, 0x80,
  37:LookupTables/bitmap.cpp **** 	0x01, 0x8C, 0x01, 0x9A, 0x01, 0x31, 0x81, 0x60, 0x41, 0xC0, 0xCF,
  38:LookupTables/bitmap.cpp **** 	0xF1, 0x09, 0x31, 0x0A, 0xB1, 0x7C, 0xB1, 0x00, 0x3F, 0x00, 0x00,
  39:LookupTables/bitmap.cpp **** };
  40:LookupTables/bitmap.cpp **** 
  41:LookupTables/bitmap.cpp **** static const uint8_t project_save_page_16x16[] = {
  42:LookupTables/bitmap.cpp **** 	0x00, 0x00, 0x00, 0x3F, 0x7F, 0xB1, 0x01, 0xB1, 0x01, 0x31,
  43:LookupTables/bitmap.cpp **** 	0xC1, 0xF1, 0x41, 0xC0, 0x81, 0x60, 0x01, 0x31, 0x01, 0x9A, 0x0F,
  44:LookupTables/bitmap.cpp **** 	0x8C, 0x09, 0x80, 0x0A, 0x80, 0xFC, 0xFF, 0x00, 0x00, 0x00, 0x00,
  45:LookupTables/bitmap.cpp **** };
  46:LookupTables/bitmap.cpp **** 
  47:LookupTables/bitmap.cpp **** static const uint8_t song_page_16x16[] = {
  48:LookupTables/bitmap.cpp **** 	0x00, 0x00, 0x40, 0x00, 0xA0, 0x00, 0x7C, 0x20, 0x08, 0x70,
  49:LookupTables/bitmap.cpp **** 	0x00, 0x70, 0x00, 0x70, 0xF8, 0x3F, 0x18, 0x00, 0x18, 0x00, 0x18,
  50:LookupTables/bitmap.cpp **** 	0x10, 0x0C, 0x38, 0x0C, 0x38, 0x0C, 0x38, 0xFC, 0x1F, 0x00, 0x00,
  51:LookupTables/bitmap.cpp **** };
  52:LookupTables/bitmap.cpp **** 
  53:LookupTables/bitmap.cpp **** static const uint8_t song_monitor_page_16x16[] = {
  54:LookupTables/bitmap.cpp **** 	0x00, 0x80, 0x00, 0x40, 0x10, 0x2E, 0x28, 0x11, 0x9F, 0x24,
  55:LookupTables/bitmap.cpp **** 	0x82, 0x2E, 0x80, 0x24, 0x00, 0x11, 0x7E, 0x0E, 0x06, 0x00, 0x06,
  56:LookupTables/bitmap.cpp **** 	0x00, 0x06, 0x04, 0x03, 0x0E, 0x03, 0x0E, 0x03, 0x0E, 0xFF, 0x07,
  57:LookupTables/bitmap.cpp **** };
  58:LookupTables/bitmap.cpp **** 
  59:LookupTables/bitmap.cpp **** static const uint8_t settings_page_16x16[] = {
  60:LookupTables/bitmap.cpp **** 	0x00, 0x00, 0xC0, 0x03, 0x58, 0x1A, 0x64, 0x26, 0x04, 0x20,
  61:LookupTables/bitmap.cpp **** 	0x08, 0x10, 0x8E, 0x71, 0x42, 0x42, 0x42, 0x42, 0x8E, 0x71, 0x08,
  62:LookupTables/bitmap.cpp **** 	0x10, 0x04, 0x20, 0x64, 0x26, 0x58, 0x1A, 0xC0, 0x03, 0x00, 0x00,
  63:LookupTables/bitmap.cpp **** };
  64:LookupTables/bitmap.cpp **** 
  65:LookupTables/bitmap.cpp **** static const uint8_t pattern_page_16x16[] = {
  66:LookupTables/bitmap.cpp **** 	0xD4, 0x1D, 0x48, 0x15, 0xD4, 0x1D, 0x00, 0x00, 0x5C, 0x1D,
  67:LookupTables/bitmap.cpp **** 	0x94, 0x14, 0x5C, 0x1D, 0x00, 0x00, 0x5C, 0x1D, 0x94, 0x14, 0x5C,
  68:LookupTables/bitmap.cpp **** 	0x1D, 0x00, 0x00, 0xD4, 0x15, 0x48, 0x09, 0xD4, 0x15, 0x00, 0x00,
  69:LookupTables/bitmap.cpp **** };
  70:LookupTables/bitmap.cpp **** 
  71:LookupTables/bitmap.cpp **** static const uint8_t track_page_16x16[] = {
  72:LookupTables/bitmap.cpp **** 	0xFF, 0x7F, 0x01, 0xC0, 0x81, 0xD8, 0x79, 0xD9, 0x81, 0xC0,
  73:LookupTables/bitmap.cpp **** 	0x01, 0xD8, 0x21, 0xD8, 0xD9, 0xC1, 0x21, 0xD8, 0x01, 0xD8, 0x41,
  74:LookupTables/bitmap.cpp **** 	0xC0, 0xB9, 0xD9, 0x41, 0xD8, 0x01, 0xC0, 0xFF, 0xFF, 0xFE, 0xFF
  75:LookupTables/bitmap.cpp **** };
  76:LookupTables/bitmap.cpp **** 
  77:LookupTables/bitmap.cpp **** static const uint8_t warning_icon_16x16[] = {
  78:LookupTables/bitmap.cpp **** 	0x00, 0x60, 0x00, 0xD8, 0x00, 0xC6, 0x80, 0xC1, 0x60, 0xC0,
  79:LookupTables/bitmap.cpp **** 	0x18, 0xC0, 0xC6, 0xDB, 0xC6, 0xDB, 0x1C, 0xC0, 0x70, 0xC0, 0xC0,
  80:LookupTables/bitmap.cpp **** 	0xC1, 0x00, 0xC7, 0x00, 0xDC, 0x00, 0xF8, 0x00, 0xE0, 0x00, 0x00,
  81:LookupTables/bitmap.cpp **** };
  82:LookupTables/bitmap.cpp **** 
  83:LookupTables/bitmap.cpp **** static const uint8_t timer_8x8[] = {
  84:LookupTables/bitmap.cpp **** 	0x3C, 0x42, 0x81, 0x81, 0x81, 0x81, 0x42, 0x3C,
  85:LookupTables/bitmap.cpp **** 	0x3C, 0x42, 0x81, 0x81, 0x8F, 0x87, 0x42, 0x3C,
ARM GAS  /var/folders/84/_x1cyy_j36g486tldtwl37280000gn/T//ccyKhbRf.s 			page 3


  86:LookupTables/bitmap.cpp **** 	0x3C, 0x42, 0x81, 0x81, 0x8F, 0x8F, 0x4E, 0x3C,
  87:LookupTables/bitmap.cpp **** 	0x3C, 0x42, 0x81, 0x81, 0x9F, 0xBF, 0x7E, 0x3C,
  88:LookupTables/bitmap.cpp **** 	0x3C, 0x42, 0x81, 0x81, 0xFF, 0xFF, 0x7E, 0x3C,
  89:LookupTables/bitmap.cpp **** 	0x3C, 0x42, 0xE1, 0xF1, 0xFF, 0xFF, 0x7E, 0x3C,
  90:LookupTables/bitmap.cpp **** 	0x3C, 0x72, 0xF1, 0xF1, 0xFF, 0xFF, 0x7E, 0x3C,
  91:LookupTables/bitmap.cpp **** 	0x3C, 0x7E, 0xFD, 0xF9, 0xFF, 0xFF, 0x7E, 0x3C,
  92:LookupTables/bitmap.cpp **** 	0x3C, 0x7E, 0xFF, 0xFF, 0xFF, 0xFF, 0x7E, 0x3C,
  93:LookupTables/bitmap.cpp **** };
  94:LookupTables/bitmap.cpp **** 
  95:LookupTables/bitmap.cpp **** // The big setter
  96:LookupTables/bitmap.cpp **** void Bitmap::set(Bitmap::Id id) {
  31              		.loc 1 96 33 view -0
  32              		.cfi_startproc
  33              		@ args = 0, pretend = 0, frame = 0
  34              		@ frame_needed = 0, uses_anonymous_args = 0
  35              		@ link register save eliminated.
  97:LookupTables/bitmap.cpp **** 	switch (id)
  36              		.loc 1 97 2 view .LVU1
  37 0000 0D29     		cmp	r1, #13
  38 0002 10D8     		bhi	.L1
  39 0004 DFE801F0 		tbb	[pc, r1]
  40              	.L4:
  41 0008 10       		.byte	(.L17-.L4)/2
  42 0009 1A       		.byte	(.L16-.L4)/2
  43 000a 1D       		.byte	(.L15-.L4)/2
  44 000b 20       		.byte	(.L14-.L4)/2
  45 000c 23       		.byte	(.L13-.L4)/2
  46 000d 26       		.byte	(.L12-.L4)/2
  47 000e 29       		.byte	(.L11-.L4)/2
  48 000f 2C       		.byte	(.L10-.L4)/2
  49 0010 2F       		.byte	(.L9-.L4)/2
  50 0011 32       		.byte	(.L8-.L4)/2
  51 0012 35       		.byte	(.L7-.L4)/2
  52 0013 38       		.byte	(.L6-.L4)/2
  53 0014 3B       		.byte	(.L5-.L4)/2
  54 0015 07       		.byte	(.L3-.L4)/2
  55              		.p2align 1
  56              	.L3:
  98:LookupTables/bitmap.cpp **** 	{
  99:LookupTables/bitmap.cpp **** 	case Bitmap::PLACEHOLDER_PAGE:
 100:LookupTables/bitmap.cpp **** 		bitmap.data = &placeholder_page_16x16[0],
 101:LookupTables/bitmap.cpp **** 		bitmap.width = 16;
 102:LookupTables/bitmap.cpp **** 		bitmap.height = 16;
 103:LookupTables/bitmap.cpp **** 		bitmap.frames = 1;
 104:LookupTables/bitmap.cpp **** 		break;
 105:LookupTables/bitmap.cpp **** 	case Bitmap::MIDI_IN_PAGE:
 106:LookupTables/bitmap.cpp **** 		bitmap.data = &midi_in_page_16x16[0],
 107:LookupTables/bitmap.cpp **** 		bitmap.width = 16;
 108:LookupTables/bitmap.cpp **** 		bitmap.height = 16;
 109:LookupTables/bitmap.cpp **** 		bitmap.frames = 1;
 110:LookupTables/bitmap.cpp **** 		break;
 111:LookupTables/bitmap.cpp **** 	case Bitmap::MIDI_OUT_PAGE:
 112:LookupTables/bitmap.cpp **** 		bitmap.data = &midi_out_page_16x16[0],
 113:LookupTables/bitmap.cpp **** 		bitmap.width = 16;
 114:LookupTables/bitmap.cpp **** 		bitmap.height = 16;
 115:LookupTables/bitmap.cpp **** 		bitmap.frames = 1;
 116:LookupTables/bitmap.cpp **** 		break;
ARM GAS  /var/folders/84/_x1cyy_j36g486tldtwl37280000gn/T//ccyKhbRf.s 			page 4


 117:LookupTables/bitmap.cpp **** 	case Bitmap::CV_IN_PAGE:
 118:LookupTables/bitmap.cpp **** 		bitmap.data = &cv_in_page_16x16[0],
 119:LookupTables/bitmap.cpp **** 		bitmap.width = 16;
 120:LookupTables/bitmap.cpp **** 		bitmap.height = 16;
 121:LookupTables/bitmap.cpp **** 		bitmap.frames = 1;
 122:LookupTables/bitmap.cpp **** 		break;
 123:LookupTables/bitmap.cpp **** 	case Bitmap::CV_OUT_PAGE:
 124:LookupTables/bitmap.cpp **** 		bitmap.data = &cv_out_page_16x16[0],
 125:LookupTables/bitmap.cpp **** 		bitmap.width = 16;
 126:LookupTables/bitmap.cpp **** 		bitmap.height = 16;
 127:LookupTables/bitmap.cpp **** 		bitmap.frames = 1;
 128:LookupTables/bitmap.cpp **** 		break;
 129:LookupTables/bitmap.cpp **** 	case Bitmap::PROJECT_LOAD_PAGE:
 130:LookupTables/bitmap.cpp **** 		bitmap.data = &project_load_page_16x16[0],
 131:LookupTables/bitmap.cpp **** 		bitmap.width = 16;
 132:LookupTables/bitmap.cpp **** 		bitmap.height = 16;
 133:LookupTables/bitmap.cpp **** 		bitmap.frames = 1;
 134:LookupTables/bitmap.cpp **** 		break;
 135:LookupTables/bitmap.cpp **** 	case Bitmap::PROJECT_SAVE_PAGE:
 136:LookupTables/bitmap.cpp **** 		bitmap.data = &project_save_page_16x16[0],
 137:LookupTables/bitmap.cpp **** 		bitmap.width = 16;
 138:LookupTables/bitmap.cpp **** 		bitmap.height = 16;
 139:LookupTables/bitmap.cpp **** 		bitmap.frames = 1;
 140:LookupTables/bitmap.cpp **** 		break;
 141:LookupTables/bitmap.cpp **** 	case Bitmap::SONG_PAGE:
 142:LookupTables/bitmap.cpp **** 		bitmap.data = &song_page_16x16[0],
 143:LookupTables/bitmap.cpp **** 		bitmap.width = 16;
 144:LookupTables/bitmap.cpp **** 		bitmap.height = 16;
 145:LookupTables/bitmap.cpp **** 		bitmap.frames = 1;
 146:LookupTables/bitmap.cpp **** 		break;
 147:LookupTables/bitmap.cpp **** 	case Bitmap::SONG_MONITOR_PAGE:
 148:LookupTables/bitmap.cpp **** 		bitmap.data = &song_monitor_page_16x16[0],
 149:LookupTables/bitmap.cpp **** 		bitmap.width = 16;
 150:LookupTables/bitmap.cpp **** 		bitmap.height = 16;
 151:LookupTables/bitmap.cpp **** 		bitmap.frames = 1;
 152:LookupTables/bitmap.cpp **** 		break;
 153:LookupTables/bitmap.cpp **** 	case Bitmap::SETTINGS_PAGE:
 154:LookupTables/bitmap.cpp **** 		bitmap.data = &settings_page_16x16[0],
 155:LookupTables/bitmap.cpp **** 		bitmap.width = 16;
 156:LookupTables/bitmap.cpp **** 		bitmap.height = 16;
 157:LookupTables/bitmap.cpp **** 		bitmap.frames = 1;
 158:LookupTables/bitmap.cpp **** 		break;
 159:LookupTables/bitmap.cpp **** 	case Bitmap::PATTERN_PAGE:
 160:LookupTables/bitmap.cpp **** 		bitmap.data = &pattern_page_16x16[0],
 161:LookupTables/bitmap.cpp **** 		bitmap.width = 16;
 162:LookupTables/bitmap.cpp **** 		bitmap.height = 16;
 163:LookupTables/bitmap.cpp **** 		bitmap.frames = 1;
 164:LookupTables/bitmap.cpp **** 		break;
 165:LookupTables/bitmap.cpp **** 	case Bitmap::TRACK_PAGE:
 166:LookupTables/bitmap.cpp **** 		bitmap.data = &track_page_16x16[0],
 167:LookupTables/bitmap.cpp **** 		bitmap.width = 16;
 168:LookupTables/bitmap.cpp **** 		bitmap.height = 16;
 169:LookupTables/bitmap.cpp **** 		bitmap.frames = 1;
 170:LookupTables/bitmap.cpp **** 		break;
 171:LookupTables/bitmap.cpp **** 	case Bitmap::WARNING_ICON:
 172:LookupTables/bitmap.cpp **** 		bitmap.data = &warning_icon_16x16[0],
 173:LookupTables/bitmap.cpp **** 		bitmap.width = 16;
ARM GAS  /var/folders/84/_x1cyy_j36g486tldtwl37280000gn/T//ccyKhbRf.s 			page 5


 174:LookupTables/bitmap.cpp **** 		bitmap.height = 16;
 175:LookupTables/bitmap.cpp **** 		bitmap.frames = 1;
 176:LookupTables/bitmap.cpp **** 		break;
 177:LookupTables/bitmap.cpp **** 	case Bitmap::TIMER:
  57              		.loc 1 177 2 view .LVU2
 178:LookupTables/bitmap.cpp **** 		bitmap.data = &timer_8x8[0],
  58              		.loc 1 178 3 view .LVU3
  59              		.loc 1 178 15 is_stmt 0 view .LVU4
  60 0016 1B4B     		ldr	r3, .L20
  61 0018 1B4A     		ldr	r2, .L20+4
  62 001a 1A60     		str	r2, [r3]
 179:LookupTables/bitmap.cpp **** 		bitmap.width = 8;
 180:LookupTables/bitmap.cpp **** 		bitmap.height = 8;
  63              		.loc 1 180 3 is_stmt 1 view .LVU5
 181:LookupTables/bitmap.cpp **** 		bitmap.frames = 9;
  64              		.loc 1 181 3 view .LVU6
 179:LookupTables/bitmap.cpp **** 		bitmap.width = 8;
  65              		.loc 1 179 16 is_stmt 0 view .LVU7
  66 001c 40F60801 		movw	r1, #2056
  67              	.LVL1:
  68              		.loc 1 181 17 view .LVU8
  69 0020 0920     		movs	r0, #9
  70              	.LVL2:
 179:LookupTables/bitmap.cpp **** 		bitmap.width = 8;
  71              		.loc 1 179 16 view .LVU9
  72 0022 9980     		strh	r1, [r3, #4]	@ movhi
  73              		.loc 1 181 17 view .LVU10
  74 0024 9871     		strb	r0, [r3, #6]
 182:LookupTables/bitmap.cpp **** 		break;
  75              		.loc 1 182 3 is_stmt 1 view .LVU11
  76              	.L1:
 183:LookupTables/bitmap.cpp **** 	default:
 184:LookupTables/bitmap.cpp **** 		break;
 185:LookupTables/bitmap.cpp **** 	}
 186:LookupTables/bitmap.cpp **** }
  77              		.loc 1 186 1 is_stmt 0 view .LVU12
  78 0026 7047     		bx	lr
  79              	.LVL3:
  80              	.L17:
  99:LookupTables/bitmap.cpp **** 		bitmap.data = &placeholder_page_16x16[0],
  81              		.loc 1 99 2 is_stmt 1 view .LVU13
 100:LookupTables/bitmap.cpp **** 		bitmap.width = 16;
  82              		.loc 1 100 3 view .LVU14
 100:LookupTables/bitmap.cpp **** 		bitmap.width = 16;
  83              		.loc 1 100 15 is_stmt 0 view .LVU15
  84 0028 164B     		ldr	r3, .L20
  85 002a 184A     		ldr	r2, .L20+8
  86              	.L18:
 106:LookupTables/bitmap.cpp **** 		bitmap.width = 16;
  87              		.loc 1 106 15 view .LVU16
  88 002c 1A60     		str	r2, [r3]
 108:LookupTables/bitmap.cpp **** 		bitmap.frames = 1;
  89              		.loc 1 108 3 is_stmt 1 view .LVU17
 109:LookupTables/bitmap.cpp **** 		break;
  90              		.loc 1 109 3 view .LVU18
 107:LookupTables/bitmap.cpp **** 		bitmap.height = 16;
  91              		.loc 1 107 16 is_stmt 0 view .LVU19
ARM GAS  /var/folders/84/_x1cyy_j36g486tldtwl37280000gn/T//ccyKhbRf.s 			page 6


  92 002e 41F2100C 		movw	ip, #4112
 109:LookupTables/bitmap.cpp **** 		break;
  93              		.loc 1 109 17 view .LVU20
  94 0032 0121     		movs	r1, #1
  95              	.LVL4:
 107:LookupTables/bitmap.cpp **** 		bitmap.height = 16;
  96              		.loc 1 107 16 view .LVU21
  97 0034 A3F804C0 		strh	ip, [r3, #4]	@ movhi
 109:LookupTables/bitmap.cpp **** 		break;
  98              		.loc 1 109 17 view .LVU22
  99 0038 9971     		strb	r1, [r3, #6]
 110:LookupTables/bitmap.cpp **** 	case Bitmap::MIDI_OUT_PAGE:
 100              		.loc 1 110 3 is_stmt 1 view .LVU23
 101 003a 7047     		bx	lr
 102              	.LVL5:
 103              	.L16:
 105:LookupTables/bitmap.cpp **** 		bitmap.data = &midi_in_page_16x16[0],
 104              		.loc 1 105 2 view .LVU24
 106:LookupTables/bitmap.cpp **** 		bitmap.width = 16;
 105              		.loc 1 106 3 view .LVU25
 106:LookupTables/bitmap.cpp **** 		bitmap.width = 16;
 106              		.loc 1 106 15 is_stmt 0 view .LVU26
 107 003c 114B     		ldr	r3, .L20
 108 003e 144A     		ldr	r2, .L20+12
 109 0040 F4E7     		b	.L18
 110              	.L15:
 111:LookupTables/bitmap.cpp **** 		bitmap.data = &midi_out_page_16x16[0],
 111              		.loc 1 111 2 is_stmt 1 view .LVU27
 112:LookupTables/bitmap.cpp **** 		bitmap.width = 16;
 112              		.loc 1 112 3 view .LVU28
 112:LookupTables/bitmap.cpp **** 		bitmap.width = 16;
 113              		.loc 1 112 15 is_stmt 0 view .LVU29
 114 0042 104B     		ldr	r3, .L20
 115 0044 134A     		ldr	r2, .L20+16
 116 0046 F1E7     		b	.L18
 117              	.L14:
 117:LookupTables/bitmap.cpp **** 		bitmap.data = &cv_in_page_16x16[0],
 118              		.loc 1 117 2 is_stmt 1 view .LVU30
 118:LookupTables/bitmap.cpp **** 		bitmap.width = 16;
 119              		.loc 1 118 3 view .LVU31
 118:LookupTables/bitmap.cpp **** 		bitmap.width = 16;
 120              		.loc 1 118 15 is_stmt 0 view .LVU32
 121 0048 0E4B     		ldr	r3, .L20
 122 004a 134A     		ldr	r2, .L20+20
 123 004c EEE7     		b	.L18
 124              	.L13:
 123:LookupTables/bitmap.cpp **** 		bitmap.data = &cv_out_page_16x16[0],
 125              		.loc 1 123 2 is_stmt 1 view .LVU33
 124:LookupTables/bitmap.cpp **** 		bitmap.width = 16;
 126              		.loc 1 124 3 view .LVU34
 124:LookupTables/bitmap.cpp **** 		bitmap.width = 16;
 127              		.loc 1 124 15 is_stmt 0 view .LVU35
 128 004e 0D4B     		ldr	r3, .L20
 129 0050 124A     		ldr	r2, .L20+24
 130 0052 EBE7     		b	.L18
 131              	.L12:
 129:LookupTables/bitmap.cpp **** 		bitmap.data = &project_load_page_16x16[0],
ARM GAS  /var/folders/84/_x1cyy_j36g486tldtwl37280000gn/T//ccyKhbRf.s 			page 7


 132              		.loc 1 129 2 is_stmt 1 view .LVU36
 130:LookupTables/bitmap.cpp **** 		bitmap.width = 16;
 133              		.loc 1 130 3 view .LVU37
 130:LookupTables/bitmap.cpp **** 		bitmap.width = 16;
 134              		.loc 1 130 15 is_stmt 0 view .LVU38
 135 0054 0B4B     		ldr	r3, .L20
 136 0056 124A     		ldr	r2, .L20+28
 137 0058 E8E7     		b	.L18
 138              	.L11:
 135:LookupTables/bitmap.cpp **** 		bitmap.data = &project_save_page_16x16[0],
 139              		.loc 1 135 2 is_stmt 1 view .LVU39
 136:LookupTables/bitmap.cpp **** 		bitmap.width = 16;
 140              		.loc 1 136 3 view .LVU40
 136:LookupTables/bitmap.cpp **** 		bitmap.width = 16;
 141              		.loc 1 136 15 is_stmt 0 view .LVU41
 142 005a 0A4B     		ldr	r3, .L20
 143 005c 114A     		ldr	r2, .L20+32
 144 005e E5E7     		b	.L18
 145              	.L10:
 141:LookupTables/bitmap.cpp **** 		bitmap.data = &song_page_16x16[0],
 146              		.loc 1 141 2 is_stmt 1 view .LVU42
 142:LookupTables/bitmap.cpp **** 		bitmap.width = 16;
 147              		.loc 1 142 3 view .LVU43
 142:LookupTables/bitmap.cpp **** 		bitmap.width = 16;
 148              		.loc 1 142 15 is_stmt 0 view .LVU44
 149 0060 084B     		ldr	r3, .L20
 150 0062 114A     		ldr	r2, .L20+36
 151 0064 E2E7     		b	.L18
 152              	.L9:
 147:LookupTables/bitmap.cpp **** 		bitmap.data = &song_monitor_page_16x16[0],
 153              		.loc 1 147 2 is_stmt 1 view .LVU45
 148:LookupTables/bitmap.cpp **** 		bitmap.width = 16;
 154              		.loc 1 148 3 view .LVU46
 148:LookupTables/bitmap.cpp **** 		bitmap.width = 16;
 155              		.loc 1 148 15 is_stmt 0 view .LVU47
 156 0066 074B     		ldr	r3, .L20
 157 0068 104A     		ldr	r2, .L20+40
 158 006a DFE7     		b	.L18
 159              	.L8:
 153:LookupTables/bitmap.cpp **** 		bitmap.data = &settings_page_16x16[0],
 160              		.loc 1 153 2 is_stmt 1 view .LVU48
 154:LookupTables/bitmap.cpp **** 		bitmap.width = 16;
 161              		.loc 1 154 3 view .LVU49
 154:LookupTables/bitmap.cpp **** 		bitmap.width = 16;
 162              		.loc 1 154 15 is_stmt 0 view .LVU50
 163 006c 054B     		ldr	r3, .L20
 164 006e 104A     		ldr	r2, .L20+44
 165 0070 DCE7     		b	.L18
 166              	.L7:
 159:LookupTables/bitmap.cpp **** 		bitmap.data = &pattern_page_16x16[0],
 167              		.loc 1 159 2 is_stmt 1 view .LVU51
 160:LookupTables/bitmap.cpp **** 		bitmap.width = 16;
 168              		.loc 1 160 3 view .LVU52
 160:LookupTables/bitmap.cpp **** 		bitmap.width = 16;
 169              		.loc 1 160 15 is_stmt 0 view .LVU53
 170 0072 044B     		ldr	r3, .L20
 171 0074 0F4A     		ldr	r2, .L20+48
ARM GAS  /var/folders/84/_x1cyy_j36g486tldtwl37280000gn/T//ccyKhbRf.s 			page 8


 172 0076 D9E7     		b	.L18
 173              	.L6:
 165:LookupTables/bitmap.cpp **** 		bitmap.data = &track_page_16x16[0],
 174              		.loc 1 165 2 is_stmt 1 view .LVU54
 166:LookupTables/bitmap.cpp **** 		bitmap.width = 16;
 175              		.loc 1 166 3 view .LVU55
 166:LookupTables/bitmap.cpp **** 		bitmap.width = 16;
 176              		.loc 1 166 15 is_stmt 0 view .LVU56
 177 0078 024B     		ldr	r3, .L20
 178 007a 0F4A     		ldr	r2, .L20+52
 179 007c D6E7     		b	.L18
 180              	.L5:
 171:LookupTables/bitmap.cpp **** 		bitmap.data = &warning_icon_16x16[0],
 181              		.loc 1 171 2 is_stmt 1 view .LVU57
 172:LookupTables/bitmap.cpp **** 		bitmap.width = 16;
 182              		.loc 1 172 3 view .LVU58
 172:LookupTables/bitmap.cpp **** 		bitmap.width = 16;
 183              		.loc 1 172 15 is_stmt 0 view .LVU59
 184 007e 014B     		ldr	r3, .L20
 185 0080 0E4A     		ldr	r2, .L20+56
 186 0082 D3E7     		b	.L18
 187              	.L21:
 188              		.align	2
 189              	.L20:
 190 0084 00000000 		.word	.LANCHOR0
 191 0088 00000000 		.word	.LANCHOR14
 192 008c 00000000 		.word	.LANCHOR1
 193 0090 00000000 		.word	.LANCHOR2
 194 0094 00000000 		.word	.LANCHOR3
 195 0098 00000000 		.word	.LANCHOR4
 196 009c 00000000 		.word	.LANCHOR5
 197 00a0 00000000 		.word	.LANCHOR6
 198 00a4 00000000 		.word	.LANCHOR7
 199 00a8 00000000 		.word	.LANCHOR8
 200 00ac 00000000 		.word	.LANCHOR9
 201 00b0 00000000 		.word	.LANCHOR10
 202 00b4 00000000 		.word	.LANCHOR11
 203 00b8 00000000 		.word	.LANCHOR12
 204 00bc 00000000 		.word	.LANCHOR13
 205              		.cfi_endproc
 206              	.LFE1974:
 208              		.section	.text._ZN6Bitmap7pointerEh,"ax",%progbits
 209              		.align	1
 210              		.p2align 2,,3
 211              		.global	_ZN6Bitmap7pointerEh
 212              		.syntax unified
 213              		.thumb
 214              		.thumb_func
 215              		.fpu fpv4-sp-d16
 217              	_ZN6Bitmap7pointerEh:
 218              	.LVL6:
 219              	.LFB1975:
 187:LookupTables/bitmap.cpp **** 
 188:LookupTables/bitmap.cpp **** const uint8_t* Bitmap::pointer(uint8_t frame) {
 220              		.loc 1 188 47 is_stmt 1 view -0
 221              		.cfi_startproc
 222              		@ args = 0, pretend = 0, frame = 8
ARM GAS  /var/folders/84/_x1cyy_j36g486tldtwl37280000gn/T//ccyKhbRf.s 			page 9


 223              		@ frame_needed = 0, uses_anonymous_args = 0
 189:LookupTables/bitmap.cpp **** 	uint8_t index = 0;
 224              		.loc 1 189 2 view .LVU61
 190:LookupTables/bitmap.cpp **** 	if (bitmap.frames > 1) {
 225              		.loc 1 190 2 view .LVU62
 188:LookupTables/bitmap.cpp **** 	uint8_t index = 0;
 226              		.loc 1 188 47 is_stmt 0 view .LVU63
 227 0000 30B5     		push	{r4, r5, lr}
 228              		.cfi_def_cfa_offset 12
 229              		.cfi_offset 4, -12
 230              		.cfi_offset 5, -8
 231              		.cfi_offset 14, -4
 232              		.loc 1 190 13 view .LVU64
 233 0002 124C     		ldr	r4, .L26
 234              		.loc 1 190 2 view .LVU65
 235 0004 A379     		ldrb	r3, [r4, #6]	@ zero_extendqisi2
 236 0006 012B     		cmp	r3, #1
 188:LookupTables/bitmap.cpp **** 	uint8_t index = 0;
 237              		.loc 1 188 47 view .LVU66
 238 0008 83B0     		sub	sp, sp, #12
 239              		.cfi_def_cfa_offset 24
 240              		.loc 1 190 2 view .LVU67
 241 000a 1AD9     		bls	.L24
 191:LookupTables/bitmap.cpp **** 		index = frame * bitmap.width * std::ceil(bitmap.height / 8.0f);
 242              		.loc 1 191 3 is_stmt 1 view .LVU68
 243              	.LVL7:
 244              	.LBB4:
 245              	.LBI4:
 246              		.file 2 "/usr/local/Caskroom/gcc-arm-embedded/9-2019-q4-major/gcc-arm-none-eabi-9-2019-q4-major/ar
   1:/usr/local/Caskroom/gcc-arm-embedded/9-2019-q4-major/gcc-arm-none-eabi-9-2019-q4-major/arm-none-eabi/include/c++/9.2.1/cmath **** // -*- C++ -*- C forwarding header.
   2:/usr/local/Caskroom/gcc-arm-embedded/9-2019-q4-major/gcc-arm-none-eabi-9-2019-q4-major/arm-none-eabi/include/c++/9.2.1/cmath **** 
   3:/usr/local/Caskroom/gcc-arm-embedded/9-2019-q4-major/gcc-arm-none-eabi-9-2019-q4-major/arm-none-eabi/include/c++/9.2.1/cmath **** // Copyright (C) 1997-2019 Free Software Foundation, Inc.
   4:/usr/local/Caskroom/gcc-arm-embedded/9-2019-q4-major/gcc-arm-none-eabi-9-2019-q4-major/arm-none-eabi/include/c++/9.2.1/cmath **** //
   5:/usr/local/Caskroom/gcc-arm-embedded/9-2019-q4-major/gcc-arm-none-eabi-9-2019-q4-major/arm-none-eabi/include/c++/9.2.1/cmath **** // This file is part of the GNU ISO C++ Library.  This library is free
   6:/usr/local/Caskroom/gcc-arm-embedded/9-2019-q4-major/gcc-arm-none-eabi-9-2019-q4-major/arm-none-eabi/include/c++/9.2.1/cmath **** // software; you can redistribute it and/or modify it under the
   7:/usr/local/Caskroom/gcc-arm-embedded/9-2019-q4-major/gcc-arm-none-eabi-9-2019-q4-major/arm-none-eabi/include/c++/9.2.1/cmath **** // terms of the GNU General Public License as published by the
   8:/usr/local/Caskroom/gcc-arm-embedded/9-2019-q4-major/gcc-arm-none-eabi-9-2019-q4-major/arm-none-eabi/include/c++/9.2.1/cmath **** // Free Software Foundation; either version 3, or (at your option)
   9:/usr/local/Caskroom/gcc-arm-embedded/9-2019-q4-major/gcc-arm-none-eabi-9-2019-q4-major/arm-none-eabi/include/c++/9.2.1/cmath **** // any later version.
  10:/usr/local/Caskroom/gcc-arm-embedded/9-2019-q4-major/gcc-arm-none-eabi-9-2019-q4-major/arm-none-eabi/include/c++/9.2.1/cmath **** 
  11:/usr/local/Caskroom/gcc-arm-embedded/9-2019-q4-major/gcc-arm-none-eabi-9-2019-q4-major/arm-none-eabi/include/c++/9.2.1/cmath **** // This library is distributed in the hope that it will be useful,
  12:/usr/local/Caskroom/gcc-arm-embedded/9-2019-q4-major/gcc-arm-none-eabi-9-2019-q4-major/arm-none-eabi/include/c++/9.2.1/cmath **** // but WITHOUT ANY WARRANTY; without even the implied warranty of
  13:/usr/local/Caskroom/gcc-arm-embedded/9-2019-q4-major/gcc-arm-none-eabi-9-2019-q4-major/arm-none-eabi/include/c++/9.2.1/cmath **** // MERCHANTABILITY or FITNESS FOR A PARTICULAR PURPOSE.  See the
  14:/usr/local/Caskroom/gcc-arm-embedded/9-2019-q4-major/gcc-arm-none-eabi-9-2019-q4-major/arm-none-eabi/include/c++/9.2.1/cmath **** // GNU General Public License for more details.
  15:/usr/local/Caskroom/gcc-arm-embedded/9-2019-q4-major/gcc-arm-none-eabi-9-2019-q4-major/arm-none-eabi/include/c++/9.2.1/cmath **** 
  16:/usr/local/Caskroom/gcc-arm-embedded/9-2019-q4-major/gcc-arm-none-eabi-9-2019-q4-major/arm-none-eabi/include/c++/9.2.1/cmath **** // Under Section 7 of GPL version 3, you are granted additional
  17:/usr/local/Caskroom/gcc-arm-embedded/9-2019-q4-major/gcc-arm-none-eabi-9-2019-q4-major/arm-none-eabi/include/c++/9.2.1/cmath **** // permissions described in the GCC Runtime Library Exception, version
  18:/usr/local/Caskroom/gcc-arm-embedded/9-2019-q4-major/gcc-arm-none-eabi-9-2019-q4-major/arm-none-eabi/include/c++/9.2.1/cmath **** // 3.1, as published by the Free Software Foundation.
  19:/usr/local/Caskroom/gcc-arm-embedded/9-2019-q4-major/gcc-arm-none-eabi-9-2019-q4-major/arm-none-eabi/include/c++/9.2.1/cmath **** 
  20:/usr/local/Caskroom/gcc-arm-embedded/9-2019-q4-major/gcc-arm-none-eabi-9-2019-q4-major/arm-none-eabi/include/c++/9.2.1/cmath **** // You should have received a copy of the GNU General Public License and
  21:/usr/local/Caskroom/gcc-arm-embedded/9-2019-q4-major/gcc-arm-none-eabi-9-2019-q4-major/arm-none-eabi/include/c++/9.2.1/cmath **** // a copy of the GCC Runtime Library Exception along with this program;
  22:/usr/local/Caskroom/gcc-arm-embedded/9-2019-q4-major/gcc-arm-none-eabi-9-2019-q4-major/arm-none-eabi/include/c++/9.2.1/cmath **** // see the files COPYING3 and COPYING.RUNTIME respectively.  If not, see
  23:/usr/local/Caskroom/gcc-arm-embedded/9-2019-q4-major/gcc-arm-none-eabi-9-2019-q4-major/arm-none-eabi/include/c++/9.2.1/cmath **** // <http://www.gnu.org/licenses/>.
  24:/usr/local/Caskroom/gcc-arm-embedded/9-2019-q4-major/gcc-arm-none-eabi-9-2019-q4-major/arm-none-eabi/include/c++/9.2.1/cmath **** 
  25:/usr/local/Caskroom/gcc-arm-embedded/9-2019-q4-major/gcc-arm-none-eabi-9-2019-q4-major/arm-none-eabi/include/c++/9.2.1/cmath **** /** @file include/cmath
  26:/usr/local/Caskroom/gcc-arm-embedded/9-2019-q4-major/gcc-arm-none-eabi-9-2019-q4-major/arm-none-eabi/include/c++/9.2.1/cmath ****  *  This is a Standard C++ Library file.  You should @c \#include this file
  27:/usr/local/Caskroom/gcc-arm-embedded/9-2019-q4-major/gcc-arm-none-eabi-9-2019-q4-major/arm-none-eabi/include/c++/9.2.1/cmath ****  *  in your programs, rather than any of the @a *.h implementation files.
  28:/usr/local/Caskroom/gcc-arm-embedded/9-2019-q4-major/gcc-arm-none-eabi-9-2019-q4-major/arm-none-eabi/include/c++/9.2.1/cmath ****  *
ARM GAS  /var/folders/84/_x1cyy_j36g486tldtwl37280000gn/T//ccyKhbRf.s 			page 10


  29:/usr/local/Caskroom/gcc-arm-embedded/9-2019-q4-major/gcc-arm-none-eabi-9-2019-q4-major/arm-none-eabi/include/c++/9.2.1/cmath ****  *  This is the C++ version of the Standard C Library header @c math.h,
  30:/usr/local/Caskroom/gcc-arm-embedded/9-2019-q4-major/gcc-arm-none-eabi-9-2019-q4-major/arm-none-eabi/include/c++/9.2.1/cmath ****  *  and its contents are (mostly) the same as that header, but are all
  31:/usr/local/Caskroom/gcc-arm-embedded/9-2019-q4-major/gcc-arm-none-eabi-9-2019-q4-major/arm-none-eabi/include/c++/9.2.1/cmath ****  *  contained in the namespace @c std (except for names which are defined
  32:/usr/local/Caskroom/gcc-arm-embedded/9-2019-q4-major/gcc-arm-none-eabi-9-2019-q4-major/arm-none-eabi/include/c++/9.2.1/cmath ****  *  as macros in C).
  33:/usr/local/Caskroom/gcc-arm-embedded/9-2019-q4-major/gcc-arm-none-eabi-9-2019-q4-major/arm-none-eabi/include/c++/9.2.1/cmath ****  */
  34:/usr/local/Caskroom/gcc-arm-embedded/9-2019-q4-major/gcc-arm-none-eabi-9-2019-q4-major/arm-none-eabi/include/c++/9.2.1/cmath **** 
  35:/usr/local/Caskroom/gcc-arm-embedded/9-2019-q4-major/gcc-arm-none-eabi-9-2019-q4-major/arm-none-eabi/include/c++/9.2.1/cmath **** //
  36:/usr/local/Caskroom/gcc-arm-embedded/9-2019-q4-major/gcc-arm-none-eabi-9-2019-q4-major/arm-none-eabi/include/c++/9.2.1/cmath **** // ISO C++ 14882: 26.5  C library
  37:/usr/local/Caskroom/gcc-arm-embedded/9-2019-q4-major/gcc-arm-none-eabi-9-2019-q4-major/arm-none-eabi/include/c++/9.2.1/cmath **** //
  38:/usr/local/Caskroom/gcc-arm-embedded/9-2019-q4-major/gcc-arm-none-eabi-9-2019-q4-major/arm-none-eabi/include/c++/9.2.1/cmath **** 
  39:/usr/local/Caskroom/gcc-arm-embedded/9-2019-q4-major/gcc-arm-none-eabi-9-2019-q4-major/arm-none-eabi/include/c++/9.2.1/cmath **** #pragma GCC system_header
  40:/usr/local/Caskroom/gcc-arm-embedded/9-2019-q4-major/gcc-arm-none-eabi-9-2019-q4-major/arm-none-eabi/include/c++/9.2.1/cmath **** 
  41:/usr/local/Caskroom/gcc-arm-embedded/9-2019-q4-major/gcc-arm-none-eabi-9-2019-q4-major/arm-none-eabi/include/c++/9.2.1/cmath **** #include <bits/c++config.h>
  42:/usr/local/Caskroom/gcc-arm-embedded/9-2019-q4-major/gcc-arm-none-eabi-9-2019-q4-major/arm-none-eabi/include/c++/9.2.1/cmath **** #include <bits/cpp_type_traits.h>
  43:/usr/local/Caskroom/gcc-arm-embedded/9-2019-q4-major/gcc-arm-none-eabi-9-2019-q4-major/arm-none-eabi/include/c++/9.2.1/cmath **** #include <ext/type_traits.h>
  44:/usr/local/Caskroom/gcc-arm-embedded/9-2019-q4-major/gcc-arm-none-eabi-9-2019-q4-major/arm-none-eabi/include/c++/9.2.1/cmath **** #define _GLIBCXX_INCLUDE_NEXT_C_HEADERS
  45:/usr/local/Caskroom/gcc-arm-embedded/9-2019-q4-major/gcc-arm-none-eabi-9-2019-q4-major/arm-none-eabi/include/c++/9.2.1/cmath **** #include_next <math.h>
  46:/usr/local/Caskroom/gcc-arm-embedded/9-2019-q4-major/gcc-arm-none-eabi-9-2019-q4-major/arm-none-eabi/include/c++/9.2.1/cmath **** #undef _GLIBCXX_INCLUDE_NEXT_C_HEADERS
  47:/usr/local/Caskroom/gcc-arm-embedded/9-2019-q4-major/gcc-arm-none-eabi-9-2019-q4-major/arm-none-eabi/include/c++/9.2.1/cmath **** #include <bits/std_abs.h>
  48:/usr/local/Caskroom/gcc-arm-embedded/9-2019-q4-major/gcc-arm-none-eabi-9-2019-q4-major/arm-none-eabi/include/c++/9.2.1/cmath **** 
  49:/usr/local/Caskroom/gcc-arm-embedded/9-2019-q4-major/gcc-arm-none-eabi-9-2019-q4-major/arm-none-eabi/include/c++/9.2.1/cmath **** #ifndef _GLIBCXX_CMATH
  50:/usr/local/Caskroom/gcc-arm-embedded/9-2019-q4-major/gcc-arm-none-eabi-9-2019-q4-major/arm-none-eabi/include/c++/9.2.1/cmath **** #define _GLIBCXX_CMATH 1
  51:/usr/local/Caskroom/gcc-arm-embedded/9-2019-q4-major/gcc-arm-none-eabi-9-2019-q4-major/arm-none-eabi/include/c++/9.2.1/cmath **** 
  52:/usr/local/Caskroom/gcc-arm-embedded/9-2019-q4-major/gcc-arm-none-eabi-9-2019-q4-major/arm-none-eabi/include/c++/9.2.1/cmath **** // Get rid of those macros defined in <math.h> in lieu of real functions.
  53:/usr/local/Caskroom/gcc-arm-embedded/9-2019-q4-major/gcc-arm-none-eabi-9-2019-q4-major/arm-none-eabi/include/c++/9.2.1/cmath **** #undef div
  54:/usr/local/Caskroom/gcc-arm-embedded/9-2019-q4-major/gcc-arm-none-eabi-9-2019-q4-major/arm-none-eabi/include/c++/9.2.1/cmath **** #undef acos
  55:/usr/local/Caskroom/gcc-arm-embedded/9-2019-q4-major/gcc-arm-none-eabi-9-2019-q4-major/arm-none-eabi/include/c++/9.2.1/cmath **** #undef asin
  56:/usr/local/Caskroom/gcc-arm-embedded/9-2019-q4-major/gcc-arm-none-eabi-9-2019-q4-major/arm-none-eabi/include/c++/9.2.1/cmath **** #undef atan
  57:/usr/local/Caskroom/gcc-arm-embedded/9-2019-q4-major/gcc-arm-none-eabi-9-2019-q4-major/arm-none-eabi/include/c++/9.2.1/cmath **** #undef atan2
  58:/usr/local/Caskroom/gcc-arm-embedded/9-2019-q4-major/gcc-arm-none-eabi-9-2019-q4-major/arm-none-eabi/include/c++/9.2.1/cmath **** #undef ceil
  59:/usr/local/Caskroom/gcc-arm-embedded/9-2019-q4-major/gcc-arm-none-eabi-9-2019-q4-major/arm-none-eabi/include/c++/9.2.1/cmath **** #undef cos
  60:/usr/local/Caskroom/gcc-arm-embedded/9-2019-q4-major/gcc-arm-none-eabi-9-2019-q4-major/arm-none-eabi/include/c++/9.2.1/cmath **** #undef cosh
  61:/usr/local/Caskroom/gcc-arm-embedded/9-2019-q4-major/gcc-arm-none-eabi-9-2019-q4-major/arm-none-eabi/include/c++/9.2.1/cmath **** #undef exp
  62:/usr/local/Caskroom/gcc-arm-embedded/9-2019-q4-major/gcc-arm-none-eabi-9-2019-q4-major/arm-none-eabi/include/c++/9.2.1/cmath **** #undef fabs
  63:/usr/local/Caskroom/gcc-arm-embedded/9-2019-q4-major/gcc-arm-none-eabi-9-2019-q4-major/arm-none-eabi/include/c++/9.2.1/cmath **** #undef floor
  64:/usr/local/Caskroom/gcc-arm-embedded/9-2019-q4-major/gcc-arm-none-eabi-9-2019-q4-major/arm-none-eabi/include/c++/9.2.1/cmath **** #undef fmod
  65:/usr/local/Caskroom/gcc-arm-embedded/9-2019-q4-major/gcc-arm-none-eabi-9-2019-q4-major/arm-none-eabi/include/c++/9.2.1/cmath **** #undef frexp
  66:/usr/local/Caskroom/gcc-arm-embedded/9-2019-q4-major/gcc-arm-none-eabi-9-2019-q4-major/arm-none-eabi/include/c++/9.2.1/cmath **** #undef ldexp
  67:/usr/local/Caskroom/gcc-arm-embedded/9-2019-q4-major/gcc-arm-none-eabi-9-2019-q4-major/arm-none-eabi/include/c++/9.2.1/cmath **** #undef log
  68:/usr/local/Caskroom/gcc-arm-embedded/9-2019-q4-major/gcc-arm-none-eabi-9-2019-q4-major/arm-none-eabi/include/c++/9.2.1/cmath **** #undef log10
  69:/usr/local/Caskroom/gcc-arm-embedded/9-2019-q4-major/gcc-arm-none-eabi-9-2019-q4-major/arm-none-eabi/include/c++/9.2.1/cmath **** #undef modf
  70:/usr/local/Caskroom/gcc-arm-embedded/9-2019-q4-major/gcc-arm-none-eabi-9-2019-q4-major/arm-none-eabi/include/c++/9.2.1/cmath **** #undef pow
  71:/usr/local/Caskroom/gcc-arm-embedded/9-2019-q4-major/gcc-arm-none-eabi-9-2019-q4-major/arm-none-eabi/include/c++/9.2.1/cmath **** #undef sin
  72:/usr/local/Caskroom/gcc-arm-embedded/9-2019-q4-major/gcc-arm-none-eabi-9-2019-q4-major/arm-none-eabi/include/c++/9.2.1/cmath **** #undef sinh
  73:/usr/local/Caskroom/gcc-arm-embedded/9-2019-q4-major/gcc-arm-none-eabi-9-2019-q4-major/arm-none-eabi/include/c++/9.2.1/cmath **** #undef sqrt
  74:/usr/local/Caskroom/gcc-arm-embedded/9-2019-q4-major/gcc-arm-none-eabi-9-2019-q4-major/arm-none-eabi/include/c++/9.2.1/cmath **** #undef tan
  75:/usr/local/Caskroom/gcc-arm-embedded/9-2019-q4-major/gcc-arm-none-eabi-9-2019-q4-major/arm-none-eabi/include/c++/9.2.1/cmath **** #undef tanh
  76:/usr/local/Caskroom/gcc-arm-embedded/9-2019-q4-major/gcc-arm-none-eabi-9-2019-q4-major/arm-none-eabi/include/c++/9.2.1/cmath **** 
  77:/usr/local/Caskroom/gcc-arm-embedded/9-2019-q4-major/gcc-arm-none-eabi-9-2019-q4-major/arm-none-eabi/include/c++/9.2.1/cmath **** extern "C++"
  78:/usr/local/Caskroom/gcc-arm-embedded/9-2019-q4-major/gcc-arm-none-eabi-9-2019-q4-major/arm-none-eabi/include/c++/9.2.1/cmath **** {
  79:/usr/local/Caskroom/gcc-arm-embedded/9-2019-q4-major/gcc-arm-none-eabi-9-2019-q4-major/arm-none-eabi/include/c++/9.2.1/cmath **** namespace std _GLIBCXX_VISIBILITY(default)
  80:/usr/local/Caskroom/gcc-arm-embedded/9-2019-q4-major/gcc-arm-none-eabi-9-2019-q4-major/arm-none-eabi/include/c++/9.2.1/cmath **** {
  81:/usr/local/Caskroom/gcc-arm-embedded/9-2019-q4-major/gcc-arm-none-eabi-9-2019-q4-major/arm-none-eabi/include/c++/9.2.1/cmath **** _GLIBCXX_BEGIN_NAMESPACE_VERSION
  82:/usr/local/Caskroom/gcc-arm-embedded/9-2019-q4-major/gcc-arm-none-eabi-9-2019-q4-major/arm-none-eabi/include/c++/9.2.1/cmath **** 
  83:/usr/local/Caskroom/gcc-arm-embedded/9-2019-q4-major/gcc-arm-none-eabi-9-2019-q4-major/arm-none-eabi/include/c++/9.2.1/cmath ****   using ::acos;
  84:/usr/local/Caskroom/gcc-arm-embedded/9-2019-q4-major/gcc-arm-none-eabi-9-2019-q4-major/arm-none-eabi/include/c++/9.2.1/cmath **** 
  85:/usr/local/Caskroom/gcc-arm-embedded/9-2019-q4-major/gcc-arm-none-eabi-9-2019-q4-major/arm-none-eabi/include/c++/9.2.1/cmath **** #ifndef __CORRECT_ISO_CPP_MATH_H_PROTO
ARM GAS  /var/folders/84/_x1cyy_j36g486tldtwl37280000gn/T//ccyKhbRf.s 			page 11


  86:/usr/local/Caskroom/gcc-arm-embedded/9-2019-q4-major/gcc-arm-none-eabi-9-2019-q4-major/arm-none-eabi/include/c++/9.2.1/cmath ****   inline _GLIBCXX_CONSTEXPR float
  87:/usr/local/Caskroom/gcc-arm-embedded/9-2019-q4-major/gcc-arm-none-eabi-9-2019-q4-major/arm-none-eabi/include/c++/9.2.1/cmath ****   acos(float __x)
  88:/usr/local/Caskroom/gcc-arm-embedded/9-2019-q4-major/gcc-arm-none-eabi-9-2019-q4-major/arm-none-eabi/include/c++/9.2.1/cmath ****   { return __builtin_acosf(__x); }
  89:/usr/local/Caskroom/gcc-arm-embedded/9-2019-q4-major/gcc-arm-none-eabi-9-2019-q4-major/arm-none-eabi/include/c++/9.2.1/cmath **** 
  90:/usr/local/Caskroom/gcc-arm-embedded/9-2019-q4-major/gcc-arm-none-eabi-9-2019-q4-major/arm-none-eabi/include/c++/9.2.1/cmath ****   inline _GLIBCXX_CONSTEXPR long double
  91:/usr/local/Caskroom/gcc-arm-embedded/9-2019-q4-major/gcc-arm-none-eabi-9-2019-q4-major/arm-none-eabi/include/c++/9.2.1/cmath ****   acos(long double __x)
  92:/usr/local/Caskroom/gcc-arm-embedded/9-2019-q4-major/gcc-arm-none-eabi-9-2019-q4-major/arm-none-eabi/include/c++/9.2.1/cmath ****   { return __builtin_acosl(__x); }
  93:/usr/local/Caskroom/gcc-arm-embedded/9-2019-q4-major/gcc-arm-none-eabi-9-2019-q4-major/arm-none-eabi/include/c++/9.2.1/cmath **** #endif
  94:/usr/local/Caskroom/gcc-arm-embedded/9-2019-q4-major/gcc-arm-none-eabi-9-2019-q4-major/arm-none-eabi/include/c++/9.2.1/cmath **** 
  95:/usr/local/Caskroom/gcc-arm-embedded/9-2019-q4-major/gcc-arm-none-eabi-9-2019-q4-major/arm-none-eabi/include/c++/9.2.1/cmath ****   template<typename _Tp>
  96:/usr/local/Caskroom/gcc-arm-embedded/9-2019-q4-major/gcc-arm-none-eabi-9-2019-q4-major/arm-none-eabi/include/c++/9.2.1/cmath ****     inline _GLIBCXX_CONSTEXPR
  97:/usr/local/Caskroom/gcc-arm-embedded/9-2019-q4-major/gcc-arm-none-eabi-9-2019-q4-major/arm-none-eabi/include/c++/9.2.1/cmath ****     typename __gnu_cxx::__enable_if<__is_integer<_Tp>::__value, 
  98:/usr/local/Caskroom/gcc-arm-embedded/9-2019-q4-major/gcc-arm-none-eabi-9-2019-q4-major/arm-none-eabi/include/c++/9.2.1/cmath ****                                     double>::__type
  99:/usr/local/Caskroom/gcc-arm-embedded/9-2019-q4-major/gcc-arm-none-eabi-9-2019-q4-major/arm-none-eabi/include/c++/9.2.1/cmath ****     acos(_Tp __x)
 100:/usr/local/Caskroom/gcc-arm-embedded/9-2019-q4-major/gcc-arm-none-eabi-9-2019-q4-major/arm-none-eabi/include/c++/9.2.1/cmath ****     { return __builtin_acos(__x); }
 101:/usr/local/Caskroom/gcc-arm-embedded/9-2019-q4-major/gcc-arm-none-eabi-9-2019-q4-major/arm-none-eabi/include/c++/9.2.1/cmath **** 
 102:/usr/local/Caskroom/gcc-arm-embedded/9-2019-q4-major/gcc-arm-none-eabi-9-2019-q4-major/arm-none-eabi/include/c++/9.2.1/cmath ****   using ::asin;
 103:/usr/local/Caskroom/gcc-arm-embedded/9-2019-q4-major/gcc-arm-none-eabi-9-2019-q4-major/arm-none-eabi/include/c++/9.2.1/cmath **** 
 104:/usr/local/Caskroom/gcc-arm-embedded/9-2019-q4-major/gcc-arm-none-eabi-9-2019-q4-major/arm-none-eabi/include/c++/9.2.1/cmath **** #ifndef __CORRECT_ISO_CPP_MATH_H_PROTO
 105:/usr/local/Caskroom/gcc-arm-embedded/9-2019-q4-major/gcc-arm-none-eabi-9-2019-q4-major/arm-none-eabi/include/c++/9.2.1/cmath ****   inline _GLIBCXX_CONSTEXPR float
 106:/usr/local/Caskroom/gcc-arm-embedded/9-2019-q4-major/gcc-arm-none-eabi-9-2019-q4-major/arm-none-eabi/include/c++/9.2.1/cmath ****   asin(float __x)
 107:/usr/local/Caskroom/gcc-arm-embedded/9-2019-q4-major/gcc-arm-none-eabi-9-2019-q4-major/arm-none-eabi/include/c++/9.2.1/cmath ****   { return __builtin_asinf(__x); }
 108:/usr/local/Caskroom/gcc-arm-embedded/9-2019-q4-major/gcc-arm-none-eabi-9-2019-q4-major/arm-none-eabi/include/c++/9.2.1/cmath **** 
 109:/usr/local/Caskroom/gcc-arm-embedded/9-2019-q4-major/gcc-arm-none-eabi-9-2019-q4-major/arm-none-eabi/include/c++/9.2.1/cmath ****   inline _GLIBCXX_CONSTEXPR long double
 110:/usr/local/Caskroom/gcc-arm-embedded/9-2019-q4-major/gcc-arm-none-eabi-9-2019-q4-major/arm-none-eabi/include/c++/9.2.1/cmath ****   asin(long double __x)
 111:/usr/local/Caskroom/gcc-arm-embedded/9-2019-q4-major/gcc-arm-none-eabi-9-2019-q4-major/arm-none-eabi/include/c++/9.2.1/cmath ****   { return __builtin_asinl(__x); }
 112:/usr/local/Caskroom/gcc-arm-embedded/9-2019-q4-major/gcc-arm-none-eabi-9-2019-q4-major/arm-none-eabi/include/c++/9.2.1/cmath **** #endif
 113:/usr/local/Caskroom/gcc-arm-embedded/9-2019-q4-major/gcc-arm-none-eabi-9-2019-q4-major/arm-none-eabi/include/c++/9.2.1/cmath **** 
 114:/usr/local/Caskroom/gcc-arm-embedded/9-2019-q4-major/gcc-arm-none-eabi-9-2019-q4-major/arm-none-eabi/include/c++/9.2.1/cmath ****   template<typename _Tp>
 115:/usr/local/Caskroom/gcc-arm-embedded/9-2019-q4-major/gcc-arm-none-eabi-9-2019-q4-major/arm-none-eabi/include/c++/9.2.1/cmath ****     inline _GLIBCXX_CONSTEXPR
 116:/usr/local/Caskroom/gcc-arm-embedded/9-2019-q4-major/gcc-arm-none-eabi-9-2019-q4-major/arm-none-eabi/include/c++/9.2.1/cmath ****     typename __gnu_cxx::__enable_if<__is_integer<_Tp>::__value,
 117:/usr/local/Caskroom/gcc-arm-embedded/9-2019-q4-major/gcc-arm-none-eabi-9-2019-q4-major/arm-none-eabi/include/c++/9.2.1/cmath ****                                     double>::__type
 118:/usr/local/Caskroom/gcc-arm-embedded/9-2019-q4-major/gcc-arm-none-eabi-9-2019-q4-major/arm-none-eabi/include/c++/9.2.1/cmath ****     asin(_Tp __x)
 119:/usr/local/Caskroom/gcc-arm-embedded/9-2019-q4-major/gcc-arm-none-eabi-9-2019-q4-major/arm-none-eabi/include/c++/9.2.1/cmath ****     { return __builtin_asin(__x); }
 120:/usr/local/Caskroom/gcc-arm-embedded/9-2019-q4-major/gcc-arm-none-eabi-9-2019-q4-major/arm-none-eabi/include/c++/9.2.1/cmath **** 
 121:/usr/local/Caskroom/gcc-arm-embedded/9-2019-q4-major/gcc-arm-none-eabi-9-2019-q4-major/arm-none-eabi/include/c++/9.2.1/cmath ****   using ::atan;
 122:/usr/local/Caskroom/gcc-arm-embedded/9-2019-q4-major/gcc-arm-none-eabi-9-2019-q4-major/arm-none-eabi/include/c++/9.2.1/cmath **** 
 123:/usr/local/Caskroom/gcc-arm-embedded/9-2019-q4-major/gcc-arm-none-eabi-9-2019-q4-major/arm-none-eabi/include/c++/9.2.1/cmath **** #ifndef __CORRECT_ISO_CPP_MATH_H_PROTO
 124:/usr/local/Caskroom/gcc-arm-embedded/9-2019-q4-major/gcc-arm-none-eabi-9-2019-q4-major/arm-none-eabi/include/c++/9.2.1/cmath ****   inline _GLIBCXX_CONSTEXPR float
 125:/usr/local/Caskroom/gcc-arm-embedded/9-2019-q4-major/gcc-arm-none-eabi-9-2019-q4-major/arm-none-eabi/include/c++/9.2.1/cmath ****   atan(float __x)
 126:/usr/local/Caskroom/gcc-arm-embedded/9-2019-q4-major/gcc-arm-none-eabi-9-2019-q4-major/arm-none-eabi/include/c++/9.2.1/cmath ****   { return __builtin_atanf(__x); }
 127:/usr/local/Caskroom/gcc-arm-embedded/9-2019-q4-major/gcc-arm-none-eabi-9-2019-q4-major/arm-none-eabi/include/c++/9.2.1/cmath **** 
 128:/usr/local/Caskroom/gcc-arm-embedded/9-2019-q4-major/gcc-arm-none-eabi-9-2019-q4-major/arm-none-eabi/include/c++/9.2.1/cmath ****   inline _GLIBCXX_CONSTEXPR long double
 129:/usr/local/Caskroom/gcc-arm-embedded/9-2019-q4-major/gcc-arm-none-eabi-9-2019-q4-major/arm-none-eabi/include/c++/9.2.1/cmath ****   atan(long double __x)
 130:/usr/local/Caskroom/gcc-arm-embedded/9-2019-q4-major/gcc-arm-none-eabi-9-2019-q4-major/arm-none-eabi/include/c++/9.2.1/cmath ****   { return __builtin_atanl(__x); }
 131:/usr/local/Caskroom/gcc-arm-embedded/9-2019-q4-major/gcc-arm-none-eabi-9-2019-q4-major/arm-none-eabi/include/c++/9.2.1/cmath **** #endif
 132:/usr/local/Caskroom/gcc-arm-embedded/9-2019-q4-major/gcc-arm-none-eabi-9-2019-q4-major/arm-none-eabi/include/c++/9.2.1/cmath **** 
 133:/usr/local/Caskroom/gcc-arm-embedded/9-2019-q4-major/gcc-arm-none-eabi-9-2019-q4-major/arm-none-eabi/include/c++/9.2.1/cmath ****   template<typename _Tp>
 134:/usr/local/Caskroom/gcc-arm-embedded/9-2019-q4-major/gcc-arm-none-eabi-9-2019-q4-major/arm-none-eabi/include/c++/9.2.1/cmath ****     inline _GLIBCXX_CONSTEXPR
 135:/usr/local/Caskroom/gcc-arm-embedded/9-2019-q4-major/gcc-arm-none-eabi-9-2019-q4-major/arm-none-eabi/include/c++/9.2.1/cmath ****     typename __gnu_cxx::__enable_if<__is_integer<_Tp>::__value,
 136:/usr/local/Caskroom/gcc-arm-embedded/9-2019-q4-major/gcc-arm-none-eabi-9-2019-q4-major/arm-none-eabi/include/c++/9.2.1/cmath ****                                     double>::__type
 137:/usr/local/Caskroom/gcc-arm-embedded/9-2019-q4-major/gcc-arm-none-eabi-9-2019-q4-major/arm-none-eabi/include/c++/9.2.1/cmath ****     atan(_Tp __x)
 138:/usr/local/Caskroom/gcc-arm-embedded/9-2019-q4-major/gcc-arm-none-eabi-9-2019-q4-major/arm-none-eabi/include/c++/9.2.1/cmath ****     { return __builtin_atan(__x); }
 139:/usr/local/Caskroom/gcc-arm-embedded/9-2019-q4-major/gcc-arm-none-eabi-9-2019-q4-major/arm-none-eabi/include/c++/9.2.1/cmath **** 
 140:/usr/local/Caskroom/gcc-arm-embedded/9-2019-q4-major/gcc-arm-none-eabi-9-2019-q4-major/arm-none-eabi/include/c++/9.2.1/cmath ****   using ::atan2;
 141:/usr/local/Caskroom/gcc-arm-embedded/9-2019-q4-major/gcc-arm-none-eabi-9-2019-q4-major/arm-none-eabi/include/c++/9.2.1/cmath **** 
 142:/usr/local/Caskroom/gcc-arm-embedded/9-2019-q4-major/gcc-arm-none-eabi-9-2019-q4-major/arm-none-eabi/include/c++/9.2.1/cmath **** #ifndef __CORRECT_ISO_CPP_MATH_H_PROTO
ARM GAS  /var/folders/84/_x1cyy_j36g486tldtwl37280000gn/T//ccyKhbRf.s 			page 12


 143:/usr/local/Caskroom/gcc-arm-embedded/9-2019-q4-major/gcc-arm-none-eabi-9-2019-q4-major/arm-none-eabi/include/c++/9.2.1/cmath ****   inline _GLIBCXX_CONSTEXPR float
 144:/usr/local/Caskroom/gcc-arm-embedded/9-2019-q4-major/gcc-arm-none-eabi-9-2019-q4-major/arm-none-eabi/include/c++/9.2.1/cmath ****   atan2(float __y, float __x)
 145:/usr/local/Caskroom/gcc-arm-embedded/9-2019-q4-major/gcc-arm-none-eabi-9-2019-q4-major/arm-none-eabi/include/c++/9.2.1/cmath ****   { return __builtin_atan2f(__y, __x); }
 146:/usr/local/Caskroom/gcc-arm-embedded/9-2019-q4-major/gcc-arm-none-eabi-9-2019-q4-major/arm-none-eabi/include/c++/9.2.1/cmath **** 
 147:/usr/local/Caskroom/gcc-arm-embedded/9-2019-q4-major/gcc-arm-none-eabi-9-2019-q4-major/arm-none-eabi/include/c++/9.2.1/cmath ****   inline _GLIBCXX_CONSTEXPR long double
 148:/usr/local/Caskroom/gcc-arm-embedded/9-2019-q4-major/gcc-arm-none-eabi-9-2019-q4-major/arm-none-eabi/include/c++/9.2.1/cmath ****   atan2(long double __y, long double __x)
 149:/usr/local/Caskroom/gcc-arm-embedded/9-2019-q4-major/gcc-arm-none-eabi-9-2019-q4-major/arm-none-eabi/include/c++/9.2.1/cmath ****   { return __builtin_atan2l(__y, __x); }
 150:/usr/local/Caskroom/gcc-arm-embedded/9-2019-q4-major/gcc-arm-none-eabi-9-2019-q4-major/arm-none-eabi/include/c++/9.2.1/cmath **** #endif
 151:/usr/local/Caskroom/gcc-arm-embedded/9-2019-q4-major/gcc-arm-none-eabi-9-2019-q4-major/arm-none-eabi/include/c++/9.2.1/cmath **** 
 152:/usr/local/Caskroom/gcc-arm-embedded/9-2019-q4-major/gcc-arm-none-eabi-9-2019-q4-major/arm-none-eabi/include/c++/9.2.1/cmath ****   template<typename _Tp, typename _Up>
 153:/usr/local/Caskroom/gcc-arm-embedded/9-2019-q4-major/gcc-arm-none-eabi-9-2019-q4-major/arm-none-eabi/include/c++/9.2.1/cmath ****     inline _GLIBCXX_CONSTEXPR
 154:/usr/local/Caskroom/gcc-arm-embedded/9-2019-q4-major/gcc-arm-none-eabi-9-2019-q4-major/arm-none-eabi/include/c++/9.2.1/cmath ****     typename __gnu_cxx::__promote_2<_Tp, _Up>::__type
 155:/usr/local/Caskroom/gcc-arm-embedded/9-2019-q4-major/gcc-arm-none-eabi-9-2019-q4-major/arm-none-eabi/include/c++/9.2.1/cmath ****     atan2(_Tp __y, _Up __x)
 156:/usr/local/Caskroom/gcc-arm-embedded/9-2019-q4-major/gcc-arm-none-eabi-9-2019-q4-major/arm-none-eabi/include/c++/9.2.1/cmath ****     {
 157:/usr/local/Caskroom/gcc-arm-embedded/9-2019-q4-major/gcc-arm-none-eabi-9-2019-q4-major/arm-none-eabi/include/c++/9.2.1/cmath ****       typedef typename __gnu_cxx::__promote_2<_Tp, _Up>::__type __type;
 158:/usr/local/Caskroom/gcc-arm-embedded/9-2019-q4-major/gcc-arm-none-eabi-9-2019-q4-major/arm-none-eabi/include/c++/9.2.1/cmath ****       return atan2(__type(__y), __type(__x));
 159:/usr/local/Caskroom/gcc-arm-embedded/9-2019-q4-major/gcc-arm-none-eabi-9-2019-q4-major/arm-none-eabi/include/c++/9.2.1/cmath ****     }
 160:/usr/local/Caskroom/gcc-arm-embedded/9-2019-q4-major/gcc-arm-none-eabi-9-2019-q4-major/arm-none-eabi/include/c++/9.2.1/cmath **** 
 161:/usr/local/Caskroom/gcc-arm-embedded/9-2019-q4-major/gcc-arm-none-eabi-9-2019-q4-major/arm-none-eabi/include/c++/9.2.1/cmath ****   using ::ceil;
 162:/usr/local/Caskroom/gcc-arm-embedded/9-2019-q4-major/gcc-arm-none-eabi-9-2019-q4-major/arm-none-eabi/include/c++/9.2.1/cmath **** 
 163:/usr/local/Caskroom/gcc-arm-embedded/9-2019-q4-major/gcc-arm-none-eabi-9-2019-q4-major/arm-none-eabi/include/c++/9.2.1/cmath **** #ifndef __CORRECT_ISO_CPP_MATH_H_PROTO
 164:/usr/local/Caskroom/gcc-arm-embedded/9-2019-q4-major/gcc-arm-none-eabi-9-2019-q4-major/arm-none-eabi/include/c++/9.2.1/cmath ****   inline _GLIBCXX_CONSTEXPR float
 165:/usr/local/Caskroom/gcc-arm-embedded/9-2019-q4-major/gcc-arm-none-eabi-9-2019-q4-major/arm-none-eabi/include/c++/9.2.1/cmath ****   ceil(float __x)
 247              		.loc 2 165 3 view .LVU69
 248              	.LBB5:
 166:/usr/local/Caskroom/gcc-arm-embedded/9-2019-q4-major/gcc-arm-none-eabi-9-2019-q4-major/arm-none-eabi/include/c++/9.2.1/cmath ****   { return __builtin_ceilf(__x); }
 249              		.loc 2 166 5 view .LVU70
 250              	.LBE5:
 251              	.LBE4:
 252              		.loc 1 191 51 is_stmt 0 view .LVU71
 253 000c 6079     		ldrb	r0, [r4, #5]	@ zero_extendqisi2
 254              	.LVL8:
 255              		.loc 1 191 51 view .LVU72
 256 000e 00EE100A 		vmov	s0, r0	@ int
 257              	.LBB7:
 258              	.LBB6:
 259              		.loc 2 166 27 view .LVU73
 260 0012 BAEEEE0A 		vcvt.f32.s32	s0, s0, #3
 261              	.LVL9:
 262              		.loc 2 166 27 view .LVU74
 263 0016 0D46     		mov	r5, r1
 264 0018 FFF7FEFF 		bl	ceilf
 265              	.LVL10:
 266              		.loc 2 166 27 view .LVU75
 267              	.LBE6:
 268              	.LBE7:
 192:LookupTables/bitmap.cpp **** 	}
 193:LookupTables/bitmap.cpp **** 	return bitmap.data + index;
 269              		.loc 1 193 2 is_stmt 1 view .LVU76
 191:LookupTables/bitmap.cpp **** 	}
 270              		.loc 1 191 17 is_stmt 0 view .LVU77
 271 001c 2279     		ldrb	r2, [r4, #4]	@ zero_extendqisi2
 272              		.loc 1 193 23 view .LVU78
 273 001e 2068     		ldr	r0, [r4]
 191:LookupTables/bitmap.cpp **** 	}
 274              		.loc 1 191 17 view .LVU79
 275 0020 12FB05FC 		smulbb	ip, r2, r5
ARM GAS  /var/folders/84/_x1cyy_j36g486tldtwl37280000gn/T//ccyKhbRf.s 			page 13


 191:LookupTables/bitmap.cpp **** 	}
 276              		.loc 1 191 32 view .LVU80
 277 0024 07EE90CA 		vmov	s15, ip	@ int
 278 0028 F8EEE70A 		vcvt.f32.s32	s1, s15
 279 002c 20EE800A 		vmul.f32	s0, s1, s0
 191:LookupTables/bitmap.cpp **** 	}
 280              		.loc 1 191 9 view .LVU81
 281 0030 BCEEC01A 		vcvt.u32.f32	s2, s0
 282 0034 8DED011A 		vstr.32	s2, [sp, #4]	@ int
 283 0038 9DF80410 		ldrb	r1, [sp, #4]	@ zero_extendqisi2
 194:LookupTables/bitmap.cpp **** }
 284              		.loc 1 194 1 view .LVU82
 285 003c 0844     		add	r0, r0, r1
 286 003e 03B0     		add	sp, sp, #12
 287              		.cfi_remember_state
 288              		.cfi_def_cfa_offset 12
 289              		@ sp needed
 290 0040 30BD     		pop	{r4, r5, pc}
 291              	.LVL11:
 292              	.L24:
 293              		.cfi_restore_state
 193:LookupTables/bitmap.cpp **** }
 294              		.loc 1 193 23 view .LVU83
 295 0042 2068     		ldr	r0, [r4]
 296              	.LVL12:
 193:LookupTables/bitmap.cpp **** }
 297              		.loc 1 193 23 view .LVU84
 298 0044 0021     		movs	r1, #0
 299              	.LVL13:
 193:LookupTables/bitmap.cpp **** }
 300              		.loc 1 193 2 is_stmt 1 view .LVU85
 301              		.loc 1 194 1 is_stmt 0 view .LVU86
 302 0046 0844     		add	r0, r0, r1
 303 0048 03B0     		add	sp, sp, #12
 304              		.cfi_def_cfa_offset 12
 305              		@ sp needed
 306 004a 30BD     		pop	{r4, r5, pc}
 307              	.L27:
 308              		.align	2
 309              	.L26:
 310 004c 00000000 		.word	.LANCHOR0
 311              		.cfi_endproc
 312              	.LFE1975:
 314              		.global	bitmap
 315              		.section	.bss.bitmap,"aw",%nobits
 316              		.align	2
 317              		.set	.LANCHOR0,. + 0
 320              	bitmap:
 321 0000 00000000 		.space	8
 321      00000000 
 322              		.section	.rodata._ZL15song_page_16x16,"a"
 323              		.align	2
 324              		.set	.LANCHOR8,. + 0
 327              	_ZL15song_page_16x16:
 328 0000 00004000 		.ascii	"\000\000@\000\240\000| \010p\000p\000p\370?\030\000"
 328      A0007C20 
 328      08700070 
ARM GAS  /var/folders/84/_x1cyy_j36g486tldtwl37280000gn/T//ccyKhbRf.s 			page 14


 328      0070F83F 
 328      1800
 329 0012 18001810 		.ascii	"\030\000\030\020\0148\0148\0148\374\037\000\000"
 329      0C380C38 
 329      0C38FC1F 
 329      0000
 330              		.section	.rodata._ZL16cv_in_page_16x16,"a"
 331              		.align	2
 332              		.set	.LANCHOR4,. + 0
 335              	_ZL16cv_in_page_16x16:
 336 0000 7F007F00 		.ascii	"\177\000\177\000\"\000\"~\"b\"b\"b\242\343\276\200>"
 336      2200227E 
 336      22622262 
 336      2262A2E3 
 336      BE803E
 337 0013 C1226214 		.ascii	"\301\"b\0244\"\030\"\000\"\000\034\000"
 337      34221822 
 337      0022001C 
 337      00
 338              		.section	.rodata._ZL16track_page_16x16,"a"
 339              		.align	2
 340              		.set	.LANCHOR12,. + 0
 343              	_ZL16track_page_16x16:
 344 0000 FF7F01C0 		.ascii	"\377\177\001\300\201\330y\331\201\300\001\330!\330\331"
 344      81D879D9 
 344      81C001D8 
 344      21D8D9
 345 000f C121D801 		.ascii	"\301!\330\001\330A\300\271\331A\330\001\300\377\377"
 345      D841C0B9 
 345      D941D801 
 345      C0FFFF
 346 001e FEFF     		.ascii	"\376\377"
 347              		.section	.rodata._ZL17cv_out_page_16x16,"a"
 348              		.align	2
 349              		.set	.LANCHOR5,. + 0
 352              	_ZL17cv_out_page_16x16:
 353 0000 7F007F00 		.ascii	"\177\000\177\000\"\000\"\030\"4\"b\"\301\242\200\276"
 353      22002218 
 353      22342262 
 353      22C1A280 
 353      BE
 354 0011 E33E6222 		.ascii	"\343>b\"b\024b\"~\"\000\"\000\034\000"
 354      62146222 
 354      7E220022 
 354      001C00
 355              		.section	.rodata._ZL18midi_in_page_16x16,"a"
 356              		.align	2
 357              		.set	.LANCHOR2,. + 0
 360              	_ZL18midi_in_page_16x16:
 361 0000 FFFFC1FF 		.ascii	"\377\377\301\377\375\377\301\201\375\235\303\235\377"
 361      FDFFC181 
 361      FD9DC39D 
 361      FF
 362 000d 9D411C7F 		.ascii	"\235A\034\177\177\305>\335\235\301\313\377\347\301\377"
 362      7FC53EDD 
 362      9DC1CBFF 
 362      E7C1FF
ARM GAS  /var/folders/84/_x1cyy_j36g486tldtwl37280000gn/T//ccyKhbRf.s 			page 15


 363 001c FFFFFFFF 		.ascii	"\377\377\377\377"
 364              		.section	.rodata._ZL18pattern_page_16x16,"a"
 365              		.align	2
 366              		.set	.LANCHOR11,. + 0
 369              	_ZL18pattern_page_16x16:
 370 0000 D41D4815 		.ascii	"\324\035H\025\324\035\000\000\\\035\224\024\\\035\000"
 370      D41D0000 
 370      5C1D9414 
 370      5C1D00
 371 000f 005C1D94 		.ascii	"\000\\\035\224\024\\\035\000\000\324\025H\011\324\025"
 371      145C1D00 
 371      00D41548 
 371      09D415
 372 001e 0000     		.ascii	"\000\000"
 373              		.section	.rodata._ZL18warning_icon_16x16,"a"
 374              		.align	2
 375              		.set	.LANCHOR13,. + 0
 378              	_ZL18warning_icon_16x16:
 379 0000 006000D8 		.ascii	"\000`\000\330\000\306\200\301`\300\030\300\306\333\306"
 379      00C680C1 
 379      60C018C0 
 379      C6DBC6
 380 000f DB1CC070 		.ascii	"\333\034\300p\300\300\301\000\307\000\334\000\370\000"
 380      C0C0C100 
 380      C700DC00 
 380      F800
 381 001d E00000   		.ascii	"\340\000\000"
 382              		.section	.rodata._ZL19midi_out_page_16x16,"a"
 383              		.align	2
 384              		.set	.LANCHOR3,. + 0
 387              	_ZL19midi_out_page_16x16:
 388 0000 FFFFC1FF 		.ascii	"\377\377\301\377\375\377\301\347\375\313\303\235\377"
 388      FDFFC1E7 
 388      FDCBC39D 
 388      FF
 389 000d 3E417F7F 		.ascii	">A\177\177\034\305\235\335\235\301\235\377\201\301\377"
 389      1CC59DDD 
 389      9DC19DFF 
 389      81C1FF
 390 001c FFFFFFFF 		.ascii	"\377\377\377\377"
 391              		.section	.rodata._ZL19settings_page_16x16,"a"
 392              		.align	2
 393              		.set	.LANCHOR10,. + 0
 396              	_ZL19settings_page_16x16:
 397 0000 0000C003 		.ascii	"\000\000\300\003X\032d&\004 \010\020\216qBBBB\216q\010"
 397      581A6426 
 397      04200810 
 397      8E714242 
 397      42428E71 
 398 0015 10042064 		.ascii	"\020\004 d&X\032\300\003\000\000"
 398      26581AC0 
 398      030000
 399              		.section	.rodata._ZL22placeholder_page_16x16,"a"
 400              		.align	2
 401              		.set	.LANCHOR1,. + 0
 404              	_ZL22placeholder_page_16x16:
 405 0000 0000FE7F 		.ascii	"\000\000\376\177\002@\002@2HbD\302B\202A\202CBF\"L\022"
ARM GAS  /var/folders/84/_x1cyy_j36g486tldtwl37280000gn/T//ccyKhbRf.s 			page 16


 405      02400240 
 405      32486244 
 405      C2428241 
 405      82434246 
 406 0017 48024002 		.ascii	"H\002@\002@\376\177\000\000"
 406      40FE7F00 
 406      00
 407              		.section	.rodata._ZL23project_load_page_16x16,"a"
 408              		.align	2
 409              		.set	.LANCHOR6,. + 0
 412              	_ZL23project_load_page_16x16:
 413 0000 00000000 		.ascii	"\000\000\000\000\377\377\001\200\001\200\001\214\001"
 413      FFFF0180 
 413      0180018C 
 413      01
 414 000d 9A013181 		.ascii	"\232\0011\201`A\300\317\361\0111\012\261|\261\000?\000"
 414      6041C0CF 
 414      F109310A 
 414      B17CB100 
 414      3F00
 415 001f 00       		.ascii	"\000"
 416              		.section	.rodata._ZL23project_save_page_16x16,"a"
 417              		.align	2
 418              		.set	.LANCHOR7,. + 0
 421              	_ZL23project_save_page_16x16:
 422 0000 0000003F 		.ascii	"\000\000\000?\177\261\001\261\0011\301\361A\300\201"
 422      7FB101B1 
 422      0131C1F1 
 422      41C081
 423 000f 60013101 		.ascii	"`\0011\001\232\017\214\011\200\012\200\374\377\000\000"
 423      9A0F8C09 
 423      800A80FC 
 423      FF0000
 424 001e 0000     		.ascii	"\000\000"
 425              		.section	.rodata._ZL23song_monitor_page_16x16,"a"
 426              		.align	2
 427              		.set	.LANCHOR9,. + 0
 430              	_ZL23song_monitor_page_16x16:
 431 0000 00800040 		.ascii	"\000\200\000@\020.(\021\237$\202.\200$\000\021~\016"
 431      102E2811 
 431      9F24822E 
 431      80240011 
 431      7E0E
 432 0012 06000600 		.ascii	"\006\000\006\000\006\004\003\016\003\016\003\016\377"
 432      0604030E 
 432      030E030E 
 432      FF
 433 001f 07       		.ascii	"\007"
 434              		.section	.rodata._ZL9timer_8x8,"a"
 435              		.align	2
 436              		.set	.LANCHOR14,. + 0
 439              	_ZL9timer_8x8:
 440 0000 3C428181 		.ascii	"<B\201\201\201\201B<<B\201\201\217\207B<<B\201\201\217"
 440      8181423C 
 440      3C428181 
 440      8F87423C 
 440      3C428181 
ARM GAS  /var/folders/84/_x1cyy_j36g486tldtwl37280000gn/T//ccyKhbRf.s 			page 17


 441 0015 8F4E3C3C 		.ascii	"\217N<<B\201\201\237\277~<<B\201\201\377\377~<<B\341"
 441      4281819F 
 441      BF7E3C3C 
 441      428181FF 
 441      FF7E3C3C 
 442 002b F1FFFF7E 		.ascii	"\361\377\377~<<r\361\361\377\377~<<~\375\371\377\377"
 442      3C3C72F1 
 442      F1FFFF7E 
 442      3C3C7EFD 
 442      F9FFFF
 443 003e 7E3C3C7E 		.ascii	"~<<~\377\377\377\377~<"
 443      FFFFFFFF 
 443      7E3C
 444              		.text
 445              	.Letext0:
 446              		.file 3 "/usr/local/Caskroom/gcc-arm-embedded/9-2019-q4-major/gcc-arm-none-eabi-9-2019-q4-major/ar
 447              		.file 4 "/usr/local/Caskroom/gcc-arm-embedded/9-2019-q4-major/gcc-arm-none-eabi-9-2019-q4-major/ar
 448              		.file 5 "/usr/local/Caskroom/gcc-arm-embedded/9-2019-q4-major/gcc-arm-none-eabi-9-2019-q4-major/ar
 449              		.file 6 "/Users/joostbooy/STM32Cube/Repository/STM32Cube_FW_F4_V1.26.1/Drivers/CMSIS/Include/core_
 450              		.file 7 "/Users/joostbooy/STM32Cube/Repository/STM32Cube_FW_F4_V1.26.1/Drivers/CMSIS/Device/ST/STM
 451              		.file 8 "/usr/local/Caskroom/gcc-arm-embedded/9-2019-q4-major/gcc-arm-none-eabi-9-2019-q4-major/li
 452              		.file 9 "/Users/joostbooy/STM32Cube/Repository/STM32Cube_FW_F4_V1.26.1/Drivers/STM32F4xx_HAL_Drive
 453              		.file 10 "/usr/local/Caskroom/gcc-arm-embedded/9-2019-q4-major/gcc-arm-none-eabi-9-2019-q4-major/a
 454              		.file 11 "/usr/local/Caskroom/gcc-arm-embedded/9-2019-q4-major/gcc-arm-none-eabi-9-2019-q4-major/a
 455              		.file 12 "/usr/local/Caskroom/gcc-arm-embedded/9-2019-q4-major/gcc-arm-none-eabi-9-2019-q4-major/a
 456              		.file 13 "/usr/local/Caskroom/gcc-arm-embedded/9-2019-q4-major/gcc-arm-none-eabi-9-2019-q4-major/a
 457              		.file 14 "/usr/local/Caskroom/gcc-arm-embedded/9-2019-q4-major/gcc-arm-none-eabi-9-2019-q4-major/a
 458              		.file 15 "/usr/local/Caskroom/gcc-arm-embedded/9-2019-q4-major/gcc-arm-none-eabi-9-2019-q4-major/a
 459              		.file 16 "/usr/local/Caskroom/gcc-arm-embedded/9-2019-q4-major/gcc-arm-none-eabi-9-2019-q4-major/a
 460              		.file 17 "/usr/local/Caskroom/gcc-arm-embedded/9-2019-q4-major/gcc-arm-none-eabi-9-2019-q4-major/a
 461              		.file 18 "/usr/local/Caskroom/gcc-arm-embedded/9-2019-q4-major/gcc-arm-none-eabi-9-2019-q4-major/a
 462              		.file 19 "/usr/local/Caskroom/gcc-arm-embedded/9-2019-q4-major/gcc-arm-none-eabi-9-2019-q4-major/a
 463              		.file 20 "/usr/local/Caskroom/gcc-arm-embedded/9-2019-q4-major/gcc-arm-none-eabi-9-2019-q4-major/a
 464              		.file 21 "/usr/local/Caskroom/gcc-arm-embedded/9-2019-q4-major/gcc-arm-none-eabi-9-2019-q4-major/a
 465              		.file 22 "/usr/local/Caskroom/gcc-arm-embedded/9-2019-q4-major/gcc-arm-none-eabi-9-2019-q4-major/a
 466              		.file 23 "/usr/local/Caskroom/gcc-arm-embedded/9-2019-q4-major/gcc-arm-none-eabi-9-2019-q4-major/a
 467              		.file 24 "/usr/local/Caskroom/gcc-arm-embedded/9-2019-q4-major/gcc-arm-none-eabi-9-2019-q4-major/a
 468              		.file 25 "/usr/local/Caskroom/gcc-arm-embedded/9-2019-q4-major/gcc-arm-none-eabi-9-2019-q4-major/a
 469              		.file 26 "/usr/local/Caskroom/gcc-arm-embedded/9-2019-q4-major/gcc-arm-none-eabi-9-2019-q4-major/a
 470              		.file 27 "/usr/local/Caskroom/gcc-arm-embedded/9-2019-q4-major/gcc-arm-none-eabi-9-2019-q4-major/a
 471              		.file 28 "/usr/local/Caskroom/gcc-arm-embedded/9-2019-q4-major/gcc-arm-none-eabi-9-2019-q4-major/a
 472              		.file 29 "/usr/local/Caskroom/gcc-arm-embedded/9-2019-q4-major/gcc-arm-none-eabi-9-2019-q4-major/a
 473              		.file 30 "/usr/local/Caskroom/gcc-arm-embedded/9-2019-q4-major/gcc-arm-none-eabi-9-2019-q4-major/a
 474              		.file 31 "/usr/local/Caskroom/gcc-arm-embedded/9-2019-q4-major/gcc-arm-none-eabi-9-2019-q4-major/a
 475              		.file 32 "/usr/local/Caskroom/gcc-arm-embedded/9-2019-q4-major/gcc-arm-none-eabi-9-2019-q4-major/a
 476              		.file 33 "/usr/local/Caskroom/gcc-arm-embedded/9-2019-q4-major/gcc-arm-none-eabi-9-2019-q4-major/l
 477              		.file 34 "<built-in>"
 478              		.file 35 "/usr/local/Caskroom/gcc-arm-embedded/9-2019-q4-major/gcc-arm-none-eabi-9-2019-q4-major/a
 479              		.file 36 "/usr/local/Caskroom/gcc-arm-embedded/9-2019-q4-major/gcc-arm-none-eabi-9-2019-q4-major/a
 480              		.file 37 "/usr/local/Caskroom/gcc-arm-embedded/9-2019-q4-major/gcc-arm-none-eabi-9-2019-q4-major/a
 481              		.file 38 "/usr/local/Caskroom/gcc-arm-embedded/9-2019-q4-major/gcc-arm-none-eabi-9-2019-q4-major/a
 482              		.file 39 "/usr/local/Caskroom/gcc-arm-embedded/9-2019-q4-major/gcc-arm-none-eabi-9-2019-q4-major/a
 483              		.file 40 "/usr/local/Caskroom/gcc-arm-embedded/9-2019-q4-major/gcc-arm-none-eabi-9-2019-q4-major/a
 484              		.file 41 "/usr/local/Caskroom/gcc-arm-embedded/9-2019-q4-major/gcc-arm-none-eabi-9-2019-q4-major/a
 485              		.file 42 "/usr/local/Caskroom/gcc-arm-embedded/9-2019-q4-major/gcc-arm-none-eabi-9-2019-q4-major/a
 486              		.file 43 "/usr/local/Caskroom/gcc-arm-embedded/9-2019-q4-major/gcc-arm-none-eabi-9-2019-q4-major/a
 487              		.file 44 "LookupTables/bitMap.h"
ARM GAS  /var/folders/84/_x1cyy_j36g486tldtwl37280000gn/T//ccyKhbRf.s 			page 18


ARM GAS  /var/folders/84/_x1cyy_j36g486tldtwl37280000gn/T//ccyKhbRf.s 			page 19

