ARM GAS  /var/folders/84/_x1cyy_j36g486tldtwl37280000gn/T//ccRIBvhu.s 			page 1


   1              		.cpu cortex-m4
   2              		.eabi_attribute 27, 1
   3              		.eabi_attribute 28, 1
   4              		.eabi_attribute 20, 1
   5              		.eabi_attribute 21, 1
   6              		.eabi_attribute 23, 3
   7              		.eabi_attribute 24, 1
   8              		.eabi_attribute 25, 1
   9              		.eabi_attribute 26, 1
  10              		.eabi_attribute 30, 2
  11              		.eabi_attribute 34, 1
  12              		.eabi_attribute 18, 4
  13              		.file	"canvas.cpp"
  14              		.text
  15              	.Ltext0:
  16              		.cfi_sections	.debug_frame
  17              		.section	.text._ZN6Canvas11draw_bitmapEiiN6Bitmap2IdEi,"ax",%progbits
  18              		.align	1
  19              		.p2align 2,,3
  20              		.global	_ZN6Canvas11draw_bitmapEiiN6Bitmap2IdEi
  21              		.arch armv7e-m
  22              		.syntax unified
  23              		.thumb
  24              		.thumb_func
  25              		.fpu fpv4-sp-d16
  27              	_ZN6Canvas11draw_bitmapEiiN6Bitmap2IdEi:
  28              	.LVL0:
  29              	.LFB2017:
  30              		.file 1 "Src/Ui/canvas.cpp"
   1:Src/Ui/canvas.cpp **** #include "canvas.h"
   2:Src/Ui/canvas.cpp **** 
   3:Src/Ui/canvas.cpp **** Canvas canvas;
   4:Src/Ui/canvas.cpp **** 
   5:Src/Ui/canvas.cpp **** void Canvas::draw_bitmap(int x, int y, Bitmap::Id id, int frame) {
  31              		.loc 1 5 66 view -0
  32              		.cfi_startproc
  33              		@ args = 4, pretend = 0, frame = 0
  34              		@ frame_needed = 0, uses_anonymous_args = 0
   6:Src/Ui/canvas.cpp **** 	set_bitmap(id);
  35              		.loc 1 6 2 view .LVU1
   5:Src/Ui/canvas.cpp **** 	set_bitmap(id);
  36              		.loc 1 5 66 is_stmt 0 view .LVU2
  37 0000 2DE9F843 		push	{r3, r4, r5, r6, r7, r8, r9, lr}
  38              		.cfi_def_cfa_offset 32
  39              		.cfi_offset 3, -32
  40              		.cfi_offset 4, -28
  41              		.cfi_offset 5, -24
  42              		.cfi_offset 6, -20
  43              		.cfi_offset 7, -16
  44              		.cfi_offset 8, -12
  45              		.cfi_offset 9, -8
  46              		.cfi_offset 14, -4
  47              	.LBB141:
  48              	.LBB142:
  49              		.file 2 "Src/Ui/canvas.h"
   1:Src/Ui/canvas.h **** #ifndef Canvas_h
   2:Src/Ui/canvas.h **** #define Canvas_h
ARM GAS  /var/folders/84/_x1cyy_j36g486tldtwl37280000gn/T//ccRIBvhu.s 			page 2


   3:Src/Ui/canvas.h **** 
   4:Src/Ui/canvas.h **** #include "stmf4lib.h"
   5:Src/Ui/canvas.h **** #include "frameBuffer.h"
   6:Src/Ui/canvas.h **** #include "font.h"
   7:Src/Ui/canvas.h **** #include "bitmap.h"
   8:Src/Ui/canvas.h **** #include "stringUtils.h"
   9:Src/Ui/canvas.h **** #include "dsp.h"
  10:Src/Ui/canvas.h **** 
  11:Src/Ui/canvas.h **** class Canvas {
  12:Src/Ui/canvas.h **** 
  13:Src/Ui/canvas.h **** public:
  14:Src/Ui/canvas.h **** 
  15:Src/Ui/canvas.h **** 	enum Color {
  16:Src/Ui/canvas.h **** 		WHITE,
  17:Src/Ui/canvas.h **** 		LIGHT_GRAY,
  18:Src/Ui/canvas.h **** 		GRAY,
  19:Src/Ui/canvas.h **** 		DARK_GRAY,
  20:Src/Ui/canvas.h **** 		BLACK,
  21:Src/Ui/canvas.h **** 		INVERTED,
  22:Src/Ui/canvas.h **** 		SUBTRACTED,
  23:Src/Ui/canvas.h **** 		MULTIPLIED,
  24:Src/Ui/canvas.h **** 	};
  25:Src/Ui/canvas.h **** 
  26:Src/Ui/canvas.h **** 	enum Allign {
  27:Src/Ui/canvas.h **** 		LEFT,
  28:Src/Ui/canvas.h **** 		RIGHT,
  29:Src/Ui/canvas.h **** 		CENTER,
  30:Src/Ui/canvas.h **** 		TOP,
  31:Src/Ui/canvas.h **** 		BOTTOM,
  32:Src/Ui/canvas.h **** 	};
  33:Src/Ui/canvas.h **** 
  34:Src/Ui/canvas.h **** 	//Frame buffer
  35:Src/Ui/canvas.h **** 	static const int width_ = 256;
  36:Src/Ui/canvas.h **** 	static const int height_ = 64;
  37:Src/Ui/canvas.h **** 	const int width() { return Canvas::width_; }
  38:Src/Ui/canvas.h **** 	const int height() { return Canvas::height_; }
  39:Src/Ui/canvas.h **** 
  40:Src/Ui/canvas.h **** 	FrameBuffer <width_, height_> buffer;
  41:Src/Ui/canvas.h **** 
  42:Src/Ui/canvas.h **** 
  43:Src/Ui/canvas.h **** 	void draw_pixel(int x, int y, Color color) {
  44:Src/Ui/canvas.h **** 		if (buffer.inside(x, y) == false) {
  45:Src/Ui/canvas.h **** 			return;
  46:Src/Ui/canvas.h **** 		}
  47:Src/Ui/canvas.h **** 
  48:Src/Ui/canvas.h **** 		switch (color)
  49:Src/Ui/canvas.h **** 		{
  50:Src/Ui/canvas.h **** 		case WHITE:
  51:Src/Ui/canvas.h **** 			buffer.write(x, y, 0x00);
  52:Src/Ui/canvas.h **** 			break;
  53:Src/Ui/canvas.h **** 		case LIGHT_GRAY:
  54:Src/Ui/canvas.h **** 			buffer.write(x, y, 0x04);
  55:Src/Ui/canvas.h **** 			break;
  56:Src/Ui/canvas.h **** 		case GRAY:
  57:Src/Ui/canvas.h **** 			buffer.write(x, y, 0x07);
  58:Src/Ui/canvas.h **** 			break;
  59:Src/Ui/canvas.h **** 		case DARK_GRAY:
ARM GAS  /var/folders/84/_x1cyy_j36g486tldtwl37280000gn/T//ccRIBvhu.s 			page 3


  60:Src/Ui/canvas.h **** 			buffer.write(x, y, 0x0C);
  61:Src/Ui/canvas.h **** 			break;
  62:Src/Ui/canvas.h **** 		case BLACK:
  63:Src/Ui/canvas.h **** 			buffer.write(x, y, 0x0F);
  64:Src/Ui/canvas.h **** 			break;
  65:Src/Ui/canvas.h **** 		case INVERTED:
  66:Src/Ui/canvas.h **** 			buffer.write(x, y, buffer.read(x, y) ^ 0xFF);
  67:Src/Ui/canvas.h **** 			break;
  68:Src/Ui/canvas.h **** 		case SUBTRACTED:
  69:Src/Ui/canvas.h **** 			buffer.write(x, y, buffer.read(x, y) / 3);
  70:Src/Ui/canvas.h **** 			break;
  71:Src/Ui/canvas.h **** 		case MULTIPLIED:
  72:Src/Ui/canvas.h **** 			buffer.write(x, y, stmlib::clip_max(0xF, buffer.read(x, y) * 3));
  73:Src/Ui/canvas.h **** 			break;
  74:Src/Ui/canvas.h **** 		default:
  75:Src/Ui/canvas.h **** 			break;
  76:Src/Ui/canvas.h **** 		}
  77:Src/Ui/canvas.h **** 	}
  78:Src/Ui/canvas.h **** 
  79:Src/Ui/canvas.h **** 	void horizontal_line(int x, int y, int w, Color color) {
  80:Src/Ui/canvas.h **** 		int x2 = x + w;
  81:Src/Ui/canvas.h **** 		for (int xi = x; xi < x2; ++xi) {
  82:Src/Ui/canvas.h **** 			draw_pixel(xi, y, color);
  83:Src/Ui/canvas.h **** 		}
  84:Src/Ui/canvas.h **** 	}
  85:Src/Ui/canvas.h **** 
  86:Src/Ui/canvas.h **** 	void vertical_line(int x, int y, int h, Color color) {
  87:Src/Ui/canvas.h **** 		int y2 = y + h;
  88:Src/Ui/canvas.h **** 		for (int yi = y; yi < y2; ++yi) {
  89:Src/Ui/canvas.h **** 			draw_pixel(x, yi, color);
  90:Src/Ui/canvas.h **** 		}
  91:Src/Ui/canvas.h **** 	}
  92:Src/Ui/canvas.h **** 
  93:Src/Ui/canvas.h **** 	void fill(int x, int y, int w, int h, Color color) {
  94:Src/Ui/canvas.h **** 		int y2 = y + h;
  95:Src/Ui/canvas.h **** 		for (int yi = y; yi < y2; ++yi) {
  96:Src/Ui/canvas.h **** 			horizontal_line(x, yi, w, color);
  97:Src/Ui/canvas.h **** 		}
  98:Src/Ui/canvas.h **** 	}
  99:Src/Ui/canvas.h **** 
 100:Src/Ui/canvas.h **** 	void frame(int x, int y, int w, int h, Color color, int border = 1) {
 101:Src/Ui/canvas.h **** 		int x2 = stmlib::clip_min(0, x + w - 1);
 102:Src/Ui/canvas.h **** 		int y2 = stmlib::clip_min(0, y + h - 1);
 103:Src/Ui/canvas.h **** 
 104:Src/Ui/canvas.h **** 		for (int i = 0; i < border; ++i) {
 105:Src/Ui/canvas.h **** 			horizontal_line(x, y + i, w, color);
 106:Src/Ui/canvas.h **** 			horizontal_line(x, y2 - i, w, color);
 107:Src/Ui/canvas.h **** 			vertical_line(x + i, y, h, color);
 108:Src/Ui/canvas.h **** 			vertical_line(x2 - i, y, h, color);
 109:Src/Ui/canvas.h **** 		}
 110:Src/Ui/canvas.h **** 	}
 111:Src/Ui/canvas.h **** 
 112:Src/Ui/canvas.h **** 	void box(int x, int y, int w, int h, Color frame_clr, Color fill_clr, int border = 1){
 113:Src/Ui/canvas.h **** 		frame(x, y, w, h, frame_clr, border);
 114:Src/Ui/canvas.h **** 		fill(x + border, y + border, w - (border * 2), h - (border * 2), fill_clr);
 115:Src/Ui/canvas.h **** 	}
 116:Src/Ui/canvas.h **** 
ARM GAS  /var/folders/84/_x1cyy_j36g486tldtwl37280000gn/T//ccRIBvhu.s 			page 4


 117:Src/Ui/canvas.h **** 	void get_xy_allignment(int *x, int *y, int w, int h, int frame_w, int frame_h, Allign x_allign, Al
 118:Src/Ui/canvas.h **** 		int x_ = *x;
 119:Src/Ui/canvas.h **** 		int y_ = *y;
 120:Src/Ui/canvas.h **** 
 121:Src/Ui/canvas.h **** 		switch (x_allign)
 122:Src/Ui/canvas.h **** 		{
 123:Src/Ui/canvas.h **** 		case LEFT:
 124:Src/Ui/canvas.h **** 			break;
 125:Src/Ui/canvas.h **** 		case CENTER:
 126:Src/Ui/canvas.h **** 			x_ += (w - frame_w) / 2;
 127:Src/Ui/canvas.h **** 			break;
 128:Src/Ui/canvas.h **** 		case RIGHT:
 129:Src/Ui/canvas.h **** 			x_ += (w - frame_w);
 130:Src/Ui/canvas.h **** 			break;
 131:Src/Ui/canvas.h **** 		default:
 132:Src/Ui/canvas.h **** 			break;
 133:Src/Ui/canvas.h **** 		}
 134:Src/Ui/canvas.h **** 
 135:Src/Ui/canvas.h **** 		switch (y_allign)
 136:Src/Ui/canvas.h **** 		{
 137:Src/Ui/canvas.h **** 		case TOP:
 138:Src/Ui/canvas.h **** 			break;
 139:Src/Ui/canvas.h **** 		case CENTER:
 140:Src/Ui/canvas.h **** 			y_ += (h - frame_h) / 2;
 141:Src/Ui/canvas.h **** 			break;
 142:Src/Ui/canvas.h **** 		case BOTTOM:
 143:Src/Ui/canvas.h **** 			y_ += (h - frame_h);
 144:Src/Ui/canvas.h **** 			break;
 145:Src/Ui/canvas.h **** 		default:
 146:Src/Ui/canvas.h **** 			break;
 147:Src/Ui/canvas.h **** 		}
 148:Src/Ui/canvas.h **** 
 149:Src/Ui/canvas.h **** 		*x = stmlib::clip(0, width() - frame_w, x_);
 150:Src/Ui/canvas.h **** 		*y = stmlib::clip(0, height() - frame_h, y_);
 151:Src/Ui/canvas.h **** 	}
 152:Src/Ui/canvas.h **** 
 153:Src/Ui/canvas.h **** 	// bitmap
 154:Src/Ui/canvas.h **** 	void set_bitmap(Bitmap::Id id, Color color = BLACK) {
 155:Src/Ui/canvas.h **** 		bitmap_color = color;
 156:Src/Ui/canvas.h **** 		bitmap.set(id);
  50              		.loc 2 156 13 view .LVU3
  51 0004 CD4C     		ldr	r4, .L91
  52              	.LBE142:
  53              	.LBE141:
   5:Src/Ui/canvas.cpp **** 	set_bitmap(id);
  54              		.loc 1 5 66 view .LVU4
  55 0006 0746     		mov	r7, r0
  56              	.LVL1:
  57              	.LBB146:
  58              	.LBI141:
 154:Src/Ui/canvas.h **** 		bitmap_color = color;
  59              		.loc 2 154 7 is_stmt 1 view .LVU5
  60              	.LBB143:
 155:Src/Ui/canvas.h **** 		bitmap.set(id);
  61              		.loc 2 155 3 view .LVU6
 155:Src/Ui/canvas.h **** 		bitmap.set(id);
  62              		.loc 2 155 16 is_stmt 0 view .LVU7
ARM GAS  /var/folders/84/_x1cyy_j36g486tldtwl37280000gn/T//ccRIBvhu.s 			page 5


  63 0008 42F20500 		movw	r0, #8197
  64              	.LVL2:
 155:Src/Ui/canvas.h **** 		bitmap.set(id);
  65              		.loc 2 155 16 view .LVU8
  66 000c 0426     		movs	r6, #4
  67 000e 3E54     		strb	r6, [r7, r0]
  68              		.loc 2 156 3 is_stmt 1 view .LVU9
  69              	.LBE143:
  70              	.LBE146:
   5:Src/Ui/canvas.cpp **** 	set_bitmap(id);
  71              		.loc 1 5 66 is_stmt 0 view .LVU10
  72 0010 0D46     		mov	r5, r1
  73              	.LBB147:
  74              	.LBB144:
  75              		.loc 2 156 13 view .LVU11
  76 0012 2046     		mov	r0, r4
  77 0014 1946     		mov	r1, r3
  78              	.LVL3:
  79              		.loc 2 156 13 view .LVU12
  80              	.LBE144:
  81              	.LBE147:
   5:Src/Ui/canvas.cpp **** 	set_bitmap(id);
  82              		.loc 1 5 66 view .LVU13
  83 0016 9046     		mov	r8, r2
  84              	.LBB148:
  85              	.LBB145:
  86              		.loc 2 156 13 view .LVU14
  87 0018 FFF7FEFF 		bl	_ZN6Bitmap3setENS_2IdE
  88              	.LVL4:
  89              		.loc 2 156 13 view .LVU15
  90              	.LBE145:
  91              	.LBE148:
   7:Src/Ui/canvas.cpp **** 
   8:Src/Ui/canvas.cpp **** 	int shift = 0;
  92              		.loc 1 8 2 is_stmt 1 view .LVU16
   9:Src/Ui/canvas.cpp **** 	int x2 = x + bitmap.width;
  93              		.loc 1 9 2 view .LVU17
  94              		.loc 1 9 22 is_stmt 0 view .LVU18
  95 001c 94F80490 		ldrb	r9, [r4, #4]	@ zero_extendqisi2
  10:Src/Ui/canvas.cpp **** 	int y2 = y + bitmap.height;
  11:Src/Ui/canvas.cpp **** 	const uint8_t* ptr = bitmap.pointer(frame);
  96              		.loc 1 11 37 view .LVU19
  97 0020 089B     		ldr	r3, [sp, #32]
  10:Src/Ui/canvas.cpp **** 	int y2 = y + bitmap.height;
  98              		.loc 1 10 22 view .LVU20
  99 0022 6679     		ldrb	r6, [r4, #5]	@ zero_extendqisi2
 100              		.loc 1 11 37 view .LVU21
 101 0024 2046     		mov	r0, r4
 102 0026 D9B2     		uxtb	r1, r3
   9:Src/Ui/canvas.cpp **** 	int x2 = x + bitmap.width;
 103              		.loc 1 9 6 view .LVU22
 104 0028 A944     		add	r9, r9, r5
 105              	.LVL5:
  10:Src/Ui/canvas.cpp **** 	int y2 = y + bitmap.height;
 106              		.loc 1 10 2 is_stmt 1 view .LVU23
 107              		.loc 1 11 37 is_stmt 0 view .LVU24
 108 002a FFF7FEFF 		bl	_ZN6Bitmap7pointerEh
ARM GAS  /var/folders/84/_x1cyy_j36g486tldtwl37280000gn/T//ccRIBvhu.s 			page 6


 109              	.LVL6:
 110              	.LBB149:
  12:Src/Ui/canvas.cpp **** 
  13:Src/Ui/canvas.cpp **** 	for (int xi = x; xi < x2; ++xi) {
 111              		.loc 1 13 22 view .LVU25
 112 002e 4D45     		cmp	r5, r9
 113              	.LBE149:
  10:Src/Ui/canvas.cpp **** 	int y2 = y + bitmap.height;
 114              		.loc 1 10 6 view .LVU26
 115 0030 4644     		add	r6, r6, r8
 116              	.LVL7:
  11:Src/Ui/canvas.cpp **** 
 117              		.loc 1 11 2 is_stmt 1 view .LVU27
 118              		.loc 1 13 2 view .LVU28
 119              	.LBB348:
 120              		.loc 1 13 22 view .LVU29
 121 0032 80F2E280 		bge	.L1
 122 0036 4FEAC811 		lsl	r1, r8, #7
 123              	.LVL8:
 124              	.L12:
 125              	.LBB150:
 126              	.LBB151:
  14:Src/Ui/canvas.cpp **** 		for (int yi = y; yi < y2; ++yi) {
 127              		.loc 1 14 23 view .LVU30
 128 003a B045     		cmp	r8, r6
 129 003c 80F2D980 		bge	.L3
 130              		.loc 1 14 23 is_stmt 0 view .LVU31
 131 0040 A6EB080C 		sub	ip, r6, r8
 132 0044 01EB650E 		add	lr, r1, r5, asr #1
 133 0048 1CF0030C 		ands	ip, ip, #3
 134 004c 07EB0E02 		add	r2, r7, lr
 135              	.LBB152:
 136              	.LBB153:
 137              	.LBB154:
 138              	.LBB155:
 139              		.file 3 "Src/Ui/frameBuffer.h"
   1:Src/Ui/frameBuffer.h **** #ifndef FrameBuffer_h
   2:Src/Ui/frameBuffer.h **** #define FrameBuffer_h
   3:Src/Ui/frameBuffer.h **** 
   4:Src/Ui/frameBuffer.h **** #include "stmf4lib.h"
   5:Src/Ui/frameBuffer.h **** 
   6:Src/Ui/frameBuffer.h **** // 4 bit grayscale buffer
   7:Src/Ui/frameBuffer.h **** 
   8:Src/Ui/frameBuffer.h **** template <const uint16_t kWidth, const uint16_t kHeight>
   9:Src/Ui/frameBuffer.h **** class FrameBuffer {
  10:Src/Ui/frameBuffer.h **** 
  11:Src/Ui/frameBuffer.h **** public:
  12:Src/Ui/frameBuffer.h **** 
  13:Src/Ui/frameBuffer.h **** 	inline bool inside(int x, int y) {
  14:Src/Ui/frameBuffer.h **** 		return (x >= 0 && x < kWidth) && (y >= 0 && y < kHeight);
  15:Src/Ui/frameBuffer.h **** 	}
  16:Src/Ui/frameBuffer.h **** 
  17:Src/Ui/frameBuffer.h **** 	inline void clear() {
  18:Src/Ui/frameBuffer.h **** 		int i = size_;
  19:Src/Ui/frameBuffer.h **** 		while (i--) {
  20:Src/Ui/frameBuffer.h **** 			data_[i] = 0x00;
  21:Src/Ui/frameBuffer.h **** 		}
ARM GAS  /var/folders/84/_x1cyy_j36g486tldtwl37280000gn/T//ccRIBvhu.s 			page 7


  22:Src/Ui/frameBuffer.h **** 	}
  23:Src/Ui/frameBuffer.h **** 
  24:Src/Ui/frameBuffer.h **** 	inline void write(int x, int y, uint8_t value) {
  25:Src/Ui/frameBuffer.h **** 		int index = (x / 2) + ((kWidth / 2) * y);
 140              		.loc 3 25 18 view .LVU32
 141 0050 4446     		mov	r4, r8
 142 0052 4FF00003 		mov	r3, #0
 143 0056 47D0     		beq	.L10
 144              	.LVL9:
 145              		.loc 3 25 18 view .LVU33
 146 0058 BCF1010F 		cmp	ip, #1
 147 005c 21D0     		beq	.L61
 148 005e BCF1020F 		cmp	ip, #2
 149 0062 0AD0     		beq	.L62
 150              		.loc 3 25 18 view .LVU34
 151              	.LBE155:
 152              	.LBE154:
 153              	.LBE153:
  15:Src/Ui/canvas.cpp **** 			uint8_t pixel = (*ptr >> shift) & 1;
 154              		.loc 1 15 4 is_stmt 1 view .LVU35
 155              	.LVL10:
  16:Src/Ui/canvas.cpp **** 			draw_pixel(xi, yi, pixel ? BLACK : WHITE);
 156              		.loc 1 16 4 view .LVU36
  15:Src/Ui/canvas.cpp **** 			uint8_t pixel = (*ptr >> shift) & 1;
 157              		.loc 1 15 21 is_stmt 0 view .LVU37
 158 0064 0478     		ldrb	r4, [r0]	@ zero_extendqisi2
 159              	.LVL11:
 160              		.loc 1 16 14 view .LVU38
 161 0066 E307     		lsls	r3, r4, #31
 162 0068 00F13981 		bmi	.L69
 163              	.LVL12:
 164              	.LBB214:
 165              	.LBI153:
  43:Src/Ui/canvas.h **** 		if (buffer.inside(x, y) == false) {
 166              		.loc 2 43 7 is_stmt 1 view .LVU39
 167              	.LBE214:
 168              	.LBE152:
 169              	.LBE151:
 170              	.LBE150:
 171              	.LBE348:
  44:Src/Ui/canvas.h **** 			return;
 172              		.loc 2 44 3 view .LVU40
 173              	.LBB349:
 174              	.LBB319:
 175              	.LBB290:
 176              	.LBB250:
 177              	.LBB215:
 178              	.LBB163:
 179              	.LBI163:
  13:Src/Ui/frameBuffer.h **** 		return (x >= 0 && x < kWidth) && (y >= 0 && y < kHeight);
 180              		.loc 3 13 14 view .LVU41
 181              	.LBB164:
  14:Src/Ui/frameBuffer.h **** 	}
 182              		.loc 3 14 33 is_stmt 0 view .LVU42
 183 006c FF2D     		cmp	r5, #255
 184 006e 40F24A81 		bls	.L89
 185              	.LVL13:
ARM GAS  /var/folders/84/_x1cyy_j36g486tldtwl37280000gn/T//ccRIBvhu.s 			page 8


 186              	.L17:
  14:Src/Ui/frameBuffer.h **** 	}
 187              		.loc 3 14 33 view .LVU43
 188              	.LBE164:
 189              	.LBE163:
 190              	.LBE215:
  17:Src/Ui/canvas.cpp **** 			if (++shift >= 8) {
 191              		.loc 1 17 4 is_stmt 1 view .LVU44
 192              		.loc 1 17 16 is_stmt 0 view .LVU45
 193 0072 0123     		movs	r3, #1
 194              		.loc 1 17 16 view .LVU46
 195              	.LBE250:
  14:Src/Ui/canvas.cpp **** 			uint8_t pixel = (*ptr >> shift) & 1;
 196              		.loc 1 14 3 is_stmt 1 view .LVU47
 197              	.LVL14:
  14:Src/Ui/canvas.cpp **** 			uint8_t pixel = (*ptr >> shift) & 1;
 198              		.loc 1 14 3 is_stmt 0 view .LVU48
 199 0074 8032     		adds	r2, r2, #128
 200 0076 08EB0304 		add	r4, r8, r3
 201              	.LVL15:
  14:Src/Ui/canvas.cpp **** 			uint8_t pixel = (*ptr >> shift) & 1;
 202              		.loc 1 14 23 is_stmt 1 view .LVU49
 203              	.L62:
 204              	.LBB251:
  15:Src/Ui/canvas.cpp **** 			draw_pixel(xi, yi, pixel ? BLACK : WHITE);
 205              		.loc 1 15 4 view .LVU50
  16:Src/Ui/canvas.cpp **** 			if (++shift >= 8) {
 206              		.loc 1 16 4 view .LVU51
  15:Src/Ui/canvas.cpp **** 			draw_pixel(xi, yi, pixel ? BLACK : WHITE);
 207              		.loc 1 15 21 is_stmt 0 view .LVU52
 208 007a 90F800C0 		ldrb	ip, [r0]	@ zero_extendqisi2
  15:Src/Ui/canvas.cpp **** 			draw_pixel(xi, yi, pixel ? BLACK : WHITE);
 209              		.loc 1 15 26 view .LVU53
 210 007e 4CFA03FC 		asr	ip, ip, r3
  16:Src/Ui/canvas.cpp **** 			if (++shift >= 8) {
 211              		.loc 1 16 14 view .LVU54
 212 0082 1CF0010F 		tst	ip, #1
 213 0086 40F01681 		bne	.L72
 214              	.LVL16:
 215              	.LBB216:
  43:Src/Ui/canvas.h **** 		if (buffer.inside(x, y) == false) {
 216              		.loc 2 43 7 is_stmt 1 view .LVU55
 217              	.LBE216:
 218              	.LBE251:
 219              	.LBE290:
 220              	.LBE319:
 221              	.LBE349:
  44:Src/Ui/canvas.h **** 			return;
 222              		.loc 2 44 3 view .LVU56
 223              	.LBB350:
 224              	.LBB320:
 225              	.LBB291:
 226              	.LBB252:
 227              	.LBB217:
 228              	.LBB179:
  13:Src/Ui/frameBuffer.h **** 		return (x >= 0 && x < kWidth) && (y >= 0 && y < kHeight);
 229              		.loc 3 13 14 view .LVU57
ARM GAS  /var/folders/84/_x1cyy_j36g486tldtwl37280000gn/T//ccRIBvhu.s 			page 9


 230              	.LBB165:
  14:Src/Ui/frameBuffer.h **** 	}
 231              		.loc 3 14 33 is_stmt 0 view .LVU58
 232 008a FF2D     		cmp	r5, #255
 233 008c 02D8     		bhi	.L25
 234 008e 3F2C     		cmp	r4, #63
 235 0090 40F24881 		bls	.L90
 236              	.LVL17:
 237              	.L25:
  14:Src/Ui/frameBuffer.h **** 	}
 238              		.loc 3 14 33 view .LVU59
 239              	.LBE165:
 240              	.LBE179:
 241              	.LBE217:
 242              		.loc 1 17 4 is_stmt 1 view .LVU60
 243              		.loc 1 17 16 is_stmt 0 view .LVU61
 244 0094 0133     		adds	r3, r3, #1
 245              	.LVL18:
 246              		.loc 1 17 4 view .LVU62
 247 0096 072B     		cmp	r3, #7
  18:Src/Ui/canvas.cpp **** 				++ptr;
 248              		.loc 1 18 5 is_stmt 1 view .LVU63
 249 0098 C4BF     		itt	gt
 250 009a 0130     		addgt	r0, r0, #1
 251              	.LVL19:
  19:Src/Ui/canvas.cpp **** 				shift = 0;
 252              		.loc 1 19 5 view .LVU64
 253              		.loc 1 19 11 is_stmt 0 view .LVU65
 254 009c 0023     		movgt	r3, #0
 255              		.loc 1 19 11 view .LVU66
 256              	.LBE252:
  14:Src/Ui/canvas.cpp **** 			uint8_t pixel = (*ptr >> shift) & 1;
 257              		.loc 1 14 3 is_stmt 1 view .LVU67
 258              	.LVL20:
  14:Src/Ui/canvas.cpp **** 			uint8_t pixel = (*ptr >> shift) & 1;
 259              		.loc 1 14 3 is_stmt 0 view .LVU68
 260 009e 0134     		adds	r4, r4, #1
 261              	.LVL21:
  14:Src/Ui/canvas.cpp **** 			uint8_t pixel = (*ptr >> shift) & 1;
 262              		.loc 1 14 23 is_stmt 1 view .LVU69
 263 00a0 8032     		adds	r2, r2, #128
 264              	.LVL22:
 265              	.L61:
 266              	.LBB253:
  15:Src/Ui/canvas.cpp **** 			draw_pixel(xi, yi, pixel ? BLACK : WHITE);
 267              		.loc 1 15 4 view .LVU70
  16:Src/Ui/canvas.cpp **** 			if (++shift >= 8) {
 268              		.loc 1 16 4 view .LVU71
  15:Src/Ui/canvas.cpp **** 			draw_pixel(xi, yi, pixel ? BLACK : WHITE);
 269              		.loc 1 15 21 is_stmt 0 view .LVU72
 270 00a2 90F800C0 		ldrb	ip, [r0]	@ zero_extendqisi2
  15:Src/Ui/canvas.cpp **** 			draw_pixel(xi, yi, pixel ? BLACK : WHITE);
 271              		.loc 1 15 26 view .LVU73
 272 00a6 4CFA03FC 		asr	ip, ip, r3
  16:Src/Ui/canvas.cpp **** 			if (++shift >= 8) {
 273              		.loc 1 16 14 view .LVU74
 274 00aa 1CF0010F 		tst	ip, #1
ARM GAS  /var/folders/84/_x1cyy_j36g486tldtwl37280000gn/T//ccRIBvhu.s 			page 10


 275 00ae 40F0EE80 		bne	.L75
 276              	.LVL23:
 277              	.LBB218:
  43:Src/Ui/canvas.h **** 		if (buffer.inside(x, y) == false) {
 278              		.loc 2 43 7 is_stmt 1 view .LVU75
 279              	.LBE218:
 280              	.LBE253:
 281              	.LBE291:
 282              	.LBE320:
 283              	.LBE350:
  44:Src/Ui/canvas.h **** 			return;
 284              		.loc 2 44 3 view .LVU76
 285              	.LBB351:
 286              	.LBB321:
 287              	.LBB292:
 288              	.LBB254:
 289              	.LBB219:
 290              	.LBB180:
  13:Src/Ui/frameBuffer.h **** 		return (x >= 0 && x < kWidth) && (y >= 0 && y < kHeight);
 291              		.loc 3 13 14 view .LVU77
 292              	.LBB166:
  14:Src/Ui/frameBuffer.h **** 	}
 293              		.loc 3 14 33 is_stmt 0 view .LVU78
 294 00b2 FF2D     		cmp	r5, #255
 295 00b4 0CD8     		bhi	.L33
 296 00b6 3F2C     		cmp	r4, #63
 297 00b8 0AD8     		bhi	.L33
 298              	.LVL24:
  14:Src/Ui/frameBuffer.h **** 	}
 299              		.loc 3 14 33 view .LVU79
 300              	.LBE166:
 301              	.LBE180:
 302              	.LBE219:
 303              	.LBE254:
 304              	.LBE292:
 305              	.LBE321:
 306              	.LBE351:
  48:Src/Ui/canvas.h **** 		{
 307              		.loc 2 48 3 is_stmt 1 view .LVU80
  50:Src/Ui/canvas.h **** 			buffer.write(x, y, 0x00);
 308              		.loc 2 50 3 view .LVU81
  51:Src/Ui/canvas.h **** 			break;
 309              		.loc 2 51 4 view .LVU82
 310              	.LBB352:
 311              	.LBB322:
 312              	.LBB293:
 313              	.LBB255:
 314              	.LBB220:
 315              	.LBB181:
 316              	.LBI154:
  24:Src/Ui/frameBuffer.h **** 		int index = (x / 2) + ((kWidth / 2) * y);
 317              		.loc 3 24 14 view .LVU83
 318              	.LBB156:
  26:Src/Ui/frameBuffer.h **** 
  27:Src/Ui/frameBuffer.h **** 		if (x & 1) {
  28:Src/Ui/frameBuffer.h **** 			data_[index] &= ~0x0F;
 319              		.loc 3 28 17 is_stmt 0 view .LVU84
ARM GAS  /var/folders/84/_x1cyy_j36g486tldtwl37280000gn/T//ccRIBvhu.s 			page 11


 320 00ba 92F800C0 		ldrb	ip, [r2]	@ zero_extendqisi2
  27:Src/Ui/frameBuffer.h **** 			data_[index] &= ~0x0F;
 321              		.loc 3 27 3 view .LVU85
 322 00be 15F0010F 		tst	r5, #1
  29:Src/Ui/frameBuffer.h **** 			data_[index] |= (value & 0x0F);
  30:Src/Ui/frameBuffer.h **** 		} else {
  31:Src/Ui/frameBuffer.h **** 			data_[index] &= ~0xF0;
 323              		.loc 3 31 17 view .LVU86
 324 00c2 0CBF     		ite	eq
 325 00c4 0CF00F0C 		andeq	ip, ip, #15
  28:Src/Ui/frameBuffer.h **** 			data_[index] |= (value & 0x0F);
 326              		.loc 3 28 17 view .LVU87
 327 00c8 2CF00F0C 		bicne	ip, ip, #15
  29:Src/Ui/frameBuffer.h **** 			data_[index] |= (value & 0x0F);
 328              		.loc 3 29 4 view .LVU88
 329 00cc 82F800C0 		strb	ip, [r2]
 330              	.LVL25:
 331              	.L33:
  29:Src/Ui/frameBuffer.h **** 			data_[index] |= (value & 0x0F);
 332              		.loc 3 29 4 view .LVU89
 333              	.LBE156:
 334              	.LBE181:
 335              	.LBE220:
  17:Src/Ui/canvas.cpp **** 				++ptr;
 336              		.loc 1 17 4 is_stmt 1 view .LVU90
  17:Src/Ui/canvas.cpp **** 				++ptr;
 337              		.loc 1 17 16 is_stmt 0 view .LVU91
 338 00d0 0133     		adds	r3, r3, #1
 339              	.LVL26:
  17:Src/Ui/canvas.cpp **** 				++ptr;
 340              		.loc 1 17 4 view .LVU92
 341 00d2 072B     		cmp	r3, #7
  18:Src/Ui/canvas.cpp **** 				shift = 0;
 342              		.loc 1 18 5 is_stmt 1 view .LVU93
 343              	.LBE255:
  14:Src/Ui/canvas.cpp **** 			uint8_t pixel = (*ptr >> shift) & 1;
 344              		.loc 1 14 3 is_stmt 0 view .LVU94
 345 00d4 04F10104 		add	r4, r4, #1
 346              	.LVL27:
 347              	.LBB256:
  18:Src/Ui/canvas.cpp **** 				shift = 0;
 348              		.loc 1 18 5 view .LVU95
 349 00d8 C4BF     		itt	gt
 350 00da 0130     		addgt	r0, r0, #1
 351              	.LVL28:
 352              		.loc 1 19 5 is_stmt 1 view .LVU96
 353              		.loc 1 19 11 is_stmt 0 view .LVU97
 354 00dc 0023     		movgt	r3, #0
 355              		.loc 1 19 11 view .LVU98
 356              	.LBE256:
  14:Src/Ui/canvas.cpp **** 			uint8_t pixel = (*ptr >> shift) & 1;
 357              		.loc 1 14 3 is_stmt 1 view .LVU99
 358              	.LVL29:
  14:Src/Ui/canvas.cpp **** 			uint8_t pixel = (*ptr >> shift) & 1;
 359              		.loc 1 14 23 view .LVU100
 360 00de A642     		cmp	r6, r4
 361 00e0 02F18002 		add	r2, r2, #128
ARM GAS  /var/folders/84/_x1cyy_j36g486tldtwl37280000gn/T//ccRIBvhu.s 			page 12


 362 00e4 00F08380 		beq	.L78
 363              	.LVL30:
 364              	.L10:
 365              	.LBB257:
  15:Src/Ui/canvas.cpp **** 			draw_pixel(xi, yi, pixel ? BLACK : WHITE);
 366              		.loc 1 15 4 view .LVU101
  16:Src/Ui/canvas.cpp **** 			if (++shift >= 8) {
 367              		.loc 1 16 4 view .LVU102
  15:Src/Ui/canvas.cpp **** 			draw_pixel(xi, yi, pixel ? BLACK : WHITE);
 368              		.loc 1 15 21 is_stmt 0 view .LVU103
 369 00e8 90F800E0 		ldrb	lr, [r0]	@ zero_extendqisi2
  15:Src/Ui/canvas.cpp **** 			draw_pixel(xi, yi, pixel ? BLACK : WHITE);
 370              		.loc 1 15 26 view .LVU104
 371 00ec 4EFA03FC 		asr	ip, lr, r3
  16:Src/Ui/canvas.cpp **** 			if (++shift >= 8) {
 372              		.loc 1 16 14 view .LVU105
 373 00f0 1CF0010F 		tst	ip, #1
 374 00f4 00F0B980 		beq	.L4
 375              	.LVL31:
 376              	.LBB221:
  43:Src/Ui/canvas.h **** 		if (buffer.inside(x, y) == false) {
 377              		.loc 2 43 7 is_stmt 1 view .LVU106
 378              	.LBE221:
 379              	.LBE257:
 380              	.LBE293:
 381              	.LBE322:
 382              	.LBE352:
  44:Src/Ui/canvas.h **** 			return;
 383              		.loc 2 44 3 view .LVU107
 384              	.LBB353:
 385              	.LBB323:
 386              	.LBB294:
 387              	.LBB258:
 388              	.LBB222:
 389              	.LBB182:
  13:Src/Ui/frameBuffer.h **** 		return (x >= 0 && x < kWidth) && (y >= 0 && y < kHeight);
 390              		.loc 3 13 14 view .LVU108
 391              	.LBB167:
  14:Src/Ui/frameBuffer.h **** 	}
 392              		.loc 3 14 33 is_stmt 0 view .LVU109
 393 00f8 FF2D     		cmp	r5, #255
 394 00fa 0ED8     		bhi	.L5
 395 00fc 3F2C     		cmp	r4, #63
 396 00fe 0CD8     		bhi	.L5
 397              	.LVL32:
  14:Src/Ui/frameBuffer.h **** 	}
 398              		.loc 3 14 33 view .LVU110
 399              	.LBE167:
 400              	.LBE182:
 401              	.LBE222:
 402              	.LBE258:
 403              	.LBE294:
 404              	.LBE323:
 405              	.LBE353:
  48:Src/Ui/canvas.h **** 		{
 406              		.loc 2 48 3 is_stmt 1 view .LVU111
  62:Src/Ui/canvas.h **** 			buffer.write(x, y, 0x0F);
ARM GAS  /var/folders/84/_x1cyy_j36g486tldtwl37280000gn/T//ccRIBvhu.s 			page 13


 407              		.loc 2 62 3 view .LVU112
  63:Src/Ui/canvas.h **** 			break;
 408              		.loc 2 63 4 view .LVU113
 409              	.LBB354:
 410              	.LBB324:
 411              	.LBB295:
 412              	.LBB259:
 413              	.LBB223:
 414              	.LBB183:
 415              	.LBI183:
  24:Src/Ui/frameBuffer.h **** 		int index = (x / 2) + ((kWidth / 2) * y);
 416              		.loc 3 24 14 view .LVU114
 417              	.LBB184:
  28:Src/Ui/frameBuffer.h **** 			data_[index] |= (value & 0x0F);
 418              		.loc 3 28 17 is_stmt 0 view .LVU115
 419 0100 92F800C0 		ldrb	ip, [r2]	@ zero_extendqisi2
  27:Src/Ui/frameBuffer.h **** 			data_[index] &= ~0x0F;
 420              		.loc 3 27 3 view .LVU116
 421 0104 15F0010F 		tst	r5, #1
  28:Src/Ui/frameBuffer.h **** 			data_[index] |= (value & 0x0F);
 422              		.loc 3 28 17 view .LVU117
 423 0108 1ABF     		itte	ne
 424 010a 2CF00F0C 		bicne	ip, ip, #15
  29:Src/Ui/frameBuffer.h **** 		} else {
 425              		.loc 3 29 17 view .LVU118
 426 010e 4CF00F0C 		orrne	ip, ip, #15
  32:Src/Ui/frameBuffer.h **** 			data_[index] |= (value << 4);
 427              		.loc 3 32 17 view .LVU119
 428 0112 6CF00F0C 		orneq	ip, ip, #15
 429              		.loc 3 32 4 view .LVU120
 430 0116 82F800C0 		strb	ip, [r2]
 431              	.LVL33:
 432              	.L5:
 433              		.loc 3 32 4 view .LVU121
 434              	.LBE184:
 435              	.LBE183:
 436              	.LBE223:
  17:Src/Ui/canvas.cpp **** 				++ptr;
 437              		.loc 1 17 4 is_stmt 1 view .LVU122
  17:Src/Ui/canvas.cpp **** 				++ptr;
 438              		.loc 1 17 16 is_stmt 0 view .LVU123
 439 011a 0133     		adds	r3, r3, #1
  17:Src/Ui/canvas.cpp **** 				++ptr;
 440              		.loc 1 17 4 view .LVU124
 441 011c 072B     		cmp	r3, #7
  18:Src/Ui/canvas.cpp **** 				shift = 0;
 442              		.loc 1 18 5 is_stmt 1 view .LVU125
 443 011e C4BF     		itt	gt
 444 0120 0130     		addgt	r0, r0, #1
 445              	.LVL34:
 446              		.loc 1 19 5 view .LVU126
 447              		.loc 1 19 5 is_stmt 0 view .LVU127
 448              	.LBE259:
  14:Src/Ui/canvas.cpp **** 			uint8_t pixel = (*ptr >> shift) & 1;
 449              		.loc 1 14 3 is_stmt 1 view .LVU128
 450              	.LBB260:
 451              		.loc 1 19 11 is_stmt 0 view .LVU129
ARM GAS  /var/folders/84/_x1cyy_j36g486tldtwl37280000gn/T//ccRIBvhu.s 			page 14


 452 0122 0023     		movgt	r3, #0
  15:Src/Ui/canvas.cpp **** 			draw_pixel(xi, yi, pixel ? BLACK : WHITE);
 453              		.loc 1 15 21 view .LVU130
 454 0124 90F800E0 		ldrb	lr, [r0]	@ zero_extendqisi2
  15:Src/Ui/canvas.cpp **** 			draw_pixel(xi, yi, pixel ? BLACK : WHITE);
 455              		.loc 1 15 26 view .LVU131
 456 0128 4EFA03FC 		asr	ip, lr, r3
  16:Src/Ui/canvas.cpp **** 			if (++shift >= 8) {
 457              		.loc 1 16 14 view .LVU132
 458 012c 1CF0010F 		tst	ip, #1
 459              	.LBE260:
  14:Src/Ui/canvas.cpp **** 			uint8_t pixel = (*ptr >> shift) & 1;
 460              		.loc 1 14 3 view .LVU133
 461 0130 04F10104 		add	r4, r4, #1
  14:Src/Ui/canvas.cpp **** 			uint8_t pixel = (*ptr >> shift) & 1;
 462              		.loc 1 14 23 is_stmt 1 view .LVU134
 463 0134 02F18002 		add	r2, r2, #128
 464              	.LBB261:
  15:Src/Ui/canvas.cpp **** 			draw_pixel(xi, yi, pixel ? BLACK : WHITE);
 465              		.loc 1 15 4 view .LVU135
 466              	.LVL35:
  16:Src/Ui/canvas.cpp **** 			if (++shift >= 8) {
 467              		.loc 1 16 4 view .LVU136
  16:Src/Ui/canvas.cpp **** 			if (++shift >= 8) {
 468              		.loc 1 16 14 is_stmt 0 view .LVU137
 469 0138 00F08780 		beq	.L40
 470              	.LVL36:
 471              	.LBB224:
  43:Src/Ui/canvas.h **** 		if (buffer.inside(x, y) == false) {
 472              		.loc 2 43 7 is_stmt 1 view .LVU138
 473              	.LBE224:
 474              	.LBE261:
 475              	.LBE295:
 476              	.LBE324:
 477              	.LBE354:
  44:Src/Ui/canvas.h **** 			return;
 478              		.loc 2 44 3 view .LVU139
 479              	.LBB355:
 480              	.LBB325:
 481              	.LBB296:
 482              	.LBB262:
 483              	.LBB225:
 484              	.LBB191:
  13:Src/Ui/frameBuffer.h **** 		return (x >= 0 && x < kWidth) && (y >= 0 && y < kHeight);
 485              		.loc 3 13 14 view .LVU140
 486              	.LBB168:
  14:Src/Ui/frameBuffer.h **** 	}
 487              		.loc 3 14 33 is_stmt 0 view .LVU141
 488 013c FF2D     		cmp	r5, #255
 489 013e 0ED8     		bhi	.L41
 490 0140 3F2C     		cmp	r4, #63
 491 0142 0CD8     		bhi	.L41
 492              	.LVL37:
  14:Src/Ui/frameBuffer.h **** 	}
 493              		.loc 3 14 33 view .LVU142
 494              	.LBE168:
 495              	.LBE191:
ARM GAS  /var/folders/84/_x1cyy_j36g486tldtwl37280000gn/T//ccRIBvhu.s 			page 15


 496              	.LBE225:
 497              	.LBE262:
 498              	.LBE296:
 499              	.LBE325:
 500              	.LBE355:
  48:Src/Ui/canvas.h **** 		{
 501              		.loc 2 48 3 is_stmt 1 view .LVU143
  62:Src/Ui/canvas.h **** 			buffer.write(x, y, 0x0F);
 502              		.loc 2 62 3 view .LVU144
  63:Src/Ui/canvas.h **** 			break;
 503              		.loc 2 63 4 view .LVU145
 504              	.LBB356:
 505              	.LBB326:
 506              	.LBB297:
 507              	.LBB263:
 508              	.LBB226:
 509              	.LBB192:
  24:Src/Ui/frameBuffer.h **** 		int index = (x / 2) + ((kWidth / 2) * y);
 510              		.loc 3 24 14 view .LVU146
 511              	.LBB185:
  28:Src/Ui/frameBuffer.h **** 			data_[index] |= (value & 0x0F);
 512              		.loc 3 28 17 is_stmt 0 view .LVU147
 513 0144 92F800C0 		ldrb	ip, [r2]	@ zero_extendqisi2
  27:Src/Ui/frameBuffer.h **** 			data_[index] &= ~0x0F;
 514              		.loc 3 27 3 view .LVU148
 515 0148 15F0010F 		tst	r5, #1
  28:Src/Ui/frameBuffer.h **** 			data_[index] |= (value & 0x0F);
 516              		.loc 3 28 17 view .LVU149
 517 014c 16BF     		itet	ne
 518 014e 2CF00F0C 		bicne	ip, ip, #15
 519              		.loc 3 32 17 view .LVU150
 520 0152 6CF00F0C 		orneq	ip, ip, #15
  29:Src/Ui/frameBuffer.h **** 		} else {
 521              		.loc 3 29 17 view .LVU151
 522 0156 4CF00F0C 		orrne	ip, ip, #15
  29:Src/Ui/frameBuffer.h **** 		} else {
 523              		.loc 3 29 4 view .LVU152
 524 015a 82F800C0 		strb	ip, [r2]
 525              	.LVL38:
 526              	.L41:
  29:Src/Ui/frameBuffer.h **** 		} else {
 527              		.loc 3 29 4 view .LVU153
 528              	.LBE185:
 529              	.LBE192:
 530              	.LBE226:
  17:Src/Ui/canvas.cpp **** 				++ptr;
 531              		.loc 1 17 4 is_stmt 1 view .LVU154
  17:Src/Ui/canvas.cpp **** 				++ptr;
 532              		.loc 1 17 16 is_stmt 0 view .LVU155
 533 015e 0133     		adds	r3, r3, #1
  17:Src/Ui/canvas.cpp **** 				++ptr;
 534              		.loc 1 17 4 view .LVU156
 535 0160 072B     		cmp	r3, #7
  18:Src/Ui/canvas.cpp **** 				shift = 0;
 536              		.loc 1 18 5 is_stmt 1 view .LVU157
 537 0162 C4BF     		itt	gt
 538 0164 0130     		addgt	r0, r0, #1
ARM GAS  /var/folders/84/_x1cyy_j36g486tldtwl37280000gn/T//ccRIBvhu.s 			page 16


 539              	.LVL39:
 540              		.loc 1 19 5 view .LVU158
 541              		.loc 1 19 5 is_stmt 0 view .LVU159
 542              	.LBE263:
  14:Src/Ui/canvas.cpp **** 			uint8_t pixel = (*ptr >> shift) & 1;
 543              		.loc 1 14 3 is_stmt 1 view .LVU160
 544              	.LBB264:
 545              		.loc 1 19 11 is_stmt 0 view .LVU161
 546 0166 0023     		movgt	r3, #0
  15:Src/Ui/canvas.cpp **** 			draw_pixel(xi, yi, pixel ? BLACK : WHITE);
 547              		.loc 1 15 21 view .LVU162
 548 0168 90F800E0 		ldrb	lr, [r0]	@ zero_extendqisi2
  15:Src/Ui/canvas.cpp **** 			draw_pixel(xi, yi, pixel ? BLACK : WHITE);
 549              		.loc 1 15 26 view .LVU163
 550 016c 4EFA03FC 		asr	ip, lr, r3
  16:Src/Ui/canvas.cpp **** 			if (++shift >= 8) {
 551              		.loc 1 16 14 view .LVU164
 552 0170 1CF0010F 		tst	ip, #1
 553              	.LBE264:
  14:Src/Ui/canvas.cpp **** 			uint8_t pixel = (*ptr >> shift) & 1;
 554              		.loc 1 14 3 view .LVU165
 555 0174 04F1010E 		add	lr, r4, #1
  14:Src/Ui/canvas.cpp **** 			uint8_t pixel = (*ptr >> shift) & 1;
 556              		.loc 1 14 23 is_stmt 1 view .LVU166
 557              	.LBB265:
  15:Src/Ui/canvas.cpp **** 			draw_pixel(xi, yi, pixel ? BLACK : WHITE);
 558              		.loc 1 15 4 view .LVU167
 559              	.LVL40:
  16:Src/Ui/canvas.cpp **** 			if (++shift >= 8) {
 560              		.loc 1 16 4 view .LVU168
  16:Src/Ui/canvas.cpp **** 			if (++shift >= 8) {
 561              		.loc 1 16 14 is_stmt 0 view .LVU169
 562 0178 54D1     		bne	.L81
 563              	.LVL41:
 564              	.LBB227:
  43:Src/Ui/canvas.h **** 		if (buffer.inside(x, y) == false) {
 565              		.loc 2 43 7 is_stmt 1 view .LVU170
 566              	.LBE227:
 567              	.LBE265:
 568              	.LBE297:
 569              	.LBE326:
 570              	.LBE356:
  44:Src/Ui/canvas.h **** 			return;
 571              		.loc 2 44 3 view .LVU171
 572              	.LBB357:
 573              	.LBB327:
 574              	.LBB298:
 575              	.LBB266:
 576              	.LBB228:
 577              	.LBB193:
  13:Src/Ui/frameBuffer.h **** 		return (x >= 0 && x < kWidth) && (y >= 0 && y < kHeight);
 578              		.loc 3 13 14 view .LVU172
 579              	.LBB169:
  14:Src/Ui/frameBuffer.h **** 	}
 580              		.loc 3 14 33 is_stmt 0 view .LVU173
 581 017a FF2D     		cmp	r5, #255
 582 017c 0DD8     		bhi	.L48
ARM GAS  /var/folders/84/_x1cyy_j36g486tldtwl37280000gn/T//ccRIBvhu.s 			page 17


 583 017e BEF13F0F 		cmp	lr, #63
 584 0182 0AD8     		bhi	.L48
 585              	.LVL42:
  14:Src/Ui/frameBuffer.h **** 	}
 586              		.loc 3 14 33 view .LVU174
 587              	.LBE169:
 588              	.LBE193:
 589              	.LBE228:
 590              	.LBE266:
 591              	.LBE298:
 592              	.LBE327:
 593              	.LBE357:
  48:Src/Ui/canvas.h **** 		{
 594              		.loc 2 48 3 is_stmt 1 view .LVU175
  50:Src/Ui/canvas.h **** 			buffer.write(x, y, 0x00);
 595              		.loc 2 50 3 view .LVU176
  51:Src/Ui/canvas.h **** 			break;
 596              		.loc 2 51 4 view .LVU177
 597              	.LBB358:
 598              	.LBB328:
 599              	.LBB299:
 600              	.LBB267:
 601              	.LBB229:
 602              	.LBB194:
  24:Src/Ui/frameBuffer.h **** 		int index = (x / 2) + ((kWidth / 2) * y);
 603              		.loc 3 24 14 view .LVU178
 604              	.LBB157:
  28:Src/Ui/frameBuffer.h **** 			data_[index] |= (value & 0x0F);
 605              		.loc 3 28 17 is_stmt 0 view .LVU179
 606 0184 92F880C0 		ldrb	ip, [r2, #128]	@ zero_extendqisi2
  27:Src/Ui/frameBuffer.h **** 			data_[index] &= ~0x0F;
 607              		.loc 3 27 3 view .LVU180
 608 0188 15F0010F 		tst	r5, #1
  31:Src/Ui/frameBuffer.h **** 			data_[index] |= (value << 4);
 609              		.loc 3 31 17 view .LVU181
 610 018c 0CBF     		ite	eq
 611 018e 0CF00F0C 		andeq	ip, ip, #15
  28:Src/Ui/frameBuffer.h **** 			data_[index] |= (value & 0x0F);
 612              		.loc 3 28 17 view .LVU182
 613 0192 2CF00F0C 		bicne	ip, ip, #15
  29:Src/Ui/frameBuffer.h **** 		} else {
 614              		.loc 3 29 4 view .LVU183
 615 0196 82F880C0 		strb	ip, [r2, #128]
 616              	.LVL43:
 617              	.L48:
  29:Src/Ui/frameBuffer.h **** 		} else {
 618              		.loc 3 29 4 view .LVU184
 619              	.LBE157:
 620              	.LBE194:
 621              	.LBE229:
  17:Src/Ui/canvas.cpp **** 				++ptr;
 622              		.loc 1 17 4 is_stmt 1 view .LVU185
  17:Src/Ui/canvas.cpp **** 				++ptr;
 623              		.loc 1 17 16 is_stmt 0 view .LVU186
 624 019a 0133     		adds	r3, r3, #1
  17:Src/Ui/canvas.cpp **** 				++ptr;
 625              		.loc 1 17 4 view .LVU187
ARM GAS  /var/folders/84/_x1cyy_j36g486tldtwl37280000gn/T//ccRIBvhu.s 			page 18


 626 019c 072B     		cmp	r3, #7
  18:Src/Ui/canvas.cpp **** 				shift = 0;
 627              		.loc 1 18 5 is_stmt 1 view .LVU188
 628 019e C4BF     		itt	gt
 629 01a0 0130     		addgt	r0, r0, #1
 630              	.LVL44:
 631              		.loc 1 19 5 view .LVU189
 632              		.loc 1 19 5 is_stmt 0 view .LVU190
 633              	.LBE267:
  14:Src/Ui/canvas.cpp **** 			uint8_t pixel = (*ptr >> shift) & 1;
 634              		.loc 1 14 3 is_stmt 1 view .LVU191
 635              	.LBB268:
 636              		.loc 1 19 11 is_stmt 0 view .LVU192
 637 01a2 0023     		movgt	r3, #0
  15:Src/Ui/canvas.cpp **** 			draw_pixel(xi, yi, pixel ? BLACK : WHITE);
 638              		.loc 1 15 21 view .LVU193
 639 01a4 90F800C0 		ldrb	ip, [r0]	@ zero_extendqisi2
  15:Src/Ui/canvas.cpp **** 			draw_pixel(xi, yi, pixel ? BLACK : WHITE);
 640              		.loc 1 15 26 view .LVU194
 641 01a8 4CFA03FC 		asr	ip, ip, r3
  16:Src/Ui/canvas.cpp **** 			if (++shift >= 8) {
 642              		.loc 1 16 14 view .LVU195
 643 01ac 1CF0010F 		tst	ip, #1
 644              	.LBE268:
  14:Src/Ui/canvas.cpp **** 			uint8_t pixel = (*ptr >> shift) & 1;
 645              		.loc 1 14 3 view .LVU196
 646 01b0 04F1020E 		add	lr, r4, #2
  14:Src/Ui/canvas.cpp **** 			uint8_t pixel = (*ptr >> shift) & 1;
 647              		.loc 1 14 23 is_stmt 1 view .LVU197
 648              	.LBB269:
  15:Src/Ui/canvas.cpp **** 			draw_pixel(xi, yi, pixel ? BLACK : WHITE);
 649              		.loc 1 15 4 view .LVU198
 650              	.LVL45:
  16:Src/Ui/canvas.cpp **** 			if (++shift >= 8) {
 651              		.loc 1 16 4 view .LVU199
  16:Src/Ui/canvas.cpp **** 			if (++shift >= 8) {
 652              		.loc 1 16 14 is_stmt 0 view .LVU200
 653 01b4 23D1     		bne	.L84
 654              	.LVL46:
 655              	.LBB230:
  43:Src/Ui/canvas.h **** 		if (buffer.inside(x, y) == false) {
 656              		.loc 2 43 7 is_stmt 1 view .LVU201
 657              	.LBE230:
 658              	.LBE269:
 659              	.LBE299:
 660              	.LBE328:
 661              	.LBE358:
  44:Src/Ui/canvas.h **** 			return;
 662              		.loc 2 44 3 view .LVU202
 663              	.LBB359:
 664              	.LBB329:
 665              	.LBB300:
 666              	.LBB270:
 667              	.LBB231:
 668              	.LBB195:
  13:Src/Ui/frameBuffer.h **** 		return (x >= 0 && x < kWidth) && (y >= 0 && y < kHeight);
 669              		.loc 3 13 14 view .LVU203
ARM GAS  /var/folders/84/_x1cyy_j36g486tldtwl37280000gn/T//ccRIBvhu.s 			page 19


 670              	.LBB170:
  14:Src/Ui/frameBuffer.h **** 	}
 671              		.loc 3 14 33 is_stmt 0 view .LVU204
 672 01b6 FF2D     		cmp	r5, #255
 673 01b8 0DD8     		bhi	.L55
 674 01ba BEF13F0F 		cmp	lr, #63
 675 01be 0AD8     		bhi	.L55
 676              	.LVL47:
  14:Src/Ui/frameBuffer.h **** 	}
 677              		.loc 3 14 33 view .LVU205
 678              	.LBE170:
 679              	.LBE195:
 680              	.LBE231:
 681              	.LBE270:
 682              	.LBE300:
 683              	.LBE329:
 684              	.LBE359:
  48:Src/Ui/canvas.h **** 		{
 685              		.loc 2 48 3 is_stmt 1 view .LVU206
  50:Src/Ui/canvas.h **** 			buffer.write(x, y, 0x00);
 686              		.loc 2 50 3 view .LVU207
  51:Src/Ui/canvas.h **** 			break;
 687              		.loc 2 51 4 view .LVU208
 688              	.LBB360:
 689              	.LBB330:
 690              	.LBB301:
 691              	.LBB271:
 692              	.LBB232:
 693              	.LBB196:
  24:Src/Ui/frameBuffer.h **** 		int index = (x / 2) + ((kWidth / 2) * y);
 694              		.loc 3 24 14 view .LVU209
 695              	.LBB158:
  28:Src/Ui/frameBuffer.h **** 			data_[index] |= (value & 0x0F);
 696              		.loc 3 28 17 is_stmt 0 view .LVU210
 697 01c0 92F800C1 		ldrb	ip, [r2, #256]	@ zero_extendqisi2
  27:Src/Ui/frameBuffer.h **** 			data_[index] &= ~0x0F;
 698              		.loc 3 27 3 view .LVU211
 699 01c4 15F0010F 		tst	r5, #1
  31:Src/Ui/frameBuffer.h **** 			data_[index] |= (value << 4);
 700              		.loc 3 31 17 view .LVU212
 701 01c8 0CBF     		ite	eq
 702 01ca 0CF00F0C 		andeq	ip, ip, #15
  28:Src/Ui/frameBuffer.h **** 			data_[index] |= (value & 0x0F);
 703              		.loc 3 28 17 view .LVU213
 704 01ce 2CF00F0C 		bicne	ip, ip, #15
  29:Src/Ui/frameBuffer.h **** 		} else {
 705              		.loc 3 29 4 view .LVU214
 706 01d2 82F800C1 		strb	ip, [r2, #256]
 707              	.LVL48:
 708              	.L55:
  29:Src/Ui/frameBuffer.h **** 		} else {
 709              		.loc 3 29 4 view .LVU215
 710              	.LBE158:
 711              	.LBE196:
 712              	.LBE232:
  17:Src/Ui/canvas.cpp **** 				++ptr;
 713              		.loc 1 17 4 is_stmt 1 view .LVU216
ARM GAS  /var/folders/84/_x1cyy_j36g486tldtwl37280000gn/T//ccRIBvhu.s 			page 20


  17:Src/Ui/canvas.cpp **** 				++ptr;
 714              		.loc 1 17 16 is_stmt 0 view .LVU217
 715 01d6 0133     		adds	r3, r3, #1
 716              	.LVL49:
  17:Src/Ui/canvas.cpp **** 				++ptr;
 717              		.loc 1 17 4 view .LVU218
 718 01d8 072B     		cmp	r3, #7
  18:Src/Ui/canvas.cpp **** 				shift = 0;
 719              		.loc 1 18 5 is_stmt 1 view .LVU219
 720              	.LBE271:
  14:Src/Ui/canvas.cpp **** 			uint8_t pixel = (*ptr >> shift) & 1;
 721              		.loc 1 14 3 is_stmt 0 view .LVU220
 722 01da 04F10304 		add	r4, r4, #3
 723              	.LBB272:
  18:Src/Ui/canvas.cpp **** 				shift = 0;
 724              		.loc 1 18 5 view .LVU221
 725 01de C4BF     		itt	gt
 726 01e0 0130     		addgt	r0, r0, #1
 727              	.LVL50:
 728              		.loc 1 19 5 is_stmt 1 view .LVU222
 729              		.loc 1 19 11 is_stmt 0 view .LVU223
 730 01e2 0023     		movgt	r3, #0
 731              		.loc 1 19 11 view .LVU224
 732              	.LBE272:
  14:Src/Ui/canvas.cpp **** 			uint8_t pixel = (*ptr >> shift) & 1;
 733              		.loc 1 14 3 is_stmt 1 view .LVU225
  14:Src/Ui/canvas.cpp **** 			uint8_t pixel = (*ptr >> shift) & 1;
 734              		.loc 1 14 23 view .LVU226
 735 01e4 A642     		cmp	r6, r4
 736 01e6 02F5C072 		add	r2, r2, #384
 737 01ea 7FF47DAF 		bne	.L10
 738              	.L78:
  14:Src/Ui/canvas.cpp **** 			uint8_t pixel = (*ptr >> shift) & 1;
 739              		.loc 1 14 23 is_stmt 0 view .LVU227
 740              	.LBE301:
  20:Src/Ui/canvas.cpp **** 			}
  21:Src/Ui/canvas.cpp **** 		}
  22:Src/Ui/canvas.cpp **** 
  23:Src/Ui/canvas.cpp **** 		if(shift != 0) {
 741              		.loc 1 23 3 is_stmt 1 view .LVU228
 742 01ee 03B1     		cbz	r3, .L3
  24:Src/Ui/canvas.cpp **** 			++ptr;
 743              		.loc 1 24 4 view .LVU229
 744 01f0 0130     		adds	r0, r0, #1
 745              	.LVL51:
  25:Src/Ui/canvas.cpp **** 			shift = 0;
 746              		.loc 1 25 4 view .LVU230
 747              	.L3:
 748              		.loc 1 25 4 is_stmt 0 view .LVU231
 749              	.LBE330:
  13:Src/Ui/canvas.cpp **** 		for (int yi = y; yi < y2; ++yi) {
 750              		.loc 1 13 2 is_stmt 1 discriminator 2 view .LVU232
 751 01f2 0135     		adds	r5, r5, #1
 752              	.LVL52:
  13:Src/Ui/canvas.cpp **** 		for (int yi = y; yi < y2; ++yi) {
 753              		.loc 1 13 22 discriminator 2 view .LVU233
 754 01f4 A945     		cmp	r9, r5
ARM GAS  /var/folders/84/_x1cyy_j36g486tldtwl37280000gn/T//ccRIBvhu.s 			page 21


 755 01f6 7FF420AF 		bne	.L12
 756              	.L1:
  13:Src/Ui/canvas.cpp **** 		for (int yi = y; yi < y2; ++yi) {
 757              		.loc 1 13 22 is_stmt 0 discriminator 2 view .LVU234
 758              	.LBE360:
  26:Src/Ui/canvas.cpp **** 		}
  27:Src/Ui/canvas.cpp **** 	}
  28:Src/Ui/canvas.cpp **** }
 759              		.loc 1 28 1 view .LVU235
 760 01fa BDE8F883 		pop	{r3, r4, r5, r6, r7, r8, r9, pc}
 761              	.LVL53:
 762              	.L84:
 763              	.LBB361:
 764              	.LBB331:
 765              	.LBB302:
 766              	.LBB273:
 767              	.LBB233:
  43:Src/Ui/canvas.h **** 		if (buffer.inside(x, y) == false) {
 768              		.loc 2 43 7 is_stmt 1 view .LVU236
 769              	.LBE233:
 770              	.LBE273:
 771              	.LBE302:
 772              	.LBE331:
 773              	.LBE361:
  44:Src/Ui/canvas.h **** 			return;
 774              		.loc 2 44 3 view .LVU237
 775              	.LBB362:
 776              	.LBB332:
 777              	.LBB303:
 778              	.LBB274:
 779              	.LBB234:
 780              	.LBB197:
  13:Src/Ui/frameBuffer.h **** 		return (x >= 0 && x < kWidth) && (y >= 0 && y < kHeight);
 781              		.loc 3 13 14 view .LVU238
 782              	.LBB171:
  14:Src/Ui/frameBuffer.h **** 	}
 783              		.loc 3 14 33 is_stmt 0 view .LVU239
 784 01fe FF2D     		cmp	r5, #255
 785 0200 E9D8     		bhi	.L55
 786 0202 BEF13F0F 		cmp	lr, #63
 787 0206 E6D8     		bhi	.L55
 788              	.LVL54:
  14:Src/Ui/frameBuffer.h **** 	}
 789              		.loc 3 14 33 view .LVU240
 790              	.LBE171:
 791              	.LBE197:
 792              	.LBE234:
 793              	.LBE274:
 794              	.LBE303:
 795              	.LBE332:
 796              	.LBE362:
  48:Src/Ui/canvas.h **** 		{
 797              		.loc 2 48 3 is_stmt 1 view .LVU241
  62:Src/Ui/canvas.h **** 			buffer.write(x, y, 0x0F);
 798              		.loc 2 62 3 view .LVU242
  63:Src/Ui/canvas.h **** 			break;
 799              		.loc 2 63 4 view .LVU243
ARM GAS  /var/folders/84/_x1cyy_j36g486tldtwl37280000gn/T//ccRIBvhu.s 			page 22


 800              	.LBB363:
 801              	.LBB333:
 802              	.LBB304:
 803              	.LBB275:
 804              	.LBB235:
 805              	.LBB198:
  24:Src/Ui/frameBuffer.h **** 		int index = (x / 2) + ((kWidth / 2) * y);
 806              		.loc 3 24 14 view .LVU244
 807              	.LBB186:
  28:Src/Ui/frameBuffer.h **** 			data_[index] |= (value & 0x0F);
 808              		.loc 3 28 17 is_stmt 0 view .LVU245
 809 0208 92F800C1 		ldrb	ip, [r2, #256]	@ zero_extendqisi2
  27:Src/Ui/frameBuffer.h **** 			data_[index] &= ~0x0F;
 810              		.loc 3 27 3 view .LVU246
 811 020c 15F0010F 		tst	r5, #1
  28:Src/Ui/frameBuffer.h **** 			data_[index] |= (value & 0x0F);
 812              		.loc 3 28 17 view .LVU247
 813 0210 16BF     		itet	ne
 814 0212 2CF00F0C 		bicne	ip, ip, #15
 815              		.loc 3 32 17 view .LVU248
 816 0216 6CF00F0C 		orneq	ip, ip, #15
  29:Src/Ui/frameBuffer.h **** 		} else {
 817              		.loc 3 29 17 view .LVU249
 818 021a 4CF00F0C 		orrne	ip, ip, #15
  29:Src/Ui/frameBuffer.h **** 		} else {
 819              		.loc 3 29 4 view .LVU250
 820 021e 82F800C1 		strb	ip, [r2, #256]
 821              	.LVL55:
  29:Src/Ui/frameBuffer.h **** 		} else {
 822              		.loc 3 29 4 view .LVU251
 823 0222 D8E7     		b	.L55
 824              	.LVL56:
 825              	.L81:
  29:Src/Ui/frameBuffer.h **** 		} else {
 826              		.loc 3 29 4 view .LVU252
 827              	.LBE186:
 828              	.LBE198:
  43:Src/Ui/canvas.h **** 		if (buffer.inside(x, y) == false) {
 829              		.loc 2 43 7 is_stmt 1 view .LVU253
 830              	.LBE235:
 831              	.LBE275:
 832              	.LBE304:
 833              	.LBE333:
 834              	.LBE363:
  44:Src/Ui/canvas.h **** 			return;
 835              		.loc 2 44 3 view .LVU254
 836              	.LBB364:
 837              	.LBB334:
 838              	.LBB305:
 839              	.LBB276:
 840              	.LBB236:
 841              	.LBB199:
  13:Src/Ui/frameBuffer.h **** 		return (x >= 0 && x < kWidth) && (y >= 0 && y < kHeight);
 842              		.loc 3 13 14 view .LVU255
 843              	.LBB172:
  14:Src/Ui/frameBuffer.h **** 	}
 844              		.loc 3 14 33 is_stmt 0 view .LVU256
ARM GAS  /var/folders/84/_x1cyy_j36g486tldtwl37280000gn/T//ccRIBvhu.s 			page 23


 845 0224 FF2D     		cmp	r5, #255
 846 0226 B8D8     		bhi	.L48
 847 0228 BEF13F0F 		cmp	lr, #63
 848 022c B5D8     		bhi	.L48
 849              	.LVL57:
  14:Src/Ui/frameBuffer.h **** 	}
 850              		.loc 3 14 33 view .LVU257
 851              	.LBE172:
 852              	.LBE199:
 853              	.LBE236:
 854              	.LBE276:
 855              	.LBE305:
 856              	.LBE334:
 857              	.LBE364:
  48:Src/Ui/canvas.h **** 		{
 858              		.loc 2 48 3 is_stmt 1 view .LVU258
  62:Src/Ui/canvas.h **** 			buffer.write(x, y, 0x0F);
 859              		.loc 2 62 3 view .LVU259
  63:Src/Ui/canvas.h **** 			break;
 860              		.loc 2 63 4 view .LVU260
 861              	.LBB365:
 862              	.LBB335:
 863              	.LBB306:
 864              	.LBB277:
 865              	.LBB237:
 866              	.LBB200:
  24:Src/Ui/frameBuffer.h **** 		int index = (x / 2) + ((kWidth / 2) * y);
 867              		.loc 3 24 14 view .LVU261
 868              	.LBB187:
  28:Src/Ui/frameBuffer.h **** 			data_[index] |= (value & 0x0F);
 869              		.loc 3 28 17 is_stmt 0 view .LVU262
 870 022e 92F880E0 		ldrb	lr, [r2, #128]	@ zero_extendqisi2
  27:Src/Ui/frameBuffer.h **** 			data_[index] &= ~0x0F;
 871              		.loc 3 27 3 view .LVU263
 872 0232 15F0010F 		tst	r5, #1
  28:Src/Ui/frameBuffer.h **** 			data_[index] |= (value & 0x0F);
 873              		.loc 3 28 17 view .LVU264
 874 0236 16BF     		itet	ne
 875 0238 2EF00F0E 		bicne	lr, lr, #15
 876              		.loc 3 32 17 view .LVU265
 877 023c 6EF00F0E 		orneq	lr, lr, #15
  29:Src/Ui/frameBuffer.h **** 		} else {
 878              		.loc 3 29 17 view .LVU266
 879 0240 4EF00F0E 		orrne	lr, lr, #15
  29:Src/Ui/frameBuffer.h **** 		} else {
 880              		.loc 3 29 4 view .LVU267
 881 0244 82F880E0 		strb	lr, [r2, #128]
 882              	.LVL58:
  29:Src/Ui/frameBuffer.h **** 		} else {
 883              		.loc 3 29 4 view .LVU268
 884 0248 A7E7     		b	.L48
 885              	.LVL59:
 886              	.L40:
  29:Src/Ui/frameBuffer.h **** 		} else {
 887              		.loc 3 29 4 view .LVU269
 888              	.LBE187:
 889              	.LBE200:
ARM GAS  /var/folders/84/_x1cyy_j36g486tldtwl37280000gn/T//ccRIBvhu.s 			page 24


  43:Src/Ui/canvas.h **** 		if (buffer.inside(x, y) == false) {
 890              		.loc 2 43 7 is_stmt 1 view .LVU270
 891              	.LBE237:
 892              	.LBE277:
 893              	.LBE306:
 894              	.LBE335:
 895              	.LBE365:
  44:Src/Ui/canvas.h **** 			return;
 896              		.loc 2 44 3 view .LVU271
 897              	.LBB366:
 898              	.LBB336:
 899              	.LBB307:
 900              	.LBB278:
 901              	.LBB238:
 902              	.LBB201:
  13:Src/Ui/frameBuffer.h **** 		return (x >= 0 && x < kWidth) && (y >= 0 && y < kHeight);
 903              		.loc 3 13 14 view .LVU272
 904              	.LBB173:
  14:Src/Ui/frameBuffer.h **** 	}
 905              		.loc 3 14 33 is_stmt 0 view .LVU273
 906 024a FF2D     		cmp	r5, #255
 907 024c 87D8     		bhi	.L41
 908 024e 3F2C     		cmp	r4, #63
 909 0250 85D8     		bhi	.L41
 910              	.LVL60:
  14:Src/Ui/frameBuffer.h **** 	}
 911              		.loc 3 14 33 view .LVU274
 912              	.LBE173:
 913              	.LBE201:
 914              	.LBE238:
 915              	.LBE278:
 916              	.LBE307:
 917              	.LBE336:
 918              	.LBE366:
  48:Src/Ui/canvas.h **** 		{
 919              		.loc 2 48 3 is_stmt 1 view .LVU275
  50:Src/Ui/canvas.h **** 			buffer.write(x, y, 0x00);
 920              		.loc 2 50 3 view .LVU276
  51:Src/Ui/canvas.h **** 			break;
 921              		.loc 2 51 4 view .LVU277
 922              	.LBB367:
 923              	.LBB337:
 924              	.LBB308:
 925              	.LBB279:
 926              	.LBB239:
 927              	.LBB202:
  24:Src/Ui/frameBuffer.h **** 		int index = (x / 2) + ((kWidth / 2) * y);
 928              		.loc 3 24 14 view .LVU278
 929              	.LBB159:
  28:Src/Ui/frameBuffer.h **** 			data_[index] |= (value & 0x0F);
 930              		.loc 3 28 17 is_stmt 0 view .LVU279
 931 0252 92F800E0 		ldrb	lr, [r2]	@ zero_extendqisi2
  27:Src/Ui/frameBuffer.h **** 			data_[index] &= ~0x0F;
 932              		.loc 3 27 3 view .LVU280
 933 0256 15F0010F 		tst	r5, #1
  31:Src/Ui/frameBuffer.h **** 			data_[index] |= (value << 4);
 934              		.loc 3 31 17 view .LVU281
ARM GAS  /var/folders/84/_x1cyy_j36g486tldtwl37280000gn/T//ccRIBvhu.s 			page 25


 935 025a 0CBF     		ite	eq
 936 025c 0EF00F0E 		andeq	lr, lr, #15
  28:Src/Ui/frameBuffer.h **** 			data_[index] |= (value & 0x0F);
 937              		.loc 3 28 17 view .LVU282
 938 0260 2EF00F0E 		bicne	lr, lr, #15
  29:Src/Ui/frameBuffer.h **** 		} else {
 939              		.loc 3 29 4 view .LVU283
 940 0264 82F800E0 		strb	lr, [r2]
 941              	.LVL61:
  29:Src/Ui/frameBuffer.h **** 		} else {
 942              		.loc 3 29 4 view .LVU284
 943 0268 79E7     		b	.L41
 944              	.LVL62:
 945              	.L4:
  29:Src/Ui/frameBuffer.h **** 		} else {
 946              		.loc 3 29 4 view .LVU285
 947              	.LBE159:
 948              	.LBE202:
  43:Src/Ui/canvas.h **** 		if (buffer.inside(x, y) == false) {
 949              		.loc 2 43 7 is_stmt 1 view .LVU286
 950              	.LBE239:
 951              	.LBE279:
 952              	.LBE308:
 953              	.LBE337:
 954              	.LBE367:
  44:Src/Ui/canvas.h **** 			return;
 955              		.loc 2 44 3 view .LVU287
 956              	.LBB368:
 957              	.LBB338:
 958              	.LBB309:
 959              	.LBB280:
 960              	.LBB240:
 961              	.LBB203:
  13:Src/Ui/frameBuffer.h **** 		return (x >= 0 && x < kWidth) && (y >= 0 && y < kHeight);
 962              		.loc 3 13 14 view .LVU288
 963              	.LBB174:
  14:Src/Ui/frameBuffer.h **** 	}
 964              		.loc 3 14 33 is_stmt 0 view .LVU289
 965 026a FF2D     		cmp	r5, #255
 966 026c 3FF655AF 		bhi	.L5
 967 0270 3F2C     		cmp	r4, #63
 968 0272 3FF652AF 		bhi	.L5
 969              	.LVL63:
  14:Src/Ui/frameBuffer.h **** 	}
 970              		.loc 3 14 33 view .LVU290
 971              	.LBE174:
 972              	.LBE203:
 973              	.LBE240:
 974              	.LBE280:
 975              	.LBE309:
 976              	.LBE338:
 977              	.LBE368:
  48:Src/Ui/canvas.h **** 		{
 978              		.loc 2 48 3 is_stmt 1 view .LVU291
  50:Src/Ui/canvas.h **** 			buffer.write(x, y, 0x00);
 979              		.loc 2 50 3 view .LVU292
  51:Src/Ui/canvas.h **** 			break;
ARM GAS  /var/folders/84/_x1cyy_j36g486tldtwl37280000gn/T//ccRIBvhu.s 			page 26


 980              		.loc 2 51 4 view .LVU293
 981              	.LBB369:
 982              	.LBB339:
 983              	.LBB310:
 984              	.LBB281:
 985              	.LBB241:
 986              	.LBB204:
  24:Src/Ui/frameBuffer.h **** 		int index = (x / 2) + ((kWidth / 2) * y);
 987              		.loc 3 24 14 view .LVU294
 988              	.LBB160:
  28:Src/Ui/frameBuffer.h **** 			data_[index] |= (value & 0x0F);
 989              		.loc 3 28 17 is_stmt 0 view .LVU295
 990 0276 92F800E0 		ldrb	lr, [r2]	@ zero_extendqisi2
  27:Src/Ui/frameBuffer.h **** 			data_[index] &= ~0x0F;
 991              		.loc 3 27 3 view .LVU296
 992 027a 15F0010F 		tst	r5, #1
  28:Src/Ui/frameBuffer.h **** 			data_[index] |= (value & 0x0F);
 993              		.loc 3 28 17 view .LVU297
 994 027e 14BF     		ite	ne
 995 0280 2EF00F0E 		bicne	lr, lr, #15
  31:Src/Ui/frameBuffer.h **** 			data_[index] |= (value << 4);
 996              		.loc 3 31 17 view .LVU298
 997 0284 0EF00F0E 		andeq	lr, lr, #15
 998              		.loc 3 32 4 view .LVU299
 999 0288 82F800E0 		strb	lr, [r2]
 1000              	.LVL64:
 1001              		.loc 3 32 4 view .LVU300
 1002 028c 45E7     		b	.L5
 1003              	.LVL65:
 1004              	.L75:
 1005              		.loc 3 32 4 view .LVU301
 1006              	.LBE160:
 1007              	.LBE204:
  43:Src/Ui/canvas.h **** 		if (buffer.inside(x, y) == false) {
 1008              		.loc 2 43 7 is_stmt 1 view .LVU302
 1009              	.LBE241:
 1010              	.LBE281:
 1011              	.LBE310:
 1012              	.LBE339:
 1013              	.LBE369:
  44:Src/Ui/canvas.h **** 			return;
 1014              		.loc 2 44 3 view .LVU303
 1015              	.LBB370:
 1016              	.LBB340:
 1017              	.LBB311:
 1018              	.LBB282:
 1019              	.LBB242:
 1020              	.LBB205:
  13:Src/Ui/frameBuffer.h **** 		return (x >= 0 && x < kWidth) && (y >= 0 && y < kHeight);
 1021              		.loc 3 13 14 view .LVU304
 1022              	.LBB175:
  14:Src/Ui/frameBuffer.h **** 	}
 1023              		.loc 3 14 33 is_stmt 0 view .LVU305
 1024 028e FF2D     		cmp	r5, #255
 1025 0290 3FF61EAF 		bhi	.L33
 1026 0294 3F2C     		cmp	r4, #63
 1027 0296 3FF61BAF 		bhi	.L33
ARM GAS  /var/folders/84/_x1cyy_j36g486tldtwl37280000gn/T//ccRIBvhu.s 			page 27


 1028              	.LVL66:
  14:Src/Ui/frameBuffer.h **** 	}
 1029              		.loc 3 14 33 view .LVU306
 1030              	.LBE175:
 1031              	.LBE205:
 1032              	.LBE242:
 1033              	.LBE282:
 1034              	.LBE311:
 1035              	.LBE340:
 1036              	.LBE370:
  48:Src/Ui/canvas.h **** 		{
 1037              		.loc 2 48 3 is_stmt 1 view .LVU307
  62:Src/Ui/canvas.h **** 			buffer.write(x, y, 0x0F);
 1038              		.loc 2 62 3 view .LVU308
  63:Src/Ui/canvas.h **** 			break;
 1039              		.loc 2 63 4 view .LVU309
 1040              	.LBB371:
 1041              	.LBB341:
 1042              	.LBB312:
 1043              	.LBB283:
 1044              	.LBB243:
 1045              	.LBB206:
  24:Src/Ui/frameBuffer.h **** 		int index = (x / 2) + ((kWidth / 2) * y);
 1046              		.loc 3 24 14 view .LVU310
 1047              	.LBB188:
  28:Src/Ui/frameBuffer.h **** 			data_[index] |= (value & 0x0F);
 1048              		.loc 3 28 17 is_stmt 0 view .LVU311
 1049 029a 92F800C0 		ldrb	ip, [r2]	@ zero_extendqisi2
  27:Src/Ui/frameBuffer.h **** 			data_[index] &= ~0x0F;
 1050              		.loc 3 27 3 view .LVU312
 1051 029e 15F0010F 		tst	r5, #1
  28:Src/Ui/frameBuffer.h **** 			data_[index] |= (value & 0x0F);
 1052              		.loc 3 28 17 view .LVU313
 1053 02a2 16BF     		itet	ne
 1054 02a4 2CF00F0C 		bicne	ip, ip, #15
 1055              		.loc 3 32 17 view .LVU314
 1056 02a8 6CF00F0C 		orneq	ip, ip, #15
  29:Src/Ui/frameBuffer.h **** 		} else {
 1057              		.loc 3 29 17 view .LVU315
 1058 02ac 4CF00F0C 		orrne	ip, ip, #15
  29:Src/Ui/frameBuffer.h **** 		} else {
 1059              		.loc 3 29 4 view .LVU316
 1060 02b0 82F800C0 		strb	ip, [r2]
 1061              	.LVL67:
  29:Src/Ui/frameBuffer.h **** 		} else {
 1062              		.loc 3 29 4 view .LVU317
 1063 02b4 0CE7     		b	.L33
 1064              	.LVL68:
 1065              	.L72:
  29:Src/Ui/frameBuffer.h **** 		} else {
 1066              		.loc 3 29 4 view .LVU318
 1067              	.LBE188:
 1068              	.LBE206:
  43:Src/Ui/canvas.h **** 		if (buffer.inside(x, y) == false) {
 1069              		.loc 2 43 7 is_stmt 1 view .LVU319
 1070              	.LBE243:
 1071              	.LBE283:
ARM GAS  /var/folders/84/_x1cyy_j36g486tldtwl37280000gn/T//ccRIBvhu.s 			page 28


 1072              	.LBE312:
 1073              	.LBE341:
 1074              	.LBE371:
  44:Src/Ui/canvas.h **** 			return;
 1075              		.loc 2 44 3 view .LVU320
 1076              	.LBB372:
 1077              	.LBB342:
 1078              	.LBB313:
 1079              	.LBB284:
 1080              	.LBB244:
 1081              	.LBB207:
  13:Src/Ui/frameBuffer.h **** 		return (x >= 0 && x < kWidth) && (y >= 0 && y < kHeight);
 1082              		.loc 3 13 14 view .LVU321
 1083              	.LBB176:
  14:Src/Ui/frameBuffer.h **** 	}
 1084              		.loc 3 14 33 is_stmt 0 view .LVU322
 1085 02b6 FF2D     		cmp	r5, #255
 1086 02b8 3FF6ECAE 		bhi	.L25
 1087 02bc 3F2C     		cmp	r4, #63
 1088 02be 3FF6E9AE 		bhi	.L25
 1089              	.LVL69:
  14:Src/Ui/frameBuffer.h **** 	}
 1090              		.loc 3 14 33 view .LVU323
 1091              	.LBE176:
 1092              	.LBE207:
 1093              	.LBE244:
 1094              	.LBE284:
 1095              	.LBE313:
 1096              	.LBE342:
 1097              	.LBE372:
  48:Src/Ui/canvas.h **** 		{
 1098              		.loc 2 48 3 is_stmt 1 view .LVU324
  62:Src/Ui/canvas.h **** 			buffer.write(x, y, 0x0F);
 1099              		.loc 2 62 3 view .LVU325
  63:Src/Ui/canvas.h **** 			break;
 1100              		.loc 2 63 4 view .LVU326
 1101              	.LBB373:
 1102              	.LBB343:
 1103              	.LBB314:
 1104              	.LBB285:
 1105              	.LBB245:
 1106              	.LBB208:
  24:Src/Ui/frameBuffer.h **** 		int index = (x / 2) + ((kWidth / 2) * y);
 1107              		.loc 3 24 14 view .LVU327
 1108              	.LBB189:
  28:Src/Ui/frameBuffer.h **** 			data_[index] |= (value & 0x0F);
 1109              		.loc 3 28 17 is_stmt 0 view .LVU328
 1110 02c2 92F800C0 		ldrb	ip, [r2]	@ zero_extendqisi2
  27:Src/Ui/frameBuffer.h **** 			data_[index] &= ~0x0F;
 1111              		.loc 3 27 3 view .LVU329
 1112 02c6 15F0010F 		tst	r5, #1
  28:Src/Ui/frameBuffer.h **** 			data_[index] |= (value & 0x0F);
 1113              		.loc 3 28 17 view .LVU330
 1114 02ca 16BF     		itet	ne
 1115 02cc 2CF00F0C 		bicne	ip, ip, #15
 1116              		.loc 3 32 17 view .LVU331
 1117 02d0 6CF00F0C 		orneq	ip, ip, #15
ARM GAS  /var/folders/84/_x1cyy_j36g486tldtwl37280000gn/T//ccRIBvhu.s 			page 29


  29:Src/Ui/frameBuffer.h **** 		} else {
 1118              		.loc 3 29 17 view .LVU332
 1119 02d4 4CF00F0C 		orrne	ip, ip, #15
  29:Src/Ui/frameBuffer.h **** 		} else {
 1120              		.loc 3 29 4 view .LVU333
 1121 02d8 82F800C0 		strb	ip, [r2]
  29:Src/Ui/frameBuffer.h **** 		} else {
 1122              		.loc 3 29 4 view .LVU334
 1123 02dc DAE6     		b	.L25
 1124              	.LVL70:
 1125              	.L69:
  29:Src/Ui/frameBuffer.h **** 		} else {
 1126              		.loc 3 29 4 view .LVU335
 1127              	.LBE189:
 1128              	.LBE208:
  43:Src/Ui/canvas.h **** 		if (buffer.inside(x, y) == false) {
 1129              		.loc 2 43 7 is_stmt 1 view .LVU336
 1130              	.LBE245:
 1131              	.LBE285:
 1132              	.LBE314:
 1133              	.LBE343:
 1134              	.LBE373:
  44:Src/Ui/canvas.h **** 			return;
 1135              		.loc 2 44 3 view .LVU337
 1136              	.LBB374:
 1137              	.LBB344:
 1138              	.LBB315:
 1139              	.LBB286:
 1140              	.LBB246:
 1141              	.LBB209:
  13:Src/Ui/frameBuffer.h **** 		return (x >= 0 && x < kWidth) && (y >= 0 && y < kHeight);
 1142              		.loc 3 13 14 view .LVU338
 1143              	.LBB177:
  14:Src/Ui/frameBuffer.h **** 	}
 1144              		.loc 3 14 33 is_stmt 0 view .LVU339
 1145 02de FF2D     		cmp	r5, #255
 1146 02e0 3FF6C7AE 		bhi	.L17
 1147 02e4 B8F13F0F 		cmp	r8, #63
 1148 02e8 3FF6C3AE 		bhi	.L17
 1149              	.LVL71:
  14:Src/Ui/frameBuffer.h **** 	}
 1150              		.loc 3 14 33 view .LVU340
 1151              	.LBE177:
 1152              	.LBE209:
 1153              	.LBE246:
 1154              	.LBE286:
 1155              	.LBE315:
 1156              	.LBE344:
 1157              	.LBE374:
  48:Src/Ui/canvas.h **** 		{
 1158              		.loc 2 48 3 is_stmt 1 view .LVU341
  62:Src/Ui/canvas.h **** 			buffer.write(x, y, 0x0F);
 1159              		.loc 2 62 3 view .LVU342
  63:Src/Ui/canvas.h **** 			break;
 1160              		.loc 2 63 4 view .LVU343
 1161              	.LBB375:
 1162              	.LBB345:
ARM GAS  /var/folders/84/_x1cyy_j36g486tldtwl37280000gn/T//ccRIBvhu.s 			page 30


 1163              	.LBB316:
 1164              	.LBB287:
 1165              	.LBB247:
 1166              	.LBB210:
  24:Src/Ui/frameBuffer.h **** 		int index = (x / 2) + ((kWidth / 2) * y);
 1167              		.loc 3 24 14 view .LVU344
 1168              	.LBB190:
  28:Src/Ui/frameBuffer.h **** 			data_[index] |= (value & 0x0F);
 1169              		.loc 3 28 17 is_stmt 0 view .LVU345
 1170 02ec 17F80EC0 		ldrb	ip, [r7, lr]	@ zero_extendqisi2
  27:Src/Ui/frameBuffer.h **** 			data_[index] &= ~0x0F;
 1171              		.loc 3 27 3 view .LVU346
 1172 02f0 EC07     		lsls	r4, r5, #31
  28:Src/Ui/frameBuffer.h **** 			data_[index] |= (value & 0x0F);
 1173              		.loc 3 28 17 view .LVU347
 1174 02f2 4ABF     		itet	mi
 1175 02f4 2CF00F0C 		bicmi	ip, ip, #15
 1176              		.loc 3 32 17 view .LVU348
 1177 02f8 6CF00F0C 		ornpl	ip, ip, #15
  29:Src/Ui/frameBuffer.h **** 		} else {
 1178              		.loc 3 29 17 view .LVU349
 1179 02fc 4CF00F0C 		orrmi	ip, ip, #15
  29:Src/Ui/frameBuffer.h **** 		} else {
 1180              		.loc 3 29 4 view .LVU350
 1181 0300 07F80EC0 		strb	ip, [r7, lr]
 1182              	.LVL72:
  29:Src/Ui/frameBuffer.h **** 		} else {
 1183              		.loc 3 29 4 view .LVU351
 1184 0304 B5E6     		b	.L17
 1185              	.LVL73:
 1186              	.L89:
  29:Src/Ui/frameBuffer.h **** 		} else {
 1187              		.loc 3 29 4 view .LVU352
 1188              	.LBE190:
 1189              	.LBE210:
 1190              	.LBB211:
 1191              	.LBB178:
  14:Src/Ui/frameBuffer.h **** 	}
 1192              		.loc 3 14 33 view .LVU353
 1193 0306 B8F13F0F 		cmp	r8, #63
 1194 030a 3FF6B2AE 		bhi	.L17
 1195              	.LVL74:
  14:Src/Ui/frameBuffer.h **** 	}
 1196              		.loc 3 14 33 view .LVU354
 1197              	.LBE178:
 1198              	.LBE211:
 1199              	.LBE247:
 1200              	.LBE287:
 1201              	.LBE316:
 1202              	.LBE345:
 1203              	.LBE375:
  48:Src/Ui/canvas.h **** 		{
 1204              		.loc 2 48 3 is_stmt 1 view .LVU355
  50:Src/Ui/canvas.h **** 			buffer.write(x, y, 0x00);
 1205              		.loc 2 50 3 view .LVU356
  51:Src/Ui/canvas.h **** 			break;
 1206              		.loc 2 51 4 view .LVU357
ARM GAS  /var/folders/84/_x1cyy_j36g486tldtwl37280000gn/T//ccRIBvhu.s 			page 31


 1207              	.LBB376:
 1208              	.LBB346:
 1209              	.LBB317:
 1210              	.LBB288:
 1211              	.LBB248:
 1212              	.LBB212:
  24:Src/Ui/frameBuffer.h **** 		int index = (x / 2) + ((kWidth / 2) * y);
 1213              		.loc 3 24 14 view .LVU358
 1214              	.LBB161:
  28:Src/Ui/frameBuffer.h **** 			data_[index] |= (value & 0x0F);
 1215              		.loc 3 28 17 is_stmt 0 view .LVU359
 1216 030e 17F80E30 		ldrb	r3, [r7, lr]	@ zero_extendqisi2
  27:Src/Ui/frameBuffer.h **** 			data_[index] &= ~0x0F;
 1217              		.loc 3 27 3 view .LVU360
 1218 0312 EC07     		lsls	r4, r5, #31
  31:Src/Ui/frameBuffer.h **** 			data_[index] |= (value << 4);
 1219              		.loc 3 31 17 view .LVU361
 1220 0314 54BF     		ite	pl
 1221 0316 03F00F03 		andpl	r3, r3, #15
  28:Src/Ui/frameBuffer.h **** 			data_[index] |= (value & 0x0F);
 1222              		.loc 3 28 17 view .LVU362
 1223 031a 23F00F03 		bicmi	r3, r3, #15
  29:Src/Ui/frameBuffer.h **** 		} else {
 1224              		.loc 3 29 4 view .LVU363
 1225 031e 07F80E30 		strb	r3, [r7, lr]
 1226              	.LVL75:
  29:Src/Ui/frameBuffer.h **** 		} else {
 1227              		.loc 3 29 4 view .LVU364
 1228 0322 A6E6     		b	.L17
 1229              	.LVL76:
 1230              	.L90:
  29:Src/Ui/frameBuffer.h **** 		} else {
 1231              		.loc 3 29 4 view .LVU365
 1232              	.LBE161:
 1233              	.LBE212:
 1234              	.LBE248:
 1235              	.LBE288:
 1236              	.LBE317:
 1237              	.LBE346:
 1238              	.LBE376:
  48:Src/Ui/canvas.h **** 		{
 1239              		.loc 2 48 3 is_stmt 1 view .LVU366
  50:Src/Ui/canvas.h **** 			buffer.write(x, y, 0x00);
 1240              		.loc 2 50 3 view .LVU367
  51:Src/Ui/canvas.h **** 			break;
 1241              		.loc 2 51 4 view .LVU368
 1242              	.LBB377:
 1243              	.LBB347:
 1244              	.LBB318:
 1245              	.LBB289:
 1246              	.LBB249:
 1247              	.LBB213:
  24:Src/Ui/frameBuffer.h **** 		int index = (x / 2) + ((kWidth / 2) * y);
 1248              		.loc 3 24 14 view .LVU369
 1249              	.LBB162:
  28:Src/Ui/frameBuffer.h **** 			data_[index] |= (value & 0x0F);
 1250              		.loc 3 28 17 is_stmt 0 view .LVU370
ARM GAS  /var/folders/84/_x1cyy_j36g486tldtwl37280000gn/T//ccRIBvhu.s 			page 32


 1251 0324 92F800C0 		ldrb	ip, [r2]	@ zero_extendqisi2
  27:Src/Ui/frameBuffer.h **** 			data_[index] &= ~0x0F;
 1252              		.loc 3 27 3 view .LVU371
 1253 0328 15F0010F 		tst	r5, #1
  31:Src/Ui/frameBuffer.h **** 			data_[index] |= (value << 4);
 1254              		.loc 3 31 17 view .LVU372
 1255 032c 0CBF     		ite	eq
 1256 032e 0CF00F0C 		andeq	ip, ip, #15
  28:Src/Ui/frameBuffer.h **** 			data_[index] |= (value & 0x0F);
 1257              		.loc 3 28 17 view .LVU373
 1258 0332 2CF00F0C 		bicne	ip, ip, #15
  29:Src/Ui/frameBuffer.h **** 		} else {
 1259              		.loc 3 29 4 view .LVU374
 1260 0336 82F800C0 		strb	ip, [r2]
  29:Src/Ui/frameBuffer.h **** 		} else {
 1261              		.loc 3 29 4 view .LVU375
 1262 033a ABE6     		b	.L25
 1263              	.L92:
 1264              		.align	2
 1265              	.L91:
 1266 033c 00000000 		.word	bitmap
 1267              	.LBE162:
 1268              	.LBE213:
 1269              	.LBE249:
 1270              	.LBE289:
 1271              	.LBE318:
 1272              	.LBE347:
 1273              	.LBE377:
 1274              		.cfi_endproc
 1275              	.LFE2017:
 1277              		.section	.text._ZN6Canvas9draw_charEiic,"ax",%progbits
 1278              		.align	1
 1279              		.p2align 2,,3
 1280              		.global	_ZN6Canvas9draw_charEiic
 1281              		.syntax unified
 1282              		.thumb
 1283              		.thumb_func
 1284              		.fpu fpv4-sp-d16
 1286              	_ZN6Canvas9draw_charEiic:
 1287              	.LVL77:
 1288              	.LFB2018:
  29:Src/Ui/canvas.cpp **** 
  30:Src/Ui/canvas.cpp **** void Canvas::draw_char(int x, int y, char c) {
 1289              		.loc 1 30 46 is_stmt 1 view -0
 1290              		.cfi_startproc
 1291              		@ args = 0, pretend = 0, frame = 0
 1292              		@ frame_needed = 0, uses_anonymous_args = 0
 1293              		.loc 1 30 46 is_stmt 0 view .LVU377
 1294 0000 2DE9F047 		push	{r4, r5, r6, r7, r8, r9, r10, lr}
 1295              		.cfi_def_cfa_offset 32
 1296              		.cfi_offset 4, -32
 1297              		.cfi_offset 5, -28
 1298              		.cfi_offset 6, -24
 1299              		.cfi_offset 7, -20
 1300              		.cfi_offset 8, -16
 1301              		.cfi_offset 9, -12
 1302              		.cfi_offset 10, -8
ARM GAS  /var/folders/84/_x1cyy_j36g486tldtwl37280000gn/T//ccRIBvhu.s 			page 33


 1303              		.cfi_offset 14, -4
 1304              	.LBB439:
 1305              	.LBB440:
 1306              	.LBB441:
 1307              	.LBB442:
 1308              		.file 4 "lookupTables/font.h"
   1:lookupTables/font.h **** #ifndef font_h
   2:lookupTables/font.h **** #define font_h
   3:lookupTables/font.h **** 
   4:lookupTables/font.h **** #include "stmf4lib.h"
   5:lookupTables/font.h **** 
   6:lookupTables/font.h **** class Font {
   7:lookupTables/font.h **** 
   8:lookupTables/font.h **** public:
   9:lookupTables/font.h **** 
  10:lookupTables/font.h **** 	enum Type {
  11:lookupTables/font.h **** 		SMALL,
  12:lookupTables/font.h **** 		LARGE,
  13:lookupTables/font.h **** 	};
  14:lookupTables/font.h **** 
  15:lookupTables/font.h **** 	enum GlyphId {
  16:lookupTables/font.h **** 		LOCK = 0x80,
  17:lookupTables/font.h **** 		FILE,
  18:lookupTables/font.h **** 		NOTE,
  19:lookupTables/font.h **** 		ARROW_LEFT,
  20:lookupTables/font.h **** 		ARROW_RIGHT,
  21:lookupTables/font.h **** 		SWITCH_OFF,
  22:lookupTables/font.h **** 		SWITCH_ON,
  23:lookupTables/font.h **** 		CHECKMARK,
  24:lookupTables/font.h **** 		CROSS,
  25:lookupTables/font.h **** 		PLAY,
  26:lookupTables/font.h **** 		METRONOME,
  27:lookupTables/font.h **** 		PAUSE,
  28:lookupTables/font.h **** 		STOP,
  29:lookupTables/font.h **** 		FILLED_CIRCLE,
  30:lookupTables/font.h **** 		CIRCLE,
  31:lookupTables/font.h **** 		SINEWAVE,
  32:lookupTables/font.h **** 		LABEL,
  33:lookupTables/font.h **** 		SD_OK,
  34:lookupTables/font.h **** 		NO_SD,
  35:lookupTables/font.h **** 		ERROR,
  36:lookupTables/font.h **** 
  37:lookupTables/font.h **** 		NUM_OF_GLYPHS
  38:lookupTables/font.h **** 	};
  39:lookupTables/font.h **** 
  40:lookupTables/font.h **** 	void set_type(Type);
  41:lookupTables/font.h **** 
  42:lookupTables/font.h **** 	uint16_t height() {
  43:lookupTables/font.h **** 		return height_;
  44:lookupTables/font.h **** 	}
  45:lookupTables/font.h **** 
  46:lookupTables/font.h **** 	uint16_t width(char c) {
  47:lookupTables/font.h **** 		if (c >= first_char_ && c <= last_char_) {
  48:lookupTables/font.h **** 			int width = *table_ptr(c);
  49:lookupTables/font.h **** 			return width + 1;
  50:lookupTables/font.h **** 		}
  51:lookupTables/font.h **** 		return 0;
ARM GAS  /var/folders/84/_x1cyy_j36g486tldtwl37280000gn/T//ccRIBvhu.s 			page 34


  52:lookupTables/font.h **** 	}
  53:lookupTables/font.h **** 
  54:lookupTables/font.h **** 	uint16_t string_width(const char* str) {
  55:lookupTables/font.h **** 		uint16_t w = 0;
  56:lookupTables/font.h **** 		while (*str != '\0') {
  57:lookupTables/font.h **** 			w += width(*str++);
  58:lookupTables/font.h **** 		}
  59:lookupTables/font.h **** 		return w;
  60:lookupTables/font.h **** 	}
  61:lookupTables/font.h **** 
  62:lookupTables/font.h **** 	const uint8_t* data(char c) {
  63:lookupTables/font.h **** 		return table_ptr(c) + 1;
  64:lookupTables/font.h **** 	}
  65:lookupTables/font.h **** 
  66:lookupTables/font.h **** 	const char* glyph(GlyphId id) {
  67:lookupTables/font.h **** 		glyph_to_char_ = static_cast<const char>(id);
  68:lookupTables/font.h **** 		return const_cast<const char*>(&glyph_to_char_);
  69:lookupTables/font.h **** 	}
  70:lookupTables/font.h **** 
  71:lookupTables/font.h **** private:
  72:lookupTables/font.h **** 	char first_char_;
  73:lookupTables/font.h **** 	char last_char_;
  74:lookupTables/font.h **** 	char glyph_to_char_;
  75:lookupTables/font.h **** 	uint16_t height_;
  76:lookupTables/font.h **** 	uint16_t table_width_;
  77:lookupTables/font.h **** 	const uint8_t *data_;
  78:lookupTables/font.h **** 
  79:lookupTables/font.h **** 	const uint8_t* table_ptr(char c) {
  80:lookupTables/font.h **** 		int table_index = c - first_char_;
 1309              		.loc 4 80 25 view .LVU378
 1310 0004 8E4D     		ldr	r5, .L127
 1311 0006 2E78     		ldrb	r6, [r5]	@ zero_extendqisi2
  81:lookupTables/font.h **** 		return &data_[table_index * table_width_];
 1312              		.loc 4 81 31 view .LVU379
 1313 0008 EF88     		ldrh	r7, [r5, #6]
 1314              		.loc 4 81 11 view .LVU380
 1315 000a D5F808C0 		ldr	ip, [r5, #8]
  80:lookupTables/font.h **** 		return &data_[table_index * table_width_];
 1316              		.loc 4 80 7 view .LVU381
 1317 000e 9C1B     		subs	r4, r3, r6
 1318              		.loc 4 81 29 view .LVU382
 1319 0010 07FB04F4 		mul	r4, r7, r4
 1320              	.LBE442:
 1321              	.LBE441:
  63:lookupTables/font.h **** 	}
 1322              		.loc 4 63 25 view .LVU383
 1323 0014 671C     		adds	r7, r4, #1
 1324              	.LBE440:
 1325              	.LBE439:
  31:Src/Ui/canvas.cpp **** 	const uint8_t* ptr = font.data(c);
 1326              		.loc 1 31 2 is_stmt 1 view .LVU384
 1327              	.LVL78:
 1328              	.LBB447:
 1329              	.LBI439:
  62:lookupTables/font.h **** 		return table_ptr(c) + 1;
 1330              		.loc 4 62 17 view .LVU385
 1331              	.LBB445:
ARM GAS  /var/folders/84/_x1cyy_j36g486tldtwl37280000gn/T//ccRIBvhu.s 			page 35


  63:lookupTables/font.h **** 	}
 1332              		.loc 4 63 3 view .LVU386
 1333              	.LBB444:
 1334              	.LBI441:
  79:lookupTables/font.h **** 		int table_index = c - first_char_;
 1335              		.loc 4 79 17 view .LVU387
 1336              	.LBB443:
  80:lookupTables/font.h **** 		return &data_[table_index * table_width_];
 1337              		.loc 4 80 3 view .LVU388
 1338              		.loc 4 81 3 view .LVU389
 1339              		.loc 4 81 3 is_stmt 0 view .LVU390
 1340              	.LBE443:
 1341              	.LBE444:
 1342              	.LBE445:
 1343              	.LBE447:
 1344              	.LBB448:
 1345              	.LBB449:
  47:lookupTables/font.h **** 			int width = *table_ptr(c);
 1346              		.loc 4 47 3 view .LVU391
 1347 0016 B342     		cmp	r3, r6
 1348              	.LBE449:
 1349              	.LBE448:
 1350              	.LBB457:
 1351              	.LBB446:
  63:lookupTables/font.h **** 	}
 1352              		.loc 4 63 25 view .LVU392
 1353 0018 6744     		add	r7, r7, ip
 1354              	.LVL79:
  63:lookupTables/font.h **** 	}
 1355              		.loc 4 63 25 view .LVU393
 1356              	.LBE446:
 1357              	.LBE457:
  32:Src/Ui/canvas.cpp **** 	int char_width = font.width(c);
 1358              		.loc 1 32 2 is_stmt 1 view .LVU394
 1359              	.LBB458:
 1360              	.LBI448:
  46:lookupTables/font.h **** 		if (c >= first_char_ && c <= last_char_) {
 1361              		.loc 4 46 11 view .LVU395
 1362              	.LBE458:
  47:lookupTables/font.h **** 			int width = *table_ptr(c);
 1363              		.loc 4 47 3 view .LVU396
 1364              	.LBB459:
 1365              	.LBB454:
 1366 001a 04D2     		bcs	.L126
 1367              	.L94:
 1368              	.LVL80:
  47:lookupTables/font.h **** 			int width = *table_ptr(c);
 1369              		.loc 4 47 3 is_stmt 0 view .LVU397
 1370              	.LBE454:
 1371              	.LBE459:
  33:Src/Ui/canvas.cpp **** 	text_cursor_ = x;
 1372              		.loc 1 33 2 is_stmt 1 view .LVU398
 1373              		.loc 1 33 15 is_stmt 0 view .LVU399
 1374 001c 00F50050 		add	r0, r0, #8192
 1375              	.LVL81:
 1376              		.loc 1 33 15 view .LVU400
 1377 0020 0160     		str	r1, [r0]
ARM GAS  /var/folders/84/_x1cyy_j36g486tldtwl37280000gn/T//ccRIBvhu.s 			page 36


  34:Src/Ui/canvas.cpp **** 
  35:Src/Ui/canvas.cpp **** 	for (int i = 0; i < char_width; ++i) {
 1378              		.loc 1 35 2 is_stmt 1 view .LVU401
 1379              	.LVL82:
 1380              	.LBB460:
 1381              		.loc 1 35 20 view .LVU402
 1382              	.LBE460:
  36:Src/Ui/canvas.cpp **** 		uint8_t data = *ptr++;
  37:Src/Ui/canvas.cpp **** 		for (int pixel = 0; pixel < font.height(); ++pixel) {
  38:Src/Ui/canvas.cpp **** 			if (data & (1 << pixel)) {
  39:Src/Ui/canvas.cpp **** 				draw_pixel(text_cursor_, y + pixel, font_color);
  40:Src/Ui/canvas.cpp **** 			}
  41:Src/Ui/canvas.cpp **** 		}
  42:Src/Ui/canvas.cpp **** 		++text_cursor_;
  43:Src/Ui/canvas.cpp **** 	}
  44:Src/Ui/canvas.cpp **** }
 1383              		.loc 1 44 1 is_stmt 0 view .LVU403
 1384 0022 BDE8F087 		pop	{r4, r5, r6, r7, r8, r9, r10, pc}
 1385              	.LVL83:
 1386              	.L126:
 1387              	.LBB532:
 1388              	.LBB455:
  47:lookupTables/font.h **** 			int width = *table_ptr(c);
 1389              		.loc 4 47 24 view .LVU404
 1390 0026 95F80180 		ldrb	r8, [r5, #1]	@ zero_extendqisi2
 1391 002a 9845     		cmp	r8, r3
 1392 002c F6D3     		bcc	.L94
 1393              	.LBB450:
  48:lookupTables/font.h **** 			return width + 1;
 1394              		.loc 4 48 4 is_stmt 1 view .LVU405
 1395              	.LVL84:
 1396              	.LBB451:
 1397              	.LBI451:
  79:lookupTables/font.h **** 		int table_index = c - first_char_;
 1398              		.loc 4 79 17 view .LVU406
 1399              	.LBB452:
  80:lookupTables/font.h **** 		return &data_[table_index * table_width_];
 1400              		.loc 4 80 3 view .LVU407
 1401              		.loc 4 81 3 view .LVU408
 1402              		.loc 4 81 3 is_stmt 0 view .LVU409
 1403              	.LBE452:
 1404              	.LBE451:
  49:lookupTables/font.h **** 		}
 1405              		.loc 4 49 4 is_stmt 1 view .LVU410
  49:lookupTables/font.h **** 		}
 1406              		.loc 4 49 17 is_stmt 0 view .LVU411
 1407 002e 1CF804E0 		ldrb	lr, [ip, r4]	@ zero_extendqisi2
 1408              	.LVL85:
  49:lookupTables/font.h **** 		}
 1409              		.loc 4 49 17 view .LVU412
 1410              	.LBE450:
 1411              	.LBE455:
 1412              	.LBE532:
  33:Src/Ui/canvas.cpp **** 
 1413              		.loc 1 33 15 view .LVU413
 1414 0032 00F5005C 		add	ip, r0, #8192
 1415              	.LBB533:
ARM GAS  /var/folders/84/_x1cyy_j36g486tldtwl37280000gn/T//ccRIBvhu.s 			page 37


 1416              	.LBB456:
 1417              	.LBB453:
  49:lookupTables/font.h **** 		}
 1418              		.loc 4 49 19 view .LVU414
 1419 0036 0EF1010E 		add	lr, lr, #1
 1420              	.LVL86:
  49:lookupTables/font.h **** 		}
 1421              		.loc 4 49 19 view .LVU415
 1422              	.LBE453:
 1423              	.LBE456:
 1424              	.LBE533:
  33:Src/Ui/canvas.cpp **** 
 1425              		.loc 1 33 2 is_stmt 1 view .LVU416
 1426 003a BE44     		add	lr, lr, r7
 1427              	.LVL87:
  33:Src/Ui/canvas.cpp **** 
 1428              		.loc 1 33 15 is_stmt 0 view .LVU417
 1429 003c CCF80010 		str	r1, [ip]
 1430              	.LVL88:
  35:Src/Ui/canvas.cpp **** 		uint8_t data = *ptr++;
 1431              		.loc 1 35 2 is_stmt 1 view .LVU418
 1432              	.LBB534:
  35:Src/Ui/canvas.cpp **** 		uint8_t data = *ptr++;
 1433              		.loc 1 35 20 view .LVU419
 1434 0040 4FEAC218 		lsl	r8, r2, #7
 1435              	.LVL89:
 1436              	.L115:
 1437              	.LBB461:
  36:Src/Ui/canvas.cpp **** 		for (int pixel = 0; pixel < font.height(); ++pixel) {
 1438              		.loc 1 36 3 view .LVU420
 1439              	.LBB462:
  37:Src/Ui/canvas.cpp **** 			if (data & (1 << pixel)) {
 1440              		.loc 1 37 29 is_stmt 0 view .LVU421
 1441 0044 AB88     		ldrh	r3, [r5, #4]
 1442              	.LBE462:
  36:Src/Ui/canvas.cpp **** 		for (int pixel = 0; pixel < font.height(); ++pixel) {
 1443              		.loc 1 36 22 view .LVU422
 1444 0046 17F8016B 		ldrb	r6, [r7], #1	@ zero_extendqisi2
 1445              	.LVL90:
  37:Src/Ui/canvas.cpp **** 			if (data & (1 << pixel)) {
 1446              		.loc 1 37 3 is_stmt 1 view .LVU423
 1447              	.LBB518:
  37:Src/Ui/canvas.cpp **** 			if (data & (1 << pixel)) {
 1448              		.loc 1 37 29 view .LVU424
  37:Src/Ui/canvas.cpp **** 			if (data & (1 << pixel)) {
 1449              		.loc 1 37 29 is_stmt 0 view .LVU425
 1450              	.LBE518:
 1451              	.LBE461:
 1452              	.LBE534:
  43:lookupTables/font.h **** 	}
 1453              		.loc 4 43 3 is_stmt 1 view .LVU426
 1454              	.LBB535:
 1455              	.LBB525:
 1456              	.LBB519:
  37:Src/Ui/canvas.cpp **** 			if (data & (1 << pixel)) {
 1457              		.loc 1 37 29 is_stmt 0 view .LVU427
 1458 004a 002B     		cmp	r3, #0
ARM GAS  /var/folders/84/_x1cyy_j36g486tldtwl37280000gn/T//ccRIBvhu.s 			page 38


 1459 004c 3AD0     		beq	.L95
  37:Src/Ui/canvas.cpp **** 			if (data & (1 << pixel)) {
 1460              		.loc 1 37 12 view .LVU428
 1461 004e 0023     		movs	r3, #0
 1462 0050 04E0     		b	.L114
 1463              	.LVL91:
 1464              	.L96:
  37:Src/Ui/canvas.cpp **** 			if (data & (1 << pixel)) {
 1465              		.loc 1 37 3 is_stmt 1 discriminator 2 view .LVU429
  37:Src/Ui/canvas.cpp **** 			if (data & (1 << pixel)) {
 1466              		.loc 1 37 42 is_stmt 0 discriminator 2 view .LVU430
 1467 0052 B5F804A0 		ldrh	r10, [r5, #4]
  37:Src/Ui/canvas.cpp **** 			if (data & (1 << pixel)) {
 1468              		.loc 1 37 3 discriminator 2 view .LVU431
 1469 0056 0133     		adds	r3, r3, #1
 1470              	.LVL92:
  37:Src/Ui/canvas.cpp **** 			if (data & (1 << pixel)) {
 1471              		.loc 1 37 29 is_stmt 1 discriminator 2 view .LVU432
  37:Src/Ui/canvas.cpp **** 			if (data & (1 << pixel)) {
 1472              		.loc 1 37 29 is_stmt 0 discriminator 2 view .LVU433
 1473              	.LBE519:
 1474              	.LBE525:
 1475              	.LBE535:
  43:lookupTables/font.h **** 	}
 1476              		.loc 4 43 3 is_stmt 1 discriminator 2 view .LVU434
 1477              	.LBB536:
 1478              	.LBB526:
 1479              	.LBB520:
  37:Src/Ui/canvas.cpp **** 			if (data & (1 << pixel)) {
 1480              		.loc 1 37 29 is_stmt 0 discriminator 2 view .LVU435
 1481 0058 9A45     		cmp	r10, r3
 1482 005a 33DD     		ble	.L95
 1483              	.LVL93:
 1484              	.L114:
  38:Src/Ui/canvas.cpp **** 				draw_pixel(text_cursor_, y + pixel, font_color);
 1485              		.loc 1 38 4 is_stmt 1 view .LVU436
  38:Src/Ui/canvas.cpp **** 				draw_pixel(text_cursor_, y + pixel, font_color);
 1486              		.loc 1 38 27 is_stmt 0 view .LVU437
 1487 005c 46FA03F9 		asr	r9, r6, r3
  38:Src/Ui/canvas.cpp **** 				draw_pixel(text_cursor_, y + pixel, font_color);
 1488              		.loc 1 38 4 view .LVU438
 1489 0060 5FEAC974 		lsls	r4, r9, #31
 1490 0064 F5D5     		bpl	.L96
  39:Src/Ui/canvas.cpp **** 			}
 1491              		.loc 1 39 5 is_stmt 1 view .LVU439
 1492              	.LVL94:
 1493              	.LBB463:
 1494              	.LBI463:
  43:Src/Ui/canvas.h **** 		if (buffer.inside(x, y) == false) {
 1495              		.loc 2 43 7 view .LVU440
 1496              	.LBB464:
  44:Src/Ui/canvas.h **** 			return;
 1497              		.loc 2 44 3 view .LVU441
 1498              	.LBB465:
 1499              	.LBI465:
  13:Src/Ui/frameBuffer.h **** 		return (x >= 0 && x < kWidth) && (y >= 0 && y < kHeight);
 1500              		.loc 3 13 14 view .LVU442
ARM GAS  /var/folders/84/_x1cyy_j36g486tldtwl37280000gn/T//ccRIBvhu.s 			page 39


 1501              	.LBB466:
  14:Src/Ui/frameBuffer.h **** 	}
 1502              		.loc 3 14 33 is_stmt 0 view .LVU443
 1503 0066 FF29     		cmp	r1, #255
 1504 0068 F3D8     		bhi	.L96
 1505 006a 9C18     		adds	r4, r3, r2
 1506 006c 3F2C     		cmp	r4, #63
 1507 006e F0D8     		bhi	.L96
 1508              	.LVL95:
  14:Src/Ui/frameBuffer.h **** 	}
 1509              		.loc 3 14 33 view .LVU444
 1510              	.LBE466:
 1511              	.LBE465:
  48:Src/Ui/canvas.h **** 		{
 1512              		.loc 2 48 3 is_stmt 1 view .LVU445
 1513              	.LBE464:
 1514              	.LBE463:
  39:Src/Ui/canvas.cpp **** 			}
 1515              		.loc 1 39 15 is_stmt 0 view .LVU446
 1516 0070 42F2040A 		movw	r10, #8196
 1517 0074 10F80A40 		ldrb	r4, [r0, r10]	@ zero_extendqisi2
 1518 0078 072C     		cmp	r4, #7
 1519 007a EAD8     		bhi	.L96
 1520 007c DFE804F0 		tbb	[pc, r4]
 1521              	.L98:
 1522 0080 8F       		.byte	(.L105-.L98)/2
 1523 0081 A1       		.byte	(.L104-.L98)/2
 1524 0082 40       		.byte	(.L103-.L98)/2
 1525 0083 6A       		.byte	(.L102-.L98)/2
 1526 0084 56       		.byte	(.L101-.L98)/2
 1527 0085 80       		.byte	(.L100-.L98)/2
 1528 0086 29       		.byte	(.L99-.L98)/2
 1529 0087 04       		.byte	(.L97-.L98)/2
 1530              		.p2align 1
 1531              	.L97:
 1532              	.LVL96:
 1533              	.LBB514:
 1534              	.LBB510:
 1535              	.LBB467:
 1536              	.LBI467:
  43:Src/Ui/canvas.h **** 		if (buffer.inside(x, y) == false) {
 1537              		.loc 2 43 7 is_stmt 1 view .LVU447
 1538              	.LBB468:
  71:Src/Ui/canvas.h **** 			buffer.write(x, y, stmlib::clip_max(0xF, buffer.read(x, y) * 3));
 1539              		.loc 2 71 3 view .LVU448
  72:Src/Ui/canvas.h **** 			break;
 1540              		.loc 2 72 4 view .LVU449
 1541              	.LBB469:
 1542              	.LBI469:
  33:Src/Ui/frameBuffer.h **** 		}
  34:Src/Ui/frameBuffer.h **** 	}
  35:Src/Ui/frameBuffer.h **** 
  36:Src/Ui/frameBuffer.h **** 	inline uint8_t read(int x, int y) {
 1543              		.loc 3 36 17 view .LVU450
 1544              	.LBB470:
  37:Src/Ui/frameBuffer.h **** 		int index = (x / 2) + ((kWidth / 2) * y);
 1545              		.loc 3 37 7 is_stmt 0 view .LVU451
ARM GAS  /var/folders/84/_x1cyy_j36g486tldtwl37280000gn/T//ccRIBvhu.s 			page 40


 1546 0088 08EBC319 		add	r9, r8, r3, lsl #7
 1547 008c 09EB610A 		add	r10, r9, r1, asr #1
 1548              	.LVL97:
  38:Src/Ui/frameBuffer.h **** 
  39:Src/Ui/frameBuffer.h **** 		if (x & 1) {
 1549              		.loc 3 39 3 view .LVU452
 1550 0090 11F0010F 		tst	r1, #1
  40:Src/Ui/frameBuffer.h **** 			return data_[index] & 0x0F;
 1551              		.loc 3 40 16 view .LVU453
 1552 0094 10F80A10 		ldrb	r1, [r0, r10]	@ zero_extendqisi2
  39:Src/Ui/frameBuffer.h **** 			return data_[index] & 0x0F;
 1553              		.loc 3 39 3 view .LVU454
 1554 0098 00F0B580 		beq	.L113
 1555              	.LVL98:
  39:Src/Ui/frameBuffer.h **** 			return data_[index] & 0x0F;
 1556              		.loc 3 39 3 view .LVU455
 1557              	.LBE470:
 1558              	.LBE469:
 1559              	.LBE468:
 1560              	.LBE467:
 1561              	.LBE510:
 1562              	.LBE514:
 1563              	.LBE520:
 1564              	.LBE526:
 1565              	.LBE536:
 1566              		.file 5 "stm32/stmf4lib.h"
   1:stm32/stmf4lib.h **** #ifndef STM32F4Lib_h
   2:stm32/stmf4lib.h **** #define STM32F4Lib_h
   3:stm32/stmf4lib.h **** 
   4:stm32/stmf4lib.h **** #include "stm32f4xx.h"
   5:stm32/stmf4lib.h **** #include <functional>
   6:stm32/stmf4lib.h **** #include <stdlib.h>
   7:stm32/stmf4lib.h **** #include <stdint.h>
   8:stm32/stmf4lib.h **** #include <limits>
   9:stm32/stmf4lib.h **** #include <cstring>
  10:stm32/stmf4lib.h **** #include <cmath>
  11:stm32/stmf4lib.h **** 
  12:stm32/stmf4lib.h **** //#include <assert.h>
  13:stm32/stmf4lib.h **** //#include <algorithm>
  14:stm32/stmf4lib.h **** 
  15:stm32/stmf4lib.h **** #define CCM_RAM __attribute__((section(".ccmram")))
  16:stm32/stmf4lib.h **** #define FORCE_INLINE __attribute__((always_inline))
  17:stm32/stmf4lib.h **** 
  18:stm32/stmf4lib.h **** class stmlib {
  19:stm32/stmf4lib.h **** 
  20:stm32/stmf4lib.h **** public:
  21:stm32/stmf4lib.h **** 
  22:stm32/stmf4lib.h **** 	static inline int clip_min(int min, int value) {
  23:stm32/stmf4lib.h **** 		return value > min ? value : min;
  24:stm32/stmf4lib.h **** 	}
  25:stm32/stmf4lib.h **** 
  26:stm32/stmf4lib.h **** 	static inline int clip_max(int max, int value) {
  27:stm32/stmf4lib.h **** 		return value < max ? value : max;
 1567              		.loc 5 27 3 is_stmt 1 view .LVU456
 1568              	.LBB537:
 1569              	.LBB527:
 1570              	.LBB521:
ARM GAS  /var/folders/84/_x1cyy_j36g486tldtwl37280000gn/T//ccRIBvhu.s 			page 41


 1571              	.LBB515:
 1572              	.LBB511:
 1573              	.LBB479:
 1574              	.LBB477:
 1575              	.LBB471:
 1576              	.LBI471:
  24:Src/Ui/frameBuffer.h **** 		int index = (x / 2) + ((kWidth / 2) * y);
 1577              		.loc 3 24 14 view .LVU457
  24:Src/Ui/frameBuffer.h **** 		int index = (x / 2) + ((kWidth / 2) * y);
 1578              		.loc 3 24 14 is_stmt 0 view .LVU458
 1579              	.LBE471:
  72:Src/Ui/canvas.h **** 			break;
 1580              		.loc 2 72 39 view .LVU459
 1581 009c 01F00F04 		and	r4, r1, #15
 1582 00a0 04EB4404 		add	r4, r4, r4, lsl #1
 1583              	.LBB474:
 1584              	.LBB472:
  28:Src/Ui/frameBuffer.h **** 			data_[index] |= (value & 0x0F);
 1585              		.loc 3 28 17 view .LVU460
 1586 00a4 21F00F01 		bic	r1, r1, #15
 1587              	.LVL99:
  29:Src/Ui/frameBuffer.h **** 		} else {
 1588              		.loc 3 29 17 view .LVU461
 1589 00a8 0F2C     		cmp	r4, #15
 1590 00aa D4BF     		ite	le
 1591 00ac 2143     		orrle	r1, r1, r4
 1592 00ae 41F00F01 		orrgt	r1, r1, #15
  29:Src/Ui/frameBuffer.h **** 		} else {
 1593              		.loc 3 29 4 view .LVU462
 1594 00b2 00F80A10 		strb	r1, [r0, r10]
 1595              	.LVL100:
  29:Src/Ui/frameBuffer.h **** 		} else {
 1596              		.loc 3 29 4 view .LVU463
 1597              	.LBE472:
 1598              	.LBE474:
 1599              	.LBE477:
 1600              	.LBE479:
 1601              	.LBE511:
 1602              	.LBE515:
  37:Src/Ui/canvas.cpp **** 			if (data & (1 << pixel)) {
 1603              		.loc 1 37 42 view .LVU464
 1604 00b6 B5F804A0 		ldrh	r10, [r5, #4]
 1605              	.LVL101:
  37:Src/Ui/canvas.cpp **** 			if (data & (1 << pixel)) {
 1606              		.loc 1 37 42 view .LVU465
 1607 00ba DCF80010 		ldr	r1, [ip]
 1608              	.LVL102:
  37:Src/Ui/canvas.cpp **** 			if (data & (1 << pixel)) {
 1609              		.loc 1 37 3 is_stmt 1 view .LVU466
 1610 00be 0133     		adds	r3, r3, #1
 1611              	.LVL103:
  37:Src/Ui/canvas.cpp **** 			if (data & (1 << pixel)) {
 1612              		.loc 1 37 29 view .LVU467
  37:Src/Ui/canvas.cpp **** 			if (data & (1 << pixel)) {
 1613              		.loc 1 37 29 is_stmt 0 view .LVU468
 1614              	.LBE521:
 1615              	.LBE527:
ARM GAS  /var/folders/84/_x1cyy_j36g486tldtwl37280000gn/T//ccRIBvhu.s 			page 42


 1616              	.LBE537:
  43:lookupTables/font.h **** 	}
 1617              		.loc 4 43 3 is_stmt 1 view .LVU469
 1618              	.LBB538:
 1619              	.LBB528:
 1620              	.LBB522:
  37:Src/Ui/canvas.cpp **** 			if (data & (1 << pixel)) {
 1621              		.loc 1 37 29 is_stmt 0 view .LVU470
 1622 00c0 9A45     		cmp	r10, r3
 1623 00c2 CBDC     		bgt	.L114
 1624              	.LVL104:
 1625              	.L95:
  37:Src/Ui/canvas.cpp **** 			if (data & (1 << pixel)) {
 1626              		.loc 1 37 29 view .LVU471
 1627              	.LBE522:
  42:Src/Ui/canvas.cpp **** 	}
 1628              		.loc 1 42 3 is_stmt 1 discriminator 2 view .LVU472
 1629 00c4 0131     		adds	r1, r1, #1
 1630              	.LBE528:
  35:Src/Ui/canvas.cpp **** 		uint8_t data = *ptr++;
 1631              		.loc 1 35 20 is_stmt 0 discriminator 2 view .LVU473
 1632 00c6 7745     		cmp	r7, lr
 1633              	.LBB529:
  42:Src/Ui/canvas.cpp **** 	}
 1634              		.loc 1 42 3 discriminator 2 view .LVU474
 1635 00c8 CCF80010 		str	r1, [ip]
 1636              	.LBE529:
  35:Src/Ui/canvas.cpp **** 		uint8_t data = *ptr++;
 1637              		.loc 1 35 2 is_stmt 1 discriminator 2 view .LVU475
  35:Src/Ui/canvas.cpp **** 		uint8_t data = *ptr++;
 1638              		.loc 1 35 20 discriminator 2 view .LVU476
 1639 00cc BAD1     		bne	.L115
 1640              	.LBE538:
 1641              		.loc 1 44 1 is_stmt 0 view .LVU477
 1642 00ce BDE8F087 		pop	{r4, r5, r6, r7, r8, r9, r10, pc}
 1643              	.LVL105:
 1644              	.L99:
 1645              	.LBB539:
 1646              	.LBB530:
 1647              	.LBB523:
 1648              	.LBB516:
 1649              	.LBB512:
  68:Src/Ui/canvas.h **** 			buffer.write(x, y, buffer.read(x, y) / 3);
 1650              		.loc 2 68 3 is_stmt 1 view .LVU478
  69:Src/Ui/canvas.h **** 			break;
 1651              		.loc 2 69 4 view .LVU479
 1652              	.LBB480:
 1653              	.LBI480:
  36:Src/Ui/frameBuffer.h **** 		int index = (x / 2) + ((kWidth / 2) * y);
 1654              		.loc 3 36 17 view .LVU480
 1655              	.LBB481:
  37:Src/Ui/frameBuffer.h **** 
 1656              		.loc 3 37 7 is_stmt 0 view .LVU481
 1657 00d2 08EBC31A 		add	r10, r8, r3, lsl #7
 1658 00d6 0AEB6104 		add	r4, r10, r1, asr #1
 1659              	.LVL106:
  39:Src/Ui/frameBuffer.h **** 			return data_[index] & 0x0F;
ARM GAS  /var/folders/84/_x1cyy_j36g486tldtwl37280000gn/T//ccRIBvhu.s 			page 43


 1660              		.loc 3 39 3 view .LVU482
 1661 00da 11F0010F 		tst	r1, #1
 1662              	.LBE481:
 1663              	.LBE480:
  69:Src/Ui/canvas.h **** 			break;
 1664              		.loc 2 69 16 view .LVU483
 1665 00de DFF864A1 		ldr	r10, .L127+4
 1666              	.LBB484:
 1667              	.LBB482:
 1668              		.loc 3 40 16 view .LVU484
 1669 00e2 015D     		ldrb	r1, [r0, r4]	@ zero_extendqisi2
 1670              	.LVL107:
 1671              		.loc 3 40 16 view .LVU485
 1672              	.LBE482:
 1673              	.LBE484:
 1674              	.LBB485:
 1675              	.LBI485:
  24:Src/Ui/frameBuffer.h **** 		int index = (x / 2) + ((kWidth / 2) * y);
 1676              		.loc 3 24 14 is_stmt 1 view .LVU486
  24:Src/Ui/frameBuffer.h **** 		int index = (x / 2) + ((kWidth / 2) * y);
 1677              		.loc 3 24 14 is_stmt 0 view .LVU487
 1678              	.LBE485:
 1679              	.LBB488:
 1680              	.LBB483:
  39:Src/Ui/frameBuffer.h **** 			return data_[index] & 0x0F;
 1681              		.loc 3 39 3 view .LVU488
 1682 00e4 00F09E80 		beq	.L112
 1683              	.LBE483:
 1684              	.LBE488:
  69:Src/Ui/canvas.h **** 			break;
 1685              		.loc 2 69 16 view .LVU489
 1686 00e8 01F00F09 		and	r9, r1, #15
 1687 00ec AAFB09A9 		umull	r10, r9, r10, r9
 1688              	.LBB489:
 1689              	.LBB486:
  28:Src/Ui/frameBuffer.h **** 			data_[index] |= (value & 0x0F);
 1690              		.loc 3 28 17 view .LVU490
 1691 00f0 21F00F01 		bic	r1, r1, #15
 1692              	.LVL108:
  29:Src/Ui/frameBuffer.h **** 		} else {
 1693              		.loc 3 29 17 view .LVU491
 1694 00f4 41EA5901 		orr	r1, r1, r9, lsr #1
  29:Src/Ui/frameBuffer.h **** 		} else {
 1695              		.loc 3 29 4 view .LVU492
 1696 00f8 0155     		strb	r1, [r0, r4]
 1697              	.LVL109:
  29:Src/Ui/frameBuffer.h **** 		} else {
 1698              		.loc 3 29 4 view .LVU493
 1699 00fa DCF80010 		ldr	r1, [ip]
 1700 00fe A8E7     		b	.L96
 1701              	.LVL110:
 1702              	.L103:
  29:Src/Ui/frameBuffer.h **** 		} else {
 1703              		.loc 3 29 4 view .LVU494
 1704              	.LBE486:
 1705              	.LBE489:
  56:Src/Ui/canvas.h **** 			buffer.write(x, y, 0x07);
ARM GAS  /var/folders/84/_x1cyy_j36g486tldtwl37280000gn/T//ccRIBvhu.s 			page 44


 1706              		.loc 2 56 3 is_stmt 1 view .LVU495
  57:Src/Ui/canvas.h **** 			break;
 1707              		.loc 2 57 4 view .LVU496
 1708              	.LBB490:
 1709              	.LBI490:
  24:Src/Ui/frameBuffer.h **** 		int index = (x / 2) + ((kWidth / 2) * y);
 1710              		.loc 3 24 14 view .LVU497
 1711              	.LBB491:
  25:Src/Ui/frameBuffer.h **** 
 1712              		.loc 3 25 7 is_stmt 0 view .LVU498
 1713 0100 08EBC314 		add	r4, r8, r3, lsl #7
 1714 0104 04EB610A 		add	r10, r4, r1, asr #1
 1715              	.LVL111:
  27:Src/Ui/frameBuffer.h **** 			data_[index] &= ~0x0F;
 1716              		.loc 3 27 3 view .LVU499
 1717 0108 11F0010F 		tst	r1, #1
  28:Src/Ui/frameBuffer.h **** 			data_[index] |= (value & 0x0F);
 1718              		.loc 3 28 17 view .LVU500
 1719 010c 10F80A10 		ldrb	r1, [r0, r10]	@ zero_extendqisi2
 1720 0110 15BF     		itete	ne
 1721 0112 21F00F01 		bicne	r1, r1, #15
  31:Src/Ui/frameBuffer.h **** 			data_[index] |= (value << 4);
 1722              		.loc 3 31 17 view .LVU501
 1723 0116 01F00F01 		andeq	r1, r1, #15
  29:Src/Ui/frameBuffer.h **** 		} else {
 1724              		.loc 3 29 17 view .LVU502
 1725 011a 41F00701 		orrne	r1, r1, #7
  32:Src/Ui/frameBuffer.h **** 		}
 1726              		.loc 3 32 17 view .LVU503
 1727 011e 41F07001 		orreq	r1, r1, #112
  32:Src/Ui/frameBuffer.h **** 		}
 1728              		.loc 3 32 4 view .LVU504
 1729 0122 00F80A10 		strb	r1, [r0, r10]
 1730 0126 DCF80010 		ldr	r1, [ip]
 1731 012a 92E7     		b	.L96
 1732              	.LVL112:
 1733              	.L101:
  32:Src/Ui/frameBuffer.h **** 		}
 1734              		.loc 3 32 4 view .LVU505
 1735              	.LBE491:
 1736              	.LBE490:
  62:Src/Ui/canvas.h **** 			buffer.write(x, y, 0x0F);
 1737              		.loc 2 62 3 is_stmt 1 view .LVU506
  63:Src/Ui/canvas.h **** 			break;
 1738              		.loc 2 63 4 view .LVU507
 1739              	.LBB492:
 1740              	.LBI492:
  24:Src/Ui/frameBuffer.h **** 		int index = (x / 2) + ((kWidth / 2) * y);
 1741              		.loc 3 24 14 view .LVU508
 1742              	.LBB493:
  25:Src/Ui/frameBuffer.h **** 
 1743              		.loc 3 25 7 is_stmt 0 view .LVU509
 1744 012c 08EBC31A 		add	r10, r8, r3, lsl #7
 1745 0130 0AEB6109 		add	r9, r10, r1, asr #1
 1746              	.LVL113:
  27:Src/Ui/frameBuffer.h **** 			data_[index] &= ~0x0F;
 1747              		.loc 3 27 3 view .LVU510
ARM GAS  /var/folders/84/_x1cyy_j36g486tldtwl37280000gn/T//ccRIBvhu.s 			page 45


 1748 0134 11F0010F 		tst	r1, #1
  28:Src/Ui/frameBuffer.h **** 			data_[index] |= (value & 0x0F);
 1749              		.loc 3 28 17 view .LVU511
 1750 0138 10F80940 		ldrb	r4, [r0, r9]	@ zero_extendqisi2
 1751 013c 1ABF     		itte	ne
 1752 013e 24F00F04 		bicne	r4, r4, #15
  29:Src/Ui/frameBuffer.h **** 		} else {
 1753              		.loc 3 29 17 view .LVU512
 1754 0142 44F00F04 		orrne	r4, r4, #15
  32:Src/Ui/frameBuffer.h **** 		}
 1755              		.loc 3 32 17 view .LVU513
 1756 0146 64F00F04 		orneq	r4, r4, #15
  32:Src/Ui/frameBuffer.h **** 		}
 1757              		.loc 3 32 4 view .LVU514
 1758 014a 00F80940 		strb	r4, [r0, r9]
 1759 014e DCF80010 		ldr	r1, [ip]
 1760 0152 7EE7     		b	.L96
 1761              	.LVL114:
 1762              	.L102:
  32:Src/Ui/frameBuffer.h **** 		}
 1763              		.loc 3 32 4 view .LVU515
 1764              	.LBE493:
 1765              	.LBE492:
  59:Src/Ui/canvas.h **** 			buffer.write(x, y, 0x0C);
 1766              		.loc 2 59 3 is_stmt 1 view .LVU516
  60:Src/Ui/canvas.h **** 			break;
 1767              		.loc 2 60 4 view .LVU517
 1768              	.LBB494:
 1769              	.LBI494:
  24:Src/Ui/frameBuffer.h **** 		int index = (x / 2) + ((kWidth / 2) * y);
 1770              		.loc 3 24 14 view .LVU518
 1771              	.LBB495:
  25:Src/Ui/frameBuffer.h **** 
 1772              		.loc 3 25 7 is_stmt 0 view .LVU519
 1773 0154 08EBC31A 		add	r10, r8, r3, lsl #7
 1774 0158 0AEB6109 		add	r9, r10, r1, asr #1
 1775              	.LVL115:
  27:Src/Ui/frameBuffer.h **** 			data_[index] &= ~0x0F;
 1776              		.loc 3 27 3 view .LVU520
 1777 015c 11F0010F 		tst	r1, #1
  28:Src/Ui/frameBuffer.h **** 			data_[index] |= (value & 0x0F);
 1778              		.loc 3 28 17 view .LVU521
 1779 0160 10F80910 		ldrb	r1, [r0, r9]	@ zero_extendqisi2
 1780 0164 15BF     		itete	ne
 1781 0166 21F00F01 		bicne	r1, r1, #15
  31:Src/Ui/frameBuffer.h **** 			data_[index] |= (value << 4);
 1782              		.loc 3 31 17 view .LVU522
 1783 016a 01F00F01 		andeq	r1, r1, #15
  29:Src/Ui/frameBuffer.h **** 		} else {
 1784              		.loc 3 29 17 view .LVU523
 1785 016e 41F00C01 		orrne	r1, r1, #12
  32:Src/Ui/frameBuffer.h **** 		}
 1786              		.loc 3 32 17 view .LVU524
 1787 0172 61F03F01 		orneq	r1, r1, #63
  32:Src/Ui/frameBuffer.h **** 		}
 1788              		.loc 3 32 4 view .LVU525
 1789 0176 00F80910 		strb	r1, [r0, r9]
ARM GAS  /var/folders/84/_x1cyy_j36g486tldtwl37280000gn/T//ccRIBvhu.s 			page 46


 1790 017a DCF80010 		ldr	r1, [ip]
 1791 017e 68E7     		b	.L96
 1792              	.LVL116:
 1793              	.L100:
  32:Src/Ui/frameBuffer.h **** 		}
 1794              		.loc 3 32 4 view .LVU526
 1795              	.LBE495:
 1796              	.LBE494:
  65:Src/Ui/canvas.h **** 			buffer.write(x, y, buffer.read(x, y) ^ 0xFF);
 1797              		.loc 2 65 3 is_stmt 1 view .LVU527
  66:Src/Ui/canvas.h **** 			break;
 1798              		.loc 2 66 4 view .LVU528
 1799              	.LBB496:
 1800              	.LBI496:
  36:Src/Ui/frameBuffer.h **** 		int index = (x / 2) + ((kWidth / 2) * y);
 1801              		.loc 3 36 17 view .LVU529
 1802              	.LBB497:
  37:Src/Ui/frameBuffer.h **** 
 1803              		.loc 3 37 7 is_stmt 0 view .LVU530
 1804 0180 08EBC314 		add	r4, r8, r3, lsl #7
 1805 0184 04EB610A 		add	r10, r4, r1, asr #1
 1806              	.LVL117:
  39:Src/Ui/frameBuffer.h **** 			return data_[index] & 0x0F;
 1807              		.loc 3 39 3 view .LVU531
 1808 0188 C907     		lsls	r1, r1, #31
 1809 018a 2ED5     		bpl	.L111
 1810              	.LVL118:
  39:Src/Ui/frameBuffer.h **** 			return data_[index] & 0x0F;
 1811              		.loc 3 39 3 view .LVU532
 1812              	.LBE497:
 1813              	.LBE496:
 1814              	.LBB499:
 1815              	.LBI499:
  24:Src/Ui/frameBuffer.h **** 		int index = (x / 2) + ((kWidth / 2) * y);
 1816              		.loc 3 24 14 is_stmt 1 view .LVU533
 1817              	.LBB500:
  29:Src/Ui/frameBuffer.h **** 		} else {
 1818              		.loc 3 29 17 is_stmt 0 view .LVU534
 1819 018c 10F80A40 		ldrb	r4, [r0, r10]	@ zero_extendqisi2
 1820 0190 84F00F01 		eor	r1, r4, #15
  29:Src/Ui/frameBuffer.h **** 		} else {
 1821              		.loc 3 29 4 view .LVU535
 1822 0194 00F80A10 		strb	r1, [r0, r10]
 1823              	.LVL119:
  29:Src/Ui/frameBuffer.h **** 		} else {
 1824              		.loc 3 29 4 view .LVU536
 1825 0198 DCF80010 		ldr	r1, [ip]
 1826 019c 59E7     		b	.L96
 1827              	.LVL120:
 1828              	.L105:
  29:Src/Ui/frameBuffer.h **** 		} else {
 1829              		.loc 3 29 4 view .LVU537
 1830              	.LBE500:
 1831              	.LBE499:
  50:Src/Ui/canvas.h **** 			buffer.write(x, y, 0x00);
 1832              		.loc 2 50 3 is_stmt 1 view .LVU538
  51:Src/Ui/canvas.h **** 			break;
ARM GAS  /var/folders/84/_x1cyy_j36g486tldtwl37280000gn/T//ccRIBvhu.s 			page 47


 1833              		.loc 2 51 4 view .LVU539
 1834              	.LBB502:
 1835              	.LBI502:
  24:Src/Ui/frameBuffer.h **** 		int index = (x / 2) + ((kWidth / 2) * y);
 1836              		.loc 3 24 14 view .LVU540
 1837              	.LBB503:
  25:Src/Ui/frameBuffer.h **** 
 1838              		.loc 3 25 7 is_stmt 0 view .LVU541
 1839 019e 08EBC31A 		add	r10, r8, r3, lsl #7
 1840 01a2 0AEB6109 		add	r9, r10, r1, asr #1
 1841              	.LVL121:
  27:Src/Ui/frameBuffer.h **** 			data_[index] &= ~0x0F;
 1842              		.loc 3 27 3 view .LVU542
 1843 01a6 11F0010F 		tst	r1, #1
  28:Src/Ui/frameBuffer.h **** 			data_[index] |= (value & 0x0F);
 1844              		.loc 3 28 17 view .LVU543
 1845 01aa 10F80940 		ldrb	r4, [r0, r9]	@ zero_extendqisi2
 1846 01ae 14BF     		ite	ne
 1847 01b0 24F00F04 		bicne	r4, r4, #15
  31:Src/Ui/frameBuffer.h **** 			data_[index] |= (value << 4);
 1848              		.loc 3 31 17 view .LVU544
 1849 01b4 04F00F04 		andeq	r4, r4, #15
  32:Src/Ui/frameBuffer.h **** 		}
 1850              		.loc 3 32 4 view .LVU545
 1851 01b8 00F80940 		strb	r4, [r0, r9]
 1852 01bc DCF80010 		ldr	r1, [ip]
 1853 01c0 47E7     		b	.L96
 1854              	.LVL122:
 1855              	.L104:
  32:Src/Ui/frameBuffer.h **** 		}
 1856              		.loc 3 32 4 view .LVU546
 1857              	.LBE503:
 1858              	.LBE502:
  53:Src/Ui/canvas.h **** 			buffer.write(x, y, 0x04);
 1859              		.loc 2 53 3 is_stmt 1 view .LVU547
  54:Src/Ui/canvas.h **** 			break;
 1860              		.loc 2 54 4 view .LVU548
 1861              	.LBB504:
 1862              	.LBI504:
  24:Src/Ui/frameBuffer.h **** 		int index = (x / 2) + ((kWidth / 2) * y);
 1863              		.loc 3 24 14 view .LVU549
 1864              	.LBB505:
  25:Src/Ui/frameBuffer.h **** 
 1865              		.loc 3 25 7 is_stmt 0 view .LVU550
 1866 01c2 08EBC319 		add	r9, r8, r3, lsl #7
 1867 01c6 09EB6104 		add	r4, r9, r1, asr #1
 1868              	.LVL123:
  27:Src/Ui/frameBuffer.h **** 			data_[index] &= ~0x0F;
 1869              		.loc 3 27 3 view .LVU551
 1870 01ca 11F0010F 		tst	r1, #1
  28:Src/Ui/frameBuffer.h **** 			data_[index] |= (value & 0x0F);
 1871              		.loc 3 28 17 view .LVU552
 1872 01ce 015D     		ldrb	r1, [r0, r4]	@ zero_extendqisi2
 1873 01d0 15BF     		itete	ne
 1874 01d2 21F00F01 		bicne	r1, r1, #15
  31:Src/Ui/frameBuffer.h **** 			data_[index] |= (value << 4);
 1875              		.loc 3 31 17 view .LVU553
ARM GAS  /var/folders/84/_x1cyy_j36g486tldtwl37280000gn/T//ccRIBvhu.s 			page 48


 1876 01d6 01F00F01 		andeq	r1, r1, #15
  29:Src/Ui/frameBuffer.h **** 		} else {
 1877              		.loc 3 29 17 view .LVU554
 1878 01da 41F00401 		orrne	r1, r1, #4
  32:Src/Ui/frameBuffer.h **** 		}
 1879              		.loc 3 32 17 view .LVU555
 1880 01de 41F04001 		orreq	r1, r1, #64
  32:Src/Ui/frameBuffer.h **** 		}
 1881              		.loc 3 32 4 view .LVU556
 1882 01e2 0155     		strb	r1, [r0, r4]
 1883 01e4 DCF80010 		ldr	r1, [ip]
 1884 01e8 33E7     		b	.L96
 1885              	.LVL124:
 1886              	.L111:
  32:Src/Ui/frameBuffer.h **** 		}
 1887              		.loc 3 32 4 view .LVU557
 1888              	.LBE505:
 1889              	.LBE504:
 1890              	.LBB506:
 1891              	.LBB498:
  41:Src/Ui/frameBuffer.h **** 		} else {
  42:Src/Ui/frameBuffer.h **** 			return (data_[index] & 0xF0) >> 4;
 1892              		.loc 3 42 17 view .LVU558
 1893 01ea 10F80A40 		ldrb	r4, [r0, r10]	@ zero_extendqisi2
 1894              	.LVL125:
 1895              		.loc 3 42 17 view .LVU559
 1896              	.LBE498:
 1897              	.LBE506:
 1898              	.LBB507:
  24:Src/Ui/frameBuffer.h **** 		int index = (x / 2) + ((kWidth / 2) * y);
 1899              		.loc 3 24 14 is_stmt 1 view .LVU560
 1900              	.LBB501:
  32:Src/Ui/frameBuffer.h **** 		}
 1901              		.loc 3 32 21 is_stmt 0 view .LVU561
 1902 01ee 04F0F009 		and	r9, r4, #240
  32:Src/Ui/frameBuffer.h **** 		}
 1903              		.loc 3 32 27 view .LVU562
 1904 01f2 89F47F61 		eor	r1, r9, #4080
  31:Src/Ui/frameBuffer.h **** 			data_[index] |= (value << 4);
 1905              		.loc 3 31 17 view .LVU563
 1906 01f6 04F00F04 		and	r4, r4, #15
 1907              	.LVL126:
  32:Src/Ui/frameBuffer.h **** 		}
 1908              		.loc 3 32 17 view .LVU564
 1909 01fa 2143     		orrs	r1, r1, r4
  32:Src/Ui/frameBuffer.h **** 		}
 1910              		.loc 3 32 4 view .LVU565
 1911 01fc 00F80A10 		strb	r1, [r0, r10]
 1912              	.LVL127:
  32:Src/Ui/frameBuffer.h **** 		}
 1913              		.loc 3 32 4 view .LVU566
 1914 0200 DCF80010 		ldr	r1, [ip]
 1915 0204 25E7     		b	.L96
 1916              	.LVL128:
 1917              	.L113:
  32:Src/Ui/frameBuffer.h **** 		}
 1918              		.loc 3 32 4 view .LVU567
ARM GAS  /var/folders/84/_x1cyy_j36g486tldtwl37280000gn/T//ccRIBvhu.s 			page 49


 1919              	.LBE501:
 1920              	.LBE507:
 1921              	.LBE512:
 1922              	.LBE516:
 1923              	.LBE523:
 1924              	.LBE530:
 1925              	.LBE539:
 1926              		.loc 5 27 3 is_stmt 1 view .LVU568
 1927              	.LBB540:
 1928              	.LBB531:
 1929              	.LBB524:
 1930              	.LBB517:
 1931              	.LBB513:
 1932              	.LBB508:
 1933              	.LBB478:
 1934              	.LBB475:
  24:Src/Ui/frameBuffer.h **** 		int index = (x / 2) + ((kWidth / 2) * y);
 1935              		.loc 3 24 14 view .LVU569
  24:Src/Ui/frameBuffer.h **** 		int index = (x / 2) + ((kWidth / 2) * y);
 1936              		.loc 3 24 14 is_stmt 0 view .LVU570
 1937              	.LBE475:
  72:Src/Ui/canvas.h **** 			break;
 1938              		.loc 2 72 39 view .LVU571
 1939 0206 0C09     		lsrs	r4, r1, #4
 1940 0208 04EB4404 		add	r4, r4, r4, lsl #1
 1941              	.LBB476:
 1942              	.LBB473:
  32:Src/Ui/frameBuffer.h **** 		}
 1943              		.loc 3 32 17 view .LVU572
 1944 020c 0F2C     		cmp	r4, #15
 1945 020e A8BF     		it	ge
 1946 0210 0F24     		movge	r4, #15
  31:Src/Ui/frameBuffer.h **** 			data_[index] |= (value << 4);
 1947              		.loc 3 31 17 view .LVU573
 1948 0212 01F00F09 		and	r9, r1, #15
  32:Src/Ui/frameBuffer.h **** 		}
 1949              		.loc 3 32 17 view .LVU574
 1950 0216 49EA0411 		orr	r1, r9, r4, lsl #4
 1951              	.LVL129:
  32:Src/Ui/frameBuffer.h **** 		}
 1952              		.loc 3 32 4 view .LVU575
 1953 021a 00F80A10 		strb	r1, [r0, r10]
 1954 021e DCF80010 		ldr	r1, [ip]
 1955 0222 16E7     		b	.L96
 1956              	.LVL130:
 1957              	.L112:
  32:Src/Ui/frameBuffer.h **** 		}
 1958              		.loc 3 32 4 view .LVU576
 1959              	.LBE473:
 1960              	.LBE476:
 1961              	.LBE478:
 1962              	.LBE508:
  69:Src/Ui/canvas.h **** 			break;
 1963              		.loc 2 69 16 view .LVU577
 1964 0224 4FEA1119 		lsr	r9, r1, #4
 1965 0228 AAFB09A9 		umull	r10, r9, r10, r9
 1966              	.LBB509:
ARM GAS  /var/folders/84/_x1cyy_j36g486tldtwl37280000gn/T//ccRIBvhu.s 			page 50


 1967              	.LBB487:
  31:Src/Ui/frameBuffer.h **** 			data_[index] |= (value << 4);
 1968              		.loc 3 31 17 view .LVU578
 1969 022c 01F00F01 		and	r1, r1, #15
 1970              	.LVL131:
  32:Src/Ui/frameBuffer.h **** 		}
 1971              		.loc 3 32 21 view .LVU579
 1972 0230 4FEA590A 		lsr	r10, r9, #1
  32:Src/Ui/frameBuffer.h **** 		}
 1973              		.loc 3 32 17 view .LVU580
 1974 0234 41EA0A11 		orr	r1, r1, r10, lsl #4
  32:Src/Ui/frameBuffer.h **** 		}
 1975              		.loc 3 32 4 view .LVU581
 1976 0238 0155     		strb	r1, [r0, r4]
 1977              	.LVL132:
  32:Src/Ui/frameBuffer.h **** 		}
 1978              		.loc 3 32 4 view .LVU582
 1979 023a DCF80010 		ldr	r1, [ip]
 1980 023e 08E7     		b	.L96
 1981              	.L128:
 1982              		.align	2
 1983              	.L127:
 1984 0240 00000000 		.word	font
 1985 0244 ABAAAAAA 		.word	-1431655765
 1986              	.LBE487:
 1987              	.LBE509:
 1988              	.LBE513:
 1989              	.LBE517:
 1990              	.LBE524:
 1991              	.LBE531:
 1992              	.LBE540:
 1993              		.cfi_endproc
 1994              	.LFE2018:
 1996              		.section	.text.startup._GLOBAL__sub_I_canvas,"ax",%progbits
 1997              		.align	1
 1998              		.p2align 2,,3
 1999              		.syntax unified
 2000              		.thumb
 2001              		.thumb_func
 2002              		.fpu fpv4-sp-d16
 2004              	_GLOBAL__sub_I_canvas:
 2005              	.LFB2477:
 2006              		.loc 1 44 1 is_stmt 1 view -0
 2007              		.cfi_startproc
 2008              		@ args = 0, pretend = 0, frame = 0
 2009              		@ frame_needed = 0, uses_anonymous_args = 0
 2010              		@ link register save eliminated.
 2011              	.LVL133:
 2012              	.LBB541:
 2013              	.LBI541:
 2014              		.loc 1 44 1 view .LVU584
 2015              	.LBB542:
 2016              	.LBB543:
 2017              	.LBI543:
  11:Src/Ui/canvas.h **** 
 2018              		.loc 2 11 7 view .LVU585
 2019              	.LBB544:
ARM GAS  /var/folders/84/_x1cyy_j36g486tldtwl37280000gn/T//ccRIBvhu.s 			page 51


 2020 0000 054B     		ldr	r3, .L130
 2021 0002 42F20401 		movw	r1, #8196
 2022 0006 03F50052 		add	r2, r3, #8192
 2023 000a 40F20440 		movw	r0, #1028
 2024 000e 5852     		strh	r0, [r3, r1]	@ movhi
 2025              	.LVL134:
  11:Src/Ui/canvas.h **** 
 2026              		.loc 2 11 7 is_stmt 0 view .LVU586
 2027 0010 0023     		movs	r3, #0
 2028 0012 1360     		str	r3, [r2]
 2029              	.LBE544:
 2030              	.LBE543:
 2031              	.LBE542:
 2032              	.LBE541:
 2033              		.loc 1 44 1 view .LVU587
 2034 0014 7047     		bx	lr
 2035              	.L131:
 2036 0016 00BF     		.align	2
 2037              	.L130:
 2038 0018 00000000 		.word	canvas
 2039              		.cfi_endproc
 2040              	.LFE2477:
 2042              		.section	.init_array,"aw",%init_array
 2043              		.align	2
 2044 0000 00000000 		.word	_GLOBAL__sub_I_canvas(target1)
 2045              		.global	canvas
 2046              		.section	.bss.canvas,"aw",%nobits
 2047              		.align	2
 2050              	canvas:
 2051 0000 00000000 		.space	8200
 2051      00000000 
 2051      00000000 
 2051      00000000 
 2051      00000000 
 2052              		.text
 2053              	.Letext0:
 2054              		.file 6 "/usr/local/Caskroom/gcc-arm-embedded/9-2019-q4-major/gcc-arm-none-eabi-9-2019-q4-major/ar
 2055              		.file 7 "/usr/local/Caskroom/gcc-arm-embedded/9-2019-q4-major/gcc-arm-none-eabi-9-2019-q4-major/ar
 2056              		.file 8 "/usr/local/Caskroom/gcc-arm-embedded/9-2019-q4-major/gcc-arm-none-eabi-9-2019-q4-major/ar
 2057              		.file 9 "/Users/joostbooy/STM32Cube/Repository/STM32Cube_FW_F4_V1.26.1/Drivers/CMSIS/Include/core_
 2058              		.file 10 "/Users/joostbooy/STM32Cube/Repository/STM32Cube_FW_F4_V1.26.1/Drivers/CMSIS/Device/ST/ST
 2059              		.file 11 "/usr/local/Caskroom/gcc-arm-embedded/9-2019-q4-major/gcc-arm-none-eabi-9-2019-q4-major/l
 2060              		.file 12 "/Users/joostbooy/STM32Cube/Repository/STM32Cube_FW_F4_V1.26.1/Drivers/STM32F4xx_HAL_Driv
 2061              		.file 13 "/usr/local/Caskroom/gcc-arm-embedded/9-2019-q4-major/gcc-arm-none-eabi-9-2019-q4-major/a
 2062              		.file 14 "/usr/local/Caskroom/gcc-arm-embedded/9-2019-q4-major/gcc-arm-none-eabi-9-2019-q4-major/a
 2063              		.file 15 "/usr/local/Caskroom/gcc-arm-embedded/9-2019-q4-major/gcc-arm-none-eabi-9-2019-q4-major/a
 2064              		.file 16 "/usr/local/Caskroom/gcc-arm-embedded/9-2019-q4-major/gcc-arm-none-eabi-9-2019-q4-major/a
 2065              		.file 17 "/usr/local/Caskroom/gcc-arm-embedded/9-2019-q4-major/gcc-arm-none-eabi-9-2019-q4-major/a
 2066              		.file 18 "/usr/local/Caskroom/gcc-arm-embedded/9-2019-q4-major/gcc-arm-none-eabi-9-2019-q4-major/a
 2067              		.file 19 "/usr/local/Caskroom/gcc-arm-embedded/9-2019-q4-major/gcc-arm-none-eabi-9-2019-q4-major/a
 2068              		.file 20 "/usr/local/Caskroom/gcc-arm-embedded/9-2019-q4-major/gcc-arm-none-eabi-9-2019-q4-major/a
 2069              		.file 21 "/usr/local/Caskroom/gcc-arm-embedded/9-2019-q4-major/gcc-arm-none-eabi-9-2019-q4-major/a
 2070              		.file 22 "/usr/local/Caskroom/gcc-arm-embedded/9-2019-q4-major/gcc-arm-none-eabi-9-2019-q4-major/a
 2071              		.file 23 "/usr/local/Caskroom/gcc-arm-embedded/9-2019-q4-major/gcc-arm-none-eabi-9-2019-q4-major/a
 2072              		.file 24 "/usr/local/Caskroom/gcc-arm-embedded/9-2019-q4-major/gcc-arm-none-eabi-9-2019-q4-major/a
 2073              		.file 25 "/usr/local/Caskroom/gcc-arm-embedded/9-2019-q4-major/gcc-arm-none-eabi-9-2019-q4-major/a
 2074              		.file 26 "/usr/local/Caskroom/gcc-arm-embedded/9-2019-q4-major/gcc-arm-none-eabi-9-2019-q4-major/a
ARM GAS  /var/folders/84/_x1cyy_j36g486tldtwl37280000gn/T//ccRIBvhu.s 			page 52


 2075              		.file 27 "/usr/local/Caskroom/gcc-arm-embedded/9-2019-q4-major/gcc-arm-none-eabi-9-2019-q4-major/a
 2076              		.file 28 "/usr/local/Caskroom/gcc-arm-embedded/9-2019-q4-major/gcc-arm-none-eabi-9-2019-q4-major/a
 2077              		.file 29 "/usr/local/Caskroom/gcc-arm-embedded/9-2019-q4-major/gcc-arm-none-eabi-9-2019-q4-major/a
 2078              		.file 30 "/usr/local/Caskroom/gcc-arm-embedded/9-2019-q4-major/gcc-arm-none-eabi-9-2019-q4-major/a
 2079              		.file 31 "/usr/local/Caskroom/gcc-arm-embedded/9-2019-q4-major/gcc-arm-none-eabi-9-2019-q4-major/a
 2080              		.file 32 "/usr/local/Caskroom/gcc-arm-embedded/9-2019-q4-major/gcc-arm-none-eabi-9-2019-q4-major/a
 2081              		.file 33 "/usr/local/Caskroom/gcc-arm-embedded/9-2019-q4-major/gcc-arm-none-eabi-9-2019-q4-major/a
 2082              		.file 34 "/usr/local/Caskroom/gcc-arm-embedded/9-2019-q4-major/gcc-arm-none-eabi-9-2019-q4-major/a
 2083              		.file 35 "/usr/local/Caskroom/gcc-arm-embedded/9-2019-q4-major/gcc-arm-none-eabi-9-2019-q4-major/a
 2084              		.file 36 "/usr/local/Caskroom/gcc-arm-embedded/9-2019-q4-major/gcc-arm-none-eabi-9-2019-q4-major/a
 2085              		.file 37 "/usr/local/Caskroom/gcc-arm-embedded/9-2019-q4-major/gcc-arm-none-eabi-9-2019-q4-major/l
 2086              		.file 38 "<built-in>"
 2087              		.file 39 "/usr/local/Caskroom/gcc-arm-embedded/9-2019-q4-major/gcc-arm-none-eabi-9-2019-q4-major/a
 2088              		.file 40 "/usr/local/Caskroom/gcc-arm-embedded/9-2019-q4-major/gcc-arm-none-eabi-9-2019-q4-major/a
 2089              		.file 41 "/usr/local/Caskroom/gcc-arm-embedded/9-2019-q4-major/gcc-arm-none-eabi-9-2019-q4-major/a
 2090              		.file 42 "/usr/local/Caskroom/gcc-arm-embedded/9-2019-q4-major/gcc-arm-none-eabi-9-2019-q4-major/a
 2091              		.file 43 "/usr/local/Caskroom/gcc-arm-embedded/9-2019-q4-major/gcc-arm-none-eabi-9-2019-q4-major/a
 2092              		.file 44 "/usr/local/Caskroom/gcc-arm-embedded/9-2019-q4-major/gcc-arm-none-eabi-9-2019-q4-major/a
 2093              		.file 45 "/usr/local/Caskroom/gcc-arm-embedded/9-2019-q4-major/gcc-arm-none-eabi-9-2019-q4-major/a
 2094              		.file 46 "/usr/local/Caskroom/gcc-arm-embedded/9-2019-q4-major/gcc-arm-none-eabi-9-2019-q4-major/a
 2095              		.file 47 "/usr/local/Caskroom/gcc-arm-embedded/9-2019-q4-major/gcc-arm-none-eabi-9-2019-q4-major/a
 2096              		.file 48 "lookupTables/bitmap.h"
ARM GAS  /var/folders/84/_x1cyy_j36g486tldtwl37280000gn/T//ccRIBvhu.s 			page 53

