ARM GAS  /var/folders/84/_x1cyy_j36g486tldtwl37280000gn/T//ccHRTYO5.s 			page 1


   1              		.cpu cortex-m4
   2              		.eabi_attribute 27, 1
   3              		.eabi_attribute 28, 1
   4              		.eabi_attribute 20, 1
   5              		.eabi_attribute 21, 1
   6              		.eabi_attribute 23, 3
   7              		.eabi_attribute 24, 1
   8              		.eabi_attribute 25, 1
   9              		.eabi_attribute 26, 1
  10              		.eabi_attribute 30, 2
  11              		.eabi_attribute 34, 1
  12              		.eabi_attribute 18, 4
  13              		.file	"clipBoard.cpp"
  14              		.text
  15              	.Ltext0:
  16              		.cfi_sections	.debug_frame
  17              		.section	.text._ZN9ClipBoard12copy_patternER5Tracki,"ax",%progbits
  18              		.align	1
  19              		.p2align 2,,3
  20              		.global	_ZN9ClipBoard12copy_patternER5Tracki
  21              		.arch armv7e-m
  22              		.syntax unified
  23              		.thumb
  24              		.thumb_func
  25              		.fpu fpv4-sp-d16
  27              	_ZN9ClipBoard12copy_patternER5Tracki:
  28              	.LVL0:
  29              	.LFB2487:
  30              		.file 1 "Src/Ui/clipBoard.cpp"
   1:Src/Ui/clipBoard.cpp **** #include "clipboard.h"
   2:Src/Ui/clipBoard.cpp **** 
   3:Src/Ui/clipBoard.cpp **** ClipBoard clipboard;
   4:Src/Ui/clipBoard.cpp **** 
   5:Src/Ui/clipBoard.cpp **** 
   6:Src/Ui/clipBoard.cpp **** bool ClipBoard::copy_pattern(Track &track, int pattern_index) {
  31              		.loc 1 6 63 view -0
  32              		.cfi_startproc
  33              		@ args = 0, pretend = 0, frame = 0
  34              		@ frame_needed = 0, uses_anonymous_args = 0
   7:Src/Ui/clipBoard.cpp **** 	if (pattern_index < track.num_patterns()) {
  35              		.loc 1 7 2 view .LVU1
  36              	.LBB99:
  37              	.LBI99:
  38              		.file 2 "Src/Settings/baseTrack.h"
   1:Src/Settings/baseTrack.h **** #ifndef BaseTrack_h
   2:Src/Settings/baseTrack.h **** #define BaseTrack_h
   3:Src/Settings/baseTrack.h **** 
   4:Src/Settings/baseTrack.h **** #include "stmf4lib.h"
   5:Src/Settings/baseTrack.h **** #include "stringBuilder.h"
   6:Src/Settings/baseTrack.h **** #include "stringUtils.h"
   7:Src/Settings/baseTrack.h **** #include "trackData.h"
   8:Src/Settings/baseTrack.h **** #include "pattern.h"
   9:Src/Settings/baseTrack.h **** #include "midiPort.h"
  10:Src/Settings/baseTrack.h **** #include "clockEngine.h"
  11:Src/Settings/baseTrack.h **** #include "positionEngine.h"
  12:Src/Settings/baseTrack.h **** #include "repeatEngine.h"
  13:Src/Settings/baseTrack.h **** #include "uiText.h"
ARM GAS  /var/folders/84/_x1cyy_j36g486tldtwl37280000gn/T//ccHRTYO5.s 			page 2


  14:Src/Settings/baseTrack.h **** 
  15:Src/Settings/baseTrack.h **** #define ASSERT_STEP_ITEMS(count) static_assert(count < TrackData::kMaxStepItems, "To many step item
  16:Src/Settings/baseTrack.h **** 
  17:Src/Settings/baseTrack.h **** class BaseTrack {
  18:Src/Settings/baseTrack.h **** 
  19:Src/Settings/baseTrack.h **** public:
  20:Src/Settings/baseTrack.h **** 
  21:Src/Settings/baseTrack.h **** 	enum Type {
  22:Src/Settings/baseTrack.h **** 		NOTE_TRACK,
  23:Src/Settings/baseTrack.h **** 		CHORD_TRACK,
  24:Src/Settings/baseTrack.h **** 		DRUM_TRACK,
  25:Src/Settings/baseTrack.h **** 		CURVE_TRACK,
  26:Src/Settings/baseTrack.h **** 
  27:Src/Settings/baseTrack.h **** 		NUM_TYPES
  28:Src/Settings/baseTrack.h **** 	};
  29:Src/Settings/baseTrack.h **** 
  30:Src/Settings/baseTrack.h **** 	static const char* type_text(uint8_t type) {
  31:Src/Settings/baseTrack.h **** 		switch (type)
  32:Src/Settings/baseTrack.h **** 		{
  33:Src/Settings/baseTrack.h **** 		case NOTE_TRACK:	return "NOTE";
  34:Src/Settings/baseTrack.h **** 		case CHORD_TRACK:	return "CHORD";
  35:Src/Settings/baseTrack.h **** 		case DRUM_TRACK:	return "DRUM";
  36:Src/Settings/baseTrack.h **** 		case CURVE_TRACK:	return "CURVE";
  37:Src/Settings/baseTrack.h **** 		default:			return nullptr;
  38:Src/Settings/baseTrack.h **** 			break;
  39:Src/Settings/baseTrack.h **** 		}
  40:Src/Settings/baseTrack.h **** 	}
  41:Src/Settings/baseTrack.h **** 
  42:Src/Settings/baseTrack.h **** 	Pattern pattern;
  43:Src/Settings/baseTrack.h **** 
  44:Src/Settings/baseTrack.h **** 	void init(TrackData *data) {
  45:Src/Settings/baseTrack.h **** 		data_ = data;
  46:Src/Settings/baseTrack.h **** 
  47:Src/Settings/baseTrack.h **** 		pattern_list = &data_->pattern_list_;
  48:Src/Settings/baseTrack.h **** 		pattern_pool = &data_->pattern_pool_;
  49:Src/Settings/baseTrack.h **** 		pattern_list->size_ = 0;
  50:Src/Settings/baseTrack.h **** 
  51:Src/Settings/baseTrack.h **** 		pattern.init(pattern_list);
  52:Src/Settings/baseTrack.h **** 	}
  53:Src/Settings/baseTrack.h **** 
  54:Src/Settings/baseTrack.h **** 	static constexpr uint8_t max_label_length() {
  55:Src/Settings/baseTrack.h **** 		return TrackData::kMaxLabelLength;
  56:Src/Settings/baseTrack.h **** 	}
  57:Src/Settings/baseTrack.h **** 
  58:Src/Settings/baseTrack.h **** 	static constexpr uint16_t max_patterns() {
  59:Src/Settings/baseTrack.h **** 		return TrackData::kMaxPatterns;
  60:Src/Settings/baseTrack.h **** 	}
  61:Src/Settings/baseTrack.h **** 
  62:Src/Settings/baseTrack.h **** 	static constexpr uint8_t max_steps_per_pattern() {
  63:Src/Settings/baseTrack.h **** 		return TrackData::kMaxStepsPerPattern;
  64:Src/Settings/baseTrack.h **** 	}
  65:Src/Settings/baseTrack.h **** 
  66:Src/Settings/baseTrack.h **** 	constexpr uint32_t* settings() {
  67:Src/Settings/baseTrack.h **** 		return &data_->serial_[0];
  68:Src/Settings/baseTrack.h **** 	}
  69:Src/Settings/baseTrack.h **** 
  70:Src/Settings/baseTrack.h **** 	// type
ARM GAS  /var/folders/84/_x1cyy_j36g486tldtwl37280000gn/T//ccHRTYO5.s 			page 3


  71:Src/Settings/baseTrack.h **** 	uint8_t type() {
  72:Src/Settings/baseTrack.h **** 		return data_->type_;
  73:Src/Settings/baseTrack.h **** 	}
  74:Src/Settings/baseTrack.h **** 
  75:Src/Settings/baseTrack.h **** 	void set_type(int value) {
  76:Src/Settings/baseTrack.h **** 		data_->type_ = stmlib::clip(0, NUM_TYPES - 1, value);
  77:Src/Settings/baseTrack.h **** 	}
  78:Src/Settings/baseTrack.h **** 
  79:Src/Settings/baseTrack.h **** 	const char* type_text() {
  80:Src/Settings/baseTrack.h **** 		return type_text(type());
  81:Src/Settings/baseTrack.h **** 	}
  82:Src/Settings/baseTrack.h **** 
  83:Src/Settings/baseTrack.h **** 	// port
  84:Src/Settings/baseTrack.h **** 	uint8_t port() {
  85:Src/Settings/baseTrack.h **** 		return data_->port_;
  86:Src/Settings/baseTrack.h **** 	}
  87:Src/Settings/baseTrack.h **** 
  88:Src/Settings/baseTrack.h **** 	void set_port(int port) {
  89:Src/Settings/baseTrack.h **** 		data_->port_ = stmlib::clip(0, MidiPort::NUM_PORTS - 1, port);
  90:Src/Settings/baseTrack.h **** 	}
  91:Src/Settings/baseTrack.h **** 
  92:Src/Settings/baseTrack.h **** 	const char* port_text() {
  93:Src/Settings/baseTrack.h **** 		return MidiPort::port_text(port());
  94:Src/Settings/baseTrack.h **** 	}
  95:Src/Settings/baseTrack.h **** 
  96:Src/Settings/baseTrack.h **** 	// channel
  97:Src/Settings/baseTrack.h **** 	int channel() {
  98:Src/Settings/baseTrack.h **** 		return data_->channel_;
  99:Src/Settings/baseTrack.h **** 	}
 100:Src/Settings/baseTrack.h **** 
 101:Src/Settings/baseTrack.h **** 	void set_channel(int channel) {
 102:Src/Settings/baseTrack.h **** 		data_->channel_ = stmlib::clip(0, 15, channel);
 103:Src/Settings/baseTrack.h **** 	}
 104:Src/Settings/baseTrack.h **** 
 105:Src/Settings/baseTrack.h **** 	const char* channel_text() {
 106:Src/Settings/baseTrack.h **** 		return UiText::midi_channel_text(channel());
 107:Src/Settings/baseTrack.h **** 	}
 108:Src/Settings/baseTrack.h **** 
 109:Src/Settings/baseTrack.h **** 	// clock mode
 110:Src/Settings/baseTrack.h **** 	uint8_t clock_mode() {
 111:Src/Settings/baseTrack.h **** 		return data_->clock_mode_;
 112:Src/Settings/baseTrack.h **** 	}
 113:Src/Settings/baseTrack.h **** 
 114:Src/Settings/baseTrack.h **** 	void set_clock_mode(int clock_mode) {
 115:Src/Settings/baseTrack.h **** 		data_->clock_mode_ = stmlib::clip(0, PositionEngine::NUM_MODES - 1, clock_mode);
 116:Src/Settings/baseTrack.h **** 	}
 117:Src/Settings/baseTrack.h **** 
 118:Src/Settings/baseTrack.h **** 	const char* clock_mode_text() {
 119:Src/Settings/baseTrack.h **** 		return PositionEngine::mode_text(clock_mode());
 120:Src/Settings/baseTrack.h **** 	}
 121:Src/Settings/baseTrack.h **** 
 122:Src/Settings/baseTrack.h **** 	// clock speed
 123:Src/Settings/baseTrack.h **** 	uint8_t clock_speed() {
 124:Src/Settings/baseTrack.h **** 		return data_->clock_speed_;
 125:Src/Settings/baseTrack.h **** 	}
 126:Src/Settings/baseTrack.h **** 
 127:Src/Settings/baseTrack.h **** 	void set_clock_speed(int clock_speed) {
ARM GAS  /var/folders/84/_x1cyy_j36g486tldtwl37280000gn/T//ccHRTYO5.s 			page 4


 128:Src/Settings/baseTrack.h **** 		data_->clock_speed_ = stmlib::clip(0, ClockEngine::NUM_SIGNATURES - 1, clock_speed);
 129:Src/Settings/baseTrack.h **** 	}
 130:Src/Settings/baseTrack.h **** 
 131:Src/Settings/baseTrack.h **** 	const char* clock_speed_text() {
 132:Src/Settings/baseTrack.h **** 		return ClockEngine::speed_text(clock_speed());
 133:Src/Settings/baseTrack.h **** 	}
 134:Src/Settings/baseTrack.h **** 
 135:Src/Settings/baseTrack.h **** 	// delay
 136:Src/Settings/baseTrack.h **** 	uint8_t delay() {
 137:Src/Settings/baseTrack.h **** 		return data_->delay_;
 138:Src/Settings/baseTrack.h **** 	}
 139:Src/Settings/baseTrack.h **** 
 140:Src/Settings/baseTrack.h **** 	void set_delay(int delay) {
 141:Src/Settings/baseTrack.h **** 		data_->delay_ = stmlib::clip(0, 3, delay);
 142:Src/Settings/baseTrack.h **** 	}
 143:Src/Settings/baseTrack.h **** 
 144:Src/Settings/baseTrack.h **** 	const char* delay_text() {
 145:Src/Settings/baseTrack.h **** 		return ClockEngine::gate_duration_text(delay());
 146:Src/Settings/baseTrack.h **** 	}
 147:Src/Settings/baseTrack.h **** 
 148:Src/Settings/baseTrack.h **** 	// swing
 149:Src/Settings/baseTrack.h **** 	uint8_t swing() {
 150:Src/Settings/baseTrack.h **** 		return data_->swing_;
 151:Src/Settings/baseTrack.h **** 	}
 152:Src/Settings/baseTrack.h **** 
 153:Src/Settings/baseTrack.h **** 	void set_swing(int value) {
 154:Src/Settings/baseTrack.h **** 		data_->swing_ = stmlib::clip(1, 15, value);
 155:Src/Settings/baseTrack.h **** 	}
 156:Src/Settings/baseTrack.h **** 
 157:Src/Settings/baseTrack.h **** 	const char* swing_text() {
 158:Src/Settings/baseTrack.h **** 		return ClockEngine::swing_text(swing());
 159:Src/Settings/baseTrack.h **** 	}
 160:Src/Settings/baseTrack.h **** 
 161:Src/Settings/baseTrack.h **** 	// humanise
 162:Src/Settings/baseTrack.h **** 	uint8_t humanise() {
 163:Src/Settings/baseTrack.h **** 		return data_->humanise_;
 164:Src/Settings/baseTrack.h **** 	}
 165:Src/Settings/baseTrack.h **** 
 166:Src/Settings/baseTrack.h **** 	void set_humanise(int value) {
 167:Src/Settings/baseTrack.h **** 		data_->humanise_ = stmlib::clip(0, 7, value);
 168:Src/Settings/baseTrack.h **** 	}
 169:Src/Settings/baseTrack.h **** 
 170:Src/Settings/baseTrack.h **** 	const char* humanise_text() {
 171:Src/Settings/baseTrack.h **** 		return UiText::percentage_text(humanise(), 7);
 172:Src/Settings/baseTrack.h **** 	}
 173:Src/Settings/baseTrack.h **** 
 174:Src/Settings/baseTrack.h **** 	// label
 175:Src/Settings/baseTrack.h **** 	const char* label() {
 176:Src/Settings/baseTrack.h **** 		return data_->label_;
 177:Src/Settings/baseTrack.h **** 	};
 178:Src/Settings/baseTrack.h **** 
 179:Src/Settings/baseTrack.h **** 	void set_label(const char* new_label) {
 180:Src/Settings/baseTrack.h **** 		StringUtils::copy(data_->label_, const_cast<char*>(new_label), max_label_length());
 181:Src/Settings/baseTrack.h **** 	}
 182:Src/Settings/baseTrack.h **** 
 183:Src/Settings/baseTrack.h **** 	// grouped steps
 184:Src/Settings/baseTrack.h **** 	uint16_t *grouped_steps() {
ARM GAS  /var/folders/84/_x1cyy_j36g486tldtwl37280000gn/T//ccHRTYO5.s 			page 5


 185:Src/Settings/baseTrack.h **** 		return &data_->grouped_steps_;
 186:Src/Settings/baseTrack.h **** 	}
 187:Src/Settings/baseTrack.h **** 
 188:Src/Settings/baseTrack.h **** 	bool step_is_grouped(int step_index) {
 189:Src/Settings/baseTrack.h **** 		return *grouped_steps() & (1 << step_index);
 190:Src/Settings/baseTrack.h **** 	}
 191:Src/Settings/baseTrack.h **** 
 192:Src/Settings/baseTrack.h **** 	void toggle_grouped_step(int step_index) {
 193:Src/Settings/baseTrack.h **** 		uint16_t flags = *grouped_steps();
 194:Src/Settings/baseTrack.h **** 		*grouped_steps() = flags ^ (1 << step_index);
 195:Src/Settings/baseTrack.h **** 	}
 196:Src/Settings/baseTrack.h **** 
 197:Src/Settings/baseTrack.h **** 	/***************
 198:Src/Settings/baseTrack.h **** 	*	Methods
 199:Src/Settings/baseTrack.h **** 	***************/
 200:Src/Settings/baseTrack.h **** 
 201:Src/Settings/baseTrack.h **** 	void clear() {
 202:Src/Settings/baseTrack.h **** 		set_label("");
 203:Src/Settings/baseTrack.h **** 		set_port(0);
 204:Src/Settings/baseTrack.h **** 		set_channel(0);
 205:Src/Settings/baseTrack.h **** 		set_delay(0);
 206:Src/Settings/baseTrack.h **** 		set_swing(8);
 207:Src/Settings/baseTrack.h **** 		set_humanise(0);
 208:Src/Settings/baseTrack.h **** 		*grouped_steps() = 0xFFFF;
 209:Src/Settings/baseTrack.h **** 		set_clock_mode(PositionEngine::FORWARD);
 210:Src/Settings/baseTrack.h **** 		set_clock_speed(ClockEngine::WHOLE_16TH);
 211:Src/Settings/baseTrack.h **** 		clear_pattern_list();
 212:Src/Settings/baseTrack.h **** 	}
 213:Src/Settings/baseTrack.h **** 
 214:Src/Settings/baseTrack.h **** 	// patterns
 215:Src/Settings/baseTrack.h **** 	inline uint8_t available_patterns() {
 216:Src/Settings/baseTrack.h **** 		return pattern_pool->size_;
 217:Src/Settings/baseTrack.h **** 	}
 218:Src/Settings/baseTrack.h **** 
 219:Src/Settings/baseTrack.h **** 	inline uint8_t num_patterns() {
  39              		.loc 2 219 17 view .LVU2
  40              	.LBB100:
 220:Src/Settings/baseTrack.h **** 		return pattern_list->size_;
  41              		.loc 2 220 3 view .LVU3
  42              		.loc 2 220 24 is_stmt 0 view .LVU4
  43 0000 8B68     		ldr	r3, [r1, #8]
  44              	.LBE100:
  45              	.LBE99:
  46              		.loc 1 7 40 view .LVU5
  47 0002 93F8FFC0 		ldrb	ip, [r3, #255]	@ zero_extendqisi2
  48              		.loc 1 7 2 view .LVU6
  49 0006 9445     		cmp	ip, r2
  50 0008 01DC     		bgt	.L9
   8:Src/Ui/clipBoard.cpp **** 		pattern_type_ = track.type();
   9:Src/Ui/clipBoard.cpp **** 		pattern_ = track.pattern.data(pattern_index);
  10:Src/Ui/clipBoard.cpp **** 		return true;
  11:Src/Ui/clipBoard.cpp **** 	}
  12:Src/Ui/clipBoard.cpp **** 	return false;
  51              		.loc 1 12 9 view .LVU7
  52 000a 0020     		movs	r0, #0
  53              	.LVL1:
  13:Src/Ui/clipBoard.cpp **** }
ARM GAS  /var/folders/84/_x1cyy_j36g486tldtwl37280000gn/T//ccHRTYO5.s 			page 6


  54              		.loc 1 13 1 view .LVU8
  55 000c 7047     		bx	lr
  56              	.LVL2:
  57              	.L9:
   8:Src/Ui/clipBoard.cpp **** 		pattern_type_ = track.type();
  58              		.loc 1 8 3 is_stmt 1 view .LVU9
  59              	.LBB101:
  60              	.LBI101:
  71:Src/Settings/baseTrack.h **** 		return data_->type_;
  61              		.loc 2 71 10 view .LVU10
  62              	.LBB102:
  72:Src/Settings/baseTrack.h **** 	}
  63              		.loc 2 72 3 view .LVU11
  64              	.LBE102:
  65              	.LBE101:
   6:Src/Ui/clipBoard.cpp **** 	if (pattern_index < track.num_patterns()) {
  66              		.loc 1 6 63 is_stmt 0 view .LVU12
  67 000e 10B5     		push	{r4, lr}
  68              		.cfi_def_cfa_offset 8
  69              		.cfi_offset 4, -8
  70              		.cfi_offset 14, -4
  71              	.LBB103:
  72              	.LBB104:
  73              		.file 3 "Src/Settings/pattern.h"
   1:Src/Settings/pattern.h **** #ifndef Pattern_h
   2:Src/Settings/pattern.h **** #define Pattern_h
   3:Src/Settings/pattern.h **** 
   4:Src/Settings/pattern.h **** #include "trackData.h"
   5:Src/Settings/pattern.h **** #include "uiText.h"
   6:Src/Settings/pattern.h **** 
   7:Src/Settings/pattern.h **** // base pattern
   8:Src/Settings/pattern.h **** 
   9:Src/Settings/pattern.h **** class Pattern {
  10:Src/Settings/pattern.h **** 
  11:Src/Settings/pattern.h **** public:
  12:Src/Settings/pattern.h **** 
  13:Src/Settings/pattern.h **** 	void init(TrackData::List *list) {
  14:Src/Settings/pattern.h **** 		list_ = list;
  15:Src/Settings/pattern.h **** 	}
  16:Src/Settings/pattern.h **** 
  17:Src/Settings/pattern.h **** 	constexpr TrackData::Pattern &data(uint8_t index) {
  18:Src/Settings/pattern.h **** 		return TrackData::pattern_[list_->entry_[index]];
  74              		.loc 3 18 49 view .LVU13
  75 0010 D1E90014 		ldrd	r1, r4, [r1]
  76              	.LVL3:
  77              		.loc 3 18 49 view .LVU14
  78              	.LBE104:
  79              	.LBE103:
   8:Src/Ui/clipBoard.cpp **** 		pattern_ = track.pattern.data(pattern_index);
  80              		.loc 1 8 29 view .LVU15
  81 0014 2478     		ldrb	r4, [r4]	@ zero_extendqisi2
  82 0016 40F8044B 		str	r4, [r0], #4
  83              	.LVL4:
  84              	.LBB107:
  85              	.LBB105:
  86              		.loc 3 18 49 view .LVU16
  87 001a D2B2     		uxtb	r2, r2
ARM GAS  /var/folders/84/_x1cyy_j36g486tldtwl37280000gn/T//ccHRTYO5.s 			page 7


  88              	.LVL5:
  89              		.loc 3 18 49 view .LVU17
  90              	.LBE105:
  91              	.LBE107:
   9:Src/Ui/clipBoard.cpp **** 		return true;
  92              		.loc 1 9 12 view .LVU18
  93 001c 044B     		ldr	r3, .L10
   9:Src/Ui/clipBoard.cpp **** 		return true;
  94              		.loc 1 9 3 is_stmt 1 view .LVU19
  95              	.LVL6:
  96              	.LBB108:
  97              	.LBI103:
  17:Src/Settings/pattern.h **** 		return TrackData::pattern_[list_->entry_[index]];
  98              		.loc 3 17 32 view .LVU20
  99              	.LBB106:
 100              		.loc 3 18 3 view .LVU21
 101              		.loc 3 18 49 is_stmt 0 view .LVU22
 102 001e 11F802E0 		ldrb	lr, [r1, r2]	@ zero_extendqisi2
 103              	.LBE106:
 104              	.LBE108:
   9:Src/Ui/clipBoard.cpp **** 		return true;
 105              		.loc 1 9 12 view .LVU23
 106 0022 B822     		movs	r2, #184
 107 0024 02FB0E31 		mla	r1, r2, lr, r3
 108 0028 FFF7FEFF 		bl	memcpy
 109              	.LVL7:
  10:Src/Ui/clipBoard.cpp **** 	}
 110              		.loc 1 10 3 is_stmt 1 view .LVU24
  10:Src/Ui/clipBoard.cpp **** 	}
 111              		.loc 1 10 10 is_stmt 0 view .LVU25
 112 002c 0120     		movs	r0, #1
 113              		.loc 1 13 1 view .LVU26
 114 002e 10BD     		pop	{r4, pc}
 115              	.L11:
 116              		.align	2
 117              	.L10:
 118 0030 00000000 		.word	_ZN9TrackData8pattern_E
 119              		.cfi_endproc
 120              	.LFE2487:
 122              		.section	.text._ZN9ClipBoard13paste_patternER5Tracki,"ax",%progbits
 123              		.align	1
 124              		.p2align 2,,3
 125              		.global	_ZN9ClipBoard13paste_patternER5Tracki
 126              		.syntax unified
 127              		.thumb
 128              		.thumb_func
 129              		.fpu fpv4-sp-d16
 131              	_ZN9ClipBoard13paste_patternER5Tracki:
 132              	.LVL8:
 133              	.LFB2488:
  14:Src/Ui/clipBoard.cpp **** 
  15:Src/Ui/clipBoard.cpp **** bool ClipBoard::paste_pattern(Track &track, int pattern_index) {
 134              		.loc 1 15 64 is_stmt 1 view -0
 135              		.cfi_startproc
 136              		@ args = 0, pretend = 0, frame = 0
 137              		@ frame_needed = 0, uses_anonymous_args = 0
  16:Src/Ui/clipBoard.cpp **** 	if (pattern_pasteable(track)) {
ARM GAS  /var/folders/84/_x1cyy_j36g486tldtwl37280000gn/T//ccHRTYO5.s 			page 8


 138              		.loc 1 16 2 view .LVU28
  15:Src/Ui/clipBoard.cpp **** 	if (pattern_pasteable(track)) {
 139              		.loc 1 15 64 is_stmt 0 view .LVU29
 140 0000 F8B5     		push	{r3, r4, r5, r6, r7, lr}
 141              		.cfi_def_cfa_offset 24
 142              		.cfi_offset 3, -24
 143              		.cfi_offset 4, -20
 144              		.cfi_offset 5, -16
 145              		.cfi_offset 6, -12
 146              		.cfi_offset 7, -8
 147              		.cfi_offset 14, -4
  15:Src/Ui/clipBoard.cpp **** 	if (pattern_pasteable(track)) {
 148              		.loc 1 15 64 view .LVU30
 149 0002 0D46     		mov	r5, r1
 150              	.LVL9:
 151              	.LBB109:
 152              	.LBI109:
 153              		.file 4 "Src/Ui/clipboard.h"
   1:Src/Ui/clipboard.h **** #ifndef ClipBoard_h
   2:Src/Ui/clipboard.h **** #define ClipBoard_h
   3:Src/Ui/clipboard.h **** 
   4:Src/Ui/clipboard.h **** #include "track.h"
   5:Src/Ui/clipboard.h **** 
   6:Src/Ui/clipboard.h **** class ClipBoard {
   7:Src/Ui/clipboard.h **** 
   8:Src/Ui/clipboard.h **** public:
   9:Src/Ui/clipboard.h **** 
  10:Src/Ui/clipboard.h **** 	void init() {
  11:Src/Ui/clipboard.h **** 		pattern_type_ = -1;
  12:Src/Ui/clipboard.h **** 	}
  13:Src/Ui/clipboard.h **** 
  14:Src/Ui/clipboard.h **** 	bool pattern_pasteable(Track &track) {
 154              		.loc 4 14 7 is_stmt 1 view .LVU31
 155              	.LBB110:
  15:Src/Ui/clipboard.h **** 		return track.type() == pattern_type_ && has_pattern() == true;
 156              		.loc 4 15 3 view .LVU32
 157              	.LBB111:
 158              	.LBI111:
  71:Src/Settings/baseTrack.h **** 		return data_->type_;
 159              		.loc 2 71 10 view .LVU33
 160              	.LBB112:
  72:Src/Settings/baseTrack.h **** 	}
 161              		.loc 2 72 3 view .LVU34
  72:Src/Settings/baseTrack.h **** 	}
 162              		.loc 2 72 17 is_stmt 0 view .LVU35
 163 0004 4968     		ldr	r1, [r1, #4]
 164              	.LVL10:
  72:Src/Settings/baseTrack.h **** 	}
 165              		.loc 2 72 17 view .LVU36
 166              	.LBE112:
 167              	.LBE111:
 168              		.loc 4 15 40 view .LVU37
 169 0006 0368     		ldr	r3, [r0]
 170              		.loc 4 15 20 view .LVU38
 171 0008 0C78     		ldrb	r4, [r1]	@ zero_extendqisi2
 172              		.loc 4 15 40 view .LVU39
 173 000a 9C42     		cmp	r4, r3
ARM GAS  /var/folders/84/_x1cyy_j36g486tldtwl37280000gn/T//ccHRTYO5.s 			page 9


 174 000c 01D0     		beq	.L46
 175              	.LBE110:
 176              	.LBE109:
  17:Src/Ui/clipBoard.cpp **** 		str.write(track.pattern.label(pattern_index));
  18:Src/Ui/clipBoard.cpp **** 		track.pattern.data(pattern_index) = pattern_;
  19:Src/Ui/clipBoard.cpp **** 		track.pattern.set_label(pattern_index, str.read());
  20:Src/Ui/clipBoard.cpp **** 		return true;
  21:Src/Ui/clipBoard.cpp **** 	}
  22:Src/Ui/clipBoard.cpp **** 	return false;
 177              		.loc 1 22 9 view .LVU40
 178 000e 0020     		movs	r0, #0
 179              	.LVL11:
  23:Src/Ui/clipBoard.cpp **** }
 180              		.loc 1 23 1 view .LVU41
 181 0010 F8BD     		pop	{r3, r4, r5, r6, r7, pc}
 182              	.LVL12:
 183              	.L46:
 184              		.loc 1 23 1 view .LVU42
 185 0012 0446     		mov	r4, r0
 186              	.LVL13:
  17:Src/Ui/clipBoard.cpp **** 		str.write(track.pattern.label(pattern_index));
 187              		.loc 1 17 3 is_stmt 1 view .LVU43
 188              	.LBB113:
 189              	.LBI113:
  19:Src/Settings/pattern.h **** 	}
  20:Src/Settings/pattern.h **** 
  21:Src/Settings/pattern.h **** 	constexpr uint32_t* step(uint8_t index, uint8_t step_index) {
  22:Src/Settings/pattern.h **** 		return &data(index).step_[step_index].serial_[0];
  23:Src/Settings/pattern.h **** 	}
  24:Src/Settings/pattern.h **** 
  25:Src/Settings/pattern.h **** 	constexpr uint32_t* random_min(uint8_t index) {
  26:Src/Settings/pattern.h **** 		return &data(index).random_min_.serial_[0];
  27:Src/Settings/pattern.h **** 	}
  28:Src/Settings/pattern.h **** 
  29:Src/Settings/pattern.h **** 	constexpr uint32_t* random_max(uint8_t index) {
  30:Src/Settings/pattern.h **** 		return &data(index).random_max_.serial_[0];
  31:Src/Settings/pattern.h **** 	}
  32:Src/Settings/pattern.h **** 
  33:Src/Settings/pattern.h **** 	constexpr uint16_t* random_mask(uint8_t index, int step_item) {
  34:Src/Settings/pattern.h **** 		return &data(index).random_mask_[step_item];
  35:Src/Settings/pattern.h **** 	}
  36:Src/Settings/pattern.h **** 
  37:Src/Settings/pattern.h **** 	const char* label(uint8_t index) {
 190              		.loc 3 37 14 view .LVU44
 191              	.LBB114:
  38:Src/Settings/pattern.h **** 		return data(index).label_;
 192              		.loc 3 38 3 view .LVU45
 193              	.LBB115:
 194              	.LBI115:
  17:Src/Settings/pattern.h **** 		return TrackData::pattern_[list_->entry_[index]];
 195              		.loc 3 17 32 view .LVU46
 196              	.LBB116:
  18:Src/Settings/pattern.h **** 	}
 197              		.loc 3 18 3 view .LVU47
 198 0014 D6B2     		uxtb	r6, r2
  18:Src/Settings/pattern.h **** 	}
 199              		.loc 3 18 49 is_stmt 0 view .LVU48
ARM GAS  /var/folders/84/_x1cyy_j36g486tldtwl37280000gn/T//ccHRTYO5.s 			page 10


 200 0016 2868     		ldr	r0, [r5]
 201              	.LVL14:
  18:Src/Settings/pattern.h **** 	}
 202              		.loc 3 18 49 view .LVU49
 203              	.LBE116:
 204              	.LBE115:
 205              	.LBE114:
 206              	.LBE113:
 207              	.LBB120:
 208              	.LBB121:
 209              		.file 5 "/Users/joostbooy/Desktop/Code/stm32/lib/utils/stringBuilder.h"
   1:/Users/joostbooy/Desktop/Code/stm32/lib/utils/stringBuilder.h **** #ifndef StringBuilder_h
   2:/Users/joostbooy/Desktop/Code/stm32/lib/utils/stringBuilder.h **** #define StringBuilder_h
   3:/Users/joostbooy/Desktop/Code/stm32/lib/utils/stringBuilder.h **** 
   4:/Users/joostbooy/Desktop/Code/stm32/lib/utils/stringBuilder.h **** #include "stmf4lib.h"
   5:/Users/joostbooy/Desktop/Code/stm32/lib/utils/stringBuilder.h **** 
   6:/Users/joostbooy/Desktop/Code/stm32/lib/utils/stringBuilder.h **** class StringBuilder {
   7:/Users/joostbooy/Desktop/Code/stm32/lib/utils/stringBuilder.h **** 
   8:/Users/joostbooy/Desktop/Code/stm32/lib/utils/stringBuilder.h **** public:
   9:/Users/joostbooy/Desktop/Code/stm32/lib/utils/stringBuilder.h **** 
  10:/Users/joostbooy/Desktop/Code/stm32/lib/utils/stringBuilder.h **** 	StringBuilder(char* ptr, int kMax) {
  11:/Users/joostbooy/Desktop/Code/stm32/lib/utils/stringBuilder.h **** 		char_buff_ = ptr;
  12:/Users/joostbooy/Desktop/Code/stm32/lib/utils/stringBuilder.h **** 		kMax_ = kMax;
  13:/Users/joostbooy/Desktop/Code/stm32/lib/utils/stringBuilder.h **** 		clear();
  14:/Users/joostbooy/Desktop/Code/stm32/lib/utils/stringBuilder.h **** 	}
  15:/Users/joostbooy/Desktop/Code/stm32/lib/utils/stringBuilder.h **** 
  16:/Users/joostbooy/Desktop/Code/stm32/lib/utils/stringBuilder.h **** 	void clear() {
  17:/Users/joostbooy/Desktop/Code/stm32/lib/utils/stringBuilder.h **** 		pos = 0;
  18:/Users/joostbooy/Desktop/Code/stm32/lib/utils/stringBuilder.h **** 		char_buff_[0] = '\0';
  19:/Users/joostbooy/Desktop/Code/stm32/lib/utils/stringBuilder.h **** 	}
  20:/Users/joostbooy/Desktop/Code/stm32/lib/utils/stringBuilder.h **** 
  21:/Users/joostbooy/Desktop/Code/stm32/lib/utils/stringBuilder.h **** 	uint8_t length() {
  22:/Users/joostbooy/Desktop/Code/stm32/lib/utils/stringBuilder.h **** 		return pos;
  23:/Users/joostbooy/Desktop/Code/stm32/lib/utils/stringBuilder.h **** 	}
  24:/Users/joostbooy/Desktop/Code/stm32/lib/utils/stringBuilder.h **** 
  25:/Users/joostbooy/Desktop/Code/stm32/lib/utils/stringBuilder.h **** 	const char* read()  {
  26:/Users/joostbooy/Desktop/Code/stm32/lib/utils/stringBuilder.h **** 		return char_buff_;
  27:/Users/joostbooy/Desktop/Code/stm32/lib/utils/stringBuilder.h **** 	}
  28:/Users/joostbooy/Desktop/Code/stm32/lib/utils/stringBuilder.h **** 
  29:/Users/joostbooy/Desktop/Code/stm32/lib/utils/stringBuilder.h **** 	void truncate(uint8_t last) {
  30:/Users/joostbooy/Desktop/Code/stm32/lib/utils/stringBuilder.h **** 		if (last < pos) {
  31:/Users/joostbooy/Desktop/Code/stm32/lib/utils/stringBuilder.h **** 			pos = last;
  32:/Users/joostbooy/Desktop/Code/stm32/lib/utils/stringBuilder.h **** 			char_buff_[pos] = '\0';
  33:/Users/joostbooy/Desktop/Code/stm32/lib/utils/stringBuilder.h **** 		}
  34:/Users/joostbooy/Desktop/Code/stm32/lib/utils/stringBuilder.h **** 	}
  35:/Users/joostbooy/Desktop/Code/stm32/lib/utils/stringBuilder.h **** 
  36:/Users/joostbooy/Desktop/Code/stm32/lib/utils/stringBuilder.h **** 	// Char
  37:/Users/joostbooy/Desktop/Code/stm32/lib/utils/stringBuilder.h **** 	const char* append(const char* txt) {
  38:/Users/joostbooy/Desktop/Code/stm32/lib/utils/stringBuilder.h **** 		copy(&char_buff_[pos], txt);
  39:/Users/joostbooy/Desktop/Code/stm32/lib/utils/stringBuilder.h **** 		return read();
  40:/Users/joostbooy/Desktop/Code/stm32/lib/utils/stringBuilder.h **** 	}
  41:/Users/joostbooy/Desktop/Code/stm32/lib/utils/stringBuilder.h **** 
  42:/Users/joostbooy/Desktop/Code/stm32/lib/utils/stringBuilder.h **** 	const char* prepend(const char* txt) {
  43:/Users/joostbooy/Desktop/Code/stm32/lib/utils/stringBuilder.h **** 		char copy_buff[kMax_];
  44:/Users/joostbooy/Desktop/Code/stm32/lib/utils/stringBuilder.h **** 		for (int i = 0; i <= pos; ++i) {
  45:/Users/joostbooy/Desktop/Code/stm32/lib/utils/stringBuilder.h **** 			copy_buff[i] = char_buff_[i];
  46:/Users/joostbooy/Desktop/Code/stm32/lib/utils/stringBuilder.h **** 		}
ARM GAS  /var/folders/84/_x1cyy_j36g486tldtwl37280000gn/T//ccHRTYO5.s 			page 11


  47:/Users/joostbooy/Desktop/Code/stm32/lib/utils/stringBuilder.h **** 		write(txt, &copy_buff[0]);
  48:/Users/joostbooy/Desktop/Code/stm32/lib/utils/stringBuilder.h **** 		return read();
  49:/Users/joostbooy/Desktop/Code/stm32/lib/utils/stringBuilder.h **** 	}
  50:/Users/joostbooy/Desktop/Code/stm32/lib/utils/stringBuilder.h **** 
  51:/Users/joostbooy/Desktop/Code/stm32/lib/utils/stringBuilder.h **** 	// Int
  52:/Users/joostbooy/Desktop/Code/stm32/lib/utils/stringBuilder.h **** 	const char* append(int32_t value) {
  53:/Users/joostbooy/Desktop/Code/stm32/lib/utils/stringBuilder.h **** 		char int_buffer[kMax_];
  54:/Users/joostbooy/Desktop/Code/stm32/lib/utils/stringBuilder.h **** 		itoa(value, int_buffer, 10);
  55:/Users/joostbooy/Desktop/Code/stm32/lib/utils/stringBuilder.h **** 		copy(&char_buff_[pos], int_buffer);
  56:/Users/joostbooy/Desktop/Code/stm32/lib/utils/stringBuilder.h **** 		return read();
  57:/Users/joostbooy/Desktop/Code/stm32/lib/utils/stringBuilder.h **** 	}
  58:/Users/joostbooy/Desktop/Code/stm32/lib/utils/stringBuilder.h **** 
  59:/Users/joostbooy/Desktop/Code/stm32/lib/utils/stringBuilder.h **** 	const char* prepend(int32_t value) {
  60:/Users/joostbooy/Desktop/Code/stm32/lib/utils/stringBuilder.h **** 		char copy_buff[kMax_];
  61:/Users/joostbooy/Desktop/Code/stm32/lib/utils/stringBuilder.h **** 		for (int i = 0; i <= pos; ++i) {
  62:/Users/joostbooy/Desktop/Code/stm32/lib/utils/stringBuilder.h **** 			copy_buff[i] = char_buff_[i];
  63:/Users/joostbooy/Desktop/Code/stm32/lib/utils/stringBuilder.h **** 		}
  64:/Users/joostbooy/Desktop/Code/stm32/lib/utils/stringBuilder.h **** 		write(value, &copy_buff[0]);
  65:/Users/joostbooy/Desktop/Code/stm32/lib/utils/stringBuilder.h **** 		return read();
  66:/Users/joostbooy/Desktop/Code/stm32/lib/utils/stringBuilder.h **** 	}
  67:/Users/joostbooy/Desktop/Code/stm32/lib/utils/stringBuilder.h **** 
  68:/Users/joostbooy/Desktop/Code/stm32/lib/utils/stringBuilder.h **** 	// Builders
  69:/Users/joostbooy/Desktop/Code/stm32/lib/utils/stringBuilder.h **** 	template <typename type_a>
  70:/Users/joostbooy/Desktop/Code/stm32/lib/utils/stringBuilder.h **** 	const char* write(type_a a) {
  71:/Users/joostbooy/Desktop/Code/stm32/lib/utils/stringBuilder.h **** 		clear();
 210              		.loc 5 71 8 view .LVU50
 211 0018 D4F8C070 		ldr	r7, [r4, #192]
 212              	.LBE121:
 213              	.LBE120:
 214              	.LBB131:
 215              	.LBB119:
 216              	.LBB118:
 217              	.LBB117:
  18:Src/Settings/pattern.h **** 	}
 218              		.loc 3 18 49 view .LVU51
 219 001c 10F806C0 		ldrb	ip, [r0, r6]	@ zero_extendqisi2
 220              	.LVL15:
  18:Src/Settings/pattern.h **** 	}
 221              		.loc 3 18 49 view .LVU52
 222              	.LBE117:
 223              	.LBE118:
 224              	.LBE119:
 225              	.LBE131:
 226              	.LBB132:
 227              	.LBI120:
  70:/Users/joostbooy/Desktop/Code/stm32/lib/utils/stringBuilder.h **** 		clear();
 228              		.loc 5 70 14 is_stmt 1 view .LVU53
 229              	.LBB130:
 230              	.LBB122:
 231              	.LBI122:
  16:/Users/joostbooy/Desktop/Code/stm32/lib/utils/stringBuilder.h **** 		pos = 0;
 232              		.loc 5 16 7 view .LVU54
 233              	.LBB123:
  17:/Users/joostbooy/Desktop/Code/stm32/lib/utils/stringBuilder.h **** 		char_buff_[0] = '\0';
 234              		.loc 5 17 3 view .LVU55
  17:/Users/joostbooy/Desktop/Code/stm32/lib/utils/stringBuilder.h **** 		char_buff_[0] = '\0';
 235              		.loc 5 17 7 is_stmt 0 view .LVU56
ARM GAS  /var/folders/84/_x1cyy_j36g486tldtwl37280000gn/T//ccHRTYO5.s 			page 12


 236 0020 0022     		movs	r2, #0
 237              	.LVL16:
  17:/Users/joostbooy/Desktop/Code/stm32/lib/utils/stringBuilder.h **** 		char_buff_[0] = '\0';
 238              		.loc 5 17 7 view .LVU57
 239 0022 84F8BC20 		strb	r2, [r4, #188]
  18:/Users/joostbooy/Desktop/Code/stm32/lib/utils/stringBuilder.h **** 	}
 240              		.loc 5 18 3 is_stmt 1 view .LVU58
  18:/Users/joostbooy/Desktop/Code/stm32/lib/utils/stringBuilder.h **** 	}
 241              		.loc 5 18 17 is_stmt 0 view .LVU59
 242 0026 3A70     		strb	r2, [r7]
 243              	.LVL17:
  18:/Users/joostbooy/Desktop/Code/stm32/lib/utils/stringBuilder.h **** 	}
 244              		.loc 5 18 17 view .LVU60
 245              	.LBE123:
 246              	.LBE122:
 247              	.LBB124:
 248              	.LBI124:
  37:/Users/joostbooy/Desktop/Code/stm32/lib/utils/stringBuilder.h **** 		copy(&char_buff_[pos], txt);
 249              		.loc 5 37 14 is_stmt 1 view .LVU61
 250              	.LBB125:
  38:/Users/joostbooy/Desktop/Code/stm32/lib/utils/stringBuilder.h **** 		return read();
 251              		.loc 5 38 3 view .LVU62
 252              	.LBB126:
 253              	.LBI126:
  72:/Users/joostbooy/Desktop/Code/stm32/lib/utils/stringBuilder.h **** 		append(a);
  73:/Users/joostbooy/Desktop/Code/stm32/lib/utils/stringBuilder.h **** 		return read();
  74:/Users/joostbooy/Desktop/Code/stm32/lib/utils/stringBuilder.h **** 	}
  75:/Users/joostbooy/Desktop/Code/stm32/lib/utils/stringBuilder.h **** 
  76:/Users/joostbooy/Desktop/Code/stm32/lib/utils/stringBuilder.h **** 	template <typename type_a, typename type_b>
  77:/Users/joostbooy/Desktop/Code/stm32/lib/utils/stringBuilder.h **** 	const char* write(type_a a, type_b b) {
  78:/Users/joostbooy/Desktop/Code/stm32/lib/utils/stringBuilder.h **** 		clear();
  79:/Users/joostbooy/Desktop/Code/stm32/lib/utils/stringBuilder.h **** 		append(a);
  80:/Users/joostbooy/Desktop/Code/stm32/lib/utils/stringBuilder.h **** 		append(b);
  81:/Users/joostbooy/Desktop/Code/stm32/lib/utils/stringBuilder.h **** 		return read();
  82:/Users/joostbooy/Desktop/Code/stm32/lib/utils/stringBuilder.h **** 	}
  83:/Users/joostbooy/Desktop/Code/stm32/lib/utils/stringBuilder.h **** 
  84:/Users/joostbooy/Desktop/Code/stm32/lib/utils/stringBuilder.h **** 	template <typename type_a, typename type_b, typename type_c>
  85:/Users/joostbooy/Desktop/Code/stm32/lib/utils/stringBuilder.h **** 	const char* write(type_a a, type_b b, type_c c) {
  86:/Users/joostbooy/Desktop/Code/stm32/lib/utils/stringBuilder.h **** 		clear();
  87:/Users/joostbooy/Desktop/Code/stm32/lib/utils/stringBuilder.h **** 		append(a);
  88:/Users/joostbooy/Desktop/Code/stm32/lib/utils/stringBuilder.h **** 		append(b);
  89:/Users/joostbooy/Desktop/Code/stm32/lib/utils/stringBuilder.h **** 		append(c);
  90:/Users/joostbooy/Desktop/Code/stm32/lib/utils/stringBuilder.h **** 		return read();
  91:/Users/joostbooy/Desktop/Code/stm32/lib/utils/stringBuilder.h **** 	}
  92:/Users/joostbooy/Desktop/Code/stm32/lib/utils/stringBuilder.h **** 
  93:/Users/joostbooy/Desktop/Code/stm32/lib/utils/stringBuilder.h **** 	template <typename type_a, typename type_b, typename type_c, typename type_d>
  94:/Users/joostbooy/Desktop/Code/stm32/lib/utils/stringBuilder.h **** 	const char* write(type_a a, type_b b, type_c c, type_d d) {
  95:/Users/joostbooy/Desktop/Code/stm32/lib/utils/stringBuilder.h **** 		clear();
  96:/Users/joostbooy/Desktop/Code/stm32/lib/utils/stringBuilder.h **** 		append(a);
  97:/Users/joostbooy/Desktop/Code/stm32/lib/utils/stringBuilder.h **** 		append(b);
  98:/Users/joostbooy/Desktop/Code/stm32/lib/utils/stringBuilder.h **** 		append(c);
  99:/Users/joostbooy/Desktop/Code/stm32/lib/utils/stringBuilder.h **** 		append(d);
 100:/Users/joostbooy/Desktop/Code/stm32/lib/utils/stringBuilder.h **** 		return read();
 101:/Users/joostbooy/Desktop/Code/stm32/lib/utils/stringBuilder.h **** 	}
 102:/Users/joostbooy/Desktop/Code/stm32/lib/utils/stringBuilder.h **** 
 103:/Users/joostbooy/Desktop/Code/stm32/lib/utils/stringBuilder.h **** 	template <typename type_a, typename type_b, typename type_c, typename type_d, typename type_e>
 104:/Users/joostbooy/Desktop/Code/stm32/lib/utils/stringBuilder.h **** 	const char* write(type_a a, type_b b, type_c c, type_d d, type_e e) {
ARM GAS  /var/folders/84/_x1cyy_j36g486tldtwl37280000gn/T//ccHRTYO5.s 			page 13


 105:/Users/joostbooy/Desktop/Code/stm32/lib/utils/stringBuilder.h **** 		clear();
 106:/Users/joostbooy/Desktop/Code/stm32/lib/utils/stringBuilder.h **** 		append(a);
 107:/Users/joostbooy/Desktop/Code/stm32/lib/utils/stringBuilder.h **** 		append(b);
 108:/Users/joostbooy/Desktop/Code/stm32/lib/utils/stringBuilder.h **** 		append(c);
 109:/Users/joostbooy/Desktop/Code/stm32/lib/utils/stringBuilder.h **** 		append(d);
 110:/Users/joostbooy/Desktop/Code/stm32/lib/utils/stringBuilder.h **** 		append(e);
 111:/Users/joostbooy/Desktop/Code/stm32/lib/utils/stringBuilder.h **** 		return read();
 112:/Users/joostbooy/Desktop/Code/stm32/lib/utils/stringBuilder.h **** 	}
 113:/Users/joostbooy/Desktop/Code/stm32/lib/utils/stringBuilder.h **** 
 114:/Users/joostbooy/Desktop/Code/stm32/lib/utils/stringBuilder.h **** 	template <typename type_a, typename type_b, typename type_c, typename type_d, typename type_e, typ
 115:/Users/joostbooy/Desktop/Code/stm32/lib/utils/stringBuilder.h **** 	const char* write(type_a a, type_b b, type_c c, type_d d, type_e e, type_f f) {
 116:/Users/joostbooy/Desktop/Code/stm32/lib/utils/stringBuilder.h **** 		clear();
 117:/Users/joostbooy/Desktop/Code/stm32/lib/utils/stringBuilder.h **** 		append(a);
 118:/Users/joostbooy/Desktop/Code/stm32/lib/utils/stringBuilder.h **** 		append(b);
 119:/Users/joostbooy/Desktop/Code/stm32/lib/utils/stringBuilder.h **** 		append(c);
 120:/Users/joostbooy/Desktop/Code/stm32/lib/utils/stringBuilder.h **** 		append(d);
 121:/Users/joostbooy/Desktop/Code/stm32/lib/utils/stringBuilder.h **** 		append(e);
 122:/Users/joostbooy/Desktop/Code/stm32/lib/utils/stringBuilder.h **** 		append(f);
 123:/Users/joostbooy/Desktop/Code/stm32/lib/utils/stringBuilder.h **** 		return read();
 124:/Users/joostbooy/Desktop/Code/stm32/lib/utils/stringBuilder.h **** 	}
 125:/Users/joostbooy/Desktop/Code/stm32/lib/utils/stringBuilder.h **** 
 126:/Users/joostbooy/Desktop/Code/stm32/lib/utils/stringBuilder.h **** private:
 127:/Users/joostbooy/Desktop/Code/stm32/lib/utils/stringBuilder.h **** 	uint8_t pos = 0;
 128:/Users/joostbooy/Desktop/Code/stm32/lib/utils/stringBuilder.h **** 	char* char_buff_;
 129:/Users/joostbooy/Desktop/Code/stm32/lib/utils/stringBuilder.h **** 	int kMax_;
 130:/Users/joostbooy/Desktop/Code/stm32/lib/utils/stringBuilder.h **** 
 131:/Users/joostbooy/Desktop/Code/stm32/lib/utils/stringBuilder.h **** 	void copy(char* dest, const char* src) {
 254              		.loc 5 131 7 view .LVU63
 255              	.LBB127:
 132:/Users/joostbooy/Desktop/Code/stm32/lib/utils/stringBuilder.h **** 		if (pos >= kMax_) { return; }
 256              		.loc 5 132 3 view .LVU64
 257 0028 D4F8C410 		ldr	r1, [r4, #196]
 258 002c 0029     		cmp	r1, #0
 259 002e 50DD     		ble	.L47
 260              		.loc 5 132 3 is_stmt 0 view .LVU65
 261 0030 0CEB4C03 		add	r3, ip, ip, lsl #1
 262 0034 CCEBC300 		rsb	r0, ip, r3, lsl #3
 263 0038 C200     		lsls	r2, r0, #3
 264 003a 284F     		ldr	r7, .L49
 265              	.LBE127:
 266              	.LBE126:
  38:/Users/joostbooy/Desktop/Code/stm32/lib/utils/stringBuilder.h **** 		return read();
 267              		.loc 5 38 9 view .LVU66
 268 003c D4F8C000 		ldr	r0, [r4, #192]
 269 0040 02F1FF3E 		add	lr, r2, #-1
 270 0044 BE44     		add	lr, lr, r7
 271 0046 0BE0     		b	.L16
 272              	.LVL18:
 273              	.L48:
 274              	.LBB129:
 275              	.LBB128:
 133:/Users/joostbooy/Desktop/Code/stm32/lib/utils/stringBuilder.h **** 
 134:/Users/joostbooy/Desktop/Code/stm32/lib/utils/stringBuilder.h **** 		while (*src != '\0') {
 135:/Users/joostbooy/Desktop/Code/stm32/lib/utils/stringBuilder.h **** 			*dest++ = *src++;
 276              		.loc 5 135 12 view .LVU67
 277 0048 00F8011B 		strb	r1, [r0], #1
 278              	.LVL19:
ARM GAS  /var/folders/84/_x1cyy_j36g486tldtwl37280000gn/T//ccHRTYO5.s 			page 14


 136:/Users/joostbooy/Desktop/Code/stm32/lib/utils/stringBuilder.h **** 			if (++pos >= kMax_){
 279              		.loc 5 136 4 is_stmt 1 view .LVU68
 280              		.loc 5 136 8 is_stmt 0 view .LVU69
 281 004c 94F8BC30 		ldrb	r3, [r4, #188]	@ zero_extendqisi2
 282              		.loc 5 136 4 view .LVU70
 283 0050 D4F8C420 		ldr	r2, [r4, #196]
 284              		.loc 5 136 8 view .LVU71
 285 0054 0133     		adds	r3, r3, #1
 286 0056 D9B2     		uxtb	r1, r3
 287              		.loc 5 136 4 view .LVU72
 288 0058 9142     		cmp	r1, r2
 289              		.loc 5 136 14 view .LVU73
 290 005a 84F8BC10 		strb	r1, [r4, #188]
 291              		.loc 5 136 4 view .LVU74
 292 005e 03DA     		bge	.L15
 293              	.LVL20:
 294              	.L16:
 134:/Users/joostbooy/Desktop/Code/stm32/lib/utils/stringBuilder.h **** 			*dest++ = *src++;
 295              		.loc 5 134 3 is_stmt 1 view .LVU75
 134:/Users/joostbooy/Desktop/Code/stm32/lib/utils/stringBuilder.h **** 			*dest++ = *src++;
 296              		.loc 5 134 15 view .LVU76
 135:/Users/joostbooy/Desktop/Code/stm32/lib/utils/stringBuilder.h **** 			if (++pos >= kMax_){
 297              		.loc 5 135 4 view .LVU77
 134:/Users/joostbooy/Desktop/Code/stm32/lib/utils/stringBuilder.h **** 			*dest++ = *src++;
 298              		.loc 5 134 10 is_stmt 0 view .LVU78
 299 0060 1EF8011F 		ldrb	r1, [lr, #1]!	@ zero_extendqisi2
 134:/Users/joostbooy/Desktop/Code/stm32/lib/utils/stringBuilder.h **** 			*dest++ = *src++;
 300              		.loc 5 134 15 view .LVU79
 301 0064 0029     		cmp	r1, #0
 302 0066 EFD1     		bne	.L48
 303              	.LVL21:
 304              	.L15:
 137:/Users/joostbooy/Desktop/Code/stm32/lib/utils/stringBuilder.h **** 				break;
 138:/Users/joostbooy/Desktop/Code/stm32/lib/utils/stringBuilder.h **** 			}
 139:/Users/joostbooy/Desktop/Code/stm32/lib/utils/stringBuilder.h **** 		}
 140:/Users/joostbooy/Desktop/Code/stm32/lib/utils/stringBuilder.h **** 		*dest = '\0';
 305              		.loc 5 140 3 is_stmt 1 view .LVU80
 306              		.loc 5 140 9 is_stmt 0 view .LVU81
 307 0068 0023     		movs	r3, #0
 308 006a 0370     		strb	r3, [r0]
 309              	.LVL22:
 310              	.L14:
 311              		.loc 5 140 9 view .LVU82
 312              	.LBE128:
 313              	.LBE129:
  39:/Users/joostbooy/Desktop/Code/stm32/lib/utils/stringBuilder.h **** 	}
 314              		.loc 5 39 3 is_stmt 1 view .LVU83
  39:/Users/joostbooy/Desktop/Code/stm32/lib/utils/stringBuilder.h **** 	}
 315              		.loc 5 39 3 is_stmt 0 view .LVU84
 316              	.LBE125:
 317              	.LBE124:
 318              	.LBE130:
 319              	.LBE132:
  26:/Users/joostbooy/Desktop/Code/stm32/lib/utils/stringBuilder.h **** 	}
 320              		.loc 5 26 3 is_stmt 1 view .LVU85
  26:/Users/joostbooy/Desktop/Code/stm32/lib/utils/stringBuilder.h **** 	}
 321              		.loc 5 26 3 view .LVU86
ARM GAS  /var/folders/84/_x1cyy_j36g486tldtwl37280000gn/T//ccHRTYO5.s 			page 15


  18:Src/Ui/clipBoard.cpp **** 		track.pattern.set_label(pattern_index, str.read());
 322              		.loc 1 18 3 view .LVU87
 323              	.LBB133:
 324              	.LBI133:
  17:Src/Settings/pattern.h **** 		return TrackData::pattern_[list_->entry_[index]];
 325              		.loc 3 17 32 view .LVU88
 326              	.LBB134:
  18:Src/Settings/pattern.h **** 	}
 327              		.loc 3 18 3 view .LVU89
  18:Src/Settings/pattern.h **** 	}
 328              		.loc 3 18 49 is_stmt 0 view .LVU90
 329 006c 2868     		ldr	r0, [r5]
 330 006e 815D     		ldrb	r1, [r0, r6]	@ zero_extendqisi2
 331              	.LBE134:
 332              	.LBE133:
  18:Src/Ui/clipBoard.cpp **** 		track.pattern.set_label(pattern_index, str.read());
 333              		.loc 1 18 37 view .LVU91
 334 0070 B822     		movs	r2, #184
 335 0072 02FB0170 		mla	r0, r2, r1, r7
 336 0076 211D     		adds	r1, r4, #4
 337 0078 FFF7FEFF 		bl	memcpy
 338              	.LVL23:
  19:Src/Ui/clipBoard.cpp **** 		return true;
 339              		.loc 1 19 3 is_stmt 1 view .LVU92
 340              	.LBB135:
 341              	.LBB136:
 342              	.LBB137:
 343              	.LBB138:
  18:Src/Settings/pattern.h **** 	}
 344              		.loc 3 18 49 is_stmt 0 view .LVU93
 345 007c 2D68     		ldr	r5, [r5]
 346              	.LVL24:
  18:Src/Settings/pattern.h **** 	}
 347              		.loc 3 18 49 view .LVU94
 348              	.LBE138:
 349              	.LBE137:
 350              	.LBE136:
 351              	.LBE135:
  19:Src/Ui/clipBoard.cpp **** 		return true;
 352              		.loc 1 19 26 view .LVU95
 353 007e D4F8C040 		ldr	r4, [r4, #192]
 354              	.LVL25:
  26:/Users/joostbooy/Desktop/Code/stm32/lib/utils/stringBuilder.h **** 	}
 355              		.loc 5 26 3 is_stmt 1 view .LVU96
 356              	.LBB147:
 357              	.LBI135:
  39:Src/Settings/pattern.h **** 	};
  40:Src/Settings/pattern.h **** 
  41:Src/Settings/pattern.h **** 	void set_label(uint8_t index, const char* new_label) {
 358              		.loc 3 41 7 view .LVU97
 359              	.LBB145:
  42:Src/Settings/pattern.h **** 		StringUtils::copy(data(index).label_, const_cast<char*>(new_label), TrackData::kMaxLabelLength);
 360              		.loc 3 42 3 view .LVU98
 361              	.LBB140:
 362              	.LBI137:
  17:Src/Settings/pattern.h **** 		return TrackData::pattern_[list_->entry_[index]];
 363              		.loc 3 17 32 view .LVU99
ARM GAS  /var/folders/84/_x1cyy_j36g486tldtwl37280000gn/T//ccHRTYO5.s 			page 16


 364              	.LBB139:
  18:Src/Settings/pattern.h **** 	}
 365              		.loc 3 18 3 view .LVU100
  18:Src/Settings/pattern.h **** 	}
 366              		.loc 3 18 3 is_stmt 0 view .LVU101
 367              	.LBE139:
 368              	.LBE140:
 369              		.loc 3 42 33 view .LVU102
 370 0082 AE5D     		ldrb	r6, [r5, r6]	@ zero_extendqisi2
 371              	.LVL26:
 372              	.LBB141:
 373              	.LBB142:
 374              		.file 6 "/Users/joostbooy/Desktop/Code/stm32/lib/utils/stringUtils.h"
   1:/Users/joostbooy/Desktop/Code/stm32/lib/utils/stringUtils.h **** #ifndef StringUtils_h
   2:/Users/joostbooy/Desktop/Code/stm32/lib/utils/stringUtils.h **** #define StringUtils_h
   3:/Users/joostbooy/Desktop/Code/stm32/lib/utils/stringUtils.h **** 
   4:/Users/joostbooy/Desktop/Code/stm32/lib/utils/stringUtils.h **** class StringUtils {
   5:/Users/joostbooy/Desktop/Code/stm32/lib/utils/stringUtils.h **** 
   6:/Users/joostbooy/Desktop/Code/stm32/lib/utils/stringUtils.h **** public:
   7:/Users/joostbooy/Desktop/Code/stm32/lib/utils/stringUtils.h **** 
   8:/Users/joostbooy/Desktop/Code/stm32/lib/utils/stringUtils.h **** 	static int length(const char* text) {
   9:/Users/joostbooy/Desktop/Code/stm32/lib/utils/stringUtils.h **** 		int length_ = 0;
  10:/Users/joostbooy/Desktop/Code/stm32/lib/utils/stringUtils.h **** 		while (*text++ != '\0') {
  11:/Users/joostbooy/Desktop/Code/stm32/lib/utils/stringUtils.h **** 			++length_;
  12:/Users/joostbooy/Desktop/Code/stm32/lib/utils/stringUtils.h **** 		}
  13:/Users/joostbooy/Desktop/Code/stm32/lib/utils/stringUtils.h **** 		return length_;
  14:/Users/joostbooy/Desktop/Code/stm32/lib/utils/stringUtils.h **** 	}
  15:/Users/joostbooy/Desktop/Code/stm32/lib/utils/stringUtils.h **** 
  16:/Users/joostbooy/Desktop/Code/stm32/lib/utils/stringUtils.h **** 	static void copy(char* dest, char* src, int max_length) {
  17:/Users/joostbooy/Desktop/Code/stm32/lib/utils/stringUtils.h **** 		while (--max_length > 0 && *src != '\0') {
 375              		.loc 6 17 30 view .LVU103
 376 0084 2278     		ldrb	r2, [r4]	@ zero_extendqisi2
 377              	.LBE142:
 378              	.LBE141:
 379              		.loc 3 42 33 view .LVU104
 380 0086 06EB4603 		add	r3, r6, r6, lsl #1
 381 008a C6EBC301 		rsb	r1, r6, r3, lsl #3
 382 008e C800     		lsls	r0, r1, #3
 383 0090 07EBC105 		add	r5, r7, r1, lsl #3
 384              	.LVL27:
 385              	.LBB144:
 386              	.LBI141:
  16:/Users/joostbooy/Desktop/Code/stm32/lib/utils/stringUtils.h **** 		while (--max_length > 0 && *src != '\0') {
 387              		.loc 6 16 14 is_stmt 1 view .LVU105
 388              	.LBB143:
 389              		.loc 6 17 3 view .LVU106
 390              		.loc 6 17 27 view .LVU107
 391              		.loc 6 17 27 is_stmt 0 view .LVU108
 392 0094 FAB1     		cbz	r2, .L20
  18:/Users/joostbooy/Desktop/Code/stm32/lib/utils/stringUtils.h **** 			*dest++ = *src++;
 393              		.loc 6 18 4 is_stmt 1 view .LVU109
 394              	.LVL28:
 395              		.loc 6 18 12 is_stmt 0 view .LVU110
 396 0096 3A54     		strb	r2, [r7, r0]
  17:/Users/joostbooy/Desktop/Code/stm32/lib/utils/stringUtils.h **** 			*dest++ = *src++;
 397              		.loc 6 17 30 view .LVU111
 398 0098 6678     		ldrb	r6, [r4, #1]	@ zero_extendqisi2
ARM GAS  /var/folders/84/_x1cyy_j36g486tldtwl37280000gn/T//ccHRTYO5.s 			page 17


 399              		.loc 6 18 9 view .LVU112
 400 009a 6F1C     		adds	r7, r5, #1
 401              	.LVL29:
  17:/Users/joostbooy/Desktop/Code/stm32/lib/utils/stringUtils.h **** 			*dest++ = *src++;
 402              		.loc 6 17 3 is_stmt 1 view .LVU113
  17:/Users/joostbooy/Desktop/Code/stm32/lib/utils/stringUtils.h **** 			*dest++ = *src++;
 403              		.loc 6 17 27 view .LVU114
  17:/Users/joostbooy/Desktop/Code/stm32/lib/utils/stringUtils.h **** 			*dest++ = *src++;
 404              		.loc 6 17 27 is_stmt 0 view .LVU115
 405 009c AEB1     		cbz	r6, .L18
 406              		.loc 6 18 4 is_stmt 1 view .LVU116
 407              	.LVL30:
 408              		.loc 6 18 12 is_stmt 0 view .LVU117
 409 009e 6E70     		strb	r6, [r5, #1]
  17:/Users/joostbooy/Desktop/Code/stm32/lib/utils/stringUtils.h **** 			*dest++ = *src++;
 410              		.loc 6 17 30 view .LVU118
 411 00a0 A278     		ldrb	r2, [r4, #2]	@ zero_extendqisi2
 412              		.loc 6 18 9 view .LVU119
 413 00a2 AF1C     		adds	r7, r5, #2
 414              	.LVL31:
  17:/Users/joostbooy/Desktop/Code/stm32/lib/utils/stringUtils.h **** 			*dest++ = *src++;
 415              		.loc 6 17 3 is_stmt 1 view .LVU120
  17:/Users/joostbooy/Desktop/Code/stm32/lib/utils/stringUtils.h **** 			*dest++ = *src++;
 416              		.loc 6 17 27 view .LVU121
  17:/Users/joostbooy/Desktop/Code/stm32/lib/utils/stringUtils.h **** 			*dest++ = *src++;
 417              		.loc 6 17 27 is_stmt 0 view .LVU122
 418 00a4 8AB1     		cbz	r2, .L18
 419              		.loc 6 18 4 is_stmt 1 view .LVU123
 420              	.LVL32:
 421              		.loc 6 18 12 is_stmt 0 view .LVU124
 422 00a6 AA70     		strb	r2, [r5, #2]
  17:/Users/joostbooy/Desktop/Code/stm32/lib/utils/stringUtils.h **** 			*dest++ = *src++;
 423              		.loc 6 17 30 view .LVU125
 424 00a8 E378     		ldrb	r3, [r4, #3]	@ zero_extendqisi2
 425              		.loc 6 18 9 view .LVU126
 426 00aa EF1C     		adds	r7, r5, #3
 427              	.LVL33:
  17:/Users/joostbooy/Desktop/Code/stm32/lib/utils/stringUtils.h **** 			*dest++ = *src++;
 428              		.loc 6 17 3 is_stmt 1 view .LVU127
  17:/Users/joostbooy/Desktop/Code/stm32/lib/utils/stringUtils.h **** 			*dest++ = *src++;
 429              		.loc 6 17 27 view .LVU128
  17:/Users/joostbooy/Desktop/Code/stm32/lib/utils/stringUtils.h **** 			*dest++ = *src++;
 430              		.loc 6 17 27 is_stmt 0 view .LVU129
 431 00ac 6BB1     		cbz	r3, .L18
 432              		.loc 6 18 4 is_stmt 1 view .LVU130
 433              	.LVL34:
 434              		.loc 6 18 12 is_stmt 0 view .LVU131
 435 00ae EB70     		strb	r3, [r5, #3]
  17:/Users/joostbooy/Desktop/Code/stm32/lib/utils/stringUtils.h **** 			*dest++ = *src++;
 436              		.loc 6 17 30 view .LVU132
 437 00b0 2179     		ldrb	r1, [r4, #4]	@ zero_extendqisi2
 438              		.loc 6 18 9 view .LVU133
 439 00b2 2F1D     		adds	r7, r5, #4
 440              	.LVL35:
  17:/Users/joostbooy/Desktop/Code/stm32/lib/utils/stringUtils.h **** 			*dest++ = *src++;
 441              		.loc 6 17 3 is_stmt 1 view .LVU134
  17:/Users/joostbooy/Desktop/Code/stm32/lib/utils/stringUtils.h **** 			*dest++ = *src++;
ARM GAS  /var/folders/84/_x1cyy_j36g486tldtwl37280000gn/T//ccHRTYO5.s 			page 18


 442              		.loc 6 17 27 view .LVU135
  17:/Users/joostbooy/Desktop/Code/stm32/lib/utils/stringUtils.h **** 			*dest++ = *src++;
 443              		.loc 6 17 27 is_stmt 0 view .LVU136
 444 00b4 49B1     		cbz	r1, .L18
 445              		.loc 6 18 4 is_stmt 1 view .LVU137
 446              	.LVL36:
 447              		.loc 6 18 12 is_stmt 0 view .LVU138
 448 00b6 2971     		strb	r1, [r5, #4]
  17:/Users/joostbooy/Desktop/Code/stm32/lib/utils/stringUtils.h **** 			*dest++ = *src++;
 449              		.loc 6 17 30 view .LVU139
 450 00b8 6079     		ldrb	r0, [r4, #5]	@ zero_extendqisi2
 451              		.loc 6 18 9 view .LVU140
 452 00ba 6F1D     		adds	r7, r5, #5
 453              	.LVL37:
  17:/Users/joostbooy/Desktop/Code/stm32/lib/utils/stringUtils.h **** 			*dest++ = *src++;
 454              		.loc 6 17 3 is_stmt 1 view .LVU141
  17:/Users/joostbooy/Desktop/Code/stm32/lib/utils/stringUtils.h **** 			*dest++ = *src++;
 455              		.loc 6 17 27 view .LVU142
  17:/Users/joostbooy/Desktop/Code/stm32/lib/utils/stringUtils.h **** 			*dest++ = *src++;
 456              		.loc 6 17 27 is_stmt 0 view .LVU143
 457 00bc 28B1     		cbz	r0, .L18
 458              		.loc 6 18 4 is_stmt 1 view .LVU144
 459              	.LVL38:
 460              		.loc 6 18 12 is_stmt 0 view .LVU145
 461 00be 6871     		strb	r0, [r5, #5]
  17:/Users/joostbooy/Desktop/Code/stm32/lib/utils/stringUtils.h **** 			*dest++ = *src++;
 462              		.loc 6 17 30 view .LVU146
 463 00c0 A479     		ldrb	r4, [r4, #6]	@ zero_extendqisi2
 464              	.LVL39:
 465              		.loc 6 18 9 view .LVU147
 466 00c2 AF1D     		adds	r7, r5, #6
 467              	.LVL40:
  17:/Users/joostbooy/Desktop/Code/stm32/lib/utils/stringUtils.h **** 			*dest++ = *src++;
 468              		.loc 6 17 3 is_stmt 1 view .LVU148
  17:/Users/joostbooy/Desktop/Code/stm32/lib/utils/stringUtils.h **** 			*dest++ = *src++;
 469              		.loc 6 17 27 view .LVU149
  17:/Users/joostbooy/Desktop/Code/stm32/lib/utils/stringUtils.h **** 			*dest++ = *src++;
 470              		.loc 6 17 27 is_stmt 0 view .LVU150
 471 00c4 0CB1     		cbz	r4, .L18
 472              		.loc 6 18 4 is_stmt 1 view .LVU151
 473              		.loc 6 18 12 is_stmt 0 view .LVU152
 474 00c6 AC71     		strb	r4, [r5, #6]
 475              		.loc 6 18 9 view .LVU153
 476 00c8 EF1D     		adds	r7, r5, #7
 477              	.LVL41:
  17:/Users/joostbooy/Desktop/Code/stm32/lib/utils/stringUtils.h **** 			*dest++ = *src++;
 478              		.loc 6 17 3 is_stmt 1 view .LVU154
  17:/Users/joostbooy/Desktop/Code/stm32/lib/utils/stringUtils.h **** 			*dest++ = *src++;
 479              		.loc 6 17 27 view .LVU155
 480              	.L18:
  19:/Users/joostbooy/Desktop/Code/stm32/lib/utils/stringUtils.h **** 		}
  20:/Users/joostbooy/Desktop/Code/stm32/lib/utils/stringUtils.h **** 		*dest = '\0';
 481              		.loc 6 20 3 view .LVU156
 482              		.loc 6 20 9 is_stmt 0 view .LVU157
 483 00ca 0025     		movs	r5, #0
 484 00cc 3D70     		strb	r5, [r7]
 485              	.LVL42:
ARM GAS  /var/folders/84/_x1cyy_j36g486tldtwl37280000gn/T//ccHRTYO5.s 			page 19


 486              		.loc 6 20 9 view .LVU158
 487              	.LBE143:
 488              	.LBE144:
 489              	.LBE145:
 490              	.LBE147:
  20:Src/Ui/clipBoard.cpp **** 	}
 491              		.loc 1 20 3 is_stmt 1 view .LVU159
  20:Src/Ui/clipBoard.cpp **** 	}
 492              		.loc 1 20 10 is_stmt 0 view .LVU160
 493 00ce 0120     		movs	r0, #1
 494              		.loc 1 23 1 view .LVU161
 495 00d0 F8BD     		pop	{r3, r4, r5, r6, r7, pc}
 496              	.LVL43:
 497              	.L47:
 498              		.loc 1 23 1 view .LVU162
 499 00d2 024F     		ldr	r7, .L49
 500 00d4 CAE7     		b	.L14
 501              	.LVL44:
 502              	.L20:
 503              	.LBB148:
 504              	.LBB146:
 505              		.loc 3 42 33 view .LVU163
 506 00d6 2F46     		mov	r7, r5
 507 00d8 F7E7     		b	.L18
 508              	.L50:
 509 00da 00BF     		.align	2
 510              	.L49:
 511 00dc 00000000 		.word	_ZN9TrackData8pattern_E
 512              	.LBE146:
 513              	.LBE148:
 514              		.cfi_endproc
 515              	.LFE2488:
 517              		.section	.text.startup._GLOBAL__sub_I_clipboard,"ax",%progbits
 518              		.align	1
 519              		.p2align 2,,3
 520              		.syntax unified
 521              		.thumb
 522              		.thumb_func
 523              		.fpu fpv4-sp-d16
 525              	_GLOBAL__sub_I_clipboard:
 526              	.LFB2990:
 527              		.loc 1 23 1 is_stmt 1 view -0
 528              		.cfi_startproc
 529              		@ args = 0, pretend = 0, frame = 0
 530              		@ frame_needed = 0, uses_anonymous_args = 0
 531              		@ link register save eliminated.
 532              	.LVL45:
 533              	.LBB149:
 534              	.LBI149:
 535              		.loc 1 23 1 view .LVU165
 536              	.LBB150:
 537              	.LBB151:
 538              	.LBI151:
   6:Src/Ui/clipboard.h **** 
 539              		.loc 4 6 7 view .LVU166
 540              	.LBB152:
 541              	.LBI152:
ARM GAS  /var/folders/84/_x1cyy_j36g486tldtwl37280000gn/T//ccHRTYO5.s 			page 20


 141:/Users/joostbooy/Desktop/Code/stm32/lib/utils/stringBuilder.h **** 	}
 142:/Users/joostbooy/Desktop/Code/stm32/lib/utils/stringBuilder.h **** };
 143:/Users/joostbooy/Desktop/Code/stm32/lib/utils/stringBuilder.h **** 
 144:/Users/joostbooy/Desktop/Code/stm32/lib/utils/stringBuilder.h **** 
 145:/Users/joostbooy/Desktop/Code/stm32/lib/utils/stringBuilder.h **** template <const uint8_t kMax>
 146:/Users/joostbooy/Desktop/Code/stm32/lib/utils/stringBuilder.h **** class StringBuilderBase : public StringBuilder {
 147:/Users/joostbooy/Desktop/Code/stm32/lib/utils/stringBuilder.h **** 
 148:/Users/joostbooy/Desktop/Code/stm32/lib/utils/stringBuilder.h **** public:
 149:/Users/joostbooy/Desktop/Code/stm32/lib/utils/stringBuilder.h **** 	StringBuilderBase() : StringBuilder(char_buff, kMax) {};
 542              		.loc 5 149 2 view .LVU167
 543              	.LBB153:
 544              	.LBB154:
 545              	.LBI154:
  10:/Users/joostbooy/Desktop/Code/stm32/lib/utils/stringBuilder.h **** 		char_buff_ = ptr;
 546              		.loc 5 10 2 view .LVU168
 547              	.LBB155:
 548              	.LBB156:
  10:/Users/joostbooy/Desktop/Code/stm32/lib/utils/stringBuilder.h **** 		char_buff_ = ptr;
 549              		.loc 5 10 37 is_stmt 0 view .LVU169
 550 0000 054B     		ldr	r3, .L52
 551 0002 0022     		movs	r2, #0
  12:/Users/joostbooy/Desktop/Code/stm32/lib/utils/stringBuilder.h **** 		clear();
 552              		.loc 5 12 9 view .LVU170
 553 0004 0821     		movs	r1, #8
  11:/Users/joostbooy/Desktop/Code/stm32/lib/utils/stringBuilder.h **** 		kMax_ = kMax;
 554              		.loc 5 11 14 view .LVU171
 555 0006 03F1C800 		add	r0, r3, #200
  12:/Users/joostbooy/Desktop/Code/stm32/lib/utils/stringBuilder.h **** 		clear();
 556              		.loc 5 12 9 view .LVU172
 557 000a C3E93001 		strd	r0, r1, [r3, #192]
  10:/Users/joostbooy/Desktop/Code/stm32/lib/utils/stringBuilder.h **** 		char_buff_ = ptr;
 558              		.loc 5 10 37 view .LVU173
 559 000e 83F8BC20 		strb	r2, [r3, #188]
  11:/Users/joostbooy/Desktop/Code/stm32/lib/utils/stringBuilder.h **** 		kMax_ = kMax;
 560              		.loc 5 11 3 is_stmt 1 view .LVU174
  12:/Users/joostbooy/Desktop/Code/stm32/lib/utils/stringBuilder.h **** 		clear();
 561              		.loc 5 12 3 view .LVU175
  13:/Users/joostbooy/Desktop/Code/stm32/lib/utils/stringBuilder.h **** 	}
 562              		.loc 5 13 3 view .LVU176
 563              	.LBB157:
 564              	.LBI157:
  16:/Users/joostbooy/Desktop/Code/stm32/lib/utils/stringBuilder.h **** 		pos = 0;
 565              		.loc 5 16 7 view .LVU177
 566              	.LVL46:
 567              	.LBB158:
  17:/Users/joostbooy/Desktop/Code/stm32/lib/utils/stringBuilder.h **** 		char_buff_[0] = '\0';
 568              		.loc 5 17 3 view .LVU178
  18:/Users/joostbooy/Desktop/Code/stm32/lib/utils/stringBuilder.h **** 	}
 569              		.loc 5 18 3 view .LVU179
  18:/Users/joostbooy/Desktop/Code/stm32/lib/utils/stringBuilder.h **** 	}
 570              		.loc 5 18 17 is_stmt 0 view .LVU180
 571 0012 83F8C820 		strb	r2, [r3, #200]
 572              	.LVL47:
  18:/Users/joostbooy/Desktop/Code/stm32/lib/utils/stringBuilder.h **** 	}
 573              		.loc 5 18 17 view .LVU181
 574              	.LBE158:
 575              	.LBE157:
ARM GAS  /var/folders/84/_x1cyy_j36g486tldtwl37280000gn/T//ccHRTYO5.s 			page 21


 576              	.LBE156:
 577              	.LBE155:
 578              	.LBE154:
 579              	.LBE153:
 580              	.LBE152:
 581              	.LBE151:
 582              	.LBE150:
 583              	.LBE149:
 584              		.loc 1 23 1 view .LVU182
 585 0016 7047     		bx	lr
 586              	.L53:
 587              		.align	2
 588              	.L52:
 589 0018 00000000 		.word	.LANCHOR0
 590              		.cfi_endproc
 591              	.LFE2990:
 593              		.section	.init_array,"aw",%init_array
 594              		.align	2
 595 0000 00000000 		.word	_GLOBAL__sub_I_clipboard(target1)
 596              		.global	clipboard
 597              		.section	.bss.clipboard,"aw",%nobits
 598              		.align	2
 599              		.set	.LANCHOR0,. + 0
 602              	clipboard:
 603 0000 00000000 		.space	212
 603      00000000 
 603      00000000 
 603      00000000 
 603      00000000 
 604              		.text
 605              	.Letext0:
 606              		.file 7 "/usr/local/Caskroom/gcc-arm-embedded/9-2019-q4-major/gcc-arm-none-eabi-9-2019-q4-major/ar
 607              		.file 8 "/usr/local/Caskroom/gcc-arm-embedded/9-2019-q4-major/gcc-arm-none-eabi-9-2019-q4-major/ar
 608              		.file 9 "/usr/local/Caskroom/gcc-arm-embedded/9-2019-q4-major/gcc-arm-none-eabi-9-2019-q4-major/ar
 609              		.file 10 "/Users/joostbooy/STM32Cube/Repository/STM32Cube_FW_F4_V1.26.1/Drivers/CMSIS/Include/core
 610              		.file 11 "/Users/joostbooy/STM32Cube/Repository/STM32Cube_FW_F4_V1.26.1/Drivers/CMSIS/Device/ST/ST
 611              		.file 12 "/usr/local/Caskroom/gcc-arm-embedded/9-2019-q4-major/gcc-arm-none-eabi-9-2019-q4-major/l
 612              		.file 13 "/Users/joostbooy/STM32Cube/Repository/STM32Cube_FW_F4_V1.26.1/Drivers/STM32F4xx_HAL_Driv
 613              		.file 14 "/usr/local/Caskroom/gcc-arm-embedded/9-2019-q4-major/gcc-arm-none-eabi-9-2019-q4-major/a
 614              		.file 15 "/usr/local/Caskroom/gcc-arm-embedded/9-2019-q4-major/gcc-arm-none-eabi-9-2019-q4-major/a
 615              		.file 16 "/usr/local/Caskroom/gcc-arm-embedded/9-2019-q4-major/gcc-arm-none-eabi-9-2019-q4-major/a
 616              		.file 17 "/usr/local/Caskroom/gcc-arm-embedded/9-2019-q4-major/gcc-arm-none-eabi-9-2019-q4-major/a
 617              		.file 18 "/usr/local/Caskroom/gcc-arm-embedded/9-2019-q4-major/gcc-arm-none-eabi-9-2019-q4-major/a
 618              		.file 19 "/usr/local/Caskroom/gcc-arm-embedded/9-2019-q4-major/gcc-arm-none-eabi-9-2019-q4-major/a
 619              		.file 20 "/usr/local/Caskroom/gcc-arm-embedded/9-2019-q4-major/gcc-arm-none-eabi-9-2019-q4-major/a
 620              		.file 21 "/usr/local/Caskroom/gcc-arm-embedded/9-2019-q4-major/gcc-arm-none-eabi-9-2019-q4-major/a
 621              		.file 22 "/usr/local/Caskroom/gcc-arm-embedded/9-2019-q4-major/gcc-arm-none-eabi-9-2019-q4-major/a
 622              		.file 23 "/usr/local/Caskroom/gcc-arm-embedded/9-2019-q4-major/gcc-arm-none-eabi-9-2019-q4-major/a
 623              		.file 24 "/usr/local/Caskroom/gcc-arm-embedded/9-2019-q4-major/gcc-arm-none-eabi-9-2019-q4-major/a
 624              		.file 25 "/usr/local/Caskroom/gcc-arm-embedded/9-2019-q4-major/gcc-arm-none-eabi-9-2019-q4-major/a
 625              		.file 26 "/usr/local/Caskroom/gcc-arm-embedded/9-2019-q4-major/gcc-arm-none-eabi-9-2019-q4-major/a
 626              		.file 27 "/usr/local/Caskroom/gcc-arm-embedded/9-2019-q4-major/gcc-arm-none-eabi-9-2019-q4-major/a
 627              		.file 28 "/usr/local/Caskroom/gcc-arm-embedded/9-2019-q4-major/gcc-arm-none-eabi-9-2019-q4-major/a
 628              		.file 29 "/usr/local/Caskroom/gcc-arm-embedded/9-2019-q4-major/gcc-arm-none-eabi-9-2019-q4-major/a
 629              		.file 30 "/usr/local/Caskroom/gcc-arm-embedded/9-2019-q4-major/gcc-arm-none-eabi-9-2019-q4-major/a
 630              		.file 31 "/usr/local/Caskroom/gcc-arm-embedded/9-2019-q4-major/gcc-arm-none-eabi-9-2019-q4-major/a
 631              		.file 32 "/usr/local/Caskroom/gcc-arm-embedded/9-2019-q4-major/gcc-arm-none-eabi-9-2019-q4-major/a
ARM GAS  /var/folders/84/_x1cyy_j36g486tldtwl37280000gn/T//ccHRTYO5.s 			page 22


 632              		.file 33 "/usr/local/Caskroom/gcc-arm-embedded/9-2019-q4-major/gcc-arm-none-eabi-9-2019-q4-major/a
 633              		.file 34 "/usr/local/Caskroom/gcc-arm-embedded/9-2019-q4-major/gcc-arm-none-eabi-9-2019-q4-major/a
 634              		.file 35 "/usr/local/Caskroom/gcc-arm-embedded/9-2019-q4-major/gcc-arm-none-eabi-9-2019-q4-major/a
 635              		.file 36 "/usr/local/Caskroom/gcc-arm-embedded/9-2019-q4-major/gcc-arm-none-eabi-9-2019-q4-major/a
 636              		.file 37 "/usr/local/Caskroom/gcc-arm-embedded/9-2019-q4-major/gcc-arm-none-eabi-9-2019-q4-major/a
 637              		.file 38 "/usr/local/Caskroom/gcc-arm-embedded/9-2019-q4-major/gcc-arm-none-eabi-9-2019-q4-major/l
 638              		.file 39 "<built-in>"
 639              		.file 40 "/usr/local/Caskroom/gcc-arm-embedded/9-2019-q4-major/gcc-arm-none-eabi-9-2019-q4-major/a
 640              		.file 41 "/usr/local/Caskroom/gcc-arm-embedded/9-2019-q4-major/gcc-arm-none-eabi-9-2019-q4-major/a
 641              		.file 42 "/usr/local/Caskroom/gcc-arm-embedded/9-2019-q4-major/gcc-arm-none-eabi-9-2019-q4-major/a
 642              		.file 43 "/usr/local/Caskroom/gcc-arm-embedded/9-2019-q4-major/gcc-arm-none-eabi-9-2019-q4-major/a
 643              		.file 44 "/usr/local/Caskroom/gcc-arm-embedded/9-2019-q4-major/gcc-arm-none-eabi-9-2019-q4-major/a
 644              		.file 45 "/usr/local/Caskroom/gcc-arm-embedded/9-2019-q4-major/gcc-arm-none-eabi-9-2019-q4-major/a
 645              		.file 46 "/usr/local/Caskroom/gcc-arm-embedded/9-2019-q4-major/gcc-arm-none-eabi-9-2019-q4-major/a
 646              		.file 47 "/usr/local/Caskroom/gcc-arm-embedded/9-2019-q4-major/gcc-arm-none-eabi-9-2019-q4-major/a
 647              		.file 48 "/usr/local/Caskroom/gcc-arm-embedded/9-2019-q4-major/gcc-arm-none-eabi-9-2019-q4-major/a
 648              		.file 49 "Src/Settings/trackData.h"
 649              		.file 50 "lookupTables/lookUpTables.h"
 650              		.file 51 "Drivers/uart.h"
 651              		.file 52 "Drivers/Usb/usb.h"
 652              		.file 53 "lookupTables/font.h"
 653              		.file 54 "Src/Settings/serial.h"
 654              		.file 55 "Src/Settings/serialItem.h"
 655              		.file 56 "/Users/joostbooy/Desktop/Code/stm32/lib/ff14b/source/ff.h"
 656              		.file 57 "Src/Disk/file.h"
 657              		.file 58 "/Users/joostbooy/Desktop/Code/stm32/lib/utils/hash.h"
 658              		.file 59 "Src/Disk/fileWriter.h"
 659              		.file 60 "Src/Disk/fileReader.h"
 660              		.file 61 "Src/Settings/noteTrack.h"
 661              		.file 62 "Src/Settings/chordTrack.h"
 662              		.file 63 "Src/Settings/drumTrack.h"
 663              		.file 64 "Src/Settings/curveTrack.h"
 664              		.file 65 "Src/Settings/track.h"
ARM GAS  /var/folders/84/_x1cyy_j36g486tldtwl37280000gn/T//ccHRTYO5.s 			page 23

