ARM GAS  /var/folders/84/_x1cyy_j36g486tldtwl37280000gn/T//ccWS3x5U.s 			page 1


   1              		.cpu cortex-m4
   2              		.eabi_attribute 27, 1
   3              		.eabi_attribute 28, 1
   4              		.eabi_attribute 20, 1
   5              		.eabi_attribute 21, 1
   6              		.eabi_attribute 23, 3
   7              		.eabi_attribute 24, 1
   8              		.eabi_attribute 25, 1
   9              		.eabi_attribute 26, 1
  10              		.eabi_attribute 30, 2
  11              		.eabi_attribute 34, 1
  12              		.eabi_attribute 18, 4
  13              		.file	"controller.cpp"
  14              		.text
  15              	.Ltext0:
  16              		.cfi_sections	.debug_frame
  17              		.section	.text._ZN10Controller4initEv,"ax",%progbits
  18              		.align	1
  19              		.p2align 2,,3
  20              		.global	_ZN10Controller4initEv
  21              		.arch armv7e-m
  22              		.syntax unified
  23              		.thumb
  24              		.thumb_func
  25              		.fpu fpv4-sp-d16
  27              	_ZN10Controller4initEv:
  28              	.LVL0:
  29              	.LFB2016:
  30              		.file 1 "Src/Ui/controller.cpp"
   1:Src/Ui/controller.cpp **** #include "controller.h"
   2:Src/Ui/controller.cpp **** 
   3:Src/Ui/controller.cpp **** Controller controller;
   4:Src/Ui/controller.cpp **** 
   5:Src/Ui/controller.cpp **** void Controller::init() {
  31              		.loc 1 5 25 view -0
  32              		.cfi_startproc
  33              		@ args = 0, pretend = 0, frame = 0
  34              		@ frame_needed = 0, uses_anonymous_args = 0
  35              		@ link register save eliminated.
   6:Src/Ui/controller.cpp **** 	prev_touched_encoder_ = 0;
  36              		.loc 1 6 2 view .LVU1
   7:Src/Ui/controller.cpp **** 	curr_touched_encoder_ = 0;
  37              		.loc 1 7 2 view .LVU2
   8:Src/Ui/controller.cpp **** 	for (int i = 0; i < (16 * 8) / 32; ++i) {
  38              		.loc 1 8 2 view .LVU3
  39              	.LBB2:
  40              		.loc 1 8 20 view .LVU4
   9:Src/Ui/controller.cpp **** 		pressed[i] = 0;
  41              		.loc 1 9 3 view .LVU5
   8:Src/Ui/controller.cpp **** 	for (int i = 0; i < (16 * 8) / 32; ++i) {
  42              		.loc 1 8 2 view .LVU6
   8:Src/Ui/controller.cpp **** 	for (int i = 0; i < (16 * 8) / 32; ++i) {
  43              		.loc 1 8 20 view .LVU7
  44              		.loc 1 9 3 view .LVU8
   8:Src/Ui/controller.cpp **** 	for (int i = 0; i < (16 * 8) / 32; ++i) {
  45              		.loc 1 8 2 view .LVU9
   8:Src/Ui/controller.cpp **** 	for (int i = 0; i < (16 * 8) / 32; ++i) {
ARM GAS  /var/folders/84/_x1cyy_j36g486tldtwl37280000gn/T//ccWS3x5U.s 			page 2


  46              		.loc 1 8 20 view .LVU10
  47              		.loc 1 9 3 view .LVU11
   8:Src/Ui/controller.cpp **** 	for (int i = 0; i < (16 * 8) / 32; ++i) {
  48              		.loc 1 8 2 view .LVU12
   8:Src/Ui/controller.cpp **** 	for (int i = 0; i < (16 * 8) / 32; ++i) {
  49              		.loc 1 8 20 view .LVU13
  50              		.loc 1 9 3 view .LVU14
  51              		.loc 1 9 14 is_stmt 0 view .LVU15
  52 0000 0023     		movs	r3, #0
  53 0002 C0E90033 		strd	r3, r3, [r0]
  54 0006 C0E90233 		strd	r3, r3, [r0, #8]
  55              	.LBE2:
   7:Src/Ui/controller.cpp **** 	curr_touched_encoder_ = 0;
  56              		.loc 1 7 24 view .LVU16
  57 000a 0382     		strh	r3, [r0, #16]	@ movhi
  58              	.LBB3:
   8:Src/Ui/controller.cpp **** 	for (int i = 0; i < (16 * 8) / 32; ++i) {
  59              		.loc 1 8 2 is_stmt 1 view .LVU17
  60              	.LVL1:
   8:Src/Ui/controller.cpp **** 	for (int i = 0; i < (16 * 8) / 32; ++i) {
  61              		.loc 1 8 20 view .LVU18
  62              	.LBE3:
  10:Src/Ui/controller.cpp **** 	}
  11:Src/Ui/controller.cpp **** }
  63              		.loc 1 11 1 is_stmt 0 view .LVU19
  64 000c 7047     		bx	lr
  65              		.cfi_endproc
  66              	.LFE2016:
  68 000e 00BF     		.section	.text._ZN10Controller10on_encoderEh,"ax",%progbits
  69              		.align	1
  70              		.p2align 2,,3
  71              		.global	_ZN10Controller10on_encoderEh
  72              		.syntax unified
  73              		.thumb
  74              		.thumb_func
  75              		.fpu fpv4-sp-d16
  77              	_ZN10Controller10on_encoderEh:
  78              	.LVL2:
  79              	.LFB2017:
  12:Src/Ui/controller.cpp **** 
  13:Src/Ui/controller.cpp **** void Controller::on_encoder(uint8_t id) {
  80              		.loc 1 13 41 is_stmt 1 view -0
  81              		.cfi_startproc
  82              		@ args = 0, pretend = 0, frame = 0
  83              		@ frame_needed = 0, uses_anonymous_args = 0
  84              		@ link register save eliminated.
  14:Src/Ui/controller.cpp **** 	if (id != curr_touched_encoder_) {
  85              		.loc 1 14 2 view .LVU21
  86              		.loc 1 14 12 is_stmt 0 view .LVU22
  87 0000 037C     		ldrb	r3, [r0, #16]	@ zero_extendqisi2
  88              		.loc 1 14 2 view .LVU23
  89 0002 8B42     		cmp	r3, r1
  15:Src/Ui/controller.cpp **** 		prev_touched_encoder_ = curr_touched_encoder_;
  90              		.loc 1 15 3 is_stmt 1 view .LVU24
  91              		.loc 1 15 25 is_stmt 0 view .LVU25
  92 0004 1CBF     		itt	ne
  93 0006 4374     		strbne	r3, [r0, #17]
ARM GAS  /var/folders/84/_x1cyy_j36g486tldtwl37280000gn/T//ccWS3x5U.s 			page 3


  16:Src/Ui/controller.cpp **** 		curr_touched_encoder_ = id;
  94              		.loc 1 16 3 is_stmt 1 view .LVU26
  95              		.loc 1 16 25 is_stmt 0 view .LVU27
  96 0008 0174     		strbne	r1, [r0, #16]
  17:Src/Ui/controller.cpp **** 	}
  18:Src/Ui/controller.cpp **** }
  97              		.loc 1 18 1 view .LVU28
  98 000a 7047     		bx	lr
  99              		.cfi_endproc
 100              	.LFE2017:
 102              		.section	.text._ZN10Controller9on_buttonEhb,"ax",%progbits
 103              		.align	1
 104              		.p2align 2,,3
 105              		.global	_ZN10Controller9on_buttonEhb
 106              		.syntax unified
 107              		.thumb
 108              		.thumb_func
 109              		.fpu fpv4-sp-d16
 111              	_ZN10Controller9on_buttonEhb:
 112              	.LVL3:
 113              	.LFB2018:
  19:Src/Ui/controller.cpp **** 
  20:Src/Ui/controller.cpp **** void Controller::on_button(uint8_t id, bool state) {
 114              		.loc 1 20 52 is_stmt 1 view -0
 115              		.cfi_startproc
 116              		@ args = 0, pretend = 0, frame = 0
 117              		@ frame_needed = 0, uses_anonymous_args = 0
 118              		@ link register save eliminated.
  21:Src/Ui/controller.cpp **** 	uint8_t index = id / 32;
 119              		.loc 1 21 2 view .LVU30
  22:Src/Ui/controller.cpp **** 	uint32_t mask = 1 << (id & 31);
 120              		.loc 1 22 2 view .LVU31
  20:Src/Ui/controller.cpp **** 	uint8_t index = id / 32;
 121              		.loc 1 20 52 is_stmt 0 view .LVU32
 122 0000 10B4     		push	{r4}
 123              		.cfi_def_cfa_offset 4
 124              		.cfi_offset 4, -4
 125 0002 4C09     		lsrs	r4, r1, #5
 126              		.loc 1 22 20 view .LVU33
 127 0004 0123     		movs	r3, #1
 128              		.loc 1 22 27 view .LVU34
 129 0006 01F01F01 		and	r1, r1, #31
 130              	.LVL4:
 131              		.loc 1 22 20 view .LVU35
 132 000a 03FA01F1 		lsl	r1, r3, r1
 133              	.LVL5:
  23:Src/Ui/controller.cpp **** 	pressed[index] &= ~(mask);
 134              		.loc 1 23 2 is_stmt 1 view .LVU36
 135              		.loc 1 23 17 is_stmt 0 view .LVU37
 136 000e 50F82430 		ldr	r3, [r0, r4, lsl #2]
  24:Src/Ui/controller.cpp **** 	if (state) {
 137              		.loc 1 24 2 is_stmt 1 view .LVU38
 138 0012 32B9     		cbnz	r2, .L6
  23:Src/Ui/controller.cpp **** 	pressed[index] &= ~(mask);
 139              		.loc 1 23 17 is_stmt 0 view .LVU39
 140 0014 23EA0102 		bic	r2, r3, r1
 141              	.LVL6:
ARM GAS  /var/folders/84/_x1cyy_j36g486tldtwl37280000gn/T//ccWS3x5U.s 			page 4


  23:Src/Ui/controller.cpp **** 	pressed[index] &= ~(mask);
 142              		.loc 1 23 17 view .LVU40
 143 0018 40F82420 		str	r2, [r0, r4, lsl #2]
  25:Src/Ui/controller.cpp **** 		pressed[index] |= mask;
  26:Src/Ui/controller.cpp **** 	}
  27:Src/Ui/controller.cpp **** }
 144              		.loc 1 27 1 view .LVU41
 145 001c 5DF8044B 		ldr	r4, [sp], #4
 146              		.cfi_remember_state
 147              		.cfi_restore 4
 148              		.cfi_def_cfa_offset 0
 149 0020 7047     		bx	lr
 150              	.LVL7:
 151              	.L6:
 152              		.cfi_restore_state
  25:Src/Ui/controller.cpp **** 		pressed[index] |= mask;
 153              		.loc 1 25 3 is_stmt 1 view .LVU42
  25:Src/Ui/controller.cpp **** 		pressed[index] |= mask;
 154              		.loc 1 25 18 is_stmt 0 view .LVU43
 155 0022 0B43     		orrs	r3, r3, r1
 156 0024 40F82430 		str	r3, [r0, r4, lsl #2]
 157              		.loc 1 27 1 view .LVU44
 158 0028 5DF8044B 		ldr	r4, [sp], #4
 159              		.cfi_restore 4
 160              		.cfi_def_cfa_offset 0
 161 002c 7047     		bx	lr
 162              		.cfi_endproc
 163              	.LFE2018:
 165 002e 00BF     		.section	.text._ZN10Controller10is_pressedEh,"ax",%progbits
 166              		.align	1
 167              		.p2align 2,,3
 168              		.global	_ZN10Controller10is_pressedEh
 169              		.syntax unified
 170              		.thumb
 171              		.thumb_func
 172              		.fpu fpv4-sp-d16
 174              	_ZN10Controller10is_pressedEh:
 175              	.LVL8:
 176              	.LFB2019:
  28:Src/Ui/controller.cpp **** 
  29:Src/Ui/controller.cpp **** bool Controller::is_pressed(uint8_t id) {
 177              		.loc 1 29 41 is_stmt 1 view -0
 178              		.cfi_startproc
 179              		@ args = 0, pretend = 0, frame = 0
 180              		@ frame_needed = 0, uses_anonymous_args = 0
 181              		@ link register save eliminated.
  30:Src/Ui/controller.cpp **** 	uint8_t index = id / 32;
 182              		.loc 1 30 2 view .LVU46
  31:Src/Ui/controller.cpp **** 	uint32_t mask = 1 << (id & 31);
 183              		.loc 1 31 2 view .LVU47
  32:Src/Ui/controller.cpp **** 	return pressed[index] & mask;
 184              		.loc 1 32 2 view .LVU48
 185              		.loc 1 32 17 is_stmt 0 view .LVU49
 186 0000 4B09     		lsrs	r3, r1, #5
  31:Src/Ui/controller.cpp **** 	uint32_t mask = 1 << (id & 31);
 187              		.loc 1 31 20 view .LVU50
 188 0002 4FF0010C 		mov	ip, #1
ARM GAS  /var/folders/84/_x1cyy_j36g486tldtwl37280000gn/T//ccWS3x5U.s 			page 5


 189              		.loc 1 32 24 view .LVU51
 190 0006 50F82320 		ldr	r2, [r0, r3, lsl #2]
  31:Src/Ui/controller.cpp **** 	uint32_t mask = 1 << (id & 31);
 191              		.loc 1 31 27 view .LVU52
 192 000a 01F01F01 		and	r1, r1, #31
 193              	.LVL9:
  31:Src/Ui/controller.cpp **** 	uint32_t mask = 1 << (id & 31);
 194              		.loc 1 31 20 view .LVU53
 195 000e 0CFA01F3 		lsl	r3, ip, r1
 196              		.loc 1 32 26 view .LVU54
 197 0012 1342     		tst	r3, r2
  33:Src/Ui/controller.cpp **** }
 198              		.loc 1 33 1 view .LVU55
 199 0014 14BF     		ite	ne
 200 0016 6046     		movne	r0, ip
 201              	.LVL10:
 202              		.loc 1 33 1 view .LVU56
 203 0018 0020     		moveq	r0, #0
 204 001a 7047     		bx	lr
 205              		.cfi_endproc
 206              	.LFE2019:
 208              		.global	controller
 209              		.section	.bss.controller,"aw",%nobits
 210              		.align	2
 213              	controller:
 214 0000 00000000 		.space	20
 214      00000000 
 214      00000000 
 214      00000000 
 214      00000000 
 215              		.text
 216              	.Letext0:
 217              		.file 2 "/usr/local/Caskroom/gcc-arm-embedded/9-2019-q4-major/gcc-arm-none-eabi-9-2019-q4-major/ar
 218              		.file 3 "/usr/local/Caskroom/gcc-arm-embedded/9-2019-q4-major/gcc-arm-none-eabi-9-2019-q4-major/ar
 219              		.file 4 "/usr/local/Caskroom/gcc-arm-embedded/9-2019-q4-major/gcc-arm-none-eabi-9-2019-q4-major/ar
 220              		.file 5 "/Users/joostbooy/STM32Cube/Repository/STM32Cube_FW_F4_V1.26.1/Drivers/CMSIS/Include/core_
 221              		.file 6 "/Users/joostbooy/STM32Cube/Repository/STM32Cube_FW_F4_V1.26.1/Drivers/CMSIS/Device/ST/STM
 222              		.file 7 "/usr/local/Caskroom/gcc-arm-embedded/9-2019-q4-major/gcc-arm-none-eabi-9-2019-q4-major/li
 223              		.file 8 "/Users/joostbooy/STM32Cube/Repository/STM32Cube_FW_F4_V1.26.1/Drivers/STM32F4xx_HAL_Drive
 224              		.file 9 "/usr/local/Caskroom/gcc-arm-embedded/9-2019-q4-major/gcc-arm-none-eabi-9-2019-q4-major/ar
 225              		.file 10 "/usr/local/Caskroom/gcc-arm-embedded/9-2019-q4-major/gcc-arm-none-eabi-9-2019-q4-major/a
 226              		.file 11 "/usr/local/Caskroom/gcc-arm-embedded/9-2019-q4-major/gcc-arm-none-eabi-9-2019-q4-major/a
 227              		.file 12 "/usr/local/Caskroom/gcc-arm-embedded/9-2019-q4-major/gcc-arm-none-eabi-9-2019-q4-major/a
 228              		.file 13 "/usr/local/Caskroom/gcc-arm-embedded/9-2019-q4-major/gcc-arm-none-eabi-9-2019-q4-major/a
 229              		.file 14 "/usr/local/Caskroom/gcc-arm-embedded/9-2019-q4-major/gcc-arm-none-eabi-9-2019-q4-major/a
 230              		.file 15 "/usr/local/Caskroom/gcc-arm-embedded/9-2019-q4-major/gcc-arm-none-eabi-9-2019-q4-major/a
 231              		.file 16 "/usr/local/Caskroom/gcc-arm-embedded/9-2019-q4-major/gcc-arm-none-eabi-9-2019-q4-major/a
 232              		.file 17 "/usr/local/Caskroom/gcc-arm-embedded/9-2019-q4-major/gcc-arm-none-eabi-9-2019-q4-major/a
 233              		.file 18 "/usr/local/Caskroom/gcc-arm-embedded/9-2019-q4-major/gcc-arm-none-eabi-9-2019-q4-major/a
 234              		.file 19 "/usr/local/Caskroom/gcc-arm-embedded/9-2019-q4-major/gcc-arm-none-eabi-9-2019-q4-major/a
 235              		.file 20 "/usr/local/Caskroom/gcc-arm-embedded/9-2019-q4-major/gcc-arm-none-eabi-9-2019-q4-major/a
 236              		.file 21 "/usr/local/Caskroom/gcc-arm-embedded/9-2019-q4-major/gcc-arm-none-eabi-9-2019-q4-major/a
 237              		.file 22 "/usr/local/Caskroom/gcc-arm-embedded/9-2019-q4-major/gcc-arm-none-eabi-9-2019-q4-major/a
 238              		.file 23 "/usr/local/Caskroom/gcc-arm-embedded/9-2019-q4-major/gcc-arm-none-eabi-9-2019-q4-major/a
 239              		.file 24 "/usr/local/Caskroom/gcc-arm-embedded/9-2019-q4-major/gcc-arm-none-eabi-9-2019-q4-major/a
 240              		.file 25 "/usr/local/Caskroom/gcc-arm-embedded/9-2019-q4-major/gcc-arm-none-eabi-9-2019-q4-major/a
 241              		.file 26 "/usr/local/Caskroom/gcc-arm-embedded/9-2019-q4-major/gcc-arm-none-eabi-9-2019-q4-major/a
ARM GAS  /var/folders/84/_x1cyy_j36g486tldtwl37280000gn/T//ccWS3x5U.s 			page 6


 242              		.file 27 "/usr/local/Caskroom/gcc-arm-embedded/9-2019-q4-major/gcc-arm-none-eabi-9-2019-q4-major/a
 243              		.file 28 "/usr/local/Caskroom/gcc-arm-embedded/9-2019-q4-major/gcc-arm-none-eabi-9-2019-q4-major/a
 244              		.file 29 "/usr/local/Caskroom/gcc-arm-embedded/9-2019-q4-major/gcc-arm-none-eabi-9-2019-q4-major/a
 245              		.file 30 "/usr/local/Caskroom/gcc-arm-embedded/9-2019-q4-major/gcc-arm-none-eabi-9-2019-q4-major/a
 246              		.file 31 "/usr/local/Caskroom/gcc-arm-embedded/9-2019-q4-major/gcc-arm-none-eabi-9-2019-q4-major/a
 247              		.file 32 "/usr/local/Caskroom/gcc-arm-embedded/9-2019-q4-major/gcc-arm-none-eabi-9-2019-q4-major/a
 248              		.file 33 "/usr/local/Caskroom/gcc-arm-embedded/9-2019-q4-major/gcc-arm-none-eabi-9-2019-q4-major/l
 249              		.file 34 "<built-in>"
 250              		.file 35 "/usr/local/Caskroom/gcc-arm-embedded/9-2019-q4-major/gcc-arm-none-eabi-9-2019-q4-major/a
 251              		.file 36 "/usr/local/Caskroom/gcc-arm-embedded/9-2019-q4-major/gcc-arm-none-eabi-9-2019-q4-major/a
 252              		.file 37 "/usr/local/Caskroom/gcc-arm-embedded/9-2019-q4-major/gcc-arm-none-eabi-9-2019-q4-major/a
 253              		.file 38 "/usr/local/Caskroom/gcc-arm-embedded/9-2019-q4-major/gcc-arm-none-eabi-9-2019-q4-major/a
 254              		.file 39 "/usr/local/Caskroom/gcc-arm-embedded/9-2019-q4-major/gcc-arm-none-eabi-9-2019-q4-major/a
 255              		.file 40 "/usr/local/Caskroom/gcc-arm-embedded/9-2019-q4-major/gcc-arm-none-eabi-9-2019-q4-major/a
 256              		.file 41 "/usr/local/Caskroom/gcc-arm-embedded/9-2019-q4-major/gcc-arm-none-eabi-9-2019-q4-major/a
 257              		.file 42 "/usr/local/Caskroom/gcc-arm-embedded/9-2019-q4-major/gcc-arm-none-eabi-9-2019-q4-major/a
 258              		.file 43 "/usr/local/Caskroom/gcc-arm-embedded/9-2019-q4-major/gcc-arm-none-eabi-9-2019-q4-major/a
 259              		.file 44 "Src/Ui/Pages/pages.h"
 260              		.file 45 "lookupTables/bitmap.h"
 261              		.file 46 "Src/Ui/Pages/chapter.h"
 262              		.file 47 "Src/Ui/controller.h"
ARM GAS  /var/folders/84/_x1cyy_j36g486tldtwl37280000gn/T//ccWS3x5U.s 			page 7

