ARM GAS  /var/folders/84/_x1cyy_j36g486tldtwl37280000gn/T//cc1ObSsF.s 			page 1


   1              		.cpu cortex-m4
   2              		.eabi_attribute 27, 1
   3              		.eabi_attribute 28, 1
   4              		.eabi_attribute 20, 1
   5              		.eabi_attribute 21, 1
   6              		.eabi_attribute 23, 3
   7              		.eabi_attribute 24, 1
   8              		.eabi_attribute 25, 1
   9              		.eabi_attribute 26, 1
  10              		.eabi_attribute 30, 2
  11              		.eabi_attribute 34, 1
  12              		.eabi_attribute 18, 4
  13              		.file	"dcd_dwc2.c"
  14              		.text
  15              	.Ltext0:
  16              		.cfi_sections	.debug_frame
  17              		.section	.text.edpt_schedule_packets,"ax",%progbits
  18              		.align	1
  19              		.p2align 2,,3
  20              		.arch armv7e-m
  21              		.syntax unified
  22              		.thumb
  23              		.thumb_func
  24              		.fpu fpv4-sp-d16
  26              	edpt_schedule_packets:
  27              	.LVL0:
  28              	.LFB306:
  29              		.file 1 "/Users/joostbooy/Desktop/Code/stm32/lib/tinyusb/src/portable/synopsys/dwc2/dcd_dwc2.c"
   1:/Users/joostbooy/Desktop/Code/stm32/lib/tinyusb/src/portable/synopsys/dwc2/dcd_dwc2.c **** /*
   2:/Users/joostbooy/Desktop/Code/stm32/lib/tinyusb/src/portable/synopsys/dwc2/dcd_dwc2.c ****  * The MIT License (MIT)
   3:/Users/joostbooy/Desktop/Code/stm32/lib/tinyusb/src/portable/synopsys/dwc2/dcd_dwc2.c ****  *
   4:/Users/joostbooy/Desktop/Code/stm32/lib/tinyusb/src/portable/synopsys/dwc2/dcd_dwc2.c ****  * Copyright (c) 2019 William D. Jones
   5:/Users/joostbooy/Desktop/Code/stm32/lib/tinyusb/src/portable/synopsys/dwc2/dcd_dwc2.c ****  * Copyright (c) 2019 Ha Thach (tinyusb.org)
   6:/Users/joostbooy/Desktop/Code/stm32/lib/tinyusb/src/portable/synopsys/dwc2/dcd_dwc2.c ****  * Copyright (c) 2020 Jan Duempelmann
   7:/Users/joostbooy/Desktop/Code/stm32/lib/tinyusb/src/portable/synopsys/dwc2/dcd_dwc2.c ****  * Copyright (c) 2020 Reinhard Panhuber
   8:/Users/joostbooy/Desktop/Code/stm32/lib/tinyusb/src/portable/synopsys/dwc2/dcd_dwc2.c ****  *
   9:/Users/joostbooy/Desktop/Code/stm32/lib/tinyusb/src/portable/synopsys/dwc2/dcd_dwc2.c ****  * Permission is hereby granted, free of charge, to any person obtaining a copy
  10:/Users/joostbooy/Desktop/Code/stm32/lib/tinyusb/src/portable/synopsys/dwc2/dcd_dwc2.c ****  * of this software and associated documentation files (the "Software"), to deal
  11:/Users/joostbooy/Desktop/Code/stm32/lib/tinyusb/src/portable/synopsys/dwc2/dcd_dwc2.c ****  * in the Software without restriction, including without limitation the rights
  12:/Users/joostbooy/Desktop/Code/stm32/lib/tinyusb/src/portable/synopsys/dwc2/dcd_dwc2.c ****  * to use, copy, modify, merge, publish, distribute, sublicense, and/or sell
  13:/Users/joostbooy/Desktop/Code/stm32/lib/tinyusb/src/portable/synopsys/dwc2/dcd_dwc2.c ****  * copies of the Software, and to permit persons to whom the Software is
  14:/Users/joostbooy/Desktop/Code/stm32/lib/tinyusb/src/portable/synopsys/dwc2/dcd_dwc2.c ****  * furnished to do so, subject to the following conditions:
  15:/Users/joostbooy/Desktop/Code/stm32/lib/tinyusb/src/portable/synopsys/dwc2/dcd_dwc2.c ****  *
  16:/Users/joostbooy/Desktop/Code/stm32/lib/tinyusb/src/portable/synopsys/dwc2/dcd_dwc2.c ****  * The above copyright notice and this permission notice shall be included in
  17:/Users/joostbooy/Desktop/Code/stm32/lib/tinyusb/src/portable/synopsys/dwc2/dcd_dwc2.c ****  * all copies or substantial portions of the Software.
  18:/Users/joostbooy/Desktop/Code/stm32/lib/tinyusb/src/portable/synopsys/dwc2/dcd_dwc2.c ****  *
  19:/Users/joostbooy/Desktop/Code/stm32/lib/tinyusb/src/portable/synopsys/dwc2/dcd_dwc2.c ****  * THE SOFTWARE IS PROVIDED "AS IS", WITHOUT WARRANTY OF ANY KIND, EXPRESS OR
  20:/Users/joostbooy/Desktop/Code/stm32/lib/tinyusb/src/portable/synopsys/dwc2/dcd_dwc2.c ****  * IMPLIED, INCLUDING BUT NOT LIMITED TO THE WARRANTIES OF MERCHANTABILITY,
  21:/Users/joostbooy/Desktop/Code/stm32/lib/tinyusb/src/portable/synopsys/dwc2/dcd_dwc2.c ****  * FITNESS FOR A PARTICULAR PURPOSE AND NONINFRINGEMENT. IN NO EVENT SHALL THE
  22:/Users/joostbooy/Desktop/Code/stm32/lib/tinyusb/src/portable/synopsys/dwc2/dcd_dwc2.c ****  * AUTHORS OR COPYRIGHT HOLDERS BE LIABLE FOR ANY CLAIM, DAMAGES OR OTHER
  23:/Users/joostbooy/Desktop/Code/stm32/lib/tinyusb/src/portable/synopsys/dwc2/dcd_dwc2.c ****  * LIABILITY, WHETHER IN AN ACTION OF CONTRACT, TORT OR OTHERWISE, ARISING FROM,
  24:/Users/joostbooy/Desktop/Code/stm32/lib/tinyusb/src/portable/synopsys/dwc2/dcd_dwc2.c ****  * OUT OF OR IN CONNECTION WITH THE SOFTWARE OR THE USE OR OTHER DEALINGS IN
  25:/Users/joostbooy/Desktop/Code/stm32/lib/tinyusb/src/portable/synopsys/dwc2/dcd_dwc2.c ****  * THE SOFTWARE.
  26:/Users/joostbooy/Desktop/Code/stm32/lib/tinyusb/src/portable/synopsys/dwc2/dcd_dwc2.c ****  *
  27:/Users/joostbooy/Desktop/Code/stm32/lib/tinyusb/src/portable/synopsys/dwc2/dcd_dwc2.c ****  * This file is part of the TinyUSB stack.
  28:/Users/joostbooy/Desktop/Code/stm32/lib/tinyusb/src/portable/synopsys/dwc2/dcd_dwc2.c ****  */
  29:/Users/joostbooy/Desktop/Code/stm32/lib/tinyusb/src/portable/synopsys/dwc2/dcd_dwc2.c **** 
ARM GAS  /var/folders/84/_x1cyy_j36g486tldtwl37280000gn/T//cc1ObSsF.s 			page 2


  30:/Users/joostbooy/Desktop/Code/stm32/lib/tinyusb/src/portable/synopsys/dwc2/dcd_dwc2.c **** #include "tusb_option.h"
  31:/Users/joostbooy/Desktop/Code/stm32/lib/tinyusb/src/portable/synopsys/dwc2/dcd_dwc2.c **** 
  32:/Users/joostbooy/Desktop/Code/stm32/lib/tinyusb/src/portable/synopsys/dwc2/dcd_dwc2.c **** #if CFG_TUD_ENABLED && defined(TUP_USBIP_DWC2)
  33:/Users/joostbooy/Desktop/Code/stm32/lib/tinyusb/src/portable/synopsys/dwc2/dcd_dwc2.c **** 
  34:/Users/joostbooy/Desktop/Code/stm32/lib/tinyusb/src/portable/synopsys/dwc2/dcd_dwc2.c **** #include "device/dcd.h"
  35:/Users/joostbooy/Desktop/Code/stm32/lib/tinyusb/src/portable/synopsys/dwc2/dcd_dwc2.c **** #include "dwc2_type.h"
  36:/Users/joostbooy/Desktop/Code/stm32/lib/tinyusb/src/portable/synopsys/dwc2/dcd_dwc2.c **** 
  37:/Users/joostbooy/Desktop/Code/stm32/lib/tinyusb/src/portable/synopsys/dwc2/dcd_dwc2.c **** // Following symbols must be defined by port header
  38:/Users/joostbooy/Desktop/Code/stm32/lib/tinyusb/src/portable/synopsys/dwc2/dcd_dwc2.c **** // - _dwc2_controller[]: array of controllers
  39:/Users/joostbooy/Desktop/Code/stm32/lib/tinyusb/src/portable/synopsys/dwc2/dcd_dwc2.c **** // - DWC2_EP_MAX: largest EP counts of all controllers
  40:/Users/joostbooy/Desktop/Code/stm32/lib/tinyusb/src/portable/synopsys/dwc2/dcd_dwc2.c **** // - dwc2_phy_init/dwc2_phy_update: phy init called before and after core reset
  41:/Users/joostbooy/Desktop/Code/stm32/lib/tinyusb/src/portable/synopsys/dwc2/dcd_dwc2.c **** // - dwc2_dcd_int_enable/dwc2_dcd_int_disable
  42:/Users/joostbooy/Desktop/Code/stm32/lib/tinyusb/src/portable/synopsys/dwc2/dcd_dwc2.c **** // - dwc2_remote_wakeup_delay
  43:/Users/joostbooy/Desktop/Code/stm32/lib/tinyusb/src/portable/synopsys/dwc2/dcd_dwc2.c **** 
  44:/Users/joostbooy/Desktop/Code/stm32/lib/tinyusb/src/portable/synopsys/dwc2/dcd_dwc2.c **** #if defined(TUP_USBIP_DWC2_STM32)
  45:/Users/joostbooy/Desktop/Code/stm32/lib/tinyusb/src/portable/synopsys/dwc2/dcd_dwc2.c ****   #include "dwc2_stm32.h"
  46:/Users/joostbooy/Desktop/Code/stm32/lib/tinyusb/src/portable/synopsys/dwc2/dcd_dwc2.c **** #elif TU_CHECK_MCU(OPT_MCU_ESP32S2, OPT_MCU_ESP32S3)
  47:/Users/joostbooy/Desktop/Code/stm32/lib/tinyusb/src/portable/synopsys/dwc2/dcd_dwc2.c ****   #include "dwc2_esp32.h"
  48:/Users/joostbooy/Desktop/Code/stm32/lib/tinyusb/src/portable/synopsys/dwc2/dcd_dwc2.c **** #elif TU_CHECK_MCU(OPT_MCU_GD32VF103)
  49:/Users/joostbooy/Desktop/Code/stm32/lib/tinyusb/src/portable/synopsys/dwc2/dcd_dwc2.c ****   #include "dwc2_gd32.h"
  50:/Users/joostbooy/Desktop/Code/stm32/lib/tinyusb/src/portable/synopsys/dwc2/dcd_dwc2.c **** #elif TU_CHECK_MCU(OPT_MCU_BCM2711, OPT_MCU_BCM2835, OPT_MCU_BCM2837)
  51:/Users/joostbooy/Desktop/Code/stm32/lib/tinyusb/src/portable/synopsys/dwc2/dcd_dwc2.c ****   #include "dwc2_bcm.h"
  52:/Users/joostbooy/Desktop/Code/stm32/lib/tinyusb/src/portable/synopsys/dwc2/dcd_dwc2.c **** #elif TU_CHECK_MCU(OPT_MCU_EFM32GG)
  53:/Users/joostbooy/Desktop/Code/stm32/lib/tinyusb/src/portable/synopsys/dwc2/dcd_dwc2.c ****   #include "dwc2_efm32.h"
  54:/Users/joostbooy/Desktop/Code/stm32/lib/tinyusb/src/portable/synopsys/dwc2/dcd_dwc2.c **** #elif TU_CHECK_MCU(OPT_MCU_XMC4000)
  55:/Users/joostbooy/Desktop/Code/stm32/lib/tinyusb/src/portable/synopsys/dwc2/dcd_dwc2.c ****   #include "dwc2_xmc.h"
  56:/Users/joostbooy/Desktop/Code/stm32/lib/tinyusb/src/portable/synopsys/dwc2/dcd_dwc2.c **** #else
  57:/Users/joostbooy/Desktop/Code/stm32/lib/tinyusb/src/portable/synopsys/dwc2/dcd_dwc2.c ****   #error "Unsupported MCUs"
  58:/Users/joostbooy/Desktop/Code/stm32/lib/tinyusb/src/portable/synopsys/dwc2/dcd_dwc2.c **** #endif
  59:/Users/joostbooy/Desktop/Code/stm32/lib/tinyusb/src/portable/synopsys/dwc2/dcd_dwc2.c **** 
  60:/Users/joostbooy/Desktop/Code/stm32/lib/tinyusb/src/portable/synopsys/dwc2/dcd_dwc2.c **** //--------------------------------------------------------------------+
  61:/Users/joostbooy/Desktop/Code/stm32/lib/tinyusb/src/portable/synopsys/dwc2/dcd_dwc2.c **** // MACRO TYPEDEF CONSTANT ENUM
  62:/Users/joostbooy/Desktop/Code/stm32/lib/tinyusb/src/portable/synopsys/dwc2/dcd_dwc2.c **** //--------------------------------------------------------------------+
  63:/Users/joostbooy/Desktop/Code/stm32/lib/tinyusb/src/portable/synopsys/dwc2/dcd_dwc2.c **** 
  64:/Users/joostbooy/Desktop/Code/stm32/lib/tinyusb/src/portable/synopsys/dwc2/dcd_dwc2.c **** // DWC2 registers
  65:/Users/joostbooy/Desktop/Code/stm32/lib/tinyusb/src/portable/synopsys/dwc2/dcd_dwc2.c **** #define DWC2_REG(_port)       ((dwc2_regs_t*) _dwc2_controller[_port].reg_base)
  66:/Users/joostbooy/Desktop/Code/stm32/lib/tinyusb/src/portable/synopsys/dwc2/dcd_dwc2.c **** 
  67:/Users/joostbooy/Desktop/Code/stm32/lib/tinyusb/src/portable/synopsys/dwc2/dcd_dwc2.c **** // Debug level for DWC2
  68:/Users/joostbooy/Desktop/Code/stm32/lib/tinyusb/src/portable/synopsys/dwc2/dcd_dwc2.c **** #define DWC2_DEBUG    2
  69:/Users/joostbooy/Desktop/Code/stm32/lib/tinyusb/src/portable/synopsys/dwc2/dcd_dwc2.c **** 
  70:/Users/joostbooy/Desktop/Code/stm32/lib/tinyusb/src/portable/synopsys/dwc2/dcd_dwc2.c **** #ifndef dcache_clean
  71:/Users/joostbooy/Desktop/Code/stm32/lib/tinyusb/src/portable/synopsys/dwc2/dcd_dwc2.c **** #define dcache_clean(_addr, _size)
  72:/Users/joostbooy/Desktop/Code/stm32/lib/tinyusb/src/portable/synopsys/dwc2/dcd_dwc2.c **** #endif
  73:/Users/joostbooy/Desktop/Code/stm32/lib/tinyusb/src/portable/synopsys/dwc2/dcd_dwc2.c **** 
  74:/Users/joostbooy/Desktop/Code/stm32/lib/tinyusb/src/portable/synopsys/dwc2/dcd_dwc2.c **** #ifndef dcache_invalidate
  75:/Users/joostbooy/Desktop/Code/stm32/lib/tinyusb/src/portable/synopsys/dwc2/dcd_dwc2.c **** #define dcache_invalidate(_addr, _size)
  76:/Users/joostbooy/Desktop/Code/stm32/lib/tinyusb/src/portable/synopsys/dwc2/dcd_dwc2.c **** #endif
  77:/Users/joostbooy/Desktop/Code/stm32/lib/tinyusb/src/portable/synopsys/dwc2/dcd_dwc2.c **** 
  78:/Users/joostbooy/Desktop/Code/stm32/lib/tinyusb/src/portable/synopsys/dwc2/dcd_dwc2.c **** #ifndef dcache_clean_invalidate
  79:/Users/joostbooy/Desktop/Code/stm32/lib/tinyusb/src/portable/synopsys/dwc2/dcd_dwc2.c **** #define dcache_clean_invalidate(_addr, _size)
  80:/Users/joostbooy/Desktop/Code/stm32/lib/tinyusb/src/portable/synopsys/dwc2/dcd_dwc2.c **** #endif
  81:/Users/joostbooy/Desktop/Code/stm32/lib/tinyusb/src/portable/synopsys/dwc2/dcd_dwc2.c **** 
  82:/Users/joostbooy/Desktop/Code/stm32/lib/tinyusb/src/portable/synopsys/dwc2/dcd_dwc2.c **** static TU_ATTR_ALIGNED(4) uint32_t _setup_packet[2];
  83:/Users/joostbooy/Desktop/Code/stm32/lib/tinyusb/src/portable/synopsys/dwc2/dcd_dwc2.c **** 
  84:/Users/joostbooy/Desktop/Code/stm32/lib/tinyusb/src/portable/synopsys/dwc2/dcd_dwc2.c **** typedef struct {
  85:/Users/joostbooy/Desktop/Code/stm32/lib/tinyusb/src/portable/synopsys/dwc2/dcd_dwc2.c ****   uint8_t* buffer;
  86:/Users/joostbooy/Desktop/Code/stm32/lib/tinyusb/src/portable/synopsys/dwc2/dcd_dwc2.c ****   tu_fifo_t* ff;
ARM GAS  /var/folders/84/_x1cyy_j36g486tldtwl37280000gn/T//cc1ObSsF.s 			page 3


  87:/Users/joostbooy/Desktop/Code/stm32/lib/tinyusb/src/portable/synopsys/dwc2/dcd_dwc2.c ****   uint16_t total_len;
  88:/Users/joostbooy/Desktop/Code/stm32/lib/tinyusb/src/portable/synopsys/dwc2/dcd_dwc2.c ****   uint16_t max_size;
  89:/Users/joostbooy/Desktop/Code/stm32/lib/tinyusb/src/portable/synopsys/dwc2/dcd_dwc2.c ****   uint8_t interval;
  90:/Users/joostbooy/Desktop/Code/stm32/lib/tinyusb/src/portable/synopsys/dwc2/dcd_dwc2.c **** } xfer_ctl_t;
  91:/Users/joostbooy/Desktop/Code/stm32/lib/tinyusb/src/portable/synopsys/dwc2/dcd_dwc2.c **** 
  92:/Users/joostbooy/Desktop/Code/stm32/lib/tinyusb/src/portable/synopsys/dwc2/dcd_dwc2.c **** static xfer_ctl_t xfer_status[DWC2_EP_MAX][2];
  93:/Users/joostbooy/Desktop/Code/stm32/lib/tinyusb/src/portable/synopsys/dwc2/dcd_dwc2.c **** #define XFER_CTL_BASE(_ep, _dir) (&xfer_status[_ep][_dir])
  94:/Users/joostbooy/Desktop/Code/stm32/lib/tinyusb/src/portable/synopsys/dwc2/dcd_dwc2.c **** 
  95:/Users/joostbooy/Desktop/Code/stm32/lib/tinyusb/src/portable/synopsys/dwc2/dcd_dwc2.c **** // EP0 transfers are limited to 1 packet - larger sizes has to be split
  96:/Users/joostbooy/Desktop/Code/stm32/lib/tinyusb/src/portable/synopsys/dwc2/dcd_dwc2.c **** static uint16_t ep0_pending[2];               // Index determines direction as tusb_dir_t type
  97:/Users/joostbooy/Desktop/Code/stm32/lib/tinyusb/src/portable/synopsys/dwc2/dcd_dwc2.c **** 
  98:/Users/joostbooy/Desktop/Code/stm32/lib/tinyusb/src/portable/synopsys/dwc2/dcd_dwc2.c **** // TX FIFO RAM allocation so far in words - RX FIFO size is readily available from dwc2->grxfsiz
  99:/Users/joostbooy/Desktop/Code/stm32/lib/tinyusb/src/portable/synopsys/dwc2/dcd_dwc2.c **** static uint16_t _allocated_fifo_words_tx;     // TX FIFO size in words (IN EPs)
 100:/Users/joostbooy/Desktop/Code/stm32/lib/tinyusb/src/portable/synopsys/dwc2/dcd_dwc2.c **** static bool _out_ep_closed;                   // Flag to check if RX FIFO size needs an update (red
 101:/Users/joostbooy/Desktop/Code/stm32/lib/tinyusb/src/portable/synopsys/dwc2/dcd_dwc2.c **** 
 102:/Users/joostbooy/Desktop/Code/stm32/lib/tinyusb/src/portable/synopsys/dwc2/dcd_dwc2.c **** // SOF enabling flag - required for SOF to not get disabled in ISR when SOF was enabled by
 103:/Users/joostbooy/Desktop/Code/stm32/lib/tinyusb/src/portable/synopsys/dwc2/dcd_dwc2.c **** static bool _sof_en;
 104:/Users/joostbooy/Desktop/Code/stm32/lib/tinyusb/src/portable/synopsys/dwc2/dcd_dwc2.c **** 
 105:/Users/joostbooy/Desktop/Code/stm32/lib/tinyusb/src/portable/synopsys/dwc2/dcd_dwc2.c **** // Calculate the RX FIFO size according to recommendations from reference manual
 106:/Users/joostbooy/Desktop/Code/stm32/lib/tinyusb/src/portable/synopsys/dwc2/dcd_dwc2.c **** static inline uint16_t calc_grxfsiz(uint16_t max_ep_size, uint8_t ep_count) {
 107:/Users/joostbooy/Desktop/Code/stm32/lib/tinyusb/src/portable/synopsys/dwc2/dcd_dwc2.c ****   return 15 + 2 * (max_ep_size / 4) + 2 * ep_count;
 108:/Users/joostbooy/Desktop/Code/stm32/lib/tinyusb/src/portable/synopsys/dwc2/dcd_dwc2.c **** }
 109:/Users/joostbooy/Desktop/Code/stm32/lib/tinyusb/src/portable/synopsys/dwc2/dcd_dwc2.c **** 
 110:/Users/joostbooy/Desktop/Code/stm32/lib/tinyusb/src/portable/synopsys/dwc2/dcd_dwc2.c **** static void update_grxfsiz(uint8_t rhport) {
 111:/Users/joostbooy/Desktop/Code/stm32/lib/tinyusb/src/portable/synopsys/dwc2/dcd_dwc2.c ****   dwc2_regs_t* dwc2 = DWC2_REG(rhport);
 112:/Users/joostbooy/Desktop/Code/stm32/lib/tinyusb/src/portable/synopsys/dwc2/dcd_dwc2.c ****   uint8_t const ep_count = _dwc2_controller[rhport].ep_count;
 113:/Users/joostbooy/Desktop/Code/stm32/lib/tinyusb/src/portable/synopsys/dwc2/dcd_dwc2.c **** 
 114:/Users/joostbooy/Desktop/Code/stm32/lib/tinyusb/src/portable/synopsys/dwc2/dcd_dwc2.c ****   // Determine largest EP size for RX FIFO
 115:/Users/joostbooy/Desktop/Code/stm32/lib/tinyusb/src/portable/synopsys/dwc2/dcd_dwc2.c ****   uint16_t max_epsize = 0;
 116:/Users/joostbooy/Desktop/Code/stm32/lib/tinyusb/src/portable/synopsys/dwc2/dcd_dwc2.c ****   for (uint8_t epnum = 0; epnum < ep_count; epnum++) {
 117:/Users/joostbooy/Desktop/Code/stm32/lib/tinyusb/src/portable/synopsys/dwc2/dcd_dwc2.c ****     max_epsize = tu_max16(max_epsize, xfer_status[epnum][TUSB_DIR_OUT].max_size);
 118:/Users/joostbooy/Desktop/Code/stm32/lib/tinyusb/src/portable/synopsys/dwc2/dcd_dwc2.c ****   }
 119:/Users/joostbooy/Desktop/Code/stm32/lib/tinyusb/src/portable/synopsys/dwc2/dcd_dwc2.c **** 
 120:/Users/joostbooy/Desktop/Code/stm32/lib/tinyusb/src/portable/synopsys/dwc2/dcd_dwc2.c ****   // Update size of RX FIFO
 121:/Users/joostbooy/Desktop/Code/stm32/lib/tinyusb/src/portable/synopsys/dwc2/dcd_dwc2.c ****   dwc2->grxfsiz = calc_grxfsiz(max_epsize, ep_count);
 122:/Users/joostbooy/Desktop/Code/stm32/lib/tinyusb/src/portable/synopsys/dwc2/dcd_dwc2.c **** }
 123:/Users/joostbooy/Desktop/Code/stm32/lib/tinyusb/src/portable/synopsys/dwc2/dcd_dwc2.c **** 
 124:/Users/joostbooy/Desktop/Code/stm32/lib/tinyusb/src/portable/synopsys/dwc2/dcd_dwc2.c **** // Start of Bus Reset
 125:/Users/joostbooy/Desktop/Code/stm32/lib/tinyusb/src/portable/synopsys/dwc2/dcd_dwc2.c **** static void bus_reset(uint8_t rhport) {
 126:/Users/joostbooy/Desktop/Code/stm32/lib/tinyusb/src/portable/synopsys/dwc2/dcd_dwc2.c ****   dwc2_regs_t* dwc2 = DWC2_REG(rhport);
 127:/Users/joostbooy/Desktop/Code/stm32/lib/tinyusb/src/portable/synopsys/dwc2/dcd_dwc2.c ****   uint8_t const ep_count = _dwc2_controller[rhport].ep_count;
 128:/Users/joostbooy/Desktop/Code/stm32/lib/tinyusb/src/portable/synopsys/dwc2/dcd_dwc2.c **** 
 129:/Users/joostbooy/Desktop/Code/stm32/lib/tinyusb/src/portable/synopsys/dwc2/dcd_dwc2.c ****   tu_memclr(xfer_status, sizeof(xfer_status));
 130:/Users/joostbooy/Desktop/Code/stm32/lib/tinyusb/src/portable/synopsys/dwc2/dcd_dwc2.c ****   _out_ep_closed = false;
 131:/Users/joostbooy/Desktop/Code/stm32/lib/tinyusb/src/portable/synopsys/dwc2/dcd_dwc2.c **** 
 132:/Users/joostbooy/Desktop/Code/stm32/lib/tinyusb/src/portable/synopsys/dwc2/dcd_dwc2.c ****   _sof_en = false;
 133:/Users/joostbooy/Desktop/Code/stm32/lib/tinyusb/src/portable/synopsys/dwc2/dcd_dwc2.c **** 
 134:/Users/joostbooy/Desktop/Code/stm32/lib/tinyusb/src/portable/synopsys/dwc2/dcd_dwc2.c ****   // clear device address
 135:/Users/joostbooy/Desktop/Code/stm32/lib/tinyusb/src/portable/synopsys/dwc2/dcd_dwc2.c ****   dwc2->dcfg &= ~DCFG_DAD_Msk;
 136:/Users/joostbooy/Desktop/Code/stm32/lib/tinyusb/src/portable/synopsys/dwc2/dcd_dwc2.c **** 
 137:/Users/joostbooy/Desktop/Code/stm32/lib/tinyusb/src/portable/synopsys/dwc2/dcd_dwc2.c ****   // 1. NAK for all OUT endpoints
 138:/Users/joostbooy/Desktop/Code/stm32/lib/tinyusb/src/portable/synopsys/dwc2/dcd_dwc2.c ****   for (uint8_t n = 0; n < ep_count; n++) {
 139:/Users/joostbooy/Desktop/Code/stm32/lib/tinyusb/src/portable/synopsys/dwc2/dcd_dwc2.c ****     dwc2->epout[n].doepctl |= DOEPCTL_SNAK;
 140:/Users/joostbooy/Desktop/Code/stm32/lib/tinyusb/src/portable/synopsys/dwc2/dcd_dwc2.c ****   }
 141:/Users/joostbooy/Desktop/Code/stm32/lib/tinyusb/src/portable/synopsys/dwc2/dcd_dwc2.c **** 
 142:/Users/joostbooy/Desktop/Code/stm32/lib/tinyusb/src/portable/synopsys/dwc2/dcd_dwc2.c ****   // 2. Set up interrupt mask
 143:/Users/joostbooy/Desktop/Code/stm32/lib/tinyusb/src/portable/synopsys/dwc2/dcd_dwc2.c ****   dwc2->daintmsk = TU_BIT(DAINTMSK_OEPM_Pos) | TU_BIT(DAINTMSK_IEPM_Pos);
ARM GAS  /var/folders/84/_x1cyy_j36g486tldtwl37280000gn/T//cc1ObSsF.s 			page 4


 144:/Users/joostbooy/Desktop/Code/stm32/lib/tinyusb/src/portable/synopsys/dwc2/dcd_dwc2.c ****   dwc2->doepmsk = DOEPMSK_STUPM | DOEPMSK_XFRCM;
 145:/Users/joostbooy/Desktop/Code/stm32/lib/tinyusb/src/portable/synopsys/dwc2/dcd_dwc2.c ****   dwc2->diepmsk = DIEPMSK_TOM | DIEPMSK_XFRCM;
 146:/Users/joostbooy/Desktop/Code/stm32/lib/tinyusb/src/portable/synopsys/dwc2/dcd_dwc2.c **** 
 147:/Users/joostbooy/Desktop/Code/stm32/lib/tinyusb/src/portable/synopsys/dwc2/dcd_dwc2.c ****   // "USB Data FIFOs" section in reference manual
 148:/Users/joostbooy/Desktop/Code/stm32/lib/tinyusb/src/portable/synopsys/dwc2/dcd_dwc2.c ****   // Peripheral FIFO architecture
 149:/Users/joostbooy/Desktop/Code/stm32/lib/tinyusb/src/portable/synopsys/dwc2/dcd_dwc2.c ****   //
 150:/Users/joostbooy/Desktop/Code/stm32/lib/tinyusb/src/portable/synopsys/dwc2/dcd_dwc2.c ****   // The FIFO is split up in a lower part where the RX FIFO is located and an upper part where the 
 151:/Users/joostbooy/Desktop/Code/stm32/lib/tinyusb/src/portable/synopsys/dwc2/dcd_dwc2.c ****   // We do this to allow the RX FIFO to grow dynamically which is possible since the free space is 
 152:/Users/joostbooy/Desktop/Code/stm32/lib/tinyusb/src/portable/synopsys/dwc2/dcd_dwc2.c ****   // between the RX and TX FIFOs. This is required by ISO OUT EPs which need a bigger FIFO than the
 153:/Users/joostbooy/Desktop/Code/stm32/lib/tinyusb/src/portable/synopsys/dwc2/dcd_dwc2.c ****   // configuration done below.
 154:/Users/joostbooy/Desktop/Code/stm32/lib/tinyusb/src/portable/synopsys/dwc2/dcd_dwc2.c ****   //
 155:/Users/joostbooy/Desktop/Code/stm32/lib/tinyusb/src/portable/synopsys/dwc2/dcd_dwc2.c ****   // Dynamically FIFO sizes are of interest only for ISO EPs since all others are usually not opene
 156:/Users/joostbooy/Desktop/Code/stm32/lib/tinyusb/src/portable/synopsys/dwc2/dcd_dwc2.c ****   // All EPs other than ISO are opened as soon as the driver starts up i.e. when the host sends a
 157:/Users/joostbooy/Desktop/Code/stm32/lib/tinyusb/src/portable/synopsys/dwc2/dcd_dwc2.c ****   // configure interface command. Hence, all IN EPs other the ISO will be located at the top. IN IS
 158:/Users/joostbooy/Desktop/Code/stm32/lib/tinyusb/src/portable/synopsys/dwc2/dcd_dwc2.c ****   // opened when the host sends an additional command: setInterface. At this point in time
 159:/Users/joostbooy/Desktop/Code/stm32/lib/tinyusb/src/portable/synopsys/dwc2/dcd_dwc2.c ****   // the ISO EP will be located next to the free space and can change its size. In case more IN EPs
 160:/Users/joostbooy/Desktop/Code/stm32/lib/tinyusb/src/portable/synopsys/dwc2/dcd_dwc2.c ****   // an additional memory
 161:/Users/joostbooy/Desktop/Code/stm32/lib/tinyusb/src/portable/synopsys/dwc2/dcd_dwc2.c ****   //
 162:/Users/joostbooy/Desktop/Code/stm32/lib/tinyusb/src/portable/synopsys/dwc2/dcd_dwc2.c ****   // --------------- 320 or 1024 ( 1280 or 4096 bytes )
 163:/Users/joostbooy/Desktop/Code/stm32/lib/tinyusb/src/portable/synopsys/dwc2/dcd_dwc2.c ****   // | IN FIFO 0   |
 164:/Users/joostbooy/Desktop/Code/stm32/lib/tinyusb/src/portable/synopsys/dwc2/dcd_dwc2.c ****   // --------------- (320 or 1024) - 16
 165:/Users/joostbooy/Desktop/Code/stm32/lib/tinyusb/src/portable/synopsys/dwc2/dcd_dwc2.c ****   // | IN FIFO 1   |
 166:/Users/joostbooy/Desktop/Code/stm32/lib/tinyusb/src/portable/synopsys/dwc2/dcd_dwc2.c ****   // --------------- (320 or 1024) - 16 - x
 167:/Users/joostbooy/Desktop/Code/stm32/lib/tinyusb/src/portable/synopsys/dwc2/dcd_dwc2.c ****   // |   . . . .   |
 168:/Users/joostbooy/Desktop/Code/stm32/lib/tinyusb/src/portable/synopsys/dwc2/dcd_dwc2.c ****   // --------------- (320 or 1024) - 16 - x - y - ... - z
 169:/Users/joostbooy/Desktop/Code/stm32/lib/tinyusb/src/portable/synopsys/dwc2/dcd_dwc2.c ****   // | IN FIFO MAX |
 170:/Users/joostbooy/Desktop/Code/stm32/lib/tinyusb/src/portable/synopsys/dwc2/dcd_dwc2.c ****   // ---------------
 171:/Users/joostbooy/Desktop/Code/stm32/lib/tinyusb/src/portable/synopsys/dwc2/dcd_dwc2.c ****   // |    FREE     |
 172:/Users/joostbooy/Desktop/Code/stm32/lib/tinyusb/src/portable/synopsys/dwc2/dcd_dwc2.c ****   // --------------- GRXFSIZ
 173:/Users/joostbooy/Desktop/Code/stm32/lib/tinyusb/src/portable/synopsys/dwc2/dcd_dwc2.c ****   // | OUT FIFO    |
 174:/Users/joostbooy/Desktop/Code/stm32/lib/tinyusb/src/portable/synopsys/dwc2/dcd_dwc2.c ****   // | ( Shared )  |
 175:/Users/joostbooy/Desktop/Code/stm32/lib/tinyusb/src/portable/synopsys/dwc2/dcd_dwc2.c ****   // --------------- 0
 176:/Users/joostbooy/Desktop/Code/stm32/lib/tinyusb/src/portable/synopsys/dwc2/dcd_dwc2.c ****   //
 177:/Users/joostbooy/Desktop/Code/stm32/lib/tinyusb/src/portable/synopsys/dwc2/dcd_dwc2.c ****   // According to "FIFO RAM allocation" section in RM, FIFO RAM are allocated as follows (each word
 178:/Users/joostbooy/Desktop/Code/stm32/lib/tinyusb/src/portable/synopsys/dwc2/dcd_dwc2.c ****   // - Each EP IN needs at least max packet size, 16 words is sufficient for EP0 IN
 179:/Users/joostbooy/Desktop/Code/stm32/lib/tinyusb/src/portable/synopsys/dwc2/dcd_dwc2.c ****   //
 180:/Users/joostbooy/Desktop/Code/stm32/lib/tinyusb/src/portable/synopsys/dwc2/dcd_dwc2.c ****   // - All EP OUT shared a unique OUT FIFO which uses
 181:/Users/joostbooy/Desktop/Code/stm32/lib/tinyusb/src/portable/synopsys/dwc2/dcd_dwc2.c ****   //   - 13 for setup packets + control words (up to 3 setup packets).
 182:/Users/joostbooy/Desktop/Code/stm32/lib/tinyusb/src/portable/synopsys/dwc2/dcd_dwc2.c ****   //   - 1 for global NAK (not required/used here).
 183:/Users/joostbooy/Desktop/Code/stm32/lib/tinyusb/src/portable/synopsys/dwc2/dcd_dwc2.c ****   //   - Largest-EPsize / 4 + 1. ( FS: 64 bytes, HS: 512 bytes). Recommended is  "2 x (Largest-EPsi
 184:/Users/joostbooy/Desktop/Code/stm32/lib/tinyusb/src/portable/synopsys/dwc2/dcd_dwc2.c ****   //   - 2 for each used OUT endpoint
 185:/Users/joostbooy/Desktop/Code/stm32/lib/tinyusb/src/portable/synopsys/dwc2/dcd_dwc2.c ****   //
 186:/Users/joostbooy/Desktop/Code/stm32/lib/tinyusb/src/portable/synopsys/dwc2/dcd_dwc2.c ****   //   Therefore GRXFSIZ = 13 + 1 + 1 + 2 x (Largest-EPsize/4) + 2 x EPOUTnum
 187:/Users/joostbooy/Desktop/Code/stm32/lib/tinyusb/src/portable/synopsys/dwc2/dcd_dwc2.c ****   //   - FullSpeed (64 Bytes ): GRXFSIZ = 15 + 2 x  16 + 2 x ep_count = 47  + 2 x ep_count
 188:/Users/joostbooy/Desktop/Code/stm32/lib/tinyusb/src/portable/synopsys/dwc2/dcd_dwc2.c ****   //   - Highspeed (512 bytes): GRXFSIZ = 15 + 2 x 128 + 2 x ep_count = 271 + 2 x ep_count
 189:/Users/joostbooy/Desktop/Code/stm32/lib/tinyusb/src/portable/synopsys/dwc2/dcd_dwc2.c ****   //
 190:/Users/joostbooy/Desktop/Code/stm32/lib/tinyusb/src/portable/synopsys/dwc2/dcd_dwc2.c ****   //   NOTE: Largest-EPsize & EPOUTnum is actual used endpoints in configuration. Since DCD has no 
 191:/Users/joostbooy/Desktop/Code/stm32/lib/tinyusb/src/portable/synopsys/dwc2/dcd_dwc2.c ****   //   of the overall picture yet. We will use the worst scenario: largest possible + ep_count
 192:/Users/joostbooy/Desktop/Code/stm32/lib/tinyusb/src/portable/synopsys/dwc2/dcd_dwc2.c ****   //
 193:/Users/joostbooy/Desktop/Code/stm32/lib/tinyusb/src/portable/synopsys/dwc2/dcd_dwc2.c ****   //   For Isochronous, largest EP size can be 1023/1024 for FS/HS respectively. In addition if mul
 194:/Users/joostbooy/Desktop/Code/stm32/lib/tinyusb/src/portable/synopsys/dwc2/dcd_dwc2.c ****   //   are enabled at least "2 x (Largest-EPsize/4) + 1" are recommended.  Maybe provide a macro fo
 195:/Users/joostbooy/Desktop/Code/stm32/lib/tinyusb/src/portable/synopsys/dwc2/dcd_dwc2.c ****   //   overwrite this.
 196:/Users/joostbooy/Desktop/Code/stm32/lib/tinyusb/src/portable/synopsys/dwc2/dcd_dwc2.c **** 
 197:/Users/joostbooy/Desktop/Code/stm32/lib/tinyusb/src/portable/synopsys/dwc2/dcd_dwc2.c ****   // EP0 out max is 64
 198:/Users/joostbooy/Desktop/Code/stm32/lib/tinyusb/src/portable/synopsys/dwc2/dcd_dwc2.c ****   dwc2->grxfsiz = calc_grxfsiz(64, ep_count);
 199:/Users/joostbooy/Desktop/Code/stm32/lib/tinyusb/src/portable/synopsys/dwc2/dcd_dwc2.c **** 
 200:/Users/joostbooy/Desktop/Code/stm32/lib/tinyusb/src/portable/synopsys/dwc2/dcd_dwc2.c ****   // Setup the control endpoint 0
ARM GAS  /var/folders/84/_x1cyy_j36g486tldtwl37280000gn/T//cc1ObSsF.s 			page 5


 201:/Users/joostbooy/Desktop/Code/stm32/lib/tinyusb/src/portable/synopsys/dwc2/dcd_dwc2.c ****   _allocated_fifo_words_tx = 16;
 202:/Users/joostbooy/Desktop/Code/stm32/lib/tinyusb/src/portable/synopsys/dwc2/dcd_dwc2.c **** 
 203:/Users/joostbooy/Desktop/Code/stm32/lib/tinyusb/src/portable/synopsys/dwc2/dcd_dwc2.c ****   // Control IN uses FIFO 0 with 64 bytes ( 16 32-bit word )
 204:/Users/joostbooy/Desktop/Code/stm32/lib/tinyusb/src/portable/synopsys/dwc2/dcd_dwc2.c ****   dwc2->dieptxf0 = (16 << DIEPTXF0_TX0FD_Pos) | (_dwc2_controller[rhport].ep_fifo_size / 4 - _alloc
 205:/Users/joostbooy/Desktop/Code/stm32/lib/tinyusb/src/portable/synopsys/dwc2/dcd_dwc2.c **** 
 206:/Users/joostbooy/Desktop/Code/stm32/lib/tinyusb/src/portable/synopsys/dwc2/dcd_dwc2.c ****   // Fixed control EP0 size to 64 bytes
 207:/Users/joostbooy/Desktop/Code/stm32/lib/tinyusb/src/portable/synopsys/dwc2/dcd_dwc2.c ****   dwc2->epin[0].diepctl &= ~(0x03 << DIEPCTL_MPSIZ_Pos);
 208:/Users/joostbooy/Desktop/Code/stm32/lib/tinyusb/src/portable/synopsys/dwc2/dcd_dwc2.c ****   xfer_status[0][TUSB_DIR_OUT].max_size = 64;
 209:/Users/joostbooy/Desktop/Code/stm32/lib/tinyusb/src/portable/synopsys/dwc2/dcd_dwc2.c ****   xfer_status[0][TUSB_DIR_IN].max_size = 64;
 210:/Users/joostbooy/Desktop/Code/stm32/lib/tinyusb/src/portable/synopsys/dwc2/dcd_dwc2.c **** 
 211:/Users/joostbooy/Desktop/Code/stm32/lib/tinyusb/src/portable/synopsys/dwc2/dcd_dwc2.c ****   dwc2->epout[0].doeptsiz |= (3 << DOEPTSIZ_STUPCNT_Pos);
 212:/Users/joostbooy/Desktop/Code/stm32/lib/tinyusb/src/portable/synopsys/dwc2/dcd_dwc2.c **** 
 213:/Users/joostbooy/Desktop/Code/stm32/lib/tinyusb/src/portable/synopsys/dwc2/dcd_dwc2.c ****   dwc2->gintmsk |= GINTMSK_OEPINT | GINTMSK_IEPINT;
 214:/Users/joostbooy/Desktop/Code/stm32/lib/tinyusb/src/portable/synopsys/dwc2/dcd_dwc2.c **** }
 215:/Users/joostbooy/Desktop/Code/stm32/lib/tinyusb/src/portable/synopsys/dwc2/dcd_dwc2.c **** 
 216:/Users/joostbooy/Desktop/Code/stm32/lib/tinyusb/src/portable/synopsys/dwc2/dcd_dwc2.c **** static void edpt_schedule_packets(uint8_t rhport, uint8_t const epnum, uint8_t const dir, uint16_t 
 217:/Users/joostbooy/Desktop/Code/stm32/lib/tinyusb/src/portable/synopsys/dwc2/dcd_dwc2.c ****                                   uint16_t total_bytes) {
  30              		.loc 1 217 57 view -0
  31              		.cfi_startproc
  32              		@ args = 4, pretend = 0, frame = 0
  33              		@ frame_needed = 0, uses_anonymous_args = 0
  34              		@ link register save eliminated.
 218:/Users/joostbooy/Desktop/Code/stm32/lib/tinyusb/src/portable/synopsys/dwc2/dcd_dwc2.c ****   (void) rhport;
  35              		.loc 1 218 3 view .LVU1
 219:/Users/joostbooy/Desktop/Code/stm32/lib/tinyusb/src/portable/synopsys/dwc2/dcd_dwc2.c **** 
 220:/Users/joostbooy/Desktop/Code/stm32/lib/tinyusb/src/portable/synopsys/dwc2/dcd_dwc2.c ****   dwc2_regs_t* dwc2 = DWC2_REG(rhport);
  36              		.loc 1 220 3 view .LVU2
 217:/Users/joostbooy/Desktop/Code/stm32/lib/tinyusb/src/portable/synopsys/dwc2/dcd_dwc2.c ****   (void) rhport;
  37              		.loc 1 217 57 is_stmt 0 view .LVU3
  38 0000 F0B4     		push	{r4, r5, r6, r7}
  39              		.cfi_def_cfa_offset 16
  40              		.cfi_offset 4, -16
  41              		.cfi_offset 5, -12
  42              		.cfi_offset 6, -8
  43              		.cfi_offset 7, -4
  44              		.loc 1 220 23 view .LVU4
  45 0002 0001     		lsls	r0, r0, #4
  46              	.LVL1:
  47              		.loc 1 220 23 view .LVU5
  48 0004 3F4D     		ldr	r5, .L18
 217:/Users/joostbooy/Desktop/Code/stm32/lib/tinyusb/src/portable/synopsys/dwc2/dcd_dwc2.c ****   (void) rhport;
  49              		.loc 1 217 57 view .LVU6
  50 0006 BDF81040 		ldrh	r4, [sp, #16]
  51              		.loc 1 220 16 view .LVU7
  52 000a 2E58     		ldr	r6, [r5, r0]
  53              	.LVL2:
 221:/Users/joostbooy/Desktop/Code/stm32/lib/tinyusb/src/portable/synopsys/dwc2/dcd_dwc2.c **** 
 222:/Users/joostbooy/Desktop/Code/stm32/lib/tinyusb/src/portable/synopsys/dwc2/dcd_dwc2.c ****   // EP0 is limited to one packet each xfer
 223:/Users/joostbooy/Desktop/Code/stm32/lib/tinyusb/src/portable/synopsys/dwc2/dcd_dwc2.c ****   // We use multiple transaction of xfer->max_size length to get a whole transfer done
 224:/Users/joostbooy/Desktop/Code/stm32/lib/tinyusb/src/portable/synopsys/dwc2/dcd_dwc2.c ****   if (epnum == 0) {
  54              		.loc 1 224 3 is_stmt 1 view .LVU8
  55              		.loc 1 224 6 is_stmt 0 view .LVU9
  56 000c 69B9     		cbnz	r1, .L2
  57              	.LBB181:
 225:/Users/joostbooy/Desktop/Code/stm32/lib/tinyusb/src/portable/synopsys/dwc2/dcd_dwc2.c ****     xfer_ctl_t* const xfer = XFER_CTL_BASE(epnum, dir);
  58              		.loc 1 225 5 is_stmt 1 view .LVU10
  59              	.LVL3:
ARM GAS  /var/folders/84/_x1cyy_j36g486tldtwl37280000gn/T//cc1ObSsF.s 			page 6


 226:/Users/joostbooy/Desktop/Code/stm32/lib/tinyusb/src/portable/synopsys/dwc2/dcd_dwc2.c ****     total_bytes = tu_min16(ep0_pending[dir], xfer->max_size);
  60              		.loc 1 226 5 view .LVU11
  61              		.loc 1 226 19 is_stmt 0 view .LVU12
  62 000e 3E4C     		ldr	r4, .L18+4
  63 0010 3E4F     		ldr	r7, .L18+8
  64 0012 04EB021C 		add	ip, r4, r2, lsl #4
  65 0016 37F81200 		ldrh	r0, [r7, r2, lsl #1]
  66              	.LVL4:
  67              	.LBB182:
  68              	.LBI182:
  69              		.file 2 "/Users/joostbooy/Desktop/Code/stm32/lib/tinyusb/src/common/tusb_common.h"
   1:/Users/joostbooy/Desktop/Code/stm32/lib/tinyusb/src/common/tusb_common.h **** /*
   2:/Users/joostbooy/Desktop/Code/stm32/lib/tinyusb/src/common/tusb_common.h ****  * The MIT License (MIT)
   3:/Users/joostbooy/Desktop/Code/stm32/lib/tinyusb/src/common/tusb_common.h ****  *
   4:/Users/joostbooy/Desktop/Code/stm32/lib/tinyusb/src/common/tusb_common.h ****  * Copyright (c) 2019 Ha Thach (tinyusb.org)
   5:/Users/joostbooy/Desktop/Code/stm32/lib/tinyusb/src/common/tusb_common.h ****  *
   6:/Users/joostbooy/Desktop/Code/stm32/lib/tinyusb/src/common/tusb_common.h ****  * Permission is hereby granted, free of charge, to any person obtaining a copy
   7:/Users/joostbooy/Desktop/Code/stm32/lib/tinyusb/src/common/tusb_common.h ****  * of this software and associated documentation files (the "Software"), to deal
   8:/Users/joostbooy/Desktop/Code/stm32/lib/tinyusb/src/common/tusb_common.h ****  * in the Software without restriction, including without limitation the rights
   9:/Users/joostbooy/Desktop/Code/stm32/lib/tinyusb/src/common/tusb_common.h ****  * to use, copy, modify, merge, publish, distribute, sublicense, and/or sell
  10:/Users/joostbooy/Desktop/Code/stm32/lib/tinyusb/src/common/tusb_common.h ****  * copies of the Software, and to permit persons to whom the Software is
  11:/Users/joostbooy/Desktop/Code/stm32/lib/tinyusb/src/common/tusb_common.h ****  * furnished to do so, subject to the following conditions:
  12:/Users/joostbooy/Desktop/Code/stm32/lib/tinyusb/src/common/tusb_common.h ****  *
  13:/Users/joostbooy/Desktop/Code/stm32/lib/tinyusb/src/common/tusb_common.h ****  * The above copyright notice and this permission notice shall be included in
  14:/Users/joostbooy/Desktop/Code/stm32/lib/tinyusb/src/common/tusb_common.h ****  * all copies or substantial portions of the Software.
  15:/Users/joostbooy/Desktop/Code/stm32/lib/tinyusb/src/common/tusb_common.h ****  *
  16:/Users/joostbooy/Desktop/Code/stm32/lib/tinyusb/src/common/tusb_common.h ****  * THE SOFTWARE IS PROVIDED "AS IS", WITHOUT WARRANTY OF ANY KIND, EXPRESS OR
  17:/Users/joostbooy/Desktop/Code/stm32/lib/tinyusb/src/common/tusb_common.h ****  * IMPLIED, INCLUDING BUT NOT LIMITED TO THE WARRANTIES OF MERCHANTABILITY,
  18:/Users/joostbooy/Desktop/Code/stm32/lib/tinyusb/src/common/tusb_common.h ****  * FITNESS FOR A PARTICULAR PURPOSE AND NONINFRINGEMENT. IN NO EVENT SHALL THE
  19:/Users/joostbooy/Desktop/Code/stm32/lib/tinyusb/src/common/tusb_common.h ****  * AUTHORS OR COPYRIGHT HOLDERS BE LIABLE FOR ANY CLAIM, DAMAGES OR OTHER
  20:/Users/joostbooy/Desktop/Code/stm32/lib/tinyusb/src/common/tusb_common.h ****  * LIABILITY, WHETHER IN AN ACTION OF CONTRACT, TORT OR OTHERWISE, ARISING FROM,
  21:/Users/joostbooy/Desktop/Code/stm32/lib/tinyusb/src/common/tusb_common.h ****  * OUT OF OR IN CONNECTION WITH THE SOFTWARE OR THE USE OR OTHER DEALINGS IN
  22:/Users/joostbooy/Desktop/Code/stm32/lib/tinyusb/src/common/tusb_common.h ****  * THE SOFTWARE.
  23:/Users/joostbooy/Desktop/Code/stm32/lib/tinyusb/src/common/tusb_common.h ****  *
  24:/Users/joostbooy/Desktop/Code/stm32/lib/tinyusb/src/common/tusb_common.h ****  * This file is part of the TinyUSB stack.
  25:/Users/joostbooy/Desktop/Code/stm32/lib/tinyusb/src/common/tusb_common.h ****  */
  26:/Users/joostbooy/Desktop/Code/stm32/lib/tinyusb/src/common/tusb_common.h **** 
  27:/Users/joostbooy/Desktop/Code/stm32/lib/tinyusb/src/common/tusb_common.h **** #ifndef _TUSB_COMMON_H_
  28:/Users/joostbooy/Desktop/Code/stm32/lib/tinyusb/src/common/tusb_common.h **** #define _TUSB_COMMON_H_
  29:/Users/joostbooy/Desktop/Code/stm32/lib/tinyusb/src/common/tusb_common.h **** 
  30:/Users/joostbooy/Desktop/Code/stm32/lib/tinyusb/src/common/tusb_common.h **** #ifdef __cplusplus
  31:/Users/joostbooy/Desktop/Code/stm32/lib/tinyusb/src/common/tusb_common.h ****  extern "C" {
  32:/Users/joostbooy/Desktop/Code/stm32/lib/tinyusb/src/common/tusb_common.h **** #endif
  33:/Users/joostbooy/Desktop/Code/stm32/lib/tinyusb/src/common/tusb_common.h **** 
  34:/Users/joostbooy/Desktop/Code/stm32/lib/tinyusb/src/common/tusb_common.h **** //--------------------------------------------------------------------+
  35:/Users/joostbooy/Desktop/Code/stm32/lib/tinyusb/src/common/tusb_common.h **** // Macros Helper
  36:/Users/joostbooy/Desktop/Code/stm32/lib/tinyusb/src/common/tusb_common.h **** //--------------------------------------------------------------------+
  37:/Users/joostbooy/Desktop/Code/stm32/lib/tinyusb/src/common/tusb_common.h **** #define TU_ARRAY_SIZE(_arr)   ( sizeof(_arr) / sizeof(_arr[0]) )
  38:/Users/joostbooy/Desktop/Code/stm32/lib/tinyusb/src/common/tusb_common.h **** #define TU_MIN(_x, _y)        ( ( (_x) < (_y) ) ? (_x) : (_y) )
  39:/Users/joostbooy/Desktop/Code/stm32/lib/tinyusb/src/common/tusb_common.h **** #define TU_MAX(_x, _y)        ( ( (_x) > (_y) ) ? (_x) : (_y) )
  40:/Users/joostbooy/Desktop/Code/stm32/lib/tinyusb/src/common/tusb_common.h **** 
  41:/Users/joostbooy/Desktop/Code/stm32/lib/tinyusb/src/common/tusb_common.h **** #define TU_U16(_high, _low)   ((uint16_t) (((_high) << 8) | (_low)))
  42:/Users/joostbooy/Desktop/Code/stm32/lib/tinyusb/src/common/tusb_common.h **** #define TU_U16_HIGH(_u16)     ((uint8_t) (((_u16) >> 8) & 0x00ff))
  43:/Users/joostbooy/Desktop/Code/stm32/lib/tinyusb/src/common/tusb_common.h **** #define TU_U16_LOW(_u16)      ((uint8_t) ((_u16)       & 0x00ff))
  44:/Users/joostbooy/Desktop/Code/stm32/lib/tinyusb/src/common/tusb_common.h **** #define U16_TO_U8S_BE(_u16)   TU_U16_HIGH(_u16), TU_U16_LOW(_u16)
  45:/Users/joostbooy/Desktop/Code/stm32/lib/tinyusb/src/common/tusb_common.h **** #define U16_TO_U8S_LE(_u16)   TU_U16_LOW(_u16), TU_U16_HIGH(_u16)
  46:/Users/joostbooy/Desktop/Code/stm32/lib/tinyusb/src/common/tusb_common.h **** 
ARM GAS  /var/folders/84/_x1cyy_j36g486tldtwl37280000gn/T//cc1ObSsF.s 			page 7


  47:/Users/joostbooy/Desktop/Code/stm32/lib/tinyusb/src/common/tusb_common.h **** #define TU_U32_BYTE3(_u32)    ((uint8_t) ((((uint32_t) _u32) >> 24) & 0x000000ff)) // MSB
  48:/Users/joostbooy/Desktop/Code/stm32/lib/tinyusb/src/common/tusb_common.h **** #define TU_U32_BYTE2(_u32)    ((uint8_t) ((((uint32_t) _u32) >> 16) & 0x000000ff))
  49:/Users/joostbooy/Desktop/Code/stm32/lib/tinyusb/src/common/tusb_common.h **** #define TU_U32_BYTE1(_u32)    ((uint8_t) ((((uint32_t) _u32) >>  8) & 0x000000ff))
  50:/Users/joostbooy/Desktop/Code/stm32/lib/tinyusb/src/common/tusb_common.h **** #define TU_U32_BYTE0(_u32)    ((uint8_t) (((uint32_t)  _u32)        & 0x000000ff)) // LSB
  51:/Users/joostbooy/Desktop/Code/stm32/lib/tinyusb/src/common/tusb_common.h **** 
  52:/Users/joostbooy/Desktop/Code/stm32/lib/tinyusb/src/common/tusb_common.h **** #define U32_TO_U8S_BE(_u32)   TU_U32_BYTE3(_u32), TU_U32_BYTE2(_u32), TU_U32_BYTE1(_u32), TU_U32_BY
  53:/Users/joostbooy/Desktop/Code/stm32/lib/tinyusb/src/common/tusb_common.h **** #define U32_TO_U8S_LE(_u32)   TU_U32_BYTE0(_u32), TU_U32_BYTE1(_u32), TU_U32_BYTE2(_u32), TU_U32_BY
  54:/Users/joostbooy/Desktop/Code/stm32/lib/tinyusb/src/common/tusb_common.h **** 
  55:/Users/joostbooy/Desktop/Code/stm32/lib/tinyusb/src/common/tusb_common.h **** #define TU_BIT(n)             (1UL << (n))
  56:/Users/joostbooy/Desktop/Code/stm32/lib/tinyusb/src/common/tusb_common.h **** 
  57:/Users/joostbooy/Desktop/Code/stm32/lib/tinyusb/src/common/tusb_common.h **** // Generate a mask with bit from high (31) to low (0) set, e.g TU_GENMASK(3, 0) = 0b1111
  58:/Users/joostbooy/Desktop/Code/stm32/lib/tinyusb/src/common/tusb_common.h **** #define TU_GENMASK(h, l)      ( (UINT32_MAX << (l)) & (UINT32_MAX >> (31 - (h))) )
  59:/Users/joostbooy/Desktop/Code/stm32/lib/tinyusb/src/common/tusb_common.h **** 
  60:/Users/joostbooy/Desktop/Code/stm32/lib/tinyusb/src/common/tusb_common.h **** //--------------------------------------------------------------------+
  61:/Users/joostbooy/Desktop/Code/stm32/lib/tinyusb/src/common/tusb_common.h **** // Includes
  62:/Users/joostbooy/Desktop/Code/stm32/lib/tinyusb/src/common/tusb_common.h **** //--------------------------------------------------------------------+
  63:/Users/joostbooy/Desktop/Code/stm32/lib/tinyusb/src/common/tusb_common.h **** 
  64:/Users/joostbooy/Desktop/Code/stm32/lib/tinyusb/src/common/tusb_common.h **** // Standard Headers
  65:/Users/joostbooy/Desktop/Code/stm32/lib/tinyusb/src/common/tusb_common.h **** #include <stdbool.h>
  66:/Users/joostbooy/Desktop/Code/stm32/lib/tinyusb/src/common/tusb_common.h **** #include <stdint.h>
  67:/Users/joostbooy/Desktop/Code/stm32/lib/tinyusb/src/common/tusb_common.h **** #include <stddef.h>
  68:/Users/joostbooy/Desktop/Code/stm32/lib/tinyusb/src/common/tusb_common.h **** #include <string.h>
  69:/Users/joostbooy/Desktop/Code/stm32/lib/tinyusb/src/common/tusb_common.h **** #include <stdio.h>
  70:/Users/joostbooy/Desktop/Code/stm32/lib/tinyusb/src/common/tusb_common.h **** 
  71:/Users/joostbooy/Desktop/Code/stm32/lib/tinyusb/src/common/tusb_common.h **** // Tinyusb Common Headers
  72:/Users/joostbooy/Desktop/Code/stm32/lib/tinyusb/src/common/tusb_common.h **** #include "tusb_option.h"
  73:/Users/joostbooy/Desktop/Code/stm32/lib/tinyusb/src/common/tusb_common.h **** #include "tusb_compiler.h"
  74:/Users/joostbooy/Desktop/Code/stm32/lib/tinyusb/src/common/tusb_common.h **** #include "tusb_verify.h"
  75:/Users/joostbooy/Desktop/Code/stm32/lib/tinyusb/src/common/tusb_common.h **** #include "tusb_types.h"
  76:/Users/joostbooy/Desktop/Code/stm32/lib/tinyusb/src/common/tusb_common.h **** #include "tusb_debug.h"
  77:/Users/joostbooy/Desktop/Code/stm32/lib/tinyusb/src/common/tusb_common.h **** 
  78:/Users/joostbooy/Desktop/Code/stm32/lib/tinyusb/src/common/tusb_common.h **** //--------------------------------------------------------------------+
  79:/Users/joostbooy/Desktop/Code/stm32/lib/tinyusb/src/common/tusb_common.h **** // Optional API implemented by application if needed
  80:/Users/joostbooy/Desktop/Code/stm32/lib/tinyusb/src/common/tusb_common.h **** // TODO move to a more ovious place/file
  81:/Users/joostbooy/Desktop/Code/stm32/lib/tinyusb/src/common/tusb_common.h **** //--------------------------------------------------------------------+
  82:/Users/joostbooy/Desktop/Code/stm32/lib/tinyusb/src/common/tusb_common.h **** 
  83:/Users/joostbooy/Desktop/Code/stm32/lib/tinyusb/src/common/tusb_common.h **** // flush data cache
  84:/Users/joostbooy/Desktop/Code/stm32/lib/tinyusb/src/common/tusb_common.h **** TU_ATTR_WEAK extern void tusb_app_dcache_flush(uintptr_t addr, uint32_t data_size);
  85:/Users/joostbooy/Desktop/Code/stm32/lib/tinyusb/src/common/tusb_common.h **** 
  86:/Users/joostbooy/Desktop/Code/stm32/lib/tinyusb/src/common/tusb_common.h **** // invalidate data cache
  87:/Users/joostbooy/Desktop/Code/stm32/lib/tinyusb/src/common/tusb_common.h **** TU_ATTR_WEAK extern void tusb_app_dcache_invalidate(uintptr_t addr, uint32_t data_size);
  88:/Users/joostbooy/Desktop/Code/stm32/lib/tinyusb/src/common/tusb_common.h **** 
  89:/Users/joostbooy/Desktop/Code/stm32/lib/tinyusb/src/common/tusb_common.h **** // Optional physical <-> virtual address translation
  90:/Users/joostbooy/Desktop/Code/stm32/lib/tinyusb/src/common/tusb_common.h **** TU_ATTR_WEAK extern void* tusb_app_virt_to_phys(void *virt_addr);
  91:/Users/joostbooy/Desktop/Code/stm32/lib/tinyusb/src/common/tusb_common.h **** TU_ATTR_WEAK extern void* tusb_app_phys_to_virt(void *phys_addr);
  92:/Users/joostbooy/Desktop/Code/stm32/lib/tinyusb/src/common/tusb_common.h **** 
  93:/Users/joostbooy/Desktop/Code/stm32/lib/tinyusb/src/common/tusb_common.h **** //--------------------------------------------------------------------+
  94:/Users/joostbooy/Desktop/Code/stm32/lib/tinyusb/src/common/tusb_common.h **** // Internal Inline Functions
  95:/Users/joostbooy/Desktop/Code/stm32/lib/tinyusb/src/common/tusb_common.h **** //--------------------------------------------------------------------+
  96:/Users/joostbooy/Desktop/Code/stm32/lib/tinyusb/src/common/tusb_common.h **** 
  97:/Users/joostbooy/Desktop/Code/stm32/lib/tinyusb/src/common/tusb_common.h **** //------------- Mem -------------//
  98:/Users/joostbooy/Desktop/Code/stm32/lib/tinyusb/src/common/tusb_common.h **** #define tu_memclr(buffer, size)  memset((buffer), 0, (size))
  99:/Users/joostbooy/Desktop/Code/stm32/lib/tinyusb/src/common/tusb_common.h **** #define tu_varclr(_var)          tu_memclr(_var, sizeof(*(_var)))
 100:/Users/joostbooy/Desktop/Code/stm32/lib/tinyusb/src/common/tusb_common.h **** 
 101:/Users/joostbooy/Desktop/Code/stm32/lib/tinyusb/src/common/tusb_common.h **** // This is a backport of memset_s from c11
 102:/Users/joostbooy/Desktop/Code/stm32/lib/tinyusb/src/common/tusb_common.h **** TU_ATTR_ALWAYS_INLINE static inline int tu_memset_s(void *dest, size_t destsz, int ch, size_t count
 103:/Users/joostbooy/Desktop/Code/stm32/lib/tinyusb/src/common/tusb_common.h ****   // TODO may check if desst and src is not NULL
ARM GAS  /var/folders/84/_x1cyy_j36g486tldtwl37280000gn/T//cc1ObSsF.s 			page 8


 104:/Users/joostbooy/Desktop/Code/stm32/lib/tinyusb/src/common/tusb_common.h ****   if ( count > destsz ) {
 105:/Users/joostbooy/Desktop/Code/stm32/lib/tinyusb/src/common/tusb_common.h ****     return -1;
 106:/Users/joostbooy/Desktop/Code/stm32/lib/tinyusb/src/common/tusb_common.h ****   }
 107:/Users/joostbooy/Desktop/Code/stm32/lib/tinyusb/src/common/tusb_common.h ****   memset(dest, ch, count);
 108:/Users/joostbooy/Desktop/Code/stm32/lib/tinyusb/src/common/tusb_common.h ****   return 0;
 109:/Users/joostbooy/Desktop/Code/stm32/lib/tinyusb/src/common/tusb_common.h **** }
 110:/Users/joostbooy/Desktop/Code/stm32/lib/tinyusb/src/common/tusb_common.h **** 
 111:/Users/joostbooy/Desktop/Code/stm32/lib/tinyusb/src/common/tusb_common.h **** // This is a backport of memcpy_s from c11
 112:/Users/joostbooy/Desktop/Code/stm32/lib/tinyusb/src/common/tusb_common.h **** TU_ATTR_ALWAYS_INLINE static inline int tu_memcpy_s(void *dest, size_t destsz, const void *src, siz
 113:/Users/joostbooy/Desktop/Code/stm32/lib/tinyusb/src/common/tusb_common.h ****   // TODO may check if desst and src is not NULL
 114:/Users/joostbooy/Desktop/Code/stm32/lib/tinyusb/src/common/tusb_common.h ****   if ( count > destsz ) {
 115:/Users/joostbooy/Desktop/Code/stm32/lib/tinyusb/src/common/tusb_common.h ****     return -1;
 116:/Users/joostbooy/Desktop/Code/stm32/lib/tinyusb/src/common/tusb_common.h ****   }
 117:/Users/joostbooy/Desktop/Code/stm32/lib/tinyusb/src/common/tusb_common.h ****   memcpy(dest, src, count);
 118:/Users/joostbooy/Desktop/Code/stm32/lib/tinyusb/src/common/tusb_common.h ****   return 0;
 119:/Users/joostbooy/Desktop/Code/stm32/lib/tinyusb/src/common/tusb_common.h **** }
 120:/Users/joostbooy/Desktop/Code/stm32/lib/tinyusb/src/common/tusb_common.h **** 
 121:/Users/joostbooy/Desktop/Code/stm32/lib/tinyusb/src/common/tusb_common.h **** 
 122:/Users/joostbooy/Desktop/Code/stm32/lib/tinyusb/src/common/tusb_common.h **** //------------- Bytes -------------//
 123:/Users/joostbooy/Desktop/Code/stm32/lib/tinyusb/src/common/tusb_common.h **** TU_ATTR_ALWAYS_INLINE static inline uint32_t tu_u32(uint8_t b3, uint8_t b2, uint8_t b1, uint8_t b0)
 124:/Users/joostbooy/Desktop/Code/stm32/lib/tinyusb/src/common/tusb_common.h ****   return ( ((uint32_t) b3) << 24) | ( ((uint32_t) b2) << 16) | ( ((uint32_t) b1) << 8) | b0;
 125:/Users/joostbooy/Desktop/Code/stm32/lib/tinyusb/src/common/tusb_common.h **** }
 126:/Users/joostbooy/Desktop/Code/stm32/lib/tinyusb/src/common/tusb_common.h **** 
 127:/Users/joostbooy/Desktop/Code/stm32/lib/tinyusb/src/common/tusb_common.h **** TU_ATTR_ALWAYS_INLINE static inline uint16_t tu_u16(uint8_t high, uint8_t low) {
 128:/Users/joostbooy/Desktop/Code/stm32/lib/tinyusb/src/common/tusb_common.h ****   return (uint16_t) ((((uint16_t) high) << 8) | low);
 129:/Users/joostbooy/Desktop/Code/stm32/lib/tinyusb/src/common/tusb_common.h **** }
 130:/Users/joostbooy/Desktop/Code/stm32/lib/tinyusb/src/common/tusb_common.h **** 
 131:/Users/joostbooy/Desktop/Code/stm32/lib/tinyusb/src/common/tusb_common.h **** TU_ATTR_ALWAYS_INLINE static inline uint8_t tu_u32_byte3(uint32_t ui32) { return TU_U32_BYTE3(ui32)
 132:/Users/joostbooy/Desktop/Code/stm32/lib/tinyusb/src/common/tusb_common.h **** TU_ATTR_ALWAYS_INLINE static inline uint8_t tu_u32_byte2(uint32_t ui32) { return TU_U32_BYTE2(ui32)
 133:/Users/joostbooy/Desktop/Code/stm32/lib/tinyusb/src/common/tusb_common.h **** TU_ATTR_ALWAYS_INLINE static inline uint8_t tu_u32_byte1(uint32_t ui32) { return TU_U32_BYTE1(ui32)
 134:/Users/joostbooy/Desktop/Code/stm32/lib/tinyusb/src/common/tusb_common.h **** TU_ATTR_ALWAYS_INLINE static inline uint8_t tu_u32_byte0(uint32_t ui32) { return TU_U32_BYTE0(ui32)
 135:/Users/joostbooy/Desktop/Code/stm32/lib/tinyusb/src/common/tusb_common.h **** 
 136:/Users/joostbooy/Desktop/Code/stm32/lib/tinyusb/src/common/tusb_common.h **** TU_ATTR_ALWAYS_INLINE static inline uint16_t tu_u32_high16(uint32_t ui32) { return (uint16_t) (ui32
 137:/Users/joostbooy/Desktop/Code/stm32/lib/tinyusb/src/common/tusb_common.h **** TU_ATTR_ALWAYS_INLINE static inline uint16_t tu_u32_low16 (uint32_t ui32) { return (uint16_t) (ui32
 138:/Users/joostbooy/Desktop/Code/stm32/lib/tinyusb/src/common/tusb_common.h **** 
 139:/Users/joostbooy/Desktop/Code/stm32/lib/tinyusb/src/common/tusb_common.h **** TU_ATTR_ALWAYS_INLINE static inline uint8_t tu_u16_high(uint16_t ui16) { return TU_U16_HIGH(ui16); 
 140:/Users/joostbooy/Desktop/Code/stm32/lib/tinyusb/src/common/tusb_common.h **** TU_ATTR_ALWAYS_INLINE static inline uint8_t tu_u16_low (uint16_t ui16) { return TU_U16_LOW(ui16); }
 141:/Users/joostbooy/Desktop/Code/stm32/lib/tinyusb/src/common/tusb_common.h **** 
 142:/Users/joostbooy/Desktop/Code/stm32/lib/tinyusb/src/common/tusb_common.h **** //------------- Bits -------------//
 143:/Users/joostbooy/Desktop/Code/stm32/lib/tinyusb/src/common/tusb_common.h **** TU_ATTR_ALWAYS_INLINE static inline uint32_t tu_bit_set  (uint32_t value, uint8_t pos) { return val
 144:/Users/joostbooy/Desktop/Code/stm32/lib/tinyusb/src/common/tusb_common.h **** TU_ATTR_ALWAYS_INLINE static inline uint32_t tu_bit_clear(uint32_t value, uint8_t pos) { return val
 145:/Users/joostbooy/Desktop/Code/stm32/lib/tinyusb/src/common/tusb_common.h **** TU_ATTR_ALWAYS_INLINE static inline bool     tu_bit_test (uint32_t value, uint8_t pos) { return (va
 146:/Users/joostbooy/Desktop/Code/stm32/lib/tinyusb/src/common/tusb_common.h **** 
 147:/Users/joostbooy/Desktop/Code/stm32/lib/tinyusb/src/common/tusb_common.h **** //------------- Min -------------//
 148:/Users/joostbooy/Desktop/Code/stm32/lib/tinyusb/src/common/tusb_common.h **** TU_ATTR_ALWAYS_INLINE static inline uint8_t  tu_min8  (uint8_t  x, uint8_t y ) { return (x < y) ? x
 149:/Users/joostbooy/Desktop/Code/stm32/lib/tinyusb/src/common/tusb_common.h **** TU_ATTR_ALWAYS_INLINE static inline uint16_t tu_min16 (uint16_t x, uint16_t y) { return (x < y) ? x
  70              		.loc 2 149 46 is_stmt 1 view .LVU13
  71              	.LBB183:
  72              		.loc 2 149 82 view .LVU14
  73              		.loc 2 149 101 is_stmt 0 view .LVU15
  74 001a BCF80A40 		ldrh	r4, [ip, #10]
  75 001e 8442     		cmp	r4, r0
  76 0020 28BF     		it	cs
  77 0022 0446     		movcs	r4, r0
  78              	.LVL5:
  79              		.loc 2 149 101 view .LVU16
  80              	.LBE183:
ARM GAS  /var/folders/84/_x1cyy_j36g486tldtwl37280000gn/T//cc1ObSsF.s 			page 9


  81              	.LBE182:
 227:/Users/joostbooy/Desktop/Code/stm32/lib/tinyusb/src/portable/synopsys/dwc2/dcd_dwc2.c ****     ep0_pending[dir] -= total_bytes;
  82              		.loc 1 227 5 is_stmt 1 view .LVU17
  83              		.loc 1 227 22 is_stmt 0 view .LVU18
  84 0024 051B     		subs	r5, r0, r4
  85 0026 27F81250 		strh	r5, [r7, r2, lsl #1]	@ movhi
  86              	.LVL6:
  87              	.L2:
  88              		.loc 1 227 22 view .LVU19
  89              	.LBE181:
 228:/Users/joostbooy/Desktop/Code/stm32/lib/tinyusb/src/portable/synopsys/dwc2/dcd_dwc2.c ****   }
 229:/Users/joostbooy/Desktop/Code/stm32/lib/tinyusb/src/portable/synopsys/dwc2/dcd_dwc2.c **** 
 230:/Users/joostbooy/Desktop/Code/stm32/lib/tinyusb/src/portable/synopsys/dwc2/dcd_dwc2.c ****   // IN and OUT endpoint xfers are interrupt-driven, we just schedule them here.
 231:/Users/joostbooy/Desktop/Code/stm32/lib/tinyusb/src/portable/synopsys/dwc2/dcd_dwc2.c ****   if (dir == TUSB_DIR_IN) {
  90              		.loc 1 231 3 is_stmt 1 view .LVU20
  91              		.loc 1 231 6 is_stmt 0 view .LVU21
  92 002a 012A     		cmp	r2, #1
  93 002c 31D0     		beq	.L14
  94              	.LBB184:
 232:/Users/joostbooy/Desktop/Code/stm32/lib/tinyusb/src/portable/synopsys/dwc2/dcd_dwc2.c ****     dwc2_epin_t* epin = dwc2->epin;
 233:/Users/joostbooy/Desktop/Code/stm32/lib/tinyusb/src/portable/synopsys/dwc2/dcd_dwc2.c **** 
 234:/Users/joostbooy/Desktop/Code/stm32/lib/tinyusb/src/portable/synopsys/dwc2/dcd_dwc2.c ****     // A full IN transfer (multiple packets, possibly) triggers XFRC.
 235:/Users/joostbooy/Desktop/Code/stm32/lib/tinyusb/src/portable/synopsys/dwc2/dcd_dwc2.c ****     epin[epnum].dieptsiz = (num_packets << DIEPTSIZ_PKTCNT_Pos) |
 236:/Users/joostbooy/Desktop/Code/stm32/lib/tinyusb/src/portable/synopsys/dwc2/dcd_dwc2.c ****                            ((total_bytes << DIEPTSIZ_XFRSIZ_Pos) & DIEPTSIZ_XFRSIZ_Msk);
 237:/Users/joostbooy/Desktop/Code/stm32/lib/tinyusb/src/portable/synopsys/dwc2/dcd_dwc2.c **** 
 238:/Users/joostbooy/Desktop/Code/stm32/lib/tinyusb/src/portable/synopsys/dwc2/dcd_dwc2.c ****     epin[epnum].diepctl |= DIEPCTL_EPENA | DIEPCTL_CNAK;
 239:/Users/joostbooy/Desktop/Code/stm32/lib/tinyusb/src/portable/synopsys/dwc2/dcd_dwc2.c **** 
 240:/Users/joostbooy/Desktop/Code/stm32/lib/tinyusb/src/portable/synopsys/dwc2/dcd_dwc2.c ****     // For ISO endpoint set correct odd/even bit for next frame.
 241:/Users/joostbooy/Desktop/Code/stm32/lib/tinyusb/src/portable/synopsys/dwc2/dcd_dwc2.c ****     if ((epin[epnum].diepctl & DIEPCTL_EPTYP) == DIEPCTL_EPTYP_0 && (XFER_CTL_BASE(epnum, dir))->in
 242:/Users/joostbooy/Desktop/Code/stm32/lib/tinyusb/src/portable/synopsys/dwc2/dcd_dwc2.c ****       // Take odd/even bit from frame counter.
 243:/Users/joostbooy/Desktop/Code/stm32/lib/tinyusb/src/portable/synopsys/dwc2/dcd_dwc2.c ****       uint32_t const odd_frame_now = (dwc2->dsts & (1u << DSTS_FNSOF_Pos));
 244:/Users/joostbooy/Desktop/Code/stm32/lib/tinyusb/src/portable/synopsys/dwc2/dcd_dwc2.c ****       epin[epnum].diepctl |= (odd_frame_now ? DIEPCTL_SD0PID_SEVNFRM_Msk : DIEPCTL_SODDFRM_Msk);
 245:/Users/joostbooy/Desktop/Code/stm32/lib/tinyusb/src/portable/synopsys/dwc2/dcd_dwc2.c ****     }
 246:/Users/joostbooy/Desktop/Code/stm32/lib/tinyusb/src/portable/synopsys/dwc2/dcd_dwc2.c ****     // Enable fifo empty interrupt only if there are something to put in the fifo.
 247:/Users/joostbooy/Desktop/Code/stm32/lib/tinyusb/src/portable/synopsys/dwc2/dcd_dwc2.c ****     if (total_bytes != 0) {
 248:/Users/joostbooy/Desktop/Code/stm32/lib/tinyusb/src/portable/synopsys/dwc2/dcd_dwc2.c ****       dwc2->diepempmsk |= (1 << epnum);
 249:/Users/joostbooy/Desktop/Code/stm32/lib/tinyusb/src/portable/synopsys/dwc2/dcd_dwc2.c ****     }
 250:/Users/joostbooy/Desktop/Code/stm32/lib/tinyusb/src/portable/synopsys/dwc2/dcd_dwc2.c ****   } else {
 251:/Users/joostbooy/Desktop/Code/stm32/lib/tinyusb/src/portable/synopsys/dwc2/dcd_dwc2.c ****     dwc2_epout_t* epout = dwc2->epout;
  95              		.loc 1 251 5 is_stmt 1 view .LVU22
  96              	.LVL7:
 252:/Users/joostbooy/Desktop/Code/stm32/lib/tinyusb/src/portable/synopsys/dwc2/dcd_dwc2.c **** 
 253:/Users/joostbooy/Desktop/Code/stm32/lib/tinyusb/src/portable/synopsys/dwc2/dcd_dwc2.c ****     // A full OUT transfer (multiple packets, possibly) triggers XFRC.
 254:/Users/joostbooy/Desktop/Code/stm32/lib/tinyusb/src/portable/synopsys/dwc2/dcd_dwc2.c ****     epout[epnum].doeptsiz &= ~(DOEPTSIZ_PKTCNT_Msk | DOEPTSIZ_XFRSIZ);
  97              		.loc 1 254 5 view .LVU23
 251:/Users/joostbooy/Desktop/Code/stm32/lib/tinyusb/src/portable/synopsys/dwc2/dcd_dwc2.c **** 
  98              		.loc 1 251 19 is_stmt 0 view .LVU24
  99 002e 06F5306C 		add	ip, r6, #2816
 100              	.LVL8:
 101              		.loc 1 254 27 view .LVU25
 102 0032 0CEB4110 		add	r0, ip, r1, lsl #5
 103              		.loc 1 254 10 view .LVU26
 104 0036 4F01     		lsls	r7, r1, #5
 105              		.loc 1 254 27 view .LVU27
 106 0038 0269     		ldr	r2, [r0, #16]
 107              	.LVL9:
 108              		.loc 1 254 27 view .LVU28
ARM GAS  /var/folders/84/_x1cyy_j36g486tldtwl37280000gn/T//cc1ObSsF.s 			page 10


 109 003a 02F06045 		and	r5, r2, #-536870912
 110 003e 0561     		str	r5, [r0, #16]
 255:/Users/joostbooy/Desktop/Code/stm32/lib/tinyusb/src/portable/synopsys/dwc2/dcd_dwc2.c ****     epout[epnum].doeptsiz |= (num_packets << DOEPTSIZ_PKTCNT_Pos) |
 111              		.loc 1 255 5 is_stmt 1 view .LVU29
 112              		.loc 1 255 27 is_stmt 0 view .LVU30
 113 0040 0269     		ldr	r2, [r0, #16]
 114 0042 42EAC343 		orr	r3, r2, r3, lsl #19
 115              	.LVL10:
 116              		.loc 1 255 27 view .LVU31
 117 0046 1C43     		orrs	r4, r4, r3
 118              	.LVL11:
 119              		.loc 1 255 27 view .LVU32
 120 0048 0461     		str	r4, [r0, #16]
 256:/Users/joostbooy/Desktop/Code/stm32/lib/tinyusb/src/portable/synopsys/dwc2/dcd_dwc2.c ****                              ((total_bytes << DOEPTSIZ_XFRSIZ_Pos) & DOEPTSIZ_XFRSIZ_Msk);
 257:/Users/joostbooy/Desktop/Code/stm32/lib/tinyusb/src/portable/synopsys/dwc2/dcd_dwc2.c **** 
 258:/Users/joostbooy/Desktop/Code/stm32/lib/tinyusb/src/portable/synopsys/dwc2/dcd_dwc2.c ****     epout[epnum].doepctl |= DOEPCTL_EPENA | DOEPCTL_CNAK;
 121              		.loc 1 258 5 is_stmt 1 view .LVU33
 122              		.loc 1 258 26 is_stmt 0 view .LVU34
 123 004a 5CF80740 		ldr	r4, [ip, r7]
 124 004e 44F00440 		orr	r0, r4, #-2080374784
 125 0052 4CF80700 		str	r0, [ip, r7]
 259:/Users/joostbooy/Desktop/Code/stm32/lib/tinyusb/src/portable/synopsys/dwc2/dcd_dwc2.c ****     if ((epout[epnum].doepctl & DOEPCTL_EPTYP) == DOEPCTL_EPTYP_0 &&
 126              		.loc 1 259 5 is_stmt 1 view .LVU35
 127              		.loc 1 259 22 is_stmt 0 view .LVU36
 128 0056 5CF80750 		ldr	r5, [ip, r7]
 129              		.loc 1 259 31 view .LVU37
 130 005a 05F44022 		and	r2, r5, #786432
 131              		.loc 1 259 8 view .LVU38
 132 005e B2F5802F 		cmp	r2, #262144
 133 0062 01D0     		beq	.L15
 134              	.LVL12:
 135              	.L1:
 136              		.loc 1 259 8 view .LVU39
 137              	.LBE184:
 260:/Users/joostbooy/Desktop/Code/stm32/lib/tinyusb/src/portable/synopsys/dwc2/dcd_dwc2.c ****         XFER_CTL_BASE(epnum, dir)->interval == 1) {
 261:/Users/joostbooy/Desktop/Code/stm32/lib/tinyusb/src/portable/synopsys/dwc2/dcd_dwc2.c ****       // Take odd/even bit from frame counter.
 262:/Users/joostbooy/Desktop/Code/stm32/lib/tinyusb/src/portable/synopsys/dwc2/dcd_dwc2.c ****       uint32_t const odd_frame_now = (dwc2->dsts & (1u << DSTS_FNSOF_Pos));
 263:/Users/joostbooy/Desktop/Code/stm32/lib/tinyusb/src/portable/synopsys/dwc2/dcd_dwc2.c ****       epout[epnum].doepctl |= (odd_frame_now ? DOEPCTL_SD0PID_SEVNFRM_Msk : DOEPCTL_SODDFRM_Msk);
 264:/Users/joostbooy/Desktop/Code/stm32/lib/tinyusb/src/portable/synopsys/dwc2/dcd_dwc2.c ****     }
 265:/Users/joostbooy/Desktop/Code/stm32/lib/tinyusb/src/portable/synopsys/dwc2/dcd_dwc2.c ****   }
 266:/Users/joostbooy/Desktop/Code/stm32/lib/tinyusb/src/portable/synopsys/dwc2/dcd_dwc2.c **** }
 138              		.loc 1 266 1 view .LVU40
 139 0064 F0BC     		pop	{r4, r5, r6, r7}
 140              		.cfi_remember_state
 141              		.cfi_restore 7
 142              		.cfi_restore 6
 143              		.cfi_restore 5
 144              		.cfi_restore 4
 145              		.cfi_def_cfa_offset 0
 146 0066 7047     		bx	lr
 147              	.LVL13:
 148              	.L15:
 149              		.cfi_restore_state
 150              	.LBB186:
 260:/Users/joostbooy/Desktop/Code/stm32/lib/tinyusb/src/portable/synopsys/dwc2/dcd_dwc2.c ****         XFER_CTL_BASE(epnum, dir)->interval == 1) {
 151              		.loc 1 260 34 discriminator 1 view .LVU41
 152 0068 274B     		ldr	r3, .L18+4
ARM GAS  /var/folders/84/_x1cyy_j36g486tldtwl37280000gn/T//cc1ObSsF.s 			page 11


 153 006a 03EB4111 		add	r1, r3, r1, lsl #5
 154              	.LVL14:
 259:/Users/joostbooy/Desktop/Code/stm32/lib/tinyusb/src/portable/synopsys/dwc2/dcd_dwc2.c ****     if ((epout[epnum].doepctl & DOEPCTL_EPTYP) == DOEPCTL_EPTYP_0 &&
 155              		.loc 1 259 67 discriminator 1 view .LVU42
 156 006e 0C7B     		ldrb	r4, [r1, #12]	@ zero_extendqisi2
 157 0070 012C     		cmp	r4, #1
 158 0072 F7D1     		bne	.L1
 159              	.LBB185:
 262:/Users/joostbooy/Desktop/Code/stm32/lib/tinyusb/src/portable/synopsys/dwc2/dcd_dwc2.c ****       epout[epnum].doepctl |= (odd_frame_now ? DOEPCTL_SD0PID_SEVNFRM_Msk : DOEPCTL_SODDFRM_Msk);
 160              		.loc 1 262 7 is_stmt 1 view .LVU43
 262:/Users/joostbooy/Desktop/Code/stm32/lib/tinyusb/src/portable/synopsys/dwc2/dcd_dwc2.c ****       epout[epnum].doepctl |= (odd_frame_now ? DOEPCTL_SD0PID_SEVNFRM_Msk : DOEPCTL_SODDFRM_Msk);
 161              		.loc 1 262 43 is_stmt 0 view .LVU44
 162 0074 D6F80868 		ldr	r6, [r6, #2056]
 163              	.LVL15:
 263:/Users/joostbooy/Desktop/Code/stm32/lib/tinyusb/src/portable/synopsys/dwc2/dcd_dwc2.c ****     }
 164              		.loc 1 263 7 is_stmt 1 view .LVU45
 263:/Users/joostbooy/Desktop/Code/stm32/lib/tinyusb/src/portable/synopsys/dwc2/dcd_dwc2.c ****     }
 165              		.loc 1 263 28 is_stmt 0 view .LVU46
 166 0078 5CF80700 		ldr	r0, [ip, r7]
 263:/Users/joostbooy/Desktop/Code/stm32/lib/tinyusb/src/portable/synopsys/dwc2/dcd_dwc2.c ****     }
 167              		.loc 1 263 75 view .LVU47
 168 007c 16F4807F 		tst	r6, #256
 169 0080 14BF     		ite	ne
 170 0082 4FF08056 		movne	r6, #268435456
 171              	.LVL16:
 263:/Users/joostbooy/Desktop/Code/stm32/lib/tinyusb/src/portable/synopsys/dwc2/dcd_dwc2.c ****     }
 172              		.loc 1 263 75 view .LVU48
 173 0086 4FF00056 		moveq	r6, #536870912
 263:/Users/joostbooy/Desktop/Code/stm32/lib/tinyusb/src/portable/synopsys/dwc2/dcd_dwc2.c ****     }
 174              		.loc 1 263 28 view .LVU49
 175 008a 3043     		orrs	r0, r0, r6
 176 008c 4CF80700 		str	r0, [ip, r7]
 177              	.LBE185:
 178              	.LBE186:
 179              		.loc 1 266 1 view .LVU50
 180 0090 E8E7     		b	.L1
 181              	.LVL17:
 182              	.L14:
 183              	.LBB187:
 232:/Users/joostbooy/Desktop/Code/stm32/lib/tinyusb/src/portable/synopsys/dwc2/dcd_dwc2.c **** 
 184              		.loc 1 232 5 is_stmt 1 view .LVU51
 235:/Users/joostbooy/Desktop/Code/stm32/lib/tinyusb/src/portable/synopsys/dwc2/dcd_dwc2.c ****                            ((total_bytes << DIEPTSIZ_XFRSIZ_Pos) & DIEPTSIZ_XFRSIZ_Msk);
 185              		.loc 1 235 5 view .LVU52
 232:/Users/joostbooy/Desktop/Code/stm32/lib/tinyusb/src/portable/synopsys/dwc2/dcd_dwc2.c **** 
 186              		.loc 1 232 18 is_stmt 0 view .LVU53
 187 0092 06F5106C 		add	ip, r6, #2304
 188              	.LVL18:
 235:/Users/joostbooy/Desktop/Code/stm32/lib/tinyusb/src/portable/synopsys/dwc2/dcd_dwc2.c ****                            ((total_bytes << DIEPTSIZ_XFRSIZ_Pos) & DIEPTSIZ_XFRSIZ_Msk);
 189              		.loc 1 235 9 view .LVU54
 190 0096 0CEB4117 		add	r7, ip, r1, lsl #5
 235:/Users/joostbooy/Desktop/Code/stm32/lib/tinyusb/src/portable/synopsys/dwc2/dcd_dwc2.c ****                            ((total_bytes << DIEPTSIZ_XFRSIZ_Pos) & DIEPTSIZ_XFRSIZ_Msk);
 191              		.loc 1 235 65 view .LVU55
 192 009a 44EAC345 		orr	r5, r4, r3, lsl #19
 235:/Users/joostbooy/Desktop/Code/stm32/lib/tinyusb/src/portable/synopsys/dwc2/dcd_dwc2.c ****                            ((total_bytes << DIEPTSIZ_XFRSIZ_Pos) & DIEPTSIZ_XFRSIZ_Msk);
 193              		.loc 1 235 9 view .LVU56
 194 009e 4A01     		lsls	r2, r1, #5
 195              	.LVL19:
ARM GAS  /var/folders/84/_x1cyy_j36g486tldtwl37280000gn/T//cc1ObSsF.s 			page 12


 235:/Users/joostbooy/Desktop/Code/stm32/lib/tinyusb/src/portable/synopsys/dwc2/dcd_dwc2.c ****                            ((total_bytes << DIEPTSIZ_XFRSIZ_Pos) & DIEPTSIZ_XFRSIZ_Msk);
 196              		.loc 1 235 26 view .LVU57
 197 00a0 3D61     		str	r5, [r7, #16]
 238:/Users/joostbooy/Desktop/Code/stm32/lib/tinyusb/src/portable/synopsys/dwc2/dcd_dwc2.c **** 
 198              		.loc 1 238 5 is_stmt 1 view .LVU58
 238:/Users/joostbooy/Desktop/Code/stm32/lib/tinyusb/src/portable/synopsys/dwc2/dcd_dwc2.c **** 
 199              		.loc 1 238 25 is_stmt 0 view .LVU59
 200 00a2 5CF80230 		ldr	r3, [ip, r2]
 201              	.LVL20:
 238:/Users/joostbooy/Desktop/Code/stm32/lib/tinyusb/src/portable/synopsys/dwc2/dcd_dwc2.c **** 
 202              		.loc 1 238 25 view .LVU60
 203 00a6 43F00440 		orr	r0, r3, #-2080374784
 204 00aa 4CF80200 		str	r0, [ip, r2]
 241:/Users/joostbooy/Desktop/Code/stm32/lib/tinyusb/src/portable/synopsys/dwc2/dcd_dwc2.c ****       // Take odd/even bit from frame counter.
 205              		.loc 1 241 5 is_stmt 1 view .LVU61
 241:/Users/joostbooy/Desktop/Code/stm32/lib/tinyusb/src/portable/synopsys/dwc2/dcd_dwc2.c ****       // Take odd/even bit from frame counter.
 206              		.loc 1 241 21 is_stmt 0 view .LVU62
 207 00ae 5CF80270 		ldr	r7, [ip, r2]
 241:/Users/joostbooy/Desktop/Code/stm32/lib/tinyusb/src/portable/synopsys/dwc2/dcd_dwc2.c ****       // Take odd/even bit from frame counter.
 208              		.loc 1 241 30 view .LVU63
 209 00b2 07F44025 		and	r5, r7, #786432
 241:/Users/joostbooy/Desktop/Code/stm32/lib/tinyusb/src/portable/synopsys/dwc2/dcd_dwc2.c ****       // Take odd/even bit from frame counter.
 210              		.loc 1 241 8 view .LVU64
 211 00b6 B5F5802F 		cmp	r5, #262144
 212 00ba 0BD0     		beq	.L16
 213              	.L4:
 247:/Users/joostbooy/Desktop/Code/stm32/lib/tinyusb/src/portable/synopsys/dwc2/dcd_dwc2.c ****       dwc2->diepempmsk |= (1 << epnum);
 214              		.loc 1 247 5 is_stmt 1 view .LVU65
 247:/Users/joostbooy/Desktop/Code/stm32/lib/tinyusb/src/portable/synopsys/dwc2/dcd_dwc2.c ****       dwc2->diepempmsk |= (1 << epnum);
 215              		.loc 1 247 8 is_stmt 0 view .LVU66
 216 00bc 002C     		cmp	r4, #0
 217 00be D1D0     		beq	.L1
 218              	.L17:
 248:/Users/joostbooy/Desktop/Code/stm32/lib/tinyusb/src/portable/synopsys/dwc2/dcd_dwc2.c ****     }
 219              		.loc 1 248 7 is_stmt 1 view .LVU67
 248:/Users/joostbooy/Desktop/Code/stm32/lib/tinyusb/src/portable/synopsys/dwc2/dcd_dwc2.c ****     }
 220              		.loc 1 248 24 is_stmt 0 view .LVU68
 221 00c0 D6F83428 		ldr	r2, [r6, #2100]
 248:/Users/joostbooy/Desktop/Code/stm32/lib/tinyusb/src/portable/synopsys/dwc2/dcd_dwc2.c ****     }
 222              		.loc 1 248 30 view .LVU69
 223 00c4 0124     		movs	r4, #1
 224              	.LVL21:
 248:/Users/joostbooy/Desktop/Code/stm32/lib/tinyusb/src/portable/synopsys/dwc2/dcd_dwc2.c ****     }
 225              		.loc 1 248 30 view .LVU70
 226 00c6 04FA01F1 		lsl	r1, r4, r1
 227              	.LVL22:
 248:/Users/joostbooy/Desktop/Code/stm32/lib/tinyusb/src/portable/synopsys/dwc2/dcd_dwc2.c ****     }
 228              		.loc 1 248 24 view .LVU71
 229 00ca 1143     		orrs	r1, r1, r2
 230 00cc C6F83418 		str	r1, [r6, #2100]
 231              	.LBE187:
 232              		.loc 1 266 1 view .LVU72
 233 00d0 F0BC     		pop	{r4, r5, r6, r7}
 234              		.cfi_remember_state
 235              		.cfi_restore 7
 236              		.cfi_restore 6
 237              		.cfi_restore 5
ARM GAS  /var/folders/84/_x1cyy_j36g486tldtwl37280000gn/T//cc1ObSsF.s 			page 13


 238              		.cfi_restore 4
 239              		.cfi_def_cfa_offset 0
 240              	.LVL23:
 241              		.loc 1 266 1 view .LVU73
 242 00d2 7047     		bx	lr
 243              	.LVL24:
 244              	.L16:
 245              		.cfi_restore_state
 246              	.LBB189:
 241:/Users/joostbooy/Desktop/Code/stm32/lib/tinyusb/src/portable/synopsys/dwc2/dcd_dwc2.c ****       // Take odd/even bit from frame counter.
 247              		.loc 1 241 96 discriminator 1 view .LVU74
 248 00d4 0C4B     		ldr	r3, .L18+4
 249 00d6 03EB4110 		add	r0, r3, r1, lsl #5
 241:/Users/joostbooy/Desktop/Code/stm32/lib/tinyusb/src/portable/synopsys/dwc2/dcd_dwc2.c ****       // Take odd/even bit from frame counter.
 250              		.loc 1 241 66 discriminator 1 view .LVU75
 251 00da 077F     		ldrb	r7, [r0, #28]	@ zero_extendqisi2
 252 00dc 012F     		cmp	r7, #1
 253 00de EDD1     		bne	.L4
 254              	.LBB188:
 243:/Users/joostbooy/Desktop/Code/stm32/lib/tinyusb/src/portable/synopsys/dwc2/dcd_dwc2.c ****       epin[epnum].diepctl |= (odd_frame_now ? DIEPCTL_SD0PID_SEVNFRM_Msk : DIEPCTL_SODDFRM_Msk);
 255              		.loc 1 243 7 is_stmt 1 view .LVU76
 243:/Users/joostbooy/Desktop/Code/stm32/lib/tinyusb/src/portable/synopsys/dwc2/dcd_dwc2.c ****       epin[epnum].diepctl |= (odd_frame_now ? DIEPCTL_SD0PID_SEVNFRM_Msk : DIEPCTL_SODDFRM_Msk);
 256              		.loc 1 243 43 is_stmt 0 view .LVU77
 257 00e0 D6F80858 		ldr	r5, [r6, #2056]
 258              	.LVL25:
 244:/Users/joostbooy/Desktop/Code/stm32/lib/tinyusb/src/portable/synopsys/dwc2/dcd_dwc2.c ****     }
 259              		.loc 1 244 7 is_stmt 1 view .LVU78
 244:/Users/joostbooy/Desktop/Code/stm32/lib/tinyusb/src/portable/synopsys/dwc2/dcd_dwc2.c ****     }
 260              		.loc 1 244 27 is_stmt 0 view .LVU79
 261 00e4 5CF80230 		ldr	r3, [ip, r2]
 244:/Users/joostbooy/Desktop/Code/stm32/lib/tinyusb/src/portable/synopsys/dwc2/dcd_dwc2.c ****     }
 262              		.loc 1 244 74 view .LVU80
 263 00e8 15F4807F 		tst	r5, #256
 264 00ec 14BF     		ite	ne
 265 00ee 4FF08055 		movne	r5, #268435456
 266              	.LVL26:
 244:/Users/joostbooy/Desktop/Code/stm32/lib/tinyusb/src/portable/synopsys/dwc2/dcd_dwc2.c ****     }
 267              		.loc 1 244 74 view .LVU81
 268 00f2 4FF00055 		moveq	r5, #536870912
 244:/Users/joostbooy/Desktop/Code/stm32/lib/tinyusb/src/portable/synopsys/dwc2/dcd_dwc2.c ****     }
 269              		.loc 1 244 27 view .LVU82
 270 00f6 2B43     		orrs	r3, r3, r5
 271 00f8 4CF80230 		str	r3, [ip, r2]
 272              	.LBE188:
 247:/Users/joostbooy/Desktop/Code/stm32/lib/tinyusb/src/portable/synopsys/dwc2/dcd_dwc2.c ****       dwc2->diepempmsk |= (1 << epnum);
 273              		.loc 1 247 5 is_stmt 1 view .LVU83
 247:/Users/joostbooy/Desktop/Code/stm32/lib/tinyusb/src/portable/synopsys/dwc2/dcd_dwc2.c ****       dwc2->diepempmsk |= (1 << epnum);
 274              		.loc 1 247 8 is_stmt 0 view .LVU84
 275 00fc 002C     		cmp	r4, #0
 276 00fe B1D0     		beq	.L1
 277 0100 DEE7     		b	.L17
 278              	.L19:
 279 0102 00BF     		.align	2
 280              	.L18:
 281 0104 00000000 		.word	.LANCHOR0
 282 0108 00000000 		.word	.LANCHOR2
 283 010c 00000000 		.word	.LANCHOR1
ARM GAS  /var/folders/84/_x1cyy_j36g486tldtwl37280000gn/T//cc1ObSsF.s 			page 14


 284              	.LBE189:
 285              		.cfi_endproc
 286              	.LFE306:
 288              		.section	.text.dcd_edpt_disable,"ax",%progbits
 289              		.align	1
 290              		.p2align 2,,3
 291              		.syntax unified
 292              		.thumb
 293              		.thumb_func
 294              		.fpu fpv4-sp-d16
 296              	dcd_edpt_disable:
 297              	.LVL27:
 298              	.LFB324:
 267:/Users/joostbooy/Desktop/Code/stm32/lib/tinyusb/src/portable/synopsys/dwc2/dcd_dwc2.c **** 
 268:/Users/joostbooy/Desktop/Code/stm32/lib/tinyusb/src/portable/synopsys/dwc2/dcd_dwc2.c **** /*------------------------------------------------------------------*/
 269:/Users/joostbooy/Desktop/Code/stm32/lib/tinyusb/src/portable/synopsys/dwc2/dcd_dwc2.c **** /* Controller API
 270:/Users/joostbooy/Desktop/Code/stm32/lib/tinyusb/src/portable/synopsys/dwc2/dcd_dwc2.c ****  *------------------------------------------------------------------*/
 271:/Users/joostbooy/Desktop/Code/stm32/lib/tinyusb/src/portable/synopsys/dwc2/dcd_dwc2.c **** #if CFG_TUSB_DEBUG >= DWC2_DEBUG
 272:/Users/joostbooy/Desktop/Code/stm32/lib/tinyusb/src/portable/synopsys/dwc2/dcd_dwc2.c **** 
 273:/Users/joostbooy/Desktop/Code/stm32/lib/tinyusb/src/portable/synopsys/dwc2/dcd_dwc2.c **** void print_dwc2_info(dwc2_regs_t* dwc2) {
 274:/Users/joostbooy/Desktop/Code/stm32/lib/tinyusb/src/portable/synopsys/dwc2/dcd_dwc2.c ****   // print guid, gsnpsid, ghwcfg1, ghwcfg2, ghwcfg3, ghwcfg4
 275:/Users/joostbooy/Desktop/Code/stm32/lib/tinyusb/src/portable/synopsys/dwc2/dcd_dwc2.c ****   // use dwc2_info.py/md for bit-field value and comparison with other ports
 276:/Users/joostbooy/Desktop/Code/stm32/lib/tinyusb/src/portable/synopsys/dwc2/dcd_dwc2.c ****   volatile uint32_t const* p = (volatile uint32_t const*) &dwc2->guid;
 277:/Users/joostbooy/Desktop/Code/stm32/lib/tinyusb/src/portable/synopsys/dwc2/dcd_dwc2.c ****   TU_LOG(DWC2_DEBUG, "guid, gsnpsid, ghwcfg1, ghwcfg2, ghwcfg3, ghwcfg4\r\n");
 278:/Users/joostbooy/Desktop/Code/stm32/lib/tinyusb/src/portable/synopsys/dwc2/dcd_dwc2.c ****   for (size_t i = 0; i < 5; i++) {
 279:/Users/joostbooy/Desktop/Code/stm32/lib/tinyusb/src/portable/synopsys/dwc2/dcd_dwc2.c ****     TU_LOG(DWC2_DEBUG, "0x%08lX, ", p[i]);
 280:/Users/joostbooy/Desktop/Code/stm32/lib/tinyusb/src/portable/synopsys/dwc2/dcd_dwc2.c ****   }
 281:/Users/joostbooy/Desktop/Code/stm32/lib/tinyusb/src/portable/synopsys/dwc2/dcd_dwc2.c ****   TU_LOG(DWC2_DEBUG, "0x%08lX\r\n", p[5]);
 282:/Users/joostbooy/Desktop/Code/stm32/lib/tinyusb/src/portable/synopsys/dwc2/dcd_dwc2.c **** }
 283:/Users/joostbooy/Desktop/Code/stm32/lib/tinyusb/src/portable/synopsys/dwc2/dcd_dwc2.c **** 
 284:/Users/joostbooy/Desktop/Code/stm32/lib/tinyusb/src/portable/synopsys/dwc2/dcd_dwc2.c **** #endif
 285:/Users/joostbooy/Desktop/Code/stm32/lib/tinyusb/src/portable/synopsys/dwc2/dcd_dwc2.c **** 
 286:/Users/joostbooy/Desktop/Code/stm32/lib/tinyusb/src/portable/synopsys/dwc2/dcd_dwc2.c **** static void reset_core(dwc2_regs_t* dwc2) {
 287:/Users/joostbooy/Desktop/Code/stm32/lib/tinyusb/src/portable/synopsys/dwc2/dcd_dwc2.c ****   // reset core
 288:/Users/joostbooy/Desktop/Code/stm32/lib/tinyusb/src/portable/synopsys/dwc2/dcd_dwc2.c ****   dwc2->grstctl |= GRSTCTL_CSRST;
 289:/Users/joostbooy/Desktop/Code/stm32/lib/tinyusb/src/portable/synopsys/dwc2/dcd_dwc2.c **** 
 290:/Users/joostbooy/Desktop/Code/stm32/lib/tinyusb/src/portable/synopsys/dwc2/dcd_dwc2.c ****   // wait for reset bit is cleared
 291:/Users/joostbooy/Desktop/Code/stm32/lib/tinyusb/src/portable/synopsys/dwc2/dcd_dwc2.c ****   // TODO version 4.20a should wait for RESET DONE mask
 292:/Users/joostbooy/Desktop/Code/stm32/lib/tinyusb/src/portable/synopsys/dwc2/dcd_dwc2.c ****   while (dwc2->grstctl & GRSTCTL_CSRST) {}
 293:/Users/joostbooy/Desktop/Code/stm32/lib/tinyusb/src/portable/synopsys/dwc2/dcd_dwc2.c **** 
 294:/Users/joostbooy/Desktop/Code/stm32/lib/tinyusb/src/portable/synopsys/dwc2/dcd_dwc2.c ****   // wait for AHB master IDLE
 295:/Users/joostbooy/Desktop/Code/stm32/lib/tinyusb/src/portable/synopsys/dwc2/dcd_dwc2.c ****   while (!(dwc2->grstctl & GRSTCTL_AHBIDL)) {}
 296:/Users/joostbooy/Desktop/Code/stm32/lib/tinyusb/src/portable/synopsys/dwc2/dcd_dwc2.c **** 
 297:/Users/joostbooy/Desktop/Code/stm32/lib/tinyusb/src/portable/synopsys/dwc2/dcd_dwc2.c ****   // wait for device mode ?
 298:/Users/joostbooy/Desktop/Code/stm32/lib/tinyusb/src/portable/synopsys/dwc2/dcd_dwc2.c **** }
 299:/Users/joostbooy/Desktop/Code/stm32/lib/tinyusb/src/portable/synopsys/dwc2/dcd_dwc2.c **** 
 300:/Users/joostbooy/Desktop/Code/stm32/lib/tinyusb/src/portable/synopsys/dwc2/dcd_dwc2.c **** static bool phy_hs_supported(dwc2_regs_t* dwc2) {
 301:/Users/joostbooy/Desktop/Code/stm32/lib/tinyusb/src/portable/synopsys/dwc2/dcd_dwc2.c ****   // note: esp32 incorrect report its hs_phy_type as utmi
 302:/Users/joostbooy/Desktop/Code/stm32/lib/tinyusb/src/portable/synopsys/dwc2/dcd_dwc2.c **** #if TU_CHECK_MCU(OPT_MCU_ESP32S2, OPT_MCU_ESP32S3)
 303:/Users/joostbooy/Desktop/Code/stm32/lib/tinyusb/src/portable/synopsys/dwc2/dcd_dwc2.c ****   return false;
 304:/Users/joostbooy/Desktop/Code/stm32/lib/tinyusb/src/portable/synopsys/dwc2/dcd_dwc2.c **** #else
 305:/Users/joostbooy/Desktop/Code/stm32/lib/tinyusb/src/portable/synopsys/dwc2/dcd_dwc2.c ****   return TUD_OPT_HIGH_SPEED && dwc2->ghwcfg2_bm.hs_phy_type != HS_PHY_TYPE_NONE;
 306:/Users/joostbooy/Desktop/Code/stm32/lib/tinyusb/src/portable/synopsys/dwc2/dcd_dwc2.c **** #endif
 307:/Users/joostbooy/Desktop/Code/stm32/lib/tinyusb/src/portable/synopsys/dwc2/dcd_dwc2.c **** }
 308:/Users/joostbooy/Desktop/Code/stm32/lib/tinyusb/src/portable/synopsys/dwc2/dcd_dwc2.c **** 
 309:/Users/joostbooy/Desktop/Code/stm32/lib/tinyusb/src/portable/synopsys/dwc2/dcd_dwc2.c **** static void phy_fs_init(dwc2_regs_t* dwc2) {
 310:/Users/joostbooy/Desktop/Code/stm32/lib/tinyusb/src/portable/synopsys/dwc2/dcd_dwc2.c ****   TU_LOG(DWC2_DEBUG, "Fullspeed PHY init\r\n");
ARM GAS  /var/folders/84/_x1cyy_j36g486tldtwl37280000gn/T//cc1ObSsF.s 			page 15


 311:/Users/joostbooy/Desktop/Code/stm32/lib/tinyusb/src/portable/synopsys/dwc2/dcd_dwc2.c **** 
 312:/Users/joostbooy/Desktop/Code/stm32/lib/tinyusb/src/portable/synopsys/dwc2/dcd_dwc2.c ****   // Select FS PHY
 313:/Users/joostbooy/Desktop/Code/stm32/lib/tinyusb/src/portable/synopsys/dwc2/dcd_dwc2.c ****   dwc2->gusbcfg |= GUSBCFG_PHYSEL;
 314:/Users/joostbooy/Desktop/Code/stm32/lib/tinyusb/src/portable/synopsys/dwc2/dcd_dwc2.c **** 
 315:/Users/joostbooy/Desktop/Code/stm32/lib/tinyusb/src/portable/synopsys/dwc2/dcd_dwc2.c ****   // MCU specific PHY init before reset
 316:/Users/joostbooy/Desktop/Code/stm32/lib/tinyusb/src/portable/synopsys/dwc2/dcd_dwc2.c ****   dwc2_phy_init(dwc2, HS_PHY_TYPE_NONE);
 317:/Users/joostbooy/Desktop/Code/stm32/lib/tinyusb/src/portable/synopsys/dwc2/dcd_dwc2.c **** 
 318:/Users/joostbooy/Desktop/Code/stm32/lib/tinyusb/src/portable/synopsys/dwc2/dcd_dwc2.c ****   // Reset core after selecting PHY
 319:/Users/joostbooy/Desktop/Code/stm32/lib/tinyusb/src/portable/synopsys/dwc2/dcd_dwc2.c ****   reset_core(dwc2);
 320:/Users/joostbooy/Desktop/Code/stm32/lib/tinyusb/src/portable/synopsys/dwc2/dcd_dwc2.c **** 
 321:/Users/joostbooy/Desktop/Code/stm32/lib/tinyusb/src/portable/synopsys/dwc2/dcd_dwc2.c ****   // USB turnaround time is critical for certification where long cables and 5-Hubs are used.
 322:/Users/joostbooy/Desktop/Code/stm32/lib/tinyusb/src/portable/synopsys/dwc2/dcd_dwc2.c ****   // So if you need the AHB to run at less than 30 MHz, and if USB turnaround time is not critical,
 323:/Users/joostbooy/Desktop/Code/stm32/lib/tinyusb/src/portable/synopsys/dwc2/dcd_dwc2.c ****   // these bits can be programmed to a larger value. Default is 5
 324:/Users/joostbooy/Desktop/Code/stm32/lib/tinyusb/src/portable/synopsys/dwc2/dcd_dwc2.c ****   dwc2->gusbcfg = (dwc2->gusbcfg & ~GUSBCFG_TRDT_Msk) | (5u << GUSBCFG_TRDT_Pos);
 325:/Users/joostbooy/Desktop/Code/stm32/lib/tinyusb/src/portable/synopsys/dwc2/dcd_dwc2.c **** 
 326:/Users/joostbooy/Desktop/Code/stm32/lib/tinyusb/src/portable/synopsys/dwc2/dcd_dwc2.c ****   // MCU specific PHY update post reset
 327:/Users/joostbooy/Desktop/Code/stm32/lib/tinyusb/src/portable/synopsys/dwc2/dcd_dwc2.c ****   dwc2_phy_update(dwc2, HS_PHY_TYPE_NONE);
 328:/Users/joostbooy/Desktop/Code/stm32/lib/tinyusb/src/portable/synopsys/dwc2/dcd_dwc2.c **** 
 329:/Users/joostbooy/Desktop/Code/stm32/lib/tinyusb/src/portable/synopsys/dwc2/dcd_dwc2.c ****   // set max speed
 330:/Users/joostbooy/Desktop/Code/stm32/lib/tinyusb/src/portable/synopsys/dwc2/dcd_dwc2.c ****   dwc2->dcfg = (dwc2->dcfg & ~DCFG_DSPD_Msk) | (DCFG_DSPD_FS << DCFG_DSPD_Pos);
 331:/Users/joostbooy/Desktop/Code/stm32/lib/tinyusb/src/portable/synopsys/dwc2/dcd_dwc2.c **** }
 332:/Users/joostbooy/Desktop/Code/stm32/lib/tinyusb/src/portable/synopsys/dwc2/dcd_dwc2.c **** 
 333:/Users/joostbooy/Desktop/Code/stm32/lib/tinyusb/src/portable/synopsys/dwc2/dcd_dwc2.c **** static void phy_hs_init(dwc2_regs_t* dwc2) {
 334:/Users/joostbooy/Desktop/Code/stm32/lib/tinyusb/src/portable/synopsys/dwc2/dcd_dwc2.c ****   uint32_t gusbcfg = dwc2->gusbcfg;
 335:/Users/joostbooy/Desktop/Code/stm32/lib/tinyusb/src/portable/synopsys/dwc2/dcd_dwc2.c **** 
 336:/Users/joostbooy/Desktop/Code/stm32/lib/tinyusb/src/portable/synopsys/dwc2/dcd_dwc2.c ****   // De-select FS PHY
 337:/Users/joostbooy/Desktop/Code/stm32/lib/tinyusb/src/portable/synopsys/dwc2/dcd_dwc2.c ****   gusbcfg &= ~GUSBCFG_PHYSEL;
 338:/Users/joostbooy/Desktop/Code/stm32/lib/tinyusb/src/portable/synopsys/dwc2/dcd_dwc2.c **** 
 339:/Users/joostbooy/Desktop/Code/stm32/lib/tinyusb/src/portable/synopsys/dwc2/dcd_dwc2.c ****   if (dwc2->ghwcfg2_bm.hs_phy_type == HS_PHY_TYPE_ULPI) {
 340:/Users/joostbooy/Desktop/Code/stm32/lib/tinyusb/src/portable/synopsys/dwc2/dcd_dwc2.c ****     TU_LOG(DWC2_DEBUG, "Highspeed ULPI PHY init\r\n");
 341:/Users/joostbooy/Desktop/Code/stm32/lib/tinyusb/src/portable/synopsys/dwc2/dcd_dwc2.c **** 
 342:/Users/joostbooy/Desktop/Code/stm32/lib/tinyusb/src/portable/synopsys/dwc2/dcd_dwc2.c ****     // Select ULPI
 343:/Users/joostbooy/Desktop/Code/stm32/lib/tinyusb/src/portable/synopsys/dwc2/dcd_dwc2.c ****     gusbcfg |= GUSBCFG_ULPI_UTMI_SEL;
 344:/Users/joostbooy/Desktop/Code/stm32/lib/tinyusb/src/portable/synopsys/dwc2/dcd_dwc2.c **** 
 345:/Users/joostbooy/Desktop/Code/stm32/lib/tinyusb/src/portable/synopsys/dwc2/dcd_dwc2.c ****     // ULPI 8-bit interface, single data rate
 346:/Users/joostbooy/Desktop/Code/stm32/lib/tinyusb/src/portable/synopsys/dwc2/dcd_dwc2.c ****     gusbcfg &= ~(GUSBCFG_PHYIF16 | GUSBCFG_DDRSEL);
 347:/Users/joostbooy/Desktop/Code/stm32/lib/tinyusb/src/portable/synopsys/dwc2/dcd_dwc2.c **** 
 348:/Users/joostbooy/Desktop/Code/stm32/lib/tinyusb/src/portable/synopsys/dwc2/dcd_dwc2.c ****     // default internal VBUS Indicator and Drive
 349:/Users/joostbooy/Desktop/Code/stm32/lib/tinyusb/src/portable/synopsys/dwc2/dcd_dwc2.c ****     gusbcfg &= ~(GUSBCFG_ULPIEVBUSD | GUSBCFG_ULPIEVBUSI);
 350:/Users/joostbooy/Desktop/Code/stm32/lib/tinyusb/src/portable/synopsys/dwc2/dcd_dwc2.c **** 
 351:/Users/joostbooy/Desktop/Code/stm32/lib/tinyusb/src/portable/synopsys/dwc2/dcd_dwc2.c ****     // Disable FS/LS ULPI
 352:/Users/joostbooy/Desktop/Code/stm32/lib/tinyusb/src/portable/synopsys/dwc2/dcd_dwc2.c ****     gusbcfg &= ~(GUSBCFG_ULPIFSLS | GUSBCFG_ULPICSM);
 353:/Users/joostbooy/Desktop/Code/stm32/lib/tinyusb/src/portable/synopsys/dwc2/dcd_dwc2.c ****   } else {
 354:/Users/joostbooy/Desktop/Code/stm32/lib/tinyusb/src/portable/synopsys/dwc2/dcd_dwc2.c ****     TU_LOG(DWC2_DEBUG, "Highspeed UTMI+ PHY init\r\n");
 355:/Users/joostbooy/Desktop/Code/stm32/lib/tinyusb/src/portable/synopsys/dwc2/dcd_dwc2.c **** 
 356:/Users/joostbooy/Desktop/Code/stm32/lib/tinyusb/src/portable/synopsys/dwc2/dcd_dwc2.c ****     // Select UTMI+ with 8-bit interface
 357:/Users/joostbooy/Desktop/Code/stm32/lib/tinyusb/src/portable/synopsys/dwc2/dcd_dwc2.c ****     gusbcfg &= ~(GUSBCFG_ULPI_UTMI_SEL | GUSBCFG_PHYIF16);
 358:/Users/joostbooy/Desktop/Code/stm32/lib/tinyusb/src/portable/synopsys/dwc2/dcd_dwc2.c **** 
 359:/Users/joostbooy/Desktop/Code/stm32/lib/tinyusb/src/portable/synopsys/dwc2/dcd_dwc2.c ****     // Set 16-bit interface if supported
 360:/Users/joostbooy/Desktop/Code/stm32/lib/tinyusb/src/portable/synopsys/dwc2/dcd_dwc2.c ****     if (dwc2->ghwcfg4_bm.utmi_phy_data_width) gusbcfg |= GUSBCFG_PHYIF16;
 361:/Users/joostbooy/Desktop/Code/stm32/lib/tinyusb/src/portable/synopsys/dwc2/dcd_dwc2.c ****   }
 362:/Users/joostbooy/Desktop/Code/stm32/lib/tinyusb/src/portable/synopsys/dwc2/dcd_dwc2.c **** 
 363:/Users/joostbooy/Desktop/Code/stm32/lib/tinyusb/src/portable/synopsys/dwc2/dcd_dwc2.c ****   // Apply config
 364:/Users/joostbooy/Desktop/Code/stm32/lib/tinyusb/src/portable/synopsys/dwc2/dcd_dwc2.c ****   dwc2->gusbcfg = gusbcfg;
 365:/Users/joostbooy/Desktop/Code/stm32/lib/tinyusb/src/portable/synopsys/dwc2/dcd_dwc2.c **** 
 366:/Users/joostbooy/Desktop/Code/stm32/lib/tinyusb/src/portable/synopsys/dwc2/dcd_dwc2.c ****   // mcu specific phy init
 367:/Users/joostbooy/Desktop/Code/stm32/lib/tinyusb/src/portable/synopsys/dwc2/dcd_dwc2.c ****   dwc2_phy_init(dwc2, dwc2->ghwcfg2_bm.hs_phy_type);
ARM GAS  /var/folders/84/_x1cyy_j36g486tldtwl37280000gn/T//cc1ObSsF.s 			page 16


 368:/Users/joostbooy/Desktop/Code/stm32/lib/tinyusb/src/portable/synopsys/dwc2/dcd_dwc2.c **** 
 369:/Users/joostbooy/Desktop/Code/stm32/lib/tinyusb/src/portable/synopsys/dwc2/dcd_dwc2.c ****   // Reset core after selecting PHY
 370:/Users/joostbooy/Desktop/Code/stm32/lib/tinyusb/src/portable/synopsys/dwc2/dcd_dwc2.c ****   reset_core(dwc2);
 371:/Users/joostbooy/Desktop/Code/stm32/lib/tinyusb/src/portable/synopsys/dwc2/dcd_dwc2.c **** 
 372:/Users/joostbooy/Desktop/Code/stm32/lib/tinyusb/src/portable/synopsys/dwc2/dcd_dwc2.c ****   // Set turn-around, must after core reset otherwise it will be clear
 373:/Users/joostbooy/Desktop/Code/stm32/lib/tinyusb/src/portable/synopsys/dwc2/dcd_dwc2.c ****   // - 9 if using 8-bit PHY interface
 374:/Users/joostbooy/Desktop/Code/stm32/lib/tinyusb/src/portable/synopsys/dwc2/dcd_dwc2.c ****   // - 5 if using 16-bit PHY interface
 375:/Users/joostbooy/Desktop/Code/stm32/lib/tinyusb/src/portable/synopsys/dwc2/dcd_dwc2.c ****   gusbcfg &= ~GUSBCFG_TRDT_Msk;
 376:/Users/joostbooy/Desktop/Code/stm32/lib/tinyusb/src/portable/synopsys/dwc2/dcd_dwc2.c ****   gusbcfg |= (dwc2->ghwcfg4_bm.utmi_phy_data_width ? 5u : 9u) << GUSBCFG_TRDT_Pos;
 377:/Users/joostbooy/Desktop/Code/stm32/lib/tinyusb/src/portable/synopsys/dwc2/dcd_dwc2.c ****   dwc2->gusbcfg = gusbcfg;
 378:/Users/joostbooy/Desktop/Code/stm32/lib/tinyusb/src/portable/synopsys/dwc2/dcd_dwc2.c **** 
 379:/Users/joostbooy/Desktop/Code/stm32/lib/tinyusb/src/portable/synopsys/dwc2/dcd_dwc2.c ****   // MCU specific PHY update post reset
 380:/Users/joostbooy/Desktop/Code/stm32/lib/tinyusb/src/portable/synopsys/dwc2/dcd_dwc2.c ****   dwc2_phy_update(dwc2, dwc2->ghwcfg2_bm.hs_phy_type);
 381:/Users/joostbooy/Desktop/Code/stm32/lib/tinyusb/src/portable/synopsys/dwc2/dcd_dwc2.c **** 
 382:/Users/joostbooy/Desktop/Code/stm32/lib/tinyusb/src/portable/synopsys/dwc2/dcd_dwc2.c ****   // Set max speed
 383:/Users/joostbooy/Desktop/Code/stm32/lib/tinyusb/src/portable/synopsys/dwc2/dcd_dwc2.c ****   uint32_t dcfg = dwc2->dcfg;
 384:/Users/joostbooy/Desktop/Code/stm32/lib/tinyusb/src/portable/synopsys/dwc2/dcd_dwc2.c ****   dcfg &= ~DCFG_DSPD_Msk;
 385:/Users/joostbooy/Desktop/Code/stm32/lib/tinyusb/src/portable/synopsys/dwc2/dcd_dwc2.c ****   dcfg |= DCFG_DSPD_HS << DCFG_DSPD_Pos;
 386:/Users/joostbooy/Desktop/Code/stm32/lib/tinyusb/src/portable/synopsys/dwc2/dcd_dwc2.c **** 
 387:/Users/joostbooy/Desktop/Code/stm32/lib/tinyusb/src/portable/synopsys/dwc2/dcd_dwc2.c ****   // XCVRDLY: transceiver delay between xcvr_sel and txvalid during device chirp is required
 388:/Users/joostbooy/Desktop/Code/stm32/lib/tinyusb/src/portable/synopsys/dwc2/dcd_dwc2.c ****   // when using with some PHYs such as USB334x (USB3341, USB3343, USB3346, USB3347)
 389:/Users/joostbooy/Desktop/Code/stm32/lib/tinyusb/src/portable/synopsys/dwc2/dcd_dwc2.c ****   if (dwc2->ghwcfg2_bm.hs_phy_type == HS_PHY_TYPE_ULPI) dcfg |= DCFG_XCVRDLY;
 390:/Users/joostbooy/Desktop/Code/stm32/lib/tinyusb/src/portable/synopsys/dwc2/dcd_dwc2.c **** 
 391:/Users/joostbooy/Desktop/Code/stm32/lib/tinyusb/src/portable/synopsys/dwc2/dcd_dwc2.c ****   dwc2->dcfg = dcfg;
 392:/Users/joostbooy/Desktop/Code/stm32/lib/tinyusb/src/portable/synopsys/dwc2/dcd_dwc2.c **** }
 393:/Users/joostbooy/Desktop/Code/stm32/lib/tinyusb/src/portable/synopsys/dwc2/dcd_dwc2.c **** 
 394:/Users/joostbooy/Desktop/Code/stm32/lib/tinyusb/src/portable/synopsys/dwc2/dcd_dwc2.c **** static bool check_dwc2(dwc2_regs_t* dwc2) {
 395:/Users/joostbooy/Desktop/Code/stm32/lib/tinyusb/src/portable/synopsys/dwc2/dcd_dwc2.c **** #if CFG_TUSB_DEBUG >= DWC2_DEBUG
 396:/Users/joostbooy/Desktop/Code/stm32/lib/tinyusb/src/portable/synopsys/dwc2/dcd_dwc2.c ****   print_dwc2_info(dwc2);
 397:/Users/joostbooy/Desktop/Code/stm32/lib/tinyusb/src/portable/synopsys/dwc2/dcd_dwc2.c **** #endif
 398:/Users/joostbooy/Desktop/Code/stm32/lib/tinyusb/src/portable/synopsys/dwc2/dcd_dwc2.c **** 
 399:/Users/joostbooy/Desktop/Code/stm32/lib/tinyusb/src/portable/synopsys/dwc2/dcd_dwc2.c ****   // For some reasons: GD32VF103 snpsid and all hwcfg register are always zero (skip it)
 400:/Users/joostbooy/Desktop/Code/stm32/lib/tinyusb/src/portable/synopsys/dwc2/dcd_dwc2.c ****   (void) dwc2;
 401:/Users/joostbooy/Desktop/Code/stm32/lib/tinyusb/src/portable/synopsys/dwc2/dcd_dwc2.c **** #if !TU_CHECK_MCU(OPT_MCU_GD32VF103)
 402:/Users/joostbooy/Desktop/Code/stm32/lib/tinyusb/src/portable/synopsys/dwc2/dcd_dwc2.c ****   uint32_t const gsnpsid = dwc2->gsnpsid & GSNPSID_ID_MASK;
 403:/Users/joostbooy/Desktop/Code/stm32/lib/tinyusb/src/portable/synopsys/dwc2/dcd_dwc2.c ****   TU_ASSERT(gsnpsid == DWC2_OTG_ID || gsnpsid == DWC2_FS_IOT_ID || gsnpsid == DWC2_HS_IOT_ID);
 404:/Users/joostbooy/Desktop/Code/stm32/lib/tinyusb/src/portable/synopsys/dwc2/dcd_dwc2.c **** #endif
 405:/Users/joostbooy/Desktop/Code/stm32/lib/tinyusb/src/portable/synopsys/dwc2/dcd_dwc2.c **** 
 406:/Users/joostbooy/Desktop/Code/stm32/lib/tinyusb/src/portable/synopsys/dwc2/dcd_dwc2.c ****   return true;
 407:/Users/joostbooy/Desktop/Code/stm32/lib/tinyusb/src/portable/synopsys/dwc2/dcd_dwc2.c **** }
 408:/Users/joostbooy/Desktop/Code/stm32/lib/tinyusb/src/portable/synopsys/dwc2/dcd_dwc2.c **** 
 409:/Users/joostbooy/Desktop/Code/stm32/lib/tinyusb/src/portable/synopsys/dwc2/dcd_dwc2.c **** void dcd_init(uint8_t rhport) {
 410:/Users/joostbooy/Desktop/Code/stm32/lib/tinyusb/src/portable/synopsys/dwc2/dcd_dwc2.c ****   // Programming model begins in the last section of the chapter on the USB
 411:/Users/joostbooy/Desktop/Code/stm32/lib/tinyusb/src/portable/synopsys/dwc2/dcd_dwc2.c ****   // peripheral in each Reference Manual.
 412:/Users/joostbooy/Desktop/Code/stm32/lib/tinyusb/src/portable/synopsys/dwc2/dcd_dwc2.c ****   dwc2_regs_t* dwc2 = DWC2_REG(rhport);
 413:/Users/joostbooy/Desktop/Code/stm32/lib/tinyusb/src/portable/synopsys/dwc2/dcd_dwc2.c **** 
 414:/Users/joostbooy/Desktop/Code/stm32/lib/tinyusb/src/portable/synopsys/dwc2/dcd_dwc2.c ****   // Check Synopsys ID register, failed if controller clock/power is not enabled
 415:/Users/joostbooy/Desktop/Code/stm32/lib/tinyusb/src/portable/synopsys/dwc2/dcd_dwc2.c ****   if (!check_dwc2(dwc2)) return;
 416:/Users/joostbooy/Desktop/Code/stm32/lib/tinyusb/src/portable/synopsys/dwc2/dcd_dwc2.c ****   dcd_disconnect(rhport);
 417:/Users/joostbooy/Desktop/Code/stm32/lib/tinyusb/src/portable/synopsys/dwc2/dcd_dwc2.c **** 
 418:/Users/joostbooy/Desktop/Code/stm32/lib/tinyusb/src/portable/synopsys/dwc2/dcd_dwc2.c ****   // max number of endpoints & total_fifo_size are:
 419:/Users/joostbooy/Desktop/Code/stm32/lib/tinyusb/src/portable/synopsys/dwc2/dcd_dwc2.c ****   // hw_cfg2->num_dev_ep, hw_cfg2->total_fifo_size
 420:/Users/joostbooy/Desktop/Code/stm32/lib/tinyusb/src/portable/synopsys/dwc2/dcd_dwc2.c **** 
 421:/Users/joostbooy/Desktop/Code/stm32/lib/tinyusb/src/portable/synopsys/dwc2/dcd_dwc2.c ****   if (phy_hs_supported(dwc2)) {
 422:/Users/joostbooy/Desktop/Code/stm32/lib/tinyusb/src/portable/synopsys/dwc2/dcd_dwc2.c ****     phy_hs_init(dwc2); // Highspeed
 423:/Users/joostbooy/Desktop/Code/stm32/lib/tinyusb/src/portable/synopsys/dwc2/dcd_dwc2.c ****   } else {
 424:/Users/joostbooy/Desktop/Code/stm32/lib/tinyusb/src/portable/synopsys/dwc2/dcd_dwc2.c ****     phy_fs_init(dwc2); // core does not support highspeed or hs phy is not present
ARM GAS  /var/folders/84/_x1cyy_j36g486tldtwl37280000gn/T//cc1ObSsF.s 			page 17


 425:/Users/joostbooy/Desktop/Code/stm32/lib/tinyusb/src/portable/synopsys/dwc2/dcd_dwc2.c ****   }
 426:/Users/joostbooy/Desktop/Code/stm32/lib/tinyusb/src/portable/synopsys/dwc2/dcd_dwc2.c **** 
 427:/Users/joostbooy/Desktop/Code/stm32/lib/tinyusb/src/portable/synopsys/dwc2/dcd_dwc2.c ****   // Restart PHY clock
 428:/Users/joostbooy/Desktop/Code/stm32/lib/tinyusb/src/portable/synopsys/dwc2/dcd_dwc2.c ****   dwc2->pcgctl &= ~(PCGCTL_STOPPCLK | PCGCTL_GATEHCLK | PCGCTL_PWRCLMP | PCGCTL_RSTPDWNMODULE);
 429:/Users/joostbooy/Desktop/Code/stm32/lib/tinyusb/src/portable/synopsys/dwc2/dcd_dwc2.c **** 
 430:/Users/joostbooy/Desktop/Code/stm32/lib/tinyusb/src/portable/synopsys/dwc2/dcd_dwc2.c ****   /* Set HS/FS Timeout Calibration to 7 (max available value).
 431:/Users/joostbooy/Desktop/Code/stm32/lib/tinyusb/src/portable/synopsys/dwc2/dcd_dwc2.c ****    * The number of PHY clocks that the application programs in
 432:/Users/joostbooy/Desktop/Code/stm32/lib/tinyusb/src/portable/synopsys/dwc2/dcd_dwc2.c ****    * this field is added to the high/full speed interpacket timeout
 433:/Users/joostbooy/Desktop/Code/stm32/lib/tinyusb/src/portable/synopsys/dwc2/dcd_dwc2.c ****    * duration in the core to account for any additional delays
 434:/Users/joostbooy/Desktop/Code/stm32/lib/tinyusb/src/portable/synopsys/dwc2/dcd_dwc2.c ****    * introduced by the PHY. This can be required, because the delay
 435:/Users/joostbooy/Desktop/Code/stm32/lib/tinyusb/src/portable/synopsys/dwc2/dcd_dwc2.c ****    * introduced by the PHY in generating the linestate condition
 436:/Users/joostbooy/Desktop/Code/stm32/lib/tinyusb/src/portable/synopsys/dwc2/dcd_dwc2.c ****    * can vary from one PHY to another.
 437:/Users/joostbooy/Desktop/Code/stm32/lib/tinyusb/src/portable/synopsys/dwc2/dcd_dwc2.c ****    */
 438:/Users/joostbooy/Desktop/Code/stm32/lib/tinyusb/src/portable/synopsys/dwc2/dcd_dwc2.c ****   dwc2->gusbcfg |= (7ul << GUSBCFG_TOCAL_Pos);
 439:/Users/joostbooy/Desktop/Code/stm32/lib/tinyusb/src/portable/synopsys/dwc2/dcd_dwc2.c **** 
 440:/Users/joostbooy/Desktop/Code/stm32/lib/tinyusb/src/portable/synopsys/dwc2/dcd_dwc2.c ****   // Force device mode
 441:/Users/joostbooy/Desktop/Code/stm32/lib/tinyusb/src/portable/synopsys/dwc2/dcd_dwc2.c ****   dwc2->gusbcfg = (dwc2->gusbcfg & ~GUSBCFG_FHMOD) | GUSBCFG_FDMOD;
 442:/Users/joostbooy/Desktop/Code/stm32/lib/tinyusb/src/portable/synopsys/dwc2/dcd_dwc2.c **** 
 443:/Users/joostbooy/Desktop/Code/stm32/lib/tinyusb/src/portable/synopsys/dwc2/dcd_dwc2.c ****   // Clear A override, force B Valid
 444:/Users/joostbooy/Desktop/Code/stm32/lib/tinyusb/src/portable/synopsys/dwc2/dcd_dwc2.c ****   dwc2->gotgctl = (dwc2->gotgctl & ~GOTGCTL_AVALOEN) | GOTGCTL_BVALOEN | GOTGCTL_BVALOVAL;
 445:/Users/joostbooy/Desktop/Code/stm32/lib/tinyusb/src/portable/synopsys/dwc2/dcd_dwc2.c **** 
 446:/Users/joostbooy/Desktop/Code/stm32/lib/tinyusb/src/portable/synopsys/dwc2/dcd_dwc2.c ****   // If USB host misbehaves during status portion of control xfer
 447:/Users/joostbooy/Desktop/Code/stm32/lib/tinyusb/src/portable/synopsys/dwc2/dcd_dwc2.c ****   // (non zero-length packet), send STALL back and discard.
 448:/Users/joostbooy/Desktop/Code/stm32/lib/tinyusb/src/portable/synopsys/dwc2/dcd_dwc2.c ****   dwc2->dcfg |= DCFG_NZLSOHSK;
 449:/Users/joostbooy/Desktop/Code/stm32/lib/tinyusb/src/portable/synopsys/dwc2/dcd_dwc2.c **** 
 450:/Users/joostbooy/Desktop/Code/stm32/lib/tinyusb/src/portable/synopsys/dwc2/dcd_dwc2.c ****   // flush all TX fifo and wait for it cleared
 451:/Users/joostbooy/Desktop/Code/stm32/lib/tinyusb/src/portable/synopsys/dwc2/dcd_dwc2.c ****   dwc2->grstctl = GRSTCTL_TXFFLSH | (0x10u << GRSTCTL_TXFNUM_Pos);
 452:/Users/joostbooy/Desktop/Code/stm32/lib/tinyusb/src/portable/synopsys/dwc2/dcd_dwc2.c ****   while (dwc2->grstctl & GRSTCTL_TXFFLSH_Msk) {}
 453:/Users/joostbooy/Desktop/Code/stm32/lib/tinyusb/src/portable/synopsys/dwc2/dcd_dwc2.c **** 
 454:/Users/joostbooy/Desktop/Code/stm32/lib/tinyusb/src/portable/synopsys/dwc2/dcd_dwc2.c ****   // flush RX fifo and wait for it cleared
 455:/Users/joostbooy/Desktop/Code/stm32/lib/tinyusb/src/portable/synopsys/dwc2/dcd_dwc2.c ****   dwc2->grstctl = GRSTCTL_RXFFLSH;
 456:/Users/joostbooy/Desktop/Code/stm32/lib/tinyusb/src/portable/synopsys/dwc2/dcd_dwc2.c ****   while (dwc2->grstctl & GRSTCTL_RXFFLSH_Msk) {}
 457:/Users/joostbooy/Desktop/Code/stm32/lib/tinyusb/src/portable/synopsys/dwc2/dcd_dwc2.c **** 
 458:/Users/joostbooy/Desktop/Code/stm32/lib/tinyusb/src/portable/synopsys/dwc2/dcd_dwc2.c ****   // Clear all interrupts
 459:/Users/joostbooy/Desktop/Code/stm32/lib/tinyusb/src/portable/synopsys/dwc2/dcd_dwc2.c ****   uint32_t int_mask = dwc2->gintsts;
 460:/Users/joostbooy/Desktop/Code/stm32/lib/tinyusb/src/portable/synopsys/dwc2/dcd_dwc2.c ****   dwc2->gintsts |= int_mask;
 461:/Users/joostbooy/Desktop/Code/stm32/lib/tinyusb/src/portable/synopsys/dwc2/dcd_dwc2.c ****   int_mask = dwc2->gotgint;
 462:/Users/joostbooy/Desktop/Code/stm32/lib/tinyusb/src/portable/synopsys/dwc2/dcd_dwc2.c ****   dwc2->gotgint |= int_mask;
 463:/Users/joostbooy/Desktop/Code/stm32/lib/tinyusb/src/portable/synopsys/dwc2/dcd_dwc2.c **** 
 464:/Users/joostbooy/Desktop/Code/stm32/lib/tinyusb/src/portable/synopsys/dwc2/dcd_dwc2.c ****   // Required as part of core initialization.
 465:/Users/joostbooy/Desktop/Code/stm32/lib/tinyusb/src/portable/synopsys/dwc2/dcd_dwc2.c ****   // TODO: How should mode mismatch be handled? It will cause
 466:/Users/joostbooy/Desktop/Code/stm32/lib/tinyusb/src/portable/synopsys/dwc2/dcd_dwc2.c ****   // the core to stop working/require reset.
 467:/Users/joostbooy/Desktop/Code/stm32/lib/tinyusb/src/portable/synopsys/dwc2/dcd_dwc2.c ****   dwc2->gintmsk = GINTMSK_OTGINT | GINTMSK_MMISM | GINTMSK_RXFLVLM |
 468:/Users/joostbooy/Desktop/Code/stm32/lib/tinyusb/src/portable/synopsys/dwc2/dcd_dwc2.c ****                   GINTMSK_USBSUSPM | GINTMSK_USBRST | GINTMSK_ENUMDNEM | GINTMSK_WUIM;
 469:/Users/joostbooy/Desktop/Code/stm32/lib/tinyusb/src/portable/synopsys/dwc2/dcd_dwc2.c **** 
 470:/Users/joostbooy/Desktop/Code/stm32/lib/tinyusb/src/portable/synopsys/dwc2/dcd_dwc2.c ****   // Enable global interrupt
 471:/Users/joostbooy/Desktop/Code/stm32/lib/tinyusb/src/portable/synopsys/dwc2/dcd_dwc2.c ****   dwc2->gahbcfg |= GAHBCFG_GINT;
 472:/Users/joostbooy/Desktop/Code/stm32/lib/tinyusb/src/portable/synopsys/dwc2/dcd_dwc2.c **** 
 473:/Users/joostbooy/Desktop/Code/stm32/lib/tinyusb/src/portable/synopsys/dwc2/dcd_dwc2.c ****   // make sure we are in device mode
 474:/Users/joostbooy/Desktop/Code/stm32/lib/tinyusb/src/portable/synopsys/dwc2/dcd_dwc2.c **** //  TU_ASSERT(!(dwc2->gintsts & GINTSTS_CMOD), );
 475:/Users/joostbooy/Desktop/Code/stm32/lib/tinyusb/src/portable/synopsys/dwc2/dcd_dwc2.c **** 
 476:/Users/joostbooy/Desktop/Code/stm32/lib/tinyusb/src/portable/synopsys/dwc2/dcd_dwc2.c **** //  TU_LOG_HEX(DWC2_DEBUG, dwc2->gotgctl);
 477:/Users/joostbooy/Desktop/Code/stm32/lib/tinyusb/src/portable/synopsys/dwc2/dcd_dwc2.c **** //  TU_LOG_HEX(DWC2_DEBUG, dwc2->gusbcfg);
 478:/Users/joostbooy/Desktop/Code/stm32/lib/tinyusb/src/portable/synopsys/dwc2/dcd_dwc2.c **** //  TU_LOG_HEX(DWC2_DEBUG, dwc2->dcfg);
 479:/Users/joostbooy/Desktop/Code/stm32/lib/tinyusb/src/portable/synopsys/dwc2/dcd_dwc2.c **** //  TU_LOG_HEX(DWC2_DEBUG, dwc2->gahbcfg);
 480:/Users/joostbooy/Desktop/Code/stm32/lib/tinyusb/src/portable/synopsys/dwc2/dcd_dwc2.c **** 
 481:/Users/joostbooy/Desktop/Code/stm32/lib/tinyusb/src/portable/synopsys/dwc2/dcd_dwc2.c ****   dcd_connect(rhport);
ARM GAS  /var/folders/84/_x1cyy_j36g486tldtwl37280000gn/T//cc1ObSsF.s 			page 18


 482:/Users/joostbooy/Desktop/Code/stm32/lib/tinyusb/src/portable/synopsys/dwc2/dcd_dwc2.c **** }
 483:/Users/joostbooy/Desktop/Code/stm32/lib/tinyusb/src/portable/synopsys/dwc2/dcd_dwc2.c **** 
 484:/Users/joostbooy/Desktop/Code/stm32/lib/tinyusb/src/portable/synopsys/dwc2/dcd_dwc2.c **** void dcd_int_enable(uint8_t rhport) {
 485:/Users/joostbooy/Desktop/Code/stm32/lib/tinyusb/src/portable/synopsys/dwc2/dcd_dwc2.c ****   dwc2_dcd_int_enable(rhport);
 486:/Users/joostbooy/Desktop/Code/stm32/lib/tinyusb/src/portable/synopsys/dwc2/dcd_dwc2.c **** }
 487:/Users/joostbooy/Desktop/Code/stm32/lib/tinyusb/src/portable/synopsys/dwc2/dcd_dwc2.c **** 
 488:/Users/joostbooy/Desktop/Code/stm32/lib/tinyusb/src/portable/synopsys/dwc2/dcd_dwc2.c **** void dcd_int_disable(uint8_t rhport) {
 489:/Users/joostbooy/Desktop/Code/stm32/lib/tinyusb/src/portable/synopsys/dwc2/dcd_dwc2.c ****   dwc2_dcd_int_disable(rhport);
 490:/Users/joostbooy/Desktop/Code/stm32/lib/tinyusb/src/portable/synopsys/dwc2/dcd_dwc2.c **** }
 491:/Users/joostbooy/Desktop/Code/stm32/lib/tinyusb/src/portable/synopsys/dwc2/dcd_dwc2.c **** 
 492:/Users/joostbooy/Desktop/Code/stm32/lib/tinyusb/src/portable/synopsys/dwc2/dcd_dwc2.c **** void dcd_set_address(uint8_t rhport, uint8_t dev_addr) {
 493:/Users/joostbooy/Desktop/Code/stm32/lib/tinyusb/src/portable/synopsys/dwc2/dcd_dwc2.c ****   dwc2_regs_t* dwc2 = DWC2_REG(rhport);
 494:/Users/joostbooy/Desktop/Code/stm32/lib/tinyusb/src/portable/synopsys/dwc2/dcd_dwc2.c ****   dwc2->dcfg = (dwc2->dcfg & ~DCFG_DAD_Msk) | (dev_addr << DCFG_DAD_Pos);
 495:/Users/joostbooy/Desktop/Code/stm32/lib/tinyusb/src/portable/synopsys/dwc2/dcd_dwc2.c **** 
 496:/Users/joostbooy/Desktop/Code/stm32/lib/tinyusb/src/portable/synopsys/dwc2/dcd_dwc2.c ****   // Response with status after changing device address
 497:/Users/joostbooy/Desktop/Code/stm32/lib/tinyusb/src/portable/synopsys/dwc2/dcd_dwc2.c ****   dcd_edpt_xfer(rhport, tu_edpt_addr(0, TUSB_DIR_IN), NULL, 0);
 498:/Users/joostbooy/Desktop/Code/stm32/lib/tinyusb/src/portable/synopsys/dwc2/dcd_dwc2.c **** }
 499:/Users/joostbooy/Desktop/Code/stm32/lib/tinyusb/src/portable/synopsys/dwc2/dcd_dwc2.c **** 
 500:/Users/joostbooy/Desktop/Code/stm32/lib/tinyusb/src/portable/synopsys/dwc2/dcd_dwc2.c **** void dcd_remote_wakeup(uint8_t rhport) {
 501:/Users/joostbooy/Desktop/Code/stm32/lib/tinyusb/src/portable/synopsys/dwc2/dcd_dwc2.c ****   (void) rhport;
 502:/Users/joostbooy/Desktop/Code/stm32/lib/tinyusb/src/portable/synopsys/dwc2/dcd_dwc2.c **** 
 503:/Users/joostbooy/Desktop/Code/stm32/lib/tinyusb/src/portable/synopsys/dwc2/dcd_dwc2.c ****   dwc2_regs_t* dwc2 = DWC2_REG(rhport);
 504:/Users/joostbooy/Desktop/Code/stm32/lib/tinyusb/src/portable/synopsys/dwc2/dcd_dwc2.c **** 
 505:/Users/joostbooy/Desktop/Code/stm32/lib/tinyusb/src/portable/synopsys/dwc2/dcd_dwc2.c ****   // set remote wakeup
 506:/Users/joostbooy/Desktop/Code/stm32/lib/tinyusb/src/portable/synopsys/dwc2/dcd_dwc2.c ****   dwc2->dctl |= DCTL_RWUSIG;
 507:/Users/joostbooy/Desktop/Code/stm32/lib/tinyusb/src/portable/synopsys/dwc2/dcd_dwc2.c **** 
 508:/Users/joostbooy/Desktop/Code/stm32/lib/tinyusb/src/portable/synopsys/dwc2/dcd_dwc2.c ****   // enable SOF to detect bus resume
 509:/Users/joostbooy/Desktop/Code/stm32/lib/tinyusb/src/portable/synopsys/dwc2/dcd_dwc2.c ****   dwc2->gintsts = GINTSTS_SOF;
 510:/Users/joostbooy/Desktop/Code/stm32/lib/tinyusb/src/portable/synopsys/dwc2/dcd_dwc2.c ****   dwc2->gintmsk |= GINTMSK_SOFM;
 511:/Users/joostbooy/Desktop/Code/stm32/lib/tinyusb/src/portable/synopsys/dwc2/dcd_dwc2.c **** 
 512:/Users/joostbooy/Desktop/Code/stm32/lib/tinyusb/src/portable/synopsys/dwc2/dcd_dwc2.c ****   // Per specs: remote wakeup signal bit must be clear within 1-15ms
 513:/Users/joostbooy/Desktop/Code/stm32/lib/tinyusb/src/portable/synopsys/dwc2/dcd_dwc2.c ****   dwc2_remote_wakeup_delay();
 514:/Users/joostbooy/Desktop/Code/stm32/lib/tinyusb/src/portable/synopsys/dwc2/dcd_dwc2.c **** 
 515:/Users/joostbooy/Desktop/Code/stm32/lib/tinyusb/src/portable/synopsys/dwc2/dcd_dwc2.c ****   dwc2->dctl &= ~DCTL_RWUSIG;
 516:/Users/joostbooy/Desktop/Code/stm32/lib/tinyusb/src/portable/synopsys/dwc2/dcd_dwc2.c **** }
 517:/Users/joostbooy/Desktop/Code/stm32/lib/tinyusb/src/portable/synopsys/dwc2/dcd_dwc2.c **** 
 518:/Users/joostbooy/Desktop/Code/stm32/lib/tinyusb/src/portable/synopsys/dwc2/dcd_dwc2.c **** void dcd_connect(uint8_t rhport) {
 519:/Users/joostbooy/Desktop/Code/stm32/lib/tinyusb/src/portable/synopsys/dwc2/dcd_dwc2.c ****   (void) rhport;
 520:/Users/joostbooy/Desktop/Code/stm32/lib/tinyusb/src/portable/synopsys/dwc2/dcd_dwc2.c ****   dwc2_regs_t* dwc2 = DWC2_REG(rhport);
 521:/Users/joostbooy/Desktop/Code/stm32/lib/tinyusb/src/portable/synopsys/dwc2/dcd_dwc2.c ****   dwc2->dctl &= ~DCTL_SDIS;
 522:/Users/joostbooy/Desktop/Code/stm32/lib/tinyusb/src/portable/synopsys/dwc2/dcd_dwc2.c **** }
 523:/Users/joostbooy/Desktop/Code/stm32/lib/tinyusb/src/portable/synopsys/dwc2/dcd_dwc2.c **** 
 524:/Users/joostbooy/Desktop/Code/stm32/lib/tinyusb/src/portable/synopsys/dwc2/dcd_dwc2.c **** void dcd_disconnect(uint8_t rhport) {
 525:/Users/joostbooy/Desktop/Code/stm32/lib/tinyusb/src/portable/synopsys/dwc2/dcd_dwc2.c ****   (void) rhport;
 526:/Users/joostbooy/Desktop/Code/stm32/lib/tinyusb/src/portable/synopsys/dwc2/dcd_dwc2.c ****   dwc2_regs_t* dwc2 = DWC2_REG(rhport);
 527:/Users/joostbooy/Desktop/Code/stm32/lib/tinyusb/src/portable/synopsys/dwc2/dcd_dwc2.c ****   dwc2->dctl |= DCTL_SDIS;
 528:/Users/joostbooy/Desktop/Code/stm32/lib/tinyusb/src/portable/synopsys/dwc2/dcd_dwc2.c **** }
 529:/Users/joostbooy/Desktop/Code/stm32/lib/tinyusb/src/portable/synopsys/dwc2/dcd_dwc2.c **** 
 530:/Users/joostbooy/Desktop/Code/stm32/lib/tinyusb/src/portable/synopsys/dwc2/dcd_dwc2.c **** // Be advised: audio, video and possibly other iso-ep classes use dcd_sof_enable() to enable/disabl
 531:/Users/joostbooy/Desktop/Code/stm32/lib/tinyusb/src/portable/synopsys/dwc2/dcd_dwc2.c **** void dcd_sof_enable(uint8_t rhport, bool en) {
 532:/Users/joostbooy/Desktop/Code/stm32/lib/tinyusb/src/portable/synopsys/dwc2/dcd_dwc2.c ****   (void) rhport;
 533:/Users/joostbooy/Desktop/Code/stm32/lib/tinyusb/src/portable/synopsys/dwc2/dcd_dwc2.c ****   dwc2_regs_t* dwc2 = DWC2_REG(rhport);
 534:/Users/joostbooy/Desktop/Code/stm32/lib/tinyusb/src/portable/synopsys/dwc2/dcd_dwc2.c **** 
 535:/Users/joostbooy/Desktop/Code/stm32/lib/tinyusb/src/portable/synopsys/dwc2/dcd_dwc2.c ****   _sof_en = en;
 536:/Users/joostbooy/Desktop/Code/stm32/lib/tinyusb/src/portable/synopsys/dwc2/dcd_dwc2.c **** 
 537:/Users/joostbooy/Desktop/Code/stm32/lib/tinyusb/src/portable/synopsys/dwc2/dcd_dwc2.c ****   if (en) {
 538:/Users/joostbooy/Desktop/Code/stm32/lib/tinyusb/src/portable/synopsys/dwc2/dcd_dwc2.c ****     dwc2->gintsts = GINTSTS_SOF;
ARM GAS  /var/folders/84/_x1cyy_j36g486tldtwl37280000gn/T//cc1ObSsF.s 			page 19


 539:/Users/joostbooy/Desktop/Code/stm32/lib/tinyusb/src/portable/synopsys/dwc2/dcd_dwc2.c ****     dwc2->gintmsk |= GINTMSK_SOFM;
 540:/Users/joostbooy/Desktop/Code/stm32/lib/tinyusb/src/portable/synopsys/dwc2/dcd_dwc2.c ****   } else {
 541:/Users/joostbooy/Desktop/Code/stm32/lib/tinyusb/src/portable/synopsys/dwc2/dcd_dwc2.c ****     dwc2->gintmsk &= ~GINTMSK_SOFM;
 542:/Users/joostbooy/Desktop/Code/stm32/lib/tinyusb/src/portable/synopsys/dwc2/dcd_dwc2.c ****   }
 543:/Users/joostbooy/Desktop/Code/stm32/lib/tinyusb/src/portable/synopsys/dwc2/dcd_dwc2.c **** }
 544:/Users/joostbooy/Desktop/Code/stm32/lib/tinyusb/src/portable/synopsys/dwc2/dcd_dwc2.c **** 
 545:/Users/joostbooy/Desktop/Code/stm32/lib/tinyusb/src/portable/synopsys/dwc2/dcd_dwc2.c **** /*------------------------------------------------------------------*/
 546:/Users/joostbooy/Desktop/Code/stm32/lib/tinyusb/src/portable/synopsys/dwc2/dcd_dwc2.c **** /* DCD Endpoint port
 547:/Users/joostbooy/Desktop/Code/stm32/lib/tinyusb/src/portable/synopsys/dwc2/dcd_dwc2.c ****  *------------------------------------------------------------------*/
 548:/Users/joostbooy/Desktop/Code/stm32/lib/tinyusb/src/portable/synopsys/dwc2/dcd_dwc2.c **** 
 549:/Users/joostbooy/Desktop/Code/stm32/lib/tinyusb/src/portable/synopsys/dwc2/dcd_dwc2.c **** bool dcd_edpt_open(uint8_t rhport, tusb_desc_endpoint_t const* desc_edpt) {
 550:/Users/joostbooy/Desktop/Code/stm32/lib/tinyusb/src/portable/synopsys/dwc2/dcd_dwc2.c ****   (void) rhport;
 551:/Users/joostbooy/Desktop/Code/stm32/lib/tinyusb/src/portable/synopsys/dwc2/dcd_dwc2.c **** 
 552:/Users/joostbooy/Desktop/Code/stm32/lib/tinyusb/src/portable/synopsys/dwc2/dcd_dwc2.c ****   dwc2_regs_t* dwc2 = DWC2_REG(rhport);
 553:/Users/joostbooy/Desktop/Code/stm32/lib/tinyusb/src/portable/synopsys/dwc2/dcd_dwc2.c ****   uint8_t const ep_count = _dwc2_controller[rhport].ep_count;
 554:/Users/joostbooy/Desktop/Code/stm32/lib/tinyusb/src/portable/synopsys/dwc2/dcd_dwc2.c **** 
 555:/Users/joostbooy/Desktop/Code/stm32/lib/tinyusb/src/portable/synopsys/dwc2/dcd_dwc2.c ****   uint8_t const epnum = tu_edpt_number(desc_edpt->bEndpointAddress);
 556:/Users/joostbooy/Desktop/Code/stm32/lib/tinyusb/src/portable/synopsys/dwc2/dcd_dwc2.c ****   uint8_t const dir = tu_edpt_dir(desc_edpt->bEndpointAddress);
 557:/Users/joostbooy/Desktop/Code/stm32/lib/tinyusb/src/portable/synopsys/dwc2/dcd_dwc2.c **** 
 558:/Users/joostbooy/Desktop/Code/stm32/lib/tinyusb/src/portable/synopsys/dwc2/dcd_dwc2.c ****   TU_ASSERT(epnum < ep_count);
 559:/Users/joostbooy/Desktop/Code/stm32/lib/tinyusb/src/portable/synopsys/dwc2/dcd_dwc2.c **** 
 560:/Users/joostbooy/Desktop/Code/stm32/lib/tinyusb/src/portable/synopsys/dwc2/dcd_dwc2.c ****   xfer_ctl_t* xfer = XFER_CTL_BASE(epnum, dir);
 561:/Users/joostbooy/Desktop/Code/stm32/lib/tinyusb/src/portable/synopsys/dwc2/dcd_dwc2.c ****   xfer->max_size = tu_edpt_packet_size(desc_edpt);
 562:/Users/joostbooy/Desktop/Code/stm32/lib/tinyusb/src/portable/synopsys/dwc2/dcd_dwc2.c ****   xfer->interval = desc_edpt->bInterval;
 563:/Users/joostbooy/Desktop/Code/stm32/lib/tinyusb/src/portable/synopsys/dwc2/dcd_dwc2.c **** 
 564:/Users/joostbooy/Desktop/Code/stm32/lib/tinyusb/src/portable/synopsys/dwc2/dcd_dwc2.c ****   uint16_t const fifo_size = tu_div_ceil(xfer->max_size, 4);
 565:/Users/joostbooy/Desktop/Code/stm32/lib/tinyusb/src/portable/synopsys/dwc2/dcd_dwc2.c **** 
 566:/Users/joostbooy/Desktop/Code/stm32/lib/tinyusb/src/portable/synopsys/dwc2/dcd_dwc2.c ****   if (dir == TUSB_DIR_OUT) {
 567:/Users/joostbooy/Desktop/Code/stm32/lib/tinyusb/src/portable/synopsys/dwc2/dcd_dwc2.c ****     // Calculate required size of RX FIFO
 568:/Users/joostbooy/Desktop/Code/stm32/lib/tinyusb/src/portable/synopsys/dwc2/dcd_dwc2.c ****     uint16_t const sz = calc_grxfsiz(4 * fifo_size, ep_count);
 569:/Users/joostbooy/Desktop/Code/stm32/lib/tinyusb/src/portable/synopsys/dwc2/dcd_dwc2.c **** 
 570:/Users/joostbooy/Desktop/Code/stm32/lib/tinyusb/src/portable/synopsys/dwc2/dcd_dwc2.c ****     // If size_rx needs to be extended check if possible and if so enlarge it
 571:/Users/joostbooy/Desktop/Code/stm32/lib/tinyusb/src/portable/synopsys/dwc2/dcd_dwc2.c ****     if (dwc2->grxfsiz < sz) {
 572:/Users/joostbooy/Desktop/Code/stm32/lib/tinyusb/src/portable/synopsys/dwc2/dcd_dwc2.c ****       TU_ASSERT(sz + _allocated_fifo_words_tx <= _dwc2_controller[rhport].ep_fifo_size / 4);
 573:/Users/joostbooy/Desktop/Code/stm32/lib/tinyusb/src/portable/synopsys/dwc2/dcd_dwc2.c **** 
 574:/Users/joostbooy/Desktop/Code/stm32/lib/tinyusb/src/portable/synopsys/dwc2/dcd_dwc2.c ****       // Enlarge RX FIFO
 575:/Users/joostbooy/Desktop/Code/stm32/lib/tinyusb/src/portable/synopsys/dwc2/dcd_dwc2.c ****       dwc2->grxfsiz = sz;
 576:/Users/joostbooy/Desktop/Code/stm32/lib/tinyusb/src/portable/synopsys/dwc2/dcd_dwc2.c ****     }
 577:/Users/joostbooy/Desktop/Code/stm32/lib/tinyusb/src/portable/synopsys/dwc2/dcd_dwc2.c **** 
 578:/Users/joostbooy/Desktop/Code/stm32/lib/tinyusb/src/portable/synopsys/dwc2/dcd_dwc2.c ****     dwc2->epout[epnum].doepctl |= (1 << DOEPCTL_USBAEP_Pos) |
 579:/Users/joostbooy/Desktop/Code/stm32/lib/tinyusb/src/portable/synopsys/dwc2/dcd_dwc2.c ****                                   (desc_edpt->bmAttributes.xfer << DOEPCTL_EPTYP_Pos) |
 580:/Users/joostbooy/Desktop/Code/stm32/lib/tinyusb/src/portable/synopsys/dwc2/dcd_dwc2.c ****                                   (desc_edpt->bmAttributes.xfer != TUSB_XFER_ISOCHRONOUS ? DOEPCTL_
 581:/Users/joostbooy/Desktop/Code/stm32/lib/tinyusb/src/portable/synopsys/dwc2/dcd_dwc2.c ****                                   (xfer->max_size << DOEPCTL_MPSIZ_Pos);
 582:/Users/joostbooy/Desktop/Code/stm32/lib/tinyusb/src/portable/synopsys/dwc2/dcd_dwc2.c **** 
 583:/Users/joostbooy/Desktop/Code/stm32/lib/tinyusb/src/portable/synopsys/dwc2/dcd_dwc2.c ****     dwc2->daintmsk |= TU_BIT(DAINTMSK_OEPM_Pos + epnum);
 584:/Users/joostbooy/Desktop/Code/stm32/lib/tinyusb/src/portable/synopsys/dwc2/dcd_dwc2.c ****   } else {
 585:/Users/joostbooy/Desktop/Code/stm32/lib/tinyusb/src/portable/synopsys/dwc2/dcd_dwc2.c ****     // "USB Data FIFOs" section in reference manual
 586:/Users/joostbooy/Desktop/Code/stm32/lib/tinyusb/src/portable/synopsys/dwc2/dcd_dwc2.c ****     // Peripheral FIFO architecture
 587:/Users/joostbooy/Desktop/Code/stm32/lib/tinyusb/src/portable/synopsys/dwc2/dcd_dwc2.c ****     //
 588:/Users/joostbooy/Desktop/Code/stm32/lib/tinyusb/src/portable/synopsys/dwc2/dcd_dwc2.c ****     // --------------- 320 or 1024 ( 1280 or 4096 bytes )
 589:/Users/joostbooy/Desktop/Code/stm32/lib/tinyusb/src/portable/synopsys/dwc2/dcd_dwc2.c ****     // | IN FIFO 0   |
 590:/Users/joostbooy/Desktop/Code/stm32/lib/tinyusb/src/portable/synopsys/dwc2/dcd_dwc2.c ****     // --------------- (320 or 1024) - 16
 591:/Users/joostbooy/Desktop/Code/stm32/lib/tinyusb/src/portable/synopsys/dwc2/dcd_dwc2.c ****     // | IN FIFO 1   |
 592:/Users/joostbooy/Desktop/Code/stm32/lib/tinyusb/src/portable/synopsys/dwc2/dcd_dwc2.c ****     // --------------- (320 or 1024) - 16 - x
 593:/Users/joostbooy/Desktop/Code/stm32/lib/tinyusb/src/portable/synopsys/dwc2/dcd_dwc2.c ****     // |   . . . .   |
 594:/Users/joostbooy/Desktop/Code/stm32/lib/tinyusb/src/portable/synopsys/dwc2/dcd_dwc2.c ****     // --------------- (320 or 1024) - 16 - x - y - ... - z
 595:/Users/joostbooy/Desktop/Code/stm32/lib/tinyusb/src/portable/synopsys/dwc2/dcd_dwc2.c ****     // | IN FIFO MAX |
ARM GAS  /var/folders/84/_x1cyy_j36g486tldtwl37280000gn/T//cc1ObSsF.s 			page 20


 596:/Users/joostbooy/Desktop/Code/stm32/lib/tinyusb/src/portable/synopsys/dwc2/dcd_dwc2.c ****     // ---------------
 597:/Users/joostbooy/Desktop/Code/stm32/lib/tinyusb/src/portable/synopsys/dwc2/dcd_dwc2.c ****     // |    FREE     |
 598:/Users/joostbooy/Desktop/Code/stm32/lib/tinyusb/src/portable/synopsys/dwc2/dcd_dwc2.c ****     // --------------- GRXFSIZ
 599:/Users/joostbooy/Desktop/Code/stm32/lib/tinyusb/src/portable/synopsys/dwc2/dcd_dwc2.c ****     // | OUT FIFO    |
 600:/Users/joostbooy/Desktop/Code/stm32/lib/tinyusb/src/portable/synopsys/dwc2/dcd_dwc2.c ****     // | ( Shared )  |
 601:/Users/joostbooy/Desktop/Code/stm32/lib/tinyusb/src/portable/synopsys/dwc2/dcd_dwc2.c ****     // --------------- 0
 602:/Users/joostbooy/Desktop/Code/stm32/lib/tinyusb/src/portable/synopsys/dwc2/dcd_dwc2.c ****     //
 603:/Users/joostbooy/Desktop/Code/stm32/lib/tinyusb/src/portable/synopsys/dwc2/dcd_dwc2.c ****     // In FIFO is allocated by following rules:
 604:/Users/joostbooy/Desktop/Code/stm32/lib/tinyusb/src/portable/synopsys/dwc2/dcd_dwc2.c ****     // - IN EP 1 gets FIFO 1, IN EP "n" gets FIFO "n".
 605:/Users/joostbooy/Desktop/Code/stm32/lib/tinyusb/src/portable/synopsys/dwc2/dcd_dwc2.c **** 
 606:/Users/joostbooy/Desktop/Code/stm32/lib/tinyusb/src/portable/synopsys/dwc2/dcd_dwc2.c ****     // Check if free space is available
 607:/Users/joostbooy/Desktop/Code/stm32/lib/tinyusb/src/portable/synopsys/dwc2/dcd_dwc2.c ****     TU_ASSERT(_allocated_fifo_words_tx + fifo_size + dwc2->grxfsiz <= _dwc2_controller[rhport].ep_f
 608:/Users/joostbooy/Desktop/Code/stm32/lib/tinyusb/src/portable/synopsys/dwc2/dcd_dwc2.c **** 
 609:/Users/joostbooy/Desktop/Code/stm32/lib/tinyusb/src/portable/synopsys/dwc2/dcd_dwc2.c ****     _allocated_fifo_words_tx += fifo_size;
 610:/Users/joostbooy/Desktop/Code/stm32/lib/tinyusb/src/portable/synopsys/dwc2/dcd_dwc2.c **** 
 611:/Users/joostbooy/Desktop/Code/stm32/lib/tinyusb/src/portable/synopsys/dwc2/dcd_dwc2.c ****     TU_LOG(DWC2_DEBUG, "    Allocated %u bytes at offset %lu", fifo_size * 4,
 612:/Users/joostbooy/Desktop/Code/stm32/lib/tinyusb/src/portable/synopsys/dwc2/dcd_dwc2.c ****            _dwc2_controller[rhport].ep_fifo_size - _allocated_fifo_words_tx * 4);
 613:/Users/joostbooy/Desktop/Code/stm32/lib/tinyusb/src/portable/synopsys/dwc2/dcd_dwc2.c **** 
 614:/Users/joostbooy/Desktop/Code/stm32/lib/tinyusb/src/portable/synopsys/dwc2/dcd_dwc2.c ****     // DIEPTXF starts at FIFO #1.
 615:/Users/joostbooy/Desktop/Code/stm32/lib/tinyusb/src/portable/synopsys/dwc2/dcd_dwc2.c ****     // Both TXFD and TXSA are in unit of 32-bit words.
 616:/Users/joostbooy/Desktop/Code/stm32/lib/tinyusb/src/portable/synopsys/dwc2/dcd_dwc2.c ****     dwc2->dieptxf[epnum - 1] = (fifo_size << DIEPTXF_INEPTXFD_Pos) |
 617:/Users/joostbooy/Desktop/Code/stm32/lib/tinyusb/src/portable/synopsys/dwc2/dcd_dwc2.c ****                                (_dwc2_controller[rhport].ep_fifo_size / 4 - _allocated_fifo_words_t
 618:/Users/joostbooy/Desktop/Code/stm32/lib/tinyusb/src/portable/synopsys/dwc2/dcd_dwc2.c **** 
 619:/Users/joostbooy/Desktop/Code/stm32/lib/tinyusb/src/portable/synopsys/dwc2/dcd_dwc2.c ****     dwc2->epin[epnum].diepctl |= (1 << DIEPCTL_USBAEP_Pos) |
 620:/Users/joostbooy/Desktop/Code/stm32/lib/tinyusb/src/portable/synopsys/dwc2/dcd_dwc2.c ****                                  (epnum << DIEPCTL_TXFNUM_Pos) |
 621:/Users/joostbooy/Desktop/Code/stm32/lib/tinyusb/src/portable/synopsys/dwc2/dcd_dwc2.c ****                                  (desc_edpt->bmAttributes.xfer << DIEPCTL_EPTYP_Pos) |
 622:/Users/joostbooy/Desktop/Code/stm32/lib/tinyusb/src/portable/synopsys/dwc2/dcd_dwc2.c ****                                  (desc_edpt->bmAttributes.xfer != TUSB_XFER_ISOCHRONOUS ? DIEPCTL_S
 623:/Users/joostbooy/Desktop/Code/stm32/lib/tinyusb/src/portable/synopsys/dwc2/dcd_dwc2.c ****                                  (xfer->max_size << DIEPCTL_MPSIZ_Pos);
 624:/Users/joostbooy/Desktop/Code/stm32/lib/tinyusb/src/portable/synopsys/dwc2/dcd_dwc2.c **** 
 625:/Users/joostbooy/Desktop/Code/stm32/lib/tinyusb/src/portable/synopsys/dwc2/dcd_dwc2.c ****     dwc2->daintmsk |= (1 << (DAINTMSK_IEPM_Pos + epnum));
 626:/Users/joostbooy/Desktop/Code/stm32/lib/tinyusb/src/portable/synopsys/dwc2/dcd_dwc2.c ****   }
 627:/Users/joostbooy/Desktop/Code/stm32/lib/tinyusb/src/portable/synopsys/dwc2/dcd_dwc2.c **** 
 628:/Users/joostbooy/Desktop/Code/stm32/lib/tinyusb/src/portable/synopsys/dwc2/dcd_dwc2.c ****   return true;
 629:/Users/joostbooy/Desktop/Code/stm32/lib/tinyusb/src/portable/synopsys/dwc2/dcd_dwc2.c **** }
 630:/Users/joostbooy/Desktop/Code/stm32/lib/tinyusb/src/portable/synopsys/dwc2/dcd_dwc2.c **** 
 631:/Users/joostbooy/Desktop/Code/stm32/lib/tinyusb/src/portable/synopsys/dwc2/dcd_dwc2.c **** // Close all non-control endpoints, cancel all pending transfers if any.
 632:/Users/joostbooy/Desktop/Code/stm32/lib/tinyusb/src/portable/synopsys/dwc2/dcd_dwc2.c **** void dcd_edpt_close_all(uint8_t rhport) {
 633:/Users/joostbooy/Desktop/Code/stm32/lib/tinyusb/src/portable/synopsys/dwc2/dcd_dwc2.c ****   dwc2_regs_t* dwc2 = DWC2_REG(rhport);
 634:/Users/joostbooy/Desktop/Code/stm32/lib/tinyusb/src/portable/synopsys/dwc2/dcd_dwc2.c ****   uint8_t const ep_count = _dwc2_controller[rhport].ep_count;
 635:/Users/joostbooy/Desktop/Code/stm32/lib/tinyusb/src/portable/synopsys/dwc2/dcd_dwc2.c **** 
 636:/Users/joostbooy/Desktop/Code/stm32/lib/tinyusb/src/portable/synopsys/dwc2/dcd_dwc2.c ****   // Disable non-control interrupt
 637:/Users/joostbooy/Desktop/Code/stm32/lib/tinyusb/src/portable/synopsys/dwc2/dcd_dwc2.c ****   dwc2->daintmsk = (1 << DAINTMSK_OEPM_Pos) | (1 << DAINTMSK_IEPM_Pos);
 638:/Users/joostbooy/Desktop/Code/stm32/lib/tinyusb/src/portable/synopsys/dwc2/dcd_dwc2.c **** 
 639:/Users/joostbooy/Desktop/Code/stm32/lib/tinyusb/src/portable/synopsys/dwc2/dcd_dwc2.c ****   for (uint8_t n = 1; n < ep_count; n++) {
 640:/Users/joostbooy/Desktop/Code/stm32/lib/tinyusb/src/portable/synopsys/dwc2/dcd_dwc2.c ****     // disable OUT endpoint
 641:/Users/joostbooy/Desktop/Code/stm32/lib/tinyusb/src/portable/synopsys/dwc2/dcd_dwc2.c ****     dwc2->epout[n].doepctl = 0;
 642:/Users/joostbooy/Desktop/Code/stm32/lib/tinyusb/src/portable/synopsys/dwc2/dcd_dwc2.c ****     xfer_status[n][TUSB_DIR_OUT].max_size = 0;
 643:/Users/joostbooy/Desktop/Code/stm32/lib/tinyusb/src/portable/synopsys/dwc2/dcd_dwc2.c **** 
 644:/Users/joostbooy/Desktop/Code/stm32/lib/tinyusb/src/portable/synopsys/dwc2/dcd_dwc2.c ****     // disable IN endpoint
 645:/Users/joostbooy/Desktop/Code/stm32/lib/tinyusb/src/portable/synopsys/dwc2/dcd_dwc2.c ****     dwc2->epin[n].diepctl = 0;
 646:/Users/joostbooy/Desktop/Code/stm32/lib/tinyusb/src/portable/synopsys/dwc2/dcd_dwc2.c ****     xfer_status[n][TUSB_DIR_IN].max_size = 0;
 647:/Users/joostbooy/Desktop/Code/stm32/lib/tinyusb/src/portable/synopsys/dwc2/dcd_dwc2.c ****   }
 648:/Users/joostbooy/Desktop/Code/stm32/lib/tinyusb/src/portable/synopsys/dwc2/dcd_dwc2.c **** 
 649:/Users/joostbooy/Desktop/Code/stm32/lib/tinyusb/src/portable/synopsys/dwc2/dcd_dwc2.c ****   // reset allocated fifo IN
 650:/Users/joostbooy/Desktop/Code/stm32/lib/tinyusb/src/portable/synopsys/dwc2/dcd_dwc2.c ****   _allocated_fifo_words_tx = 16;
 651:/Users/joostbooy/Desktop/Code/stm32/lib/tinyusb/src/portable/synopsys/dwc2/dcd_dwc2.c **** }
 652:/Users/joostbooy/Desktop/Code/stm32/lib/tinyusb/src/portable/synopsys/dwc2/dcd_dwc2.c **** 
ARM GAS  /var/folders/84/_x1cyy_j36g486tldtwl37280000gn/T//cc1ObSsF.s 			page 21


 653:/Users/joostbooy/Desktop/Code/stm32/lib/tinyusb/src/portable/synopsys/dwc2/dcd_dwc2.c **** bool dcd_edpt_xfer(uint8_t rhport, uint8_t ep_addr, uint8_t* buffer, uint16_t total_bytes) {
 654:/Users/joostbooy/Desktop/Code/stm32/lib/tinyusb/src/portable/synopsys/dwc2/dcd_dwc2.c ****   uint8_t const epnum = tu_edpt_number(ep_addr);
 655:/Users/joostbooy/Desktop/Code/stm32/lib/tinyusb/src/portable/synopsys/dwc2/dcd_dwc2.c ****   uint8_t const dir = tu_edpt_dir(ep_addr);
 656:/Users/joostbooy/Desktop/Code/stm32/lib/tinyusb/src/portable/synopsys/dwc2/dcd_dwc2.c **** 
 657:/Users/joostbooy/Desktop/Code/stm32/lib/tinyusb/src/portable/synopsys/dwc2/dcd_dwc2.c ****   xfer_ctl_t* xfer = XFER_CTL_BASE(epnum, dir);
 658:/Users/joostbooy/Desktop/Code/stm32/lib/tinyusb/src/portable/synopsys/dwc2/dcd_dwc2.c ****   xfer->buffer = buffer;
 659:/Users/joostbooy/Desktop/Code/stm32/lib/tinyusb/src/portable/synopsys/dwc2/dcd_dwc2.c ****   xfer->ff = NULL;
 660:/Users/joostbooy/Desktop/Code/stm32/lib/tinyusb/src/portable/synopsys/dwc2/dcd_dwc2.c ****   xfer->total_len = total_bytes;
 661:/Users/joostbooy/Desktop/Code/stm32/lib/tinyusb/src/portable/synopsys/dwc2/dcd_dwc2.c **** 
 662:/Users/joostbooy/Desktop/Code/stm32/lib/tinyusb/src/portable/synopsys/dwc2/dcd_dwc2.c ****   // EP0 can only handle one packet
 663:/Users/joostbooy/Desktop/Code/stm32/lib/tinyusb/src/portable/synopsys/dwc2/dcd_dwc2.c ****   if (epnum == 0) {
 664:/Users/joostbooy/Desktop/Code/stm32/lib/tinyusb/src/portable/synopsys/dwc2/dcd_dwc2.c ****     ep0_pending[dir] = total_bytes;
 665:/Users/joostbooy/Desktop/Code/stm32/lib/tinyusb/src/portable/synopsys/dwc2/dcd_dwc2.c **** 
 666:/Users/joostbooy/Desktop/Code/stm32/lib/tinyusb/src/portable/synopsys/dwc2/dcd_dwc2.c ****     // Schedule the first transaction for EP0 transfer
 667:/Users/joostbooy/Desktop/Code/stm32/lib/tinyusb/src/portable/synopsys/dwc2/dcd_dwc2.c ****     edpt_schedule_packets(rhport, epnum, dir, 1, ep0_pending[dir]);
 668:/Users/joostbooy/Desktop/Code/stm32/lib/tinyusb/src/portable/synopsys/dwc2/dcd_dwc2.c ****   } else {
 669:/Users/joostbooy/Desktop/Code/stm32/lib/tinyusb/src/portable/synopsys/dwc2/dcd_dwc2.c ****     uint16_t num_packets = (total_bytes / xfer->max_size);
 670:/Users/joostbooy/Desktop/Code/stm32/lib/tinyusb/src/portable/synopsys/dwc2/dcd_dwc2.c ****     uint16_t const short_packet_size = total_bytes % xfer->max_size;
 671:/Users/joostbooy/Desktop/Code/stm32/lib/tinyusb/src/portable/synopsys/dwc2/dcd_dwc2.c **** 
 672:/Users/joostbooy/Desktop/Code/stm32/lib/tinyusb/src/portable/synopsys/dwc2/dcd_dwc2.c ****     // Zero-size packet is special case.
 673:/Users/joostbooy/Desktop/Code/stm32/lib/tinyusb/src/portable/synopsys/dwc2/dcd_dwc2.c ****     if ((short_packet_size > 0) || (total_bytes == 0)) num_packets++;
 674:/Users/joostbooy/Desktop/Code/stm32/lib/tinyusb/src/portable/synopsys/dwc2/dcd_dwc2.c **** 
 675:/Users/joostbooy/Desktop/Code/stm32/lib/tinyusb/src/portable/synopsys/dwc2/dcd_dwc2.c ****     // Schedule packets to be sent within interrupt
 676:/Users/joostbooy/Desktop/Code/stm32/lib/tinyusb/src/portable/synopsys/dwc2/dcd_dwc2.c ****     edpt_schedule_packets(rhport, epnum, dir, num_packets, total_bytes);
 677:/Users/joostbooy/Desktop/Code/stm32/lib/tinyusb/src/portable/synopsys/dwc2/dcd_dwc2.c ****   }
 678:/Users/joostbooy/Desktop/Code/stm32/lib/tinyusb/src/portable/synopsys/dwc2/dcd_dwc2.c **** 
 679:/Users/joostbooy/Desktop/Code/stm32/lib/tinyusb/src/portable/synopsys/dwc2/dcd_dwc2.c ****   return true;
 680:/Users/joostbooy/Desktop/Code/stm32/lib/tinyusb/src/portable/synopsys/dwc2/dcd_dwc2.c **** }
 681:/Users/joostbooy/Desktop/Code/stm32/lib/tinyusb/src/portable/synopsys/dwc2/dcd_dwc2.c **** 
 682:/Users/joostbooy/Desktop/Code/stm32/lib/tinyusb/src/portable/synopsys/dwc2/dcd_dwc2.c **** // The number of bytes has to be given explicitly to allow more flexible control of how many
 683:/Users/joostbooy/Desktop/Code/stm32/lib/tinyusb/src/portable/synopsys/dwc2/dcd_dwc2.c **** // bytes should be written and second to keep the return value free to give back a boolean
 684:/Users/joostbooy/Desktop/Code/stm32/lib/tinyusb/src/portable/synopsys/dwc2/dcd_dwc2.c **** // success message. If total_bytes is too big, the FIFO will copy only what is available
 685:/Users/joostbooy/Desktop/Code/stm32/lib/tinyusb/src/portable/synopsys/dwc2/dcd_dwc2.c **** // into the USB buffer!
 686:/Users/joostbooy/Desktop/Code/stm32/lib/tinyusb/src/portable/synopsys/dwc2/dcd_dwc2.c **** bool dcd_edpt_xfer_fifo(uint8_t rhport, uint8_t ep_addr, tu_fifo_t* ff, uint16_t total_bytes) {
 687:/Users/joostbooy/Desktop/Code/stm32/lib/tinyusb/src/portable/synopsys/dwc2/dcd_dwc2.c ****   // USB buffers always work in bytes so to avoid unnecessary divisions we demand item_size = 1
 688:/Users/joostbooy/Desktop/Code/stm32/lib/tinyusb/src/portable/synopsys/dwc2/dcd_dwc2.c ****   TU_ASSERT(ff->item_size == 1);
 689:/Users/joostbooy/Desktop/Code/stm32/lib/tinyusb/src/portable/synopsys/dwc2/dcd_dwc2.c **** 
 690:/Users/joostbooy/Desktop/Code/stm32/lib/tinyusb/src/portable/synopsys/dwc2/dcd_dwc2.c ****   uint8_t const epnum = tu_edpt_number(ep_addr);
 691:/Users/joostbooy/Desktop/Code/stm32/lib/tinyusb/src/portable/synopsys/dwc2/dcd_dwc2.c ****   uint8_t const dir = tu_edpt_dir(ep_addr);
 692:/Users/joostbooy/Desktop/Code/stm32/lib/tinyusb/src/portable/synopsys/dwc2/dcd_dwc2.c **** 
 693:/Users/joostbooy/Desktop/Code/stm32/lib/tinyusb/src/portable/synopsys/dwc2/dcd_dwc2.c ****   xfer_ctl_t* xfer = XFER_CTL_BASE(epnum, dir);
 694:/Users/joostbooy/Desktop/Code/stm32/lib/tinyusb/src/portable/synopsys/dwc2/dcd_dwc2.c ****   xfer->buffer = NULL;
 695:/Users/joostbooy/Desktop/Code/stm32/lib/tinyusb/src/portable/synopsys/dwc2/dcd_dwc2.c ****   xfer->ff = ff;
 696:/Users/joostbooy/Desktop/Code/stm32/lib/tinyusb/src/portable/synopsys/dwc2/dcd_dwc2.c ****   xfer->total_len = total_bytes;
 697:/Users/joostbooy/Desktop/Code/stm32/lib/tinyusb/src/portable/synopsys/dwc2/dcd_dwc2.c **** 
 698:/Users/joostbooy/Desktop/Code/stm32/lib/tinyusb/src/portable/synopsys/dwc2/dcd_dwc2.c ****   uint16_t num_packets = (total_bytes / xfer->max_size);
 699:/Users/joostbooy/Desktop/Code/stm32/lib/tinyusb/src/portable/synopsys/dwc2/dcd_dwc2.c ****   uint16_t const short_packet_size = total_bytes % xfer->max_size;
 700:/Users/joostbooy/Desktop/Code/stm32/lib/tinyusb/src/portable/synopsys/dwc2/dcd_dwc2.c **** 
 701:/Users/joostbooy/Desktop/Code/stm32/lib/tinyusb/src/portable/synopsys/dwc2/dcd_dwc2.c ****   // Zero-size packet is special case.
 702:/Users/joostbooy/Desktop/Code/stm32/lib/tinyusb/src/portable/synopsys/dwc2/dcd_dwc2.c ****   if (short_packet_size > 0 || (total_bytes == 0)) num_packets++;
 703:/Users/joostbooy/Desktop/Code/stm32/lib/tinyusb/src/portable/synopsys/dwc2/dcd_dwc2.c **** 
 704:/Users/joostbooy/Desktop/Code/stm32/lib/tinyusb/src/portable/synopsys/dwc2/dcd_dwc2.c ****   // Schedule packets to be sent within interrupt
 705:/Users/joostbooy/Desktop/Code/stm32/lib/tinyusb/src/portable/synopsys/dwc2/dcd_dwc2.c ****   edpt_schedule_packets(rhport, epnum, dir, num_packets, total_bytes);
 706:/Users/joostbooy/Desktop/Code/stm32/lib/tinyusb/src/portable/synopsys/dwc2/dcd_dwc2.c **** 
 707:/Users/joostbooy/Desktop/Code/stm32/lib/tinyusb/src/portable/synopsys/dwc2/dcd_dwc2.c ****   return true;
 708:/Users/joostbooy/Desktop/Code/stm32/lib/tinyusb/src/portable/synopsys/dwc2/dcd_dwc2.c **** }
 709:/Users/joostbooy/Desktop/Code/stm32/lib/tinyusb/src/portable/synopsys/dwc2/dcd_dwc2.c **** 
ARM GAS  /var/folders/84/_x1cyy_j36g486tldtwl37280000gn/T//cc1ObSsF.s 			page 22


 710:/Users/joostbooy/Desktop/Code/stm32/lib/tinyusb/src/portable/synopsys/dwc2/dcd_dwc2.c **** static void dcd_edpt_disable(uint8_t rhport, uint8_t ep_addr, bool stall) {
 299              		.loc 1 710 75 is_stmt 1 view -0
 300              		.cfi_startproc
 301              		@ args = 0, pretend = 0, frame = 0
 302              		@ frame_needed = 0, uses_anonymous_args = 0
 303              		@ link register save eliminated.
 711:/Users/joostbooy/Desktop/Code/stm32/lib/tinyusb/src/portable/synopsys/dwc2/dcd_dwc2.c ****   (void) rhport;
 304              		.loc 1 711 3 view .LVU86
 712:/Users/joostbooy/Desktop/Code/stm32/lib/tinyusb/src/portable/synopsys/dwc2/dcd_dwc2.c **** 
 713:/Users/joostbooy/Desktop/Code/stm32/lib/tinyusb/src/portable/synopsys/dwc2/dcd_dwc2.c ****   dwc2_regs_t* dwc2 = DWC2_REG(rhport);
 305              		.loc 1 713 3 view .LVU87
 306              		.loc 1 713 23 is_stmt 0 view .LVU88
 307 0000 0001     		lsls	r0, r0, #4
 308              	.LVL28:
 309              		.loc 1 713 23 view .LVU89
 310 0002 384B     		ldr	r3, .L63
 311              		.loc 1 713 16 view .LVU90
 312 0004 1B58     		ldr	r3, [r3, r0]
 313              	.LVL29:
 714:/Users/joostbooy/Desktop/Code/stm32/lib/tinyusb/src/portable/synopsys/dwc2/dcd_dwc2.c **** 
 715:/Users/joostbooy/Desktop/Code/stm32/lib/tinyusb/src/portable/synopsys/dwc2/dcd_dwc2.c ****   uint8_t const epnum = tu_edpt_number(ep_addr);
 314              		.loc 1 715 3 is_stmt 1 view .LVU91
 315              	.LBB190:
 316              	.LBI190:
 317              		.file 3 "/Users/joostbooy/Desktop/Code/stm32/lib/tinyusb/src/common/tusb_types.h"
   1:/Users/joostbooy/Desktop/Code/stm32/lib/tinyusb/src/common/tusb_types.h **** /*
   2:/Users/joostbooy/Desktop/Code/stm32/lib/tinyusb/src/common/tusb_types.h ****  * The MIT License (MIT)
   3:/Users/joostbooy/Desktop/Code/stm32/lib/tinyusb/src/common/tusb_types.h ****  *
   4:/Users/joostbooy/Desktop/Code/stm32/lib/tinyusb/src/common/tusb_types.h ****  * Copyright (c) 2019 Ha Thach (tinyusb.org)
   5:/Users/joostbooy/Desktop/Code/stm32/lib/tinyusb/src/common/tusb_types.h ****  *
   6:/Users/joostbooy/Desktop/Code/stm32/lib/tinyusb/src/common/tusb_types.h ****  * Permission is hereby granted, free of charge, to any person obtaining a copy
   7:/Users/joostbooy/Desktop/Code/stm32/lib/tinyusb/src/common/tusb_types.h ****  * of this software and associated documentation files (the "Software"), to deal
   8:/Users/joostbooy/Desktop/Code/stm32/lib/tinyusb/src/common/tusb_types.h ****  * in the Software without restriction, including without limitation the rights
   9:/Users/joostbooy/Desktop/Code/stm32/lib/tinyusb/src/common/tusb_types.h ****  * to use, copy, modify, merge, publish, distribute, sublicense, and/or sell
  10:/Users/joostbooy/Desktop/Code/stm32/lib/tinyusb/src/common/tusb_types.h ****  * copies of the Software, and to permit persons to whom the Software is
  11:/Users/joostbooy/Desktop/Code/stm32/lib/tinyusb/src/common/tusb_types.h ****  * furnished to do so, subject to the following conditions:
  12:/Users/joostbooy/Desktop/Code/stm32/lib/tinyusb/src/common/tusb_types.h ****  *
  13:/Users/joostbooy/Desktop/Code/stm32/lib/tinyusb/src/common/tusb_types.h ****  * The above copyright notice and this permission notice shall be included in
  14:/Users/joostbooy/Desktop/Code/stm32/lib/tinyusb/src/common/tusb_types.h ****  * all copies or substantial portions of the Software.
  15:/Users/joostbooy/Desktop/Code/stm32/lib/tinyusb/src/common/tusb_types.h ****  *
  16:/Users/joostbooy/Desktop/Code/stm32/lib/tinyusb/src/common/tusb_types.h ****  * THE SOFTWARE IS PROVIDED "AS IS", WITHOUT WARRANTY OF ANY KIND, EXPRESS OR
  17:/Users/joostbooy/Desktop/Code/stm32/lib/tinyusb/src/common/tusb_types.h ****  * IMPLIED, INCLUDING BUT NOT LIMITED TO THE WARRANTIES OF MERCHANTABILITY,
  18:/Users/joostbooy/Desktop/Code/stm32/lib/tinyusb/src/common/tusb_types.h ****  * FITNESS FOR A PARTICULAR PURPOSE AND NONINFRINGEMENT. IN NO EVENT SHALL THE
  19:/Users/joostbooy/Desktop/Code/stm32/lib/tinyusb/src/common/tusb_types.h ****  * AUTHORS OR COPYRIGHT HOLDERS BE LIABLE FOR ANY CLAIM, DAMAGES OR OTHER
  20:/Users/joostbooy/Desktop/Code/stm32/lib/tinyusb/src/common/tusb_types.h ****  * LIABILITY, WHETHER IN AN ACTION OF CONTRACT, TORT OR OTHERWISE, ARISING FROM,
  21:/Users/joostbooy/Desktop/Code/stm32/lib/tinyusb/src/common/tusb_types.h ****  * OUT OF OR IN CONNECTION WITH THE SOFTWARE OR THE USE OR OTHER DEALINGS IN
  22:/Users/joostbooy/Desktop/Code/stm32/lib/tinyusb/src/common/tusb_types.h ****  * THE SOFTWARE.
  23:/Users/joostbooy/Desktop/Code/stm32/lib/tinyusb/src/common/tusb_types.h ****  *
  24:/Users/joostbooy/Desktop/Code/stm32/lib/tinyusb/src/common/tusb_types.h ****  * This file is part of the TinyUSB stack.
  25:/Users/joostbooy/Desktop/Code/stm32/lib/tinyusb/src/common/tusb_types.h ****  */
  26:/Users/joostbooy/Desktop/Code/stm32/lib/tinyusb/src/common/tusb_types.h **** 
  27:/Users/joostbooy/Desktop/Code/stm32/lib/tinyusb/src/common/tusb_types.h **** /** \ingroup group_usb_definitions
  28:/Users/joostbooy/Desktop/Code/stm32/lib/tinyusb/src/common/tusb_types.h ****  *  \defgroup USBDef_Type USB Types
  29:/Users/joostbooy/Desktop/Code/stm32/lib/tinyusb/src/common/tusb_types.h ****  *  @{ */
  30:/Users/joostbooy/Desktop/Code/stm32/lib/tinyusb/src/common/tusb_types.h **** 
  31:/Users/joostbooy/Desktop/Code/stm32/lib/tinyusb/src/common/tusb_types.h **** #ifndef _TUSB_TYPES_H_
  32:/Users/joostbooy/Desktop/Code/stm32/lib/tinyusb/src/common/tusb_types.h **** #define _TUSB_TYPES_H_
ARM GAS  /var/folders/84/_x1cyy_j36g486tldtwl37280000gn/T//cc1ObSsF.s 			page 23


  33:/Users/joostbooy/Desktop/Code/stm32/lib/tinyusb/src/common/tusb_types.h **** 
  34:/Users/joostbooy/Desktop/Code/stm32/lib/tinyusb/src/common/tusb_types.h **** #include <stdbool.h>
  35:/Users/joostbooy/Desktop/Code/stm32/lib/tinyusb/src/common/tusb_types.h **** #include <stdint.h>
  36:/Users/joostbooy/Desktop/Code/stm32/lib/tinyusb/src/common/tusb_types.h **** #include "tusb_compiler.h"
  37:/Users/joostbooy/Desktop/Code/stm32/lib/tinyusb/src/common/tusb_types.h **** 
  38:/Users/joostbooy/Desktop/Code/stm32/lib/tinyusb/src/common/tusb_types.h **** #ifdef __cplusplus
  39:/Users/joostbooy/Desktop/Code/stm32/lib/tinyusb/src/common/tusb_types.h ****  extern "C" {
  40:/Users/joostbooy/Desktop/Code/stm32/lib/tinyusb/src/common/tusb_types.h **** #endif
  41:/Users/joostbooy/Desktop/Code/stm32/lib/tinyusb/src/common/tusb_types.h **** 
  42:/Users/joostbooy/Desktop/Code/stm32/lib/tinyusb/src/common/tusb_types.h **** /*------------------------------------------------------------------*/
  43:/Users/joostbooy/Desktop/Code/stm32/lib/tinyusb/src/common/tusb_types.h **** /* CONSTANTS
  44:/Users/joostbooy/Desktop/Code/stm32/lib/tinyusb/src/common/tusb_types.h ****  *------------------------------------------------------------------*/
  45:/Users/joostbooy/Desktop/Code/stm32/lib/tinyusb/src/common/tusb_types.h **** 
  46:/Users/joostbooy/Desktop/Code/stm32/lib/tinyusb/src/common/tusb_types.h **** /// defined base on EHCI specs value for Endpoint Speed
  47:/Users/joostbooy/Desktop/Code/stm32/lib/tinyusb/src/common/tusb_types.h **** typedef enum
  48:/Users/joostbooy/Desktop/Code/stm32/lib/tinyusb/src/common/tusb_types.h **** {
  49:/Users/joostbooy/Desktop/Code/stm32/lib/tinyusb/src/common/tusb_types.h ****   TUSB_SPEED_FULL = 0,
  50:/Users/joostbooy/Desktop/Code/stm32/lib/tinyusb/src/common/tusb_types.h ****   TUSB_SPEED_LOW  = 1,
  51:/Users/joostbooy/Desktop/Code/stm32/lib/tinyusb/src/common/tusb_types.h ****   TUSB_SPEED_HIGH = 2,
  52:/Users/joostbooy/Desktop/Code/stm32/lib/tinyusb/src/common/tusb_types.h ****   TUSB_SPEED_INVALID = 0xff,
  53:/Users/joostbooy/Desktop/Code/stm32/lib/tinyusb/src/common/tusb_types.h **** }tusb_speed_t;
  54:/Users/joostbooy/Desktop/Code/stm32/lib/tinyusb/src/common/tusb_types.h **** 
  55:/Users/joostbooy/Desktop/Code/stm32/lib/tinyusb/src/common/tusb_types.h **** /// defined base on USB Specs Endpoint's bmAttributes
  56:/Users/joostbooy/Desktop/Code/stm32/lib/tinyusb/src/common/tusb_types.h **** typedef enum
  57:/Users/joostbooy/Desktop/Code/stm32/lib/tinyusb/src/common/tusb_types.h **** {
  58:/Users/joostbooy/Desktop/Code/stm32/lib/tinyusb/src/common/tusb_types.h ****   TUSB_XFER_CONTROL = 0 ,
  59:/Users/joostbooy/Desktop/Code/stm32/lib/tinyusb/src/common/tusb_types.h ****   TUSB_XFER_ISOCHRONOUS ,
  60:/Users/joostbooy/Desktop/Code/stm32/lib/tinyusb/src/common/tusb_types.h ****   TUSB_XFER_BULK        ,
  61:/Users/joostbooy/Desktop/Code/stm32/lib/tinyusb/src/common/tusb_types.h ****   TUSB_XFER_INTERRUPT
  62:/Users/joostbooy/Desktop/Code/stm32/lib/tinyusb/src/common/tusb_types.h **** }tusb_xfer_type_t;
  63:/Users/joostbooy/Desktop/Code/stm32/lib/tinyusb/src/common/tusb_types.h **** 
  64:/Users/joostbooy/Desktop/Code/stm32/lib/tinyusb/src/common/tusb_types.h **** typedef enum
  65:/Users/joostbooy/Desktop/Code/stm32/lib/tinyusb/src/common/tusb_types.h **** {
  66:/Users/joostbooy/Desktop/Code/stm32/lib/tinyusb/src/common/tusb_types.h ****   TUSB_DIR_OUT = 0,
  67:/Users/joostbooy/Desktop/Code/stm32/lib/tinyusb/src/common/tusb_types.h ****   TUSB_DIR_IN  = 1,
  68:/Users/joostbooy/Desktop/Code/stm32/lib/tinyusb/src/common/tusb_types.h **** 
  69:/Users/joostbooy/Desktop/Code/stm32/lib/tinyusb/src/common/tusb_types.h ****   TUSB_DIR_IN_MASK = 0x80
  70:/Users/joostbooy/Desktop/Code/stm32/lib/tinyusb/src/common/tusb_types.h **** }tusb_dir_t;
  71:/Users/joostbooy/Desktop/Code/stm32/lib/tinyusb/src/common/tusb_types.h **** 
  72:/Users/joostbooy/Desktop/Code/stm32/lib/tinyusb/src/common/tusb_types.h **** enum
  73:/Users/joostbooy/Desktop/Code/stm32/lib/tinyusb/src/common/tusb_types.h **** {
  74:/Users/joostbooy/Desktop/Code/stm32/lib/tinyusb/src/common/tusb_types.h ****   TUSB_EPSIZE_BULK_FS = 64,
  75:/Users/joostbooy/Desktop/Code/stm32/lib/tinyusb/src/common/tusb_types.h ****   TUSB_EPSIZE_BULK_HS= 512,
  76:/Users/joostbooy/Desktop/Code/stm32/lib/tinyusb/src/common/tusb_types.h **** 
  77:/Users/joostbooy/Desktop/Code/stm32/lib/tinyusb/src/common/tusb_types.h ****   TUSB_EPSIZE_ISO_FS_MAX = 1023,
  78:/Users/joostbooy/Desktop/Code/stm32/lib/tinyusb/src/common/tusb_types.h ****   TUSB_EPSIZE_ISO_HS_MAX = 1024,
  79:/Users/joostbooy/Desktop/Code/stm32/lib/tinyusb/src/common/tusb_types.h **** };
  80:/Users/joostbooy/Desktop/Code/stm32/lib/tinyusb/src/common/tusb_types.h **** 
  81:/Users/joostbooy/Desktop/Code/stm32/lib/tinyusb/src/common/tusb_types.h **** /// Isochronous End Point Attributes
  82:/Users/joostbooy/Desktop/Code/stm32/lib/tinyusb/src/common/tusb_types.h **** typedef enum
  83:/Users/joostbooy/Desktop/Code/stm32/lib/tinyusb/src/common/tusb_types.h **** {
  84:/Users/joostbooy/Desktop/Code/stm32/lib/tinyusb/src/common/tusb_types.h ****   TUSB_ISO_EP_ATT_NO_SYNC         = 0x00,
  85:/Users/joostbooy/Desktop/Code/stm32/lib/tinyusb/src/common/tusb_types.h ****   TUSB_ISO_EP_ATT_ASYNCHRONOUS    = 0x04,
  86:/Users/joostbooy/Desktop/Code/stm32/lib/tinyusb/src/common/tusb_types.h ****   TUSB_ISO_EP_ATT_ADAPTIVE        = 0x08,
  87:/Users/joostbooy/Desktop/Code/stm32/lib/tinyusb/src/common/tusb_types.h ****   TUSB_ISO_EP_ATT_SYNCHRONOUS     = 0x0C,
  88:/Users/joostbooy/Desktop/Code/stm32/lib/tinyusb/src/common/tusb_types.h ****   TUSB_ISO_EP_ATT_DATA            = 0x00, ///< Data End Point
  89:/Users/joostbooy/Desktop/Code/stm32/lib/tinyusb/src/common/tusb_types.h ****   TUSB_ISO_EP_ATT_EXPLICIT_FB     = 0x10, ///< Feedback End Point
ARM GAS  /var/folders/84/_x1cyy_j36g486tldtwl37280000gn/T//cc1ObSsF.s 			page 24


  90:/Users/joostbooy/Desktop/Code/stm32/lib/tinyusb/src/common/tusb_types.h ****   TUSB_ISO_EP_ATT_IMPLICIT_FB     = 0x20, ///< Data endpoint that also serves as an implicit feedba
  91:/Users/joostbooy/Desktop/Code/stm32/lib/tinyusb/src/common/tusb_types.h **** }tusb_iso_ep_attribute_t;
  92:/Users/joostbooy/Desktop/Code/stm32/lib/tinyusb/src/common/tusb_types.h **** 
  93:/Users/joostbooy/Desktop/Code/stm32/lib/tinyusb/src/common/tusb_types.h **** /// USB Descriptor Types
  94:/Users/joostbooy/Desktop/Code/stm32/lib/tinyusb/src/common/tusb_types.h **** typedef enum
  95:/Users/joostbooy/Desktop/Code/stm32/lib/tinyusb/src/common/tusb_types.h **** {
  96:/Users/joostbooy/Desktop/Code/stm32/lib/tinyusb/src/common/tusb_types.h ****   TUSB_DESC_DEVICE                = 0x01,
  97:/Users/joostbooy/Desktop/Code/stm32/lib/tinyusb/src/common/tusb_types.h ****   TUSB_DESC_CONFIGURATION         = 0x02,
  98:/Users/joostbooy/Desktop/Code/stm32/lib/tinyusb/src/common/tusb_types.h ****   TUSB_DESC_STRING                = 0x03,
  99:/Users/joostbooy/Desktop/Code/stm32/lib/tinyusb/src/common/tusb_types.h ****   TUSB_DESC_INTERFACE             = 0x04,
 100:/Users/joostbooy/Desktop/Code/stm32/lib/tinyusb/src/common/tusb_types.h ****   TUSB_DESC_ENDPOINT              = 0x05,
 101:/Users/joostbooy/Desktop/Code/stm32/lib/tinyusb/src/common/tusb_types.h ****   TUSB_DESC_DEVICE_QUALIFIER      = 0x06,
 102:/Users/joostbooy/Desktop/Code/stm32/lib/tinyusb/src/common/tusb_types.h ****   TUSB_DESC_OTHER_SPEED_CONFIG    = 0x07,
 103:/Users/joostbooy/Desktop/Code/stm32/lib/tinyusb/src/common/tusb_types.h ****   TUSB_DESC_INTERFACE_POWER       = 0x08,
 104:/Users/joostbooy/Desktop/Code/stm32/lib/tinyusb/src/common/tusb_types.h ****   TUSB_DESC_OTG                   = 0x09,
 105:/Users/joostbooy/Desktop/Code/stm32/lib/tinyusb/src/common/tusb_types.h ****   TUSB_DESC_DEBUG                 = 0x0A,
 106:/Users/joostbooy/Desktop/Code/stm32/lib/tinyusb/src/common/tusb_types.h ****   TUSB_DESC_INTERFACE_ASSOCIATION = 0x0B,
 107:/Users/joostbooy/Desktop/Code/stm32/lib/tinyusb/src/common/tusb_types.h **** 
 108:/Users/joostbooy/Desktop/Code/stm32/lib/tinyusb/src/common/tusb_types.h ****   TUSB_DESC_BOS                   = 0x0F,
 109:/Users/joostbooy/Desktop/Code/stm32/lib/tinyusb/src/common/tusb_types.h ****   TUSB_DESC_DEVICE_CAPABILITY     = 0x10,
 110:/Users/joostbooy/Desktop/Code/stm32/lib/tinyusb/src/common/tusb_types.h **** 
 111:/Users/joostbooy/Desktop/Code/stm32/lib/tinyusb/src/common/tusb_types.h ****   TUSB_DESC_FUNCTIONAL            = 0x21,
 112:/Users/joostbooy/Desktop/Code/stm32/lib/tinyusb/src/common/tusb_types.h **** 
 113:/Users/joostbooy/Desktop/Code/stm32/lib/tinyusb/src/common/tusb_types.h ****   // Class Specific Descriptor
 114:/Users/joostbooy/Desktop/Code/stm32/lib/tinyusb/src/common/tusb_types.h ****   TUSB_DESC_CS_DEVICE             = 0x21,
 115:/Users/joostbooy/Desktop/Code/stm32/lib/tinyusb/src/common/tusb_types.h ****   TUSB_DESC_CS_CONFIGURATION      = 0x22,
 116:/Users/joostbooy/Desktop/Code/stm32/lib/tinyusb/src/common/tusb_types.h ****   TUSB_DESC_CS_STRING             = 0x23,
 117:/Users/joostbooy/Desktop/Code/stm32/lib/tinyusb/src/common/tusb_types.h ****   TUSB_DESC_CS_INTERFACE          = 0x24,
 118:/Users/joostbooy/Desktop/Code/stm32/lib/tinyusb/src/common/tusb_types.h ****   TUSB_DESC_CS_ENDPOINT           = 0x25,
 119:/Users/joostbooy/Desktop/Code/stm32/lib/tinyusb/src/common/tusb_types.h **** 
 120:/Users/joostbooy/Desktop/Code/stm32/lib/tinyusb/src/common/tusb_types.h ****   TUSB_DESC_SUPERSPEED_ENDPOINT_COMPANION     = 0x30,
 121:/Users/joostbooy/Desktop/Code/stm32/lib/tinyusb/src/common/tusb_types.h ****   TUSB_DESC_SUPERSPEED_ISO_ENDPOINT_COMPANION = 0x31
 122:/Users/joostbooy/Desktop/Code/stm32/lib/tinyusb/src/common/tusb_types.h **** }tusb_desc_type_t;
 123:/Users/joostbooy/Desktop/Code/stm32/lib/tinyusb/src/common/tusb_types.h **** 
 124:/Users/joostbooy/Desktop/Code/stm32/lib/tinyusb/src/common/tusb_types.h **** typedef enum
 125:/Users/joostbooy/Desktop/Code/stm32/lib/tinyusb/src/common/tusb_types.h **** {
 126:/Users/joostbooy/Desktop/Code/stm32/lib/tinyusb/src/common/tusb_types.h ****   TUSB_REQ_GET_STATUS        = 0  ,
 127:/Users/joostbooy/Desktop/Code/stm32/lib/tinyusb/src/common/tusb_types.h ****   TUSB_REQ_CLEAR_FEATURE     = 1  ,
 128:/Users/joostbooy/Desktop/Code/stm32/lib/tinyusb/src/common/tusb_types.h ****   TUSB_REQ_RESERVED          = 2  ,
 129:/Users/joostbooy/Desktop/Code/stm32/lib/tinyusb/src/common/tusb_types.h ****   TUSB_REQ_SET_FEATURE       = 3  ,
 130:/Users/joostbooy/Desktop/Code/stm32/lib/tinyusb/src/common/tusb_types.h ****   TUSB_REQ_RESERVED2         = 4  ,
 131:/Users/joostbooy/Desktop/Code/stm32/lib/tinyusb/src/common/tusb_types.h ****   TUSB_REQ_SET_ADDRESS       = 5  ,
 132:/Users/joostbooy/Desktop/Code/stm32/lib/tinyusb/src/common/tusb_types.h ****   TUSB_REQ_GET_DESCRIPTOR    = 6  ,
 133:/Users/joostbooy/Desktop/Code/stm32/lib/tinyusb/src/common/tusb_types.h ****   TUSB_REQ_SET_DESCRIPTOR    = 7  ,
 134:/Users/joostbooy/Desktop/Code/stm32/lib/tinyusb/src/common/tusb_types.h ****   TUSB_REQ_GET_CONFIGURATION = 8  ,
 135:/Users/joostbooy/Desktop/Code/stm32/lib/tinyusb/src/common/tusb_types.h ****   TUSB_REQ_SET_CONFIGURATION = 9  ,
 136:/Users/joostbooy/Desktop/Code/stm32/lib/tinyusb/src/common/tusb_types.h ****   TUSB_REQ_GET_INTERFACE     = 10 ,
 137:/Users/joostbooy/Desktop/Code/stm32/lib/tinyusb/src/common/tusb_types.h ****   TUSB_REQ_SET_INTERFACE     = 11 ,
 138:/Users/joostbooy/Desktop/Code/stm32/lib/tinyusb/src/common/tusb_types.h ****   TUSB_REQ_SYNCH_FRAME       = 12
 139:/Users/joostbooy/Desktop/Code/stm32/lib/tinyusb/src/common/tusb_types.h **** }tusb_request_code_t;
 140:/Users/joostbooy/Desktop/Code/stm32/lib/tinyusb/src/common/tusb_types.h **** 
 141:/Users/joostbooy/Desktop/Code/stm32/lib/tinyusb/src/common/tusb_types.h **** typedef enum
 142:/Users/joostbooy/Desktop/Code/stm32/lib/tinyusb/src/common/tusb_types.h **** {
 143:/Users/joostbooy/Desktop/Code/stm32/lib/tinyusb/src/common/tusb_types.h ****   TUSB_REQ_FEATURE_EDPT_HALT     = 0,
 144:/Users/joostbooy/Desktop/Code/stm32/lib/tinyusb/src/common/tusb_types.h ****   TUSB_REQ_FEATURE_REMOTE_WAKEUP = 1,
 145:/Users/joostbooy/Desktop/Code/stm32/lib/tinyusb/src/common/tusb_types.h ****   TUSB_REQ_FEATURE_TEST_MODE     = 2
 146:/Users/joostbooy/Desktop/Code/stm32/lib/tinyusb/src/common/tusb_types.h **** }tusb_request_feature_selector_t;
ARM GAS  /var/folders/84/_x1cyy_j36g486tldtwl37280000gn/T//cc1ObSsF.s 			page 25


 147:/Users/joostbooy/Desktop/Code/stm32/lib/tinyusb/src/common/tusb_types.h **** 
 148:/Users/joostbooy/Desktop/Code/stm32/lib/tinyusb/src/common/tusb_types.h **** typedef enum
 149:/Users/joostbooy/Desktop/Code/stm32/lib/tinyusb/src/common/tusb_types.h **** {
 150:/Users/joostbooy/Desktop/Code/stm32/lib/tinyusb/src/common/tusb_types.h ****   TUSB_REQ_TYPE_STANDARD = 0,
 151:/Users/joostbooy/Desktop/Code/stm32/lib/tinyusb/src/common/tusb_types.h ****   TUSB_REQ_TYPE_CLASS,
 152:/Users/joostbooy/Desktop/Code/stm32/lib/tinyusb/src/common/tusb_types.h ****   TUSB_REQ_TYPE_VENDOR,
 153:/Users/joostbooy/Desktop/Code/stm32/lib/tinyusb/src/common/tusb_types.h ****   TUSB_REQ_TYPE_INVALID
 154:/Users/joostbooy/Desktop/Code/stm32/lib/tinyusb/src/common/tusb_types.h **** } tusb_request_type_t;
 155:/Users/joostbooy/Desktop/Code/stm32/lib/tinyusb/src/common/tusb_types.h **** 
 156:/Users/joostbooy/Desktop/Code/stm32/lib/tinyusb/src/common/tusb_types.h **** typedef enum
 157:/Users/joostbooy/Desktop/Code/stm32/lib/tinyusb/src/common/tusb_types.h **** {
 158:/Users/joostbooy/Desktop/Code/stm32/lib/tinyusb/src/common/tusb_types.h ****   TUSB_REQ_RCPT_DEVICE =0,
 159:/Users/joostbooy/Desktop/Code/stm32/lib/tinyusb/src/common/tusb_types.h ****   TUSB_REQ_RCPT_INTERFACE,
 160:/Users/joostbooy/Desktop/Code/stm32/lib/tinyusb/src/common/tusb_types.h ****   TUSB_REQ_RCPT_ENDPOINT,
 161:/Users/joostbooy/Desktop/Code/stm32/lib/tinyusb/src/common/tusb_types.h ****   TUSB_REQ_RCPT_OTHER
 162:/Users/joostbooy/Desktop/Code/stm32/lib/tinyusb/src/common/tusb_types.h **** } tusb_request_recipient_t;
 163:/Users/joostbooy/Desktop/Code/stm32/lib/tinyusb/src/common/tusb_types.h **** 
 164:/Users/joostbooy/Desktop/Code/stm32/lib/tinyusb/src/common/tusb_types.h **** // https://www.usb.org/defined-class-codes
 165:/Users/joostbooy/Desktop/Code/stm32/lib/tinyusb/src/common/tusb_types.h **** typedef enum
 166:/Users/joostbooy/Desktop/Code/stm32/lib/tinyusb/src/common/tusb_types.h **** {
 167:/Users/joostbooy/Desktop/Code/stm32/lib/tinyusb/src/common/tusb_types.h ****   TUSB_CLASS_UNSPECIFIED          = 0    ,
 168:/Users/joostbooy/Desktop/Code/stm32/lib/tinyusb/src/common/tusb_types.h ****   TUSB_CLASS_AUDIO                = 1    ,
 169:/Users/joostbooy/Desktop/Code/stm32/lib/tinyusb/src/common/tusb_types.h ****   TUSB_CLASS_CDC                  = 2    ,
 170:/Users/joostbooy/Desktop/Code/stm32/lib/tinyusb/src/common/tusb_types.h ****   TUSB_CLASS_HID                  = 3    ,
 171:/Users/joostbooy/Desktop/Code/stm32/lib/tinyusb/src/common/tusb_types.h ****   TUSB_CLASS_RESERVED_4           = 4    ,
 172:/Users/joostbooy/Desktop/Code/stm32/lib/tinyusb/src/common/tusb_types.h ****   TUSB_CLASS_PHYSICAL             = 5    ,
 173:/Users/joostbooy/Desktop/Code/stm32/lib/tinyusb/src/common/tusb_types.h ****   TUSB_CLASS_IMAGE                = 6    ,
 174:/Users/joostbooy/Desktop/Code/stm32/lib/tinyusb/src/common/tusb_types.h ****   TUSB_CLASS_PRINTER              = 7    ,
 175:/Users/joostbooy/Desktop/Code/stm32/lib/tinyusb/src/common/tusb_types.h ****   TUSB_CLASS_MSC                  = 8    ,
 176:/Users/joostbooy/Desktop/Code/stm32/lib/tinyusb/src/common/tusb_types.h ****   TUSB_CLASS_HUB                  = 9    ,
 177:/Users/joostbooy/Desktop/Code/stm32/lib/tinyusb/src/common/tusb_types.h ****   TUSB_CLASS_CDC_DATA             = 10   ,
 178:/Users/joostbooy/Desktop/Code/stm32/lib/tinyusb/src/common/tusb_types.h ****   TUSB_CLASS_SMART_CARD           = 11   ,
 179:/Users/joostbooy/Desktop/Code/stm32/lib/tinyusb/src/common/tusb_types.h ****   TUSB_CLASS_RESERVED_12          = 12   ,
 180:/Users/joostbooy/Desktop/Code/stm32/lib/tinyusb/src/common/tusb_types.h ****   TUSB_CLASS_CONTENT_SECURITY     = 13   ,
 181:/Users/joostbooy/Desktop/Code/stm32/lib/tinyusb/src/common/tusb_types.h ****   TUSB_CLASS_VIDEO                = 14   ,
 182:/Users/joostbooy/Desktop/Code/stm32/lib/tinyusb/src/common/tusb_types.h ****   TUSB_CLASS_PERSONAL_HEALTHCARE  = 15   ,
 183:/Users/joostbooy/Desktop/Code/stm32/lib/tinyusb/src/common/tusb_types.h ****   TUSB_CLASS_AUDIO_VIDEO          = 16   ,
 184:/Users/joostbooy/Desktop/Code/stm32/lib/tinyusb/src/common/tusb_types.h **** 
 185:/Users/joostbooy/Desktop/Code/stm32/lib/tinyusb/src/common/tusb_types.h ****   TUSB_CLASS_DIAGNOSTIC           = 0xDC ,
 186:/Users/joostbooy/Desktop/Code/stm32/lib/tinyusb/src/common/tusb_types.h ****   TUSB_CLASS_WIRELESS_CONTROLLER  = 0xE0 ,
 187:/Users/joostbooy/Desktop/Code/stm32/lib/tinyusb/src/common/tusb_types.h ****   TUSB_CLASS_MISC                 = 0xEF ,
 188:/Users/joostbooy/Desktop/Code/stm32/lib/tinyusb/src/common/tusb_types.h ****   TUSB_CLASS_APPLICATION_SPECIFIC = 0xFE ,
 189:/Users/joostbooy/Desktop/Code/stm32/lib/tinyusb/src/common/tusb_types.h ****   TUSB_CLASS_VENDOR_SPECIFIC      = 0xFF
 190:/Users/joostbooy/Desktop/Code/stm32/lib/tinyusb/src/common/tusb_types.h **** }tusb_class_code_t;
 191:/Users/joostbooy/Desktop/Code/stm32/lib/tinyusb/src/common/tusb_types.h **** 
 192:/Users/joostbooy/Desktop/Code/stm32/lib/tinyusb/src/common/tusb_types.h **** typedef enum
 193:/Users/joostbooy/Desktop/Code/stm32/lib/tinyusb/src/common/tusb_types.h **** {
 194:/Users/joostbooy/Desktop/Code/stm32/lib/tinyusb/src/common/tusb_types.h ****   MISC_SUBCLASS_COMMON = 2
 195:/Users/joostbooy/Desktop/Code/stm32/lib/tinyusb/src/common/tusb_types.h **** }misc_subclass_type_t;
 196:/Users/joostbooy/Desktop/Code/stm32/lib/tinyusb/src/common/tusb_types.h **** 
 197:/Users/joostbooy/Desktop/Code/stm32/lib/tinyusb/src/common/tusb_types.h **** typedef enum
 198:/Users/joostbooy/Desktop/Code/stm32/lib/tinyusb/src/common/tusb_types.h **** {
 199:/Users/joostbooy/Desktop/Code/stm32/lib/tinyusb/src/common/tusb_types.h ****   MISC_PROTOCOL_IAD = 1
 200:/Users/joostbooy/Desktop/Code/stm32/lib/tinyusb/src/common/tusb_types.h **** }misc_protocol_type_t;
 201:/Users/joostbooy/Desktop/Code/stm32/lib/tinyusb/src/common/tusb_types.h **** 
 202:/Users/joostbooy/Desktop/Code/stm32/lib/tinyusb/src/common/tusb_types.h **** typedef enum
 203:/Users/joostbooy/Desktop/Code/stm32/lib/tinyusb/src/common/tusb_types.h **** {
ARM GAS  /var/folders/84/_x1cyy_j36g486tldtwl37280000gn/T//cc1ObSsF.s 			page 26


 204:/Users/joostbooy/Desktop/Code/stm32/lib/tinyusb/src/common/tusb_types.h ****   APP_SUBCLASS_USBTMC = 0x03,
 205:/Users/joostbooy/Desktop/Code/stm32/lib/tinyusb/src/common/tusb_types.h ****   APP_SUBCLASS_DFU_RUNTIME = 0x01
 206:/Users/joostbooy/Desktop/Code/stm32/lib/tinyusb/src/common/tusb_types.h **** } app_subclass_type_t;
 207:/Users/joostbooy/Desktop/Code/stm32/lib/tinyusb/src/common/tusb_types.h **** 
 208:/Users/joostbooy/Desktop/Code/stm32/lib/tinyusb/src/common/tusb_types.h **** typedef enum
 209:/Users/joostbooy/Desktop/Code/stm32/lib/tinyusb/src/common/tusb_types.h **** {
 210:/Users/joostbooy/Desktop/Code/stm32/lib/tinyusb/src/common/tusb_types.h ****   DEVICE_CAPABILITY_WIRELESS_USB               = 0x01,
 211:/Users/joostbooy/Desktop/Code/stm32/lib/tinyusb/src/common/tusb_types.h ****   DEVICE_CAPABILITY_USB20_EXTENSION            = 0x02,
 212:/Users/joostbooy/Desktop/Code/stm32/lib/tinyusb/src/common/tusb_types.h ****   DEVICE_CAPABILITY_SUPERSPEED_USB             = 0x03,
 213:/Users/joostbooy/Desktop/Code/stm32/lib/tinyusb/src/common/tusb_types.h ****   DEVICE_CAPABILITY_CONTAINER_id               = 0x04,
 214:/Users/joostbooy/Desktop/Code/stm32/lib/tinyusb/src/common/tusb_types.h ****   DEVICE_CAPABILITY_PLATFORM                   = 0x05,
 215:/Users/joostbooy/Desktop/Code/stm32/lib/tinyusb/src/common/tusb_types.h ****   DEVICE_CAPABILITY_POWER_DELIVERY             = 0x06,
 216:/Users/joostbooy/Desktop/Code/stm32/lib/tinyusb/src/common/tusb_types.h ****   DEVICE_CAPABILITY_BATTERY_INFO               = 0x07,
 217:/Users/joostbooy/Desktop/Code/stm32/lib/tinyusb/src/common/tusb_types.h ****   DEVICE_CAPABILITY_PD_CONSUMER_PORT           = 0x08,
 218:/Users/joostbooy/Desktop/Code/stm32/lib/tinyusb/src/common/tusb_types.h ****   DEVICE_CAPABILITY_PD_PROVIDER_PORT           = 0x09,
 219:/Users/joostbooy/Desktop/Code/stm32/lib/tinyusb/src/common/tusb_types.h ****   DEVICE_CAPABILITY_SUPERSPEED_PLUS            = 0x0A,
 220:/Users/joostbooy/Desktop/Code/stm32/lib/tinyusb/src/common/tusb_types.h ****   DEVICE_CAPABILITY_PRECESION_TIME_MEASUREMENT = 0x0B,
 221:/Users/joostbooy/Desktop/Code/stm32/lib/tinyusb/src/common/tusb_types.h ****   DEVICE_CAPABILITY_WIRELESS_USB_EXT           = 0x0C,
 222:/Users/joostbooy/Desktop/Code/stm32/lib/tinyusb/src/common/tusb_types.h ****   DEVICE_CAPABILITY_BILLBOARD                  = 0x0D,
 223:/Users/joostbooy/Desktop/Code/stm32/lib/tinyusb/src/common/tusb_types.h ****   DEVICE_CAPABILITY_AUTHENTICATION             = 0x0E,
 224:/Users/joostbooy/Desktop/Code/stm32/lib/tinyusb/src/common/tusb_types.h ****   DEVICE_CAPABILITY_BILLBOARD_EX               = 0x0F,
 225:/Users/joostbooy/Desktop/Code/stm32/lib/tinyusb/src/common/tusb_types.h ****   DEVICE_CAPABILITY_CONFIGURATION_SUMMARY      = 0x10
 226:/Users/joostbooy/Desktop/Code/stm32/lib/tinyusb/src/common/tusb_types.h **** }device_capability_type_t;
 227:/Users/joostbooy/Desktop/Code/stm32/lib/tinyusb/src/common/tusb_types.h **** 
 228:/Users/joostbooy/Desktop/Code/stm32/lib/tinyusb/src/common/tusb_types.h **** enum {
 229:/Users/joostbooy/Desktop/Code/stm32/lib/tinyusb/src/common/tusb_types.h ****   TUSB_DESC_CONFIG_ATT_REMOTE_WAKEUP = TU_BIT(5),
 230:/Users/joostbooy/Desktop/Code/stm32/lib/tinyusb/src/common/tusb_types.h ****   TUSB_DESC_CONFIG_ATT_SELF_POWERED  = TU_BIT(6),
 231:/Users/joostbooy/Desktop/Code/stm32/lib/tinyusb/src/common/tusb_types.h **** };
 232:/Users/joostbooy/Desktop/Code/stm32/lib/tinyusb/src/common/tusb_types.h **** 
 233:/Users/joostbooy/Desktop/Code/stm32/lib/tinyusb/src/common/tusb_types.h **** #define TUSB_DESC_CONFIG_POWER_MA(x)  ((x)/2)
 234:/Users/joostbooy/Desktop/Code/stm32/lib/tinyusb/src/common/tusb_types.h **** 
 235:/Users/joostbooy/Desktop/Code/stm32/lib/tinyusb/src/common/tusb_types.h **** //--------------------------------------------------------------------+
 236:/Users/joostbooy/Desktop/Code/stm32/lib/tinyusb/src/common/tusb_types.h **** //
 237:/Users/joostbooy/Desktop/Code/stm32/lib/tinyusb/src/common/tusb_types.h **** //--------------------------------------------------------------------+
 238:/Users/joostbooy/Desktop/Code/stm32/lib/tinyusb/src/common/tusb_types.h **** typedef enum
 239:/Users/joostbooy/Desktop/Code/stm32/lib/tinyusb/src/common/tusb_types.h **** {
 240:/Users/joostbooy/Desktop/Code/stm32/lib/tinyusb/src/common/tusb_types.h ****   XFER_RESULT_SUCCESS = 0,
 241:/Users/joostbooy/Desktop/Code/stm32/lib/tinyusb/src/common/tusb_types.h ****   XFER_RESULT_FAILED,
 242:/Users/joostbooy/Desktop/Code/stm32/lib/tinyusb/src/common/tusb_types.h ****   XFER_RESULT_STALLED,
 243:/Users/joostbooy/Desktop/Code/stm32/lib/tinyusb/src/common/tusb_types.h ****   XFER_RESULT_TIMEOUT,
 244:/Users/joostbooy/Desktop/Code/stm32/lib/tinyusb/src/common/tusb_types.h ****   XFER_RESULT_INVALID
 245:/Users/joostbooy/Desktop/Code/stm32/lib/tinyusb/src/common/tusb_types.h **** }xfer_result_t;
 246:/Users/joostbooy/Desktop/Code/stm32/lib/tinyusb/src/common/tusb_types.h **** 
 247:/Users/joostbooy/Desktop/Code/stm32/lib/tinyusb/src/common/tusb_types.h **** enum // TODO remove
 248:/Users/joostbooy/Desktop/Code/stm32/lib/tinyusb/src/common/tusb_types.h **** {
 249:/Users/joostbooy/Desktop/Code/stm32/lib/tinyusb/src/common/tusb_types.h ****   DESC_OFFSET_LEN  = 0,
 250:/Users/joostbooy/Desktop/Code/stm32/lib/tinyusb/src/common/tusb_types.h ****   DESC_OFFSET_TYPE = 1
 251:/Users/joostbooy/Desktop/Code/stm32/lib/tinyusb/src/common/tusb_types.h **** };
 252:/Users/joostbooy/Desktop/Code/stm32/lib/tinyusb/src/common/tusb_types.h **** 
 253:/Users/joostbooy/Desktop/Code/stm32/lib/tinyusb/src/common/tusb_types.h **** enum
 254:/Users/joostbooy/Desktop/Code/stm32/lib/tinyusb/src/common/tusb_types.h **** {
 255:/Users/joostbooy/Desktop/Code/stm32/lib/tinyusb/src/common/tusb_types.h ****   INTERFACE_INVALID_NUMBER = 0xff
 256:/Users/joostbooy/Desktop/Code/stm32/lib/tinyusb/src/common/tusb_types.h **** };
 257:/Users/joostbooy/Desktop/Code/stm32/lib/tinyusb/src/common/tusb_types.h **** 
 258:/Users/joostbooy/Desktop/Code/stm32/lib/tinyusb/src/common/tusb_types.h **** typedef enum
 259:/Users/joostbooy/Desktop/Code/stm32/lib/tinyusb/src/common/tusb_types.h **** {
 260:/Users/joostbooy/Desktop/Code/stm32/lib/tinyusb/src/common/tusb_types.h ****   MS_OS_20_SET_HEADER_DESCRIPTOR       = 0x00,
ARM GAS  /var/folders/84/_x1cyy_j36g486tldtwl37280000gn/T//cc1ObSsF.s 			page 27


 261:/Users/joostbooy/Desktop/Code/stm32/lib/tinyusb/src/common/tusb_types.h ****   MS_OS_20_SUBSET_HEADER_CONFIGURATION = 0x01,
 262:/Users/joostbooy/Desktop/Code/stm32/lib/tinyusb/src/common/tusb_types.h ****   MS_OS_20_SUBSET_HEADER_FUNCTION      = 0x02,
 263:/Users/joostbooy/Desktop/Code/stm32/lib/tinyusb/src/common/tusb_types.h ****   MS_OS_20_FEATURE_COMPATBLE_ID        = 0x03,
 264:/Users/joostbooy/Desktop/Code/stm32/lib/tinyusb/src/common/tusb_types.h ****   MS_OS_20_FEATURE_REG_PROPERTY        = 0x04,
 265:/Users/joostbooy/Desktop/Code/stm32/lib/tinyusb/src/common/tusb_types.h ****   MS_OS_20_FEATURE_MIN_RESUME_TIME     = 0x05,
 266:/Users/joostbooy/Desktop/Code/stm32/lib/tinyusb/src/common/tusb_types.h ****   MS_OS_20_FEATURE_MODEL_ID            = 0x06,
 267:/Users/joostbooy/Desktop/Code/stm32/lib/tinyusb/src/common/tusb_types.h ****   MS_OS_20_FEATURE_CCGP_DEVICE         = 0x07,
 268:/Users/joostbooy/Desktop/Code/stm32/lib/tinyusb/src/common/tusb_types.h ****   MS_OS_20_FEATURE_VENDOR_REVISION     = 0x08
 269:/Users/joostbooy/Desktop/Code/stm32/lib/tinyusb/src/common/tusb_types.h **** } microsoft_os_20_type_t;
 270:/Users/joostbooy/Desktop/Code/stm32/lib/tinyusb/src/common/tusb_types.h **** 
 271:/Users/joostbooy/Desktop/Code/stm32/lib/tinyusb/src/common/tusb_types.h **** enum
 272:/Users/joostbooy/Desktop/Code/stm32/lib/tinyusb/src/common/tusb_types.h **** {
 273:/Users/joostbooy/Desktop/Code/stm32/lib/tinyusb/src/common/tusb_types.h ****   CONTROL_STAGE_IDLE,
 274:/Users/joostbooy/Desktop/Code/stm32/lib/tinyusb/src/common/tusb_types.h ****   CONTROL_STAGE_SETUP,
 275:/Users/joostbooy/Desktop/Code/stm32/lib/tinyusb/src/common/tusb_types.h ****   CONTROL_STAGE_DATA,
 276:/Users/joostbooy/Desktop/Code/stm32/lib/tinyusb/src/common/tusb_types.h ****   CONTROL_STAGE_ACK
 277:/Users/joostbooy/Desktop/Code/stm32/lib/tinyusb/src/common/tusb_types.h **** };
 278:/Users/joostbooy/Desktop/Code/stm32/lib/tinyusb/src/common/tusb_types.h **** 
 279:/Users/joostbooy/Desktop/Code/stm32/lib/tinyusb/src/common/tusb_types.h **** enum
 280:/Users/joostbooy/Desktop/Code/stm32/lib/tinyusb/src/common/tusb_types.h **** {
 281:/Users/joostbooy/Desktop/Code/stm32/lib/tinyusb/src/common/tusb_types.h ****   TUSB_INDEX_INVALID_8 = 0xFFu
 282:/Users/joostbooy/Desktop/Code/stm32/lib/tinyusb/src/common/tusb_types.h **** };
 283:/Users/joostbooy/Desktop/Code/stm32/lib/tinyusb/src/common/tusb_types.h **** 
 284:/Users/joostbooy/Desktop/Code/stm32/lib/tinyusb/src/common/tusb_types.h **** //--------------------------------------------------------------------+
 285:/Users/joostbooy/Desktop/Code/stm32/lib/tinyusb/src/common/tusb_types.h **** // USB Descriptors
 286:/Users/joostbooy/Desktop/Code/stm32/lib/tinyusb/src/common/tusb_types.h **** //--------------------------------------------------------------------+
 287:/Users/joostbooy/Desktop/Code/stm32/lib/tinyusb/src/common/tusb_types.h **** 
 288:/Users/joostbooy/Desktop/Code/stm32/lib/tinyusb/src/common/tusb_types.h **** // Start of all packed definitions for compiler without per-type packed
 289:/Users/joostbooy/Desktop/Code/stm32/lib/tinyusb/src/common/tusb_types.h **** TU_ATTR_PACKED_BEGIN
 290:/Users/joostbooy/Desktop/Code/stm32/lib/tinyusb/src/common/tusb_types.h **** TU_ATTR_BIT_FIELD_ORDER_BEGIN
 291:/Users/joostbooy/Desktop/Code/stm32/lib/tinyusb/src/common/tusb_types.h **** 
 292:/Users/joostbooy/Desktop/Code/stm32/lib/tinyusb/src/common/tusb_types.h **** /// USB Device Descriptor
 293:/Users/joostbooy/Desktop/Code/stm32/lib/tinyusb/src/common/tusb_types.h **** typedef struct TU_ATTR_PACKED
 294:/Users/joostbooy/Desktop/Code/stm32/lib/tinyusb/src/common/tusb_types.h **** {
 295:/Users/joostbooy/Desktop/Code/stm32/lib/tinyusb/src/common/tusb_types.h ****   uint8_t  bLength            ; ///< Size of this descriptor in bytes.
 296:/Users/joostbooy/Desktop/Code/stm32/lib/tinyusb/src/common/tusb_types.h ****   uint8_t  bDescriptorType    ; ///< DEVICE Descriptor Type.
 297:/Users/joostbooy/Desktop/Code/stm32/lib/tinyusb/src/common/tusb_types.h ****   uint16_t bcdUSB             ; ///< BUSB Specification Release Number in Binary-Coded Decimal (i.e
 298:/Users/joostbooy/Desktop/Code/stm32/lib/tinyusb/src/common/tusb_types.h **** 
 299:/Users/joostbooy/Desktop/Code/stm32/lib/tinyusb/src/common/tusb_types.h ****   uint8_t  bDeviceClass       ; ///< Class code (assigned by the USB-IF). \li If this field is rese
 300:/Users/joostbooy/Desktop/Code/stm32/lib/tinyusb/src/common/tusb_types.h ****   uint8_t  bDeviceSubClass    ; ///< Subclass code (assigned by the USB-IF). These codes are qualif
 301:/Users/joostbooy/Desktop/Code/stm32/lib/tinyusb/src/common/tusb_types.h ****   uint8_t  bDeviceProtocol    ; ///< Protocol code (assigned by the USB-IF). These codes are qualif
 302:/Users/joostbooy/Desktop/Code/stm32/lib/tinyusb/src/common/tusb_types.h ****   uint8_t  bMaxPacketSize0    ; ///< Maximum packet size for endpoint zero (only 8, 16, 32, or 64 a
 303:/Users/joostbooy/Desktop/Code/stm32/lib/tinyusb/src/common/tusb_types.h **** 
 304:/Users/joostbooy/Desktop/Code/stm32/lib/tinyusb/src/common/tusb_types.h ****   uint16_t idVendor           ; ///< Vendor ID (assigned by the USB-IF).
 305:/Users/joostbooy/Desktop/Code/stm32/lib/tinyusb/src/common/tusb_types.h ****   uint16_t idProduct          ; ///< Product ID (assigned by the manufacturer).
 306:/Users/joostbooy/Desktop/Code/stm32/lib/tinyusb/src/common/tusb_types.h ****   uint16_t bcdDevice          ; ///< Device release number in binary-coded decimal.
 307:/Users/joostbooy/Desktop/Code/stm32/lib/tinyusb/src/common/tusb_types.h ****   uint8_t  iManufacturer      ; ///< Index of string descriptor describing manufacturer.
 308:/Users/joostbooy/Desktop/Code/stm32/lib/tinyusb/src/common/tusb_types.h ****   uint8_t  iProduct           ; ///< Index of string descriptor describing product.
 309:/Users/joostbooy/Desktop/Code/stm32/lib/tinyusb/src/common/tusb_types.h ****   uint8_t  iSerialNumber      ; ///< Index of string descriptor describing the device's serial numb
 310:/Users/joostbooy/Desktop/Code/stm32/lib/tinyusb/src/common/tusb_types.h **** 
 311:/Users/joostbooy/Desktop/Code/stm32/lib/tinyusb/src/common/tusb_types.h ****   uint8_t  bNumConfigurations ; ///< Number of possible configurations.
 312:/Users/joostbooy/Desktop/Code/stm32/lib/tinyusb/src/common/tusb_types.h **** } tusb_desc_device_t;
 313:/Users/joostbooy/Desktop/Code/stm32/lib/tinyusb/src/common/tusb_types.h **** 
 314:/Users/joostbooy/Desktop/Code/stm32/lib/tinyusb/src/common/tusb_types.h **** TU_VERIFY_STATIC( sizeof(tusb_desc_device_t) == 18, "size is not correct");
 315:/Users/joostbooy/Desktop/Code/stm32/lib/tinyusb/src/common/tusb_types.h **** 
 316:/Users/joostbooy/Desktop/Code/stm32/lib/tinyusb/src/common/tusb_types.h **** // USB Binary Device Object Store (BOS) Descriptor
 317:/Users/joostbooy/Desktop/Code/stm32/lib/tinyusb/src/common/tusb_types.h **** typedef struct TU_ATTR_PACKED
ARM GAS  /var/folders/84/_x1cyy_j36g486tldtwl37280000gn/T//cc1ObSsF.s 			page 28


 318:/Users/joostbooy/Desktop/Code/stm32/lib/tinyusb/src/common/tusb_types.h **** {
 319:/Users/joostbooy/Desktop/Code/stm32/lib/tinyusb/src/common/tusb_types.h ****   uint8_t  bLength         ; ///< Size of this descriptor in bytes
 320:/Users/joostbooy/Desktop/Code/stm32/lib/tinyusb/src/common/tusb_types.h ****   uint8_t  bDescriptorType ; ///< CONFIGURATION Descriptor Type
 321:/Users/joostbooy/Desktop/Code/stm32/lib/tinyusb/src/common/tusb_types.h ****   uint16_t wTotalLength    ; ///< Total length of data returned for this descriptor
 322:/Users/joostbooy/Desktop/Code/stm32/lib/tinyusb/src/common/tusb_types.h ****   uint8_t  bNumDeviceCaps  ; ///< Number of device capability descriptors in the BOS
 323:/Users/joostbooy/Desktop/Code/stm32/lib/tinyusb/src/common/tusb_types.h **** } tusb_desc_bos_t;
 324:/Users/joostbooy/Desktop/Code/stm32/lib/tinyusb/src/common/tusb_types.h **** 
 325:/Users/joostbooy/Desktop/Code/stm32/lib/tinyusb/src/common/tusb_types.h **** TU_VERIFY_STATIC( sizeof(tusb_desc_bos_t) == 5, "size is not correct");
 326:/Users/joostbooy/Desktop/Code/stm32/lib/tinyusb/src/common/tusb_types.h **** 
 327:/Users/joostbooy/Desktop/Code/stm32/lib/tinyusb/src/common/tusb_types.h **** /// USB Configuration Descriptor
 328:/Users/joostbooy/Desktop/Code/stm32/lib/tinyusb/src/common/tusb_types.h **** typedef struct TU_ATTR_PACKED
 329:/Users/joostbooy/Desktop/Code/stm32/lib/tinyusb/src/common/tusb_types.h **** {
 330:/Users/joostbooy/Desktop/Code/stm32/lib/tinyusb/src/common/tusb_types.h ****   uint8_t  bLength             ; ///< Size of this descriptor in bytes
 331:/Users/joostbooy/Desktop/Code/stm32/lib/tinyusb/src/common/tusb_types.h ****   uint8_t  bDescriptorType     ; ///< CONFIGURATION Descriptor Type
 332:/Users/joostbooy/Desktop/Code/stm32/lib/tinyusb/src/common/tusb_types.h ****   uint16_t wTotalLength        ; ///< Total length of data returned for this configuration. Include
 333:/Users/joostbooy/Desktop/Code/stm32/lib/tinyusb/src/common/tusb_types.h **** 
 334:/Users/joostbooy/Desktop/Code/stm32/lib/tinyusb/src/common/tusb_types.h ****   uint8_t  bNumInterfaces      ; ///< Number of interfaces supported by this configuration
 335:/Users/joostbooy/Desktop/Code/stm32/lib/tinyusb/src/common/tusb_types.h ****   uint8_t  bConfigurationValue ; ///< Value to use as an argument to the SetConfiguration() request
 336:/Users/joostbooy/Desktop/Code/stm32/lib/tinyusb/src/common/tusb_types.h ****   uint8_t  iConfiguration      ; ///< Index of string descriptor describing this configuration
 337:/Users/joostbooy/Desktop/Code/stm32/lib/tinyusb/src/common/tusb_types.h ****   uint8_t  bmAttributes        ; ///< Configuration characteristics \n D7: Reserved (set to one)\n 
 338:/Users/joostbooy/Desktop/Code/stm32/lib/tinyusb/src/common/tusb_types.h ****   uint8_t  bMaxPower           ; ///< Maximum power consumption of the USB device from the bus in t
 339:/Users/joostbooy/Desktop/Code/stm32/lib/tinyusb/src/common/tusb_types.h **** } tusb_desc_configuration_t;
 340:/Users/joostbooy/Desktop/Code/stm32/lib/tinyusb/src/common/tusb_types.h **** 
 341:/Users/joostbooy/Desktop/Code/stm32/lib/tinyusb/src/common/tusb_types.h **** TU_VERIFY_STATIC( sizeof(tusb_desc_configuration_t) == 9, "size is not correct");
 342:/Users/joostbooy/Desktop/Code/stm32/lib/tinyusb/src/common/tusb_types.h **** 
 343:/Users/joostbooy/Desktop/Code/stm32/lib/tinyusb/src/common/tusb_types.h **** /// USB Interface Descriptor
 344:/Users/joostbooy/Desktop/Code/stm32/lib/tinyusb/src/common/tusb_types.h **** typedef struct TU_ATTR_PACKED
 345:/Users/joostbooy/Desktop/Code/stm32/lib/tinyusb/src/common/tusb_types.h **** {
 346:/Users/joostbooy/Desktop/Code/stm32/lib/tinyusb/src/common/tusb_types.h ****   uint8_t  bLength            ; ///< Size of this descriptor in bytes
 347:/Users/joostbooy/Desktop/Code/stm32/lib/tinyusb/src/common/tusb_types.h ****   uint8_t  bDescriptorType    ; ///< INTERFACE Descriptor Type
 348:/Users/joostbooy/Desktop/Code/stm32/lib/tinyusb/src/common/tusb_types.h **** 
 349:/Users/joostbooy/Desktop/Code/stm32/lib/tinyusb/src/common/tusb_types.h ****   uint8_t  bInterfaceNumber   ; ///< Number of this interface. Zero-based value identifying the ind
 350:/Users/joostbooy/Desktop/Code/stm32/lib/tinyusb/src/common/tusb_types.h ****   uint8_t  bAlternateSetting  ; ///< Value used to select this alternate setting for the interface 
 351:/Users/joostbooy/Desktop/Code/stm32/lib/tinyusb/src/common/tusb_types.h ****   uint8_t  bNumEndpoints      ; ///< Number of endpoints used by this interface (excluding endpoint
 352:/Users/joostbooy/Desktop/Code/stm32/lib/tinyusb/src/common/tusb_types.h ****   uint8_t  bInterfaceClass    ; ///< Class code (assigned by the USB-IF). \li A value of zero is re
 353:/Users/joostbooy/Desktop/Code/stm32/lib/tinyusb/src/common/tusb_types.h ****   uint8_t  bInterfaceSubClass ; ///< Subclass code (assigned by the USB-IF). \n These codes are qua
 354:/Users/joostbooy/Desktop/Code/stm32/lib/tinyusb/src/common/tusb_types.h ****   uint8_t  bInterfaceProtocol ; ///< Protocol code (assigned by the USB). \n These codes are qualif
 355:/Users/joostbooy/Desktop/Code/stm32/lib/tinyusb/src/common/tusb_types.h ****   uint8_t  iInterface         ; ///< Index of string descriptor describing this interface
 356:/Users/joostbooy/Desktop/Code/stm32/lib/tinyusb/src/common/tusb_types.h **** } tusb_desc_interface_t;
 357:/Users/joostbooy/Desktop/Code/stm32/lib/tinyusb/src/common/tusb_types.h **** 
 358:/Users/joostbooy/Desktop/Code/stm32/lib/tinyusb/src/common/tusb_types.h **** TU_VERIFY_STATIC( sizeof(tusb_desc_interface_t) == 9, "size is not correct");
 359:/Users/joostbooy/Desktop/Code/stm32/lib/tinyusb/src/common/tusb_types.h **** 
 360:/Users/joostbooy/Desktop/Code/stm32/lib/tinyusb/src/common/tusb_types.h **** /// USB Endpoint Descriptor
 361:/Users/joostbooy/Desktop/Code/stm32/lib/tinyusb/src/common/tusb_types.h **** typedef struct TU_ATTR_PACKED
 362:/Users/joostbooy/Desktop/Code/stm32/lib/tinyusb/src/common/tusb_types.h **** {
 363:/Users/joostbooy/Desktop/Code/stm32/lib/tinyusb/src/common/tusb_types.h ****   uint8_t  bLength          ; // Size of this descriptor in bytes
 364:/Users/joostbooy/Desktop/Code/stm32/lib/tinyusb/src/common/tusb_types.h ****   uint8_t  bDescriptorType  ; // ENDPOINT Descriptor Type
 365:/Users/joostbooy/Desktop/Code/stm32/lib/tinyusb/src/common/tusb_types.h **** 
 366:/Users/joostbooy/Desktop/Code/stm32/lib/tinyusb/src/common/tusb_types.h ****   uint8_t  bEndpointAddress ; // The address of the endpoint
 367:/Users/joostbooy/Desktop/Code/stm32/lib/tinyusb/src/common/tusb_types.h **** 
 368:/Users/joostbooy/Desktop/Code/stm32/lib/tinyusb/src/common/tusb_types.h ****   struct TU_ATTR_PACKED {
 369:/Users/joostbooy/Desktop/Code/stm32/lib/tinyusb/src/common/tusb_types.h ****     uint8_t xfer  : 2;        // Control, ISO, Bulk, Interrupt
 370:/Users/joostbooy/Desktop/Code/stm32/lib/tinyusb/src/common/tusb_types.h ****     uint8_t sync  : 2;        // None, Asynchronous, Adaptive, Synchronous
 371:/Users/joostbooy/Desktop/Code/stm32/lib/tinyusb/src/common/tusb_types.h ****     uint8_t usage : 2;        // Data, Feedback, Implicit feedback
 372:/Users/joostbooy/Desktop/Code/stm32/lib/tinyusb/src/common/tusb_types.h ****     uint8_t       : 2;
 373:/Users/joostbooy/Desktop/Code/stm32/lib/tinyusb/src/common/tusb_types.h ****   } bmAttributes;
 374:/Users/joostbooy/Desktop/Code/stm32/lib/tinyusb/src/common/tusb_types.h **** 
ARM GAS  /var/folders/84/_x1cyy_j36g486tldtwl37280000gn/T//cc1ObSsF.s 			page 29


 375:/Users/joostbooy/Desktop/Code/stm32/lib/tinyusb/src/common/tusb_types.h ****   uint16_t wMaxPacketSize   ; // Bit 10..0 : max packet size, bit 12..11 additional transaction per
 376:/Users/joostbooy/Desktop/Code/stm32/lib/tinyusb/src/common/tusb_types.h ****   uint8_t  bInterval        ; // Polling interval, in frames or microframes depending on the operat
 377:/Users/joostbooy/Desktop/Code/stm32/lib/tinyusb/src/common/tusb_types.h **** } tusb_desc_endpoint_t;
 378:/Users/joostbooy/Desktop/Code/stm32/lib/tinyusb/src/common/tusb_types.h **** 
 379:/Users/joostbooy/Desktop/Code/stm32/lib/tinyusb/src/common/tusb_types.h **** TU_VERIFY_STATIC( sizeof(tusb_desc_endpoint_t) == 7, "size is not correct");
 380:/Users/joostbooy/Desktop/Code/stm32/lib/tinyusb/src/common/tusb_types.h **** 
 381:/Users/joostbooy/Desktop/Code/stm32/lib/tinyusb/src/common/tusb_types.h **** /// USB Other Speed Configuration Descriptor
 382:/Users/joostbooy/Desktop/Code/stm32/lib/tinyusb/src/common/tusb_types.h **** typedef struct TU_ATTR_PACKED
 383:/Users/joostbooy/Desktop/Code/stm32/lib/tinyusb/src/common/tusb_types.h **** {
 384:/Users/joostbooy/Desktop/Code/stm32/lib/tinyusb/src/common/tusb_types.h ****   uint8_t  bLength             ; ///< Size of descriptor
 385:/Users/joostbooy/Desktop/Code/stm32/lib/tinyusb/src/common/tusb_types.h ****   uint8_t  bDescriptorType     ; ///< Other_speed_Configuration Type
 386:/Users/joostbooy/Desktop/Code/stm32/lib/tinyusb/src/common/tusb_types.h ****   uint16_t wTotalLength        ; ///< Total length of data returned
 387:/Users/joostbooy/Desktop/Code/stm32/lib/tinyusb/src/common/tusb_types.h **** 
 388:/Users/joostbooy/Desktop/Code/stm32/lib/tinyusb/src/common/tusb_types.h ****   uint8_t  bNumInterfaces      ; ///< Number of interfaces supported by this speed configuration
 389:/Users/joostbooy/Desktop/Code/stm32/lib/tinyusb/src/common/tusb_types.h ****   uint8_t  bConfigurationValue ; ///< Value to use to select configuration
 390:/Users/joostbooy/Desktop/Code/stm32/lib/tinyusb/src/common/tusb_types.h ****   uint8_t  iConfiguration      ; ///< Index of string descriptor
 391:/Users/joostbooy/Desktop/Code/stm32/lib/tinyusb/src/common/tusb_types.h ****   uint8_t  bmAttributes        ; ///< Same as Configuration descriptor
 392:/Users/joostbooy/Desktop/Code/stm32/lib/tinyusb/src/common/tusb_types.h ****   uint8_t  bMaxPower           ; ///< Same as Configuration descriptor
 393:/Users/joostbooy/Desktop/Code/stm32/lib/tinyusb/src/common/tusb_types.h **** } tusb_desc_other_speed_t;
 394:/Users/joostbooy/Desktop/Code/stm32/lib/tinyusb/src/common/tusb_types.h **** 
 395:/Users/joostbooy/Desktop/Code/stm32/lib/tinyusb/src/common/tusb_types.h **** /// USB Device Qualifier Descriptor
 396:/Users/joostbooy/Desktop/Code/stm32/lib/tinyusb/src/common/tusb_types.h **** typedef struct TU_ATTR_PACKED
 397:/Users/joostbooy/Desktop/Code/stm32/lib/tinyusb/src/common/tusb_types.h **** {
 398:/Users/joostbooy/Desktop/Code/stm32/lib/tinyusb/src/common/tusb_types.h ****   uint8_t  bLength            ; ///< Size of descriptor
 399:/Users/joostbooy/Desktop/Code/stm32/lib/tinyusb/src/common/tusb_types.h ****   uint8_t  bDescriptorType    ; ///< Device Qualifier Type
 400:/Users/joostbooy/Desktop/Code/stm32/lib/tinyusb/src/common/tusb_types.h ****   uint16_t bcdUSB             ; ///< USB specification version number (e.g., 0200H for V2.00)
 401:/Users/joostbooy/Desktop/Code/stm32/lib/tinyusb/src/common/tusb_types.h **** 
 402:/Users/joostbooy/Desktop/Code/stm32/lib/tinyusb/src/common/tusb_types.h ****   uint8_t  bDeviceClass       ; ///< Class Code
 403:/Users/joostbooy/Desktop/Code/stm32/lib/tinyusb/src/common/tusb_types.h ****   uint8_t  bDeviceSubClass    ; ///< SubClass Code
 404:/Users/joostbooy/Desktop/Code/stm32/lib/tinyusb/src/common/tusb_types.h ****   uint8_t  bDeviceProtocol    ; ///< Protocol Code
 405:/Users/joostbooy/Desktop/Code/stm32/lib/tinyusb/src/common/tusb_types.h **** 
 406:/Users/joostbooy/Desktop/Code/stm32/lib/tinyusb/src/common/tusb_types.h ****   uint8_t  bMaxPacketSize0    ; ///< Maximum packet size for other speed
 407:/Users/joostbooy/Desktop/Code/stm32/lib/tinyusb/src/common/tusb_types.h ****   uint8_t  bNumConfigurations ; ///< Number of Other-speed Configurations
 408:/Users/joostbooy/Desktop/Code/stm32/lib/tinyusb/src/common/tusb_types.h ****   uint8_t  bReserved          ; ///< Reserved for future use, must be zero
 409:/Users/joostbooy/Desktop/Code/stm32/lib/tinyusb/src/common/tusb_types.h **** } tusb_desc_device_qualifier_t;
 410:/Users/joostbooy/Desktop/Code/stm32/lib/tinyusb/src/common/tusb_types.h **** 
 411:/Users/joostbooy/Desktop/Code/stm32/lib/tinyusb/src/common/tusb_types.h **** TU_VERIFY_STATIC( sizeof(tusb_desc_device_qualifier_t) == 10, "size is not correct");
 412:/Users/joostbooy/Desktop/Code/stm32/lib/tinyusb/src/common/tusb_types.h **** 
 413:/Users/joostbooy/Desktop/Code/stm32/lib/tinyusb/src/common/tusb_types.h **** /// USB Interface Association Descriptor (IAD ECN)
 414:/Users/joostbooy/Desktop/Code/stm32/lib/tinyusb/src/common/tusb_types.h **** typedef struct TU_ATTR_PACKED
 415:/Users/joostbooy/Desktop/Code/stm32/lib/tinyusb/src/common/tusb_types.h **** {
 416:/Users/joostbooy/Desktop/Code/stm32/lib/tinyusb/src/common/tusb_types.h ****   uint8_t bLength           ; ///< Size of descriptor
 417:/Users/joostbooy/Desktop/Code/stm32/lib/tinyusb/src/common/tusb_types.h ****   uint8_t bDescriptorType   ; ///< Other_speed_Configuration Type
 418:/Users/joostbooy/Desktop/Code/stm32/lib/tinyusb/src/common/tusb_types.h **** 
 419:/Users/joostbooy/Desktop/Code/stm32/lib/tinyusb/src/common/tusb_types.h ****   uint8_t bFirstInterface   ; ///< Index of the first associated interface.
 420:/Users/joostbooy/Desktop/Code/stm32/lib/tinyusb/src/common/tusb_types.h ****   uint8_t bInterfaceCount   ; ///< Total number of associated interfaces.
 421:/Users/joostbooy/Desktop/Code/stm32/lib/tinyusb/src/common/tusb_types.h **** 
 422:/Users/joostbooy/Desktop/Code/stm32/lib/tinyusb/src/common/tusb_types.h ****   uint8_t bFunctionClass    ; ///< Interface class ID.
 423:/Users/joostbooy/Desktop/Code/stm32/lib/tinyusb/src/common/tusb_types.h ****   uint8_t bFunctionSubClass ; ///< Interface subclass ID.
 424:/Users/joostbooy/Desktop/Code/stm32/lib/tinyusb/src/common/tusb_types.h ****   uint8_t bFunctionProtocol ; ///< Interface protocol ID.
 425:/Users/joostbooy/Desktop/Code/stm32/lib/tinyusb/src/common/tusb_types.h **** 
 426:/Users/joostbooy/Desktop/Code/stm32/lib/tinyusb/src/common/tusb_types.h ****   uint8_t iFunction         ; ///< Index of the string descriptor describing the interface associat
 427:/Users/joostbooy/Desktop/Code/stm32/lib/tinyusb/src/common/tusb_types.h **** } tusb_desc_interface_assoc_t;
 428:/Users/joostbooy/Desktop/Code/stm32/lib/tinyusb/src/common/tusb_types.h **** 
 429:/Users/joostbooy/Desktop/Code/stm32/lib/tinyusb/src/common/tusb_types.h **** // USB String Descriptor
 430:/Users/joostbooy/Desktop/Code/stm32/lib/tinyusb/src/common/tusb_types.h **** typedef struct TU_ATTR_PACKED
 431:/Users/joostbooy/Desktop/Code/stm32/lib/tinyusb/src/common/tusb_types.h **** {
ARM GAS  /var/folders/84/_x1cyy_j36g486tldtwl37280000gn/T//cc1ObSsF.s 			page 30


 432:/Users/joostbooy/Desktop/Code/stm32/lib/tinyusb/src/common/tusb_types.h ****   uint8_t  bLength         ; ///< Size of this descriptor in bytes
 433:/Users/joostbooy/Desktop/Code/stm32/lib/tinyusb/src/common/tusb_types.h ****   uint8_t  bDescriptorType ; ///< Descriptor Type
 434:/Users/joostbooy/Desktop/Code/stm32/lib/tinyusb/src/common/tusb_types.h ****   uint16_t unicode_string[];
 435:/Users/joostbooy/Desktop/Code/stm32/lib/tinyusb/src/common/tusb_types.h **** } tusb_desc_string_t;
 436:/Users/joostbooy/Desktop/Code/stm32/lib/tinyusb/src/common/tusb_types.h **** 
 437:/Users/joostbooy/Desktop/Code/stm32/lib/tinyusb/src/common/tusb_types.h **** // USB Binary Device Object Store (BOS)
 438:/Users/joostbooy/Desktop/Code/stm32/lib/tinyusb/src/common/tusb_types.h **** typedef struct TU_ATTR_PACKED
 439:/Users/joostbooy/Desktop/Code/stm32/lib/tinyusb/src/common/tusb_types.h **** {
 440:/Users/joostbooy/Desktop/Code/stm32/lib/tinyusb/src/common/tusb_types.h ****   uint8_t bLength;
 441:/Users/joostbooy/Desktop/Code/stm32/lib/tinyusb/src/common/tusb_types.h ****   uint8_t bDescriptorType ;
 442:/Users/joostbooy/Desktop/Code/stm32/lib/tinyusb/src/common/tusb_types.h ****   uint8_t bDevCapabilityType;
 443:/Users/joostbooy/Desktop/Code/stm32/lib/tinyusb/src/common/tusb_types.h ****   uint8_t bReserved;
 444:/Users/joostbooy/Desktop/Code/stm32/lib/tinyusb/src/common/tusb_types.h ****   uint8_t PlatformCapabilityUUID[16];
 445:/Users/joostbooy/Desktop/Code/stm32/lib/tinyusb/src/common/tusb_types.h ****   uint8_t CapabilityData[];
 446:/Users/joostbooy/Desktop/Code/stm32/lib/tinyusb/src/common/tusb_types.h **** } tusb_desc_bos_platform_t;
 447:/Users/joostbooy/Desktop/Code/stm32/lib/tinyusb/src/common/tusb_types.h **** 
 448:/Users/joostbooy/Desktop/Code/stm32/lib/tinyusb/src/common/tusb_types.h **** // USB WebuSB URL Descriptor
 449:/Users/joostbooy/Desktop/Code/stm32/lib/tinyusb/src/common/tusb_types.h **** typedef struct TU_ATTR_PACKED
 450:/Users/joostbooy/Desktop/Code/stm32/lib/tinyusb/src/common/tusb_types.h **** {
 451:/Users/joostbooy/Desktop/Code/stm32/lib/tinyusb/src/common/tusb_types.h ****   uint8_t bLength;
 452:/Users/joostbooy/Desktop/Code/stm32/lib/tinyusb/src/common/tusb_types.h ****   uint8_t bDescriptorType;
 453:/Users/joostbooy/Desktop/Code/stm32/lib/tinyusb/src/common/tusb_types.h ****   uint8_t bScheme;
 454:/Users/joostbooy/Desktop/Code/stm32/lib/tinyusb/src/common/tusb_types.h ****   char    url[];
 455:/Users/joostbooy/Desktop/Code/stm32/lib/tinyusb/src/common/tusb_types.h **** } tusb_desc_webusb_url_t;
 456:/Users/joostbooy/Desktop/Code/stm32/lib/tinyusb/src/common/tusb_types.h **** 
 457:/Users/joostbooy/Desktop/Code/stm32/lib/tinyusb/src/common/tusb_types.h **** // DFU Functional Descriptor
 458:/Users/joostbooy/Desktop/Code/stm32/lib/tinyusb/src/common/tusb_types.h **** typedef struct TU_ATTR_PACKED
 459:/Users/joostbooy/Desktop/Code/stm32/lib/tinyusb/src/common/tusb_types.h **** {
 460:/Users/joostbooy/Desktop/Code/stm32/lib/tinyusb/src/common/tusb_types.h ****   uint8_t  bLength;
 461:/Users/joostbooy/Desktop/Code/stm32/lib/tinyusb/src/common/tusb_types.h ****   uint8_t  bDescriptorType;
 462:/Users/joostbooy/Desktop/Code/stm32/lib/tinyusb/src/common/tusb_types.h **** 
 463:/Users/joostbooy/Desktop/Code/stm32/lib/tinyusb/src/common/tusb_types.h ****   union {
 464:/Users/joostbooy/Desktop/Code/stm32/lib/tinyusb/src/common/tusb_types.h ****     struct TU_ATTR_PACKED {
 465:/Users/joostbooy/Desktop/Code/stm32/lib/tinyusb/src/common/tusb_types.h ****       uint8_t bitCanDnload             : 1;
 466:/Users/joostbooy/Desktop/Code/stm32/lib/tinyusb/src/common/tusb_types.h ****       uint8_t bitCanUpload             : 1;
 467:/Users/joostbooy/Desktop/Code/stm32/lib/tinyusb/src/common/tusb_types.h ****       uint8_t bitManifestationTolerant : 1;
 468:/Users/joostbooy/Desktop/Code/stm32/lib/tinyusb/src/common/tusb_types.h ****       uint8_t bitWillDetach            : 1;
 469:/Users/joostbooy/Desktop/Code/stm32/lib/tinyusb/src/common/tusb_types.h ****       uint8_t reserved                 : 4;
 470:/Users/joostbooy/Desktop/Code/stm32/lib/tinyusb/src/common/tusb_types.h ****     } bmAttributes;
 471:/Users/joostbooy/Desktop/Code/stm32/lib/tinyusb/src/common/tusb_types.h **** 
 472:/Users/joostbooy/Desktop/Code/stm32/lib/tinyusb/src/common/tusb_types.h ****     uint8_t bAttributes;
 473:/Users/joostbooy/Desktop/Code/stm32/lib/tinyusb/src/common/tusb_types.h ****   };
 474:/Users/joostbooy/Desktop/Code/stm32/lib/tinyusb/src/common/tusb_types.h **** 
 475:/Users/joostbooy/Desktop/Code/stm32/lib/tinyusb/src/common/tusb_types.h ****   uint16_t wDetachTimeOut;
 476:/Users/joostbooy/Desktop/Code/stm32/lib/tinyusb/src/common/tusb_types.h ****   uint16_t wTransferSize;
 477:/Users/joostbooy/Desktop/Code/stm32/lib/tinyusb/src/common/tusb_types.h ****   uint16_t bcdDFUVersion;
 478:/Users/joostbooy/Desktop/Code/stm32/lib/tinyusb/src/common/tusb_types.h **** } tusb_desc_dfu_functional_t;
 479:/Users/joostbooy/Desktop/Code/stm32/lib/tinyusb/src/common/tusb_types.h **** 
 480:/Users/joostbooy/Desktop/Code/stm32/lib/tinyusb/src/common/tusb_types.h **** //--------------------------------------------------------------------+
 481:/Users/joostbooy/Desktop/Code/stm32/lib/tinyusb/src/common/tusb_types.h **** //
 482:/Users/joostbooy/Desktop/Code/stm32/lib/tinyusb/src/common/tusb_types.h **** //--------------------------------------------------------------------+
 483:/Users/joostbooy/Desktop/Code/stm32/lib/tinyusb/src/common/tusb_types.h **** 
 484:/Users/joostbooy/Desktop/Code/stm32/lib/tinyusb/src/common/tusb_types.h **** typedef struct TU_ATTR_PACKED{
 485:/Users/joostbooy/Desktop/Code/stm32/lib/tinyusb/src/common/tusb_types.h ****   union {
 486:/Users/joostbooy/Desktop/Code/stm32/lib/tinyusb/src/common/tusb_types.h ****     struct TU_ATTR_PACKED {
 487:/Users/joostbooy/Desktop/Code/stm32/lib/tinyusb/src/common/tusb_types.h ****       uint8_t recipient :  5; ///< Recipient type tusb_request_recipient_t.
 488:/Users/joostbooy/Desktop/Code/stm32/lib/tinyusb/src/common/tusb_types.h ****       uint8_t type      :  2; ///< Request type tusb_request_type_t.
ARM GAS  /var/folders/84/_x1cyy_j36g486tldtwl37280000gn/T//cc1ObSsF.s 			page 31


 489:/Users/joostbooy/Desktop/Code/stm32/lib/tinyusb/src/common/tusb_types.h ****       uint8_t direction :  1; ///< Direction type. tusb_dir_t
 490:/Users/joostbooy/Desktop/Code/stm32/lib/tinyusb/src/common/tusb_types.h ****     } bmRequestType_bit;
 491:/Users/joostbooy/Desktop/Code/stm32/lib/tinyusb/src/common/tusb_types.h **** 
 492:/Users/joostbooy/Desktop/Code/stm32/lib/tinyusb/src/common/tusb_types.h ****     uint8_t bmRequestType;
 493:/Users/joostbooy/Desktop/Code/stm32/lib/tinyusb/src/common/tusb_types.h ****   };
 494:/Users/joostbooy/Desktop/Code/stm32/lib/tinyusb/src/common/tusb_types.h **** 
 495:/Users/joostbooy/Desktop/Code/stm32/lib/tinyusb/src/common/tusb_types.h ****   uint8_t  bRequest;
 496:/Users/joostbooy/Desktop/Code/stm32/lib/tinyusb/src/common/tusb_types.h ****   uint16_t wValue;
 497:/Users/joostbooy/Desktop/Code/stm32/lib/tinyusb/src/common/tusb_types.h ****   uint16_t wIndex;
 498:/Users/joostbooy/Desktop/Code/stm32/lib/tinyusb/src/common/tusb_types.h ****   uint16_t wLength;
 499:/Users/joostbooy/Desktop/Code/stm32/lib/tinyusb/src/common/tusb_types.h **** } tusb_control_request_t;
 500:/Users/joostbooy/Desktop/Code/stm32/lib/tinyusb/src/common/tusb_types.h **** 
 501:/Users/joostbooy/Desktop/Code/stm32/lib/tinyusb/src/common/tusb_types.h **** TU_VERIFY_STATIC( sizeof(tusb_control_request_t) == 8, "size is not correct");
 502:/Users/joostbooy/Desktop/Code/stm32/lib/tinyusb/src/common/tusb_types.h **** 
 503:/Users/joostbooy/Desktop/Code/stm32/lib/tinyusb/src/common/tusb_types.h **** 
 504:/Users/joostbooy/Desktop/Code/stm32/lib/tinyusb/src/common/tusb_types.h **** TU_ATTR_PACKED_END  // End of all packed definitions
 505:/Users/joostbooy/Desktop/Code/stm32/lib/tinyusb/src/common/tusb_types.h **** TU_ATTR_BIT_FIELD_ORDER_END
 506:/Users/joostbooy/Desktop/Code/stm32/lib/tinyusb/src/common/tusb_types.h **** 
 507:/Users/joostbooy/Desktop/Code/stm32/lib/tinyusb/src/common/tusb_types.h **** //--------------------------------------------------------------------+
 508:/Users/joostbooy/Desktop/Code/stm32/lib/tinyusb/src/common/tusb_types.h **** // Endpoint helper
 509:/Users/joostbooy/Desktop/Code/stm32/lib/tinyusb/src/common/tusb_types.h **** //--------------------------------------------------------------------+
 510:/Users/joostbooy/Desktop/Code/stm32/lib/tinyusb/src/common/tusb_types.h **** 
 511:/Users/joostbooy/Desktop/Code/stm32/lib/tinyusb/src/common/tusb_types.h **** // Get direction from Endpoint address
 512:/Users/joostbooy/Desktop/Code/stm32/lib/tinyusb/src/common/tusb_types.h **** TU_ATTR_ALWAYS_INLINE static inline tusb_dir_t tu_edpt_dir(uint8_t addr)
 513:/Users/joostbooy/Desktop/Code/stm32/lib/tinyusb/src/common/tusb_types.h **** {
 514:/Users/joostbooy/Desktop/Code/stm32/lib/tinyusb/src/common/tusb_types.h ****   return (addr & TUSB_DIR_IN_MASK) ? TUSB_DIR_IN : TUSB_DIR_OUT;
 515:/Users/joostbooy/Desktop/Code/stm32/lib/tinyusb/src/common/tusb_types.h **** }
 516:/Users/joostbooy/Desktop/Code/stm32/lib/tinyusb/src/common/tusb_types.h **** 
 517:/Users/joostbooy/Desktop/Code/stm32/lib/tinyusb/src/common/tusb_types.h **** // Get Endpoint number from address
 518:/Users/joostbooy/Desktop/Code/stm32/lib/tinyusb/src/common/tusb_types.h **** TU_ATTR_ALWAYS_INLINE static inline uint8_t tu_edpt_number(uint8_t addr)
 318              		.loc 3 518 45 view .LVU92
 319              	.LBB191:
 519:/Users/joostbooy/Desktop/Code/stm32/lib/tinyusb/src/common/tusb_types.h **** {
 520:/Users/joostbooy/Desktop/Code/stm32/lib/tinyusb/src/common/tusb_types.h ****   return (uint8_t)(addr & (~TUSB_DIR_IN_MASK));
 320              		.loc 3 520 3 view .LVU93
 321              		.loc 3 520 10 is_stmt 0 view .LVU94
 322 0006 01F07F00 		and	r0, r1, #127
 323              	.LVL30:
 324              		.loc 3 520 10 view .LVU95
 325              	.LBE191:
 326              	.LBE190:
 716:/Users/joostbooy/Desktop/Code/stm32/lib/tinyusb/src/portable/synopsys/dwc2/dcd_dwc2.c ****   uint8_t const dir = tu_edpt_dir(ep_addr);
 327              		.loc 1 716 3 is_stmt 1 view .LVU96
 328              	.LBB192:
 329              	.LBI192:
 512:/Users/joostbooy/Desktop/Code/stm32/lib/tinyusb/src/common/tusb_types.h **** {
 330              		.loc 3 512 48 view .LVU97
 331              	.LBB193:
 514:/Users/joostbooy/Desktop/Code/stm32/lib/tinyusb/src/common/tusb_types.h **** }
 332              		.loc 3 514 3 view .LVU98
 514:/Users/joostbooy/Desktop/Code/stm32/lib/tinyusb/src/common/tusb_types.h **** }
 333              		.loc 3 514 3 is_stmt 0 view .LVU99
 334              	.LBE193:
 335              	.LBE192:
 717:/Users/joostbooy/Desktop/Code/stm32/lib/tinyusb/src/portable/synopsys/dwc2/dcd_dwc2.c **** 
 718:/Users/joostbooy/Desktop/Code/stm32/lib/tinyusb/src/portable/synopsys/dwc2/dcd_dwc2.c ****   if (dir == TUSB_DIR_IN) {
 336              		.loc 1 718 3 is_stmt 1 view .LVU100
ARM GAS  /var/folders/84/_x1cyy_j36g486tldtwl37280000gn/T//cc1ObSsF.s 			page 32


 337              		.loc 1 718 6 is_stmt 0 view .LVU101
 338 000a C909     		lsrs	r1, r1, #7
 339              	.LVL31:
 710:/Users/joostbooy/Desktop/Code/stm32/lib/tinyusb/src/portable/synopsys/dwc2/dcd_dwc2.c ****   (void) rhport;
 340              		.loc 1 710 75 view .LVU102
 341 000c 30B4     		push	{r4, r5}
 342              		.cfi_def_cfa_offset 8
 343              		.cfi_offset 4, -8
 344              		.cfi_offset 5, -4
 345              		.loc 1 718 6 view .LVU103
 346 000e 2ED1     		bne	.L59
 347              	.LBB194:
 719:/Users/joostbooy/Desktop/Code/stm32/lib/tinyusb/src/portable/synopsys/dwc2/dcd_dwc2.c ****     dwc2_epin_t* epin = dwc2->epin;
 720:/Users/joostbooy/Desktop/Code/stm32/lib/tinyusb/src/portable/synopsys/dwc2/dcd_dwc2.c **** 
 721:/Users/joostbooy/Desktop/Code/stm32/lib/tinyusb/src/portable/synopsys/dwc2/dcd_dwc2.c ****     // Only disable currently enabled non-control endpoint
 722:/Users/joostbooy/Desktop/Code/stm32/lib/tinyusb/src/portable/synopsys/dwc2/dcd_dwc2.c ****     if ((epnum == 0) || !(epin[epnum].diepctl & DIEPCTL_EPENA)) {
 723:/Users/joostbooy/Desktop/Code/stm32/lib/tinyusb/src/portable/synopsys/dwc2/dcd_dwc2.c ****       epin[epnum].diepctl |= DIEPCTL_SNAK | (stall ? DIEPCTL_STALL : 0);
 724:/Users/joostbooy/Desktop/Code/stm32/lib/tinyusb/src/portable/synopsys/dwc2/dcd_dwc2.c ****     } else {
 725:/Users/joostbooy/Desktop/Code/stm32/lib/tinyusb/src/portable/synopsys/dwc2/dcd_dwc2.c ****       // Stop transmitting packets and NAK IN xfers.
 726:/Users/joostbooy/Desktop/Code/stm32/lib/tinyusb/src/portable/synopsys/dwc2/dcd_dwc2.c ****       epin[epnum].diepctl |= DIEPCTL_SNAK;
 727:/Users/joostbooy/Desktop/Code/stm32/lib/tinyusb/src/portable/synopsys/dwc2/dcd_dwc2.c ****       while ((epin[epnum].diepint & DIEPINT_INEPNE) == 0) {}
 728:/Users/joostbooy/Desktop/Code/stm32/lib/tinyusb/src/portable/synopsys/dwc2/dcd_dwc2.c **** 
 729:/Users/joostbooy/Desktop/Code/stm32/lib/tinyusb/src/portable/synopsys/dwc2/dcd_dwc2.c ****       // Disable the endpoint.
 730:/Users/joostbooy/Desktop/Code/stm32/lib/tinyusb/src/portable/synopsys/dwc2/dcd_dwc2.c ****       epin[epnum].diepctl |= DIEPCTL_EPDIS | (stall ? DIEPCTL_STALL : 0);
 731:/Users/joostbooy/Desktop/Code/stm32/lib/tinyusb/src/portable/synopsys/dwc2/dcd_dwc2.c ****       while ((epin[epnum].diepint & DIEPINT_EPDISD_Msk) == 0) {}
 732:/Users/joostbooy/Desktop/Code/stm32/lib/tinyusb/src/portable/synopsys/dwc2/dcd_dwc2.c **** 
 733:/Users/joostbooy/Desktop/Code/stm32/lib/tinyusb/src/portable/synopsys/dwc2/dcd_dwc2.c ****       epin[epnum].diepint = DIEPINT_EPDISD;
 734:/Users/joostbooy/Desktop/Code/stm32/lib/tinyusb/src/portable/synopsys/dwc2/dcd_dwc2.c ****     }
 735:/Users/joostbooy/Desktop/Code/stm32/lib/tinyusb/src/portable/synopsys/dwc2/dcd_dwc2.c **** 
 736:/Users/joostbooy/Desktop/Code/stm32/lib/tinyusb/src/portable/synopsys/dwc2/dcd_dwc2.c ****     // Flush the FIFO, and wait until we have confirmed it cleared.
 737:/Users/joostbooy/Desktop/Code/stm32/lib/tinyusb/src/portable/synopsys/dwc2/dcd_dwc2.c ****     dwc2->grstctl = ((epnum << GRSTCTL_TXFNUM_Pos) | GRSTCTL_TXFFLSH);
 738:/Users/joostbooy/Desktop/Code/stm32/lib/tinyusb/src/portable/synopsys/dwc2/dcd_dwc2.c ****     while ((dwc2->grstctl & GRSTCTL_TXFFLSH_Msk) != 0) {}
 739:/Users/joostbooy/Desktop/Code/stm32/lib/tinyusb/src/portable/synopsys/dwc2/dcd_dwc2.c ****   } else {
 740:/Users/joostbooy/Desktop/Code/stm32/lib/tinyusb/src/portable/synopsys/dwc2/dcd_dwc2.c ****     dwc2_epout_t* epout = dwc2->epout;
 348              		.loc 1 740 5 is_stmt 1 view .LVU104
 349              		.loc 1 740 19 is_stmt 0 view .LVU105
 350 0010 03F53061 		add	r1, r3, #2816
 351              	.LVL32:
 741:/Users/joostbooy/Desktop/Code/stm32/lib/tinyusb/src/portable/synopsys/dwc2/dcd_dwc2.c **** 
 742:/Users/joostbooy/Desktop/Code/stm32/lib/tinyusb/src/portable/synopsys/dwc2/dcd_dwc2.c ****     // Only disable currently enabled non-control endpoint
 743:/Users/joostbooy/Desktop/Code/stm32/lib/tinyusb/src/portable/synopsys/dwc2/dcd_dwc2.c ****     if ((epnum == 0) || !(epout[epnum].doepctl & DOEPCTL_EPENA)) {
 352              		.loc 1 743 5 is_stmt 1 view .LVU106
 353              		.loc 1 743 8 is_stmt 0 view .LVU107
 354 0014 20B9     		cbnz	r0, .L60
 355              	.LVL33:
 356              	.L31:
 744:/Users/joostbooy/Desktop/Code/stm32/lib/tinyusb/src/portable/synopsys/dwc2/dcd_dwc2.c ****       epout[epnum].doepctl |= stall ? DOEPCTL_STALL : 0;
 357              		.loc 1 744 7 is_stmt 1 view .LVU108
 358              		.loc 1 744 28 is_stmt 0 view .LVU109
 359 0016 0B68     		ldr	r3, [r1]
 360              	.LVL34:
 361              		.loc 1 744 53 view .LVU110
 362 0018 32BB     		cbnz	r2, .L61
 363              	.L33:
 364              	.LBE194:
 745:/Users/joostbooy/Desktop/Code/stm32/lib/tinyusb/src/portable/synopsys/dwc2/dcd_dwc2.c ****     } else {
 746:/Users/joostbooy/Desktop/Code/stm32/lib/tinyusb/src/portable/synopsys/dwc2/dcd_dwc2.c ****       // Asserting GONAK is required to STALL an OUT endpoint.
ARM GAS  /var/folders/84/_x1cyy_j36g486tldtwl37280000gn/T//cc1ObSsF.s 			page 33


 747:/Users/joostbooy/Desktop/Code/stm32/lib/tinyusb/src/portable/synopsys/dwc2/dcd_dwc2.c ****       // Simpler to use polling here, we don't use the "B"OUTNAKEFF interrupt
 748:/Users/joostbooy/Desktop/Code/stm32/lib/tinyusb/src/portable/synopsys/dwc2/dcd_dwc2.c ****       // anyway, and it can't be cleared by user code. If this while loop never
 749:/Users/joostbooy/Desktop/Code/stm32/lib/tinyusb/src/portable/synopsys/dwc2/dcd_dwc2.c ****       // finishes, we have bigger problems than just the stack.
 750:/Users/joostbooy/Desktop/Code/stm32/lib/tinyusb/src/portable/synopsys/dwc2/dcd_dwc2.c ****       dwc2->dctl |= DCTL_SGONAK;
 751:/Users/joostbooy/Desktop/Code/stm32/lib/tinyusb/src/portable/synopsys/dwc2/dcd_dwc2.c ****       while ((dwc2->gintsts & GINTSTS_BOUTNAKEFF_Msk) == 0) {}
 752:/Users/joostbooy/Desktop/Code/stm32/lib/tinyusb/src/portable/synopsys/dwc2/dcd_dwc2.c **** 
 753:/Users/joostbooy/Desktop/Code/stm32/lib/tinyusb/src/portable/synopsys/dwc2/dcd_dwc2.c ****       // Ditto here- disable the endpoint.
 754:/Users/joostbooy/Desktop/Code/stm32/lib/tinyusb/src/portable/synopsys/dwc2/dcd_dwc2.c ****       epout[epnum].doepctl |= DOEPCTL_EPDIS | (stall ? DOEPCTL_STALL : 0);
 755:/Users/joostbooy/Desktop/Code/stm32/lib/tinyusb/src/portable/synopsys/dwc2/dcd_dwc2.c ****       while ((epout[epnum].doepint & DOEPINT_EPDISD_Msk) == 0) {}
 756:/Users/joostbooy/Desktop/Code/stm32/lib/tinyusb/src/portable/synopsys/dwc2/dcd_dwc2.c **** 
 757:/Users/joostbooy/Desktop/Code/stm32/lib/tinyusb/src/portable/synopsys/dwc2/dcd_dwc2.c ****       epout[epnum].doepint = DOEPINT_EPDISD;
 758:/Users/joostbooy/Desktop/Code/stm32/lib/tinyusb/src/portable/synopsys/dwc2/dcd_dwc2.c **** 
 759:/Users/joostbooy/Desktop/Code/stm32/lib/tinyusb/src/portable/synopsys/dwc2/dcd_dwc2.c ****       // Allow other OUT endpoints to keep receiving.
 760:/Users/joostbooy/Desktop/Code/stm32/lib/tinyusb/src/portable/synopsys/dwc2/dcd_dwc2.c ****       dwc2->dctl |= DCTL_CGONAK;
 761:/Users/joostbooy/Desktop/Code/stm32/lib/tinyusb/src/portable/synopsys/dwc2/dcd_dwc2.c ****     }
 762:/Users/joostbooy/Desktop/Code/stm32/lib/tinyusb/src/portable/synopsys/dwc2/dcd_dwc2.c ****   }
 763:/Users/joostbooy/Desktop/Code/stm32/lib/tinyusb/src/portable/synopsys/dwc2/dcd_dwc2.c **** }
 365              		.loc 1 763 1 discriminator 4 view .LVU111
 366 001a 30BC     		pop	{r4, r5}
 367              		.cfi_remember_state
 368              		.cfi_restore 5
 369              		.cfi_restore 4
 370              		.cfi_def_cfa_offset 0
 371              	.LBB195:
 744:/Users/joostbooy/Desktop/Code/stm32/lib/tinyusb/src/portable/synopsys/dwc2/dcd_dwc2.c ****       epout[epnum].doepctl |= stall ? DOEPCTL_STALL : 0;
 372              		.loc 1 744 28 discriminator 4 view .LVU112
 373 001c 0B60     		str	r3, [r1]
 374              	.LBE195:
 375              		.loc 1 763 1 discriminator 4 view .LVU113
 376 001e 7047     		bx	lr
 377              	.LVL35:
 378              	.L60:
 379              		.cfi_restore_state
 380              	.LBB196:
 743:/Users/joostbooy/Desktop/Code/stm32/lib/tinyusb/src/portable/synopsys/dwc2/dcd_dwc2.c ****       epout[epnum].doepctl |= stall ? DOEPCTL_STALL : 0;
 381              		.loc 1 743 32 discriminator 1 view .LVU114
 382 0020 01EB4011 		add	r1, r1, r0, lsl #5
 383              	.LVL36:
 743:/Users/joostbooy/Desktop/Code/stm32/lib/tinyusb/src/portable/synopsys/dwc2/dcd_dwc2.c ****       epout[epnum].doepctl |= stall ? DOEPCTL_STALL : 0;
 384              		.loc 1 743 39 discriminator 1 view .LVU115
 385 0024 0C68     		ldr	r4, [r1]
 743:/Users/joostbooy/Desktop/Code/stm32/lib/tinyusb/src/portable/synopsys/dwc2/dcd_dwc2.c ****       epout[epnum].doepctl |= stall ? DOEPCTL_STALL : 0;
 386              		.loc 1 743 22 discriminator 1 view .LVU116
 387 0026 002C     		cmp	r4, #0
 388 0028 F5DA     		bge	.L31
 750:/Users/joostbooy/Desktop/Code/stm32/lib/tinyusb/src/portable/synopsys/dwc2/dcd_dwc2.c ****       while ((dwc2->gintsts & GINTSTS_BOUTNAKEFF_Msk) == 0) {}
 389              		.loc 1 750 7 is_stmt 1 view .LVU117
 750:/Users/joostbooy/Desktop/Code/stm32/lib/tinyusb/src/portable/synopsys/dwc2/dcd_dwc2.c ****       while ((dwc2->gintsts & GINTSTS_BOUTNAKEFF_Msk) == 0) {}
 390              		.loc 1 750 18 is_stmt 0 view .LVU118
 391 002a D3F80458 		ldr	r5, [r3, #2052]
 392 002e 45F40070 		orr	r0, r5, #512
 393              	.LVL37:
 750:/Users/joostbooy/Desktop/Code/stm32/lib/tinyusb/src/portable/synopsys/dwc2/dcd_dwc2.c ****       while ((dwc2->gintsts & GINTSTS_BOUTNAKEFF_Msk) == 0) {}
 394              		.loc 1 750 18 view .LVU119
 395 0032 C3F80408 		str	r0, [r3, #2052]
 751:/Users/joostbooy/Desktop/Code/stm32/lib/tinyusb/src/portable/synopsys/dwc2/dcd_dwc2.c **** 
 396              		.loc 1 751 7 is_stmt 1 view .LVU120
ARM GAS  /var/folders/84/_x1cyy_j36g486tldtwl37280000gn/T//cc1ObSsF.s 			page 34


 397              	.L34:
 751:/Users/joostbooy/Desktop/Code/stm32/lib/tinyusb/src/portable/synopsys/dwc2/dcd_dwc2.c **** 
 398              		.loc 1 751 62 discriminator 1 view .LVU121
 751:/Users/joostbooy/Desktop/Code/stm32/lib/tinyusb/src/portable/synopsys/dwc2/dcd_dwc2.c **** 
 399              		.loc 1 751 13 discriminator 1 view .LVU122
 751:/Users/joostbooy/Desktop/Code/stm32/lib/tinyusb/src/portable/synopsys/dwc2/dcd_dwc2.c **** 
 400              		.loc 1 751 19 is_stmt 0 discriminator 1 view .LVU123
 401 0036 5C69     		ldr	r4, [r3, #20]
 751:/Users/joostbooy/Desktop/Code/stm32/lib/tinyusb/src/portable/synopsys/dwc2/dcd_dwc2.c **** 
 402              		.loc 1 751 13 discriminator 1 view .LVU124
 403 0038 2006     		lsls	r0, r4, #24
 404 003a FCD5     		bpl	.L34
 754:/Users/joostbooy/Desktop/Code/stm32/lib/tinyusb/src/portable/synopsys/dwc2/dcd_dwc2.c ****       while ((epout[epnum].doepint & DOEPINT_EPDISD_Msk) == 0) {}
 405              		.loc 1 754 7 is_stmt 1 view .LVU125
 754:/Users/joostbooy/Desktop/Code/stm32/lib/tinyusb/src/portable/synopsys/dwc2/dcd_dwc2.c ****       while ((epout[epnum].doepint & DOEPINT_EPDISD_Msk) == 0) {}
 406              		.loc 1 754 45 is_stmt 0 view .LVU126
 407 003c 2A4D     		ldr	r5, .L63+4
 754:/Users/joostbooy/Desktop/Code/stm32/lib/tinyusb/src/portable/synopsys/dwc2/dcd_dwc2.c ****       while ((epout[epnum].doepint & DOEPINT_EPDISD_Msk) == 0) {}
 408              		.loc 1 754 28 view .LVU127
 409 003e 0868     		ldr	r0, [r1]
 754:/Users/joostbooy/Desktop/Code/stm32/lib/tinyusb/src/portable/synopsys/dwc2/dcd_dwc2.c ****       while ((epout[epnum].doepint & DOEPINT_EPDISD_Msk) == 0) {}
 410              		.loc 1 754 45 view .LVU128
 411 0040 002A     		cmp	r2, #0
 412 0042 14BF     		ite	ne
 413 0044 2A46     		movne	r2, r5
 414              	.LVL38:
 754:/Users/joostbooy/Desktop/Code/stm32/lib/tinyusb/src/portable/synopsys/dwc2/dcd_dwc2.c ****       while ((epout[epnum].doepint & DOEPINT_EPDISD_Msk) == 0) {}
 415              		.loc 1 754 45 view .LVU129
 416 0046 4FF08042 		moveq	r2, #1073741824
 754:/Users/joostbooy/Desktop/Code/stm32/lib/tinyusb/src/portable/synopsys/dwc2/dcd_dwc2.c ****       while ((epout[epnum].doepint & DOEPINT_EPDISD_Msk) == 0) {}
 417              		.loc 1 754 28 view .LVU130
 418 004a 0243     		orrs	r2, r2, r0
 419 004c 0A60     		str	r2, [r1]
 755:/Users/joostbooy/Desktop/Code/stm32/lib/tinyusb/src/portable/synopsys/dwc2/dcd_dwc2.c **** 
 420              		.loc 1 755 7 is_stmt 1 view .LVU131
 421              	.L36:
 755:/Users/joostbooy/Desktop/Code/stm32/lib/tinyusb/src/portable/synopsys/dwc2/dcd_dwc2.c **** 
 422              		.loc 1 755 65 discriminator 1 view .LVU132
 755:/Users/joostbooy/Desktop/Code/stm32/lib/tinyusb/src/portable/synopsys/dwc2/dcd_dwc2.c **** 
 423              		.loc 1 755 13 discriminator 1 view .LVU133
 755:/Users/joostbooy/Desktop/Code/stm32/lib/tinyusb/src/portable/synopsys/dwc2/dcd_dwc2.c **** 
 424              		.loc 1 755 27 is_stmt 0 discriminator 1 view .LVU134
 425 004e 8A68     		ldr	r2, [r1, #8]
 755:/Users/joostbooy/Desktop/Code/stm32/lib/tinyusb/src/portable/synopsys/dwc2/dcd_dwc2.c **** 
 426              		.loc 1 755 13 discriminator 1 view .LVU135
 427 0050 9207     		lsls	r2, r2, #30
 428 0052 FCD5     		bpl	.L36
 757:/Users/joostbooy/Desktop/Code/stm32/lib/tinyusb/src/portable/synopsys/dwc2/dcd_dwc2.c **** 
 429              		.loc 1 757 7 is_stmt 1 view .LVU136
 757:/Users/joostbooy/Desktop/Code/stm32/lib/tinyusb/src/portable/synopsys/dwc2/dcd_dwc2.c **** 
 430              		.loc 1 757 28 is_stmt 0 view .LVU137
 431 0054 0224     		movs	r4, #2
 432 0056 8C60     		str	r4, [r1, #8]
 760:/Users/joostbooy/Desktop/Code/stm32/lib/tinyusb/src/portable/synopsys/dwc2/dcd_dwc2.c ****     }
 433              		.loc 1 760 7 is_stmt 1 view .LVU138
 760:/Users/joostbooy/Desktop/Code/stm32/lib/tinyusb/src/portable/synopsys/dwc2/dcd_dwc2.c ****     }
 434              		.loc 1 760 18 is_stmt 0 view .LVU139
ARM GAS  /var/folders/84/_x1cyy_j36g486tldtwl37280000gn/T//cc1ObSsF.s 			page 35


 435 0058 D3F80418 		ldr	r1, [r3, #2052]
 436 005c 41F48065 		orr	r5, r1, #1024
 437 0060 C3F80458 		str	r5, [r3, #2052]
 438              	.LBE196:
 439              		.loc 1 763 1 view .LVU140
 440 0064 30BC     		pop	{r4, r5}
 441              		.cfi_remember_state
 442              		.cfi_restore 5
 443              		.cfi_restore 4
 444              		.cfi_def_cfa_offset 0
 445 0066 7047     		bx	lr
 446              	.LVL39:
 447              	.L61:
 448              		.cfi_restore_state
 449              		.loc 1 763 1 view .LVU141
 450 0068 43F40013 		orr	r3, r3, #2097152
 451 006c D5E7     		b	.L33
 452              	.LVL40:
 453              	.L59:
 454              	.LBB197:
 719:/Users/joostbooy/Desktop/Code/stm32/lib/tinyusb/src/portable/synopsys/dwc2/dcd_dwc2.c **** 
 455              		.loc 1 719 5 is_stmt 1 view .LVU142
 719:/Users/joostbooy/Desktop/Code/stm32/lib/tinyusb/src/portable/synopsys/dwc2/dcd_dwc2.c **** 
 456              		.loc 1 719 18 is_stmt 0 view .LVU143
 457 006e 03F5106C 		add	ip, r3, #2304
 458              	.LVL41:
 722:/Users/joostbooy/Desktop/Code/stm32/lib/tinyusb/src/portable/synopsys/dwc2/dcd_dwc2.c ****       epin[epnum].diepctl |= DIEPCTL_SNAK | (stall ? DIEPCTL_STALL : 0);
 459              		.loc 1 722 5 is_stmt 1 view .LVU144
 722:/Users/joostbooy/Desktop/Code/stm32/lib/tinyusb/src/portable/synopsys/dwc2/dcd_dwc2.c ****       epin[epnum].diepctl |= DIEPCTL_SNAK | (stall ? DIEPCTL_STALL : 0);
 460              		.loc 1 722 8 is_stmt 0 view .LVU145
 461 0072 98B9     		cbnz	r0, .L62
 462              	.LVL42:
 463              	.L22:
 723:/Users/joostbooy/Desktop/Code/stm32/lib/tinyusb/src/portable/synopsys/dwc2/dcd_dwc2.c ****     } else {
 464              		.loc 1 723 7 is_stmt 1 view .LVU146
 723:/Users/joostbooy/Desktop/Code/stm32/lib/tinyusb/src/portable/synopsys/dwc2/dcd_dwc2.c ****     } else {
 465              		.loc 1 723 27 is_stmt 0 view .LVU147
 466 0074 DCF80010 		ldr	r1, [ip]
 723:/Users/joostbooy/Desktop/Code/stm32/lib/tinyusb/src/portable/synopsys/dwc2/dcd_dwc2.c ****     } else {
 467              		.loc 1 723 43 view .LVU148
 468 0078 002A     		cmp	r2, #0
 469 007a 14BF     		ite	ne
 470 007c 4FF00264 		movne	r4, #136314880
 471 0080 4FF00064 		moveq	r4, #134217728
 723:/Users/joostbooy/Desktop/Code/stm32/lib/tinyusb/src/portable/synopsys/dwc2/dcd_dwc2.c ****     } else {
 472              		.loc 1 723 27 view .LVU149
 473 0084 2143     		orrs	r1, r1, r4
 474 0086 CCF80010 		str	r1, [ip]
 475              	.LVL43:
 476              	.L25:
 737:/Users/joostbooy/Desktop/Code/stm32/lib/tinyusb/src/portable/synopsys/dwc2/dcd_dwc2.c ****     while ((dwc2->grstctl & GRSTCTL_TXFFLSH_Msk) != 0) {}
 477              		.loc 1 737 5 is_stmt 1 view .LVU150
 737:/Users/joostbooy/Desktop/Code/stm32/lib/tinyusb/src/portable/synopsys/dwc2/dcd_dwc2.c ****     while ((dwc2->grstctl & GRSTCTL_TXFFLSH_Msk) != 0) {}
 478              		.loc 1 737 29 is_stmt 0 view .LVU151
 479 008a 8001     		lsls	r0, r0, #6
 480              	.LVL44:
 737:/Users/joostbooy/Desktop/Code/stm32/lib/tinyusb/src/portable/synopsys/dwc2/dcd_dwc2.c ****     while ((dwc2->grstctl & GRSTCTL_TXFFLSH_Msk) != 0) {}
ARM GAS  /var/folders/84/_x1cyy_j36g486tldtwl37280000gn/T//cc1ObSsF.s 			page 36


 481              		.loc 1 737 52 view .LVU152
 482 008c 40F02004 		orr	r4, r0, #32
 737:/Users/joostbooy/Desktop/Code/stm32/lib/tinyusb/src/portable/synopsys/dwc2/dcd_dwc2.c ****     while ((dwc2->grstctl & GRSTCTL_TXFFLSH_Msk) != 0) {}
 483              		.loc 1 737 19 view .LVU153
 484 0090 1C61     		str	r4, [r3, #16]
 738:/Users/joostbooy/Desktop/Code/stm32/lib/tinyusb/src/portable/synopsys/dwc2/dcd_dwc2.c ****   } else {
 485              		.loc 1 738 5 is_stmt 1 view .LVU154
 486              	.L29:
 738:/Users/joostbooy/Desktop/Code/stm32/lib/tinyusb/src/portable/synopsys/dwc2/dcd_dwc2.c ****   } else {
 487              		.loc 1 738 57 discriminator 1 view .LVU155
 738:/Users/joostbooy/Desktop/Code/stm32/lib/tinyusb/src/portable/synopsys/dwc2/dcd_dwc2.c ****   } else {
 488              		.loc 1 738 11 discriminator 1 view .LVU156
 738:/Users/joostbooy/Desktop/Code/stm32/lib/tinyusb/src/portable/synopsys/dwc2/dcd_dwc2.c ****   } else {
 489              		.loc 1 738 17 is_stmt 0 discriminator 1 view .LVU157
 490 0092 1A69     		ldr	r2, [r3, #16]
 738:/Users/joostbooy/Desktop/Code/stm32/lib/tinyusb/src/portable/synopsys/dwc2/dcd_dwc2.c ****   } else {
 491              		.loc 1 738 11 discriminator 1 view .LVU158
 492 0094 9406     		lsls	r4, r2, #26
 493 0096 FCD4     		bmi	.L29
 494              	.LBE197:
 495              		.loc 1 763 1 view .LVU159
 496 0098 30BC     		pop	{r4, r5}
 497              		.cfi_remember_state
 498              		.cfi_restore 5
 499              		.cfi_restore 4
 500              		.cfi_def_cfa_offset 0
 501 009a 7047     		bx	lr
 502              	.LVL45:
 503              	.L62:
 504              		.cfi_restore_state
 505              	.LBB198:
 722:/Users/joostbooy/Desktop/Code/stm32/lib/tinyusb/src/portable/synopsys/dwc2/dcd_dwc2.c ****       epin[epnum].diepctl |= DIEPCTL_SNAK | (stall ? DIEPCTL_STALL : 0);
 506              		.loc 1 722 31 discriminator 1 view .LVU160
 507 009c 0CEB401C 		add	ip, ip, r0, lsl #5
 508              	.LVL46:
 722:/Users/joostbooy/Desktop/Code/stm32/lib/tinyusb/src/portable/synopsys/dwc2/dcd_dwc2.c ****       epin[epnum].diepctl |= DIEPCTL_SNAK | (stall ? DIEPCTL_STALL : 0);
 509              		.loc 1 722 38 discriminator 1 view .LVU161
 510 00a0 DCF80040 		ldr	r4, [ip]
 722:/Users/joostbooy/Desktop/Code/stm32/lib/tinyusb/src/portable/synopsys/dwc2/dcd_dwc2.c ****       epin[epnum].diepctl |= DIEPCTL_SNAK | (stall ? DIEPCTL_STALL : 0);
 511              		.loc 1 722 22 discriminator 1 view .LVU162
 512 00a4 002C     		cmp	r4, #0
 513 00a6 E5DA     		bge	.L22
 726:/Users/joostbooy/Desktop/Code/stm32/lib/tinyusb/src/portable/synopsys/dwc2/dcd_dwc2.c ****       while ((epin[epnum].diepint & DIEPINT_INEPNE) == 0) {}
 514              		.loc 1 726 7 is_stmt 1 view .LVU163
 726:/Users/joostbooy/Desktop/Code/stm32/lib/tinyusb/src/portable/synopsys/dwc2/dcd_dwc2.c ****       while ((epin[epnum].diepint & DIEPINT_INEPNE) == 0) {}
 515              		.loc 1 726 27 is_stmt 0 view .LVU164
 516 00a8 DCF80040 		ldr	r4, [ip]
 517 00ac 44F00061 		orr	r1, r4, #134217728
 518 00b0 CCF80010 		str	r1, [ip]
 727:/Users/joostbooy/Desktop/Code/stm32/lib/tinyusb/src/portable/synopsys/dwc2/dcd_dwc2.c **** 
 519              		.loc 1 727 7 is_stmt 1 view .LVU165
 520              	.L26:
 727:/Users/joostbooy/Desktop/Code/stm32/lib/tinyusb/src/portable/synopsys/dwc2/dcd_dwc2.c **** 
 521              		.loc 1 727 60 discriminator 1 view .LVU166
 727:/Users/joostbooy/Desktop/Code/stm32/lib/tinyusb/src/portable/synopsys/dwc2/dcd_dwc2.c **** 
 522              		.loc 1 727 13 discriminator 1 view .LVU167
 727:/Users/joostbooy/Desktop/Code/stm32/lib/tinyusb/src/portable/synopsys/dwc2/dcd_dwc2.c **** 
ARM GAS  /var/folders/84/_x1cyy_j36g486tldtwl37280000gn/T//cc1ObSsF.s 			page 37


 523              		.loc 1 727 26 is_stmt 0 discriminator 1 view .LVU168
 524 00b4 DCF80850 		ldr	r5, [ip, #8]
 727:/Users/joostbooy/Desktop/Code/stm32/lib/tinyusb/src/portable/synopsys/dwc2/dcd_dwc2.c **** 
 525              		.loc 1 727 13 discriminator 1 view .LVU169
 526 00b8 6C06     		lsls	r4, r5, #25
 527 00ba FBD5     		bpl	.L26
 730:/Users/joostbooy/Desktop/Code/stm32/lib/tinyusb/src/portable/synopsys/dwc2/dcd_dwc2.c ****       while ((epin[epnum].diepint & DIEPINT_EPDISD_Msk) == 0) {}
 528              		.loc 1 730 7 is_stmt 1 view .LVU170
 730:/Users/joostbooy/Desktop/Code/stm32/lib/tinyusb/src/portable/synopsys/dwc2/dcd_dwc2.c ****       while ((epin[epnum].diepint & DIEPINT_EPDISD_Msk) == 0) {}
 529              		.loc 1 730 44 is_stmt 0 view .LVU171
 530 00bc 0A49     		ldr	r1, .L63+4
 730:/Users/joostbooy/Desktop/Code/stm32/lib/tinyusb/src/portable/synopsys/dwc2/dcd_dwc2.c ****       while ((epin[epnum].diepint & DIEPINT_EPDISD_Msk) == 0) {}
 531              		.loc 1 730 27 view .LVU172
 532 00be DCF80040 		ldr	r4, [ip]
 730:/Users/joostbooy/Desktop/Code/stm32/lib/tinyusb/src/portable/synopsys/dwc2/dcd_dwc2.c ****       while ((epin[epnum].diepint & DIEPINT_EPDISD_Msk) == 0) {}
 533              		.loc 1 730 44 view .LVU173
 534 00c2 002A     		cmp	r2, #0
 535 00c4 14BF     		ite	ne
 536 00c6 0A46     		movne	r2, r1
 537              	.LVL47:
 730:/Users/joostbooy/Desktop/Code/stm32/lib/tinyusb/src/portable/synopsys/dwc2/dcd_dwc2.c ****       while ((epin[epnum].diepint & DIEPINT_EPDISD_Msk) == 0) {}
 538              		.loc 1 730 44 view .LVU174
 539 00c8 4FF08042 		moveq	r2, #1073741824
 730:/Users/joostbooy/Desktop/Code/stm32/lib/tinyusb/src/portable/synopsys/dwc2/dcd_dwc2.c ****       while ((epin[epnum].diepint & DIEPINT_EPDISD_Msk) == 0) {}
 540              		.loc 1 730 27 view .LVU175
 541 00cc 2243     		orrs	r2, r2, r4
 542 00ce CCF80020 		str	r2, [ip]
 731:/Users/joostbooy/Desktop/Code/stm32/lib/tinyusb/src/portable/synopsys/dwc2/dcd_dwc2.c **** 
 543              		.loc 1 731 7 is_stmt 1 view .LVU176
 544              	.L28:
 731:/Users/joostbooy/Desktop/Code/stm32/lib/tinyusb/src/portable/synopsys/dwc2/dcd_dwc2.c **** 
 545              		.loc 1 731 64 discriminator 1 view .LVU177
 731:/Users/joostbooy/Desktop/Code/stm32/lib/tinyusb/src/portable/synopsys/dwc2/dcd_dwc2.c **** 
 546              		.loc 1 731 13 discriminator 1 view .LVU178
 731:/Users/joostbooy/Desktop/Code/stm32/lib/tinyusb/src/portable/synopsys/dwc2/dcd_dwc2.c **** 
 547              		.loc 1 731 26 is_stmt 0 discriminator 1 view .LVU179
 548 00d2 DCF80820 		ldr	r2, [ip, #8]
 731:/Users/joostbooy/Desktop/Code/stm32/lib/tinyusb/src/portable/synopsys/dwc2/dcd_dwc2.c **** 
 549              		.loc 1 731 13 discriminator 1 view .LVU180
 550 00d6 9507     		lsls	r5, r2, #30
 551 00d8 FBD5     		bpl	.L28
 733:/Users/joostbooy/Desktop/Code/stm32/lib/tinyusb/src/portable/synopsys/dwc2/dcd_dwc2.c ****     }
 552              		.loc 1 733 7 is_stmt 1 view .LVU181
 733:/Users/joostbooy/Desktop/Code/stm32/lib/tinyusb/src/portable/synopsys/dwc2/dcd_dwc2.c ****     }
 553              		.loc 1 733 27 is_stmt 0 view .LVU182
 554 00da 0225     		movs	r5, #2
 555 00dc CCF80850 		str	r5, [ip, #8]
 556 00e0 D3E7     		b	.L25
 557              	.L64:
 558 00e2 00BF     		.align	2
 559              	.L63:
 560 00e4 00000000 		.word	.LANCHOR0
 561 00e8 00002040 		.word	1075838976
 562              	.LBE198:
 563              		.cfi_endproc
 564              	.LFE324:
 566              		.section	.text.dcd_int_enable,"ax",%progbits
ARM GAS  /var/folders/84/_x1cyy_j36g486tldtwl37280000gn/T//cc1ObSsF.s 			page 38


 567              		.align	1
 568              		.p2align 2,,3
 569              		.global	dcd_int_enable
 570              		.syntax unified
 571              		.thumb
 572              		.thumb_func
 573              		.fpu fpv4-sp-d16
 575              	dcd_int_enable:
 576              	.LVL48:
 577              	.LFB313:
 484:/Users/joostbooy/Desktop/Code/stm32/lib/tinyusb/src/portable/synopsys/dwc2/dcd_dwc2.c ****   dwc2_dcd_int_enable(rhport);
 578              		.loc 1 484 37 is_stmt 1 view -0
 579              		.cfi_startproc
 580              		@ args = 0, pretend = 0, frame = 0
 581              		@ frame_needed = 0, uses_anonymous_args = 0
 582              		@ link register save eliminated.
 485:/Users/joostbooy/Desktop/Code/stm32/lib/tinyusb/src/portable/synopsys/dwc2/dcd_dwc2.c **** }
 583              		.loc 1 485 3 view .LVU184
 584              	.LBB199:
 585              	.LBB200:
 586              		.file 4 "/Users/joostbooy/Desktop/Code/stm32/lib/tinyusb/src/portable/synopsys/dwc2/dwc2_stm32.h"
   1:/Users/joostbooy/Desktop/Code/stm32/lib/tinyusb/src/portable/synopsys/dwc2/dwc2_stm32.h **** /*
   2:/Users/joostbooy/Desktop/Code/stm32/lib/tinyusb/src/portable/synopsys/dwc2/dwc2_stm32.h ****  * The MIT License (MIT)
   3:/Users/joostbooy/Desktop/Code/stm32/lib/tinyusb/src/portable/synopsys/dwc2/dwc2_stm32.h ****  *
   4:/Users/joostbooy/Desktop/Code/stm32/lib/tinyusb/src/portable/synopsys/dwc2/dwc2_stm32.h ****  * Copyright (c) 2021, Ha Thach (tinyusb.org)
   5:/Users/joostbooy/Desktop/Code/stm32/lib/tinyusb/src/portable/synopsys/dwc2/dwc2_stm32.h ****  *
   6:/Users/joostbooy/Desktop/Code/stm32/lib/tinyusb/src/portable/synopsys/dwc2/dwc2_stm32.h ****  * Permission is hereby granted, free of charge, to any person obtaining a copy
   7:/Users/joostbooy/Desktop/Code/stm32/lib/tinyusb/src/portable/synopsys/dwc2/dwc2_stm32.h ****  * of this software and associated documentation files (the "Software"), to deal
   8:/Users/joostbooy/Desktop/Code/stm32/lib/tinyusb/src/portable/synopsys/dwc2/dwc2_stm32.h ****  * in the Software without restriction, including without limitation the rights
   9:/Users/joostbooy/Desktop/Code/stm32/lib/tinyusb/src/portable/synopsys/dwc2/dwc2_stm32.h ****  * to use, copy, modify, merge, publish, distribute, sublicense, and/or sell
  10:/Users/joostbooy/Desktop/Code/stm32/lib/tinyusb/src/portable/synopsys/dwc2/dwc2_stm32.h ****  * copies of the Software, and to permit persons to whom the Software is
  11:/Users/joostbooy/Desktop/Code/stm32/lib/tinyusb/src/portable/synopsys/dwc2/dwc2_stm32.h ****  * furnished to do so, subject to the following conditions:
  12:/Users/joostbooy/Desktop/Code/stm32/lib/tinyusb/src/portable/synopsys/dwc2/dwc2_stm32.h ****  *
  13:/Users/joostbooy/Desktop/Code/stm32/lib/tinyusb/src/portable/synopsys/dwc2/dwc2_stm32.h ****  * The above copyright notice and this permission notice shall be included in
  14:/Users/joostbooy/Desktop/Code/stm32/lib/tinyusb/src/portable/synopsys/dwc2/dwc2_stm32.h ****  * all copies or substantial portions of the Software.
  15:/Users/joostbooy/Desktop/Code/stm32/lib/tinyusb/src/portable/synopsys/dwc2/dwc2_stm32.h ****  *
  16:/Users/joostbooy/Desktop/Code/stm32/lib/tinyusb/src/portable/synopsys/dwc2/dwc2_stm32.h ****  * THE SOFTWARE IS PROVIDED "AS IS", WITHOUT WARRANTY OF ANY KIND, EXPRESS OR
  17:/Users/joostbooy/Desktop/Code/stm32/lib/tinyusb/src/portable/synopsys/dwc2/dwc2_stm32.h ****  * IMPLIED, INCLUDING BUT NOT LIMITED TO THE WARRANTIES OF MERCHANTABILITY,
  18:/Users/joostbooy/Desktop/Code/stm32/lib/tinyusb/src/portable/synopsys/dwc2/dwc2_stm32.h ****  * FITNESS FOR A PARTICULAR PURPOSE AND NONINFRINGEMENT. IN NO EVENT SHALL THE
  19:/Users/joostbooy/Desktop/Code/stm32/lib/tinyusb/src/portable/synopsys/dwc2/dwc2_stm32.h ****  * AUTHORS OR COPYRIGHT HOLDERS BE LIABLE FOR ANY CLAIM, DAMAGES OR OTHER
  20:/Users/joostbooy/Desktop/Code/stm32/lib/tinyusb/src/portable/synopsys/dwc2/dwc2_stm32.h ****  * LIABILITY, WHETHER IN AN ACTION OF CONTRACT, TORT OR OTHERWISE, ARISING FROM,
  21:/Users/joostbooy/Desktop/Code/stm32/lib/tinyusb/src/portable/synopsys/dwc2/dwc2_stm32.h ****  * OUT OF OR IN CONNECTION WITH THE SOFTWARE OR THE USE OR OTHER DEALINGS IN
  22:/Users/joostbooy/Desktop/Code/stm32/lib/tinyusb/src/portable/synopsys/dwc2/dwc2_stm32.h ****  * THE SOFTWARE.
  23:/Users/joostbooy/Desktop/Code/stm32/lib/tinyusb/src/portable/synopsys/dwc2/dwc2_stm32.h ****  *
  24:/Users/joostbooy/Desktop/Code/stm32/lib/tinyusb/src/portable/synopsys/dwc2/dwc2_stm32.h ****  * This file is part of the TinyUSB stack.
  25:/Users/joostbooy/Desktop/Code/stm32/lib/tinyusb/src/portable/synopsys/dwc2/dwc2_stm32.h ****  */
  26:/Users/joostbooy/Desktop/Code/stm32/lib/tinyusb/src/portable/synopsys/dwc2/dwc2_stm32.h **** 
  27:/Users/joostbooy/Desktop/Code/stm32/lib/tinyusb/src/portable/synopsys/dwc2/dwc2_stm32.h **** #ifndef DWC2_STM32_H_
  28:/Users/joostbooy/Desktop/Code/stm32/lib/tinyusb/src/portable/synopsys/dwc2/dwc2_stm32.h **** #define DWC2_STM32_H_
  29:/Users/joostbooy/Desktop/Code/stm32/lib/tinyusb/src/portable/synopsys/dwc2/dwc2_stm32.h **** 
  30:/Users/joostbooy/Desktop/Code/stm32/lib/tinyusb/src/portable/synopsys/dwc2/dwc2_stm32.h **** #ifdef __cplusplus
  31:/Users/joostbooy/Desktop/Code/stm32/lib/tinyusb/src/portable/synopsys/dwc2/dwc2_stm32.h **** extern "C" {
  32:/Users/joostbooy/Desktop/Code/stm32/lib/tinyusb/src/portable/synopsys/dwc2/dwc2_stm32.h **** #endif
  33:/Users/joostbooy/Desktop/Code/stm32/lib/tinyusb/src/portable/synopsys/dwc2/dwc2_stm32.h **** 
  34:/Users/joostbooy/Desktop/Code/stm32/lib/tinyusb/src/portable/synopsys/dwc2/dwc2_stm32.h **** // EP_MAX       : Max number of bi-directional endpoints including EP0
  35:/Users/joostbooy/Desktop/Code/stm32/lib/tinyusb/src/portable/synopsys/dwc2/dwc2_stm32.h **** // EP_FIFO_SIZE : Size of dedicated USB SRAM
  36:/Users/joostbooy/Desktop/Code/stm32/lib/tinyusb/src/portable/synopsys/dwc2/dwc2_stm32.h **** #if CFG_TUSB_MCU == OPT_MCU_STM32F1
ARM GAS  /var/folders/84/_x1cyy_j36g486tldtwl37280000gn/T//cc1ObSsF.s 			page 39


  37:/Users/joostbooy/Desktop/Code/stm32/lib/tinyusb/src/portable/synopsys/dwc2/dwc2_stm32.h ****   #include "stm32f1xx.h"
  38:/Users/joostbooy/Desktop/Code/stm32/lib/tinyusb/src/portable/synopsys/dwc2/dwc2_stm32.h ****   #define EP_MAX_FS       4
  39:/Users/joostbooy/Desktop/Code/stm32/lib/tinyusb/src/portable/synopsys/dwc2/dwc2_stm32.h ****   #define EP_FIFO_SIZE_FS 1280
  40:/Users/joostbooy/Desktop/Code/stm32/lib/tinyusb/src/portable/synopsys/dwc2/dwc2_stm32.h **** 
  41:/Users/joostbooy/Desktop/Code/stm32/lib/tinyusb/src/portable/synopsys/dwc2/dwc2_stm32.h **** #elif CFG_TUSB_MCU == OPT_MCU_STM32F2
  42:/Users/joostbooy/Desktop/Code/stm32/lib/tinyusb/src/portable/synopsys/dwc2/dwc2_stm32.h ****   #include "stm32f2xx.h"
  43:/Users/joostbooy/Desktop/Code/stm32/lib/tinyusb/src/portable/synopsys/dwc2/dwc2_stm32.h ****   #define EP_MAX_FS       USB_OTG_FS_MAX_IN_ENDPOINTS
  44:/Users/joostbooy/Desktop/Code/stm32/lib/tinyusb/src/portable/synopsys/dwc2/dwc2_stm32.h ****   #define EP_FIFO_SIZE_FS USB_OTG_FS_TOTAL_FIFO_SIZE
  45:/Users/joostbooy/Desktop/Code/stm32/lib/tinyusb/src/portable/synopsys/dwc2/dwc2_stm32.h **** 
  46:/Users/joostbooy/Desktop/Code/stm32/lib/tinyusb/src/portable/synopsys/dwc2/dwc2_stm32.h ****   #define EP_MAX_HS       USB_OTG_HS_MAX_IN_ENDPOINTS
  47:/Users/joostbooy/Desktop/Code/stm32/lib/tinyusb/src/portable/synopsys/dwc2/dwc2_stm32.h ****   #define EP_FIFO_SIZE_HS USB_OTG_HS_TOTAL_FIFO_SIZE
  48:/Users/joostbooy/Desktop/Code/stm32/lib/tinyusb/src/portable/synopsys/dwc2/dwc2_stm32.h **** 
  49:/Users/joostbooy/Desktop/Code/stm32/lib/tinyusb/src/portable/synopsys/dwc2/dwc2_stm32.h **** #elif CFG_TUSB_MCU == OPT_MCU_STM32F4
  50:/Users/joostbooy/Desktop/Code/stm32/lib/tinyusb/src/portable/synopsys/dwc2/dwc2_stm32.h ****   #include "stm32f4xx.h"
  51:/Users/joostbooy/Desktop/Code/stm32/lib/tinyusb/src/portable/synopsys/dwc2/dwc2_stm32.h ****   #define EP_MAX_FS       USB_OTG_FS_MAX_IN_ENDPOINTS
  52:/Users/joostbooy/Desktop/Code/stm32/lib/tinyusb/src/portable/synopsys/dwc2/dwc2_stm32.h ****   #define EP_FIFO_SIZE_FS USB_OTG_FS_TOTAL_FIFO_SIZE
  53:/Users/joostbooy/Desktop/Code/stm32/lib/tinyusb/src/portable/synopsys/dwc2/dwc2_stm32.h **** 
  54:/Users/joostbooy/Desktop/Code/stm32/lib/tinyusb/src/portable/synopsys/dwc2/dwc2_stm32.h ****   #define EP_MAX_HS       USB_OTG_HS_MAX_IN_ENDPOINTS
  55:/Users/joostbooy/Desktop/Code/stm32/lib/tinyusb/src/portable/synopsys/dwc2/dwc2_stm32.h ****   #define EP_FIFO_SIZE_HS USB_OTG_HS_TOTAL_FIFO_SIZE
  56:/Users/joostbooy/Desktop/Code/stm32/lib/tinyusb/src/portable/synopsys/dwc2/dwc2_stm32.h **** 
  57:/Users/joostbooy/Desktop/Code/stm32/lib/tinyusb/src/portable/synopsys/dwc2/dwc2_stm32.h **** #elif CFG_TUSB_MCU == OPT_MCU_STM32H7
  58:/Users/joostbooy/Desktop/Code/stm32/lib/tinyusb/src/portable/synopsys/dwc2/dwc2_stm32.h ****   #include "stm32h7xx.h"
  59:/Users/joostbooy/Desktop/Code/stm32/lib/tinyusb/src/portable/synopsys/dwc2/dwc2_stm32.h ****   #define EP_MAX_FS       9
  60:/Users/joostbooy/Desktop/Code/stm32/lib/tinyusb/src/portable/synopsys/dwc2/dwc2_stm32.h ****   #define EP_FIFO_SIZE_FS 4096
  61:/Users/joostbooy/Desktop/Code/stm32/lib/tinyusb/src/portable/synopsys/dwc2/dwc2_stm32.h **** 
  62:/Users/joostbooy/Desktop/Code/stm32/lib/tinyusb/src/portable/synopsys/dwc2/dwc2_stm32.h ****   #define EP_MAX_HS       9
  63:/Users/joostbooy/Desktop/Code/stm32/lib/tinyusb/src/portable/synopsys/dwc2/dwc2_stm32.h ****   #define EP_FIFO_SIZE_HS 4096
  64:/Users/joostbooy/Desktop/Code/stm32/lib/tinyusb/src/portable/synopsys/dwc2/dwc2_stm32.h **** 
  65:/Users/joostbooy/Desktop/Code/stm32/lib/tinyusb/src/portable/synopsys/dwc2/dwc2_stm32.h ****   // NOTE: H7 with only 1 USB port: H72x / H73x / H7Ax / H7Bx
  66:/Users/joostbooy/Desktop/Code/stm32/lib/tinyusb/src/portable/synopsys/dwc2/dwc2_stm32.h ****   // USB_OTG_FS_PERIPH_BASE and OTG_FS_IRQn not defined
  67:/Users/joostbooy/Desktop/Code/stm32/lib/tinyusb/src/portable/synopsys/dwc2/dwc2_stm32.h ****   #if (! defined USB2_OTG_FS)
  68:/Users/joostbooy/Desktop/Code/stm32/lib/tinyusb/src/portable/synopsys/dwc2/dwc2_stm32.h ****     #define USB_OTG_FS_PERIPH_BASE  USB1_OTG_HS_PERIPH_BASE
  69:/Users/joostbooy/Desktop/Code/stm32/lib/tinyusb/src/portable/synopsys/dwc2/dwc2_stm32.h ****     #define OTG_FS_IRQn             OTG_HS_IRQn
  70:/Users/joostbooy/Desktop/Code/stm32/lib/tinyusb/src/portable/synopsys/dwc2/dwc2_stm32.h ****   #endif
  71:/Users/joostbooy/Desktop/Code/stm32/lib/tinyusb/src/portable/synopsys/dwc2/dwc2_stm32.h **** 
  72:/Users/joostbooy/Desktop/Code/stm32/lib/tinyusb/src/portable/synopsys/dwc2/dwc2_stm32.h **** #elif CFG_TUSB_MCU == OPT_MCU_STM32F7
  73:/Users/joostbooy/Desktop/Code/stm32/lib/tinyusb/src/portable/synopsys/dwc2/dwc2_stm32.h ****   #include "stm32f7xx.h"
  74:/Users/joostbooy/Desktop/Code/stm32/lib/tinyusb/src/portable/synopsys/dwc2/dwc2_stm32.h ****   #define EP_MAX_FS       6
  75:/Users/joostbooy/Desktop/Code/stm32/lib/tinyusb/src/portable/synopsys/dwc2/dwc2_stm32.h ****   #define EP_FIFO_SIZE_FS 1280
  76:/Users/joostbooy/Desktop/Code/stm32/lib/tinyusb/src/portable/synopsys/dwc2/dwc2_stm32.h **** 
  77:/Users/joostbooy/Desktop/Code/stm32/lib/tinyusb/src/portable/synopsys/dwc2/dwc2_stm32.h ****   #define EP_MAX_HS       9
  78:/Users/joostbooy/Desktop/Code/stm32/lib/tinyusb/src/portable/synopsys/dwc2/dwc2_stm32.h ****   #define EP_FIFO_SIZE_HS 4096
  79:/Users/joostbooy/Desktop/Code/stm32/lib/tinyusb/src/portable/synopsys/dwc2/dwc2_stm32.h **** 
  80:/Users/joostbooy/Desktop/Code/stm32/lib/tinyusb/src/portable/synopsys/dwc2/dwc2_stm32.h **** #elif CFG_TUSB_MCU == OPT_MCU_STM32L4
  81:/Users/joostbooy/Desktop/Code/stm32/lib/tinyusb/src/portable/synopsys/dwc2/dwc2_stm32.h ****   #include "stm32l4xx.h"
  82:/Users/joostbooy/Desktop/Code/stm32/lib/tinyusb/src/portable/synopsys/dwc2/dwc2_stm32.h ****   #define EP_MAX_FS       6
  83:/Users/joostbooy/Desktop/Code/stm32/lib/tinyusb/src/portable/synopsys/dwc2/dwc2_stm32.h ****   #define EP_FIFO_SIZE_FS 1280
  84:/Users/joostbooy/Desktop/Code/stm32/lib/tinyusb/src/portable/synopsys/dwc2/dwc2_stm32.h **** 
  85:/Users/joostbooy/Desktop/Code/stm32/lib/tinyusb/src/portable/synopsys/dwc2/dwc2_stm32.h **** #elif CFG_TUSB_MCU == OPT_MCU_STM32U5
  86:/Users/joostbooy/Desktop/Code/stm32/lib/tinyusb/src/portable/synopsys/dwc2/dwc2_stm32.h ****   #include "stm32u5xx.h"
  87:/Users/joostbooy/Desktop/Code/stm32/lib/tinyusb/src/portable/synopsys/dwc2/dwc2_stm32.h ****   // U59x/5Ax/5Fx/5Gx are highspeed with built-in HS PHY
  88:/Users/joostbooy/Desktop/Code/stm32/lib/tinyusb/src/portable/synopsys/dwc2/dwc2_stm32.h ****   #ifdef USB_OTG_FS
  89:/Users/joostbooy/Desktop/Code/stm32/lib/tinyusb/src/portable/synopsys/dwc2/dwc2_stm32.h ****     #define USB_OTG_FS_PERIPH_BASE    USB_OTG_FS_BASE
  90:/Users/joostbooy/Desktop/Code/stm32/lib/tinyusb/src/portable/synopsys/dwc2/dwc2_stm32.h ****     #define EP_MAX_FS                 6
  91:/Users/joostbooy/Desktop/Code/stm32/lib/tinyusb/src/portable/synopsys/dwc2/dwc2_stm32.h ****     #define EP_FIFO_SIZE_FS           1280
  92:/Users/joostbooy/Desktop/Code/stm32/lib/tinyusb/src/portable/synopsys/dwc2/dwc2_stm32.h ****   #else
  93:/Users/joostbooy/Desktop/Code/stm32/lib/tinyusb/src/portable/synopsys/dwc2/dwc2_stm32.h ****     #define USB_OTG_HS_PERIPH_BASE    USB_OTG_HS_BASE
ARM GAS  /var/folders/84/_x1cyy_j36g486tldtwl37280000gn/T//cc1ObSsF.s 			page 40


  94:/Users/joostbooy/Desktop/Code/stm32/lib/tinyusb/src/portable/synopsys/dwc2/dwc2_stm32.h ****     #define EP_MAX_HS                 9
  95:/Users/joostbooy/Desktop/Code/stm32/lib/tinyusb/src/portable/synopsys/dwc2/dwc2_stm32.h ****     #define EP_FIFO_SIZE_HS           4096
  96:/Users/joostbooy/Desktop/Code/stm32/lib/tinyusb/src/portable/synopsys/dwc2/dwc2_stm32.h ****   #endif
  97:/Users/joostbooy/Desktop/Code/stm32/lib/tinyusb/src/portable/synopsys/dwc2/dwc2_stm32.h **** #else
  98:/Users/joostbooy/Desktop/Code/stm32/lib/tinyusb/src/portable/synopsys/dwc2/dwc2_stm32.h ****   #error "Unsupported MCUs"
  99:/Users/joostbooy/Desktop/Code/stm32/lib/tinyusb/src/portable/synopsys/dwc2/dwc2_stm32.h **** #endif
 100:/Users/joostbooy/Desktop/Code/stm32/lib/tinyusb/src/portable/synopsys/dwc2/dwc2_stm32.h **** 
 101:/Users/joostbooy/Desktop/Code/stm32/lib/tinyusb/src/portable/synopsys/dwc2/dwc2_stm32.h **** // OTG HS always has higher number of endpoints than FS
 102:/Users/joostbooy/Desktop/Code/stm32/lib/tinyusb/src/portable/synopsys/dwc2/dwc2_stm32.h **** #ifdef USB_OTG_HS_PERIPH_BASE
 103:/Users/joostbooy/Desktop/Code/stm32/lib/tinyusb/src/portable/synopsys/dwc2/dwc2_stm32.h ****   #define DWC2_EP_MAX   EP_MAX_HS
 104:/Users/joostbooy/Desktop/Code/stm32/lib/tinyusb/src/portable/synopsys/dwc2/dwc2_stm32.h **** #else
 105:/Users/joostbooy/Desktop/Code/stm32/lib/tinyusb/src/portable/synopsys/dwc2/dwc2_stm32.h ****   #define DWC2_EP_MAX   EP_MAX_FS
 106:/Users/joostbooy/Desktop/Code/stm32/lib/tinyusb/src/portable/synopsys/dwc2/dwc2_stm32.h **** #endif
 107:/Users/joostbooy/Desktop/Code/stm32/lib/tinyusb/src/portable/synopsys/dwc2/dwc2_stm32.h **** 
 108:/Users/joostbooy/Desktop/Code/stm32/lib/tinyusb/src/portable/synopsys/dwc2/dwc2_stm32.h **** // On STM32 for consistency we associate
 109:/Users/joostbooy/Desktop/Code/stm32/lib/tinyusb/src/portable/synopsys/dwc2/dwc2_stm32.h **** // - Port0 to OTG_FS, and Port1 to OTG_HS
 110:/Users/joostbooy/Desktop/Code/stm32/lib/tinyusb/src/portable/synopsys/dwc2/dwc2_stm32.h **** static const dwc2_controller_t _dwc2_controller[] = {
 111:/Users/joostbooy/Desktop/Code/stm32/lib/tinyusb/src/portable/synopsys/dwc2/dwc2_stm32.h ****     #ifdef USB_OTG_FS_PERIPH_BASE
 112:/Users/joostbooy/Desktop/Code/stm32/lib/tinyusb/src/portable/synopsys/dwc2/dwc2_stm32.h ****     { .reg_base = USB_OTG_FS_PERIPH_BASE, .irqnum = OTG_FS_IRQn, .ep_count = EP_MAX_FS, .ep_fifo_si
 113:/Users/joostbooy/Desktop/Code/stm32/lib/tinyusb/src/portable/synopsys/dwc2/dwc2_stm32.h ****     #endif
 114:/Users/joostbooy/Desktop/Code/stm32/lib/tinyusb/src/portable/synopsys/dwc2/dwc2_stm32.h **** 
 115:/Users/joostbooy/Desktop/Code/stm32/lib/tinyusb/src/portable/synopsys/dwc2/dwc2_stm32.h ****     #ifdef USB_OTG_HS_PERIPH_BASE
 116:/Users/joostbooy/Desktop/Code/stm32/lib/tinyusb/src/portable/synopsys/dwc2/dwc2_stm32.h ****     { .reg_base = USB_OTG_HS_PERIPH_BASE, .irqnum = OTG_HS_IRQn, .ep_count = EP_MAX_HS, .ep_fifo_si
 117:/Users/joostbooy/Desktop/Code/stm32/lib/tinyusb/src/portable/synopsys/dwc2/dwc2_stm32.h ****     #endif
 118:/Users/joostbooy/Desktop/Code/stm32/lib/tinyusb/src/portable/synopsys/dwc2/dwc2_stm32.h **** };
 119:/Users/joostbooy/Desktop/Code/stm32/lib/tinyusb/src/portable/synopsys/dwc2/dwc2_stm32.h **** 
 120:/Users/joostbooy/Desktop/Code/stm32/lib/tinyusb/src/portable/synopsys/dwc2/dwc2_stm32.h **** //--------------------------------------------------------------------+
 121:/Users/joostbooy/Desktop/Code/stm32/lib/tinyusb/src/portable/synopsys/dwc2/dwc2_stm32.h **** //
 122:/Users/joostbooy/Desktop/Code/stm32/lib/tinyusb/src/portable/synopsys/dwc2/dwc2_stm32.h **** //--------------------------------------------------------------------+
 123:/Users/joostbooy/Desktop/Code/stm32/lib/tinyusb/src/portable/synopsys/dwc2/dwc2_stm32.h **** 
 124:/Users/joostbooy/Desktop/Code/stm32/lib/tinyusb/src/portable/synopsys/dwc2/dwc2_stm32.h **** // SystemCoreClock is already included by family header
 125:/Users/joostbooy/Desktop/Code/stm32/lib/tinyusb/src/portable/synopsys/dwc2/dwc2_stm32.h **** // extern uint32_t SystemCoreClock;
 126:/Users/joostbooy/Desktop/Code/stm32/lib/tinyusb/src/portable/synopsys/dwc2/dwc2_stm32.h **** 
 127:/Users/joostbooy/Desktop/Code/stm32/lib/tinyusb/src/portable/synopsys/dwc2/dwc2_stm32.h **** TU_ATTR_ALWAYS_INLINE static inline void dwc2_dcd_int_enable(uint8_t rhport) {
 128:/Users/joostbooy/Desktop/Code/stm32/lib/tinyusb/src/portable/synopsys/dwc2/dwc2_stm32.h ****   NVIC_EnableIRQ((IRQn_Type) _dwc2_controller[rhport].irqnum);
 587              		.loc 4 128 54 is_stmt 0 view .LVU185
 588 0000 084B     		ldr	r3, .L67
 589              	.LVL49:
 590              		.loc 4 128 54 view .LVU186
 591              	.LBE200:
 592              	.LBI199:
 127:/Users/joostbooy/Desktop/Code/stm32/lib/tinyusb/src/portable/synopsys/dwc2/dwc2_stm32.h ****   NVIC_EnableIRQ((IRQn_Type) _dwc2_controller[rhport].irqnum);
 593              		.loc 4 127 42 is_stmt 1 view .LVU187
 594              	.LBB203:
 595              		.loc 4 128 3 view .LVU188
 596              		.loc 4 128 54 is_stmt 0 view .LVU189
 597 0002 03EB0010 		add	r0, r3, r0, lsl #4
 598              	.LVL50:
 599              		.loc 4 128 54 view .LVU190
 600 0006 4268     		ldr	r2, [r0, #4]
 601              		.loc 4 128 3 view .LVU191
 602 0008 51B2     		sxtb	r1, r2
 603              	.LVL51:
 604              	.LBB201:
 605              	.LBI201:
 606              		.file 5 "/Users/joostbooy/STM32Cube/Repository/STM32Cube_FW_F4_V1.26.1/Drivers/CMSIS/Include/core_
   1:/Users/joostbooy/STM32Cube/Repository/STM32Cube_FW_F4_V1.26.1/Drivers/CMSIS/Include/core_cm4.h **** /**************************************************************************//**
ARM GAS  /var/folders/84/_x1cyy_j36g486tldtwl37280000gn/T//cc1ObSsF.s 			page 41


   2:/Users/joostbooy/STM32Cube/Repository/STM32Cube_FW_F4_V1.26.1/Drivers/CMSIS/Include/core_cm4.h ****  * @file     core_cm4.h
   3:/Users/joostbooy/STM32Cube/Repository/STM32Cube_FW_F4_V1.26.1/Drivers/CMSIS/Include/core_cm4.h ****  * @brief    CMSIS Cortex-M4 Core Peripheral Access Layer Header File
   4:/Users/joostbooy/STM32Cube/Repository/STM32Cube_FW_F4_V1.26.1/Drivers/CMSIS/Include/core_cm4.h ****  * @version  V5.0.8
   5:/Users/joostbooy/STM32Cube/Repository/STM32Cube_FW_F4_V1.26.1/Drivers/CMSIS/Include/core_cm4.h ****  * @date     04. June 2018
   6:/Users/joostbooy/STM32Cube/Repository/STM32Cube_FW_F4_V1.26.1/Drivers/CMSIS/Include/core_cm4.h ****  ******************************************************************************/
   7:/Users/joostbooy/STM32Cube/Repository/STM32Cube_FW_F4_V1.26.1/Drivers/CMSIS/Include/core_cm4.h **** /*
   8:/Users/joostbooy/STM32Cube/Repository/STM32Cube_FW_F4_V1.26.1/Drivers/CMSIS/Include/core_cm4.h ****  * Copyright (c) 2009-2018 Arm Limited. All rights reserved.
   9:/Users/joostbooy/STM32Cube/Repository/STM32Cube_FW_F4_V1.26.1/Drivers/CMSIS/Include/core_cm4.h ****  *
  10:/Users/joostbooy/STM32Cube/Repository/STM32Cube_FW_F4_V1.26.1/Drivers/CMSIS/Include/core_cm4.h ****  * SPDX-License-Identifier: Apache-2.0
  11:/Users/joostbooy/STM32Cube/Repository/STM32Cube_FW_F4_V1.26.1/Drivers/CMSIS/Include/core_cm4.h ****  *
  12:/Users/joostbooy/STM32Cube/Repository/STM32Cube_FW_F4_V1.26.1/Drivers/CMSIS/Include/core_cm4.h ****  * Licensed under the Apache License, Version 2.0 (the License); you may
  13:/Users/joostbooy/STM32Cube/Repository/STM32Cube_FW_F4_V1.26.1/Drivers/CMSIS/Include/core_cm4.h ****  * not use this file except in compliance with the License.
  14:/Users/joostbooy/STM32Cube/Repository/STM32Cube_FW_F4_V1.26.1/Drivers/CMSIS/Include/core_cm4.h ****  * You may obtain a copy of the License at
  15:/Users/joostbooy/STM32Cube/Repository/STM32Cube_FW_F4_V1.26.1/Drivers/CMSIS/Include/core_cm4.h ****  *
  16:/Users/joostbooy/STM32Cube/Repository/STM32Cube_FW_F4_V1.26.1/Drivers/CMSIS/Include/core_cm4.h ****  * www.apache.org/licenses/LICENSE-2.0
  17:/Users/joostbooy/STM32Cube/Repository/STM32Cube_FW_F4_V1.26.1/Drivers/CMSIS/Include/core_cm4.h ****  *
  18:/Users/joostbooy/STM32Cube/Repository/STM32Cube_FW_F4_V1.26.1/Drivers/CMSIS/Include/core_cm4.h ****  * Unless required by applicable law or agreed to in writing, software
  19:/Users/joostbooy/STM32Cube/Repository/STM32Cube_FW_F4_V1.26.1/Drivers/CMSIS/Include/core_cm4.h ****  * distributed under the License is distributed on an AS IS BASIS, WITHOUT
  20:/Users/joostbooy/STM32Cube/Repository/STM32Cube_FW_F4_V1.26.1/Drivers/CMSIS/Include/core_cm4.h ****  * WARRANTIES OR CONDITIONS OF ANY KIND, either express or implied.
  21:/Users/joostbooy/STM32Cube/Repository/STM32Cube_FW_F4_V1.26.1/Drivers/CMSIS/Include/core_cm4.h ****  * See the License for the specific language governing permissions and
  22:/Users/joostbooy/STM32Cube/Repository/STM32Cube_FW_F4_V1.26.1/Drivers/CMSIS/Include/core_cm4.h ****  * limitations under the License.
  23:/Users/joostbooy/STM32Cube/Repository/STM32Cube_FW_F4_V1.26.1/Drivers/CMSIS/Include/core_cm4.h ****  */
  24:/Users/joostbooy/STM32Cube/Repository/STM32Cube_FW_F4_V1.26.1/Drivers/CMSIS/Include/core_cm4.h **** 
  25:/Users/joostbooy/STM32Cube/Repository/STM32Cube_FW_F4_V1.26.1/Drivers/CMSIS/Include/core_cm4.h **** #if   defined ( __ICCARM__ )
  26:/Users/joostbooy/STM32Cube/Repository/STM32Cube_FW_F4_V1.26.1/Drivers/CMSIS/Include/core_cm4.h ****   #pragma system_include         /* treat file as system include file for MISRA check */
  27:/Users/joostbooy/STM32Cube/Repository/STM32Cube_FW_F4_V1.26.1/Drivers/CMSIS/Include/core_cm4.h **** #elif defined (__clang__)
  28:/Users/joostbooy/STM32Cube/Repository/STM32Cube_FW_F4_V1.26.1/Drivers/CMSIS/Include/core_cm4.h ****   #pragma clang system_header   /* treat file as system include file */
  29:/Users/joostbooy/STM32Cube/Repository/STM32Cube_FW_F4_V1.26.1/Drivers/CMSIS/Include/core_cm4.h **** #endif
  30:/Users/joostbooy/STM32Cube/Repository/STM32Cube_FW_F4_V1.26.1/Drivers/CMSIS/Include/core_cm4.h **** 
  31:/Users/joostbooy/STM32Cube/Repository/STM32Cube_FW_F4_V1.26.1/Drivers/CMSIS/Include/core_cm4.h **** #ifndef __CORE_CM4_H_GENERIC
  32:/Users/joostbooy/STM32Cube/Repository/STM32Cube_FW_F4_V1.26.1/Drivers/CMSIS/Include/core_cm4.h **** #define __CORE_CM4_H_GENERIC
  33:/Users/joostbooy/STM32Cube/Repository/STM32Cube_FW_F4_V1.26.1/Drivers/CMSIS/Include/core_cm4.h **** 
  34:/Users/joostbooy/STM32Cube/Repository/STM32Cube_FW_F4_V1.26.1/Drivers/CMSIS/Include/core_cm4.h **** #include <stdint.h>
  35:/Users/joostbooy/STM32Cube/Repository/STM32Cube_FW_F4_V1.26.1/Drivers/CMSIS/Include/core_cm4.h **** 
  36:/Users/joostbooy/STM32Cube/Repository/STM32Cube_FW_F4_V1.26.1/Drivers/CMSIS/Include/core_cm4.h **** #ifdef __cplusplus
  37:/Users/joostbooy/STM32Cube/Repository/STM32Cube_FW_F4_V1.26.1/Drivers/CMSIS/Include/core_cm4.h ****  extern "C" {
  38:/Users/joostbooy/STM32Cube/Repository/STM32Cube_FW_F4_V1.26.1/Drivers/CMSIS/Include/core_cm4.h **** #endif
  39:/Users/joostbooy/STM32Cube/Repository/STM32Cube_FW_F4_V1.26.1/Drivers/CMSIS/Include/core_cm4.h **** 
  40:/Users/joostbooy/STM32Cube/Repository/STM32Cube_FW_F4_V1.26.1/Drivers/CMSIS/Include/core_cm4.h **** /**
  41:/Users/joostbooy/STM32Cube/Repository/STM32Cube_FW_F4_V1.26.1/Drivers/CMSIS/Include/core_cm4.h ****   \page CMSIS_MISRA_Exceptions  MISRA-C:2004 Compliance Exceptions
  42:/Users/joostbooy/STM32Cube/Repository/STM32Cube_FW_F4_V1.26.1/Drivers/CMSIS/Include/core_cm4.h ****   CMSIS violates the following MISRA-C:2004 rules:
  43:/Users/joostbooy/STM32Cube/Repository/STM32Cube_FW_F4_V1.26.1/Drivers/CMSIS/Include/core_cm4.h **** 
  44:/Users/joostbooy/STM32Cube/Repository/STM32Cube_FW_F4_V1.26.1/Drivers/CMSIS/Include/core_cm4.h ****    \li Required Rule 8.5, object/function definition in header file.<br>
  45:/Users/joostbooy/STM32Cube/Repository/STM32Cube_FW_F4_V1.26.1/Drivers/CMSIS/Include/core_cm4.h ****      Function definitions in header files are used to allow 'inlining'.
  46:/Users/joostbooy/STM32Cube/Repository/STM32Cube_FW_F4_V1.26.1/Drivers/CMSIS/Include/core_cm4.h **** 
  47:/Users/joostbooy/STM32Cube/Repository/STM32Cube_FW_F4_V1.26.1/Drivers/CMSIS/Include/core_cm4.h ****    \li Required Rule 18.4, declaration of union type or object of union type: '{...}'.<br>
  48:/Users/joostbooy/STM32Cube/Repository/STM32Cube_FW_F4_V1.26.1/Drivers/CMSIS/Include/core_cm4.h ****      Unions are used for effective representation of core registers.
  49:/Users/joostbooy/STM32Cube/Repository/STM32Cube_FW_F4_V1.26.1/Drivers/CMSIS/Include/core_cm4.h **** 
  50:/Users/joostbooy/STM32Cube/Repository/STM32Cube_FW_F4_V1.26.1/Drivers/CMSIS/Include/core_cm4.h ****    \li Advisory Rule 19.7, Function-like macro defined.<br>
  51:/Users/joostbooy/STM32Cube/Repository/STM32Cube_FW_F4_V1.26.1/Drivers/CMSIS/Include/core_cm4.h ****      Function-like macros are used to allow more efficient code.
  52:/Users/joostbooy/STM32Cube/Repository/STM32Cube_FW_F4_V1.26.1/Drivers/CMSIS/Include/core_cm4.h ****  */
  53:/Users/joostbooy/STM32Cube/Repository/STM32Cube_FW_F4_V1.26.1/Drivers/CMSIS/Include/core_cm4.h **** 
  54:/Users/joostbooy/STM32Cube/Repository/STM32Cube_FW_F4_V1.26.1/Drivers/CMSIS/Include/core_cm4.h **** 
  55:/Users/joostbooy/STM32Cube/Repository/STM32Cube_FW_F4_V1.26.1/Drivers/CMSIS/Include/core_cm4.h **** /*******************************************************************************
  56:/Users/joostbooy/STM32Cube/Repository/STM32Cube_FW_F4_V1.26.1/Drivers/CMSIS/Include/core_cm4.h ****  *                 CMSIS definitions
  57:/Users/joostbooy/STM32Cube/Repository/STM32Cube_FW_F4_V1.26.1/Drivers/CMSIS/Include/core_cm4.h ****  ******************************************************************************/
  58:/Users/joostbooy/STM32Cube/Repository/STM32Cube_FW_F4_V1.26.1/Drivers/CMSIS/Include/core_cm4.h **** /**
ARM GAS  /var/folders/84/_x1cyy_j36g486tldtwl37280000gn/T//cc1ObSsF.s 			page 42


  59:/Users/joostbooy/STM32Cube/Repository/STM32Cube_FW_F4_V1.26.1/Drivers/CMSIS/Include/core_cm4.h ****   \ingroup Cortex_M4
  60:/Users/joostbooy/STM32Cube/Repository/STM32Cube_FW_F4_V1.26.1/Drivers/CMSIS/Include/core_cm4.h ****   @{
  61:/Users/joostbooy/STM32Cube/Repository/STM32Cube_FW_F4_V1.26.1/Drivers/CMSIS/Include/core_cm4.h ****  */
  62:/Users/joostbooy/STM32Cube/Repository/STM32Cube_FW_F4_V1.26.1/Drivers/CMSIS/Include/core_cm4.h **** 
  63:/Users/joostbooy/STM32Cube/Repository/STM32Cube_FW_F4_V1.26.1/Drivers/CMSIS/Include/core_cm4.h **** #include "cmsis_version.h"
  64:/Users/joostbooy/STM32Cube/Repository/STM32Cube_FW_F4_V1.26.1/Drivers/CMSIS/Include/core_cm4.h **** 
  65:/Users/joostbooy/STM32Cube/Repository/STM32Cube_FW_F4_V1.26.1/Drivers/CMSIS/Include/core_cm4.h **** /* CMSIS CM4 definitions */
  66:/Users/joostbooy/STM32Cube/Repository/STM32Cube_FW_F4_V1.26.1/Drivers/CMSIS/Include/core_cm4.h **** #define __CM4_CMSIS_VERSION_MAIN  (__CM_CMSIS_VERSION_MAIN)              /*!< \deprecated [31:16] C
  67:/Users/joostbooy/STM32Cube/Repository/STM32Cube_FW_F4_V1.26.1/Drivers/CMSIS/Include/core_cm4.h **** #define __CM4_CMSIS_VERSION_SUB   (__CM_CMSIS_VERSION_SUB)               /*!< \deprecated [15:0]  C
  68:/Users/joostbooy/STM32Cube/Repository/STM32Cube_FW_F4_V1.26.1/Drivers/CMSIS/Include/core_cm4.h **** #define __CM4_CMSIS_VERSION       ((__CM4_CMSIS_VERSION_MAIN << 16U) | \
  69:/Users/joostbooy/STM32Cube/Repository/STM32Cube_FW_F4_V1.26.1/Drivers/CMSIS/Include/core_cm4.h ****                                     __CM4_CMSIS_VERSION_SUB           )  /*!< \deprecated CMSIS HAL
  70:/Users/joostbooy/STM32Cube/Repository/STM32Cube_FW_F4_V1.26.1/Drivers/CMSIS/Include/core_cm4.h **** 
  71:/Users/joostbooy/STM32Cube/Repository/STM32Cube_FW_F4_V1.26.1/Drivers/CMSIS/Include/core_cm4.h **** #define __CORTEX_M                (4U)                                   /*!< Cortex-M Core */
  72:/Users/joostbooy/STM32Cube/Repository/STM32Cube_FW_F4_V1.26.1/Drivers/CMSIS/Include/core_cm4.h **** 
  73:/Users/joostbooy/STM32Cube/Repository/STM32Cube_FW_F4_V1.26.1/Drivers/CMSIS/Include/core_cm4.h **** /** __FPU_USED indicates whether an FPU is used or not.
  74:/Users/joostbooy/STM32Cube/Repository/STM32Cube_FW_F4_V1.26.1/Drivers/CMSIS/Include/core_cm4.h ****     For this, __FPU_PRESENT has to be checked prior to making use of FPU specific registers and fun
  75:/Users/joostbooy/STM32Cube/Repository/STM32Cube_FW_F4_V1.26.1/Drivers/CMSIS/Include/core_cm4.h **** */
  76:/Users/joostbooy/STM32Cube/Repository/STM32Cube_FW_F4_V1.26.1/Drivers/CMSIS/Include/core_cm4.h **** #if defined ( __CC_ARM )
  77:/Users/joostbooy/STM32Cube/Repository/STM32Cube_FW_F4_V1.26.1/Drivers/CMSIS/Include/core_cm4.h ****   #if defined __TARGET_FPU_VFP
