ARM GAS  /var/folders/84/_x1cyy_j36g486tldtwl37280000gn/T//ccBOLdZ4.s 			page 1


   1              		.cpu cortex-m4
   2              		.eabi_attribute 27, 1
   3              		.eabi_attribute 28, 1
   4              		.eabi_attribute 20, 1
   5              		.eabi_attribute 21, 1
   6              		.eabi_attribute 23, 3
   7              		.eabi_attribute 24, 1
   8              		.eabi_attribute 25, 1
   9              		.eabi_attribute 26, 1
  10              		.eabi_attribute 30, 2
  11              		.eabi_attribute 34, 1
  12              		.eabi_attribute 18, 4
  13              		.file	"diskio.cpp"
  14              		.text
  15              	.Ltext0:
  16              		.cfi_sections	.debug_frame
  17              		.section	.text._ZN4Sdio9init_cardEv,"axG",%progbits,_ZN4Sdio9init_cardEv,comdat
  18              		.align	1
  19              		.p2align 2,,3
  20              		.weak	_ZN4Sdio9init_cardEv
  21              		.arch armv7e-m
  22              		.syntax unified
  23              		.thumb
  24              		.thumb_func
  25              		.fpu fpv4-sp-d16
  27              	_ZN4Sdio9init_cardEv:
  28              	.LVL0:
  29              	.LFB1992:
  30              		.file 1 "Drivers/sdio.h"
   1:Drivers/sdio.h **** #ifndef Sdio_h
   2:Drivers/sdio.h **** #define Sdio_h
   3:Drivers/sdio.h **** 
   4:Drivers/sdio.h **** #include "stmf4lib.h"
   5:Drivers/sdio.h **** #include "timeOut.h"
   6:Drivers/sdio.h **** #include "debug.h"
   7:Drivers/sdio.h **** 
   8:Drivers/sdio.h **** // Based on:
   9:Drivers/sdio.h **** // https://github.com/westlicht/performer/blob/master/src/platform/stm32/drivers/SdCard.cpp
  10:Drivers/sdio.h **** 
  11:Drivers/sdio.h **** class Sdio {
  12:Drivers/sdio.h **** 
  13:Drivers/sdio.h **** public:
  14:Drivers/sdio.h **** 
  15:Drivers/sdio.h **** 	enum Command {
  16:Drivers/sdio.h **** 		CMD0_SOFT_RESET					= 0,
  17:Drivers/sdio.h **** 		CMD1_INITIALISE					= 1,
  18:Drivers/sdio.h **** 		CMD8_SEND_IF_COND				= 8,	// Interface condition
  19:Drivers/sdio.h **** 		CMD9_READ_CSD_REGISTER			= 9,	// Card specific data
  20:Drivers/sdio.h **** 		CMD10_READ_CID_REGISTER			= 10,	// Card id
  21:Drivers/sdio.h **** 		CMD12_STOP_READ					= 12,
  22:Drivers/sdio.h **** 		ACMD13_SD_STATUS				= 13,
  23:Drivers/sdio.h **** 		CMD16_CHANGE_BLOCK_SIZE			= 16,
  24:Drivers/sdio.h **** 		CMD17_READ_BLOCK				= 17,
  25:Drivers/sdio.h **** 		CMD18_READ_MULTIPLE_BLOCKS		= 18,
  26:Drivers/sdio.h **** 		ACMD23_NUM_OF_BLOCKS			= 23,
  27:Drivers/sdio.h **** 		CMD24_WRITE_BLOCK				= 24,
  28:Drivers/sdio.h **** 		CMD25_WRITE_MULTIPLE_BLOCKS		= 25,
ARM GAS  /var/folders/84/_x1cyy_j36g486tldtwl37280000gn/T//ccBOLdZ4.s 			page 2


  29:Drivers/sdio.h **** 		CMD32_ERASE_WR_BLK_START_ADDR	= 32,
  30:Drivers/sdio.h **** 		CMD33_ERASE_WR_BLK_END_ADDR		= 33,
  31:Drivers/sdio.h **** 		CMD38_ERASE						= 38,
  32:Drivers/sdio.h **** 		ACMD41_INIT_SDC					= 41,
  33:Drivers/sdio.h **** 		CMD55_APP_COMMAND 				= 55,	// Precedes all app commands
  34:Drivers/sdio.h **** 		CMD58_READ_OCR					= 58	// Operation condition
  35:Drivers/sdio.h **** 	};
  36:Drivers/sdio.h **** 
  37:Drivers/sdio.h **** 	enum Error {
  38:Drivers/sdio.h **** 		Success,
  39:Drivers/sdio.h **** 		InProgress,
  40:Drivers/sdio.h **** 		Timeout,
  41:Drivers/sdio.h **** 		CRCFail,
  42:Drivers/sdio.h **** 		Unknown,
  43:Drivers/sdio.h **** 	};
  44:Drivers/sdio.h **** 
  45:Drivers/sdio.h **** 	void init();
  46:Drivers/sdio.h **** 
  47:Drivers/sdio.h **** 	bool status() {
  48:Drivers/sdio.h **** 		if (initialised_) {
  49:Drivers/sdio.h **** 			initialised_ = detected();
  50:Drivers/sdio.h **** 		}
  51:Drivers/sdio.h **** 
  52:Drivers/sdio.h **** 		if (initialised_) {
  53:Drivers/sdio.h **** 			initialised_ = waitDataReady();
  54:Drivers/sdio.h **** 		}
  55:Drivers/sdio.h **** 
  56:Drivers/sdio.h **** 		if (!initialised_) {
  57:Drivers/sdio.h **** 			initialised_ = init_card();
  58:Drivers/sdio.h **** 		}
  59:Drivers/sdio.h **** 
  60:Drivers/sdio.h **** 		return initialised_;
  61:Drivers/sdio.h **** 	}
  62:Drivers/sdio.h **** 
  63:Drivers/sdio.h **** 	bool read(uint8_t* buf, uint32_t sector, uint8_t count) {
  64:Drivers/sdio.h **** 		uint8_t *data = buf;
  65:Drivers/sdio.h **** 
  66:Drivers/sdio.h **** 		for (uint32_t i = 0; i < count; ++i) {
  67:Drivers/sdio.h **** 			if (!readBlocks(sector + i, data)) {
  68:Drivers/sdio.h **** 				return false;
  69:Drivers/sdio.h **** 			}
  70:Drivers/sdio.h **** 			data += 512;
  71:Drivers/sdio.h **** 		}
  72:Drivers/sdio.h **** 		return true;
  73:Drivers/sdio.h **** 	}
  74:Drivers/sdio.h **** 
  75:Drivers/sdio.h **** 	bool write(const uint8_t* buf, uint32_t sector, uint8_t count) {
  76:Drivers/sdio.h **** 		const uint8_t *data = buf;
  77:Drivers/sdio.h **** 
  78:Drivers/sdio.h **** 		for (uint32_t i = 0; i < count; ++i) {
  79:Drivers/sdio.h **** 			if (!writeBlocks(sector + i, data)) {
  80:Drivers/sdio.h **** 				return false;
  81:Drivers/sdio.h **** 			}
  82:Drivers/sdio.h **** 			data += 512;
  83:Drivers/sdio.h **** 		}
  84:Drivers/sdio.h **** 		return true;
  85:Drivers/sdio.h **** 	}
ARM GAS  /var/folders/84/_x1cyy_j36g486tldtwl37280000gn/T//ccBOLdZ4.s 			page 3


  86:Drivers/sdio.h **** 
  87:Drivers/sdio.h **** 	bool initialised() {
  88:Drivers/sdio.h **** 		return initialised_;
  89:Drivers/sdio.h **** 	}
  90:Drivers/sdio.h **** 
  91:Drivers/sdio.h **** 	bool detected() {
  92:Drivers/sdio.h **** 		return !(GPIOA->IDR & GPIO_PIN_8);
  93:Drivers/sdio.h **** 	}
  94:Drivers/sdio.h **** 
  95:Drivers/sdio.h **** 	uint32_t sector_count() {
  96:Drivers/sdio.h **** 		return cardInfo.size;
  97:Drivers/sdio.h **** 	}
  98:Drivers/sdio.h **** 
  99:Drivers/sdio.h **** 	uint32_t sector_size() {
 100:Drivers/sdio.h **** 		return 512;
 101:Drivers/sdio.h **** 	}
 102:Drivers/sdio.h **** 
 103:Drivers/sdio.h **** 	volatile bool dma_busy() {
 104:Drivers/sdio.h **** 		return dma_busy_;
 105:Drivers/sdio.h **** 	}
 106:Drivers/sdio.h **** 
 107:Drivers/sdio.h **** 	void unlock_dma() {
 108:Drivers/sdio.h **** 		SDIO->DCTRL &= ~SDIO_DCTRL_DMAEN;
 109:Drivers/sdio.h **** 		DMA2_Stream3->CR &= ~DMA_SxCR_EN;
 110:Drivers/sdio.h **** 		dma_busy_ = false;
 111:Drivers/sdio.h **** 	}
 112:Drivers/sdio.h **** 
 113:Drivers/sdio.h **** 	void lock_dma() {
 114:Drivers/sdio.h **** 		dma_busy_ = true;
 115:Drivers/sdio.h **** 	}
 116:Drivers/sdio.h **** 
 117:Drivers/sdio.h **** private:
 118:Drivers/sdio.h **** 	enum DmaType {
 119:Drivers/sdio.h **** 		MEM_TO_SD,
 120:Drivers/sdio.h **** 		SD_TO_MEM
 121:Drivers/sdio.h **** 	};
 122:Drivers/sdio.h **** 
 123:Drivers/sdio.h **** 	struct CardInfo {
 124:Drivers/sdio.h **** 		uint16_t rca = 0;	// Relative Card Address, used when sending certain commands.
 125:Drivers/sdio.h **** 		bool ccs = false;	// If ccs true then card is SDHC/SDXC with block adressing, else SDSC with byte
 126:Drivers/sdio.h **** 		uint32_t size = 0;	// Size is in 512 byte blocks. Max size is 2T or 0x100000000.
 127:Drivers/sdio.h **** 	};
 128:Drivers/sdio.h **** 
 129:Drivers/sdio.h **** 	CardInfo cardInfo;
 130:Drivers/sdio.h **** 	TimeOut time_out;
 131:Drivers/sdio.h **** 	bool initialised_ = false;
 132:Drivers/sdio.h **** 	bool detected_ = false;
 133:Drivers/sdio.h **** 	volatile bool dma_busy_ = false;
 134:Drivers/sdio.h **** 
 135:Drivers/sdio.h **** 
 136:Drivers/sdio.h **** 	void init_dma(uint32_t buffer, DmaType type);
 137:Drivers/sdio.h **** 
 138:Drivers/sdio.h **** 	void powerOff() {
 139:Drivers/sdio.h **** 		//if (initialised_ == false) {
 140:Drivers/sdio.h **** 		SDIO->POWER = 0;
 141:Drivers/sdio.h **** 	//	while (SDIO->POWER);
 142:Drivers/sdio.h **** 		//} else {
ARM GAS  /var/folders/84/_x1cyy_j36g486tldtwl37280000gn/T//ccBOLdZ4.s 			page 4


 143:Drivers/sdio.h **** 		//	clock_resume();
 144:Drivers/sdio.h **** 		//}
 145:Drivers/sdio.h **** 	}
 146:Drivers/sdio.h **** 
 147:Drivers/sdio.h **** //	void clock_resume() {
 148:Drivers/sdio.h **** //		SDIO->CLKCR = SDIO_CLKCR_CLKEN | (1 << 11) | 0x00;		//24 mHz, 4 bit
 149:Drivers/sdio.h **** 		//0x76 // SDIO clock 400kHz
 150:Drivers/sdio.h **** 		//0x2e // SDIO clock 1MHz
 151:Drivers/sdio.h **** 		//0x16 // SDIO clock 2MHz
 152:Drivers/sdio.h **** 		//0x0a // SDIO clock 4MHz
 153:Drivers/sdio.h **** 		//0x05 // SDIO clock 6.85MHz
 154:Drivers/sdio.h **** 		//0x04 // SDIO clock 8MHz
 155:Drivers/sdio.h **** 		//0x03 // SDIO clock 9.6MHz
 156:Drivers/sdio.h **** 		//0x02 // SDIO clock 12MHz
 157:Drivers/sdio.h **** 		//0x01 // SDIO clock 16MHz
 158:Drivers/sdio.h **** 		//0x00 // SDIO clock 24MHz
 159:Drivers/sdio.h **** //	}
 160:Drivers/sdio.h **** 
 161:Drivers/sdio.h **** 	bool init_card() {
  31              		.loc 1 161 7 view -0
  32              		.cfi_startproc
  33              		@ args = 0, pretend = 0, frame = 0
  34              		@ frame_needed = 0, uses_anonymous_args = 0
  35              		@ link register save eliminated.
 162:Drivers/sdio.h **** 		// Power down and start in 400 kHz, 1 bit mode
 163:Drivers/sdio.h **** 		//SDIO->POWER = 0;
 164:Drivers/sdio.h **** 		//while (SDIO->POWER);
 165:Drivers/sdio.h **** 
 166:Drivers/sdio.h **** 		SDIO->POWER = SDIO_POWER_PWRCTRL;
  36              		.loc 1 166 3 view .LVU1
  37              		.loc 1 166 15 is_stmt 0 view .LVU2
  38 0000 9C4B     		ldr	r3, .L173
  39 0002 0322     		movs	r2, #3
 161:Drivers/sdio.h **** 		// Power down and start in 400 kHz, 1 bit mode
  40              		.loc 1 161 7 view .LVU3
  41 0004 F0B4     		push	{r4, r5, r6, r7}
  42              		.cfi_def_cfa_offset 16
  43              		.cfi_offset 4, -16
  44              		.cfi_offset 5, -12
  45              		.cfi_offset 6, -8
  46              		.cfi_offset 7, -4
  47              		.loc 1 166 15 view .LVU4
  48 0006 1A60     		str	r2, [r3]
  49              	.L2:
 167:Drivers/sdio.h **** 		while (SDIO->POWER != SDIO_POWER_PWRCTRL);
  50              		.loc 1 167 3 is_stmt 1 view .LVU5
  51              		.loc 1 167 22 view .LVU6
  52              		.loc 1 167 16 is_stmt 0 view .LVU7
  53 0008 9A49     		ldr	r1, .L173
  54 000a 0C68     		ldr	r4, [r1]
  55              		.loc 1 167 22 view .LVU8
  56 000c 032C     		cmp	r4, #3
  57 000e FBD1     		bne	.L2
 168:Drivers/sdio.h **** 		SDIO->CLKCR = SDIO_CLKCR_CLKEN | 118;
  58              		.loc 1 168 3 is_stmt 1 view .LVU9
  59              		.loc 1 168 15 is_stmt 0 view .LVU10
  60 0010 4FF4BB75 		mov	r5, #374
ARM GAS  /var/folders/84/_x1cyy_j36g486tldtwl37280000gn/T//ccBOLdZ4.s 			page 5


  61 0014 4D60     		str	r5, [r1, #4]
 169:Drivers/sdio.h **** 
 170:Drivers/sdio.h **** 		if (sendCommandRetry(0, 0) != Success) {
  62              		.loc 1 170 3 is_stmt 1 view .LVU11
  63              	.LVL1:
  64              	.LBB340:
  65              	.LBI340:
 171:Drivers/sdio.h **** 			powerOff();
 172:Drivers/sdio.h **** 			return false;
 173:Drivers/sdio.h **** 		}
 174:Drivers/sdio.h **** 
 175:Drivers/sdio.h **** 		Error result;
 176:Drivers/sdio.h **** 
 177:Drivers/sdio.h **** 		bool hcs = false;
 178:Drivers/sdio.h **** 		result = sendCommandRetry(8, 0x1F1);
 179:Drivers/sdio.h **** 		if ((result == Success) && (SDIO->RESP1 == 0x1F1)) {
 180:Drivers/sdio.h **** 			hcs = true;
 181:Drivers/sdio.h **** 		} else if (result == Timeout) {
 182:Drivers/sdio.h **** 			hcs = false;
 183:Drivers/sdio.h **** 		} else {
 184:Drivers/sdio.h **** 			powerOff();
 185:Drivers/sdio.h **** 			return false;
 186:Drivers/sdio.h **** 		}
 187:Drivers/sdio.h **** 
 188:Drivers/sdio.h **** 		const uint32_t OCR_BUSY = 0x80000000;
 189:Drivers/sdio.h **** 		const uint32_t OCR_HCS = 0x40000000;
 190:Drivers/sdio.h **** 		const uint32_t OCR_CCS = 0x40000000;
 191:Drivers/sdio.h **** 
 192:Drivers/sdio.h **** 		bool acmd41_success = false;
 193:Drivers/sdio.h **** 		time_out.start(2000);
 194:Drivers/sdio.h **** 
 195:Drivers/sdio.h **** 		while (time_out.status()) {
 196:Drivers/sdio.h **** 			result = sendAppCommand(41, 0x100000 | (hcs ? OCR_HCS : 0));
 197:Drivers/sdio.h **** 			uint32_t response = SDIO->RESP1;
 198:Drivers/sdio.h **** 			if (result == CRCFail && (response & OCR_BUSY) != 0) {
 199:Drivers/sdio.h **** 				cardInfo.ccs = (response & OCR_CCS) != 0;
 200:Drivers/sdio.h **** 				acmd41_success = true;
 201:Drivers/sdio.h **** 				break;
 202:Drivers/sdio.h **** 			}
 203:Drivers/sdio.h **** 		}
 204:Drivers/sdio.h **** 
 205:Drivers/sdio.h **** 		if (!acmd41_success) {
 206:Drivers/sdio.h **** 			powerOff();
 207:Drivers/sdio.h **** 			return false;
 208:Drivers/sdio.h **** 		}
 209:Drivers/sdio.h **** 
 210:Drivers/sdio.h **** 		if (sendCommandRetry(2, 0) != Success) {
 211:Drivers/sdio.h **** 			powerOff();
 212:Drivers/sdio.h **** 			return false;
 213:Drivers/sdio.h **** 		}
 214:Drivers/sdio.h **** 
 215:Drivers/sdio.h **** 		bool cmd3_success = false;
 216:Drivers/sdio.h **** 		if (sendCommandRetry(3, 0) == Success) {
 217:Drivers/sdio.h **** 			uint32_t response = SDIO->RESP1;
 218:Drivers/sdio.h **** 			cardInfo.rca = response >> 16;
 219:Drivers/sdio.h **** 			if (cardInfo.rca != 0) {
 220:Drivers/sdio.h **** 				cmd3_success = true;
ARM GAS  /var/folders/84/_x1cyy_j36g486tldtwl37280000gn/T//ccBOLdZ4.s 			page 6


 221:Drivers/sdio.h **** 			}
 222:Drivers/sdio.h **** 		}
 223:Drivers/sdio.h **** 
 224:Drivers/sdio.h **** 		if (!cmd3_success) {
 225:Drivers/sdio.h **** 			powerOff();
 226:Drivers/sdio.h **** 			return false;
 227:Drivers/sdio.h **** 		}
 228:Drivers/sdio.h **** 
 229:Drivers/sdio.h **** 		if (sendCommandRetry(9, cardInfo.rca << 16) != Success) {
 230:Drivers/sdio.h **** 			powerOff();
 231:Drivers/sdio.h **** 			return false;
 232:Drivers/sdio.h **** 		}
 233:Drivers/sdio.h **** 
 234:Drivers/sdio.h **** 		uint32_t csd_version = SDIO->RESP1 >> 30;
 235:Drivers/sdio.h **** 
 236:Drivers/sdio.h **** 		if (csd_version == 0) {
 237:Drivers/sdio.h **** 			// Until I find an old card, this is untested.
 238:Drivers/sdio.h **** 			uint32_t read_bl_len = (SDIO->RESP2 >> 16) & 0xF;
 239:Drivers/sdio.h **** 			uint32_t c_size = ((SDIO->RESP2 & 0x3FF) << 2) | (SDIO->RESP3 >> 30);
 240:Drivers/sdio.h **** 			uint32_t c_size_mult = (SDIO->RESP3 >> 15) & 0x7;
 241:Drivers/sdio.h **** 			uint32_t mult = 1 << (c_size_mult + 2);
 242:Drivers/sdio.h **** 			uint32_t blocknr = (c_size + 1) * mult;
 243:Drivers/sdio.h **** 			uint32_t block_len = 1 << read_bl_len;
 244:Drivers/sdio.h **** 			cardInfo.size = (block_len * blocknr) >> 9;
 245:Drivers/sdio.h **** 		} else if (csd_version == 1) {
 246:Drivers/sdio.h **** 			uint32_t c_size = ((SDIO->RESP2 & 0x3F) << 16) | (SDIO->RESP3 >> 16);
 247:Drivers/sdio.h **** 			cardInfo.size = (c_size + 1) << 10;
 248:Drivers/sdio.h **** 		} else {
 249:Drivers/sdio.h **** 			powerOff();
 250:Drivers/sdio.h **** 			return false;
 251:Drivers/sdio.h **** 		}
 252:Drivers/sdio.h **** 
 253:Drivers/sdio.h **** 		// Select the card
 254:Drivers/sdio.h **** 		if (sendCommandRetry(7, cardInfo.rca << 16) != Success) {
 255:Drivers/sdio.h **** 			powerOff();
 256:Drivers/sdio.h **** 			return false;
 257:Drivers/sdio.h **** 		}
 258:Drivers/sdio.h **** 
 259:Drivers/sdio.h **** 		// Enable 4 bit bus mode
 260:Drivers/sdio.h **** 		if (sendAppCommand(6, 2) != Success) {
 261:Drivers/sdio.h **** 			powerOff();
 262:Drivers/sdio.h **** 			return false;
 263:Drivers/sdio.h **** 		}
 264:Drivers/sdio.h **** 
 265:Drivers/sdio.h **** 		//start clock 24 mHz, 4 bit
 266:Drivers/sdio.h **** 		SDIO->CLKCR = SDIO_CLKCR_CLKEN | (1 << 11) | 0x00;
 267:Drivers/sdio.h **** 
 268:Drivers/sdio.h **** 		return true;
 269:Drivers/sdio.h **** 	}
 270:Drivers/sdio.h **** 
 271:Drivers/sdio.h **** 	bool waitDataReady() {
 272:Drivers/sdio.h **** 		time_out.start(1000);
 273:Drivers/sdio.h **** 		while (time_out.status()) {
 274:Drivers/sdio.h **** 			if (sendCommandWait(13, cardInfo.rca << 16) == Success && (SDIO->RESP1 & 0x100) != 0) {
 275:Drivers/sdio.h **** 				return true;
 276:Drivers/sdio.h **** 			}
 277:Drivers/sdio.h **** 		}
ARM GAS  /var/folders/84/_x1cyy_j36g486tldtwl37280000gn/T//ccBOLdZ4.s 			page 7


 278:Drivers/sdio.h **** 		return false;
 279:Drivers/sdio.h **** 	}
 280:Drivers/sdio.h **** 
 281:Drivers/sdio.h **** 	void sendCommand(uint32_t cmd, uint32_t arg) {
 282:Drivers/sdio.h **** 		cmd &= 0x3F;	// SDIO_CMD_CMDINDEX_MASK
 283:Drivers/sdio.h **** 
 284:Drivers/sdio.h **** 		uint32_t waitresp = SDIO_RESPONSE_SHORT;
 285:Drivers/sdio.h **** 		if (cmd == 0) {
 286:Drivers/sdio.h **** 			waitresp = SDIO_RESPONSE_NO;
 287:Drivers/sdio.h **** 		} else if (cmd == 2 || cmd == 9 || cmd == 10) {
 288:Drivers/sdio.h **** 			waitresp = SDIO_RESPONSE_LONG;
 289:Drivers/sdio.h **** 		}
 290:Drivers/sdio.h **** 
 291:Drivers/sdio.h **** 		SDIO->ICR = 0x7FF; 								// Reset all signals we use (and some we don't).
 292:Drivers/sdio.h **** 		SDIO->ARG = arg; 								// The arg must be set before the command.
 293:Drivers/sdio.h **** 		SDIO->CMD = (cmd | SDIO_CMD_CPSMEN | waitresp);	// Set the command and associated bits.
 294:Drivers/sdio.h **** 	}
 295:Drivers/sdio.h **** 
 296:Drivers/sdio.h **** 	Error sendAppCommand(uint32_t cmd, uint32_t arg, int maxRetries = 5) {
 297:Drivers/sdio.h **** 		Error result = Unknown;
 298:Drivers/sdio.h **** 		Error expected = (cmd == 41) ? CRCFail : Success;
 299:Drivers/sdio.h **** 		for (int i = 0; i < maxRetries; ++i) {
 300:Drivers/sdio.h **** 			result = sendCommandWait(55, cardInfo.rca << 16);
 301:Drivers/sdio.h **** 			if (result != Success) {
 302:Drivers/sdio.h **** 				continue;
 303:Drivers/sdio.h **** 			}
 304:Drivers/sdio.h **** 			result = sendCommandWait(cmd, arg);
 305:Drivers/sdio.h **** 			if (result == expected) {
 306:Drivers/sdio.h **** 				break;
 307:Drivers/sdio.h **** 			}
 308:Drivers/sdio.h **** 		}
 309:Drivers/sdio.h **** 		return result;
 310:Drivers/sdio.h **** 
 311:Drivers/sdio.h **** 	}
 312:Drivers/sdio.h **** 
 313:Drivers/sdio.h **** 	Error sendCommandWait(uint32_t cmd, uint32_t arg) {
 314:Drivers/sdio.h **** 		Error result;
 315:Drivers/sdio.h **** 		sendCommand(cmd, arg);
 316:Drivers/sdio.h **** 		while ((result = commandResult()) == InProgress);
 317:Drivers/sdio.h **** 		return result;
 318:Drivers/sdio.h **** 	}
 319:Drivers/sdio.h **** 
 320:Drivers/sdio.h **** 	Error sendCommandRetry(uint32_t cmd, uint32_t arg, int maxRetries = 5) {
  66              		.loc 1 320 8 view .LVU12
  67              	.LBB341:
  68              	.LBB342:
 321:Drivers/sdio.h **** 		Error result = Unknown;
 322:Drivers/sdio.h **** 		for (int i = 0; i < maxRetries; ++i) {
  69              		.loc 1 322 21 view .LVU13
  70              	.LBE342:
  71              	.LBE341:
  72              	.LBE340:
 168:Drivers/sdio.h **** 
  73              		.loc 1 168 15 is_stmt 0 view .LVU14
  74 0016 0521     		movs	r1, #5
  75 0018 0BE0     		b	.L89
  76              	.LVL2:
ARM GAS  /var/folders/84/_x1cyy_j36g486tldtwl37280000gn/T//ccBOLdZ4.s 			page 8


  77              	.L4:
  78              	.LBB371:
  79              	.LBB368:
  80              	.LBB365:
  81              	.LBB343:
  82              	.LBB344:
  83              	.LBB345:
  84              	.LBB346:
 323:Drivers/sdio.h **** 			result = sendCommandWait(cmd, arg);
 324:Drivers/sdio.h **** 			if (result == Success) {
 325:Drivers/sdio.h **** 				break;
 326:Drivers/sdio.h **** 			}
 327:Drivers/sdio.h **** 		}
 328:Drivers/sdio.h **** 		return result;
 329:Drivers/sdio.h **** 	}
 330:Drivers/sdio.h **** 
 331:Drivers/sdio.h **** 	Error commandResult() {
 332:Drivers/sdio.h **** 		uint32_t status = SDIO->STA & 0xFFF;
 333:Drivers/sdio.h **** 
 334:Drivers/sdio.h **** 		if (status & SDIO_STA_CMDACT) {
 335:Drivers/sdio.h **** 			return InProgress;
 336:Drivers/sdio.h **** 		}
 337:Drivers/sdio.h **** 
 338:Drivers/sdio.h **** 		if (status & SDIO_STA_CMDREND) {
 339:Drivers/sdio.h **** 			SDIO->ICR = SDIO_STA_CMDREND;
 340:Drivers/sdio.h **** 			return Success;
 341:Drivers/sdio.h **** 		}
 342:Drivers/sdio.h **** 
 343:Drivers/sdio.h **** 		if (status & SDIO_STA_CMDSENT) {
  85              		.loc 1 343 3 is_stmt 1 view .LVU15
  86 001a 1F06     		lsls	r7, r3, #24
  87 001c 46D4     		bmi	.L146
 344:Drivers/sdio.h **** 			SDIO->ICR = SDIO_STA_CMDSENT;
 345:Drivers/sdio.h **** 			return Success;
 346:Drivers/sdio.h **** 		}
 347:Drivers/sdio.h **** 
 348:Drivers/sdio.h **** 		if (status & SDIO_STA_CTIMEOUT) {
  88              		.loc 1 348 3 view .LVU16
  89 001e 5E07     		lsls	r6, r3, #29
  90 0020 00F1A580 		bmi	.L147
 349:Drivers/sdio.h **** 			SDIO->ICR = SDIO_STA_CTIMEOUT;
 350:Drivers/sdio.h **** 			return Timeout;
 351:Drivers/sdio.h **** 		}
 352:Drivers/sdio.h **** 
 353:Drivers/sdio.h **** 		if (status & SDIO_STA_CCRCFAIL) {
  91              		.loc 1 353 3 view .LVU17
  92 0024 DD07     		lsls	r5, r3, #31
  93 0026 01D5     		bpl	.L8
 354:Drivers/sdio.h **** 			SDIO->ICR = SDIO_STA_CCRCFAIL;
  94              		.loc 1 354 4 view .LVU18
  95              		.loc 1 354 14 is_stmt 0 view .LVU19
  96 0028 0124     		movs	r4, #1
  97 002a 9463     		str	r4, [r2, #56]
 355:Drivers/sdio.h **** 			return CRCFail;
  98              		.loc 1 355 4 is_stmt 1 view .LVU20
  99              	.LVL3:
 100              	.L8:
ARM GAS  /var/folders/84/_x1cyy_j36g486tldtwl37280000gn/T//ccBOLdZ4.s 			page 9


 101              		.loc 1 355 4 is_stmt 0 view .LVU21
 102              	.LBE346:
 103              	.LBE345:
 317:Drivers/sdio.h **** 	}
 104              		.loc 1 317 3 is_stmt 1 view .LVU22
 317:Drivers/sdio.h **** 	}
 105              		.loc 1 317 3 is_stmt 0 view .LVU23
 106              	.LBE344:
 107              	.LBE343:
 324:Drivers/sdio.h **** 				break;
 108              		.loc 1 324 4 is_stmt 1 view .LVU24
 322:Drivers/sdio.h **** 			result = sendCommandWait(cmd, arg);
 109              		.loc 1 322 3 view .LVU25
 322:Drivers/sdio.h **** 			result = sendCommandWait(cmd, arg);
 110              		.loc 1 322 21 view .LVU26
 111 002c 0139     		subs	r1, r1, #1
 112              	.LVL4:
 322:Drivers/sdio.h **** 			result = sendCommandWait(cmd, arg);
 113              		.loc 1 322 21 is_stmt 0 view .LVU27
 114 002e 00F0A380 		beq	.L88
 115              	.LVL5:
 116              	.L89:
 323:Drivers/sdio.h **** 			if (result == Success) {
 117              		.loc 1 323 4 is_stmt 1 view .LVU28
 118              	.LBB361:
 119              	.LBI343:
 313:Drivers/sdio.h **** 		Error result;
 120              		.loc 1 313 8 view .LVU29
 121              	.LBB357:
 314:Drivers/sdio.h **** 		sendCommand(cmd, arg);
 122              		.loc 1 314 3 view .LVU30
 315:Drivers/sdio.h **** 		while ((result = commandResult()) == InProgress);
 123              		.loc 1 315 3 view .LVU31
 124              	.LBB351:
 125              	.LBI351:
 281:Drivers/sdio.h **** 		cmd &= 0x3F;	// SDIO_CMD_CMDINDEX_MASK
 126              		.loc 1 281 7 view .LVU32
 127              	.LBB352:
 282:Drivers/sdio.h **** 
 128              		.loc 1 282 3 view .LVU33
 284:Drivers/sdio.h **** 		if (cmd == 0) {
 129              		.loc 1 284 3 view .LVU34
 285:Drivers/sdio.h **** 			waitresp = SDIO_RESPONSE_NO;
 130              		.loc 1 285 3 view .LVU35
 291:Drivers/sdio.h **** 		SDIO->ARG = arg; 								// The arg must be set before the command.
 131              		.loc 1 291 3 view .LVU36
 291:Drivers/sdio.h **** 		SDIO->ARG = arg; 								// The arg must be set before the command.
 132              		.loc 1 291 13 is_stmt 0 view .LVU37
 133 0032 904E     		ldr	r6, .L173
 134 0034 40F2FF77 		movw	r7, #2047
 292:Drivers/sdio.h **** 		SDIO->CMD = (cmd | SDIO_CMD_CPSMEN | waitresp);	// Set the command and associated bits.
 135              		.loc 1 292 13 view .LVU38
 136 0038 0023     		movs	r3, #0
 293:Drivers/sdio.h **** 	}
 137              		.loc 1 293 13 view .LVU39
 138 003a 4FF48062 		mov	r2, #1024
 291:Drivers/sdio.h **** 		SDIO->ARG = arg; 								// The arg must be set before the command.
ARM GAS  /var/folders/84/_x1cyy_j36g486tldtwl37280000gn/T//ccBOLdZ4.s 			page 10


 139              		.loc 1 291 13 view .LVU40
 140 003e B763     		str	r7, [r6, #56]
 292:Drivers/sdio.h **** 		SDIO->CMD = (cmd | SDIO_CMD_CPSMEN | waitresp);	// Set the command and associated bits.
 141              		.loc 1 292 3 is_stmt 1 view .LVU41
 292:Drivers/sdio.h **** 		SDIO->CMD = (cmd | SDIO_CMD_CPSMEN | waitresp);	// Set the command and associated bits.
 142              		.loc 1 292 13 is_stmt 0 view .LVU42
 143 0040 B360     		str	r3, [r6, #8]
 293:Drivers/sdio.h **** 	}
 144              		.loc 1 293 3 is_stmt 1 view .LVU43
 293:Drivers/sdio.h **** 	}
 145              		.loc 1 293 13 is_stmt 0 view .LVU44
 146 0042 F260     		str	r2, [r6, #12]
 147              	.LVL6:
 148              	.L3:
 293:Drivers/sdio.h **** 	}
 149              		.loc 1 293 13 view .LVU45
 150              	.LBE352:
 151              	.LBE351:
 316:Drivers/sdio.h **** 		return result;
 152              		.loc 1 316 3 is_stmt 1 view .LVU46
 316:Drivers/sdio.h **** 		return result;
 153              		.loc 1 316 37 view .LVU47
 154              	.LBB353:
 155              	.LBI345:
 331:Drivers/sdio.h **** 		uint32_t status = SDIO->STA & 0xFFF;
 156              		.loc 1 331 8 view .LVU48
 157              	.LBB347:
 332:Drivers/sdio.h **** 
 158              		.loc 1 332 3 view .LVU49
 332:Drivers/sdio.h **** 
 159              		.loc 1 332 27 is_stmt 0 view .LVU50
 160 0044 8B4A     		ldr	r2, .L173
 161 0046 536B     		ldr	r3, [r2, #52]
 162              	.LVL7:
 334:Drivers/sdio.h **** 			return InProgress;
 163              		.loc 1 334 3 is_stmt 1 view .LVU51
 164 0048 1D05     		lsls	r5, r3, #20
 165 004a FBD4     		bmi	.L3
 338:Drivers/sdio.h **** 			SDIO->ICR = SDIO_STA_CMDREND;
 166              		.loc 1 338 3 view .LVU52
 167 004c 5C06     		lsls	r4, r3, #25
 168 004e E4D5     		bpl	.L4
 339:Drivers/sdio.h **** 			return Success;
 169              		.loc 1 339 4 view .LVU53
 339:Drivers/sdio.h **** 			return Success;
 170              		.loc 1 339 14 is_stmt 0 view .LVU54
 171 0050 4027     		movs	r7, #64
 172 0052 9763     		str	r7, [r2, #56]
 340:Drivers/sdio.h **** 		}
 173              		.loc 1 340 4 is_stmt 1 view .LVU55
 174              	.LVL8:
 340:Drivers/sdio.h **** 		}
 175              		.loc 1 340 4 is_stmt 0 view .LVU56
 176              	.LBE347:
 177              	.LBE353:
 178              	.LBE357:
 179              	.LBE361:
ARM GAS  /var/folders/84/_x1cyy_j36g486tldtwl37280000gn/T//ccBOLdZ4.s 			page 11


 180              	.LBE365:
 181              	.LBE368:
 182              	.LBE371:
 183              	.LBB372:
 184              	.LBB373:
 185              	.LBB374:
 322:Drivers/sdio.h **** 			result = sendCommandWait(cmd, arg);
 186              		.loc 1 322 21 is_stmt 1 view .LVU57
 187              	.L5:
 188              	.LBE374:
 189              	.LBE373:
 190              	.LBE372:
 168:Drivers/sdio.h **** 
 191              		.loc 1 168 15 is_stmt 0 view .LVU58
 192 0054 0521     		movs	r1, #5
 193 0056 0BE0     		b	.L87
 194              	.LVL9:
 195              	.L10:
 196              	.LBB409:
 197              	.LBB405:
 198              	.LBB401:
 199              	.LBB375:
 200              	.LBB376:
 201              	.LBB377:
 202              	.LBB378:
 343:Drivers/sdio.h **** 			SDIO->ICR = SDIO_STA_CMDSENT;
 203              		.loc 1 343 3 is_stmt 1 view .LVU59
 204 0058 1E06     		lsls	r6, r3, #24
 205 005a 2AD4     		bmi	.L148
 348:Drivers/sdio.h **** 			SDIO->ICR = SDIO_STA_CTIMEOUT;
 206              		.loc 1 348 3 view .LVU60
 207 005c 5D07     		lsls	r5, r3, #29
 208 005e 00F19B80 		bmi	.L149
 353:Drivers/sdio.h **** 			SDIO->ICR = SDIO_STA_CCRCFAIL;
 209              		.loc 1 353 3 view .LVU61
 210 0062 DC07     		lsls	r4, r3, #31
 211 0064 00F18E80 		bmi	.L150
 356:Drivers/sdio.h **** 		}
 357:Drivers/sdio.h **** 
 358:Drivers/sdio.h **** 		return Unknown;
 212              		.loc 1 358 10 is_stmt 0 view .LVU62
 213 0068 0426     		movs	r6, #4
 214              	.L14:
 215              	.LBE378:
 216              	.LBE377:
 317:Drivers/sdio.h **** 	}
 217              		.loc 1 317 3 is_stmt 1 view .LVU63
 218              	.LVL10:
 317:Drivers/sdio.h **** 	}
 219              		.loc 1 317 3 is_stmt 0 view .LVU64
 220              	.LBE376:
 221              	.LBE375:
 324:Drivers/sdio.h **** 				break;
 222              		.loc 1 324 4 is_stmt 1 view .LVU65
 322:Drivers/sdio.h **** 			result = sendCommandWait(cmd, arg);
 223              		.loc 1 322 3 view .LVU66
 322:Drivers/sdio.h **** 			result = sendCommandWait(cmd, arg);
ARM GAS  /var/folders/84/_x1cyy_j36g486tldtwl37280000gn/T//ccBOLdZ4.s 			page 12


 224              		.loc 1 322 21 view .LVU67
 225 006a 0139     		subs	r1, r1, #1
 226              	.LVL11:
 322:Drivers/sdio.h **** 			result = sendCommandWait(cmd, arg);
 227              		.loc 1 322 21 is_stmt 0 view .LVU68
 228 006c 00F09180 		beq	.L151
 229              	.LVL12:
 230              	.L87:
 323:Drivers/sdio.h **** 			if (result == Success) {
 231              		.loc 1 323 4 is_stmt 1 view .LVU69
 232              	.LBB396:
 233              	.LBI375:
 313:Drivers/sdio.h **** 		Error result;
 234              		.loc 1 313 8 view .LVU70
 235              	.LBB391:
 314:Drivers/sdio.h **** 		sendCommand(cmd, arg);
 236              		.loc 1 314 3 view .LVU71
 315:Drivers/sdio.h **** 		while ((result = commandResult()) == InProgress);
 237              		.loc 1 315 3 view .LVU72
 238              	.LBB384:
 239              	.LBI384:
 281:Drivers/sdio.h **** 		cmd &= 0x3F;	// SDIO_CMD_CMDINDEX_MASK
 240              		.loc 1 281 7 view .LVU73
 241              	.LBB385:
 282:Drivers/sdio.h **** 
 242              		.loc 1 282 3 view .LVU74
 284:Drivers/sdio.h **** 		if (cmd == 0) {
 243              		.loc 1 284 3 view .LVU75
 285:Drivers/sdio.h **** 			waitresp = SDIO_RESPONSE_NO;
 244              		.loc 1 285 3 view .LVU76
 287:Drivers/sdio.h **** 			waitresp = SDIO_RESPONSE_LONG;
 245              		.loc 1 287 10 view .LVU77
 291:Drivers/sdio.h **** 		SDIO->ARG = arg; 								// The arg must be set before the command.
 246              		.loc 1 291 3 view .LVU78
 291:Drivers/sdio.h **** 		SDIO->ARG = arg; 								// The arg must be set before the command.
 247              		.loc 1 291 13 is_stmt 0 view .LVU79
 248 0070 804B     		ldr	r3, .L173
 249 0072 40F2FF75 		movw	r5, #2047
 292:Drivers/sdio.h **** 		SDIO->CMD = (cmd | SDIO_CMD_CPSMEN | waitresp);	// Set the command and associated bits.
 250              		.loc 1 292 13 view .LVU80
 251 0076 40F2F114 		movw	r4, #497
 293:Drivers/sdio.h **** 	}
 252              		.loc 1 293 13 view .LVU81
 253 007a 4FF48962 		mov	r2, #1096
 291:Drivers/sdio.h **** 		SDIO->ARG = arg; 								// The arg must be set before the command.
 254              		.loc 1 291 13 view .LVU82
 255 007e 9D63     		str	r5, [r3, #56]
 292:Drivers/sdio.h **** 		SDIO->CMD = (cmd | SDIO_CMD_CPSMEN | waitresp);	// Set the command and associated bits.
 256              		.loc 1 292 3 is_stmt 1 view .LVU83
 292:Drivers/sdio.h **** 		SDIO->CMD = (cmd | SDIO_CMD_CPSMEN | waitresp);	// Set the command and associated bits.
 257              		.loc 1 292 13 is_stmt 0 view .LVU84
 258 0080 9C60     		str	r4, [r3, #8]
 293:Drivers/sdio.h **** 	}
 259              		.loc 1 293 3 is_stmt 1 view .LVU85
 293:Drivers/sdio.h **** 	}
 260              		.loc 1 293 13 is_stmt 0 view .LVU86
 261 0082 DA60     		str	r2, [r3, #12]
ARM GAS  /var/folders/84/_x1cyy_j36g486tldtwl37280000gn/T//ccBOLdZ4.s 			page 13


 262              	.LVL13:
 263              	.L9:
 293:Drivers/sdio.h **** 	}
 264              		.loc 1 293 13 view .LVU87
 265              	.LBE385:
 266              	.LBE384:
 316:Drivers/sdio.h **** 		return result;
 267              		.loc 1 316 3 is_stmt 1 view .LVU88
 316:Drivers/sdio.h **** 		return result;
 268              		.loc 1 316 37 view .LVU89
 269              	.LBB386:
 270              	.LBI377:
 331:Drivers/sdio.h **** 		uint32_t status = SDIO->STA & 0xFFF;
 271              		.loc 1 331 8 view .LVU90
 272              	.LBB379:
 332:Drivers/sdio.h **** 
 273              		.loc 1 332 3 view .LVU91
 332:Drivers/sdio.h **** 
 274              		.loc 1 332 27 is_stmt 0 view .LVU92
 275 0084 7B4A     		ldr	r2, .L173
 276 0086 536B     		ldr	r3, [r2, #52]
 277              	.LVL14:
 334:Drivers/sdio.h **** 			return InProgress;
 278              		.loc 1 334 3 is_stmt 1 view .LVU93
 279 0088 1C05     		lsls	r4, r3, #20
 280 008a FBD4     		bmi	.L9
 338:Drivers/sdio.h **** 			SDIO->ICR = SDIO_STA_CMDREND;
 281              		.loc 1 338 3 view .LVU94
 282 008c 5F06     		lsls	r7, r3, #25
 283 008e E3D5     		bpl	.L10
 339:Drivers/sdio.h **** 			return Success;
 284              		.loc 1 339 4 view .LVU95
 339:Drivers/sdio.h **** 			return Success;
 285              		.loc 1 339 14 is_stmt 0 view .LVU96
 286 0090 4023     		movs	r3, #64
 287              	.LVL15:
 339:Drivers/sdio.h **** 			return Success;
 288              		.loc 1 339 14 view .LVU97
 289 0092 9363     		str	r3, [r2, #56]
 340:Drivers/sdio.h **** 		}
 290              		.loc 1 340 4 is_stmt 1 view .LVU98
 291              	.LVL16:
 340:Drivers/sdio.h **** 		}
 292              		.loc 1 340 4 is_stmt 0 view .LVU99
 293              	.LBE379:
 294              	.LBE386:
 317:Drivers/sdio.h **** 	}
 295              		.loc 1 317 3 is_stmt 1 view .LVU100
 317:Drivers/sdio.h **** 	}
 296              		.loc 1 317 3 is_stmt 0 view .LVU101
 297              	.LBE391:
 298              	.LBE396:
 324:Drivers/sdio.h **** 				break;
 299              		.loc 1 324 4 is_stmt 1 view .LVU102
 324:Drivers/sdio.h **** 				break;
 300              		.loc 1 324 4 is_stmt 0 view .LVU103
 301              	.LBE401:
ARM GAS  /var/folders/84/_x1cyy_j36g486tldtwl37280000gn/T//ccBOLdZ4.s 			page 14


 328:Drivers/sdio.h **** 	}
 302              		.loc 1 328 3 is_stmt 1 view .LVU104
 328:Drivers/sdio.h **** 	}
 303              		.loc 1 328 3 is_stmt 0 view .LVU105
 304              	.LBE405:
 305              	.LBE409:
 179:Drivers/sdio.h **** 			hcs = true;
 306              		.loc 1 179 3 is_stmt 1 view .LVU106
 179:Drivers/sdio.h **** 			hcs = true;
 307              		.loc 1 179 37 is_stmt 0 view .LVU107
 308 0094 774A     		ldr	r2, .L173
 309 0096 5669     		ldr	r6, [r2, #20]
 179:Drivers/sdio.h **** 			hcs = true;
 310              		.loc 1 179 27 view .LVU108
 311 0098 40F2F117 		movw	r7, #497
 312 009c BE42     		cmp	r6, r7
 313 009e 10D0     		beq	.L152
 314              	.LVL17:
 315              	.L81:
 225:Drivers/sdio.h **** 			return false;
 316              		.loc 1 225 4 is_stmt 1 view .LVU109
 317              	.LBB410:
 318              	.LBI410:
 138:Drivers/sdio.h **** 		//if (initialised_ == false) {
 319              		.loc 1 138 7 view .LVU110
 320              	.LBB411:
 140:Drivers/sdio.h **** 	//	while (SDIO->POWER);
 321              		.loc 1 140 3 view .LVU111
 140:Drivers/sdio.h **** 	//	while (SDIO->POWER);
 322              		.loc 1 140 15 is_stmt 0 view .LVU112
 323 00a0 7448     		ldr	r0, .L173
 324              	.LVL18:
 140:Drivers/sdio.h **** 	//	while (SDIO->POWER);
 325              		.loc 1 140 15 view .LVU113
 326 00a2 0025     		movs	r5, #0
 327 00a4 0560     		str	r5, [r0]
 328              	.LBE411:
 329              	.LBE410:
 226:Drivers/sdio.h **** 		}
 330              		.loc 1 226 4 is_stmt 1 view .LVU114
 331              	.LVL19:
 332              	.L138:
 269:Drivers/sdio.h **** 
 333              		.loc 1 269 2 is_stmt 0 view .LVU115
 334 00a6 2846     		mov	r0, r5
 335 00a8 F0BC     		pop	{r4, r5, r6, r7}
 336              		.cfi_remember_state
 337              		.cfi_restore 7
 338              		.cfi_restore 6
 339              		.cfi_restore 5
 340              		.cfi_restore 4
 341              		.cfi_def_cfa_offset 0
 342 00aa 7047     		bx	lr
 343              	.LVL20:
 344              	.L146:
 345              		.cfi_restore_state
 346              	.LBB412:
ARM GAS  /var/folders/84/_x1cyy_j36g486tldtwl37280000gn/T//ccBOLdZ4.s 			page 15


 347              	.LBB369:
 348              	.LBB366:
 349              	.LBB362:
 350              	.LBB358:
 351              	.LBB354:
 352              	.LBB348:
 344:Drivers/sdio.h **** 			return Success;
 353              		.loc 1 344 4 is_stmt 1 view .LVU116
 344:Drivers/sdio.h **** 			return Success;
 354              		.loc 1 344 14 is_stmt 0 view .LVU117
 355 00ac 8026     		movs	r6, #128
 356 00ae 9663     		str	r6, [r2, #56]
 345:Drivers/sdio.h **** 		}
 357              		.loc 1 345 4 is_stmt 1 view .LVU118
 358              	.LVL21:
 345:Drivers/sdio.h **** 		}
 359              		.loc 1 345 4 is_stmt 0 view .LVU119
 360              	.LBE348:
 361              	.LBE354:
 362              	.LBE358:
 363              	.LBE362:
 364              	.LBE366:
 365              	.LBE369:
 366              	.LBE412:
 367              	.LBB413:
 368              	.LBB406:
 369              	.LBB402:
 322:Drivers/sdio.h **** 			result = sendCommandWait(cmd, arg);
 370              		.loc 1 322 21 is_stmt 1 view .LVU120
 371 00b0 D0E7     		b	.L5
 372              	.LVL22:
 373              	.L148:
 374              	.LBB397:
 375              	.LBB392:
 376              	.LBB387:
 377              	.LBB380:
 344:Drivers/sdio.h **** 			return Success;
 378              		.loc 1 344 4 view .LVU121
 344:Drivers/sdio.h **** 			return Success;
 379              		.loc 1 344 14 is_stmt 0 view .LVU122
 380 00b2 8024     		movs	r4, #128
 381 00b4 9463     		str	r4, [r2, #56]
 345:Drivers/sdio.h **** 		}
 382              		.loc 1 345 4 is_stmt 1 view .LVU123
 383              	.LVL23:
 345:Drivers/sdio.h **** 		}
 384              		.loc 1 345 4 is_stmt 0 view .LVU124
 385              	.LBE380:
 386              	.LBE387:
 317:Drivers/sdio.h **** 	}
 387              		.loc 1 317 3 is_stmt 1 view .LVU125
 317:Drivers/sdio.h **** 	}
 388              		.loc 1 317 3 is_stmt 0 view .LVU126
 389              	.LBE392:
 390              	.LBE397:
 324:Drivers/sdio.h **** 				break;
 391              		.loc 1 324 4 is_stmt 1 view .LVU127
ARM GAS  /var/folders/84/_x1cyy_j36g486tldtwl37280000gn/T//ccBOLdZ4.s 			page 16


 324:Drivers/sdio.h **** 				break;
 392              		.loc 1 324 4 is_stmt 0 view .LVU128
 393              	.LBE402:
 328:Drivers/sdio.h **** 	}
 394              		.loc 1 328 3 is_stmt 1 view .LVU129
 328:Drivers/sdio.h **** 	}
 395              		.loc 1 328 3 is_stmt 0 view .LVU130
 396              	.LBE406:
 397              	.LBE413:
 179:Drivers/sdio.h **** 			hcs = true;
 398              		.loc 1 179 3 is_stmt 1 view .LVU131
 179:Drivers/sdio.h **** 			hcs = true;
 399              		.loc 1 179 37 is_stmt 0 view .LVU132
 400 00b6 6F4A     		ldr	r2, .L173
 401 00b8 5669     		ldr	r6, [r2, #20]
 179:Drivers/sdio.h **** 			hcs = true;
 402              		.loc 1 179 27 view .LVU133
 403 00ba 40F2F117 		movw	r7, #497
 404 00be BE42     		cmp	r6, r7
 405 00c0 EED1     		bne	.L81
 406              	.LVL24:
 407              	.L152:
 180:Drivers/sdio.h **** 		} else if (result == Timeout) {
 408              		.loc 1 180 8 view .LVU134
 409 00c2 0121     		movs	r1, #1
 410              	.LVL25:
 411              	.L84:
 188:Drivers/sdio.h **** 		const uint32_t OCR_HCS = 0x40000000;
 412              		.loc 1 188 3 is_stmt 1 view .LVU135
 189:Drivers/sdio.h **** 		const uint32_t OCR_CCS = 0x40000000;
 413              		.loc 1 189 3 view .LVU136
 190:Drivers/sdio.h **** 
 414              		.loc 1 190 3 view .LVU137
 192:Drivers/sdio.h **** 		time_out.start(2000);
 415              		.loc 1 192 3 view .LVU138
 193:Drivers/sdio.h **** 
 416              		.loc 1 193 3 view .LVU139
 417              	.LBB414:
 418              	.LBI414:
 419              		.file 2 "Src/Engine/timeOut.h"
   1:Src/Engine/timeOut.h **** #ifndef TimeOut_h
   2:Src/Engine/timeOut.h **** #define TimeOut_h
   3:Src/Engine/timeOut.h **** 
   4:Src/Engine/timeOut.h **** #include "micros.h"
   5:Src/Engine/timeOut.h **** 
   6:Src/Engine/timeOut.h **** class TimeOut {
   7:Src/Engine/timeOut.h **** 
   8:Src/Engine/timeOut.h **** public:
   9:Src/Engine/timeOut.h **** 	void start(uint32_t ms) {
 420              		.loc 2 9 7 view .LVU140
 421              	.LBB415:
  10:Src/Engine/timeOut.h **** 		interval_ = ms * 1000;
 422              		.loc 2 10 3 view .LVU141
 423              		.loc 2 10 13 is_stmt 0 view .LVU142
 424 00c4 6C4D     		ldr	r5, .L173+4
 425              	.LBB416:
 426              	.LBB417:
ARM GAS  /var/folders/84/_x1cyy_j36g486tldtwl37280000gn/T//ccBOLdZ4.s 			page 17


 427              		.file 3 "Drivers/micros.h"
   1:Drivers/micros.h **** #ifndef Micros_h
   2:Drivers/micros.h **** #define Micros_h
   3:Drivers/micros.h **** 
   4:Drivers/micros.h **** #include "stmf4lib.h"
   5:Drivers/micros.h **** 
   6:Drivers/micros.h **** class Micros {
   7:Drivers/micros.h **** 
   8:Drivers/micros.h **** public:
   9:Drivers/micros.h **** 	void init();
  10:Drivers/micros.h **** 
  11:Drivers/micros.h **** 	inline volatile uint32_t read() {
  12:Drivers/micros.h **** 		return TIM5->CNT;
 428              		.loc 3 12 16 view .LVU143
 429 00c6 6D4C     		ldr	r4, .L173+8
 430              	.LBE417:
 431              	.LBE416:
 432              		.loc 2 10 13 view .LVU144
 433 00c8 C560     		str	r5, [r0, #12]
  11:Src/Engine/timeOut.h **** 		start_ = micros.read();
 434              		.loc 2 11 3 is_stmt 1 view .LVU145
 435              	.LBB419:
 436              	.LBI416:
  11:Drivers/micros.h **** 		return TIM5->CNT;
 437              		.loc 3 11 27 view .LVU146
 438              	.LVL26:
 439              	.LBB418:
 440              		.loc 3 12 3 view .LVU147
 441              		.loc 3 12 16 is_stmt 0 view .LVU148
 442 00ca 636A     		ldr	r3, [r4, #36]
 443              	.LBE418:
 444              	.LBE419:
 445              		.loc 2 11 10 view .LVU149
 446 00cc 8360     		str	r3, [r0, #8]
 447              	.LVL27:
 448              		.loc 2 11 10 view .LVU150
 449              	.LBE415:
 450              	.LBE414:
 195:Drivers/sdio.h **** 			result = sendAppCommand(41, 0x100000 | (hcs ? OCR_HCS : 0));
 451              		.loc 1 195 3 is_stmt 1 view .LVU151
 195:Drivers/sdio.h **** 			result = sendAppCommand(41, 0x100000 | (hcs ? OCR_HCS : 0));
 452              		.loc 1 195 25 view .LVU152
 453              	.LBB420:
 454              	.LBI420:
  12:Src/Engine/timeOut.h **** 	}
  13:Src/Engine/timeOut.h **** 
  14:Src/Engine/timeOut.h **** 	volatile bool status() {
 455              		.loc 2 14 16 view .LVU153
 456              	.LBB421:
  15:Src/Engine/timeOut.h **** 		return static_cast<uint32_t>((micros.read() - start_) < interval_);
 457              		.loc 2 15 3 view .LVU154
 458              	.LBB422:
 459              	.LBI422:
  11:Drivers/micros.h **** 		return TIM5->CNT;
 460              		.loc 3 11 27 view .LVU155
 461              	.LBB423:
 462              		.loc 3 12 3 view .LVU156
ARM GAS  /var/folders/84/_x1cyy_j36g486tldtwl37280000gn/T//ccBOLdZ4.s 			page 18


 463              		.loc 3 12 16 is_stmt 0 view .LVU157
 464 00ce 666A     		ldr	r6, [r4, #36]
 465              	.LBE423:
 466              	.LBE422:
 467              		.loc 2 15 49 view .LVU158
 468 00d0 8268     		ldr	r2, [r0, #8]
 469              		.loc 2 15 59 view .LVU159
 470 00d2 C768     		ldr	r7, [r0, #12]
 471              		.loc 2 15 47 view .LVU160
 472 00d4 B51A     		subs	r5, r6, r2
 473              		.loc 2 15 68 view .LVU161
 474 00d6 BD42     		cmp	r5, r7
 475 00d8 2CBF     		ite	cs
 476 00da 0025     		movcs	r5, #0
 477 00dc 0125     		movcc	r5, #1
 478              	.LVL28:
 479              		.loc 2 15 68 view .LVU162
 480              	.LBE421:
 481              	.LBE420:
 195:Drivers/sdio.h **** 			result = sendAppCommand(41, 0x100000 | (hcs ? OCR_HCS : 0));
 482              		.loc 1 195 25 view .LVU163
 483 00de 002D     		cmp	r5, #0
 484 00e0 DED0     		beq	.L81
 485              	.LBB427:
 486              	.LBB428:
 487              	.LBB429:
 488              	.LBB430:
 300:Drivers/sdio.h **** 			if (result != Success) {
 489              		.loc 1 300 42 view .LVU164
 490 00e2 0488     		ldrh	r4, [r0]
 491 00e4 664F     		ldr	r7, .L173+12
 492 00e6 0029     		cmp	r1, #0
 493 00e8 08BF     		it	eq
 494 00ea 4FF48017 		moveq	r7, #1048576
 300:Drivers/sdio.h **** 			if (result != Success) {
 495              		.loc 1 300 46 view .LVU165
 496 00ee 2604     		lsls	r6, r4, #16
 497              	.LVL29:
 498              	.L17:
 300:Drivers/sdio.h **** 			if (result != Success) {
 499              		.loc 1 300 46 view .LVU166
 500              	.LBE430:
 501              	.LBE429:
 502              	.LBE428:
 196:Drivers/sdio.h **** 			uint32_t response = SDIO->RESP1;
 503              		.loc 1 196 4 is_stmt 1 view .LVU167
 504 00f0 0524     		movs	r4, #5
 505 00f2 08E0     		b	.L30
 506              	.LVL30:
 507              	.L19:
 508              	.LBB469:
 509              	.LBB466:
 510              	.LBB463:
 511              	.LBB431:
 512              	.LBB432:
 513              	.LBB433:
 514              	.LBB434:
ARM GAS  /var/folders/84/_x1cyy_j36g486tldtwl37280000gn/T//ccBOLdZ4.s 			page 19


 343:Drivers/sdio.h **** 			SDIO->ICR = SDIO_STA_CMDSENT;
 515              		.loc 1 343 3 view .LVU168
 516 00f4 1106     		lsls	r1, r2, #24
 517 00f6 62D4     		bmi	.L153
 348:Drivers/sdio.h **** 			SDIO->ICR = SDIO_STA_CTIMEOUT;
 518              		.loc 1 348 3 view .LVU169
 519 00f8 5107     		lsls	r1, r2, #29
 520 00fa 5CD4     		bmi	.L154
 353:Drivers/sdio.h **** 			SDIO->ICR = SDIO_STA_CCRCFAIL;
 521              		.loc 1 353 3 view .LVU170
 522 00fc D207     		lsls	r2, r2, #31
 523              	.LVL31:
 353:Drivers/sdio.h **** 			SDIO->ICR = SDIO_STA_CCRCFAIL;
 524              		.loc 1 353 3 is_stmt 0 view .LVU171
 525 00fe 4FD4     		bmi	.L155
 526              	.LVL32:
 527              	.L24:
 528              		.loc 1 358 10 view .LVU172
 529 0100 0423     		movs	r3, #4
 530              	.L23:
 531              	.LBE434:
 532              	.LBE433:
 533              	.LBE432:
 534              	.LBE431:
 299:Drivers/sdio.h **** 			result = sendCommandWait(55, cardInfo.rca << 16);
 535              		.loc 1 299 3 is_stmt 1 view .LVU173
 536              	.LVL33:
 299:Drivers/sdio.h **** 			result = sendCommandWait(55, cardInfo.rca << 16);
 537              		.loc 1 299 21 view .LVU174
 538 0102 013C     		subs	r4, r4, #1
 539              	.LVL34:
 299:Drivers/sdio.h **** 			result = sendCommandWait(55, cardInfo.rca << 16);
 540              		.loc 1 299 21 is_stmt 0 view .LVU175
 541 0104 52D0     		beq	.L156
 542              	.LVL35:
 543              	.L30:
 300:Drivers/sdio.h **** 			if (result != Success) {
 544              		.loc 1 300 4 is_stmt 1 view .LVU176
 545              	.LBB449:
 546              	.LBI431:
 313:Drivers/sdio.h **** 		Error result;
 547              		.loc 1 313 8 view .LVU177
 548              	.LBB445:
 314:Drivers/sdio.h **** 		sendCommand(cmd, arg);
 549              		.loc 1 314 3 view .LVU178
 315:Drivers/sdio.h **** 		while ((result = commandResult()) == InProgress);
 550              		.loc 1 315 3 view .LVU179
 551              	.LBB439:
 552              	.LBI439:
 281:Drivers/sdio.h **** 		cmd &= 0x3F;	// SDIO_CMD_CMDINDEX_MASK
 553              		.loc 1 281 7 view .LVU180
 554              	.LBB440:
 282:Drivers/sdio.h **** 
 555              		.loc 1 282 3 view .LVU181
 284:Drivers/sdio.h **** 		if (cmd == 0) {
 556              		.loc 1 284 3 view .LVU182
 285:Drivers/sdio.h **** 			waitresp = SDIO_RESPONSE_NO;
ARM GAS  /var/folders/84/_x1cyy_j36g486tldtwl37280000gn/T//ccBOLdZ4.s 			page 20


 557              		.loc 1 285 3 view .LVU183
 287:Drivers/sdio.h **** 			waitresp = SDIO_RESPONSE_LONG;
 558              		.loc 1 287 10 view .LVU184
 291:Drivers/sdio.h **** 		SDIO->ARG = arg; 								// The arg must be set before the command.
 559              		.loc 1 291 3 view .LVU185
 291:Drivers/sdio.h **** 		SDIO->ARG = arg; 								// The arg must be set before the command.
 560              		.loc 1 291 13 is_stmt 0 view .LVU186
 561 0106 5B4B     		ldr	r3, .L173
 562 0108 40F2FF71 		movw	r1, #2047
 293:Drivers/sdio.h **** 	}
 563              		.loc 1 293 13 view .LVU187
 564 010c 40F27742 		movw	r2, #1143
 291:Drivers/sdio.h **** 		SDIO->ARG = arg; 								// The arg must be set before the command.
 565              		.loc 1 291 13 view .LVU188
 566 0110 9963     		str	r1, [r3, #56]
 292:Drivers/sdio.h **** 		SDIO->CMD = (cmd | SDIO_CMD_CPSMEN | waitresp);	// Set the command and associated bits.
 567              		.loc 1 292 3 is_stmt 1 view .LVU189
 292:Drivers/sdio.h **** 		SDIO->CMD = (cmd | SDIO_CMD_CPSMEN | waitresp);	// Set the command and associated bits.
 568              		.loc 1 292 13 is_stmt 0 view .LVU190
 569 0112 9E60     		str	r6, [r3, #8]
 293:Drivers/sdio.h **** 	}
 570              		.loc 1 293 3 is_stmt 1 view .LVU191
 293:Drivers/sdio.h **** 	}
 571              		.loc 1 293 13 is_stmt 0 view .LVU192
 572 0114 DA60     		str	r2, [r3, #12]
 573              	.LVL36:
 574              	.L18:
 293:Drivers/sdio.h **** 	}
 575              		.loc 1 293 13 view .LVU193
 576              	.LBE440:
 577              	.LBE439:
 316:Drivers/sdio.h **** 		return result;
 578              		.loc 1 316 3 is_stmt 1 view .LVU194
 316:Drivers/sdio.h **** 		return result;
 579              		.loc 1 316 37 view .LVU195
 580              	.LBB441:
 581              	.LBI433:
 331:Drivers/sdio.h **** 		uint32_t status = SDIO->STA & 0xFFF;
 582              		.loc 1 331 8 view .LVU196
 583              	.LBB435:
 332:Drivers/sdio.h **** 
 584              		.loc 1 332 3 view .LVU197
 332:Drivers/sdio.h **** 
 585              		.loc 1 332 27 is_stmt 0 view .LVU198
 586 0116 574B     		ldr	r3, .L173
 587 0118 5A6B     		ldr	r2, [r3, #52]
 588              	.LVL37:
 334:Drivers/sdio.h **** 			return InProgress;
 589              		.loc 1 334 3 is_stmt 1 view .LVU199
 590 011a 1105     		lsls	r1, r2, #20
 591 011c FBD4     		bmi	.L18
 338:Drivers/sdio.h **** 			SDIO->ICR = SDIO_STA_CMDREND;
 592              		.loc 1 338 3 view .LVU200
 593 011e 5106     		lsls	r1, r2, #25
 594 0120 E8D5     		bpl	.L19
 339:Drivers/sdio.h **** 			return Success;
 595              		.loc 1 339 4 view .LVU201
ARM GAS  /var/folders/84/_x1cyy_j36g486tldtwl37280000gn/T//ccBOLdZ4.s 			page 21


 339:Drivers/sdio.h **** 			return Success;
 596              		.loc 1 339 14 is_stmt 0 view .LVU202
 597 0122 4022     		movs	r2, #64
 598              	.LVL38:
 339:Drivers/sdio.h **** 			return Success;
 599              		.loc 1 339 14 view .LVU203
 600 0124 9A63     		str	r2, [r3, #56]
 340:Drivers/sdio.h **** 		}
 601              		.loc 1 340 4 is_stmt 1 view .LVU204
 602              	.LVL39:
 603              	.L20:
 340:Drivers/sdio.h **** 		}
 604              		.loc 1 340 4 is_stmt 0 view .LVU205
 605              	.LBE435:
 606              	.LBE441:
 317:Drivers/sdio.h **** 	}
 607              		.loc 1 317 3 is_stmt 1 view .LVU206
 317:Drivers/sdio.h **** 	}
 608              		.loc 1 317 3 is_stmt 0 view .LVU207
 609              	.LBE445:
 610              	.LBE449:
 301:Drivers/sdio.h **** 				continue;
 611              		.loc 1 301 4 is_stmt 1 view .LVU208
 304:Drivers/sdio.h **** 			if (result == expected) {
 612              		.loc 1 304 4 view .LVU209
 613              	.LBB450:
 614              	.LBI450:
 313:Drivers/sdio.h **** 		Error result;
 615              		.loc 1 313 8 view .LVU210
 616              	.LBB451:
 314:Drivers/sdio.h **** 		sendCommand(cmd, arg);
 617              		.loc 1 314 3 view .LVU211
 315:Drivers/sdio.h **** 		while ((result = commandResult()) == InProgress);
 618              		.loc 1 315 3 view .LVU212
 619              	.LBB452:
 620              	.LBI452:
 281:Drivers/sdio.h **** 		cmd &= 0x3F;	// SDIO_CMD_CMDINDEX_MASK
 621              		.loc 1 281 7 view .LVU213
 622              	.LBB453:
 282:Drivers/sdio.h **** 
 623              		.loc 1 282 3 view .LVU214
 284:Drivers/sdio.h **** 		if (cmd == 0) {
 624              		.loc 1 284 3 view .LVU215
 285:Drivers/sdio.h **** 			waitresp = SDIO_RESPONSE_NO;
 625              		.loc 1 285 3 view .LVU216
 287:Drivers/sdio.h **** 			waitresp = SDIO_RESPONSE_LONG;
 626              		.loc 1 287 10 view .LVU217
 291:Drivers/sdio.h **** 		SDIO->ARG = arg; 								// The arg must be set before the command.
 627              		.loc 1 291 3 view .LVU218
 291:Drivers/sdio.h **** 		SDIO->ARG = arg; 								// The arg must be set before the command.
 628              		.loc 1 291 13 is_stmt 0 view .LVU219
 629 0126 534B     		ldr	r3, .L173
 630 0128 40F2FF71 		movw	r1, #2047
 293:Drivers/sdio.h **** 	}
 631              		.loc 1 293 13 view .LVU220
 632 012c 40F26942 		movw	r2, #1129
 291:Drivers/sdio.h **** 		SDIO->ARG = arg; 								// The arg must be set before the command.
ARM GAS  /var/folders/84/_x1cyy_j36g486tldtwl37280000gn/T//ccBOLdZ4.s 			page 22


 633              		.loc 1 291 13 view .LVU221
 634 0130 9963     		str	r1, [r3, #56]
 292:Drivers/sdio.h **** 		SDIO->CMD = (cmd | SDIO_CMD_CPSMEN | waitresp);	// Set the command and associated bits.
 635              		.loc 1 292 3 is_stmt 1 view .LVU222
 292:Drivers/sdio.h **** 		SDIO->CMD = (cmd | SDIO_CMD_CPSMEN | waitresp);	// Set the command and associated bits.
 636              		.loc 1 292 13 is_stmt 0 view .LVU223
 637 0132 9F60     		str	r7, [r3, #8]
 293:Drivers/sdio.h **** 	}
 638              		.loc 1 293 3 is_stmt 1 view .LVU224
 293:Drivers/sdio.h **** 	}
 639              		.loc 1 293 13 is_stmt 0 view .LVU225
 640 0134 DA60     		str	r2, [r3, #12]
 641              	.LVL40:
 642              	.L25:
 293:Drivers/sdio.h **** 	}
 643              		.loc 1 293 13 view .LVU226
 644              	.LBE453:
 645              	.LBE452:
 316:Drivers/sdio.h **** 		return result;
 646              		.loc 1 316 3 is_stmt 1 view .LVU227
 316:Drivers/sdio.h **** 		return result;
 647              		.loc 1 316 37 view .LVU228
 648              	.LBB454:
 649              	.LBI454:
 331:Drivers/sdio.h **** 		uint32_t status = SDIO->STA & 0xFFF;
 650              		.loc 1 331 8 view .LVU229
 651              	.LBB455:
 332:Drivers/sdio.h **** 
 652              		.loc 1 332 3 view .LVU230
 332:Drivers/sdio.h **** 
 653              		.loc 1 332 27 is_stmt 0 view .LVU231
 654 0136 4F49     		ldr	r1, .L173
 655 0138 4A6B     		ldr	r2, [r1, #52]
 656              	.LVL41:
 334:Drivers/sdio.h **** 			return InProgress;
 657              		.loc 1 334 3 is_stmt 1 view .LVU232
 658 013a 12F4006C 		ands	ip, r2, #2048
 659 013e FAD1     		bne	.L25
 338:Drivers/sdio.h **** 			SDIO->ICR = SDIO_STA_CMDREND;
 660              		.loc 1 338 3 view .LVU233
 661 0140 12F04003 		ands	r3, r2, #64
 662 0144 45D1     		bne	.L157
 343:Drivers/sdio.h **** 			SDIO->ICR = SDIO_STA_CMDSENT;
 663              		.loc 1 343 3 view .LVU234
 664 0146 12F0800F 		tst	r2, #128
 665 014a 3FD1     		bne	.L158
 348:Drivers/sdio.h **** 			SDIO->ICR = SDIO_STA_CTIMEOUT;
 666              		.loc 1 348 3 view .LVU235
 667 014c 5307     		lsls	r3, r2, #29
 668 014e 39D4     		bmi	.L159
 353:Drivers/sdio.h **** 			SDIO->ICR = SDIO_STA_CCRCFAIL;
 669              		.loc 1 353 3 view .LVU236
 670 0150 D307     		lsls	r3, r2, #31
 671 0152 D5D5     		bpl	.L24
 354:Drivers/sdio.h **** 			return CRCFail;
 672              		.loc 1 354 4 view .LVU237
 354:Drivers/sdio.h **** 			return CRCFail;
ARM GAS  /var/folders/84/_x1cyy_j36g486tldtwl37280000gn/T//ccBOLdZ4.s 			page 23


 673              		.loc 1 354 14 is_stmt 0 view .LVU238
 674 0154 0124     		movs	r4, #1
 675              	.LVL42:
 354:Drivers/sdio.h **** 			return CRCFail;
 676              		.loc 1 354 14 view .LVU239
 677 0156 8C63     		str	r4, [r1, #56]
 355:Drivers/sdio.h **** 		}
 678              		.loc 1 355 4 is_stmt 1 view .LVU240
 679              	.LVL43:
 355:Drivers/sdio.h **** 		}
 680              		.loc 1 355 4 is_stmt 0 view .LVU241
 681              	.LBE455:
 682              	.LBE454:
 317:Drivers/sdio.h **** 	}
 683              		.loc 1 317 3 is_stmt 1 view .LVU242
 317:Drivers/sdio.h **** 	}
 684              		.loc 1 317 3 is_stmt 0 view .LVU243
 685              	.LBE451:
 686              	.LBE450:
 305:Drivers/sdio.h **** 				break;
 687              		.loc 1 305 4 is_stmt 1 view .LVU244
 305:Drivers/sdio.h **** 				break;
 688              		.loc 1 305 4 is_stmt 0 view .LVU245
 689              	.LBE463:
 309:Drivers/sdio.h **** 
 690              		.loc 1 309 3 is_stmt 1 view .LVU246
 309:Drivers/sdio.h **** 
 691              		.loc 1 309 3 is_stmt 0 view .LVU247
 692              	.LBE466:
 693              	.LBE469:
 197:Drivers/sdio.h **** 			if (result == CRCFail && (response & OCR_BUSY) != 0) {
 694              		.loc 1 197 4 is_stmt 1 view .LVU248
 197:Drivers/sdio.h **** 			if (result == CRCFail && (response & OCR_BUSY) != 0) {
 695              		.loc 1 197 30 is_stmt 0 view .LVU249
 696 0158 4A69     		ldr	r2, [r1, #20]
 697              	.LVL44:
 198:Drivers/sdio.h **** 				cardInfo.ccs = (response & OCR_CCS) != 0;
 698              		.loc 1 198 4 is_stmt 1 view .LVU250
 699              	.L29:
 198:Drivers/sdio.h **** 				cardInfo.ccs = (response & OCR_CCS) != 0;
 700              		.loc 1 198 26 is_stmt 0 discriminator 1 view .LVU251
 701 015a 002A     		cmp	r2, #0
 702 015c 3DDB     		blt	.L160
 703              	.L31:
 198:Drivers/sdio.h **** 				cardInfo.ccs = (response & OCR_CCS) != 0;
 704              		.loc 1 198 26 discriminator 1 view .LVU252
 705              	.LBE427:
 195:Drivers/sdio.h **** 			result = sendAppCommand(41, 0x100000 | (hcs ? OCR_HCS : 0));
 706              		.loc 1 195 3 is_stmt 1 view .LVU253
 195:Drivers/sdio.h **** 			result = sendAppCommand(41, 0x100000 | (hcs ? OCR_HCS : 0));
 707              		.loc 1 195 25 view .LVU254
 708              	.LVL45:
 709              	.LBB472:
  14:Src/Engine/timeOut.h **** 		return static_cast<uint32_t>((micros.read() - start_) < interval_);
 710              		.loc 2 14 16 view .LVU255
 711              	.LBB426:
 712              		.loc 2 15 3 view .LVU256
ARM GAS  /var/folders/84/_x1cyy_j36g486tldtwl37280000gn/T//ccBOLdZ4.s 			page 24


 713              	.LBB425:
  11:Drivers/micros.h **** 		return TIM5->CNT;
 714              		.loc 3 11 27 view .LVU257
 715              	.LBB424:
 716              		.loc 3 12 3 view .LVU258
 717              		.loc 3 12 16 is_stmt 0 view .LVU259
 718 015e 474B     		ldr	r3, .L173+8
 719 0160 5C6A     		ldr	r4, [r3, #36]
 720              	.LBE424:
 721              	.LBE425:
 722              		.loc 2 15 49 view .LVU260
 723 0162 8168     		ldr	r1, [r0, #8]
 724              		.loc 2 15 59 view .LVU261
 725 0164 C268     		ldr	r2, [r0, #12]
 726              	.LVL46:
 727              		.loc 2 15 47 view .LVU262
 728 0166 631A     		subs	r3, r4, r1
 729              	.LBE426:
 730              	.LBE472:
 195:Drivers/sdio.h **** 			result = sendAppCommand(41, 0x100000 | (hcs ? OCR_HCS : 0));
 731              		.loc 1 195 25 view .LVU263
 732 0168 9342     		cmp	r3, r2
 733 016a C1D3     		bcc	.L17
 734 016c 98E7     		b	.L81
 735              	.LVL47:
 736              	.L147:
 737              	.LBB473:
 738              	.LBB370:
 739              	.LBB367:
 740              	.LBB363:
 741              	.LBB359:
 742              	.LBB355:
 743              	.LBB349:
 349:Drivers/sdio.h **** 			return Timeout;
 744              		.loc 1 349 4 is_stmt 1 view .LVU264
 349:Drivers/sdio.h **** 			return Timeout;
 745              		.loc 1 349 14 is_stmt 0 view .LVU265
 746 016e 0425     		movs	r5, #4
 747              	.LBE349:
 748              	.LBE355:
 749              	.LBE359:
 750              	.LBE363:
 322:Drivers/sdio.h **** 			result = sendCommandWait(cmd, arg);
 751              		.loc 1 322 21 view .LVU266
 752 0170 0139     		subs	r1, r1, #1
 753              	.LVL48:
 754              	.LBB364:
 755              	.LBB360:
 756              	.LBB356:
 757              	.LBB350:
 349:Drivers/sdio.h **** 			return Timeout;
 758              		.loc 1 349 14 view .LVU267
 759 0172 9563     		str	r5, [r2, #56]
 350:Drivers/sdio.h **** 		}
 760              		.loc 1 350 4 is_stmt 1 view .LVU268
 761              	.LVL49:
 350:Drivers/sdio.h **** 		}
ARM GAS  /var/folders/84/_x1cyy_j36g486tldtwl37280000gn/T//ccBOLdZ4.s 			page 25


 762              		.loc 1 350 4 is_stmt 0 view .LVU269
 763              	.LBE350:
 764              	.LBE356:
 317:Drivers/sdio.h **** 	}
 765              		.loc 1 317 3 is_stmt 1 view .LVU270
 317:Drivers/sdio.h **** 	}
 766              		.loc 1 317 3 is_stmt 0 view .LVU271
 767              	.LBE360:
 768              	.LBE364:
 324:Drivers/sdio.h **** 				break;
 769              		.loc 1 324 4 is_stmt 1 view .LVU272
 322:Drivers/sdio.h **** 			result = sendCommandWait(cmd, arg);
 770              		.loc 1 322 3 view .LVU273
 322:Drivers/sdio.h **** 			result = sendCommandWait(cmd, arg);
 771              		.loc 1 322 21 view .LVU274
 772 0174 7FF45DAF 		bne	.L89
 773              	.LVL50:
 774              	.L88:
 322:Drivers/sdio.h **** 			result = sendCommandWait(cmd, arg);
 775              		.loc 1 322 21 is_stmt 0 view .LVU275
 776              	.LBE367:
 328:Drivers/sdio.h **** 	}
 777              		.loc 1 328 3 is_stmt 1 view .LVU276
 778              	.LBE370:
 779              	.LBE473:
 171:Drivers/sdio.h **** 			return false;
 780              		.loc 1 171 4 view .LVU277
 781              	.LBB474:
 782              	.LBI474:
 138:Drivers/sdio.h **** 		//if (initialised_ == false) {
 783              		.loc 1 138 7 view .LVU278
 784              	.LBB475:
 140:Drivers/sdio.h **** 	//	while (SDIO->POWER);
 785              		.loc 1 140 3 view .LVU279
 140:Drivers/sdio.h **** 	//	while (SDIO->POWER);
 786              		.loc 1 140 15 is_stmt 0 view .LVU280
 787 0178 3E4C     		ldr	r4, .L173
 788              	.LBE475:
 789              	.LBE474:
 172:Drivers/sdio.h **** 		}
 790              		.loc 1 172 11 view .LVU281
 791 017a 0D46     		mov	r5, r1
 269:Drivers/sdio.h **** 
 792              		.loc 1 269 2 view .LVU282
 793 017c 2846     		mov	r0, r5
 794              	.LBB477:
 795              	.LBB476:
 140:Drivers/sdio.h **** 	//	while (SDIO->POWER);
 796              		.loc 1 140 15 view .LVU283
 797 017e 2160     		str	r1, [r4]
 798              	.LBE476:
 799              	.LBE477:
 172:Drivers/sdio.h **** 		}
 800              		.loc 1 172 4 is_stmt 1 view .LVU284
 269:Drivers/sdio.h **** 
 801              		.loc 1 269 2 is_stmt 0 view .LVU285
 802 0180 F0BC     		pop	{r4, r5, r6, r7}
ARM GAS  /var/folders/84/_x1cyy_j36g486tldtwl37280000gn/T//ccBOLdZ4.s 			page 26


 803              		.cfi_remember_state
 804              		.cfi_restore 7
 805              		.cfi_restore 6
 806              		.cfi_restore 5
 807              		.cfi_restore 4
 808              		.cfi_def_cfa_offset 0
 809 0182 7047     		bx	lr
 810              	.LVL51:
 811              	.L150:
 812              		.cfi_restore_state
 813              	.LBB478:
 814              	.LBB407:
 815              	.LBB403:
 816              	.LBB398:
 817              	.LBB393:
 818              	.LBB388:
 819              	.LBB381:
 354:Drivers/sdio.h **** 			return CRCFail;
 820              		.loc 1 354 4 is_stmt 1 view .LVU286
 354:Drivers/sdio.h **** 			return CRCFail;
 821              		.loc 1 354 14 is_stmt 0 view .LVU287
 822 0184 0127     		movs	r7, #1
 823              	.LBE381:
 824              	.LBE388:
 825              	.LBE393:
 826              	.LBE398:
 322:Drivers/sdio.h **** 			result = sendCommandWait(cmd, arg);
 827              		.loc 1 322 21 view .LVU288
 828 0186 0139     		subs	r1, r1, #1
 829              	.LVL52:
 830              	.LBB399:
 831              	.LBB394:
 832              	.LBB389:
 833              	.LBB382:
 354:Drivers/sdio.h **** 			return CRCFail;
 834              		.loc 1 354 14 view .LVU289
 835 0188 9763     		str	r7, [r2, #56]
 355:Drivers/sdio.h **** 		}
 836              		.loc 1 355 4 is_stmt 1 view .LVU290
 837              	.LVL53:
 355:Drivers/sdio.h **** 		}
 838              		.loc 1 355 11 is_stmt 0 view .LVU291
 839 018a 4FF00306 		mov	r6, #3
 840              	.LVL54:
 355:Drivers/sdio.h **** 		}
 841              		.loc 1 355 11 view .LVU292
 842              	.LBE382:
 843              	.LBE389:
 317:Drivers/sdio.h **** 	}
 844              		.loc 1 317 3 is_stmt 1 view .LVU293
 317:Drivers/sdio.h **** 	}
 845              		.loc 1 317 3 is_stmt 0 view .LVU294
 846              	.LBE394:
 847              	.LBE399:
 324:Drivers/sdio.h **** 				break;
 848              		.loc 1 324 4 is_stmt 1 view .LVU295
 322:Drivers/sdio.h **** 			result = sendCommandWait(cmd, arg);
ARM GAS  /var/folders/84/_x1cyy_j36g486tldtwl37280000gn/T//ccBOLdZ4.s 			page 27


 849              		.loc 1 322 3 view .LVU296
 322:Drivers/sdio.h **** 			result = sendCommandWait(cmd, arg);
 850              		.loc 1 322 21 view .LVU297
 851 018e 7FF46FAF 		bne	.L87
 852              	.L151:
 853              	.LVL55:
 322:Drivers/sdio.h **** 			result = sendCommandWait(cmd, arg);
 854              		.loc 1 322 21 is_stmt 0 view .LVU298
 855              	.LBE403:
 328:Drivers/sdio.h **** 	}
 856              		.loc 1 328 3 is_stmt 1 view .LVU299
 328:Drivers/sdio.h **** 	}
 857              		.loc 1 328 3 is_stmt 0 view .LVU300
 858              	.LBE407:
 859              	.LBE478:
 179:Drivers/sdio.h **** 			hcs = true;
 860              		.loc 1 179 3 is_stmt 1 view .LVU301
 181:Drivers/sdio.h **** 			hcs = false;
 861              		.loc 1 181 10 view .LVU302
 862 0192 022E     		cmp	r6, #2
 863 0194 96D0     		beq	.L84
 864 0196 83E7     		b	.L81
 865              	.LVL56:
 866              	.L149:
 867              	.LBB479:
 868              	.LBB408:
 869              	.LBB404:
 870              	.LBB400:
 871              	.LBB395:
 872              	.LBB390:
 873              	.LBB383:
 349:Drivers/sdio.h **** 			return Timeout;
 874              		.loc 1 349 4 view .LVU303
 349:Drivers/sdio.h **** 			return Timeout;
 875              		.loc 1 349 14 is_stmt 0 view .LVU304
 876 0198 0425     		movs	r5, #4
 877 019a 9563     		str	r5, [r2, #56]
 350:Drivers/sdio.h **** 		}
 878              		.loc 1 350 4 is_stmt 1 view .LVU305
 879              	.LVL57:
 350:Drivers/sdio.h **** 		}
 880              		.loc 1 350 11 is_stmt 0 view .LVU306
 881 019c 0226     		movs	r6, #2
 882 019e 64E7     		b	.L14
 883              	.LVL58:
 884              	.L155:
 350:Drivers/sdio.h **** 		}
 885              		.loc 1 350 11 view .LVU307
 886              	.LBE383:
 887              	.LBE390:
 888              	.LBE395:
 889              	.LBE400:
 890              	.LBE404:
 891              	.LBE408:
 892              	.LBE479:
 893              	.LBB480:
 894              	.LBB470:
ARM GAS  /var/folders/84/_x1cyy_j36g486tldtwl37280000gn/T//ccBOLdZ4.s 			page 28


 895              	.LBB467:
 896              	.LBB464:
 897              	.LBB459:
 898              	.LBB446:
 899              	.LBB442:
 900              	.LBB436:
 354:Drivers/sdio.h **** 			return CRCFail;
 901              		.loc 1 354 4 is_stmt 1 view .LVU308
 354:Drivers/sdio.h **** 			return CRCFail;
 902              		.loc 1 354 14 is_stmt 0 view .LVU309
 903 01a0 0121     		movs	r1, #1
 904              	.LBE436:
 905              	.LBE442:
 906              	.LBE446:
 907              	.LBE459:
 299:Drivers/sdio.h **** 			result = sendCommandWait(55, cardInfo.rca << 16);
 908              		.loc 1 299 21 view .LVU310
 909 01a2 013C     		subs	r4, r4, #1
 910              	.LVL59:
 911              	.LBB460:
 912              	.LBB447:
 913              	.LBB443:
 914              	.LBB437:
 354:Drivers/sdio.h **** 			return CRCFail;
 915              		.loc 1 354 14 view .LVU311
 916 01a4 9963     		str	r1, [r3, #56]
 355:Drivers/sdio.h **** 		}
 917              		.loc 1 355 4 is_stmt 1 view .LVU312
 918              	.LVL60:
 355:Drivers/sdio.h **** 		}
 919              		.loc 1 355 11 is_stmt 0 view .LVU313
 920 01a6 4FF00303 		mov	r3, #3
 921              	.LVL61:
 355:Drivers/sdio.h **** 		}
 922              		.loc 1 355 11 view .LVU314
 923              	.LBE437:
 924              	.LBE443:
 925              	.LBE447:
 926              	.LBE460:
 299:Drivers/sdio.h **** 			result = sendCommandWait(55, cardInfo.rca << 16);
 927              		.loc 1 299 3 is_stmt 1 view .LVU315
 299:Drivers/sdio.h **** 			result = sendCommandWait(55, cardInfo.rca << 16);
 928              		.loc 1 299 21 view .LVU316
 929 01aa ACD1     		bne	.L30
 930              	.L156:
 931              	.LVL62:
 299:Drivers/sdio.h **** 			result = sendCommandWait(55, cardInfo.rca << 16);
 932              		.loc 1 299 21 is_stmt 0 view .LVU317
 933              	.LBE464:
 309:Drivers/sdio.h **** 
 934              		.loc 1 309 3 is_stmt 1 view .LVU318
 309:Drivers/sdio.h **** 
 935              		.loc 1 309 3 is_stmt 0 view .LVU319
 936              	.LBE467:
 937              	.LBE470:
 197:Drivers/sdio.h **** 			if (result == CRCFail && (response & OCR_BUSY) != 0) {
 938              		.loc 1 197 4 is_stmt 1 view .LVU320
ARM GAS  /var/folders/84/_x1cyy_j36g486tldtwl37280000gn/T//ccBOLdZ4.s 			page 29


 197:Drivers/sdio.h **** 			if (result == CRCFail && (response & OCR_BUSY) != 0) {
 939              		.loc 1 197 30 is_stmt 0 view .LVU321
 940 01ac 3149     		ldr	r1, .L173
 198:Drivers/sdio.h **** 				cardInfo.ccs = (response & OCR_CCS) != 0;
 941              		.loc 1 198 4 view .LVU322
 942 01ae 032B     		cmp	r3, #3
 197:Drivers/sdio.h **** 			if (result == CRCFail && (response & OCR_BUSY) != 0) {
 943              		.loc 1 197 30 view .LVU323
 944 01b0 4A69     		ldr	r2, [r1, #20]
 945              	.LVL63:
 198:Drivers/sdio.h **** 				cardInfo.ccs = (response & OCR_CCS) != 0;
 946              		.loc 1 198 4 is_stmt 1 view .LVU324
 947 01b2 D4D1     		bne	.L31
 948 01b4 D1E7     		b	.L29
 949              	.LVL64:
 950              	.L154:
 951              	.LBB471:
 952              	.LBB468:
 953              	.LBB465:
 954              	.LBB461:
 955              	.LBB448:
 956              	.LBB444:
 957              	.LBB438:
 349:Drivers/sdio.h **** 			return Timeout;
 958              		.loc 1 349 4 view .LVU325
 349:Drivers/sdio.h **** 			return Timeout;
 959              		.loc 1 349 14 is_stmt 0 view .LVU326
 960 01b6 0422     		movs	r2, #4
 961              	.LVL65:
 349:Drivers/sdio.h **** 			return Timeout;
 962              		.loc 1 349 14 view .LVU327
 963 01b8 9A63     		str	r2, [r3, #56]
 350:Drivers/sdio.h **** 		}
 964              		.loc 1 350 4 is_stmt 1 view .LVU328
 965              	.LVL66:
 350:Drivers/sdio.h **** 		}
 966              		.loc 1 350 11 is_stmt 0 view .LVU329
 967 01ba 0223     		movs	r3, #2
 968 01bc A1E7     		b	.L23
 969              	.LVL67:
 970              	.L153:
 344:Drivers/sdio.h **** 			return Success;
 971              		.loc 1 344 4 is_stmt 1 view .LVU330
 344:Drivers/sdio.h **** 			return Success;
 972              		.loc 1 344 14 is_stmt 0 view .LVU331
 973 01be 8021     		movs	r1, #128
 974 01c0 9963     		str	r1, [r3, #56]
 345:Drivers/sdio.h **** 		}
 975              		.loc 1 345 4 is_stmt 1 view .LVU332
 976              	.LVL68:
 345:Drivers/sdio.h **** 		}
 977              		.loc 1 345 4 is_stmt 0 view .LVU333
 978 01c2 B0E7     		b	.L20
 979              	.LVL69:
 980              	.L159:
 345:Drivers/sdio.h **** 		}
 981              		.loc 1 345 4 view .LVU334
ARM GAS  /var/folders/84/_x1cyy_j36g486tldtwl37280000gn/T//ccBOLdZ4.s 			page 30


 982              	.LBE438:
 983              	.LBE444:
 984              	.LBE448:
 985              	.LBE461:
 986              	.LBB462:
 987              	.LBB458:
 988              	.LBB457:
 989              	.LBB456:
 349:Drivers/sdio.h **** 			return Timeout;
 990              		.loc 1 349 4 is_stmt 1 view .LVU335
 349:Drivers/sdio.h **** 			return Timeout;
 991              		.loc 1 349 14 is_stmt 0 view .LVU336
 992 01c4 0422     		movs	r2, #4
 993              	.LVL70:
 349:Drivers/sdio.h **** 			return Timeout;
 994              		.loc 1 349 14 view .LVU337
 995 01c6 8A63     		str	r2, [r1, #56]
 350:Drivers/sdio.h **** 		}
 996              		.loc 1 350 4 is_stmt 1 view .LVU338
 997              	.LVL71:
 350:Drivers/sdio.h **** 		}
 998              		.loc 1 350 11 is_stmt 0 view .LVU339
 999 01c8 0223     		movs	r3, #2
 1000 01ca 9AE7     		b	.L23
 1001              	.LVL72:
 1002              	.L158:
 344:Drivers/sdio.h **** 			return Success;
 1003              		.loc 1 344 4 is_stmt 1 view .LVU340
 344:Drivers/sdio.h **** 			return Success;
 1004              		.loc 1 344 14 is_stmt 0 view .LVU341
 1005 01cc 8022     		movs	r2, #128
 1006              	.LVL73:
 344:Drivers/sdio.h **** 			return Success;
 1007              		.loc 1 344 14 view .LVU342
 1008 01ce 8A63     		str	r2, [r1, #56]
 345:Drivers/sdio.h **** 		}
 1009              		.loc 1 345 4 is_stmt 1 view .LVU343
 1010              	.LVL74:
 345:Drivers/sdio.h **** 		}
 1011              		.loc 1 345 4 is_stmt 0 view .LVU344
 1012 01d0 97E7     		b	.L23
 1013              	.LVL75:
 1014              	.L157:
 339:Drivers/sdio.h **** 			return Success;
 1015              		.loc 1 339 4 is_stmt 1 view .LVU345
 339:Drivers/sdio.h **** 			return Success;
 1016              		.loc 1 339 14 is_stmt 0 view .LVU346
 1017 01d2 4022     		movs	r2, #64
 1018              	.LVL76:
 340:Drivers/sdio.h **** 		}
 1019              		.loc 1 340 11 view .LVU347
 1020 01d4 6346     		mov	r3, ip
 339:Drivers/sdio.h **** 			return Success;
 1021              		.loc 1 339 14 view .LVU348
 1022 01d6 8A63     		str	r2, [r1, #56]
 340:Drivers/sdio.h **** 		}
 1023              		.loc 1 340 4 is_stmt 1 view .LVU349
ARM GAS  /var/folders/84/_x1cyy_j36g486tldtwl37280000gn/T//ccBOLdZ4.s 			page 31


 1024              	.LVL77:
 340:Drivers/sdio.h **** 		}
 1025              		.loc 1 340 4 is_stmt 0 view .LVU350
 1026 01d8 93E7     		b	.L23
 1027              	.LVL78:
 1028              	.L160:
 340:Drivers/sdio.h **** 		}
 1029              		.loc 1 340 4 view .LVU351
 1030              	.LBE456:
 1031              	.LBE457:
 1032              	.LBE458:
 1033              	.LBE462:
 1034              	.LBE465:
 1035              	.LBE468:
 1036              	.LBE471:
 199:Drivers/sdio.h **** 				acmd41_success = true;
 1037              		.loc 1 199 5 is_stmt 1 view .LVU352
 199:Drivers/sdio.h **** 				acmd41_success = true;
 1038              		.loc 1 199 41 is_stmt 0 view .LVU353
 1039 01da C2F38076 		ubfx	r6, r2, #30, #1
 199:Drivers/sdio.h **** 				acmd41_success = true;
 1040              		.loc 1 199 18 view .LVU354
 1041 01de 8670     		strb	r6, [r0, #2]
 200:Drivers/sdio.h **** 				break;
 1042              		.loc 1 200 5 is_stmt 1 view .LVU355
 1043              	.LVL79:
 201:Drivers/sdio.h **** 			}
 1044              		.loc 1 201 5 view .LVU356
 201:Drivers/sdio.h **** 			}
 1045              		.loc 1 201 5 is_stmt 0 view .LVU357
 1046              	.LBE480:
 205:Drivers/sdio.h **** 			powerOff();
 1047              		.loc 1 205 3 is_stmt 1 view .LVU358
 1048              	.LBB481:
 1049              	.LBB482:
 1050              	.LBB483:
 322:Drivers/sdio.h **** 			result = sendCommandWait(cmd, arg);
 1051              		.loc 1 322 21 view .LVU359
 1052              	.LBE483:
 1053              	.LBE482:
 1054              	.LBE481:
 1055              	.LBB508:
 199:Drivers/sdio.h **** 				acmd41_success = true;
 1056              		.loc 1 199 18 is_stmt 0 view .LVU360
 1057 01e0 0521     		movs	r1, #5
 1058 01e2 0BE0     		b	.L32
 1059              	.LVL80:
 1060              	.L34:
 199:Drivers/sdio.h **** 				acmd41_success = true;
 1061              		.loc 1 199 18 view .LVU361
 1062              	.LBE508:
 1063              	.LBB509:
 1064              	.LBB505:
 1065              	.LBB502:
 1066              	.LBB484:
 1067              	.LBB485:
 1068              	.LBB486:
ARM GAS  /var/folders/84/_x1cyy_j36g486tldtwl37280000gn/T//ccBOLdZ4.s 			page 32


 1069              	.LBB487:
 343:Drivers/sdio.h **** 			SDIO->ICR = SDIO_STA_CMDSENT;
 1070              		.loc 1 343 3 is_stmt 1 view .LVU362
 1071 01e4 1C06     		lsls	r4, r3, #24
 1072 01e6 00F1D580 		bmi	.L161
 348:Drivers/sdio.h **** 			SDIO->ICR = SDIO_STA_CTIMEOUT;
 1073              		.loc 1 348 3 view .LVU363
 1074 01ea 5F07     		lsls	r7, r3, #29
 1075 01ec 00F1D880 		bmi	.L162
 353:Drivers/sdio.h **** 			SDIO->ICR = SDIO_STA_CCRCFAIL;
 1076              		.loc 1 353 3 view .LVU364
 1077 01f0 DE07     		lsls	r6, r3, #31
 1078 01f2 01D5     		bpl	.L38
 354:Drivers/sdio.h **** 			return CRCFail;
 1079              		.loc 1 354 4 view .LVU365
 354:Drivers/sdio.h **** 			return CRCFail;
 1080              		.loc 1 354 14 is_stmt 0 view .LVU366
 1081 01f4 0126     		movs	r6, #1
 1082 01f6 9663     		str	r6, [r2, #56]
 355:Drivers/sdio.h **** 		}
 1083              		.loc 1 355 4 is_stmt 1 view .LVU367
 1084              	.LVL81:
 1085              	.L38:
 355:Drivers/sdio.h **** 		}
 1086              		.loc 1 355 4 is_stmt 0 view .LVU368
 1087              	.LBE487:
 1088              	.LBE486:
 317:Drivers/sdio.h **** 	}
 1089              		.loc 1 317 3 is_stmt 1 view .LVU369
 317:Drivers/sdio.h **** 	}
 1090              		.loc 1 317 3 is_stmt 0 view .LVU370
 1091              	.LBE485:
 1092              	.LBE484:
 324:Drivers/sdio.h **** 				break;
 1093              		.loc 1 324 4 is_stmt 1 view .LVU371
 322:Drivers/sdio.h **** 			result = sendCommandWait(cmd, arg);
 1094              		.loc 1 322 3 view .LVU372
 322:Drivers/sdio.h **** 			result = sendCommandWait(cmd, arg);
 1095              		.loc 1 322 21 view .LVU373
 1096 01f8 0139     		subs	r1, r1, #1
 1097              	.LVL82:
 322:Drivers/sdio.h **** 			result = sendCommandWait(cmd, arg);
 1098              		.loc 1 322 21 is_stmt 0 view .LVU374
 1099 01fa BDD0     		beq	.L88
 1100              	.LVL83:
 1101              	.L32:
 323:Drivers/sdio.h **** 			if (result == Success) {
 1102              		.loc 1 323 4 is_stmt 1 view .LVU375
 1103              	.LBB499:
 1104              	.LBI484:
 313:Drivers/sdio.h **** 		Error result;
 1105              		.loc 1 313 8 view .LVU376
 1106              	.LBB496:
 314:Drivers/sdio.h **** 		sendCommand(cmd, arg);
 1107              		.loc 1 314 3 view .LVU377
 315:Drivers/sdio.h **** 		while ((result = commandResult()) == InProgress);
 1108              		.loc 1 315 3 view .LVU378
ARM GAS  /var/folders/84/_x1cyy_j36g486tldtwl37280000gn/T//ccBOLdZ4.s 			page 33


 1109              	.LBB491:
 1110              	.LBI491:
 281:Drivers/sdio.h **** 		cmd &= 0x3F;	// SDIO_CMD_CMDINDEX_MASK
 1111              		.loc 1 281 7 view .LVU379
 1112              	.LBB492:
 282:Drivers/sdio.h **** 
 1113              		.loc 1 282 3 view .LVU380
 284:Drivers/sdio.h **** 		if (cmd == 0) {
 1114              		.loc 1 284 3 view .LVU381
 285:Drivers/sdio.h **** 			waitresp = SDIO_RESPONSE_NO;
 1115              		.loc 1 285 3 view .LVU382
 287:Drivers/sdio.h **** 			waitresp = SDIO_RESPONSE_LONG;
 1116              		.loc 1 287 10 view .LVU383
 288:Drivers/sdio.h **** 		}
 1117              		.loc 1 288 4 view .LVU384
 291:Drivers/sdio.h **** 		SDIO->ARG = arg; 								// The arg must be set before the command.
 1118              		.loc 1 291 3 view .LVU385
 291:Drivers/sdio.h **** 		SDIO->ARG = arg; 								// The arg must be set before the command.
 1119              		.loc 1 291 13 is_stmt 0 view .LVU386
 1120 01fc 1D4F     		ldr	r7, .L173
 1121 01fe 40F2FF72 		movw	r2, #2047
 292:Drivers/sdio.h **** 		SDIO->CMD = (cmd | SDIO_CMD_CPSMEN | waitresp);	// Set the command and associated bits.
 1122              		.loc 1 292 13 view .LVU387
 1123 0202 0024     		movs	r4, #0
 293:Drivers/sdio.h **** 	}
 1124              		.loc 1 293 13 view .LVU388
 1125 0204 40F2C243 		movw	r3, #1218
 291:Drivers/sdio.h **** 		SDIO->ARG = arg; 								// The arg must be set before the command.
 1126              		.loc 1 291 13 view .LVU389
 1127 0208 BA63     		str	r2, [r7, #56]
 292:Drivers/sdio.h **** 		SDIO->CMD = (cmd | SDIO_CMD_CPSMEN | waitresp);	// Set the command and associated bits.
 1128              		.loc 1 292 3 is_stmt 1 view .LVU390
 292:Drivers/sdio.h **** 		SDIO->CMD = (cmd | SDIO_CMD_CPSMEN | waitresp);	// Set the command and associated bits.
 1129              		.loc 1 292 13 is_stmt 0 view .LVU391
 1130 020a BC60     		str	r4, [r7, #8]
 293:Drivers/sdio.h **** 	}
 1131              		.loc 1 293 3 is_stmt 1 view .LVU392
 293:Drivers/sdio.h **** 	}
 1132              		.loc 1 293 13 is_stmt 0 view .LVU393
 1133 020c FB60     		str	r3, [r7, #12]
 1134              	.LVL84:
 1135              	.L33:
 293:Drivers/sdio.h **** 	}
 1136              		.loc 1 293 13 view .LVU394
 1137              	.LBE492:
 1138              	.LBE491:
 316:Drivers/sdio.h **** 		return result;
 1139              		.loc 1 316 3 is_stmt 1 view .LVU395
 316:Drivers/sdio.h **** 		return result;
 1140              		.loc 1 316 37 view .LVU396
 1141              	.LBB493:
 1142              	.LBI486:
 331:Drivers/sdio.h **** 		uint32_t status = SDIO->STA & 0xFFF;
 1143              		.loc 1 331 8 view .LVU397
 1144              	.LBB488:
 332:Drivers/sdio.h **** 
 1145              		.loc 1 332 3 view .LVU398
ARM GAS  /var/folders/84/_x1cyy_j36g486tldtwl37280000gn/T//ccBOLdZ4.s 			page 34


 332:Drivers/sdio.h **** 
 1146              		.loc 1 332 27 is_stmt 0 view .LVU399
 1147 020e 194A     		ldr	r2, .L173
 1148 0210 536B     		ldr	r3, [r2, #52]
 1149              	.LVL85:
 334:Drivers/sdio.h **** 			return InProgress;
 1150              		.loc 1 334 3 is_stmt 1 view .LVU400
 1151 0212 1F05     		lsls	r7, r3, #20
 1152 0214 FBD4     		bmi	.L33
 338:Drivers/sdio.h **** 			SDIO->ICR = SDIO_STA_CMDREND;
 1153              		.loc 1 338 3 view .LVU401
 1154 0216 5E06     		lsls	r6, r3, #25
 1155 0218 E4D5     		bpl	.L34
 339:Drivers/sdio.h **** 			return Success;
 1156              		.loc 1 339 4 view .LVU402
 339:Drivers/sdio.h **** 			return Success;
 1157              		.loc 1 339 14 is_stmt 0 view .LVU403
 1158 021a 4024     		movs	r4, #64
 1159 021c 9463     		str	r4, [r2, #56]
 340:Drivers/sdio.h **** 		}
 1160              		.loc 1 340 4 is_stmt 1 view .LVU404
 1161              	.LVL86:
 340:Drivers/sdio.h **** 		}
 1162              		.loc 1 340 4 is_stmt 0 view .LVU405
 1163              	.LBE488:
 1164              	.LBE493:
 1165              	.LBE496:
 1166              	.LBE499:
 1167              	.LBE502:
 1168              	.LBE505:
 1169              	.LBE509:
 1170              	.LBB510:
 1171              	.LBB511:
 1172              	.LBB512:
 322:Drivers/sdio.h **** 			result = sendCommandWait(cmd, arg);
 1173              		.loc 1 322 21 is_stmt 1 view .LVU406
 1174              	.L35:
 1175              	.LBE512:
 1176              	.LBE511:
 1177              	.LBE510:
 1178              	.LBB537:
 199:Drivers/sdio.h **** 				acmd41_success = true;
 1179              		.loc 1 199 18 is_stmt 0 view .LVU407
 1180 021e 0521     		movs	r1, #5
 1181 0220 0CE0     		b	.L82
 1182              	.LVL87:
 1183              	.L40:
 199:Drivers/sdio.h **** 				acmd41_success = true;
 1184              		.loc 1 199 18 view .LVU408
 1185              	.LBE537:
 1186              	.LBB538:
 1187              	.LBB534:
 1188              	.LBB531:
 1189              	.LBB513:
 1190              	.LBB514:
 1191              	.LBB515:
 1192              	.LBB516:
ARM GAS  /var/folders/84/_x1cyy_j36g486tldtwl37280000gn/T//ccBOLdZ4.s 			page 35


 343:Drivers/sdio.h **** 			SDIO->ICR = SDIO_STA_CMDSENT;
 1193              		.loc 1 343 3 is_stmt 1 view .LVU409
 1194 0222 1E06     		lsls	r6, r3, #24
 1195 0224 00F1B980 		bmi	.L163
 348:Drivers/sdio.h **** 			SDIO->ICR = SDIO_STA_CTIMEOUT;
 1196              		.loc 1 348 3 view .LVU410
 1197 0228 5C07     		lsls	r4, r3, #29
 1198 022a 00F1BC80 		bmi	.L164
 353:Drivers/sdio.h **** 			SDIO->ICR = SDIO_STA_CCRCFAIL;
 1199              		.loc 1 353 3 view .LVU411
 1200 022e DB07     		lsls	r3, r3, #31
 1201              	.LVL88:
 353:Drivers/sdio.h **** 			SDIO->ICR = SDIO_STA_CCRCFAIL;
 1202              		.loc 1 353 3 is_stmt 0 view .LVU412
 1203 0230 01D5     		bpl	.L44
 354:Drivers/sdio.h **** 			return CRCFail;
 1204              		.loc 1 354 4 is_stmt 1 view .LVU413
 354:Drivers/sdio.h **** 			return CRCFail;
 1205              		.loc 1 354 14 is_stmt 0 view .LVU414
 1206 0232 0124     		movs	r4, #1
 1207 0234 9463     		str	r4, [r2, #56]
 355:Drivers/sdio.h **** 		}
 1208              		.loc 1 355 4 is_stmt 1 view .LVU415
 1209              	.LVL89:
 1210              	.L44:
 355:Drivers/sdio.h **** 		}
 1211              		.loc 1 355 4 is_stmt 0 view .LVU416
 1212              	.LBE516:
 1213              	.LBE515:
 317:Drivers/sdio.h **** 	}
 1214              		.loc 1 317 3 is_stmt 1 view .LVU417
 317:Drivers/sdio.h **** 	}
 1215              		.loc 1 317 3 is_stmt 0 view .LVU418
 1216              	.LBE514:
 1217              	.LBE513:
 324:Drivers/sdio.h **** 				break;
 1218              		.loc 1 324 4 is_stmt 1 view .LVU419
 322:Drivers/sdio.h **** 			result = sendCommandWait(cmd, arg);
 1219              		.loc 1 322 3 view .LVU420
 322:Drivers/sdio.h **** 			result = sendCommandWait(cmd, arg);
 1220              		.loc 1 322 21 view .LVU421
 1221 0236 0139     		subs	r1, r1, #1
 1222              	.LVL90:
 322:Drivers/sdio.h **** 			result = sendCommandWait(cmd, arg);
 1223              		.loc 1 322 21 is_stmt 0 view .LVU422
 1224 0238 3FF432AF 		beq	.L81
 1225              	.LVL91:
 1226              	.L82:
 323:Drivers/sdio.h **** 			if (result == Success) {
 1227              		.loc 1 323 4 is_stmt 1 view .LVU423
 1228              	.LBB528:
 1229              	.LBI513:
 313:Drivers/sdio.h **** 		Error result;
 1230              		.loc 1 313 8 view .LVU424
 1231              	.LBB525:
 314:Drivers/sdio.h **** 		sendCommand(cmd, arg);
 1232              		.loc 1 314 3 view .LVU425
ARM GAS  /var/folders/84/_x1cyy_j36g486tldtwl37280000gn/T//ccBOLdZ4.s 			page 36


 315:Drivers/sdio.h **** 		while ((result = commandResult()) == InProgress);
 1233              		.loc 1 315 3 view .LVU426
 1234              	.LBB520:
 1235              	.LBI520:
 281:Drivers/sdio.h **** 		cmd &= 0x3F;	// SDIO_CMD_CMDINDEX_MASK
 1236              		.loc 1 281 7 view .LVU427
 1237              	.LBB521:
 282:Drivers/sdio.h **** 
 1238              		.loc 1 282 3 view .LVU428
 284:Drivers/sdio.h **** 		if (cmd == 0) {
 1239              		.loc 1 284 3 view .LVU429
 285:Drivers/sdio.h **** 			waitresp = SDIO_RESPONSE_NO;
 1240              		.loc 1 285 3 view .LVU430
 287:Drivers/sdio.h **** 			waitresp = SDIO_RESPONSE_LONG;
 1241              		.loc 1 287 10 view .LVU431
 291:Drivers/sdio.h **** 		SDIO->ARG = arg; 								// The arg must be set before the command.
 1242              		.loc 1 291 3 view .LVU432
 291:Drivers/sdio.h **** 		SDIO->ARG = arg; 								// The arg must be set before the command.
 1243              		.loc 1 291 13 is_stmt 0 view .LVU433
 1244 023c 0D4B     		ldr	r3, .L173
 1245 023e 40F2FF72 		movw	r2, #2047
 292:Drivers/sdio.h **** 		SDIO->CMD = (cmd | SDIO_CMD_CPSMEN | waitresp);	// Set the command and associated bits.
 1246              		.loc 1 292 13 view .LVU434
 1247 0242 0026     		movs	r6, #0
 293:Drivers/sdio.h **** 	}
 1248              		.loc 1 293 13 view .LVU435
 1249 0244 40F24347 		movw	r7, #1091
 291:Drivers/sdio.h **** 		SDIO->ARG = arg; 								// The arg must be set before the command.
 1250              		.loc 1 291 13 view .LVU436
 1251 0248 9A63     		str	r2, [r3, #56]
 292:Drivers/sdio.h **** 		SDIO->CMD = (cmd | SDIO_CMD_CPSMEN | waitresp);	// Set the command and associated bits.
 1252              		.loc 1 292 3 is_stmt 1 view .LVU437
 292:Drivers/sdio.h **** 		SDIO->CMD = (cmd | SDIO_CMD_CPSMEN | waitresp);	// Set the command and associated bits.
 1253              		.loc 1 292 13 is_stmt 0 view .LVU438
 1254 024a 9E60     		str	r6, [r3, #8]
 293:Drivers/sdio.h **** 	}
 1255              		.loc 1 293 3 is_stmt 1 view .LVU439
 293:Drivers/sdio.h **** 	}
 1256              		.loc 1 293 13 is_stmt 0 view .LVU440
 1257 024c DF60     		str	r7, [r3, #12]
 1258              	.LVL92:
 1259              	.L39:
 293:Drivers/sdio.h **** 	}
 1260              		.loc 1 293 13 view .LVU441
 1261              	.LBE521:
 1262              	.LBE520:
 316:Drivers/sdio.h **** 		return result;
 1263              		.loc 1 316 3 is_stmt 1 view .LVU442
 316:Drivers/sdio.h **** 		return result;
 1264              		.loc 1 316 37 view .LVU443
 1265              	.LBB522:
 1266              	.LBI515:
 331:Drivers/sdio.h **** 		uint32_t status = SDIO->STA & 0xFFF;
 1267              		.loc 1 331 8 view .LVU444
 1268              	.LBB517:
 332:Drivers/sdio.h **** 
 1269              		.loc 1 332 3 view .LVU445
ARM GAS  /var/folders/84/_x1cyy_j36g486tldtwl37280000gn/T//ccBOLdZ4.s 			page 37


 332:Drivers/sdio.h **** 
 1270              		.loc 1 332 27 is_stmt 0 view .LVU446
 1271 024e 094A     		ldr	r2, .L173
 1272 0250 536B     		ldr	r3, [r2, #52]
 1273              	.LVL93:
 334:Drivers/sdio.h **** 			return InProgress;
 1274              		.loc 1 334 3 is_stmt 1 view .LVU447
 1275 0252 1C05     		lsls	r4, r3, #20
 1276 0254 FBD4     		bmi	.L39
 338:Drivers/sdio.h **** 			SDIO->ICR = SDIO_STA_CMDREND;
 1277              		.loc 1 338 3 view .LVU448
 1278 0256 5F06     		lsls	r7, r3, #25
 1279 0258 E3D5     		bpl	.L40
 339:Drivers/sdio.h **** 			return Success;
 1280              		.loc 1 339 4 view .LVU449
 339:Drivers/sdio.h **** 			return Success;
 1281              		.loc 1 339 14 is_stmt 0 view .LVU450
 1282 025a 4023     		movs	r3, #64
 1283              	.LVL94:
 339:Drivers/sdio.h **** 			return Success;
 1284              		.loc 1 339 14 view .LVU451
 1285 025c 9363     		str	r3, [r2, #56]
 340:Drivers/sdio.h **** 		}
 1286              		.loc 1 340 4 is_stmt 1 view .LVU452
 1287              	.LVL95:
 1288              	.L41:
 340:Drivers/sdio.h **** 		}
 1289              		.loc 1 340 4 is_stmt 0 view .LVU453
 1290              	.LBE517:
 1291              	.LBE522:
 317:Drivers/sdio.h **** 	}
 1292              		.loc 1 317 3 is_stmt 1 view .LVU454
 317:Drivers/sdio.h **** 	}
 1293              		.loc 1 317 3 is_stmt 0 view .LVU455
 1294              	.LBE525:
 1295              	.LBE528:
 324:Drivers/sdio.h **** 				break;
 1296              		.loc 1 324 4 is_stmt 1 view .LVU456
 324:Drivers/sdio.h **** 				break;
 1297              		.loc 1 324 4 is_stmt 0 view .LVU457
 1298              	.LBE531:
 328:Drivers/sdio.h **** 	}
 1299              		.loc 1 328 3 is_stmt 1 view .LVU458
 328:Drivers/sdio.h **** 	}
 1300              		.loc 1 328 3 is_stmt 0 view .LVU459
 1301              	.LBE534:
 1302              	.LBE538:
 1303              	.LBB539:
 217:Drivers/sdio.h **** 			cardInfo.rca = response >> 16;
 1304              		.loc 1 217 4 is_stmt 1 view .LVU460
 217:Drivers/sdio.h **** 			cardInfo.rca = response >> 16;
 1305              		.loc 1 217 30 is_stmt 0 view .LVU461
 1306 025e 054A     		ldr	r2, .L173
 1307 0260 5469     		ldr	r4, [r2, #20]
 1308              	.LVL96:
 218:Drivers/sdio.h **** 			if (cardInfo.rca != 0) {
 1309              		.loc 1 218 4 is_stmt 1 view .LVU462
ARM GAS  /var/folders/84/_x1cyy_j36g486tldtwl37280000gn/T//ccBOLdZ4.s 			page 38


 218:Drivers/sdio.h **** 			if (cardInfo.rca != 0) {
 1310              		.loc 1 218 28 is_stmt 0 view .LVU463
 1311 0262 260C     		lsrs	r6, r4, #16
 218:Drivers/sdio.h **** 			if (cardInfo.rca != 0) {
 1312              		.loc 1 218 17 view .LVU464
 1313 0264 0680     		strh	r6, [r0]	@ movhi
 219:Drivers/sdio.h **** 				cmd3_success = true;
 1314              		.loc 1 219 4 is_stmt 1 view .LVU465
 1315 0266 002E     		cmp	r6, #0
 1316 0268 3FF41AAF 		beq	.L81
 220:Drivers/sdio.h **** 			}
 1317              		.loc 1 220 5 view .LVU466
 1318              	.LVL97:
 220:Drivers/sdio.h **** 			}
 1319              		.loc 1 220 5 is_stmt 0 view .LVU467
 1320              	.LBE539:
 224:Drivers/sdio.h **** 			powerOff();
 1321              		.loc 1 224 3 is_stmt 1 view .LVU468
 229:Drivers/sdio.h **** 			powerOff();
 1322              		.loc 1 229 3 view .LVU469
 229:Drivers/sdio.h **** 			powerOff();
 1323              		.loc 1 229 40 is_stmt 0 view .LVU470
 1324 026c 3404     		lsls	r4, r6, #16
 1325              	.LVL98:
 1326              	.LBB540:
 1327              	.LBI540:
 320:Drivers/sdio.h **** 		Error result = Unknown;
 1328              		.loc 1 320 8 is_stmt 1 view .LVU471
 1329              	.LBB541:
 1330              	.LBB542:
 322:Drivers/sdio.h **** 			result = sendCommandWait(cmd, arg);
 1331              		.loc 1 322 21 view .LVU472
 1332              	.LBE542:
 1333              	.LBE541:
 1334              	.LBE540:
 229:Drivers/sdio.h **** 			powerOff();
 1335              		.loc 1 229 23 is_stmt 0 view .LVU473
 1336 026e 0521     		movs	r1, #5
 1337 0270 15E0     		b	.L45
 1338              	.L174:
 1339 0272 00BF     		.align	2
 1340              	.L173:
 1341 0274 002C0140 		.word	1073818624
 1342 0278 80841E00 		.word	2000000
 1343 027c 000C0040 		.word	1073744896
 1344 0280 00001040 		.word	1074790400
 1345              	.LVL99:
 1346              	.L47:
 1347              	.LBB567:
 1348              	.LBB564:
 1349              	.LBB561:
 1350              	.LBB543:
 1351              	.LBB544:
 1352              	.LBB545:
 1353              	.LBB546:
 343:Drivers/sdio.h **** 			SDIO->ICR = SDIO_STA_CMDSENT;
 1354              		.loc 1 343 3 is_stmt 1 view .LVU474
ARM GAS  /var/folders/84/_x1cyy_j36g486tldtwl37280000gn/T//ccBOLdZ4.s 			page 39


 1355 0284 1F06     		lsls	r7, r3, #24
 1356 0286 00F19180 		bmi	.L165
 348:Drivers/sdio.h **** 			SDIO->ICR = SDIO_STA_CTIMEOUT;
 1357              		.loc 1 348 3 view .LVU475
 1358 028a 5E07     		lsls	r6, r3, #29
 1359 028c 00F19480 		bmi	.L166
 353:Drivers/sdio.h **** 			SDIO->ICR = SDIO_STA_CCRCFAIL;
 1360              		.loc 1 353 3 view .LVU476
 1361 0290 DB07     		lsls	r3, r3, #31
 1362              	.LVL100:
 353:Drivers/sdio.h **** 			SDIO->ICR = SDIO_STA_CCRCFAIL;
 1363              		.loc 1 353 3 is_stmt 0 view .LVU477
 1364 0292 01D5     		bpl	.L51
 354:Drivers/sdio.h **** 			return CRCFail;
 1365              		.loc 1 354 4 is_stmt 1 view .LVU478
 354:Drivers/sdio.h **** 			return CRCFail;
 1366              		.loc 1 354 14 is_stmt 0 view .LVU479
 1367 0294 0126     		movs	r6, #1
 1368 0296 9663     		str	r6, [r2, #56]
 355:Drivers/sdio.h **** 		}
 1369              		.loc 1 355 4 is_stmt 1 view .LVU480
 1370              	.LVL101:
 1371              	.L51:
 355:Drivers/sdio.h **** 		}
 1372              		.loc 1 355 4 is_stmt 0 view .LVU481
 1373              	.LBE546:
 1374              	.LBE545:
 317:Drivers/sdio.h **** 	}
 1375              		.loc 1 317 3 is_stmt 1 view .LVU482
 317:Drivers/sdio.h **** 	}
 1376              		.loc 1 317 3 is_stmt 0 view .LVU483
 1377              	.LBE544:
 1378              	.LBE543:
 324:Drivers/sdio.h **** 				break;
 1379              		.loc 1 324 4 is_stmt 1 view .LVU484
 322:Drivers/sdio.h **** 			result = sendCommandWait(cmd, arg);
 1380              		.loc 1 322 3 view .LVU485
 322:Drivers/sdio.h **** 			result = sendCommandWait(cmd, arg);
 1381              		.loc 1 322 21 view .LVU486
 1382 0298 0139     		subs	r1, r1, #1
 1383              	.LVL102:
 322:Drivers/sdio.h **** 			result = sendCommandWait(cmd, arg);
 1384              		.loc 1 322 21 is_stmt 0 view .LVU487
 1385 029a 3FF46DAF 		beq	.L88
 1386              	.LVL103:
 1387              	.L45:
 323:Drivers/sdio.h **** 			if (result == Success) {
 1388              		.loc 1 323 4 is_stmt 1 view .LVU488
 1389              	.LBB558:
 1390              	.LBI543:
 313:Drivers/sdio.h **** 		Error result;
 1391              		.loc 1 313 8 view .LVU489
 1392              	.LBB555:
 314:Drivers/sdio.h **** 		sendCommand(cmd, arg);
 1393              		.loc 1 314 3 view .LVU490
 315:Drivers/sdio.h **** 		while ((result = commandResult()) == InProgress);
 1394              		.loc 1 315 3 view .LVU491
ARM GAS  /var/folders/84/_x1cyy_j36g486tldtwl37280000gn/T//ccBOLdZ4.s 			page 40


 1395              	.LBB550:
 1396              	.LBI550:
 281:Drivers/sdio.h **** 		cmd &= 0x3F;	// SDIO_CMD_CMDINDEX_MASK
 1397              		.loc 1 281 7 view .LVU492
 1398              	.LBB551:
 282:Drivers/sdio.h **** 
 1399              		.loc 1 282 3 view .LVU493
 284:Drivers/sdio.h **** 		if (cmd == 0) {
 1400              		.loc 1 284 3 view .LVU494
 285:Drivers/sdio.h **** 			waitresp = SDIO_RESPONSE_NO;
 1401              		.loc 1 285 3 view .LVU495
 287:Drivers/sdio.h **** 			waitresp = SDIO_RESPONSE_LONG;
 1402              		.loc 1 287 10 view .LVU496
 288:Drivers/sdio.h **** 		}
 1403              		.loc 1 288 4 view .LVU497
 291:Drivers/sdio.h **** 		SDIO->ARG = arg; 								// The arg must be set before the command.
 1404              		.loc 1 291 3 view .LVU498
 291:Drivers/sdio.h **** 		SDIO->ARG = arg; 								// The arg must be set before the command.
 1405              		.loc 1 291 13 is_stmt 0 view .LVU499
 1406 029e 564F     		ldr	r7, .L175
 1407 02a0 40F2FF73 		movw	r3, #2047
 293:Drivers/sdio.h **** 	}
 1408              		.loc 1 293 13 view .LVU500
 1409 02a4 40F2C942 		movw	r2, #1225
 291:Drivers/sdio.h **** 		SDIO->ARG = arg; 								// The arg must be set before the command.
 1410              		.loc 1 291 13 view .LVU501
 1411 02a8 BB63     		str	r3, [r7, #56]
 292:Drivers/sdio.h **** 		SDIO->CMD = (cmd | SDIO_CMD_CPSMEN | waitresp);	// Set the command and associated bits.
 1412              		.loc 1 292 3 is_stmt 1 view .LVU502
 292:Drivers/sdio.h **** 		SDIO->CMD = (cmd | SDIO_CMD_CPSMEN | waitresp);	// Set the command and associated bits.
 1413              		.loc 1 292 13 is_stmt 0 view .LVU503
 1414 02aa BC60     		str	r4, [r7, #8]
 293:Drivers/sdio.h **** 	}
 1415              		.loc 1 293 3 is_stmt 1 view .LVU504
 293:Drivers/sdio.h **** 	}
 1416              		.loc 1 293 13 is_stmt 0 view .LVU505
 1417 02ac FA60     		str	r2, [r7, #12]
 1418              	.LVL104:
 1419              	.L46:
 293:Drivers/sdio.h **** 	}
 1420              		.loc 1 293 13 view .LVU506
 1421              	.LBE551:
 1422              	.LBE550:
 316:Drivers/sdio.h **** 		return result;
 1423              		.loc 1 316 3 is_stmt 1 view .LVU507
 316:Drivers/sdio.h **** 		return result;
 1424              		.loc 1 316 37 view .LVU508
 1425              	.LBB552:
 1426              	.LBI545:
 331:Drivers/sdio.h **** 		uint32_t status = SDIO->STA & 0xFFF;
 1427              		.loc 1 331 8 view .LVU509
 1428              	.LBB547:
 332:Drivers/sdio.h **** 
 1429              		.loc 1 332 3 view .LVU510
 332:Drivers/sdio.h **** 
 1430              		.loc 1 332 27 is_stmt 0 view .LVU511
 1431 02ae 524A     		ldr	r2, .L175
ARM GAS  /var/folders/84/_x1cyy_j36g486tldtwl37280000gn/T//ccBOLdZ4.s 			page 41


 1432 02b0 536B     		ldr	r3, [r2, #52]
 1433              	.LVL105:
 334:Drivers/sdio.h **** 			return InProgress;
 1434              		.loc 1 334 3 is_stmt 1 view .LVU512
 1435 02b2 1F05     		lsls	r7, r3, #20
 1436 02b4 FBD4     		bmi	.L46
 338:Drivers/sdio.h **** 			SDIO->ICR = SDIO_STA_CMDREND;
 1437              		.loc 1 338 3 view .LVU513
 1438 02b6 5E06     		lsls	r6, r3, #25
 1439 02b8 E4D5     		bpl	.L47
 339:Drivers/sdio.h **** 			return Success;
 1440              		.loc 1 339 4 view .LVU514
 339:Drivers/sdio.h **** 			return Success;
 1441              		.loc 1 339 14 is_stmt 0 view .LVU515
 1442 02ba 4023     		movs	r3, #64
 1443              	.LVL106:
 339:Drivers/sdio.h **** 			return Success;
 1444              		.loc 1 339 14 view .LVU516
 1445 02bc 9363     		str	r3, [r2, #56]
 340:Drivers/sdio.h **** 		}
 1446              		.loc 1 340 4 is_stmt 1 view .LVU517
 1447              	.LVL107:
 1448              	.L48:
 340:Drivers/sdio.h **** 		}
 1449              		.loc 1 340 4 is_stmt 0 view .LVU518
 1450              	.LBE547:
 1451              	.LBE552:
 317:Drivers/sdio.h **** 	}
 1452              		.loc 1 317 3 is_stmt 1 view .LVU519
 317:Drivers/sdio.h **** 	}
 1453              		.loc 1 317 3 is_stmt 0 view .LVU520
 1454              	.LBE555:
 1455              	.LBE558:
 324:Drivers/sdio.h **** 				break;
 1456              		.loc 1 324 4 is_stmt 1 view .LVU521
 324:Drivers/sdio.h **** 				break;
 1457              		.loc 1 324 4 is_stmt 0 view .LVU522
 1458              	.LBE561:
 328:Drivers/sdio.h **** 	}
 1459              		.loc 1 328 3 is_stmt 1 view .LVU523
 328:Drivers/sdio.h **** 	}
 1460              		.loc 1 328 3 is_stmt 0 view .LVU524
 1461              	.LBE564:
 1462              	.LBE567:
 234:Drivers/sdio.h **** 
 1463              		.loc 1 234 3 is_stmt 1 view .LVU525
 234:Drivers/sdio.h **** 
 1464              		.loc 1 234 32 is_stmt 0 view .LVU526
 1465 02be 4E4A     		ldr	r2, .L175
 1466 02c0 5669     		ldr	r6, [r2, #20]
 1467              	.LVL108:
 236:Drivers/sdio.h **** 			// Until I find an old card, this is untested.
 1468              		.loc 1 236 3 is_stmt 1 view .LVU527
 1469              	.LBB568:
 1470 02c2 B70F     		lsrs	r7, r6, #30
 1471              	.LVL109:
 236:Drivers/sdio.h **** 			// Until I find an old card, this is untested.
ARM GAS  /var/folders/84/_x1cyy_j36g486tldtwl37280000gn/T//ccBOLdZ4.s 			page 42


 1472              		.loc 1 236 3 is_stmt 0 view .LVU528
 1473 02c4 40F08780 		bne	.L167
 1474              	.LBB569:
 238:Drivers/sdio.h **** 			uint32_t c_size = ((SDIO->RESP2 & 0x3FF) << 2) | (SDIO->RESP3 >> 30);
 1475              		.loc 1 238 4 is_stmt 1 view .LVU529
 238:Drivers/sdio.h **** 			uint32_t c_size = ((SDIO->RESP2 & 0x3FF) << 2) | (SDIO->RESP3 >> 30);
 1476              		.loc 1 238 34 is_stmt 0 view .LVU530
 1477 02c8 9169     		ldr	r1, [r2, #24]
 1478              	.LVL110:
 239:Drivers/sdio.h **** 			uint32_t c_size_mult = (SDIO->RESP3 >> 15) & 0x7;
 1479              		.loc 1 239 4 is_stmt 1 view .LVU531
 239:Drivers/sdio.h **** 			uint32_t c_size_mult = (SDIO->RESP3 >> 15) & 0x7;
 1480              		.loc 1 239 30 is_stmt 0 view .LVU532
 1481 02ca 9769     		ldr	r7, [r2, #24]
 1482              	.LVL111:
 239:Drivers/sdio.h **** 			uint32_t c_size_mult = (SDIO->RESP3 >> 15) & 0x7;
 1483              		.loc 1 239 60 view .LVU533
 1484 02cc D669     		ldr	r6, [r2, #28]
 1485              	.LVL112:
 240:Drivers/sdio.h **** 			uint32_t mult = 1 << (c_size_mult + 2);
 1486              		.loc 1 240 4 is_stmt 1 view .LVU534
 240:Drivers/sdio.h **** 			uint32_t mult = 1 << (c_size_mult + 2);
 1487              		.loc 1 240 34 is_stmt 0 view .LVU535
 1488 02ce D269     		ldr	r2, [r2, #28]
 1489              	.LVL113:
 241:Drivers/sdio.h **** 			uint32_t blocknr = (c_size + 1) * mult;
 1490              		.loc 1 241 4 is_stmt 1 view .LVU536
 242:Drivers/sdio.h **** 			uint32_t block_len = 1 << read_bl_len;
 1491              		.loc 1 242 4 view .LVU537
 243:Drivers/sdio.h **** 			cardInfo.size = (block_len * blocknr) >> 9;
 1492              		.loc 1 243 4 view .LVU538
 244:Drivers/sdio.h **** 		} else if (csd_version == 1) {
 1493              		.loc 1 244 4 view .LVU539
 239:Drivers/sdio.h **** 			uint32_t c_size_mult = (SDIO->RESP3 >> 15) & 0x7;
 1494              		.loc 1 239 45 is_stmt 0 view .LVU540
 1495 02d0 40F6FC7C 		movw	ip, #4092
 1496 02d4 0CEA8703 		and	r3, ip, r7, lsl #2
 239:Drivers/sdio.h **** 			uint32_t c_size_mult = (SDIO->RESP3 >> 15) & 0x7;
 1497              		.loc 1 239 71 view .LVU541
 1498 02d8 43EA9677 		orr	r7, r3, r6, lsr #30
 1499              	.LVL114:
 240:Drivers/sdio.h **** 			uint32_t mult = 1 << (c_size_mult + 2);
 1500              		.loc 1 240 49 view .LVU542
 1501 02dc C2F3C236 		ubfx	r6, r2, #15, #3
 242:Drivers/sdio.h **** 			uint32_t block_len = 1 << read_bl_len;
 1502              		.loc 1 242 31 view .LVU543
 1503 02e0 0137     		adds	r7, r7, #1
 1504              	.LVL115:
 241:Drivers/sdio.h **** 			uint32_t blocknr = (c_size + 1) * mult;
 1505              		.loc 1 241 38 view .LVU544
 1506 02e2 0236     		adds	r6, r6, #2
 238:Drivers/sdio.h **** 			uint32_t c_size = ((SDIO->RESP2 & 0x3FF) << 2) | (SDIO->RESP3 >> 30);
 1507              		.loc 1 238 49 view .LVU545
 1508 02e4 C1F30341 		ubfx	r1, r1, #16, #4
 1509              	.LVL116:
 242:Drivers/sdio.h **** 			uint32_t block_len = 1 << read_bl_len;
 1510              		.loc 1 242 13 view .LVU546
ARM GAS  /var/folders/84/_x1cyy_j36g486tldtwl37280000gn/T//ccBOLdZ4.s 			page 43


 1511 02e8 B740     		lsls	r7, r7, r6
 1512              	.LVL117:
 244:Drivers/sdio.h **** 		} else if (csd_version == 1) {
 1513              		.loc 1 244 31 view .LVU547
 1514 02ea 8F40     		lsls	r7, r7, r1
 244:Drivers/sdio.h **** 		} else if (csd_version == 1) {
 1515              		.loc 1 244 42 view .LVU548
 1516 02ec 7A0A     		lsrs	r2, r7, #9
 1517              	.LVL118:
 244:Drivers/sdio.h **** 		} else if (csd_version == 1) {
 1518              		.loc 1 244 18 view .LVU549
 1519 02ee 4260     		str	r2, [r0, #4]
 1520              	.L52:
 244:Drivers/sdio.h **** 		} else if (csd_version == 1) {
 1521              		.loc 1 244 18 view .LVU550
 1522              	.LBE569:
 1523              	.LBE568:
 229:Drivers/sdio.h **** 			powerOff();
 1524              		.loc 1 229 23 view .LVU551
 1525 02f0 0521     		movs	r1, #5
 1526 02f2 0AE0     		b	.L76
 1527              	.LVL119:
 1528              	.L55:
 1529              	.LBB574:
 1530              	.LBB575:
 1531              	.LBB576:
 1532              	.LBB577:
 1533              	.LBB578:
 1534              	.LBB579:
 1535              	.LBB580:
 343:Drivers/sdio.h **** 			SDIO->ICR = SDIO_STA_CMDSENT;
 1536              		.loc 1 343 3 is_stmt 1 view .LVU552
 1537 02f4 1806     		lsls	r0, r3, #24
 1538 02f6 5CD4     		bmi	.L168
 348:Drivers/sdio.h **** 			SDIO->ICR = SDIO_STA_CTIMEOUT;
 1539              		.loc 1 348 3 view .LVU553
 1540 02f8 5F07     		lsls	r7, r3, #29
 1541 02fa 66D4     		bmi	.L169
 353:Drivers/sdio.h **** 			SDIO->ICR = SDIO_STA_CCRCFAIL;
 1542              		.loc 1 353 3 view .LVU554
 1543 02fc DE07     		lsls	r6, r3, #31
 1544 02fe 01D5     		bpl	.L59
 354:Drivers/sdio.h **** 			return CRCFail;
 1545              		.loc 1 354 4 view .LVU555
 354:Drivers/sdio.h **** 			return CRCFail;
 1546              		.loc 1 354 14 is_stmt 0 view .LVU556
 1547 0300 0126     		movs	r6, #1
 1548 0302 9663     		str	r6, [r2, #56]
 355:Drivers/sdio.h **** 		}
 1549              		.loc 1 355 4 is_stmt 1 view .LVU557
 1550              	.LVL120:
 1551              	.L59:
 355:Drivers/sdio.h **** 		}
 1552              		.loc 1 355 4 is_stmt 0 view .LVU558
 1553              	.LBE580:
 1554              	.LBE579:
 317:Drivers/sdio.h **** 	}
ARM GAS  /var/folders/84/_x1cyy_j36g486tldtwl37280000gn/T//ccBOLdZ4.s 			page 44


 1555              		.loc 1 317 3 is_stmt 1 view .LVU559
 317:Drivers/sdio.h **** 	}
 1556              		.loc 1 317 3 is_stmt 0 view .LVU560
 1557              	.LBE578:
 1558              	.LBE577:
 324:Drivers/sdio.h **** 				break;
 1559              		.loc 1 324 4 is_stmt 1 view .LVU561
 322:Drivers/sdio.h **** 			result = sendCommandWait(cmd, arg);
 1560              		.loc 1 322 3 view .LVU562
 322:Drivers/sdio.h **** 			result = sendCommandWait(cmd, arg);
 1561              		.loc 1 322 21 view .LVU563
 1562 0304 0139     		subs	r1, r1, #1
 1563              	.LVL121:
 322:Drivers/sdio.h **** 			result = sendCommandWait(cmd, arg);
 1564              		.loc 1 322 21 is_stmt 0 view .LVU564
 1565 0306 3FF437AF 		beq	.L88
 1566              	.LVL122:
 1567              	.L76:
 323:Drivers/sdio.h **** 			if (result == Success) {
 1568              		.loc 1 323 4 is_stmt 1 view .LVU565
 1569              	.LBB592:
 1570              	.LBI577:
 313:Drivers/sdio.h **** 		Error result;
 1571              		.loc 1 313 8 view .LVU566
 1572              	.LBB589:
 314:Drivers/sdio.h **** 		sendCommand(cmd, arg);
 1573              		.loc 1 314 3 view .LVU567
 315:Drivers/sdio.h **** 		while ((result = commandResult()) == InProgress);
 1574              		.loc 1 315 3 view .LVU568
 1575              	.LBB584:
 1576              	.LBI584:
 281:Drivers/sdio.h **** 		cmd &= 0x3F;	// SDIO_CMD_CMDINDEX_MASK
 1577              		.loc 1 281 7 view .LVU569
 1578              	.LBB585:
 282:Drivers/sdio.h **** 
 1579              		.loc 1 282 3 view .LVU570
 284:Drivers/sdio.h **** 		if (cmd == 0) {
 1580              		.loc 1 284 3 view .LVU571
 285:Drivers/sdio.h **** 			waitresp = SDIO_RESPONSE_NO;
 1581              		.loc 1 285 3 view .LVU572
 287:Drivers/sdio.h **** 			waitresp = SDIO_RESPONSE_LONG;
 1582              		.loc 1 287 10 view .LVU573
 291:Drivers/sdio.h **** 		SDIO->ARG = arg; 								// The arg must be set before the command.
 1583              		.loc 1 291 3 view .LVU574
 291:Drivers/sdio.h **** 		SDIO->ARG = arg; 								// The arg must be set before the command.
 1584              		.loc 1 291 13 is_stmt 0 view .LVU575
 1585 030a 3B4B     		ldr	r3, .L175
 1586 030c 40F2FF70 		movw	r0, #2047
 293:Drivers/sdio.h **** 	}
 1587              		.loc 1 293 13 view .LVU576
 1588 0310 40F24747 		movw	r7, #1095
 291:Drivers/sdio.h **** 		SDIO->ARG = arg; 								// The arg must be set before the command.
 1589              		.loc 1 291 13 view .LVU577
 1590 0314 9863     		str	r0, [r3, #56]
 292:Drivers/sdio.h **** 		SDIO->CMD = (cmd | SDIO_CMD_CPSMEN | waitresp);	// Set the command and associated bits.
 1591              		.loc 1 292 3 is_stmt 1 view .LVU578
 292:Drivers/sdio.h **** 		SDIO->CMD = (cmd | SDIO_CMD_CPSMEN | waitresp);	// Set the command and associated bits.
ARM GAS  /var/folders/84/_x1cyy_j36g486tldtwl37280000gn/T//ccBOLdZ4.s 			page 45


 1592              		.loc 1 292 13 is_stmt 0 view .LVU579
 1593 0316 9C60     		str	r4, [r3, #8]
 293:Drivers/sdio.h **** 	}
 1594              		.loc 1 293 3 is_stmt 1 view .LVU580
 293:Drivers/sdio.h **** 	}
 1595              		.loc 1 293 13 is_stmt 0 view .LVU581
 1596 0318 DF60     		str	r7, [r3, #12]
 1597              	.LVL123:
 1598              	.L54:
 293:Drivers/sdio.h **** 	}
 1599              		.loc 1 293 13 view .LVU582
 1600              	.LBE585:
 1601              	.LBE584:
 316:Drivers/sdio.h **** 		return result;
 1602              		.loc 1 316 3 is_stmt 1 view .LVU583
 316:Drivers/sdio.h **** 		return result;
 1603              		.loc 1 316 37 view .LVU584
 1604              	.LBB586:
 1605              	.LBI579:
 331:Drivers/sdio.h **** 		uint32_t status = SDIO->STA & 0xFFF;
 1606              		.loc 1 331 8 view .LVU585
 1607              	.LBB581:
 332:Drivers/sdio.h **** 
 1608              		.loc 1 332 3 view .LVU586
 332:Drivers/sdio.h **** 
 1609              		.loc 1 332 27 is_stmt 0 view .LVU587
 1610 031a 374A     		ldr	r2, .L175
 1611 031c 536B     		ldr	r3, [r2, #52]
 1612              	.LVL124:
 334:Drivers/sdio.h **** 			return InProgress;
 1613              		.loc 1 334 3 is_stmt 1 view .LVU588
 1614 031e 1F05     		lsls	r7, r3, #20
 1615 0320 FBD4     		bmi	.L54
 338:Drivers/sdio.h **** 			SDIO->ICR = SDIO_STA_CMDREND;
 1616              		.loc 1 338 3 view .LVU589
 1617 0322 5E06     		lsls	r6, r3, #25
 1618 0324 E6D5     		bpl	.L55
 339:Drivers/sdio.h **** 			return Success;
 1619              		.loc 1 339 4 view .LVU590
 339:Drivers/sdio.h **** 			return Success;
 1620              		.loc 1 339 14 is_stmt 0 view .LVU591
 1621 0326 4027     		movs	r7, #64
 1622 0328 9763     		str	r7, [r2, #56]
 340:Drivers/sdio.h **** 		}
 1623              		.loc 1 340 4 is_stmt 1 view .LVU592
 1624              	.LVL125:
 340:Drivers/sdio.h **** 		}
 1625              		.loc 1 340 4 is_stmt 0 view .LVU593
 1626              	.LBE581:
 1627              	.LBE586:
 1628              	.LBE589:
 1629              	.LBE592:
 1630              	.LBE576:
 1631              	.LBE575:
 1632              	.LBE574:
 1633              	.LBB599:
 1634              	.LBB600:
ARM GAS  /var/folders/84/_x1cyy_j36g486tldtwl37280000gn/T//ccBOLdZ4.s 			page 46


 1635              	.LBB601:
 1636              	.LBB602:
 1637              	.LBB603:
 299:Drivers/sdio.h **** 			result = sendCommandWait(55, cardInfo.rca << 16);
 1638              		.loc 1 299 21 is_stmt 1 view .LVU594
 1639              	.L56:
 1640              	.LBE603:
 1641              	.LBE602:
 1642              	.LBE601:
 1643              	.LBE600:
 1644              	.LBE599:
 229:Drivers/sdio.h **** 			powerOff();
 1645              		.loc 1 229 23 is_stmt 0 view .LVU595
 1646 032a 0521     		movs	r1, #5
 1647 032c 0AE0     		b	.L74
 1648              	.LVL126:
 1649              	.L61:
 1650              	.LBB652:
 1651              	.LBB648:
 1652              	.LBB644:
 1653              	.LBB640:
 1654              	.LBB636:
 1655              	.LBB604:
 1656              	.LBB605:
 1657              	.LBB606:
 1658              	.LBB607:
 343:Drivers/sdio.h **** 			SDIO->ICR = SDIO_STA_CMDSENT;
 1659              		.loc 1 343 3 is_stmt 1 view .LVU596
 1660 032e 1E06     		lsls	r6, r3, #24
 1661 0330 45D4     		bmi	.L170
 1662              	.LVL127:
 1663              	.L70:
 343:Drivers/sdio.h **** 			SDIO->ICR = SDIO_STA_CMDSENT;
 1664              		.loc 1 343 3 is_stmt 0 view .LVU597
 1665              	.LBE607:
 1666              	.LBE606:
 1667              	.LBE605:
 1668              	.LBE604:
 1669              	.LBB616:
 1670              	.LBB617:
 1671              	.LBB618:
 1672              	.LBB619:
 348:Drivers/sdio.h **** 			SDIO->ICR = SDIO_STA_CTIMEOUT;
 1673              		.loc 1 348 3 is_stmt 1 view .LVU598
 1674 0332 5807     		lsls	r0, r3, #29
 1675 0334 4CD4     		bmi	.L171
 353:Drivers/sdio.h **** 			SDIO->ICR = SDIO_STA_CCRCFAIL;
 1676              		.loc 1 353 3 view .LVU599
 1677 0336 DF07     		lsls	r7, r3, #31
 354:Drivers/sdio.h **** 			return CRCFail;
 1678              		.loc 1 354 4 view .LVU600
 354:Drivers/sdio.h **** 			return CRCFail;
 1679              		.loc 1 354 14 is_stmt 0 view .LVU601
 1680 0338 44BF     		itt	mi
 1681 033a 0127     		movmi	r7, #1
 1682 033c 9763     		strmi	r7, [r2, #56]
 355:Drivers/sdio.h **** 		}
ARM GAS  /var/folders/84/_x1cyy_j36g486tldtwl37280000gn/T//ccBOLdZ4.s 			page 47


 1683              		.loc 1 355 4 is_stmt 1 view .LVU602
 1684              	.LVL128:
 1685              	.L65:
 355:Drivers/sdio.h **** 		}
 1686              		.loc 1 355 4 is_stmt 0 view .LVU603
 1687              	.LBE619:
 1688              	.LBE618:
 1689              	.LBE617:
 1690              	.LBE616:
 299:Drivers/sdio.h **** 			result = sendCommandWait(55, cardInfo.rca << 16);
 1691              		.loc 1 299 3 is_stmt 1 view .LVU604
 299:Drivers/sdio.h **** 			result = sendCommandWait(55, cardInfo.rca << 16);
 1692              		.loc 1 299 21 view .LVU605
 1693 033e 0139     		subs	r1, r1, #1
 1694              	.LVL129:
 299:Drivers/sdio.h **** 			result = sendCommandWait(55, cardInfo.rca << 16);
 1695              		.loc 1 299 21 is_stmt 0 view .LVU606
 1696 0340 3FF41AAF 		beq	.L88
 1697              	.LVL130:
 1698              	.L74:
 300:Drivers/sdio.h **** 			if (result != Success) {
 1699              		.loc 1 300 4 is_stmt 1 view .LVU607
 1700              	.LBB631:
 1701              	.LBI604:
 313:Drivers/sdio.h **** 		Error result;
 1702              		.loc 1 313 8 view .LVU608
 1703              	.LBB614:
 314:Drivers/sdio.h **** 		sendCommand(cmd, arg);
 1704              		.loc 1 314 3 view .LVU609
 315:Drivers/sdio.h **** 		while ((result = commandResult()) == InProgress);
 1705              		.loc 1 315 3 view .LVU610
 1706              	.LBB610:
 1707              	.LBI610:
 281:Drivers/sdio.h **** 		cmd &= 0x3F;	// SDIO_CMD_CMDINDEX_MASK
 1708              		.loc 1 281 7 view .LVU611
 1709              	.LBB611:
 282:Drivers/sdio.h **** 
 1710              		.loc 1 282 3 view .LVU612
 284:Drivers/sdio.h **** 		if (cmd == 0) {
 1711              		.loc 1 284 3 view .LVU613
 285:Drivers/sdio.h **** 			waitresp = SDIO_RESPONSE_NO;
 1712              		.loc 1 285 3 view .LVU614
 287:Drivers/sdio.h **** 			waitresp = SDIO_RESPONSE_LONG;
 1713              		.loc 1 287 10 view .LVU615
 291:Drivers/sdio.h **** 		SDIO->ARG = arg; 								// The arg must be set before the command.
 1714              		.loc 1 291 3 view .LVU616
 291:Drivers/sdio.h **** 		SDIO->ARG = arg; 								// The arg must be set before the command.
 1715              		.loc 1 291 13 is_stmt 0 view .LVU617
 1716 0344 2C4B     		ldr	r3, .L175
 1717 0346 40F2FF76 		movw	r6, #2047
 293:Drivers/sdio.h **** 	}
 1718              		.loc 1 293 13 view .LVU618
 1719 034a 40F27742 		movw	r2, #1143
 291:Drivers/sdio.h **** 		SDIO->ARG = arg; 								// The arg must be set before the command.
 1720              		.loc 1 291 13 view .LVU619
 1721 034e 9E63     		str	r6, [r3, #56]
 292:Drivers/sdio.h **** 		SDIO->CMD = (cmd | SDIO_CMD_CPSMEN | waitresp);	// Set the command and associated bits.
ARM GAS  /var/folders/84/_x1cyy_j36g486tldtwl37280000gn/T//ccBOLdZ4.s 			page 48


 1722              		.loc 1 292 3 is_stmt 1 view .LVU620
 292:Drivers/sdio.h **** 		SDIO->CMD = (cmd | SDIO_CMD_CPSMEN | waitresp);	// Set the command and associated bits.
 1723              		.loc 1 292 13 is_stmt 0 view .LVU621
 1724 0350 9C60     		str	r4, [r3, #8]
 293:Drivers/sdio.h **** 	}
 1725              		.loc 1 293 3 is_stmt 1 view .LVU622
 293:Drivers/sdio.h **** 	}
 1726              		.loc 1 293 13 is_stmt 0 view .LVU623
 1727 0352 DA60     		str	r2, [r3, #12]
 1728              	.LVL131:
 1729              	.L60:
 293:Drivers/sdio.h **** 	}
 1730              		.loc 1 293 13 view .LVU624
 1731              	.LBE611:
 1732              	.LBE610:
 316:Drivers/sdio.h **** 		return result;
 1733              		.loc 1 316 3 is_stmt 1 view .LVU625
 316:Drivers/sdio.h **** 		return result;
 1734              		.loc 1 316 37 view .LVU626
 1735              	.LBB612:
 1736              	.LBI606:
 331:Drivers/sdio.h **** 		uint32_t status = SDIO->STA & 0xFFF;
 1737              		.loc 1 331 8 view .LVU627
 1738              	.LBB608:
 332:Drivers/sdio.h **** 
 1739              		.loc 1 332 3 view .LVU628
 332:Drivers/sdio.h **** 
 1740              		.loc 1 332 27 is_stmt 0 view .LVU629
 1741 0354 284A     		ldr	r2, .L175
 1742 0356 536B     		ldr	r3, [r2, #52]
 1743              	.LVL132:
 334:Drivers/sdio.h **** 			return InProgress;
 1744              		.loc 1 334 3 is_stmt 1 view .LVU630
 1745 0358 1805     		lsls	r0, r3, #20
 1746 035a FBD4     		bmi	.L60
 338:Drivers/sdio.h **** 			SDIO->ICR = SDIO_STA_CMDREND;
 1747              		.loc 1 338 3 view .LVU631
 1748 035c 5F06     		lsls	r7, r3, #25
 1749 035e E6D5     		bpl	.L61
 339:Drivers/sdio.h **** 			return Success;
 1750              		.loc 1 339 4 view .LVU632
 339:Drivers/sdio.h **** 			return Success;
 1751              		.loc 1 339 14 is_stmt 0 view .LVU633
 1752 0360 4027     		movs	r7, #64
 1753 0362 9763     		str	r7, [r2, #56]
 340:Drivers/sdio.h **** 		}
 1754              		.loc 1 340 4 is_stmt 1 view .LVU634
 1755              	.LVL133:
 1756              	.L62:
 340:Drivers/sdio.h **** 		}
 1757              		.loc 1 340 4 is_stmt 0 view .LVU635
 1758              	.LBE608:
 1759              	.LBE612:
 317:Drivers/sdio.h **** 	}
 1760              		.loc 1 317 3 is_stmt 1 view .LVU636
 317:Drivers/sdio.h **** 	}
 1761              		.loc 1 317 3 is_stmt 0 view .LVU637
ARM GAS  /var/folders/84/_x1cyy_j36g486tldtwl37280000gn/T//ccBOLdZ4.s 			page 49


 1762              	.LBE614:
 1763              	.LBE631:
 301:Drivers/sdio.h **** 				continue;
 1764              		.loc 1 301 4 is_stmt 1 view .LVU638
 304:Drivers/sdio.h **** 			if (result == expected) {
 1765              		.loc 1 304 4 view .LVU639
 1766              	.LBB632:
 1767              	.LBI616:
 313:Drivers/sdio.h **** 		Error result;
 1768              		.loc 1 313 8 view .LVU640
 1769              	.LBB628:
 314:Drivers/sdio.h **** 		sendCommand(cmd, arg);
 1770              		.loc 1 314 3 view .LVU641
 315:Drivers/sdio.h **** 		while ((result = commandResult()) == InProgress);
 1771              		.loc 1 315 3 view .LVU642
 1772              	.LBB623:
 1773              	.LBI623:
 281:Drivers/sdio.h **** 		cmd &= 0x3F;	// SDIO_CMD_CMDINDEX_MASK
 1774              		.loc 1 281 7 view .LVU643
 1775              	.LBB624:
 282:Drivers/sdio.h **** 
 1776              		.loc 1 282 3 view .LVU644
 284:Drivers/sdio.h **** 		if (cmd == 0) {
 1777              		.loc 1 284 3 view .LVU645
 285:Drivers/sdio.h **** 			waitresp = SDIO_RESPONSE_NO;
 1778              		.loc 1 285 3 view .LVU646
 287:Drivers/sdio.h **** 			waitresp = SDIO_RESPONSE_LONG;
 1779              		.loc 1 287 10 view .LVU647
 291:Drivers/sdio.h **** 		SDIO->ARG = arg; 								// The arg must be set before the command.
 1780              		.loc 1 291 3 view .LVU648
 291:Drivers/sdio.h **** 		SDIO->ARG = arg; 								// The arg must be set before the command.
 1781              		.loc 1 291 13 is_stmt 0 view .LVU649
 1782 0364 244B     		ldr	r3, .L175
 1783              	.LVL134:
 291:Drivers/sdio.h **** 		SDIO->ARG = arg; 								// The arg must be set before the command.
 1784              		.loc 1 291 13 view .LVU650
 1785 0366 40F2FF76 		movw	r6, #2047
 292:Drivers/sdio.h **** 		SDIO->CMD = (cmd | SDIO_CMD_CPSMEN | waitresp);	// Set the command and associated bits.
 1786              		.loc 1 292 13 view .LVU651
 1787 036a 0220     		movs	r0, #2
 293:Drivers/sdio.h **** 	}
 1788              		.loc 1 293 13 view .LVU652
 1789 036c 40F24642 		movw	r2, #1094
 291:Drivers/sdio.h **** 		SDIO->ARG = arg; 								// The arg must be set before the command.
 1790              		.loc 1 291 13 view .LVU653
 1791 0370 9E63     		str	r6, [r3, #56]
 292:Drivers/sdio.h **** 		SDIO->CMD = (cmd | SDIO_CMD_CPSMEN | waitresp);	// Set the command and associated bits.
 1792              		.loc 1 292 3 is_stmt 1 view .LVU654
 292:Drivers/sdio.h **** 		SDIO->CMD = (cmd | SDIO_CMD_CPSMEN | waitresp);	// Set the command and associated bits.
 1793              		.loc 1 292 13 is_stmt 0 view .LVU655
 1794 0372 9860     		str	r0, [r3, #8]
 293:Drivers/sdio.h **** 	}
 1795              		.loc 1 293 3 is_stmt 1 view .LVU656
 293:Drivers/sdio.h **** 	}
 1796              		.loc 1 293 13 is_stmt 0 view .LVU657
 1797 0374 DA60     		str	r2, [r3, #12]
 1798              	.LVL135:
ARM GAS  /var/folders/84/_x1cyy_j36g486tldtwl37280000gn/T//ccBOLdZ4.s 			page 50


 1799              	.L67:
 293:Drivers/sdio.h **** 	}
 1800              		.loc 1 293 13 view .LVU658
 1801              	.LBE624:
 1802              	.LBE623:
 316:Drivers/sdio.h **** 		return result;
 1803              		.loc 1 316 3 is_stmt 1 view .LVU659
 316:Drivers/sdio.h **** 		return result;
 1804              		.loc 1 316 37 view .LVU660
 1805              	.LBB625:
 1806              	.LBI618:
 331:Drivers/sdio.h **** 		uint32_t status = SDIO->STA & 0xFFF;
 1807              		.loc 1 331 8 view .LVU661
 1808              	.LBB620:
 332:Drivers/sdio.h **** 
 1809              		.loc 1 332 3 view .LVU662
 332:Drivers/sdio.h **** 
 1810              		.loc 1 332 27 is_stmt 0 view .LVU663
 1811 0376 204A     		ldr	r2, .L175
 1812 0378 536B     		ldr	r3, [r2, #52]
 1813              	.LVL136:
 334:Drivers/sdio.h **** 			return InProgress;
 1814              		.loc 1 334 3 is_stmt 1 view .LVU664
 1815 037a 1805     		lsls	r0, r3, #20
 1816 037c FBD4     		bmi	.L67
 338:Drivers/sdio.h **** 			SDIO->ICR = SDIO_STA_CMDREND;
 1817              		.loc 1 338 3 view .LVU665
 1818 037e 5F06     		lsls	r7, r3, #25
 1819 0380 20D4     		bmi	.L172
 343:Drivers/sdio.h **** 			SDIO->ICR = SDIO_STA_CMDSENT;
 1820              		.loc 1 343 3 view .LVU666
 1821 0382 1E06     		lsls	r6, r3, #24
 1822 0384 D5D5     		bpl	.L70
 344:Drivers/sdio.h **** 			return Success;
 1823              		.loc 1 344 4 view .LVU667
 344:Drivers/sdio.h **** 			return Success;
 1824              		.loc 1 344 14 is_stmt 0 view .LVU668
 1825 0386 8021     		movs	r1, #128
 1826              	.LVL137:
 344:Drivers/sdio.h **** 			return Success;
 1827              		.loc 1 344 14 view .LVU669
 1828 0388 9163     		str	r1, [r2, #56]
 345:Drivers/sdio.h **** 		}
 1829              		.loc 1 345 4 is_stmt 1 view .LVU670
 1830              	.LVL138:
 1831              	.L69:
 345:Drivers/sdio.h **** 		}
 1832              		.loc 1 345 4 is_stmt 0 view .LVU671
 1833              	.LBE620:
 1834              	.LBE625:
 317:Drivers/sdio.h **** 	}
 1835              		.loc 1 317 3 is_stmt 1 view .LVU672
 317:Drivers/sdio.h **** 	}
 1836              		.loc 1 317 3 is_stmt 0 view .LVU673
 1837              	.LBE628:
 1838              	.LBE632:
 305:Drivers/sdio.h **** 				break;
ARM GAS  /var/folders/84/_x1cyy_j36g486tldtwl37280000gn/T//ccBOLdZ4.s 			page 51


 1839              		.loc 1 305 4 is_stmt 1 view .LVU674
 305:Drivers/sdio.h **** 				break;
 1840              		.loc 1 305 4 is_stmt 0 view .LVU675
 1841              	.LBE636:
 309:Drivers/sdio.h **** 
 1842              		.loc 1 309 3 is_stmt 1 view .LVU676
 309:Drivers/sdio.h **** 
 1843              		.loc 1 309 3 is_stmt 0 view .LVU677
 1844              	.LBE640:
 1845              	.LBE644:
 266:Drivers/sdio.h **** 
 1846              		.loc 1 266 3 is_stmt 1 view .LVU678
 266:Drivers/sdio.h **** 
 1847              		.loc 1 266 15 is_stmt 0 view .LVU679
 1848 038a 1B4B     		ldr	r3, .L175
 1849              	.LVL139:
 266:Drivers/sdio.h **** 
 1850              		.loc 1 266 15 view .LVU680
 1851 038c 4FF41062 		mov	r2, #2304
 1852 0390 5A60     		str	r2, [r3, #4]
 268:Drivers/sdio.h **** 	}
 1853              		.loc 1 268 3 is_stmt 1 view .LVU681
 268:Drivers/sdio.h **** 	}
 1854              		.loc 1 268 10 is_stmt 0 view .LVU682
 1855 0392 88E6     		b	.L138
 1856              	.LVL140:
 1857              	.L161:
 268:Drivers/sdio.h **** 	}
 1858              		.loc 1 268 10 view .LVU683
 1859              	.LBE648:
 1860              	.LBE652:
 1861              	.LBB653:
 1862              	.LBB506:
 1863              	.LBB503:
 1864              	.LBB500:
 1865              	.LBB497:
 1866              	.LBB494:
 1867              	.LBB489:
 344:Drivers/sdio.h **** 			return Success;
 1868              		.loc 1 344 4 is_stmt 1 view .LVU684
 344:Drivers/sdio.h **** 			return Success;
 1869              		.loc 1 344 14 is_stmt 0 view .LVU685
 1870 0394 8021     		movs	r1, #128
 1871              	.LVL141:
 344:Drivers/sdio.h **** 			return Success;
 1872              		.loc 1 344 14 view .LVU686
 1873 0396 9163     		str	r1, [r2, #56]
 345:Drivers/sdio.h **** 		}
 1874              		.loc 1 345 4 is_stmt 1 view .LVU687
 1875              	.LVL142:
 345:Drivers/sdio.h **** 		}
 1876              		.loc 1 345 4 is_stmt 0 view .LVU688
 1877              	.LBE489:
 1878              	.LBE494:
 1879              	.LBE497:
 1880              	.LBE500:
 1881              	.LBE503:
ARM GAS  /var/folders/84/_x1cyy_j36g486tldtwl37280000gn/T//ccBOLdZ4.s 			page 52


 1882              	.LBE506:
 1883              	.LBE653:
 1884              	.LBB654:
 1885              	.LBB535:
 1886              	.LBB532:
 322:Drivers/sdio.h **** 			result = sendCommandWait(cmd, arg);
 1887              		.loc 1 322 21 is_stmt 1 view .LVU689
 1888 0398 41E7     		b	.L35
 1889              	.LVL143:
 1890              	.L163:
 1891              	.LBB529:
 1892              	.LBB526:
 1893              	.LBB523:
 1894              	.LBB518:
 344:Drivers/sdio.h **** 			return Success;
 1895              		.loc 1 344 4 view .LVU690
 344:Drivers/sdio.h **** 			return Success;
 1896              		.loc 1 344 14 is_stmt 0 view .LVU691
 1897 039a 8027     		movs	r7, #128
 1898 039c 9763     		str	r7, [r2, #56]
 345:Drivers/sdio.h **** 		}
 1899              		.loc 1 345 4 is_stmt 1 view .LVU692
 1900              	.LVL144:
 345:Drivers/sdio.h **** 		}
 1901              		.loc 1 345 4 is_stmt 0 view .LVU693
 1902 039e 5EE7     		b	.L41
 1903              	.LVL145:
 1904              	.L162:
 345:Drivers/sdio.h **** 		}
 1905              		.loc 1 345 4 view .LVU694
 1906              	.LBE518:
 1907              	.LBE523:
 1908              	.LBE526:
 1909              	.LBE529:
 1910              	.LBE532:
 1911              	.LBE535:
 1912              	.LBE654:
 1913              	.LBB655:
 1914              	.LBB507:
 1915              	.LBB504:
 1916              	.LBB501:
 1917              	.LBB498:
 1918              	.LBB495:
 1919              	.LBB490:
 349:Drivers/sdio.h **** 			return Timeout;
 1920              		.loc 1 349 4 is_stmt 1 view .LVU695
 349:Drivers/sdio.h **** 			return Timeout;
 1921              		.loc 1 349 14 is_stmt 0 view .LVU696
 1922 03a0 0427     		movs	r7, #4
 1923 03a2 9763     		str	r7, [r2, #56]
 350:Drivers/sdio.h **** 		}
 1924              		.loc 1 350 4 is_stmt 1 view .LVU697
 1925              	.LVL146:
 350:Drivers/sdio.h **** 		}
 1926              		.loc 1 350 4 is_stmt 0 view .LVU698
 1927 03a4 28E7     		b	.L38
 1928              	.LVL147:
ARM GAS  /var/folders/84/_x1cyy_j36g486tldtwl37280000gn/T//ccBOLdZ4.s 			page 53


 1929              	.L164:
 350:Drivers/sdio.h **** 		}
 1930              		.loc 1 350 4 view .LVU699
 1931              	.LBE490:
 1932              	.LBE495:
 1933              	.LBE498:
 1934              	.LBE501:
 1935              	.LBE504:
 1936              	.LBE507:
 1937              	.LBE655:
 1938              	.LBB656:
 1939              	.LBB536:
 1940              	.LBB533:
 1941              	.LBB530:
 1942              	.LBB527:
 1943              	.LBB524:
 1944              	.LBB519:
 349:Drivers/sdio.h **** 			return Timeout;
 1945              		.loc 1 349 4 is_stmt 1 view .LVU700
 349:Drivers/sdio.h **** 			return Timeout;
 1946              		.loc 1 349 14 is_stmt 0 view .LVU701
 1947 03a6 0426     		movs	r6, #4
 1948 03a8 9663     		str	r6, [r2, #56]
 350:Drivers/sdio.h **** 		}
 1949              		.loc 1 350 4 is_stmt 1 view .LVU702
 1950              	.LVL148:
 350:Drivers/sdio.h **** 		}
 1951              		.loc 1 350 4 is_stmt 0 view .LVU703
 1952 03aa 44E7     		b	.L44
 1953              	.LVL149:
 1954              	.L165:
 350:Drivers/sdio.h **** 		}
 1955              		.loc 1 350 4 view .LVU704
 1956              	.LBE519:
 1957              	.LBE524:
 1958              	.LBE527:
 1959              	.LBE530:
 1960              	.LBE533:
 1961              	.LBE536:
 1962              	.LBE656:
 1963              	.LBB657:
 1964              	.LBB565:
 1965              	.LBB562:
 1966              	.LBB559:
 1967              	.LBB556:
 1968              	.LBB553:
 1969              	.LBB548:
 344:Drivers/sdio.h **** 			return Success;
 1970              		.loc 1 344 4 is_stmt 1 view .LVU705
 344:Drivers/sdio.h **** 			return Success;
 1971              		.loc 1 344 14 is_stmt 0 view .LVU706
 1972 03ac 8021     		movs	r1, #128
 1973              	.LVL150:
 344:Drivers/sdio.h **** 			return Success;
 1974              		.loc 1 344 14 view .LVU707
 1975 03ae 9163     		str	r1, [r2, #56]
 345:Drivers/sdio.h **** 		}
ARM GAS  /var/folders/84/_x1cyy_j36g486tldtwl37280000gn/T//ccBOLdZ4.s 			page 54


 1976              		.loc 1 345 4 is_stmt 1 view .LVU708
 1977              	.LVL151:
 345:Drivers/sdio.h **** 		}
 1978              		.loc 1 345 4 is_stmt 0 view .LVU709
 1979 03b0 85E7     		b	.L48
 1980              	.LVL152:
 1981              	.L168:
 345:Drivers/sdio.h **** 		}
 1982              		.loc 1 345 4 view .LVU710
 1983              	.LBE548:
 1984              	.LBE553:
 1985              	.LBE556:
 1986              	.LBE559:
 1987              	.LBE562:
 1988              	.LBE565:
 1989              	.LBE657:
 1990              	.LBB658:
 1991              	.LBB597:
 1992              	.LBB595:
 1993              	.LBB593:
 1994              	.LBB590:
 1995              	.LBB587:
 1996              	.LBB582:
 344:Drivers/sdio.h **** 			return Success;
 1997              		.loc 1 344 4 is_stmt 1 view .LVU711
 344:Drivers/sdio.h **** 			return Success;
 1998              		.loc 1 344 14 is_stmt 0 view .LVU712
 1999 03b2 8021     		movs	r1, #128
 2000              	.LVL153:
 344:Drivers/sdio.h **** 			return Success;
 2001              		.loc 1 344 14 view .LVU713
 2002 03b4 9163     		str	r1, [r2, #56]
 345:Drivers/sdio.h **** 		}
 2003              		.loc 1 345 4 is_stmt 1 view .LVU714
 2004              	.LVL154:
 345:Drivers/sdio.h **** 		}
 2005              		.loc 1 345 4 is_stmt 0 view .LVU715
 2006              	.LBE582:
 2007              	.LBE587:
 2008              	.LBE590:
 2009              	.LBE593:
 2010              	.LBE595:
 2011              	.LBE597:
 2012              	.LBE658:
 2013              	.LBB659:
 2014              	.LBB649:
 2015              	.LBB645:
 2016              	.LBB641:
 2017              	.LBB637:
 299:Drivers/sdio.h **** 			result = sendCommandWait(55, cardInfo.rca << 16);
 2018              		.loc 1 299 21 is_stmt 1 view .LVU716
 2019 03b6 B8E7     		b	.L56
 2020              	.LVL155:
 2021              	.L166:
 299:Drivers/sdio.h **** 			result = sendCommandWait(55, cardInfo.rca << 16);
 2022              		.loc 1 299 21 is_stmt 0 view .LVU717
 2023              	.LBE637:
ARM GAS  /var/folders/84/_x1cyy_j36g486tldtwl37280000gn/T//ccBOLdZ4.s 			page 55


 2024              	.LBE641:
 2025              	.LBE645:
 2026              	.LBE649:
 2027              	.LBE659:
 2028              	.LBB660:
 2029              	.LBB566:
 2030              	.LBB563:
 2031              	.LBB560:
 2032              	.LBB557:
 2033              	.LBB554:
 2034              	.LBB549:
 349:Drivers/sdio.h **** 			return Timeout;
 2035              		.loc 1 349 4 is_stmt 1 view .LVU718
 349:Drivers/sdio.h **** 			return Timeout;
 2036              		.loc 1 349 14 is_stmt 0 view .LVU719
 2037 03b8 0427     		movs	r7, #4
 2038 03ba 9763     		str	r7, [r2, #56]
 350:Drivers/sdio.h **** 		}
 2039              		.loc 1 350 4 is_stmt 1 view .LVU720
 2040              	.LVL156:
 350:Drivers/sdio.h **** 		}
 2041              		.loc 1 350 4 is_stmt 0 view .LVU721
 2042 03bc 6CE7     		b	.L51
 2043              	.LVL157:
 2044              	.L170:
 350:Drivers/sdio.h **** 		}
 2045              		.loc 1 350 4 view .LVU722
 2046              	.LBE549:
 2047              	.LBE554:
 2048              	.LBE557:
 2049              	.LBE560:
 2050              	.LBE563:
 2051              	.LBE566:
 2052              	.LBE660:
 2053              	.LBB661:
 2054              	.LBB650:
 2055              	.LBB646:
 2056              	.LBB642:
 2057              	.LBB638:
 2058              	.LBB633:
 2059              	.LBB615:
 2060              	.LBB613:
 2061              	.LBB609:
 344:Drivers/sdio.h **** 			return Success;
 2062              		.loc 1 344 4 is_stmt 1 view .LVU723
 344:Drivers/sdio.h **** 			return Success;
 2063              		.loc 1 344 14 is_stmt 0 view .LVU724
 2064 03be 8020     		movs	r0, #128
 2065 03c0 9063     		str	r0, [r2, #56]
 345:Drivers/sdio.h **** 		}
 2066              		.loc 1 345 4 is_stmt 1 view .LVU725
 2067              	.LVL158:
 345:Drivers/sdio.h **** 		}
 2068              		.loc 1 345 4 is_stmt 0 view .LVU726
 2069 03c2 CFE7     		b	.L62
 2070              	.LVL159:
 2071              	.L172:
ARM GAS  /var/folders/84/_x1cyy_j36g486tldtwl37280000gn/T//ccBOLdZ4.s 			page 56


 345:Drivers/sdio.h **** 		}
 2072              		.loc 1 345 4 view .LVU727
 2073              	.LBE609:
 2074              	.LBE613:
 2075              	.LBE615:
 2076              	.LBE633:
 2077              	.LBB634:
 2078              	.LBB629:
 2079              	.LBB626:
 2080              	.LBB621:
 339:Drivers/sdio.h **** 			return Success;
 2081              		.loc 1 339 4 is_stmt 1 view .LVU728
 339:Drivers/sdio.h **** 			return Success;
 2082              		.loc 1 339 14 is_stmt 0 view .LVU729
 2083 03c4 4020     		movs	r0, #64
 2084 03c6 9063     		str	r0, [r2, #56]
 340:Drivers/sdio.h **** 		}
 2085              		.loc 1 340 4 is_stmt 1 view .LVU730
 2086              	.LVL160:
 340:Drivers/sdio.h **** 		}
 2087              		.loc 1 340 4 is_stmt 0 view .LVU731
 2088 03c8 DFE7     		b	.L69
 2089              	.LVL161:
 2090              	.L169:
 340:Drivers/sdio.h **** 		}
 2091              		.loc 1 340 4 view .LVU732
 2092              	.LBE621:
 2093              	.LBE626:
 2094              	.LBE629:
 2095              	.LBE634:
 2096              	.LBE638:
 2097              	.LBE642:
 2098              	.LBE646:
 2099              	.LBE650:
 2100              	.LBE661:
 2101              	.LBB662:
 2102              	.LBB598:
 2103              	.LBB596:
 2104              	.LBB594:
 2105              	.LBB591:
 2106              	.LBB588:
 2107              	.LBB583:
 349:Drivers/sdio.h **** 			return Timeout;
 2108              		.loc 1 349 4 is_stmt 1 view .LVU733
 349:Drivers/sdio.h **** 			return Timeout;
 2109              		.loc 1 349 14 is_stmt 0 view .LVU734
 2110 03ca 0420     		movs	r0, #4
 2111 03cc 9063     		str	r0, [r2, #56]
 350:Drivers/sdio.h **** 		}
 2112              		.loc 1 350 4 is_stmt 1 view .LVU735
 2113              	.LVL162:
 350:Drivers/sdio.h **** 		}
 2114              		.loc 1 350 4 is_stmt 0 view .LVU736
 2115 03ce 99E7     		b	.L59
 2116              	.LVL163:
 2117              	.L171:
 350:Drivers/sdio.h **** 		}
ARM GAS  /var/folders/84/_x1cyy_j36g486tldtwl37280000gn/T//ccBOLdZ4.s 			page 57


 2118              		.loc 1 350 4 view .LVU737
 2119              	.LBE583:
 2120              	.LBE588:
 2121              	.LBE591:
 2122              	.LBE594:
 2123              	.LBE596:
 2124              	.LBE598:
 2125              	.LBE662:
 2126              	.LBB663:
 2127              	.LBB651:
 2128              	.LBB647:
 2129              	.LBB643:
 2130              	.LBB639:
 2131              	.LBB635:
 2132              	.LBB630:
 2133              	.LBB627:
 2134              	.LBB622:
 349:Drivers/sdio.h **** 			return Timeout;
 2135              		.loc 1 349 4 is_stmt 1 view .LVU738
 349:Drivers/sdio.h **** 			return Timeout;
 2136              		.loc 1 349 14 is_stmt 0 view .LVU739
 2137 03d0 0426     		movs	r6, #4
 2138 03d2 9663     		str	r6, [r2, #56]
 350:Drivers/sdio.h **** 		}
 2139              		.loc 1 350 4 is_stmt 1 view .LVU740
 2140              	.LVL164:
 350:Drivers/sdio.h **** 		}
 2141              		.loc 1 350 4 is_stmt 0 view .LVU741
 2142 03d4 B3E7     		b	.L65
 2143              	.LVL165:
 2144              	.L167:
 350:Drivers/sdio.h **** 		}
 2145              		.loc 1 350 4 view .LVU742
 2146              	.LBE622:
 2147              	.LBE627:
 2148              	.LBE630:
 2149              	.LBE635:
 2150              	.LBE639:
 2151              	.LBE643:
 2152              	.LBE647:
 2153              	.LBE651:
 2154              	.LBE663:
 245:Drivers/sdio.h **** 			uint32_t c_size = ((SDIO->RESP2 & 0x3F) << 16) | (SDIO->RESP3 >> 16);
 2155              		.loc 1 245 10 is_stmt 1 view .LVU743
 2156              	.LBB664:
 2157              	.LBB570:
 2158 03d6 012F     		cmp	r7, #1
 2159 03d8 0AD1     		bne	.L53
 2160              	.LBB571:
 246:Drivers/sdio.h **** 			cardInfo.size = (c_size + 1) << 10;
 2161              		.loc 1 246 4 view .LVU744
 246:Drivers/sdio.h **** 			cardInfo.size = (c_size + 1) << 10;
 2162              		.loc 1 246 30 is_stmt 0 view .LVU745
 2163 03da 9169     		ldr	r1, [r2, #24]
 246:Drivers/sdio.h **** 			cardInfo.size = (c_size + 1) << 10;
 2164              		.loc 1 246 60 view .LVU746
 2165 03dc D269     		ldr	r2, [r2, #28]
ARM GAS  /var/folders/84/_x1cyy_j36g486tldtwl37280000gn/T//ccBOLdZ4.s 			page 58


 2166              	.LVL166:
 247:Drivers/sdio.h **** 		} else {
 2167              		.loc 1 247 4 is_stmt 1 view .LVU747
 246:Drivers/sdio.h **** 			cardInfo.size = (c_size + 1) << 10;
 2168              		.loc 1 246 44 is_stmt 0 view .LVU748
 2169 03de 0B04     		lsls	r3, r1, #16
 2170 03e0 03F47C16 		and	r6, r3, #4128768
 246:Drivers/sdio.h **** 			cardInfo.size = (c_size + 1) << 10;
 2171              		.loc 1 246 71 view .LVU749
 2172 03e4 46EA1247 		orr	r7, r6, r2, lsr #16
 2173              	.LVL167:
 247:Drivers/sdio.h **** 		} else {
 2174              		.loc 1 247 28 view .LVU750
 2175 03e8 0137     		adds	r7, r7, #1
 2176              	.LVL168:
 247:Drivers/sdio.h **** 		} else {
 2177              		.loc 1 247 33 view .LVU751
 2178 03ea B902     		lsls	r1, r7, #10
 247:Drivers/sdio.h **** 		} else {
 2179              		.loc 1 247 18 view .LVU752
 2180 03ec 4160     		str	r1, [r0, #4]
 2181              	.LBE571:
 2182 03ee 7FE7     		b	.L52
 2183              	.LVL169:
 2184              	.L53:
 249:Drivers/sdio.h **** 			return false;
 2185              		.loc 1 249 4 is_stmt 1 view .LVU753
 2186              	.LBB572:
 2187              	.LBI572:
 138:Drivers/sdio.h **** 		//if (initialised_ == false) {
 2188              		.loc 1 138 7 view .LVU754
 2189              	.LBB573:
 140:Drivers/sdio.h **** 	//	while (SDIO->POWER);
 2190              		.loc 1 140 3 view .LVU755
 140:Drivers/sdio.h **** 	//	while (SDIO->POWER);
 2191              		.loc 1 140 15 is_stmt 0 view .LVU756
 2192 03f0 0025     		movs	r5, #0
 2193 03f2 1560     		str	r5, [r2]
 2194              	.LBE573:
 2195              	.LBE572:
 250:Drivers/sdio.h **** 		}
 2196              		.loc 1 250 4 is_stmt 1 view .LVU757
 250:Drivers/sdio.h **** 		}
 2197              		.loc 1 250 11 is_stmt 0 view .LVU758
 2198 03f4 57E6     		b	.L138
 2199              	.L176:
 2200 03f6 00BF     		.align	2
 2201              	.L175:
 2202 03f8 002C0140 		.word	1073818624
 2203              	.LBE570:
 2204              	.LBE664:
 2205              		.cfi_endproc
 2206              	.LFE1992:
 2208              		.section	.text.disk_initialize,"ax",%progbits
 2209              		.align	1
 2210              		.p2align 2,,3
 2211              		.global	disk_initialize
ARM GAS  /var/folders/84/_x1cyy_j36g486tldtwl37280000gn/T//ccBOLdZ4.s 			page 59


 2212              		.syntax unified
 2213              		.thumb
 2214              		.thumb_func
 2215              		.fpu fpv4-sp-d16
 2217              	disk_initialize:
 2218              	.LVL170:
 2219              	.LFB2002:
 2220              		.file 4 "Src/Disk/diskio.cpp"
   1:Src/Disk/diskio.cpp **** /*-----------------------------------------------------------------------*/
   2:Src/Disk/diskio.cpp **** /* Low level disk I/O module SKELETON for FatFs     (C)ChaN, 2019        */
   3:Src/Disk/diskio.cpp **** /*-----------------------------------------------------------------------*/
   4:Src/Disk/diskio.cpp **** /* If a working storage control module is available, it should be        */
   5:Src/Disk/diskio.cpp **** /* attached to the FatFs via a glue function rather than modifying it.   */
   6:Src/Disk/diskio.cpp **** /* This is an example of glue functions to attach various exsisting      */
   7:Src/Disk/diskio.cpp **** /* storage control modules to the FatFs module with a defined API.       */
   8:Src/Disk/diskio.cpp **** /*-----------------------------------------------------------------------*/
   9:Src/Disk/diskio.cpp **** 
  10:Src/Disk/diskio.cpp **** #include "ff.h"			/* Obtains integer types */
  11:Src/Disk/diskio.cpp **** #include "diskio.h"		/* Declarations of disk functions */
  12:Src/Disk/diskio.cpp **** #include "sdio.h"
  13:Src/Disk/diskio.cpp **** 
  14:Src/Disk/diskio.cpp **** /* Definitions of physical drive number for each drive */
  15:Src/Disk/diskio.cpp **** 
  16:Src/Disk/diskio.cpp **** /*-----------------------------------------------------------------------*/
  17:Src/Disk/diskio.cpp **** /* Get Drive Status                                                      */
  18:Src/Disk/diskio.cpp **** /*-----------------------------------------------------------------------*/
  19:Src/Disk/diskio.cpp **** 
  20:Src/Disk/diskio.cpp **** DSTATUS disk_status (
  21:Src/Disk/diskio.cpp **** BYTE pdrv		/* Physical drive nmuber to identify the drive */
  22:Src/Disk/diskio.cpp **** )
  23:Src/Disk/diskio.cpp **** {
  24:Src/Disk/diskio.cpp **** 	if ((pdrv >= 1) || (sdio.status() == false)) {
  25:Src/Disk/diskio.cpp **** 		return STA_NOINIT;
  26:Src/Disk/diskio.cpp **** 	}
  27:Src/Disk/diskio.cpp **** 
  28:Src/Disk/diskio.cpp **** 	return 0;
  29:Src/Disk/diskio.cpp **** }
  30:Src/Disk/diskio.cpp **** 
  31:Src/Disk/diskio.cpp **** 
  32:Src/Disk/diskio.cpp **** /*-----------------------------------------------------------------------*/
  33:Src/Disk/diskio.cpp **** /* Inidialize a Drive                                                    */
  34:Src/Disk/diskio.cpp **** /*-----------------------------------------------------------------------*/
  35:Src/Disk/diskio.cpp **** 
  36:Src/Disk/diskio.cpp **** DSTATUS disk_initialize (
  37:Src/Disk/diskio.cpp **** BYTE pdrv				/* Physical drive nmuber to identify the drive */
  38:Src/Disk/diskio.cpp **** )
  39:Src/Disk/diskio.cpp **** {
 2221              		.loc 4 39 1 is_stmt 1 view -0
 2222              		.cfi_startproc
 2223              		@ args = 0, pretend = 0, frame = 0
 2224              		@ frame_needed = 0, uses_anonymous_args = 0
  40:Src/Disk/diskio.cpp **** 	if ((pdrv >= 1) || (sdio.status() == false)) {
 2225              		.loc 4 40 2 view .LVU760
 2226              		.loc 4 40 18 is_stmt 0 view .LVU761
 2227 0000 08B1     		cbz	r0, .L211
  41:Src/Disk/diskio.cpp **** 		return STA_NOINIT;
 2228              		.loc 4 41 10 view .LVU762
ARM GAS  /var/folders/84/_x1cyy_j36g486tldtwl37280000gn/T//ccBOLdZ4.s 			page 60


 2229 0002 0120     		movs	r0, #1
 2230              	.LVL171:
  42:Src/Disk/diskio.cpp **** 	}
  43:Src/Disk/diskio.cpp **** 
  44:Src/Disk/diskio.cpp **** 	return 0;
  45:Src/Disk/diskio.cpp **** }
 2231              		.loc 4 45 1 view .LVU763
 2232 0004 7047     		bx	lr
 2233              	.LVL172:
 2234              	.L211:
 2235              	.LBB685:
 2236              	.LBI685:
  47:Drivers/sdio.h **** 		if (initialised_) {
 2237              		.loc 1 47 7 is_stmt 1 view .LVU764
 2238              	.LBB686:
  48:Drivers/sdio.h **** 			initialised_ = detected();
 2239              		.loc 1 48 3 view .LVU765
 2240              	.LBE686:
 2241              	.LBE685:
  39:Src/Disk/diskio.cpp **** 	if ((pdrv >= 1) || (sdio.status() == false)) {
 2242              		.loc 4 39 1 is_stmt 0 view .LVU766
 2243 0006 38B5     		push	{r3, r4, r5, lr}
 2244              		.cfi_def_cfa_offset 16
 2245              		.cfi_offset 3, -16
 2246              		.cfi_offset 4, -12
 2247              		.cfi_offset 5, -8
 2248              		.cfi_offset 14, -4
 2249              	.LBB723:
 2250              	.LBB721:
  48:Drivers/sdio.h **** 			initialised_ = detected();
 2251              		.loc 1 48 7 view .LVU767
 2252 0008 2A4C     		ldr	r4, .L215
  48:Drivers/sdio.h **** 			initialised_ = detected();
 2253              		.loc 1 48 3 view .LVU768
 2254 000a 237C     		ldrb	r3, [r4, #16]	@ zero_extendqisi2
 2255 000c 3BB9     		cbnz	r3, .L212
 2256              	.LVL173:
 2257              	.L189:
  56:Drivers/sdio.h **** 			initialised_ = init_card();
 2258              		.loc 1 56 3 is_stmt 1 view .LVU769
  57:Drivers/sdio.h **** 		}
 2259              		.loc 1 57 4 view .LVU770
  57:Drivers/sdio.h **** 		}
 2260              		.loc 1 57 28 is_stmt 0 view .LVU771
 2261 000e 2948     		ldr	r0, .L215
 2262 0010 FFF7FEFF 		bl	_ZN4Sdio9init_cardEv
 2263              	.LVL174:
  57:Drivers/sdio.h **** 		}
 2264              		.loc 1 57 17 view .LVU772
 2265 0014 2074     		strb	r0, [r4, #16]
 2266              	.L191:
  60:Drivers/sdio.h **** 	}
 2267              		.loc 1 60 3 is_stmt 1 view .LVU773
 2268              	.LVL175:
  60:Drivers/sdio.h **** 	}
 2269              		.loc 1 60 3 is_stmt 0 view .LVU774
 2270              	.LBE721:
ARM GAS  /var/folders/84/_x1cyy_j36g486tldtwl37280000gn/T//ccBOLdZ4.s 			page 61


 2271              	.LBE723:
  40:Src/Disk/diskio.cpp **** 		return STA_NOINIT;
 2272              		.loc 4 40 18 view .LVU775
 2273 0016 80F00104 		eor	r4, r0, #1
  41:Src/Disk/diskio.cpp **** 	}
 2274              		.loc 4 41 10 view .LVU776
 2275 001a E0B2     		uxtb	r0, r4
 2276              		.loc 4 45 1 view .LVU777
 2277 001c 38BD     		pop	{r3, r4, r5, pc}
 2278              	.LVL176:
 2279              	.L212:
 2280              	.LBB724:
 2281              	.LBB722:
  49:Drivers/sdio.h **** 		}
 2282              		.loc 1 49 4 is_stmt 1 view .LVU778
 2283              	.LBB687:
 2284              	.LBI687:
  91:Drivers/sdio.h **** 		return !(GPIOA->IDR & GPIO_PIN_8);
 2285              		.loc 1 91 7 view .LVU779
 2286              	.LBB688:
  92:Drivers/sdio.h **** 	}
 2287              		.loc 1 92 3 view .LVU780
  92:Drivers/sdio.h **** 	}
 2288              		.loc 1 92 19 is_stmt 0 view .LVU781
 2289 001e 2648     		ldr	r0, .L215+4
 2290              	.LVL177:
  92:Drivers/sdio.h **** 	}
 2291              		.loc 1 92 19 view .LVU782
 2292 0020 0169     		ldr	r1, [r0, #16]
  92:Drivers/sdio.h **** 	}
 2293              		.loc 1 92 23 view .LVU783
 2294 0022 01F48072 		and	r2, r1, #256
  92:Drivers/sdio.h **** 	}
 2295              		.loc 1 92 35 view .LVU784
 2296 0026 002A     		cmp	r2, #0
 2297 0028 0CBF     		ite	eq
 2298 002a 0122     		moveq	r2, #1
 2299 002c 0022     		movne	r2, #0
 2300 002e 2274     		strb	r2, [r4, #16]
 2301              	.LBE688:
 2302              	.LBE687:
  52:Drivers/sdio.h **** 			initialised_ = waitDataReady();
 2303              		.loc 1 52 3 is_stmt 1 view .LVU785
 2304 0030 EDD1     		bne	.L189
  53:Drivers/sdio.h **** 		}
 2305              		.loc 1 53 4 view .LVU786
 2306              	.LVL178:
 2307              	.LBB689:
 2308              	.LBI689:
 271:Drivers/sdio.h **** 		time_out.start(1000);
 2309              		.loc 1 271 7 view .LVU787
 2310              	.LBB690:
 272:Drivers/sdio.h **** 		while (time_out.status()) {
 2311              		.loc 1 272 3 view .LVU788
 2312              	.LBB691:
 2313              	.LBI691:
   9:Src/Engine/timeOut.h **** 		interval_ = ms * 1000;
ARM GAS  /var/folders/84/_x1cyy_j36g486tldtwl37280000gn/T//ccBOLdZ4.s 			page 62


 2314              		.loc 2 9 7 view .LVU789
 2315              	.LBB692:
  10:Src/Engine/timeOut.h **** 		start_ = micros.read();
 2316              		.loc 2 10 3 view .LVU790
  10:Src/Engine/timeOut.h **** 		start_ = micros.read();
 2317              		.loc 2 10 13 is_stmt 0 view .LVU791
 2318 0032 224D     		ldr	r5, .L215+8
 2319              	.LBB693:
 2320              	.LBB694:
 2321              		.loc 3 12 16 view .LVU792
 2322 0034 224B     		ldr	r3, .L215+12
 2323              	.LBE694:
 2324              	.LBE693:
  10:Src/Engine/timeOut.h **** 		start_ = micros.read();
 2325              		.loc 2 10 13 view .LVU793
 2326 0036 E560     		str	r5, [r4, #12]
  11:Src/Engine/timeOut.h **** 	}
 2327              		.loc 2 11 3 is_stmt 1 view .LVU794
 2328              	.LBB696:
 2329              	.LBI693:
  11:Drivers/micros.h **** 		return TIM5->CNT;
 2330              		.loc 3 11 27 view .LVU795
 2331              	.LVL179:
 2332              	.LBB695:
 2333              		.loc 3 12 3 view .LVU796
 2334              		.loc 3 12 16 is_stmt 0 view .LVU797
 2335 0038 586A     		ldr	r0, [r3, #36]
 2336              	.LBE695:
 2337              	.LBE696:
  11:Src/Engine/timeOut.h **** 	}
 2338              		.loc 2 11 10 view .LVU798
 2339 003a A060     		str	r0, [r4, #8]
 2340              	.LVL180:
  11:Src/Engine/timeOut.h **** 	}
 2341              		.loc 2 11 10 view .LVU799
 2342              	.LBE692:
 2343              	.LBE691:
 273:Drivers/sdio.h **** 			if (sendCommandWait(13, cardInfo.rca << 16) == Success && (SDIO->RESP1 & 0x100) != 0) {
 2344              		.loc 1 273 3 is_stmt 1 view .LVU800
 273:Drivers/sdio.h **** 			if (sendCommandWait(13, cardInfo.rca << 16) == Success && (SDIO->RESP1 & 0x100) != 0) {
 2345              		.loc 1 273 25 view .LVU801
 2346              	.LBB697:
 2347              	.LBI697:
  14:Src/Engine/timeOut.h **** 		return static_cast<uint32_t>((micros.read() - start_) < interval_);
 2348              		.loc 2 14 16 view .LVU802
 2349              	.LBB698:
 2350              		.loc 2 15 3 view .LVU803
 2351              	.LBB699:
 2352              	.LBI699:
  11:Drivers/micros.h **** 		return TIM5->CNT;
 2353              		.loc 3 11 27 view .LVU804
 2354              	.LBB700:
 2355              		.loc 3 12 3 view .LVU805
 2356              		.loc 3 12 16 is_stmt 0 view .LVU806
 2357 003c 596A     		ldr	r1, [r3, #36]
 2358              	.LBE700:
 2359              	.LBE699:
ARM GAS  /var/folders/84/_x1cyy_j36g486tldtwl37280000gn/T//ccBOLdZ4.s 			page 63


 2360              		.loc 2 15 49 view .LVU807
 2361 003e A268     		ldr	r2, [r4, #8]
 2362              		.loc 2 15 59 view .LVU808
 2363 0040 E568     		ldr	r5, [r4, #12]
 2364              		.loc 2 15 47 view .LVU809
 2365 0042 881A     		subs	r0, r1, r2
 2366              		.loc 2 15 68 view .LVU810
 2367 0044 8542     		cmp	r5, r0
 2368 0046 94BF     		ite	ls
 2369 0048 0020     		movls	r0, #0
 2370 004a 0120     		movhi	r0, #1
 2371              	.LVL181:
 2372              		.loc 2 15 68 view .LVU811
 2373              	.LBE698:
 2374              	.LBE697:
 273:Drivers/sdio.h **** 			if (sendCommandWait(13, cardInfo.rca << 16) == Success && (SDIO->RESP1 & 0x100) != 0) {
 2375              		.loc 1 273 25 view .LVU812
 2376 004c 0028     		cmp	r0, #0
 2377 004e 2ED0     		beq	.L180
 274:Drivers/sdio.h **** 				return true;
 2378              		.loc 1 274 37 view .LVU813
 2379 0050 2388     		ldrh	r3, [r4]
 274:Drivers/sdio.h **** 				return true;
 2380              		.loc 1 274 41 view .LVU814
 2381 0052 1D04     		lsls	r5, r3, #16
 2382 0054 0EE0     		b	.L181
 2383              	.LVL182:
 2384              	.L183:
 2385              	.LBB704:
 2386              	.LBB705:
 2387              	.LBB706:
 2388              	.LBB707:
 343:Drivers/sdio.h **** 			SDIO->ICR = SDIO_STA_CMDSENT;
 2389              		.loc 1 343 3 is_stmt 1 view .LVU815
 2390 0056 1106     		lsls	r1, r2, #24
 2391 0058 26D4     		bmi	.L213
 348:Drivers/sdio.h **** 			SDIO->ICR = SDIO_STA_CTIMEOUT;
 2392              		.loc 1 348 3 view .LVU816
 2393 005a 5107     		lsls	r1, r2, #29
 2394 005c 21D4     		bmi	.L214
 353:Drivers/sdio.h **** 			SDIO->ICR = SDIO_STA_CCRCFAIL;
 2395              		.loc 1 353 3 view .LVU817
 2396 005e D207     		lsls	r2, r2, #31
 2397              	.LVL183:
 353:Drivers/sdio.h **** 			SDIO->ICR = SDIO_STA_CCRCFAIL;
 2398              		.loc 1 353 3 is_stmt 0 view .LVU818
 2399 0060 01D5     		bpl	.L187
 354:Drivers/sdio.h **** 			return CRCFail;
 2400              		.loc 1 354 4 is_stmt 1 view .LVU819
 354:Drivers/sdio.h **** 			return CRCFail;
 2401              		.loc 1 354 14 is_stmt 0 view .LVU820
 2402 0062 0121     		movs	r1, #1
 2403 0064 9963     		str	r1, [r3, #56]
 355:Drivers/sdio.h **** 		}
 2404              		.loc 1 355 4 is_stmt 1 view .LVU821
 2405              	.LVL184:
 2406              	.L187:
ARM GAS  /var/folders/84/_x1cyy_j36g486tldtwl37280000gn/T//ccBOLdZ4.s 			page 64


 355:Drivers/sdio.h **** 		}
 2407              		.loc 1 355 4 is_stmt 0 view .LVU822
 2408              	.LBE707:
 2409              	.LBE706:
 2410              	.LBE705:
 2411              	.LBE704:
 273:Drivers/sdio.h **** 			if (sendCommandWait(13, cardInfo.rca << 16) == Success && (SDIO->RESP1 & 0x100) != 0) {
 2412              		.loc 1 273 3 is_stmt 1 view .LVU823
 273:Drivers/sdio.h **** 			if (sendCommandWait(13, cardInfo.rca << 16) == Success && (SDIO->RESP1 & 0x100) != 0) {
 2413              		.loc 1 273 25 view .LVU824
 2414              	.LBB716:
  14:Src/Engine/timeOut.h **** 		return static_cast<uint32_t>((micros.read() - start_) < interval_);
 2415              		.loc 2 14 16 view .LVU825
 2416              	.LBB703:
 2417              		.loc 2 15 3 view .LVU826
 2418              	.LBB702:
  11:Drivers/micros.h **** 		return TIM5->CNT;
 2419              		.loc 3 11 27 view .LVU827
 2420              	.LBB701:
 2421              		.loc 3 12 3 view .LVU828
 2422              		.loc 3 12 16 is_stmt 0 view .LVU829
 2423 0066 164A     		ldr	r2, .L215+12
 2424 0068 536A     		ldr	r3, [r2, #36]
 2425              	.LBE701:
 2426              	.LBE702:
 2427              		.loc 2 15 49 view .LVU830
 2428 006a A168     		ldr	r1, [r4, #8]
 2429              		.loc 2 15 59 view .LVU831
 2430 006c E268     		ldr	r2, [r4, #12]
 2431              		.loc 2 15 47 view .LVU832
 2432 006e 5B1A     		subs	r3, r3, r1
 2433              	.LBE703:
 2434              	.LBE716:
 273:Drivers/sdio.h **** 			if (sendCommandWait(13, cardInfo.rca << 16) == Success && (SDIO->RESP1 & 0x100) != 0) {
 2435              		.loc 1 273 25 view .LVU833
 2436 0070 9342     		cmp	r3, r2
 2437 0072 1CD2     		bcs	.L180
 2438              	.LVL185:
 2439              	.L181:
 274:Drivers/sdio.h **** 				return true;
 2440              		.loc 1 274 4 is_stmt 1 view .LVU834
 2441              	.LBB717:
 2442              	.LBI704:
 313:Drivers/sdio.h **** 		Error result;
 2443              		.loc 1 313 8 view .LVU835
 2444              	.LBB714:
 314:Drivers/sdio.h **** 		sendCommand(cmd, arg);
 2445              		.loc 1 314 3 view .LVU836
 315:Drivers/sdio.h **** 		while ((result = commandResult()) == InProgress);
 2446              		.loc 1 315 3 view .LVU837
 2447              	.LBB710:
 2448              	.LBI710:
 281:Drivers/sdio.h **** 		cmd &= 0x3F;	// SDIO_CMD_CMDINDEX_MASK
 2449              		.loc 1 281 7 view .LVU838
 2450              	.LBB711:
 282:Drivers/sdio.h **** 
 2451              		.loc 1 282 3 view .LVU839
ARM GAS  /var/folders/84/_x1cyy_j36g486tldtwl37280000gn/T//ccBOLdZ4.s 			page 65


 284:Drivers/sdio.h **** 		if (cmd == 0) {
 2452              		.loc 1 284 3 view .LVU840
 285:Drivers/sdio.h **** 			waitresp = SDIO_RESPONSE_NO;
 2453              		.loc 1 285 3 view .LVU841
 287:Drivers/sdio.h **** 			waitresp = SDIO_RESPONSE_LONG;
 2454              		.loc 1 287 10 view .LVU842
 291:Drivers/sdio.h **** 		SDIO->ARG = arg; 								// The arg must be set before the command.
 2455              		.loc 1 291 3 view .LVU843
 291:Drivers/sdio.h **** 		SDIO->ARG = arg; 								// The arg must be set before the command.
 2456              		.loc 1 291 13 is_stmt 0 view .LVU844
 2457 0074 134B     		ldr	r3, .L215+16
 2458 0076 40F2FF71 		movw	r1, #2047
 293:Drivers/sdio.h **** 	}
 2459              		.loc 1 293 13 view .LVU845
 2460 007a 40F24D42 		movw	r2, #1101
 291:Drivers/sdio.h **** 		SDIO->ARG = arg; 								// The arg must be set before the command.
 2461              		.loc 1 291 13 view .LVU846
 2462 007e 9963     		str	r1, [r3, #56]
 292:Drivers/sdio.h **** 		SDIO->CMD = (cmd | SDIO_CMD_CPSMEN | waitresp);	// Set the command and associated bits.
 2463              		.loc 1 292 3 is_stmt 1 view .LVU847
 292:Drivers/sdio.h **** 		SDIO->CMD = (cmd | SDIO_CMD_CPSMEN | waitresp);	// Set the command and associated bits.
 2464              		.loc 1 292 13 is_stmt 0 view .LVU848
 2465 0080 9D60     		str	r5, [r3, #8]
 293:Drivers/sdio.h **** 	}
 2466              		.loc 1 293 3 is_stmt 1 view .LVU849
 293:Drivers/sdio.h **** 	}
 2467              		.loc 1 293 13 is_stmt 0 view .LVU850
 2468 0082 DA60     		str	r2, [r3, #12]
 2469              	.LVL186:
 2470              	.L182:
 293:Drivers/sdio.h **** 	}
 2471              		.loc 1 293 13 view .LVU851
 2472              	.LBE711:
 2473              	.LBE710:
 316:Drivers/sdio.h **** 		return result;
 2474              		.loc 1 316 3 is_stmt 1 view .LVU852
 316:Drivers/sdio.h **** 		return result;
 2475              		.loc 1 316 37 view .LVU853
 2476              	.LBB712:
 2477              	.LBI706:
 331:Drivers/sdio.h **** 		uint32_t status = SDIO->STA & 0xFFF;
 2478              		.loc 1 331 8 view .LVU854
 2479              	.LBB708:
 332:Drivers/sdio.h **** 
 2480              		.loc 1 332 3 view .LVU855
 332:Drivers/sdio.h **** 
 2481              		.loc 1 332 27 is_stmt 0 view .LVU856
 2482 0084 0F4B     		ldr	r3, .L215+16
 2483 0086 5A6B     		ldr	r2, [r3, #52]
 2484              	.LVL187:
 334:Drivers/sdio.h **** 			return InProgress;
 2485              		.loc 1 334 3 is_stmt 1 view .LVU857
 2486 0088 1105     		lsls	r1, r2, #20
 2487 008a FBD4     		bmi	.L182
 338:Drivers/sdio.h **** 			SDIO->ICR = SDIO_STA_CMDREND;
 2488              		.loc 1 338 3 view .LVU858
 2489 008c 5106     		lsls	r1, r2, #25
ARM GAS  /var/folders/84/_x1cyy_j36g486tldtwl37280000gn/T//ccBOLdZ4.s 			page 66


 2490 008e E2D5     		bpl	.L183
 339:Drivers/sdio.h **** 			return Success;
 2491              		.loc 1 339 4 view .LVU859
 339:Drivers/sdio.h **** 			return Success;
 2492              		.loc 1 339 14 is_stmt 0 view .LVU860
 2493 0090 4022     		movs	r2, #64
 2494              	.LVL188:
 339:Drivers/sdio.h **** 			return Success;
 2495              		.loc 1 339 14 view .LVU861
 2496 0092 9A63     		str	r2, [r3, #56]
 340:Drivers/sdio.h **** 		}
 2497              		.loc 1 340 4 is_stmt 1 view .LVU862
 2498              	.LVL189:
 2499              	.L184:
 340:Drivers/sdio.h **** 		}
 2500              		.loc 1 340 4 is_stmt 0 view .LVU863
 2501              	.LBE708:
 2502              	.LBE712:
 317:Drivers/sdio.h **** 	}
 2503              		.loc 1 317 3 is_stmt 1 view .LVU864
 317:Drivers/sdio.h **** 	}
 2504              		.loc 1 317 3 is_stmt 0 view .LVU865
 2505              	.LBE714:
 2506              	.LBE717:
 274:Drivers/sdio.h **** 				return true;
 2507              		.loc 1 274 69 view .LVU866
 2508 0094 0B4B     		ldr	r3, .L215+16
 2509 0096 5969     		ldr	r1, [r3, #20]
 274:Drivers/sdio.h **** 				return true;
 2510              		.loc 1 274 59 view .LVU867
 2511 0098 CB05     		lsls	r3, r1, #23
 2512 009a E4D5     		bpl	.L187
 2513              	.LVL190:
 274:Drivers/sdio.h **** 				return true;
 2514              		.loc 1 274 59 view .LVU868
 2515              	.LBE690:
 2516              	.LBE689:
  53:Drivers/sdio.h **** 		}
 2517              		.loc 1 53 17 view .LVU869
 2518 009c 0125     		movs	r5, #1
 2519 009e 2574     		strb	r5, [r4, #16]
  56:Drivers/sdio.h **** 			initialised_ = init_card();
 2520              		.loc 1 56 3 is_stmt 1 view .LVU870
 2521 00a0 B9E7     		b	.L191
 2522              	.LVL191:
 2523              	.L214:
 2524              	.LBB720:
 2525              	.LBB719:
 2526              	.LBB718:
 2527              	.LBB715:
 2528              	.LBB713:
 2529              	.LBB709:
 349:Drivers/sdio.h **** 			return Timeout;
 2530              		.loc 1 349 4 view .LVU871
 349:Drivers/sdio.h **** 			return Timeout;
 2531              		.loc 1 349 14 is_stmt 0 view .LVU872
 2532 00a2 0422     		movs	r2, #4
ARM GAS  /var/folders/84/_x1cyy_j36g486tldtwl37280000gn/T//ccBOLdZ4.s 			page 67


 2533              	.LVL192:
 349:Drivers/sdio.h **** 			return Timeout;
 2534              		.loc 1 349 14 view .LVU873
 2535 00a4 9A63     		str	r2, [r3, #56]
 350:Drivers/sdio.h **** 		}
 2536              		.loc 1 350 4 is_stmt 1 view .LVU874
 2537              	.LVL193:
 350:Drivers/sdio.h **** 		}
 2538              		.loc 1 350 4 is_stmt 0 view .LVU875
 2539 00a6 DEE7     		b	.L187
 2540              	.LVL194:
 2541              	.L213:
 344:Drivers/sdio.h **** 			return Success;
 2542              		.loc 1 344 4 is_stmt 1 view .LVU876
 344:Drivers/sdio.h **** 			return Success;
 2543              		.loc 1 344 14 is_stmt 0 view .LVU877
 2544 00a8 8021     		movs	r1, #128
 2545 00aa 9963     		str	r1, [r3, #56]
 345:Drivers/sdio.h **** 		}
 2546              		.loc 1 345 4 is_stmt 1 view .LVU878
 2547              	.LVL195:
 345:Drivers/sdio.h **** 		}
 2548              		.loc 1 345 4 is_stmt 0 view .LVU879
 2549 00ac F2E7     		b	.L184
 2550              	.LVL196:
 2551              	.L180:
 345:Drivers/sdio.h **** 		}
 2552              		.loc 1 345 4 view .LVU880
 2553              	.LBE709:
 2554              	.LBE713:
 2555              	.LBE715:
 2556              	.LBE718:
 2557              	.LBE719:
 2558              	.LBE720:
  53:Drivers/sdio.h **** 		}
 2559              		.loc 1 53 17 view .LVU881
 2560 00ae 0020     		movs	r0, #0
 2561 00b0 2074     		strb	r0, [r4, #16]
  56:Drivers/sdio.h **** 			initialised_ = init_card();
 2562              		.loc 1 56 3 is_stmt 1 view .LVU882
 2563 00b2 ACE7     		b	.L189
 2564              	.L216:
 2565              		.align	2
 2566              	.L215:
 2567 00b4 00000000 		.word	sdio
 2568 00b8 00000240 		.word	1073872896
 2569 00bc 40420F00 		.word	1000000
 2570 00c0 000C0040 		.word	1073744896
 2571 00c4 002C0140 		.word	1073818624
 2572              	.LBE722:
 2573              	.LBE724:
 2574              		.cfi_endproc
 2575              	.LFE2002:
 2577              		.section	.text.disk_status,"ax",%progbits
 2578              		.align	1
 2579              		.p2align 2,,3
 2580              		.global	disk_status
ARM GAS  /var/folders/84/_x1cyy_j36g486tldtwl37280000gn/T//ccBOLdZ4.s 			page 68


 2581              		.syntax unified
 2582              		.thumb
 2583              		.thumb_func
 2584              		.fpu fpv4-sp-d16
 2586              	disk_status:
 2587              	.LFB2471:
 2588              		.cfi_startproc
 2589              		@ args = 0, pretend = 0, frame = 0
 2590              		@ frame_needed = 0, uses_anonymous_args = 0
 2591              		@ link register save eliminated.
 2592 0000 FFF7FEBF 		b	disk_initialize
 2593              		.cfi_endproc
 2594              	.LFE2471:
 2596              		.section	.text.disk_read,"ax",%progbits
 2597              		.align	1
 2598              		.p2align 2,,3
 2599              		.global	disk_read
 2600              		.syntax unified
 2601              		.thumb
 2602              		.thumb_func
 2603              		.fpu fpv4-sp-d16
 2605              	disk_read:
 2606              	.LVL197:
 2607              	.LFB2003:
  46:Src/Disk/diskio.cpp **** 
  47:Src/Disk/diskio.cpp **** 
  48:Src/Disk/diskio.cpp **** /*-----------------------------------------------------------------------*/
  49:Src/Disk/diskio.cpp **** /* Read Sector(s)                                                        */
  50:Src/Disk/diskio.cpp **** /*-----------------------------------------------------------------------*/
  51:Src/Disk/diskio.cpp **** 
  52:Src/Disk/diskio.cpp **** DRESULT disk_read (
  53:Src/Disk/diskio.cpp **** BYTE pdrv,		/* Physical drive nmuber to identify the drive */
  54:Src/Disk/diskio.cpp **** BYTE *buff,		/* Data buffer to store read data */
  55:Src/Disk/diskio.cpp **** LBA_t sector,	/* Start sector in LBA */
  56:Src/Disk/diskio.cpp **** UINT count		/* Number of sectors to read */
  57:Src/Disk/diskio.cpp **** )
  58:Src/Disk/diskio.cpp **** {
 2608              		.loc 4 58 1 view -0
 2609              		.cfi_startproc
 2610              		@ args = 0, pretend = 0, frame = 8
 2611              		@ frame_needed = 0, uses_anonymous_args = 0
  59:Src/Disk/diskio.cpp **** 
  60:Src/Disk/diskio.cpp **** 	if (pdrv >= 1) {
 2612              		.loc 4 60 2 view .LVU884
 2613 0000 0028     		cmp	r0, #0
 2614 0002 40F0D180 		bne	.L278
 2615              	.LVL198:
 2616              	.LBB775:
 2617              	.LBB776:
 2618              	.LBB777:
  66:Drivers/sdio.h **** 			if (!readBlocks(sector + i, data)) {
 2619              		.loc 1 66 26 view .LVU885
 2620 0006 13F0FF03 		ands	r3, r3, #255
 2621              	.LVL199:
  66:Drivers/sdio.h **** 			if (!readBlocks(sector + i, data)) {
 2622              		.loc 1 66 26 is_stmt 0 view .LVU886
 2623 000a 00F0CF80 		beq	.L282
ARM GAS  /var/folders/84/_x1cyy_j36g486tldtwl37280000gn/T//ccBOLdZ4.s 			page 69


 2624              	.LBE777:
 2625              	.LBE776:
 2626              	.LBE775:
  58:Src/Disk/diskio.cpp **** 
 2627              		.loc 4 58 1 view .LVU887
 2628 000e 2DE9F043 		push	{r4, r5, r6, r7, r8, r9, lr}
 2629              		.cfi_def_cfa_offset 28
 2630              		.cfi_offset 4, -28
 2631              		.cfi_offset 5, -24
 2632              		.cfi_offset 6, -20
 2633              		.cfi_offset 7, -16
 2634              		.cfi_offset 8, -12
 2635              		.cfi_offset 9, -8
 2636              		.cfi_offset 14, -4
 2637 0012 674C     		ldr	r4, .L292
 2638 0014 83B0     		sub	sp, sp, #12
 2639              		.cfi_def_cfa_offset 40
 2640 0016 1546     		mov	r5, r2
 2641 0018 D718     		adds	r7, r2, r3
 2642 001a A1EB4226 		sub	r6, r1, r2, lsl #9
 2643              	.LVL200:
 2644              	.L245:
 2645              	.LBB880:
 2646              	.LBB875:
 2647              	.LBB870:
  67:Drivers/sdio.h **** 				return false;
 2648              		.loc 1 67 4 is_stmt 1 view .LVU888
 2649              	.LBB778:
 2650              	.LBI778:
 359:Drivers/sdio.h **** 	}
 360:Drivers/sdio.h **** 
 361:Drivers/sdio.h **** 	bool readBlocks(uint32_t address, void* buffer, uint16_t count = 1) {
 2651              		.loc 1 361 7 view .LVU889
 2652              	.LBB779:
 362:Drivers/sdio.h **** 		if (!waitDataReady()) {
 2653              		.loc 1 362 3 view .LVU890
 2654              	.LBB780:
 2655              	.LBI780:
 271:Drivers/sdio.h **** 		time_out.start(1000);
 2656              		.loc 1 271 7 view .LVU891
 2657              	.LBB781:
 272:Drivers/sdio.h **** 		while (time_out.status()) {
 2658              		.loc 1 272 3 view .LVU892
 2659              	.LBB782:
 2660              	.LBI782:
   9:Src/Engine/timeOut.h **** 		interval_ = ms * 1000;
 2661              		.loc 2 9 7 view .LVU893
 2662              	.LBB783:
  10:Src/Engine/timeOut.h **** 		start_ = micros.read();
 2663              		.loc 2 10 3 view .LVU894
 2664              	.LBB784:
 2665              	.LBB785:
 2666              		.loc 3 12 16 is_stmt 0 view .LVU895
 2667 001e 6548     		ldr	r0, .L292+4
 2668              	.LBE785:
 2669              	.LBE784:
  10:Src/Engine/timeOut.h **** 		start_ = micros.read();
ARM GAS  /var/folders/84/_x1cyy_j36g486tldtwl37280000gn/T//ccBOLdZ4.s 			page 70


 2670              		.loc 2 10 13 view .LVU896
 2671 0020 654A     		ldr	r2, .L292+8
 2672 0022 E260     		str	r2, [r4, #12]
  11:Src/Engine/timeOut.h **** 	}
 2673              		.loc 2 11 3 is_stmt 1 view .LVU897
 2674              	.LBB787:
 2675              	.LBI784:
  11:Drivers/micros.h **** 		return TIM5->CNT;
 2676              		.loc 3 11 27 view .LVU898
 2677              	.LVL201:
 2678              	.LBB786:
 2679              		.loc 3 12 3 view .LVU899
 2680              		.loc 3 12 16 is_stmt 0 view .LVU900
 2681 0024 416A     		ldr	r1, [r0, #36]
 2682              	.LBE786:
 2683              	.LBE787:
  11:Src/Engine/timeOut.h **** 	}
 2684              		.loc 2 11 10 view .LVU901
 2685 0026 A160     		str	r1, [r4, #8]
 2686              	.LVL202:
  11:Src/Engine/timeOut.h **** 	}
 2687              		.loc 2 11 10 view .LVU902
 2688              	.LBE783:
 2689              	.LBE782:
 273:Drivers/sdio.h **** 			if (sendCommandWait(13, cardInfo.rca << 16) == Success && (SDIO->RESP1 & 0x100) != 0) {
 2690              		.loc 1 273 3 is_stmt 1 view .LVU903
 273:Drivers/sdio.h **** 			if (sendCommandWait(13, cardInfo.rca << 16) == Success && (SDIO->RESP1 & 0x100) != 0) {
 2691              		.loc 1 273 25 view .LVU904
 2692              	.LBB788:
 2693              	.LBI788:
  14:Src/Engine/timeOut.h **** 		return static_cast<uint32_t>((micros.read() - start_) < interval_);
 2694              		.loc 2 14 16 view .LVU905
 2695              	.LBB789:
 2696              		.loc 2 15 3 view .LVU906
 2697              	.LBB790:
 2698              	.LBI790:
  11:Drivers/micros.h **** 		return TIM5->CNT;
 2699              		.loc 3 11 27 view .LVU907
 2700              	.LBB791:
 2701              		.loc 3 12 3 view .LVU908
 2702              		.loc 3 12 16 is_stmt 0 view .LVU909
 2703 0028 436A     		ldr	r3, [r0, #36]
 2704              	.LBE791:
 2705              	.LBE790:
 2706              		.loc 2 15 49 view .LVU910
 2707 002a A068     		ldr	r0, [r4, #8]
 2708              		.loc 2 15 59 view .LVU911
 2709 002c E268     		ldr	r2, [r4, #12]
 2710              		.loc 2 15 47 view .LVU912
 2711 002e 191A     		subs	r1, r3, r0
 2712              	.LBE789:
 2713              	.LBE788:
 273:Drivers/sdio.h **** 			if (sendCommandWait(13, cardInfo.rca << 16) == Success && (SDIO->RESP1 & 0x100) != 0) {
 2714              		.loc 1 273 25 view .LVU913
 2715 0030 8A42     		cmp	r2, r1
 2716 0032 7AD9     		bls	.L219
 274:Drivers/sdio.h **** 				return true;
ARM GAS  /var/folders/84/_x1cyy_j36g486tldtwl37280000gn/T//ccBOLdZ4.s 			page 71


 2717              		.loc 1 274 37 view .LVU914
 2718 0034 2388     		ldrh	r3, [r4]
 274:Drivers/sdio.h **** 				return true;
 2719              		.loc 1 274 41 view .LVU915
 2720 0036 1A04     		lsls	r2, r3, #16
 2721 0038 0FE0     		b	.L222
 2722              	.LVL203:
 2723              	.L224:
 2724              	.LBB795:
 2725              	.LBB796:
 2726              	.LBB797:
 2727              	.LBB798:
 343:Drivers/sdio.h **** 			SDIO->ICR = SDIO_STA_CMDSENT;
 2728              		.loc 1 343 3 is_stmt 1 view .LVU916
 2729 003a 0806     		lsls	r0, r1, #24
 2730 003c 00F18280 		bmi	.L283
 348:Drivers/sdio.h **** 			SDIO->ICR = SDIO_STA_CTIMEOUT;
 2731              		.loc 1 348 3 view .LVU917
 2732 0040 4807     		lsls	r0, r1, #29
 2733 0042 7CD4     		bmi	.L284
 353:Drivers/sdio.h **** 			SDIO->ICR = SDIO_STA_CCRCFAIL;
 2734              		.loc 1 353 3 view .LVU918
 2735 0044 C907     		lsls	r1, r1, #31
 2736              	.LVL204:
 353:Drivers/sdio.h **** 			SDIO->ICR = SDIO_STA_CCRCFAIL;
 2737              		.loc 1 353 3 is_stmt 0 view .LVU919
 2738 0046 01D5     		bpl	.L228
 354:Drivers/sdio.h **** 			return CRCFail;
 2739              		.loc 1 354 4 is_stmt 1 view .LVU920
 354:Drivers/sdio.h **** 			return CRCFail;
 2740              		.loc 1 354 14 is_stmt 0 view .LVU921
 2741 0048 0120     		movs	r0, #1
 2742 004a 9863     		str	r0, [r3, #56]
 355:Drivers/sdio.h **** 		}
 2743              		.loc 1 355 4 is_stmt 1 view .LVU922
 2744              	.LVL205:
 2745              	.L228:
 355:Drivers/sdio.h **** 		}
 2746              		.loc 1 355 4 is_stmt 0 view .LVU923
 2747              	.LBE798:
 2748              	.LBE797:
 2749              	.LBE796:
 2750              	.LBE795:
 273:Drivers/sdio.h **** 			if (sendCommandWait(13, cardInfo.rca << 16) == Success && (SDIO->RESP1 & 0x100) != 0) {
 2751              		.loc 1 273 3 is_stmt 1 view .LVU924
 273:Drivers/sdio.h **** 			if (sendCommandWait(13, cardInfo.rca << 16) == Success && (SDIO->RESP1 & 0x100) != 0) {
 2752              		.loc 1 273 25 view .LVU925
 2753              	.LBB807:
  14:Src/Engine/timeOut.h **** 		return static_cast<uint32_t>((micros.read() - start_) < interval_);
 2754              		.loc 2 14 16 view .LVU926
 2755              	.LBB794:
 2756              		.loc 2 15 3 view .LVU927
 2757              	.LBB793:
  11:Drivers/micros.h **** 		return TIM5->CNT;
 2758              		.loc 3 11 27 view .LVU928
 2759              	.LBB792:
 2760              		.loc 3 12 3 view .LVU929
ARM GAS  /var/folders/84/_x1cyy_j36g486tldtwl37280000gn/T//ccBOLdZ4.s 			page 72


 2761              		.loc 3 12 16 is_stmt 0 view .LVU930
 2762 004c 5949     		ldr	r1, .L292+4
 2763 004e 4B6A     		ldr	r3, [r1, #36]
 2764              	.LBE792:
 2765              	.LBE793:
 2766              		.loc 2 15 49 view .LVU931
 2767 0050 A068     		ldr	r0, [r4, #8]
 2768              		.loc 2 15 59 view .LVU932
 2769 0052 E168     		ldr	r1, [r4, #12]
 2770              		.loc 2 15 47 view .LVU933
 2771 0054 1B1A     		subs	r3, r3, r0
 2772              	.LBE794:
 2773              	.LBE807:
 273:Drivers/sdio.h **** 			if (sendCommandWait(13, cardInfo.rca << 16) == Success && (SDIO->RESP1 & 0x100) != 0) {
 2774              		.loc 1 273 25 view .LVU934
 2775 0056 8B42     		cmp	r3, r1
 2776 0058 67D2     		bcs	.L219
 2777              	.LVL206:
 2778              	.L222:
 274:Drivers/sdio.h **** 				return true;
 2779              		.loc 1 274 4 is_stmt 1 view .LVU935
 2780              	.LBB808:
 2781              	.LBI795:
 313:Drivers/sdio.h **** 		Error result;
 2782              		.loc 1 313 8 view .LVU936
 2783              	.LBB805:
 314:Drivers/sdio.h **** 		sendCommand(cmd, arg);
 2784              		.loc 1 314 3 view .LVU937
 315:Drivers/sdio.h **** 		while ((result = commandResult()) == InProgress);
 2785              		.loc 1 315 3 view .LVU938
 2786              	.LBB801:
 2787              	.LBI801:
 281:Drivers/sdio.h **** 		cmd &= 0x3F;	// SDIO_CMD_CMDINDEX_MASK
 2788              		.loc 1 281 7 view .LVU939
 2789              	.LBB802:
 282:Drivers/sdio.h **** 
 2790              		.loc 1 282 3 view .LVU940
 284:Drivers/sdio.h **** 		if (cmd == 0) {
 2791              		.loc 1 284 3 view .LVU941
 285:Drivers/sdio.h **** 			waitresp = SDIO_RESPONSE_NO;
 2792              		.loc 1 285 3 view .LVU942
 287:Drivers/sdio.h **** 			waitresp = SDIO_RESPONSE_LONG;
 2793              		.loc 1 287 10 view .LVU943
 291:Drivers/sdio.h **** 		SDIO->ARG = arg; 								// The arg must be set before the command.
 2794              		.loc 1 291 3 view .LVU944
 291:Drivers/sdio.h **** 		SDIO->ARG = arg; 								// The arg must be set before the command.
 2795              		.loc 1 291 13 is_stmt 0 view .LVU945
 2796 005a 584B     		ldr	r3, .L292+12
 2797 005c 40F2FF70 		movw	r0, #2047
 293:Drivers/sdio.h **** 	}
 2798              		.loc 1 293 13 view .LVU946
 2799 0060 40F24D41 		movw	r1, #1101
 291:Drivers/sdio.h **** 		SDIO->ARG = arg; 								// The arg must be set before the command.
 2800              		.loc 1 291 13 view .LVU947
 2801 0064 9863     		str	r0, [r3, #56]
 292:Drivers/sdio.h **** 		SDIO->CMD = (cmd | SDIO_CMD_CPSMEN | waitresp);	// Set the command and associated bits.
 2802              		.loc 1 292 3 is_stmt 1 view .LVU948
ARM GAS  /var/folders/84/_x1cyy_j36g486tldtwl37280000gn/T//ccBOLdZ4.s 			page 73


 292:Drivers/sdio.h **** 		SDIO->CMD = (cmd | SDIO_CMD_CPSMEN | waitresp);	// Set the command and associated bits.
 2803              		.loc 1 292 13 is_stmt 0 view .LVU949
 2804 0066 9A60     		str	r2, [r3, #8]
 293:Drivers/sdio.h **** 	}
 2805              		.loc 1 293 3 is_stmt 1 view .LVU950
 293:Drivers/sdio.h **** 	}
 2806              		.loc 1 293 13 is_stmt 0 view .LVU951
 2807 0068 D960     		str	r1, [r3, #12]
 2808              	.LVL207:
 2809              	.L223:
 293:Drivers/sdio.h **** 	}
 2810              		.loc 1 293 13 view .LVU952
 2811              	.LBE802:
 2812              	.LBE801:
 316:Drivers/sdio.h **** 		return result;
 2813              		.loc 1 316 3 is_stmt 1 view .LVU953
 316:Drivers/sdio.h **** 		return result;
 2814              		.loc 1 316 37 view .LVU954
 2815              	.LBB803:
 2816              	.LBI797:
 331:Drivers/sdio.h **** 		uint32_t status = SDIO->STA & 0xFFF;
 2817              		.loc 1 331 8 view .LVU955
 2818              	.LBB799:
 332:Drivers/sdio.h **** 
 2819              		.loc 1 332 3 view .LVU956
 332:Drivers/sdio.h **** 
 2820              		.loc 1 332 27 is_stmt 0 view .LVU957
 2821 006a 544B     		ldr	r3, .L292+12
 2822 006c 596B     		ldr	r1, [r3, #52]
 2823              	.LVL208:
 334:Drivers/sdio.h **** 			return InProgress;
 2824              		.loc 1 334 3 is_stmt 1 view .LVU958
 2825 006e 0805     		lsls	r0, r1, #20
 2826 0070 FBD4     		bmi	.L223
 338:Drivers/sdio.h **** 			SDIO->ICR = SDIO_STA_CMDREND;
 2827              		.loc 1 338 3 view .LVU959
 2828 0072 4806     		lsls	r0, r1, #25
 2829 0074 E1D5     		bpl	.L224
 339:Drivers/sdio.h **** 			return Success;
 2830              		.loc 1 339 4 view .LVU960
 339:Drivers/sdio.h **** 			return Success;
 2831              		.loc 1 339 14 is_stmt 0 view .LVU961
 2832 0076 4021     		movs	r1, #64
 2833              	.LVL209:
 339:Drivers/sdio.h **** 			return Success;
 2834              		.loc 1 339 14 view .LVU962
 2835 0078 9963     		str	r1, [r3, #56]
 340:Drivers/sdio.h **** 		}
 2836              		.loc 1 340 4 is_stmt 1 view .LVU963
 2837              	.LVL210:
 2838              	.L225:
 340:Drivers/sdio.h **** 		}
 2839              		.loc 1 340 4 is_stmt 0 view .LVU964
 2840              	.LBE799:
 2841              	.LBE803:
 317:Drivers/sdio.h **** 	}
 2842              		.loc 1 317 3 is_stmt 1 view .LVU965
ARM GAS  /var/folders/84/_x1cyy_j36g486tldtwl37280000gn/T//ccBOLdZ4.s 			page 74


 317:Drivers/sdio.h **** 	}
 2843              		.loc 1 317 3 is_stmt 0 view .LVU966
 2844              	.LBE805:
 2845              	.LBE808:
 274:Drivers/sdio.h **** 				return true;
 2846              		.loc 1 274 69 view .LVU967
 2847 007a 504B     		ldr	r3, .L292+12
 2848 007c 5869     		ldr	r0, [r3, #20]
 274:Drivers/sdio.h **** 				return true;
 2849              		.loc 1 274 59 view .LVU968
 2850 007e C305     		lsls	r3, r0, #23
 2851 0080 E4D5     		bpl	.L228
 2852              	.LVL211:
 274:Drivers/sdio.h **** 				return true;
 2853              		.loc 1 274 59 view .LVU969
 2854              	.LBE781:
 2855              	.LBE780:
 363:Drivers/sdio.h **** 			return false;
 364:Drivers/sdio.h **** 		}
 365:Drivers/sdio.h **** 
 366:Drivers/sdio.h **** 		if (!cardInfo.ccs) {
 2856              		.loc 1 366 3 is_stmt 1 view .LVU970
 2857 0082 A278     		ldrb	r2, [r4, #2]	@ zero_extendqisi2
 2858 0084 002A     		cmp	r2, #0
 2859 0086 40F08C80 		bne	.L285
 367:Drivers/sdio.h **** 			address *= 512;
 2860              		.loc 1 367 4 view .LVU971
 2861 008a 6902     		lsls	r1, r5, #9
 2862 008c 8946     		mov	r9, r1
 2863              	.LVL212:
 368:Drivers/sdio.h **** 			if (sendCommandRetry(16, 512) != Success) {
 2864              		.loc 1 368 4 view .LVU972
 2865              	.LBB811:
 2866              	.LBI811:
 320:Drivers/sdio.h **** 		Error result = Unknown;
 2867              		.loc 1 320 8 view .LVU973
 2868              	.LBB812:
 2869              	.LBB813:
 322:Drivers/sdio.h **** 			result = sendCommandWait(cmd, arg);
 2870              		.loc 1 322 21 view .LVU974
 2871              	.LBE813:
 2872              	.LBE812:
 2873              	.LBE811:
 366:Drivers/sdio.h **** 			address *= 512;
 2874              		.loc 1 366 3 is_stmt 0 view .LVU975
 2875 008e 0522     		movs	r2, #5
 2876 0090 0BE0     		b	.L246
 2877              	.LVL213:
 2878              	.L231:
 2879              	.LBB832:
 2880              	.LBB830:
 2881              	.LBB828:
 2882              	.LBB814:
 2883              	.LBB815:
 2884              	.LBB816:
 2885              	.LBB817:
 343:Drivers/sdio.h **** 			SDIO->ICR = SDIO_STA_CMDSENT;
ARM GAS  /var/folders/84/_x1cyy_j36g486tldtwl37280000gn/T//ccBOLdZ4.s 			page 75


 2886              		.loc 1 343 3 is_stmt 1 view .LVU976
 2887 0092 10F0800F 		tst	r0, #128
 2888 0096 4CD1     		bne	.L286
 348:Drivers/sdio.h **** 			SDIO->ICR = SDIO_STA_CTIMEOUT;
 2889              		.loc 1 348 3 view .LVU977
 2890 0098 10F0040F 		tst	r0, #4
 2891 009c 4CD1     		bne	.L287
 353:Drivers/sdio.h **** 			SDIO->ICR = SDIO_STA_CCRCFAIL;
 2892              		.loc 1 353 3 view .LVU978
 2893 009e C007     		lsls	r0, r0, #31
 2894              	.LVL214:
 353:Drivers/sdio.h **** 			SDIO->ICR = SDIO_STA_CCRCFAIL;
 2895              		.loc 1 353 3 is_stmt 0 view .LVU979
 2896 00a0 01D5     		bpl	.L235
 354:Drivers/sdio.h **** 			return CRCFail;
 2897              		.loc 1 354 4 is_stmt 1 view .LVU980
 354:Drivers/sdio.h **** 			return CRCFail;
 2898              		.loc 1 354 14 is_stmt 0 view .LVU981
 2899 00a2 0120     		movs	r0, #1
 2900 00a4 9863     		str	r0, [r3, #56]
 355:Drivers/sdio.h **** 		}
 2901              		.loc 1 355 4 is_stmt 1 view .LVU982
 2902              	.LVL215:
 2903              	.L235:
 355:Drivers/sdio.h **** 		}
 2904              		.loc 1 355 4 is_stmt 0 view .LVU983
 2905              	.LBE817:
 2906              	.LBE816:
 317:Drivers/sdio.h **** 	}
 2907              		.loc 1 317 3 is_stmt 1 view .LVU984
 317:Drivers/sdio.h **** 	}
 2908              		.loc 1 317 3 is_stmt 0 view .LVU985
 2909              	.LBE815:
 2910              	.LBE814:
 324:Drivers/sdio.h **** 				break;
 2911              		.loc 1 324 4 is_stmt 1 view .LVU986
 322:Drivers/sdio.h **** 			result = sendCommandWait(cmd, arg);
 2912              		.loc 1 322 3 view .LVU987
 322:Drivers/sdio.h **** 			result = sendCommandWait(cmd, arg);
 2913              		.loc 1 322 21 view .LVU988
 2914 00a6 013A     		subs	r2, r2, #1
 2915              	.LVL216:
 322:Drivers/sdio.h **** 			result = sendCommandWait(cmd, arg);
 2916              		.loc 1 322 21 is_stmt 0 view .LVU989
 2917 00a8 3FD0     		beq	.L219
 2918              	.LVL217:
 2919              	.L246:
 323:Drivers/sdio.h **** 			if (result == Success) {
 2920              		.loc 1 323 4 is_stmt 1 view .LVU990
 2921              	.LBB826:
 2922              	.LBI814:
 313:Drivers/sdio.h **** 		Error result;
 2923              		.loc 1 313 8 view .LVU991
 2924              	.LBB824:
 314:Drivers/sdio.h **** 		sendCommand(cmd, arg);
 2925              		.loc 1 314 3 view .LVU992
 315:Drivers/sdio.h **** 		while ((result = commandResult()) == InProgress);
ARM GAS  /var/folders/84/_x1cyy_j36g486tldtwl37280000gn/T//ccBOLdZ4.s 			page 76


 2926              		.loc 1 315 3 view .LVU993
 2927              	.LBB820:
 2928              	.LBI820:
 281:Drivers/sdio.h **** 		cmd &= 0x3F;	// SDIO_CMD_CMDINDEX_MASK
 2929              		.loc 1 281 7 view .LVU994
 2930              	.LBB821:
 282:Drivers/sdio.h **** 
 2931              		.loc 1 282 3 view .LVU995
 284:Drivers/sdio.h **** 		if (cmd == 0) {
 2932              		.loc 1 284 3 view .LVU996
 285:Drivers/sdio.h **** 			waitresp = SDIO_RESPONSE_NO;
 2933              		.loc 1 285 3 view .LVU997
 287:Drivers/sdio.h **** 			waitresp = SDIO_RESPONSE_LONG;
 2934              		.loc 1 287 10 view .LVU998
 291:Drivers/sdio.h **** 		SDIO->ARG = arg; 								// The arg must be set before the command.
 2935              		.loc 1 291 3 view .LVU999
 291:Drivers/sdio.h **** 		SDIO->ARG = arg; 								// The arg must be set before the command.
 2936              		.loc 1 291 13 is_stmt 0 view .LVU1000
 2937 00aa 444B     		ldr	r3, .L292+12
 2938 00ac 40F2FF7E 		movw	lr, #2047
 292:Drivers/sdio.h **** 		SDIO->CMD = (cmd | SDIO_CMD_CPSMEN | waitresp);	// Set the command and associated bits.
 2939              		.loc 1 292 13 view .LVU1001
 2940 00b0 4FF4007C 		mov	ip, #512
 293:Drivers/sdio.h **** 	}
 2941              		.loc 1 293 13 view .LVU1002
 2942 00b4 4FF48A60 		mov	r0, #1104
 291:Drivers/sdio.h **** 		SDIO->ARG = arg; 								// The arg must be set before the command.
 2943              		.loc 1 291 13 view .LVU1003
 2944 00b8 C3F838E0 		str	lr, [r3, #56]
 292:Drivers/sdio.h **** 		SDIO->CMD = (cmd | SDIO_CMD_CPSMEN | waitresp);	// Set the command and associated bits.
 2945              		.loc 1 292 3 is_stmt 1 view .LVU1004
 292:Drivers/sdio.h **** 		SDIO->CMD = (cmd | SDIO_CMD_CPSMEN | waitresp);	// Set the command and associated bits.
 2946              		.loc 1 292 13 is_stmt 0 view .LVU1005
 2947 00bc C3F808C0 		str	ip, [r3, #8]
 293:Drivers/sdio.h **** 	}
 2948              		.loc 1 293 3 is_stmt 1 view .LVU1006
 293:Drivers/sdio.h **** 	}
 2949              		.loc 1 293 13 is_stmt 0 view .LVU1007
 2950 00c0 D860     		str	r0, [r3, #12]
 2951              	.LVL218:
 2952              	.L230:
 293:Drivers/sdio.h **** 	}
 2953              		.loc 1 293 13 view .LVU1008
 2954              	.LBE821:
 2955              	.LBE820:
 316:Drivers/sdio.h **** 		return result;
 2956              		.loc 1 316 3 is_stmt 1 view .LVU1009
 316:Drivers/sdio.h **** 		return result;
 2957              		.loc 1 316 37 view .LVU1010
 2958              	.LBB822:
 2959              	.LBI816:
 331:Drivers/sdio.h **** 		uint32_t status = SDIO->STA & 0xFFF;
 2960              		.loc 1 331 8 view .LVU1011
 2961              	.LBB818:
 332:Drivers/sdio.h **** 
 2962              		.loc 1 332 3 view .LVU1012
 332:Drivers/sdio.h **** 
ARM GAS  /var/folders/84/_x1cyy_j36g486tldtwl37280000gn/T//ccBOLdZ4.s 			page 77


 2963              		.loc 1 332 27 is_stmt 0 view .LVU1013
 2964 00c2 3E4B     		ldr	r3, .L292+12
 2965 00c4 586B     		ldr	r0, [r3, #52]
 2966              	.LVL219:
 334:Drivers/sdio.h **** 			return InProgress;
 2967              		.loc 1 334 3 is_stmt 1 view .LVU1014
 2968 00c6 10F4006F 		tst	r0, #2048
 2969 00ca FAD1     		bne	.L230
 338:Drivers/sdio.h **** 			SDIO->ICR = SDIO_STA_CMDREND;
 2970              		.loc 1 338 3 view .LVU1015
 2971 00cc 10F0400F 		tst	r0, #64
 2972 00d0 DFD0     		beq	.L231
 339:Drivers/sdio.h **** 			return Success;
 2973              		.loc 1 339 4 view .LVU1016
 339:Drivers/sdio.h **** 			return Success;
 2974              		.loc 1 339 14 is_stmt 0 view .LVU1017
 2975 00d2 4022     		movs	r2, #64
 2976              	.LVL220:
 339:Drivers/sdio.h **** 			return Success;
 2977              		.loc 1 339 14 view .LVU1018
 2978 00d4 9A63     		str	r2, [r3, #56]
 340:Drivers/sdio.h **** 		}
 2979              		.loc 1 340 4 is_stmt 1 view .LVU1019
 2980              	.LVL221:
 2981              	.L232:
 340:Drivers/sdio.h **** 		}
 2982              		.loc 1 340 4 is_stmt 0 view .LVU1020
 2983              	.LBE818:
 2984              	.LBE822:
 2985              	.LBE824:
 2986              	.LBE826:
 2987              	.LBE828:
 2988              	.LBE830:
 2989              	.LBE832:
 369:Drivers/sdio.h **** 				return false;
 370:Drivers/sdio.h **** 			}
 371:Drivers/sdio.h **** 		}
 372:Drivers/sdio.h **** 
 373:Drivers/sdio.h **** 		SDIO->DCTRL = 0;
 2990              		.loc 1 373 3 is_stmt 1 view .LVU1021
 2991              		.loc 1 373 15 is_stmt 0 view .LVU1022
 2992 00d6 DFF8E480 		ldr	r8, .L292+12
 374:Drivers/sdio.h **** 
 375:Drivers/sdio.h **** 		init_dma((uint32_t)buffer, SD_TO_MEM);
 2993              		.loc 1 375 11 view .LVU1023
 2994 00da 3548     		ldr	r0, .L292
 373:Drivers/sdio.h **** 
 2995              		.loc 1 373 15 view .LVU1024
 2996 00dc 0023     		movs	r3, #0
 2997              		.loc 1 375 11 view .LVU1025
 2998 00de 3144     		add	r1, r1, r6
 373:Drivers/sdio.h **** 
 2999              		.loc 1 373 15 view .LVU1026
 3000 00e0 C8F82C30 		str	r3, [r8, #44]
 3001              		.loc 1 375 3 is_stmt 1 view .LVU1027
 3002              		.loc 1 375 11 is_stmt 0 view .LVU1028
 3003 00e4 0122     		movs	r2, #1
ARM GAS  /var/folders/84/_x1cyy_j36g486tldtwl37280000gn/T//ccBOLdZ4.s 			page 78


 3004 00e6 FFF7FEFF 		bl	_ZN4Sdio8init_dmaEmNS_7DmaTypeE
 3005              	.LVL222:
 376:Drivers/sdio.h **** 
 377:Drivers/sdio.h **** 		SDIO->DTIMER = 2400000;		//100ms (on 24Mhz bus clock)
 3006              		.loc 1 377 3 is_stmt 1 view .LVU1029
 3007              		.loc 1 377 16 is_stmt 0 view .LVU1030
 3008 00ea 3549     		ldr	r1, .L292+16
 3009 00ec C8F82410 		str	r1, [r8, #36]
 378:Drivers/sdio.h **** 		SDIO->DLEN = 512 * count;
 3010              		.loc 1 378 3 is_stmt 1 view .LVU1031
 3011              		.loc 1 378 14 is_stmt 0 view .LVU1032
 3012 00f0 4FF40070 		mov	r0, #512
 379:Drivers/sdio.h **** 		SDIO->DCTRL = (9 << 4) | SDIO_DCTRL_DTDIR | SDIO_DCTRL_DTEN | SDIO_DCTRL_DMAEN;
 3013              		.loc 1 379 15 view .LVU1033
 3014 00f4 9B21     		movs	r1, #155
 3015              	.LBB833:
 3016              	.LBB834:
 3017              	.LBB835:
 3018              	.LBB836:
 291:Drivers/sdio.h **** 		SDIO->ARG = arg; 								// The arg must be set before the command.
 3019              		.loc 1 291 13 view .LVU1034
 3020 00f6 40F2FF72 		movw	r2, #2047
 293:Drivers/sdio.h **** 	}
 3021              		.loc 1 293 13 view .LVU1035
 3022 00fa 40F25143 		movw	r3, #1105
 3023              	.LBE836:
 3024              	.LBE835:
 3025              	.LBE834:
 3026              	.LBE833:
 378:Drivers/sdio.h **** 		SDIO->DCTRL = (9 << 4) | SDIO_DCTRL_DTDIR | SDIO_DCTRL_DTEN | SDIO_DCTRL_DMAEN;
 3027              		.loc 1 378 14 view .LVU1036
 3028 00fe C8F82800 		str	r0, [r8, #40]
 3029              		.loc 1 379 3 is_stmt 1 view .LVU1037
 3030              		.loc 1 379 15 is_stmt 0 view .LVU1038
 3031 0102 C8F82C10 		str	r1, [r8, #44]
 380:Drivers/sdio.h **** 
 381:Drivers/sdio.h **** 		uint32_t cmd = count > 1 ? 18 : 17;
 3032              		.loc 1 381 3 is_stmt 1 view .LVU1039
 3033              	.LVL223:
 382:Drivers/sdio.h **** 		if (sendCommandWait(cmd, address) != Success) {
 3034              		.loc 1 382 3 view .LVU1040
 3035              	.LBB853:
 3036              	.LBI833:
 313:Drivers/sdio.h **** 		Error result;
 3037              		.loc 1 313 8 view .LVU1041
 3038              	.LBB849:
 314:Drivers/sdio.h **** 		sendCommand(cmd, arg);
 3039              		.loc 1 314 3 view .LVU1042
 315:Drivers/sdio.h **** 		while ((result = commandResult()) == InProgress);
 3040              		.loc 1 315 3 view .LVU1043
 3041              	.LBB838:
 3042              	.LBI835:
 281:Drivers/sdio.h **** 		cmd &= 0x3F;	// SDIO_CMD_CMDINDEX_MASK
 3043              		.loc 1 281 7 view .LVU1044
 3044              	.LBB837:
 282:Drivers/sdio.h **** 
 3045              		.loc 1 282 3 view .LVU1045
ARM GAS  /var/folders/84/_x1cyy_j36g486tldtwl37280000gn/T//ccBOLdZ4.s 			page 79


 284:Drivers/sdio.h **** 		if (cmd == 0) {
 3046              		.loc 1 284 3 view .LVU1046
 285:Drivers/sdio.h **** 			waitresp = SDIO_RESPONSE_NO;
 3047              		.loc 1 285 3 view .LVU1047
 287:Drivers/sdio.h **** 			waitresp = SDIO_RESPONSE_LONG;
 3048              		.loc 1 287 10 view .LVU1048
 291:Drivers/sdio.h **** 		SDIO->ARG = arg; 								// The arg must be set before the command.
 3049              		.loc 1 291 3 view .LVU1049
 291:Drivers/sdio.h **** 		SDIO->ARG = arg; 								// The arg must be set before the command.
 3050              		.loc 1 291 13 is_stmt 0 view .LVU1050
 3051 0106 C8F83820 		str	r2, [r8, #56]
 292:Drivers/sdio.h **** 		SDIO->CMD = (cmd | SDIO_CMD_CPSMEN | waitresp);	// Set the command and associated bits.
 3052              		.loc 1 292 3 is_stmt 1 view .LVU1051
 292:Drivers/sdio.h **** 		SDIO->CMD = (cmd | SDIO_CMD_CPSMEN | waitresp);	// Set the command and associated bits.
 3053              		.loc 1 292 13 is_stmt 0 view .LVU1052
 3054 010a C8F80890 		str	r9, [r8, #8]
 293:Drivers/sdio.h **** 	}
 3055              		.loc 1 293 3 is_stmt 1 view .LVU1053
 293:Drivers/sdio.h **** 	}
 3056              		.loc 1 293 13 is_stmt 0 view .LVU1054
 3057 010e C8F80C30 		str	r3, [r8, #12]
 3058              	.LVL224:
 3059              	.L236:
 293:Drivers/sdio.h **** 	}
 3060              		.loc 1 293 13 view .LVU1055
 3061              	.LBE837:
 3062              	.LBE838:
 316:Drivers/sdio.h **** 		return result;
 3063              		.loc 1 316 3 is_stmt 1 view .LVU1056
 316:Drivers/sdio.h **** 		return result;
 3064              		.loc 1 316 37 view .LVU1057
 3065              	.LBB839:
 3066              	.LBI839:
 331:Drivers/sdio.h **** 		uint32_t status = SDIO->STA & 0xFFF;
 3067              		.loc 1 331 8 view .LVU1058
 3068              	.LBB840:
 332:Drivers/sdio.h **** 
 3069              		.loc 1 332 3 view .LVU1059
 332:Drivers/sdio.h **** 
 3070              		.loc 1 332 27 is_stmt 0 view .LVU1060
 3071 0112 2A4A     		ldr	r2, .L292+12
 3072 0114 536B     		ldr	r3, [r2, #52]
 3073              	.LVL225:
 334:Drivers/sdio.h **** 			return InProgress;
 3074              		.loc 1 334 3 is_stmt 1 view .LVU1061
 3075 0116 1905     		lsls	r1, r3, #20
 3076 0118 FBD4     		bmi	.L236
 338:Drivers/sdio.h **** 			SDIO->ICR = SDIO_STA_CMDREND;
 3077              		.loc 1 338 3 view .LVU1062
 3078 011a 5806     		lsls	r0, r3, #25
 3079 011c 15D4     		bmi	.L288
 343:Drivers/sdio.h **** 			SDIO->ICR = SDIO_STA_CMDSENT;
 3080              		.loc 1 343 3 view .LVU1063
 3081 011e 1906     		lsls	r1, r3, #24
 3082 0120 33D4     		bmi	.L289
 348:Drivers/sdio.h **** 			SDIO->ICR = SDIO_STA_CTIMEOUT;
 3083              		.loc 1 348 3 view .LVU1064
ARM GAS  /var/folders/84/_x1cyy_j36g486tldtwl37280000gn/T//ccBOLdZ4.s 			page 80


 3084 0122 5807     		lsls	r0, r3, #29
 3085 0124 39D4     		bmi	.L290
 353:Drivers/sdio.h **** 			SDIO->ICR = SDIO_STA_CCRCFAIL;
 3086              		.loc 1 353 3 view .LVU1065
 3087 0126 D907     		lsls	r1, r3, #31
 3088 0128 32D4     		bmi	.L291
 3089              	.LVL226:
 3090              	.L219:
 353:Drivers/sdio.h **** 			SDIO->ICR = SDIO_STA_CCRCFAIL;
 3091              		.loc 1 353 3 is_stmt 0 view .LVU1066
 3092              	.LBE840:
 3093              	.LBE839:
 3094              	.LBE849:
 3095              	.LBE853:
 3096              	.LBE779:
 3097              	.LBE778:
 3098              	.LBE870:
 3099              	.LBE875:
 3100              	.LBE880:
  61:Src/Disk/diskio.cpp **** 		return RES_ERROR;
 3101              		.loc 4 61 10 view .LVU1067
 3102 012a 0120     		movs	r0, #1
 3103              	.LVL227:
 3104              	.L275:
  62:Src/Disk/diskio.cpp **** 	}
  63:Src/Disk/diskio.cpp **** 
  64:Src/Disk/diskio.cpp **** 	//sdio.status(pdrv);
  65:Src/Disk/diskio.cpp **** 
  66:Src/Disk/diskio.cpp **** 	if (sdio.read(buff, sector, count)) {
  67:Src/Disk/diskio.cpp **** 		return RES_OK;
  68:Src/Disk/diskio.cpp **** 	}
  69:Src/Disk/diskio.cpp **** 
  70:Src/Disk/diskio.cpp **** 	return RES_ERROR;
  71:Src/Disk/diskio.cpp **** }
 3105              		.loc 4 71 1 view .LVU1068
 3106 012c 03B0     		add	sp, sp, #12
 3107              		.cfi_remember_state
 3108              		.cfi_def_cfa_offset 28
 3109              		@ sp needed
 3110 012e BDE8F083 		pop	{r4, r5, r6, r7, r8, r9, pc}
 3111              	.LVL228:
 3112              	.L286:
 3113              		.cfi_restore_state
 3114              	.LBB881:
 3115              	.LBB876:
 3116              	.LBB871:
 3117              	.LBB866:
 3118              	.LBB862:
 3119              	.LBB854:
 3120              	.LBB831:
 3121              	.LBB829:
 3122              	.LBB827:
 3123              	.LBB825:
 3124              	.LBB823:
 3125              	.LBB819:
 344:Drivers/sdio.h **** 			return Success;
 3126              		.loc 1 344 4 is_stmt 1 view .LVU1069
ARM GAS  /var/folders/84/_x1cyy_j36g486tldtwl37280000gn/T//ccBOLdZ4.s 			page 81


 344:Drivers/sdio.h **** 			return Success;
 3127              		.loc 1 344 14 is_stmt 0 view .LVU1070
 3128 0132 8020     		movs	r0, #128
 3129              	.LVL229:
 344:Drivers/sdio.h **** 			return Success;
 3130              		.loc 1 344 14 view .LVU1071
 3131 0134 9863     		str	r0, [r3, #56]
 345:Drivers/sdio.h **** 		}
 3132              		.loc 1 345 4 is_stmt 1 view .LVU1072
 3133              	.LVL230:
 345:Drivers/sdio.h **** 		}
 3134              		.loc 1 345 4 is_stmt 0 view .LVU1073
 3135 0136 CEE7     		b	.L232
 3136              	.LVL231:
 3137              	.L287:
 349:Drivers/sdio.h **** 			return Timeout;
 3138              		.loc 1 349 4 is_stmt 1 view .LVU1074
 349:Drivers/sdio.h **** 			return Timeout;
 3139              		.loc 1 349 14 is_stmt 0 view .LVU1075
 3140 0138 0420     		movs	r0, #4
 3141              	.LVL232:
 349:Drivers/sdio.h **** 			return Timeout;
 3142              		.loc 1 349 14 view .LVU1076
 3143 013a 9863     		str	r0, [r3, #56]
 350:Drivers/sdio.h **** 		}
 3144              		.loc 1 350 4 is_stmt 1 view .LVU1077
 3145              	.LVL233:
 350:Drivers/sdio.h **** 		}
 3146              		.loc 1 350 4 is_stmt 0 view .LVU1078
 3147 013c B3E7     		b	.L235
 3148              	.LVL234:
 3149              	.L284:
 350:Drivers/sdio.h **** 		}
 3150              		.loc 1 350 4 view .LVU1079
 3151              	.LBE819:
 3152              	.LBE823:
 3153              	.LBE825:
 3154              	.LBE827:
 3155              	.LBE829:
 3156              	.LBE831:
 3157              	.LBE854:
 3158              	.LBB855:
 3159              	.LBB810:
 3160              	.LBB809:
 3161              	.LBB806:
 3162              	.LBB804:
 3163              	.LBB800:
 349:Drivers/sdio.h **** 			return Timeout;
 3164              		.loc 1 349 4 is_stmt 1 view .LVU1080
 349:Drivers/sdio.h **** 			return Timeout;
 3165              		.loc 1 349 14 is_stmt 0 view .LVU1081
 3166 013e 0421     		movs	r1, #4
 3167              	.LVL235:
 349:Drivers/sdio.h **** 			return Timeout;
 3168              		.loc 1 349 14 view .LVU1082
 3169 0140 9963     		str	r1, [r3, #56]
 350:Drivers/sdio.h **** 		}
ARM GAS  /var/folders/84/_x1cyy_j36g486tldtwl37280000gn/T//ccBOLdZ4.s 			page 82


 3170              		.loc 1 350 4 is_stmt 1 view .LVU1083
 3171              	.LVL236:
 350:Drivers/sdio.h **** 		}
 3172              		.loc 1 350 4 is_stmt 0 view .LVU1084
 3173 0142 83E7     		b	.L228
 3174              	.LVL237:
 3175              	.L283:
 344:Drivers/sdio.h **** 			return Success;
 3176              		.loc 1 344 4 is_stmt 1 view .LVU1085
 344:Drivers/sdio.h **** 			return Success;
 3177              		.loc 1 344 14 is_stmt 0 view .LVU1086
 3178 0144 8020     		movs	r0, #128
 3179 0146 9863     		str	r0, [r3, #56]
 345:Drivers/sdio.h **** 		}
 3180              		.loc 1 345 4 is_stmt 1 view .LVU1087
 3181              	.LVL238:
 345:Drivers/sdio.h **** 		}
 3182              		.loc 1 345 4 is_stmt 0 view .LVU1088
 3183 0148 97E7     		b	.L225
 3184              	.LVL239:
 3185              	.L288:
 345:Drivers/sdio.h **** 		}
 3186              		.loc 1 345 4 view .LVU1089
 3187              	.LBE800:
 3188              	.LBE804:
 3189              	.LBE806:
 3190              	.LBE809:
 3191              	.LBE810:
 3192              	.LBE855:
 3193              	.LBB856:
 3194              	.LBB850:
 3195              	.LBB845:
 3196              	.LBB841:
 339:Drivers/sdio.h **** 			return Success;
 3197              		.loc 1 339 4 is_stmt 1 view .LVU1090
 339:Drivers/sdio.h **** 			return Success;
 3198              		.loc 1 339 14 is_stmt 0 view .LVU1091
 3199 014a 4021     		movs	r1, #64
 3200 014c 9163     		str	r1, [r2, #56]
 340:Drivers/sdio.h **** 		}
 3201              		.loc 1 340 4 is_stmt 1 view .LVU1092
 3202              	.LVL240:
 3203              	.L241:
 340:Drivers/sdio.h **** 		}
 3204              		.loc 1 340 4 is_stmt 0 view .LVU1093
 3205              	.LBE841:
 3206              	.LBE845:
 3207              	.LBE850:
 3208              	.LBE856:
 383:Drivers/sdio.h **** 			return false;
 384:Drivers/sdio.h **** 		}
 385:Drivers/sdio.h **** 
 386:Drivers/sdio.h **** 		while (dma_busy_) {};
 3209              		.loc 1 386 3 is_stmt 1 view .LVU1094
 3210              		.loc 1 386 10 view .LVU1095
 3211 014e A27C     		ldrb	r2, [r4, #18]	@ zero_extendqisi2
 3212 0150 002A     		cmp	r2, #0
ARM GAS  /var/folders/84/_x1cyy_j36g486tldtwl37280000gn/T//ccBOLdZ4.s 			page 83


 3213 0152 FCD1     		bne	.L241
 3214              	.LVL241:
 3215              	.L267:
 3216              	.LBB857:
 3217              	.LBB858:
 387:Drivers/sdio.h **** 
 388:Drivers/sdio.h **** 		//stop transfer if needed
 389:Drivers/sdio.h **** 		if (count > 1) {
 390:Drivers/sdio.h **** 			if (sendCommandWait(12, 0) != Success) {
 391:Drivers/sdio.h **** 				return false;
 392:Drivers/sdio.h **** 			}
 393:Drivers/sdio.h **** 		}
 394:Drivers/sdio.h **** 
 395:Drivers/sdio.h **** 		// check errors
 396:Drivers/sdio.h **** 		const uint32_t succes_flags = SDIO_STA_DBCKEND | SDIO_STA_DATAEND;
 397:Drivers/sdio.h **** 		const uint32_t error_flags = SDIO_STA_DCRCFAIL | SDIO_STA_RXOVERR | SDIO_STA_DTIMEOUT | SDIO_STA_
 398:Drivers/sdio.h **** 
 399:Drivers/sdio.h **** 		while (true) {
 3218              		.loc 1 399 3 view .LVU1096
 3219              	.LBB859:
 400:Drivers/sdio.h **** 			volatile uint32_t flags = SDIO->STA;
 3220              		.loc 1 400 4 view .LVU1097
 401:Drivers/sdio.h **** 			if (flags & (succes_flags | error_flags)) {
 402:Drivers/sdio.h **** 				if (flags & error_flags) {
 3221              		.loc 1 402 5 view .LVU1098
 403:Drivers/sdio.h **** 					return false;
 404:Drivers/sdio.h **** 				} else if (flags & succes_flags) {
 3222              		.loc 1 404 12 view .LVU1099
 400:Drivers/sdio.h **** 			if (flags & (succes_flags | error_flags)) {
 3223              		.loc 1 400 36 is_stmt 0 view .LVU1100
 3224 0154 194B     		ldr	r3, .L292+12
 3225 0156 586B     		ldr	r0, [r3, #52]
 3226 0158 0190     		str	r0, [sp, #4]
 401:Drivers/sdio.h **** 			if (flags & (succes_flags | error_flags)) {
 3227              		.loc 1 401 4 is_stmt 1 view .LVU1101
 401:Drivers/sdio.h **** 			if (flags & (succes_flags | error_flags)) {
 3228              		.loc 1 401 8 is_stmt 0 view .LVU1102
 3229 015a 0199     		ldr	r1, [sp, #4]
 401:Drivers/sdio.h **** 			if (flags & (succes_flags | error_flags)) {
 3230              		.loc 1 401 14 view .LVU1103
 3231 015c 40F22A7E 		movw	lr, #1834
 401:Drivers/sdio.h **** 			if (flags & (succes_flags | error_flags)) {
 3232              		.loc 1 401 4 view .LVU1104
 3233 0160 11EA0E0F 		tst	r1, lr
 402:Drivers/sdio.h **** 					return false;
 3234              		.loc 1 402 15 view .LVU1105
 3235 0164 40F22A29 		movw	r9, #554
 401:Drivers/sdio.h **** 				if (flags & error_flags) {
 3236              		.loc 1 401 4 view .LVU1106
 3237 0168 F4D0     		beq	.L267
 402:Drivers/sdio.h **** 					return false;
 3238              		.loc 1 402 9 view .LVU1107
 3239 016a 019A     		ldr	r2, [sp, #4]
 402:Drivers/sdio.h **** 					return false;
 3240              		.loc 1 402 5 view .LVU1108
 3241 016c 12EA090F 		tst	r2, r9
 3242 0170 DBD1     		bne	.L219
ARM GAS  /var/folders/84/_x1cyy_j36g486tldtwl37280000gn/T//ccBOLdZ4.s 			page 84


 3243              		.loc 1 404 16 view .LVU1109
 3244 0172 019B     		ldr	r3, [sp, #4]
 3245              		.loc 1 404 12 view .LVU1110
 3246 0174 13F4A06F 		tst	r3, #1280
 3247 0178 ECD0     		beq	.L267
 3248              	.LVL242:
 3249              		.loc 1 404 12 view .LVU1111
 3250              	.LBE859:
 3251              	.LBE858:
 3252              	.LBE857:
 3253              	.LBE862:
 3254              	.LBE866:
  70:Drivers/sdio.h **** 		}
 3255              		.loc 1 70 4 is_stmt 1 view .LVU1112
  66:Drivers/sdio.h **** 			if (!readBlocks(sector + i, data)) {
 3256              		.loc 1 66 3 view .LVU1113
  66:Drivers/sdio.h **** 			if (!readBlocks(sector + i, data)) {
 3257              		.loc 1 66 26 view .LVU1114
 3258 017a 0135     		adds	r5, r5, #1
 3259 017c BD42     		cmp	r5, r7
 3260 017e 7FF44EAF 		bne	.L245
 3261              	.LBE871:
 3262              	.LBE876:
 3263              	.LBE881:
  67:Src/Disk/diskio.cpp **** 	}
 3264              		.loc 4 67 10 is_stmt 0 view .LVU1115
 3265 0182 0020     		movs	r0, #0
 3266              		.loc 4 71 1 view .LVU1116
 3267 0184 03B0     		add	sp, sp, #12
 3268              		.cfi_remember_state
 3269              		.cfi_def_cfa_offset 28
 3270              		@ sp needed
 3271 0186 BDE8F083 		pop	{r4, r5, r6, r7, r8, r9, pc}
 3272              	.LVL243:
 3273              	.L289:
 3274              		.cfi_restore_state
 3275              	.LBB882:
 3276              	.LBB877:
 3277              	.LBB872:
 3278              	.LBB867:
 3279              	.LBB863:
 3280              	.LBB860:
 3281              	.LBB851:
 3282              	.LBB846:
 3283              	.LBB842:
 344:Drivers/sdio.h **** 			return Success;
 3284              		.loc 1 344 4 is_stmt 1 view .LVU1117
 344:Drivers/sdio.h **** 			return Success;
 3285              		.loc 1 344 14 is_stmt 0 view .LVU1118
 3286 018a 8020     		movs	r0, #128
 3287 018c 9063     		str	r0, [r2, #56]
 345:Drivers/sdio.h **** 		}
 3288              		.loc 1 345 4 is_stmt 1 view .LVU1119
 3289              	.LVL244:
 345:Drivers/sdio.h **** 		}
 3290              		.loc 1 345 4 is_stmt 0 view .LVU1120
 3291              	.LBE842:
ARM GAS  /var/folders/84/_x1cyy_j36g486tldtwl37280000gn/T//ccBOLdZ4.s 			page 85


 3292              	.LBE846:
 317:Drivers/sdio.h **** 	}
 3293              		.loc 1 317 3 is_stmt 1 view .LVU1121
 317:Drivers/sdio.h **** 	}
 3294              		.loc 1 317 3 is_stmt 0 view .LVU1122
 3295 018e DEE7     		b	.L241
 3296              	.LVL245:
 3297              	.L291:
 3298              	.LBB847:
 3299              	.LBB843:
 354:Drivers/sdio.h **** 			return CRCFail;
 3300              		.loc 1 354 4 is_stmt 1 view .LVU1123
 354:Drivers/sdio.h **** 			return CRCFail;
 3301              		.loc 1 354 14 is_stmt 0 view .LVU1124
 3302 0190 0120     		movs	r0, #1
 3303 0192 9063     		str	r0, [r2, #56]
 355:Drivers/sdio.h **** 		}
 3304              		.loc 1 355 4 is_stmt 1 view .LVU1125
 3305              	.LVL246:
 355:Drivers/sdio.h **** 		}
 3306              		.loc 1 355 4 is_stmt 0 view .LVU1126
 3307              	.LBE843:
 3308              	.LBE847:
 3309              	.LBE851:
 3310              	.LBE860:
 3311              	.LBE863:
 3312              	.LBE867:
 3313              	.LBE872:
 3314              	.LBE877:
 3315              	.LBE882:
 3316              		.loc 4 71 1 view .LVU1127
 3317 0194 03B0     		add	sp, sp, #12
 3318              		.cfi_remember_state
 3319              		.cfi_def_cfa_offset 28
 3320              		@ sp needed
 3321 0196 BDE8F083 		pop	{r4, r5, r6, r7, r8, r9, pc}
 3322              	.LVL247:
 3323              	.L290:
 3324              		.cfi_restore_state
 3325              	.LBB883:
 3326              	.LBB878:
 3327              	.LBB873:
 3328              	.LBB868:
 3329              	.LBB864:
 3330              	.LBB861:
 3331              	.LBB852:
 3332              	.LBB848:
 3333              	.LBB844:
 349:Drivers/sdio.h **** 			return Timeout;
 3334              		.loc 1 349 4 is_stmt 1 view .LVU1128
 349:Drivers/sdio.h **** 			return Timeout;
 3335              		.loc 1 349 14 is_stmt 0 view .LVU1129
 3336 019a 0424     		movs	r4, #4
 3337 019c 9463     		str	r4, [r2, #56]
 350:Drivers/sdio.h **** 		}
 3338              		.loc 1 350 4 is_stmt 1 view .LVU1130
 3339              	.LVL248:
ARM GAS  /var/folders/84/_x1cyy_j36g486tldtwl37280000gn/T//ccBOLdZ4.s 			page 86


 350:Drivers/sdio.h **** 		}
 3340              		.loc 1 350 4 is_stmt 0 view .LVU1131
 3341              	.LBE844:
 3342              	.LBE848:
 3343              	.LBE852:
 3344              	.LBE861:
 3345              	.LBE864:
 3346              	.LBE868:
 3347              	.LBE873:
 3348              	.LBE878:
 3349              	.LBE883:
  70:Src/Disk/diskio.cpp **** }
 3350              		.loc 4 70 9 view .LVU1132
 3351 019e 0120     		movs	r0, #1
 3352 01a0 C4E7     		b	.L275
 3353              	.LVL249:
 3354              	.L285:
 3355              	.LBB884:
 3356              	.LBB879:
 3357              	.LBB874:
 3358              	.LBB869:
 3359              	.LBB865:
  70:Src/Disk/diskio.cpp **** }
 3360              		.loc 4 70 9 view .LVU1133
 3361 01a2 A946     		mov	r9, r5
 3362 01a4 6902     		lsls	r1, r5, #9
 3363 01a6 96E7     		b	.L232
 3364              	.LVL250:
 3365              	.L278:
 3366              		.cfi_def_cfa_offset 0
 3367              		.cfi_restore 4
 3368              		.cfi_restore 5
 3369              		.cfi_restore 6
 3370              		.cfi_restore 7
 3371              		.cfi_restore 8
 3372              		.cfi_restore 9
 3373              		.cfi_restore 14
  70:Src/Disk/diskio.cpp **** }
 3374              		.loc 4 70 9 view .LVU1134
 3375              	.LBE865:
 3376              	.LBE869:
 3377              	.LBE874:
 3378              	.LBE879:
 3379              	.LBE884:
  61:Src/Disk/diskio.cpp **** 	}
 3380              		.loc 4 61 10 view .LVU1135
 3381 01a8 0120     		movs	r0, #1
 3382              	.LVL251:
 3383              		.loc 4 71 1 view .LVU1136
 3384 01aa 7047     		bx	lr
 3385              	.LVL252:
 3386              	.L282:
  67:Src/Disk/diskio.cpp **** 	}
 3387              		.loc 4 67 10 view .LVU1137
 3388 01ac 0020     		movs	r0, #0
 3389              	.LVL253:
  67:Src/Disk/diskio.cpp **** 	}
ARM GAS  /var/folders/84/_x1cyy_j36g486tldtwl37280000gn/T//ccBOLdZ4.s 			page 87


 3390              		.loc 4 67 10 view .LVU1138
 3391 01ae 7047     		bx	lr
 3392              	.L293:
 3393              		.align	2
 3394              	.L292:
 3395 01b0 00000000 		.word	sdio
 3396 01b4 000C0040 		.word	1073744896
 3397 01b8 40420F00 		.word	1000000
 3398 01bc 002C0140 		.word	1073818624
 3399 01c0 009F2400 		.word	2400000
 3400              		.cfi_endproc
 3401              	.LFE2003:
 3403              		.section	.text.disk_write,"ax",%progbits
 3404              		.align	1
 3405              		.p2align 2,,3
 3406              		.global	disk_write
 3407              		.syntax unified
 3408              		.thumb
 3409              		.thumb_func
 3410              		.fpu fpv4-sp-d16
 3412              	disk_write:
 3413              	.LVL254:
 3414              	.LFB2004:
  72:Src/Disk/diskio.cpp **** 
  73:Src/Disk/diskio.cpp **** 
  74:Src/Disk/diskio.cpp **** /*-----------------------------------------------------------------------*/
  75:Src/Disk/diskio.cpp **** /* Write Sector(s)                                                       */
  76:Src/Disk/diskio.cpp **** /*-----------------------------------------------------------------------*/
  77:Src/Disk/diskio.cpp **** 
  78:Src/Disk/diskio.cpp **** #if FF_FS_READONLY == 0
  79:Src/Disk/diskio.cpp **** 
  80:Src/Disk/diskio.cpp **** DRESULT disk_write (
  81:Src/Disk/diskio.cpp **** BYTE pdrv,			/* Physical drive nmuber to identify the drive */
  82:Src/Disk/diskio.cpp **** const BYTE *buff,	/* Data to be written */
  83:Src/Disk/diskio.cpp **** LBA_t sector,		/* Start sector in LBA */
  84:Src/Disk/diskio.cpp **** UINT count			/* Number of sectors to write */
  85:Src/Disk/diskio.cpp **** )
  86:Src/Disk/diskio.cpp **** {
 3415              		.loc 4 86 1 is_stmt 1 view -0
 3416              		.cfi_startproc
 3417              		@ args = 0, pretend = 0, frame = 8
 3418              		@ frame_needed = 0, uses_anonymous_args = 0
  87:Src/Disk/diskio.cpp **** 
  88:Src/Disk/diskio.cpp **** 	if (pdrv >= 1) {
 3419              		.loc 4 88 2 view .LVU1140
 3420 0000 0028     		cmp	r0, #0
 3421 0002 40F0CE80 		bne	.L354
 3422              	.LVL255:
 3423              	.LBB935:
 3424              	.LBB936:
 3425              	.LBB937:
  78:Drivers/sdio.h **** 			if (!writeBlocks(sector + i, data)) {
 3426              		.loc 1 78 26 view .LVU1141
 3427 0006 13F0FF03 		ands	r3, r3, #255
 3428              	.LVL256:
  78:Drivers/sdio.h **** 			if (!writeBlocks(sector + i, data)) {
 3429              		.loc 1 78 26 is_stmt 0 view .LVU1142
ARM GAS  /var/folders/84/_x1cyy_j36g486tldtwl37280000gn/T//ccBOLdZ4.s 			page 88


 3430 000a 00F0CC80 		beq	.L358
 3431              	.LBE937:
 3432              	.LBE936:
 3433              	.LBE935:
  86:Src/Disk/diskio.cpp **** 
 3434              		.loc 4 86 1 view .LVU1143
 3435 000e 2DE9F041 		push	{r4, r5, r6, r7, r8, lr}
 3436              		.cfi_def_cfa_offset 24
 3437              		.cfi_offset 4, -24
 3438              		.cfi_offset 5, -20
 3439              		.cfi_offset 6, -16
 3440              		.cfi_offset 7, -12
 3441              		.cfi_offset 8, -8
 3442              		.cfi_offset 14, -4
 3443 0012 664C     		ldr	r4, .L367
 3444 0014 82B0     		sub	sp, sp, #8
 3445              		.cfi_def_cfa_offset 32
 3446 0016 1546     		mov	r5, r2
 3447 0018 D718     		adds	r7, r2, r3
 3448 001a A1EB4226 		sub	r6, r1, r2, lsl #9
 3449              	.LVL257:
 3450              	.L321:
 3451              	.LBB1030:
 3452              	.LBB1026:
 3453              	.LBB1022:
  79:Drivers/sdio.h **** 				return false;
 3454              		.loc 1 79 4 is_stmt 1 view .LVU1144
 3455              	.LBB938:
 3456              	.LBI938:
 405:Drivers/sdio.h **** 					break;
 406:Drivers/sdio.h **** 				}
 407:Drivers/sdio.h **** 			}
 408:Drivers/sdio.h **** 		}
 409:Drivers/sdio.h **** 
 410:Drivers/sdio.h **** 		return true;
 411:Drivers/sdio.h **** 	}
 412:Drivers/sdio.h **** 
 413:Drivers/sdio.h **** 	bool writeBlocks(uint32_t address, const void* buffer, uint16_t count = 1) {
 3457              		.loc 1 413 7 view .LVU1145
 3458              	.LBB939:
 414:Drivers/sdio.h **** 		if (!waitDataReady()) {
 3459              		.loc 1 414 3 view .LVU1146
 3460              	.LBB940:
 3461              	.LBI940:
 271:Drivers/sdio.h **** 		time_out.start(1000);
 3462              		.loc 1 271 7 view .LVU1147
 3463              	.LBB941:
 272:Drivers/sdio.h **** 		while (time_out.status()) {
 3464              		.loc 1 272 3 view .LVU1148
 3465              	.LBB942:
 3466              	.LBI942:
   9:Src/Engine/timeOut.h **** 		interval_ = ms * 1000;
 3467              		.loc 2 9 7 view .LVU1149
 3468              	.LBB943:
  10:Src/Engine/timeOut.h **** 		start_ = micros.read();
 3469              		.loc 2 10 3 view .LVU1150
 3470              	.LBB944:
ARM GAS  /var/folders/84/_x1cyy_j36g486tldtwl37280000gn/T//ccBOLdZ4.s 			page 89


 3471              	.LBB945:
 3472              		.loc 3 12 16 is_stmt 0 view .LVU1151
 3473 001e 6448     		ldr	r0, .L367+4
 3474              	.LBE945:
 3475              	.LBE944:
  10:Src/Engine/timeOut.h **** 		start_ = micros.read();
 3476              		.loc 2 10 13 view .LVU1152
 3477 0020 644A     		ldr	r2, .L367+8
 3478 0022 E260     		str	r2, [r4, #12]
  11:Src/Engine/timeOut.h **** 	}
 3479              		.loc 2 11 3 is_stmt 1 view .LVU1153
 3480              	.LBB947:
 3481              	.LBI944:
  11:Drivers/micros.h **** 		return TIM5->CNT;
 3482              		.loc 3 11 27 view .LVU1154
 3483              	.LVL258:
 3484              	.LBB946:
 3485              		.loc 3 12 3 view .LVU1155
 3486              		.loc 3 12 16 is_stmt 0 view .LVU1156
 3487 0024 416A     		ldr	r1, [r0, #36]
 3488              	.LBE946:
 3489              	.LBE947:
  11:Src/Engine/timeOut.h **** 	}
 3490              		.loc 2 11 10 view .LVU1157
 3491 0026 A160     		str	r1, [r4, #8]
 3492              	.LVL259:
  11:Src/Engine/timeOut.h **** 	}
 3493              		.loc 2 11 10 view .LVU1158
 3494              	.LBE943:
 3495              	.LBE942:
 273:Drivers/sdio.h **** 			if (sendCommandWait(13, cardInfo.rca << 16) == Success && (SDIO->RESP1 & 0x100) != 0) {
 3496              		.loc 1 273 3 is_stmt 1 view .LVU1159
 273:Drivers/sdio.h **** 			if (sendCommandWait(13, cardInfo.rca << 16) == Success && (SDIO->RESP1 & 0x100) != 0) {
 3497              		.loc 1 273 25 view .LVU1160
 3498              	.LBB948:
 3499              	.LBI948:
  14:Src/Engine/timeOut.h **** 		return static_cast<uint32_t>((micros.read() - start_) < interval_);
 3500              		.loc 2 14 16 view .LVU1161
 3501              	.LBB949:
 3502              		.loc 2 15 3 view .LVU1162
 3503              	.LBB950:
 3504              	.LBI950:
  11:Drivers/micros.h **** 		return TIM5->CNT;
 3505              		.loc 3 11 27 view .LVU1163
 3506              	.LBB951:
 3507              		.loc 3 12 3 view .LVU1164
 3508              		.loc 3 12 16 is_stmt 0 view .LVU1165
 3509 0028 436A     		ldr	r3, [r0, #36]
 3510              	.LBE951:
 3511              	.LBE950:
 3512              		.loc 2 15 49 view .LVU1166
 3513 002a A068     		ldr	r0, [r4, #8]
 3514              		.loc 2 15 59 view .LVU1167
 3515 002c E268     		ldr	r2, [r4, #12]
 3516              		.loc 2 15 47 view .LVU1168
 3517 002e 191A     		subs	r1, r3, r0
 3518              	.LBE949:
ARM GAS  /var/folders/84/_x1cyy_j36g486tldtwl37280000gn/T//ccBOLdZ4.s 			page 90


 3519              	.LBE948:
 273:Drivers/sdio.h **** 			if (sendCommandWait(13, cardInfo.rca << 16) == Success && (SDIO->RESP1 & 0x100) != 0) {
 3520              		.loc 1 273 25 view .LVU1169
 3521 0030 8A42     		cmp	r2, r1
 3522 0032 64D9     		bls	.L295
 274:Drivers/sdio.h **** 				return true;
 3523              		.loc 1 274 37 view .LVU1170
 3524 0034 2388     		ldrh	r3, [r4]
 274:Drivers/sdio.h **** 				return true;
 3525              		.loc 1 274 41 view .LVU1171
 3526 0036 1A04     		lsls	r2, r3, #16
 3527 0038 10E0     		b	.L298
 3528              	.LVL260:
 3529              	.L300:
 3530              	.LBB955:
 3531              	.LBB956:
 3532              	.LBB957:
 3533              	.LBB958:
 343:Drivers/sdio.h **** 			SDIO->ICR = SDIO_STA_CMDSENT;
 3534              		.loc 1 343 3 is_stmt 1 view .LVU1172
 3535 003a 0806     		lsls	r0, r1, #24
 3536 003c 00F1A080 		bmi	.L359
 348:Drivers/sdio.h **** 			SDIO->ICR = SDIO_STA_CTIMEOUT;
 3537              		.loc 1 348 3 view .LVU1173
 3538 0040 4807     		lsls	r0, r1, #29
 3539 0042 00F19A80 		bmi	.L360
 353:Drivers/sdio.h **** 			SDIO->ICR = SDIO_STA_CCRCFAIL;
 3540              		.loc 1 353 3 view .LVU1174
 3541 0046 C907     		lsls	r1, r1, #31
 3542              	.LVL261:
 353:Drivers/sdio.h **** 			SDIO->ICR = SDIO_STA_CCRCFAIL;
 3543              		.loc 1 353 3 is_stmt 0 view .LVU1175
 3544 0048 01D5     		bpl	.L304
 354:Drivers/sdio.h **** 			return CRCFail;
 3545              		.loc 1 354 4 is_stmt 1 view .LVU1176
 354:Drivers/sdio.h **** 			return CRCFail;
 3546              		.loc 1 354 14 is_stmt 0 view .LVU1177
 3547 004a 0120     		movs	r0, #1
 3548 004c 9863     		str	r0, [r3, #56]
 355:Drivers/sdio.h **** 		}
 3549              		.loc 1 355 4 is_stmt 1 view .LVU1178
 3550              	.LVL262:
 3551              	.L304:
 355:Drivers/sdio.h **** 		}
 3552              		.loc 1 355 4 is_stmt 0 view .LVU1179
 3553              	.LBE958:
 3554              	.LBE957:
 3555              	.LBE956:
 3556              	.LBE955:
 273:Drivers/sdio.h **** 			if (sendCommandWait(13, cardInfo.rca << 16) == Success && (SDIO->RESP1 & 0x100) != 0) {
 3557              		.loc 1 273 3 is_stmt 1 view .LVU1180
 273:Drivers/sdio.h **** 			if (sendCommandWait(13, cardInfo.rca << 16) == Success && (SDIO->RESP1 & 0x100) != 0) {
 3558              		.loc 1 273 25 view .LVU1181
 3559              	.LBB967:
  14:Src/Engine/timeOut.h **** 		return static_cast<uint32_t>((micros.read() - start_) < interval_);
 3560              		.loc 2 14 16 view .LVU1182
 3561              	.LBB954:
ARM GAS  /var/folders/84/_x1cyy_j36g486tldtwl37280000gn/T//ccBOLdZ4.s 			page 91


 3562              		.loc 2 15 3 view .LVU1183
 3563              	.LBB953:
  11:Drivers/micros.h **** 		return TIM5->CNT;
 3564              		.loc 3 11 27 view .LVU1184
 3565              	.LBB952:
 3566              		.loc 3 12 3 view .LVU1185
 3567              		.loc 3 12 16 is_stmt 0 view .LVU1186
 3568 004e 5849     		ldr	r1, .L367+4
 3569 0050 4B6A     		ldr	r3, [r1, #36]
 3570              	.LBE952:
 3571              	.LBE953:
 3572              		.loc 2 15 49 view .LVU1187
 3573 0052 A068     		ldr	r0, [r4, #8]
 3574              		.loc 2 15 59 view .LVU1188
 3575 0054 E168     		ldr	r1, [r4, #12]
 3576              		.loc 2 15 47 view .LVU1189
 3577 0056 1B1A     		subs	r3, r3, r0
 3578              	.LBE954:
 3579              	.LBE967:
 273:Drivers/sdio.h **** 			if (sendCommandWait(13, cardInfo.rca << 16) == Success && (SDIO->RESP1 & 0x100) != 0) {
 3580              		.loc 1 273 25 view .LVU1190
 3581 0058 8B42     		cmp	r3, r1
 3582 005a 50D2     		bcs	.L295
 3583              	.LVL263:
 3584              	.L298:
 274:Drivers/sdio.h **** 				return true;
 3585              		.loc 1 274 4 is_stmt 1 view .LVU1191
 3586              	.LBB968:
 3587              	.LBI955:
 313:Drivers/sdio.h **** 		Error result;
 3588              		.loc 1 313 8 view .LVU1192
 3589              	.LBB965:
 314:Drivers/sdio.h **** 		sendCommand(cmd, arg);
 3590              		.loc 1 314 3 view .LVU1193
 315:Drivers/sdio.h **** 		while ((result = commandResult()) == InProgress);
 3591              		.loc 1 315 3 view .LVU1194
 3592              	.LBB961:
 3593              	.LBI961:
 281:Drivers/sdio.h **** 		cmd &= 0x3F;	// SDIO_CMD_CMDINDEX_MASK
 3594              		.loc 1 281 7 view .LVU1195
 3595              	.LBB962:
 282:Drivers/sdio.h **** 
 3596              		.loc 1 282 3 view .LVU1196
 284:Drivers/sdio.h **** 		if (cmd == 0) {
 3597              		.loc 1 284 3 view .LVU1197
 285:Drivers/sdio.h **** 			waitresp = SDIO_RESPONSE_NO;
 3598              		.loc 1 285 3 view .LVU1198
 287:Drivers/sdio.h **** 			waitresp = SDIO_RESPONSE_LONG;
 3599              		.loc 1 287 10 view .LVU1199
 291:Drivers/sdio.h **** 		SDIO->ARG = arg; 								// The arg must be set before the command.
 3600              		.loc 1 291 3 view .LVU1200
 291:Drivers/sdio.h **** 		SDIO->ARG = arg; 								// The arg must be set before the command.
 3601              		.loc 1 291 13 is_stmt 0 view .LVU1201
 3602 005c 564B     		ldr	r3, .L367+12
 3603 005e 40F2FF70 		movw	r0, #2047
 293:Drivers/sdio.h **** 	}
 3604              		.loc 1 293 13 view .LVU1202
ARM GAS  /var/folders/84/_x1cyy_j36g486tldtwl37280000gn/T//ccBOLdZ4.s 			page 92


 3605 0062 40F24D41 		movw	r1, #1101
 291:Drivers/sdio.h **** 		SDIO->ARG = arg; 								// The arg must be set before the command.
 3606              		.loc 1 291 13 view .LVU1203
 3607 0066 9863     		str	r0, [r3, #56]
 292:Drivers/sdio.h **** 		SDIO->CMD = (cmd | SDIO_CMD_CPSMEN | waitresp);	// Set the command and associated bits.
 3608              		.loc 1 292 3 is_stmt 1 view .LVU1204
 292:Drivers/sdio.h **** 		SDIO->CMD = (cmd | SDIO_CMD_CPSMEN | waitresp);	// Set the command and associated bits.
 3609              		.loc 1 292 13 is_stmt 0 view .LVU1205
 3610 0068 9A60     		str	r2, [r3, #8]
 293:Drivers/sdio.h **** 	}
 3611              		.loc 1 293 3 is_stmt 1 view .LVU1206
 293:Drivers/sdio.h **** 	}
 3612              		.loc 1 293 13 is_stmt 0 view .LVU1207
 3613 006a D960     		str	r1, [r3, #12]
 3614              	.LVL264:
 3615              	.L299:
 293:Drivers/sdio.h **** 	}
 3616              		.loc 1 293 13 view .LVU1208
 3617              	.LBE962:
 3618              	.LBE961:
 316:Drivers/sdio.h **** 		return result;
 3619              		.loc 1 316 3 is_stmt 1 view .LVU1209
 316:Drivers/sdio.h **** 		return result;
 3620              		.loc 1 316 37 view .LVU1210
 3621              	.LBB963:
 3622              	.LBI957:
 331:Drivers/sdio.h **** 		uint32_t status = SDIO->STA & 0xFFF;
 3623              		.loc 1 331 8 view .LVU1211
 3624              	.LBB959:
 332:Drivers/sdio.h **** 
 3625              		.loc 1 332 3 view .LVU1212
 332:Drivers/sdio.h **** 
 3626              		.loc 1 332 27 is_stmt 0 view .LVU1213
 3627 006c 524B     		ldr	r3, .L367+12
 3628 006e 596B     		ldr	r1, [r3, #52]
 3629              	.LVL265:
 334:Drivers/sdio.h **** 			return InProgress;
 3630              		.loc 1 334 3 is_stmt 1 view .LVU1214
 3631 0070 0805     		lsls	r0, r1, #20
 3632 0072 FBD4     		bmi	.L299
 338:Drivers/sdio.h **** 			SDIO->ICR = SDIO_STA_CMDREND;
 3633              		.loc 1 338 3 view .LVU1215
 3634 0074 4806     		lsls	r0, r1, #25
 3635 0076 E0D5     		bpl	.L300
 339:Drivers/sdio.h **** 			return Success;
 3636              		.loc 1 339 4 view .LVU1216
 339:Drivers/sdio.h **** 			return Success;
 3637              		.loc 1 339 14 is_stmt 0 view .LVU1217
 3638 0078 4021     		movs	r1, #64
 3639              	.LVL266:
 339:Drivers/sdio.h **** 			return Success;
 3640              		.loc 1 339 14 view .LVU1218
 3641 007a 9963     		str	r1, [r3, #56]
 340:Drivers/sdio.h **** 		}
 3642              		.loc 1 340 4 is_stmt 1 view .LVU1219
 3643              	.LVL267:
 3644              	.L301:
ARM GAS  /var/folders/84/_x1cyy_j36g486tldtwl37280000gn/T//ccBOLdZ4.s 			page 93


 340:Drivers/sdio.h **** 		}
 3645              		.loc 1 340 4 is_stmt 0 view .LVU1220
 3646              	.LBE959:
 3647              	.LBE963:
 317:Drivers/sdio.h **** 	}
 3648              		.loc 1 317 3 is_stmt 1 view .LVU1221
 317:Drivers/sdio.h **** 	}
 3649              		.loc 1 317 3 is_stmt 0 view .LVU1222
 3650              	.LBE965:
 3651              	.LBE968:
 274:Drivers/sdio.h **** 				return true;
 3652              		.loc 1 274 69 view .LVU1223
 3653 007c 4E4B     		ldr	r3, .L367+12
 3654 007e 5869     		ldr	r0, [r3, #20]
 274:Drivers/sdio.h **** 				return true;
 3655              		.loc 1 274 59 view .LVU1224
 3656 0080 C305     		lsls	r3, r0, #23
 3657 0082 E4D5     		bpl	.L304
 3658              	.LVL268:
 274:Drivers/sdio.h **** 				return true;
 3659              		.loc 1 274 59 view .LVU1225
 3660              	.LBE941:
 3661              	.LBE940:
 415:Drivers/sdio.h **** 			return false;
 416:Drivers/sdio.h **** 		}
 417:Drivers/sdio.h **** 
 418:Drivers/sdio.h **** 		if (!cardInfo.ccs) {
 3662              		.loc 1 418 3 is_stmt 1 view .LVU1226
 3663 0084 A278     		ldrb	r2, [r4, #2]	@ zero_extendqisi2
 3664 0086 002A     		cmp	r2, #0
 3665 0088 40F08580 		bne	.L325
 419:Drivers/sdio.h **** 			address *= 512;
 3666              		.loc 1 419 4 view .LVU1227
 3667 008c 6802     		lsls	r0, r5, #9
 3668              	.LVL269:
 420:Drivers/sdio.h **** 			if (sendCommandRetry(16, 512) != Success) {
 3669              		.loc 1 420 4 view .LVU1228
 3670              	.LBB971:
 3671              	.LBI971:
 320:Drivers/sdio.h **** 		Error result = Unknown;
 3672              		.loc 1 320 8 view .LVU1229
 3673              	.LBB972:
 3674              	.LBB973:
 322:Drivers/sdio.h **** 			result = sendCommandWait(cmd, arg);
 3675              		.loc 1 322 21 view .LVU1230
 3676              	.LBE973:
 3677              	.LBE972:
 3678              	.LBE971:
 418:Drivers/sdio.h **** 			address *= 512;
 3679              		.loc 1 418 3 is_stmt 0 view .LVU1231
 3680 008e 0522     		movs	r2, #5
 3681 0090 0BE0     		b	.L322
 3682              	.LVL270:
 3683              	.L307:
 3684              	.LBB992:
 3685              	.LBB990:
 3686              	.LBB988:
ARM GAS  /var/folders/84/_x1cyy_j36g486tldtwl37280000gn/T//ccBOLdZ4.s 			page 94


 3687              	.LBB974:
 3688              	.LBB975:
 3689              	.LBB976:
 3690              	.LBB977:
 343:Drivers/sdio.h **** 			SDIO->ICR = SDIO_STA_CMDSENT;
 3691              		.loc 1 343 3 is_stmt 1 view .LVU1232
 3692 0092 11F0800F 		tst	r1, #128
 3693 0096 6AD1     		bne	.L361
 348:Drivers/sdio.h **** 			SDIO->ICR = SDIO_STA_CTIMEOUT;
 3694              		.loc 1 348 3 view .LVU1233
 3695 0098 11F0040F 		tst	r1, #4
 3696 009c 6AD1     		bne	.L362
 353:Drivers/sdio.h **** 			SDIO->ICR = SDIO_STA_CCRCFAIL;
 3697              		.loc 1 353 3 view .LVU1234
 3698 009e C907     		lsls	r1, r1, #31
 3699              	.LVL271:
 353:Drivers/sdio.h **** 			SDIO->ICR = SDIO_STA_CCRCFAIL;
 3700              		.loc 1 353 3 is_stmt 0 view .LVU1235
 3701 00a0 01D5     		bpl	.L311
 354:Drivers/sdio.h **** 			return CRCFail;
 3702              		.loc 1 354 4 is_stmt 1 view .LVU1236
 354:Drivers/sdio.h **** 			return CRCFail;
 3703              		.loc 1 354 14 is_stmt 0 view .LVU1237
 3704 00a2 0121     		movs	r1, #1
 3705 00a4 9963     		str	r1, [r3, #56]
 355:Drivers/sdio.h **** 		}
 3706              		.loc 1 355 4 is_stmt 1 view .LVU1238
 3707              	.LVL272:
 3708              	.L311:
 355:Drivers/sdio.h **** 		}
 3709              		.loc 1 355 4 is_stmt 0 view .LVU1239
 3710              	.LBE977:
 3711              	.LBE976:
 317:Drivers/sdio.h **** 	}
 3712              		.loc 1 317 3 is_stmt 1 view .LVU1240
 317:Drivers/sdio.h **** 	}
 3713              		.loc 1 317 3 is_stmt 0 view .LVU1241
 3714              	.LBE975:
 3715              	.LBE974:
 324:Drivers/sdio.h **** 				break;
 3716              		.loc 1 324 4 is_stmt 1 view .LVU1242
 322:Drivers/sdio.h **** 			result = sendCommandWait(cmd, arg);
 3717              		.loc 1 322 3 view .LVU1243
 322:Drivers/sdio.h **** 			result = sendCommandWait(cmd, arg);
 3718              		.loc 1 322 21 view .LVU1244
 3719 00a6 013A     		subs	r2, r2, #1
 3720              	.LVL273:
 322:Drivers/sdio.h **** 			result = sendCommandWait(cmd, arg);
 3721              		.loc 1 322 21 is_stmt 0 view .LVU1245
 3722 00a8 29D0     		beq	.L295
 3723              	.LVL274:
 3724              	.L322:
 323:Drivers/sdio.h **** 			if (result == Success) {
 3725              		.loc 1 323 4 is_stmt 1 view .LVU1246
 3726              	.LBB986:
 3727              	.LBI974:
 313:Drivers/sdio.h **** 		Error result;
ARM GAS  /var/folders/84/_x1cyy_j36g486tldtwl37280000gn/T//ccBOLdZ4.s 			page 95


 3728              		.loc 1 313 8 view .LVU1247
 3729              	.LBB984:
 314:Drivers/sdio.h **** 		sendCommand(cmd, arg);
 3730              		.loc 1 314 3 view .LVU1248
 315:Drivers/sdio.h **** 		while ((result = commandResult()) == InProgress);
 3731              		.loc 1 315 3 view .LVU1249
 3732              	.LBB980:
 3733              	.LBI980:
 281:Drivers/sdio.h **** 		cmd &= 0x3F;	// SDIO_CMD_CMDINDEX_MASK
 3734              		.loc 1 281 7 view .LVU1250
 3735              	.LBB981:
 282:Drivers/sdio.h **** 
 3736              		.loc 1 282 3 view .LVU1251
 284:Drivers/sdio.h **** 		if (cmd == 0) {
 3737              		.loc 1 284 3 view .LVU1252
 285:Drivers/sdio.h **** 			waitresp = SDIO_RESPONSE_NO;
 3738              		.loc 1 285 3 view .LVU1253
 287:Drivers/sdio.h **** 			waitresp = SDIO_RESPONSE_LONG;
 3739              		.loc 1 287 10 view .LVU1254
 291:Drivers/sdio.h **** 		SDIO->ARG = arg; 								// The arg must be set before the command.
 3740              		.loc 1 291 3 view .LVU1255
 291:Drivers/sdio.h **** 		SDIO->ARG = arg; 								// The arg must be set before the command.
 3741              		.loc 1 291 13 is_stmt 0 view .LVU1256
 3742 00aa 434B     		ldr	r3, .L367+12
 3743 00ac 40F2FF7E 		movw	lr, #2047
 292:Drivers/sdio.h **** 		SDIO->CMD = (cmd | SDIO_CMD_CPSMEN | waitresp);	// Set the command and associated bits.
 3744              		.loc 1 292 13 view .LVU1257
 3745 00b0 4FF4007C 		mov	ip, #512
 293:Drivers/sdio.h **** 	}
 3746              		.loc 1 293 13 view .LVU1258
 3747 00b4 4FF48A61 		mov	r1, #1104
 291:Drivers/sdio.h **** 		SDIO->ARG = arg; 								// The arg must be set before the command.
 3748              		.loc 1 291 13 view .LVU1259
 3749 00b8 C3F838E0 		str	lr, [r3, #56]
 292:Drivers/sdio.h **** 		SDIO->CMD = (cmd | SDIO_CMD_CPSMEN | waitresp);	// Set the command and associated bits.
 3750              		.loc 1 292 3 is_stmt 1 view .LVU1260
 292:Drivers/sdio.h **** 		SDIO->CMD = (cmd | SDIO_CMD_CPSMEN | waitresp);	// Set the command and associated bits.
 3751              		.loc 1 292 13 is_stmt 0 view .LVU1261
 3752 00bc C3F808C0 		str	ip, [r3, #8]
 293:Drivers/sdio.h **** 	}
 3753              		.loc 1 293 3 is_stmt 1 view .LVU1262
 293:Drivers/sdio.h **** 	}
 3754              		.loc 1 293 13 is_stmt 0 view .LVU1263
 3755 00c0 D960     		str	r1, [r3, #12]
 3756              	.LVL275:
 3757              	.L306:
 293:Drivers/sdio.h **** 	}
 3758              		.loc 1 293 13 view .LVU1264
 3759              	.LBE981:
 3760              	.LBE980:
 316:Drivers/sdio.h **** 		return result;
 3761              		.loc 1 316 3 is_stmt 1 view .LVU1265
 316:Drivers/sdio.h **** 		return result;
 3762              		.loc 1 316 37 view .LVU1266
 3763              	.LBB982:
 3764              	.LBI976:
 331:Drivers/sdio.h **** 		uint32_t status = SDIO->STA & 0xFFF;
ARM GAS  /var/folders/84/_x1cyy_j36g486tldtwl37280000gn/T//ccBOLdZ4.s 			page 96


 3765              		.loc 1 331 8 view .LVU1267
 3766              	.LBB978:
 332:Drivers/sdio.h **** 
 3767              		.loc 1 332 3 view .LVU1268
 332:Drivers/sdio.h **** 
 3768              		.loc 1 332 27 is_stmt 0 view .LVU1269
 3769 00c2 3D4B     		ldr	r3, .L367+12
 3770 00c4 596B     		ldr	r1, [r3, #52]
 3771              	.LVL276:
 334:Drivers/sdio.h **** 			return InProgress;
 3772              		.loc 1 334 3 is_stmt 1 view .LVU1270
 3773 00c6 11F4006F 		tst	r1, #2048
 3774 00ca FAD1     		bne	.L306
 338:Drivers/sdio.h **** 			SDIO->ICR = SDIO_STA_CMDREND;
 3775              		.loc 1 338 3 view .LVU1271
 3776 00cc 11F0400F 		tst	r1, #64
 3777 00d0 DFD0     		beq	.L307
 339:Drivers/sdio.h **** 			return Success;
 3778              		.loc 1 339 4 view .LVU1272
 339:Drivers/sdio.h **** 			return Success;
 3779              		.loc 1 339 14 is_stmt 0 view .LVU1273
 3780 00d2 4022     		movs	r2, #64
 3781              	.LVL277:
 339:Drivers/sdio.h **** 			return Success;
 3782              		.loc 1 339 14 view .LVU1274
 3783 00d4 9A63     		str	r2, [r3, #56]
 340:Drivers/sdio.h **** 		}
 3784              		.loc 1 340 4 is_stmt 1 view .LVU1275
 3785              	.LVL278:
 3786              	.L308:
 340:Drivers/sdio.h **** 		}
 3787              		.loc 1 340 4 is_stmt 0 view .LVU1276
 3788              	.LBE978:
 3789              	.LBE982:
 3790              	.LBE984:
 3791              	.LBE986:
 3792              	.LBE988:
 3793              	.LBE990:
 3794              	.LBE992:
 421:Drivers/sdio.h **** 				return false;
 422:Drivers/sdio.h **** 			}
 423:Drivers/sdio.h **** 		}
 424:Drivers/sdio.h **** 
 425:Drivers/sdio.h **** 		uint32_t cmd = count > 1 ? 25 : 24;
 3795              		.loc 1 425 3 is_stmt 1 view .LVU1277
 426:Drivers/sdio.h **** 		if (sendCommandWait(cmd, address) != Success) {
 3796              		.loc 1 426 3 view .LVU1278
 3797              	.LBB993:
 3798              	.LBI993:
 313:Drivers/sdio.h **** 		Error result;
 3799              		.loc 1 313 8 view .LVU1279
 3800              	.LBB994:
 314:Drivers/sdio.h **** 		sendCommand(cmd, arg);
 3801              		.loc 1 314 3 view .LVU1280
 315:Drivers/sdio.h **** 		while ((result = commandResult()) == InProgress);
 3802              		.loc 1 315 3 view .LVU1281
 3803              	.LBB995:
ARM GAS  /var/folders/84/_x1cyy_j36g486tldtwl37280000gn/T//ccBOLdZ4.s 			page 97


 3804              	.LBI995:
 281:Drivers/sdio.h **** 		cmd &= 0x3F;	// SDIO_CMD_CMDINDEX_MASK
 3805              		.loc 1 281 7 view .LVU1282
 3806              	.LBB996:
 282:Drivers/sdio.h **** 
 3807              		.loc 1 282 3 view .LVU1283
 284:Drivers/sdio.h **** 		if (cmd == 0) {
 3808              		.loc 1 284 3 view .LVU1284
 285:Drivers/sdio.h **** 			waitresp = SDIO_RESPONSE_NO;
 3809              		.loc 1 285 3 view .LVU1285
 287:Drivers/sdio.h **** 			waitresp = SDIO_RESPONSE_LONG;
 3810              		.loc 1 287 10 view .LVU1286
 291:Drivers/sdio.h **** 		SDIO->ARG = arg; 								// The arg must be set before the command.
 3811              		.loc 1 291 3 view .LVU1287
 291:Drivers/sdio.h **** 		SDIO->ARG = arg; 								// The arg must be set before the command.
 3812              		.loc 1 291 13 is_stmt 0 view .LVU1288
 3813 00d6 384B     		ldr	r3, .L367+12
 3814 00d8 40F2FF71 		movw	r1, #2047
 293:Drivers/sdio.h **** 	}
 3815              		.loc 1 293 13 view .LVU1289
 3816 00dc 4FF48B62 		mov	r2, #1112
 291:Drivers/sdio.h **** 		SDIO->ARG = arg; 								// The arg must be set before the command.
 3817              		.loc 1 291 13 view .LVU1290
 3818 00e0 9963     		str	r1, [r3, #56]
 292:Drivers/sdio.h **** 		SDIO->CMD = (cmd | SDIO_CMD_CPSMEN | waitresp);	// Set the command and associated bits.
 3819              		.loc 1 292 3 is_stmt 1 view .LVU1291
 292:Drivers/sdio.h **** 		SDIO->CMD = (cmd | SDIO_CMD_CPSMEN | waitresp);	// Set the command and associated bits.
 3820              		.loc 1 292 13 is_stmt 0 view .LVU1292
 3821 00e2 9860     		str	r0, [r3, #8]
 293:Drivers/sdio.h **** 	}
 3822              		.loc 1 293 3 is_stmt 1 view .LVU1293
 293:Drivers/sdio.h **** 	}
 3823              		.loc 1 293 13 is_stmt 0 view .LVU1294
 3824 00e4 DA60     		str	r2, [r3, #12]
 3825              	.LVL279:
 3826              	.L312:
 293:Drivers/sdio.h **** 	}
 3827              		.loc 1 293 13 view .LVU1295
 3828              	.LBE996:
 3829              	.LBE995:
 316:Drivers/sdio.h **** 		return result;
 3830              		.loc 1 316 3 is_stmt 1 view .LVU1296
 316:Drivers/sdio.h **** 		return result;
 3831              		.loc 1 316 37 view .LVU1297
 3832              	.LBB997:
 3833              	.LBI997:
 331:Drivers/sdio.h **** 		uint32_t status = SDIO->STA & 0xFFF;
 3834              		.loc 1 331 8 view .LVU1298
 3835              	.LBB998:
 332:Drivers/sdio.h **** 
 3836              		.loc 1 332 3 view .LVU1299
 332:Drivers/sdio.h **** 
 3837              		.loc 1 332 27 is_stmt 0 view .LVU1300
 3838 00e6 344A     		ldr	r2, .L367+12
 3839 00e8 536B     		ldr	r3, [r2, #52]
 3840              	.LVL280:
 334:Drivers/sdio.h **** 			return InProgress;
ARM GAS  /var/folders/84/_x1cyy_j36g486tldtwl37280000gn/T//ccBOLdZ4.s 			page 98


 3841              		.loc 1 334 3 is_stmt 1 view .LVU1301
 3842 00ea 1905     		lsls	r1, r3, #20
 3843 00ec FBD4     		bmi	.L312
 338:Drivers/sdio.h **** 			SDIO->ICR = SDIO_STA_CMDREND;
 3844              		.loc 1 338 3 view .LVU1302
 3845 00ee 5806     		lsls	r0, r3, #25
 3846              	.LVL281:
 338:Drivers/sdio.h **** 			SDIO->ICR = SDIO_STA_CMDREND;
 3847              		.loc 1 338 3 is_stmt 0 view .LVU1303
 3848 00f0 09D4     		bmi	.L363
 343:Drivers/sdio.h **** 			SDIO->ICR = SDIO_STA_CMDSENT;
 3849              		.loc 1 343 3 is_stmt 1 view .LVU1304
 3850 00f2 1906     		lsls	r1, r3, #24
 3851 00f4 47D4     		bmi	.L364
 348:Drivers/sdio.h **** 			SDIO->ICR = SDIO_STA_CTIMEOUT;
 3852              		.loc 1 348 3 view .LVU1305
 3853 00f6 5807     		lsls	r0, r3, #29
 3854 00f8 4FD4     		bmi	.L365
 353:Drivers/sdio.h **** 			SDIO->ICR = SDIO_STA_CCRCFAIL;
 3855              		.loc 1 353 3 view .LVU1306
 3856 00fa D907     		lsls	r1, r3, #31
 3857 00fc 46D4     		bmi	.L366
 3858              	.LVL282:
 3859              	.L295:
 353:Drivers/sdio.h **** 			SDIO->ICR = SDIO_STA_CCRCFAIL;
 3860              		.loc 1 353 3 is_stmt 0 view .LVU1307
 3861              	.LBE998:
 3862              	.LBE997:
 3863              	.LBE994:
 3864              	.LBE993:
 3865              	.LBE939:
 3866              	.LBE938:
 3867              	.LBE1022:
 3868              	.LBE1026:
 3869              	.LBE1030:
  89:Src/Disk/diskio.cpp **** 		return RES_ERROR;
 3870              		.loc 4 89 10 view .LVU1308
 3871 00fe 0120     		movs	r0, #1
 3872              	.LVL283:
 3873              	.L351:
  90:Src/Disk/diskio.cpp **** 	}
  91:Src/Disk/diskio.cpp **** 
  92:Src/Disk/diskio.cpp **** 	//sdio.status();
  93:Src/Disk/diskio.cpp **** 
  94:Src/Disk/diskio.cpp **** 	if (sdio.write(buff, sector, count)) {
  95:Src/Disk/diskio.cpp **** 		return RES_OK;
  96:Src/Disk/diskio.cpp **** 	}
  97:Src/Disk/diskio.cpp **** 
  98:Src/Disk/diskio.cpp **** 	return RES_ERROR;
  99:Src/Disk/diskio.cpp **** }
 3874              		.loc 4 99 1 view .LVU1309
 3875 0100 02B0     		add	sp, sp, #8
 3876              		.cfi_remember_state
 3877              		.cfi_def_cfa_offset 24
 3878              		@ sp needed
 3879 0102 BDE8F081 		pop	{r4, r5, r6, r7, r8, pc}
 3880              	.LVL284:
ARM GAS  /var/folders/84/_x1cyy_j36g486tldtwl37280000gn/T//ccBOLdZ4.s 			page 99


 3881              	.L363:
 3882              		.cfi_restore_state
 3883              	.LBB1031:
 3884              	.LBB1027:
 3885              	.LBB1023:
 3886              	.LBB1019:
 3887              	.LBB1016:
 3888              	.LBB1008:
 3889              	.LBB1005:
 3890              	.LBB1002:
 3891              	.LBB999:
 339:Drivers/sdio.h **** 			return Success;
 3892              		.loc 1 339 4 is_stmt 1 view .LVU1310
 339:Drivers/sdio.h **** 			return Success;
 3893              		.loc 1 339 14 is_stmt 0 view .LVU1311
 3894 0106 4021     		movs	r1, #64
 3895 0108 9163     		str	r1, [r2, #56]
 340:Drivers/sdio.h **** 		}
 3896              		.loc 1 340 4 is_stmt 1 view .LVU1312
 3897              	.LVL285:
 3898              	.L314:
 340:Drivers/sdio.h **** 		}
 3899              		.loc 1 340 4 is_stmt 0 view .LVU1313
 3900              	.LBE999:
 3901              	.LBE1002:
 317:Drivers/sdio.h **** 	}
 3902              		.loc 1 317 3 is_stmt 1 view .LVU1314
 317:Drivers/sdio.h **** 	}
 3903              		.loc 1 317 3 is_stmt 0 view .LVU1315
 3904              	.LBE1005:
 3905              	.LBE1008:
 427:Drivers/sdio.h **** 			return false;
 428:Drivers/sdio.h **** 		}
 429:Drivers/sdio.h **** 
 430:Drivers/sdio.h **** 		SDIO->DCTRL = 0;
 3906              		.loc 1 430 3 is_stmt 1 view .LVU1316
 3907              		.loc 1 430 15 is_stmt 0 view .LVU1317
 3908 010a DFF8AC80 		ldr	r8, .L367+12
 431:Drivers/sdio.h **** 
 432:Drivers/sdio.h **** 		init_dma((uint32_t)buffer, MEM_TO_SD);
 3909              		.loc 1 432 11 view .LVU1318
 3910 010e 2748     		ldr	r0, .L367
 430:Drivers/sdio.h **** 
 3911              		.loc 1 430 15 view .LVU1319
 3912 0110 0022     		movs	r2, #0
 3913 0112 C8F82C20 		str	r2, [r8, #44]
 3914              		.loc 1 432 3 is_stmt 1 view .LVU1320
 3915              		.loc 1 432 11 is_stmt 0 view .LVU1321
 3916 0116 06EB4521 		add	r1, r6, r5, lsl #9
 3917 011a FFF7FEFF 		bl	_ZN4Sdio8init_dmaEmNS_7DmaTypeE
 3918              	.LVL286:
 433:Drivers/sdio.h **** 
 434:Drivers/sdio.h **** 		SDIO->DTIMER = 12000000;	// 500ms (on 24Mhz bus clock)
 3919              		.loc 1 434 3 is_stmt 1 view .LVU1322
 3920              		.loc 1 434 16 is_stmt 0 view .LVU1323
 3921 011e 274A     		ldr	r2, .L367+16
 3922 0120 C8F82420 		str	r2, [r8, #36]
ARM GAS  /var/folders/84/_x1cyy_j36g486tldtwl37280000gn/T//ccBOLdZ4.s 			page 100


 435:Drivers/sdio.h **** 		SDIO->DLEN = 512 * count;
 3923              		.loc 1 435 3 is_stmt 1 view .LVU1324
 3924              		.loc 1 435 14 is_stmt 0 view .LVU1325
 3925 0124 4FF40070 		mov	r0, #512
 436:Drivers/sdio.h **** 		SDIO->DCTRL = (9 << 4) | SDIO_DCTRL_DTEN | SDIO_DCTRL_DMAEN;
 3926              		.loc 1 436 15 view .LVU1326
 3927 0128 9923     		movs	r3, #153
 435:Drivers/sdio.h **** 		SDIO->DLEN = 512 * count;
 3928              		.loc 1 435 14 view .LVU1327
 3929 012a C8F82800 		str	r0, [r8, #40]
 3930              		.loc 1 436 3 is_stmt 1 view .LVU1328
 3931              		.loc 1 436 15 is_stmt 0 view .LVU1329
 3932 012e C8F82C30 		str	r3, [r8, #44]
 3933              	.L317:
 437:Drivers/sdio.h **** 
 438:Drivers/sdio.h **** 		while (dma_busy_) {};
 3934              		.loc 1 438 3 is_stmt 1 view .LVU1330
 3935              		.loc 1 438 10 view .LVU1331
 3936 0132 A17C     		ldrb	r1, [r4, #18]	@ zero_extendqisi2
 3937 0134 0029     		cmp	r1, #0
 3938 0136 FCD1     		bne	.L317
 3939              	.L343:
 3940              	.LBB1009:
 3941              	.LBB1010:
 439:Drivers/sdio.h **** 
 440:Drivers/sdio.h **** 		//stop transfer if needed
 441:Drivers/sdio.h **** 		if (count > 1) {
 442:Drivers/sdio.h **** 			if (sendCommandWait(12, 0) != Success) {
 443:Drivers/sdio.h **** 				return false;
 444:Drivers/sdio.h **** 			}
 445:Drivers/sdio.h **** 		}
 446:Drivers/sdio.h **** 
 447:Drivers/sdio.h **** 		// check errors
 448:Drivers/sdio.h **** 		const uint32_t succes_flags = SDIO_STA_DBCKEND | SDIO_STA_DATAEND;
 449:Drivers/sdio.h **** 		const uint32_t error_flags = SDIO_STA_DCRCFAIL | SDIO_STA_TXUNDERR | SDIO_STA_DTIMEOUT | SDIO_STA
 450:Drivers/sdio.h **** 
 451:Drivers/sdio.h **** 		while (true) {
 3942              		.loc 1 451 3 view .LVU1332
 3943              	.LBB1011:
 452:Drivers/sdio.h **** 			volatile uint32_t flags = SDIO->STA;
 3944              		.loc 1 452 4 view .LVU1333
 453:Drivers/sdio.h **** 			if (flags & (succes_flags | error_flags)) {
 454:Drivers/sdio.h **** 				if (flags & error_flags) {
 3945              		.loc 1 454 5 view .LVU1334
 455:Drivers/sdio.h **** 					return false;
 456:Drivers/sdio.h **** 				} else if (flags & succes_flags) {
 3946              		.loc 1 456 12 view .LVU1335
 452:Drivers/sdio.h **** 			if (flags & (succes_flags | error_flags)) {
 3947              		.loc 1 452 36 is_stmt 0 view .LVU1336
 3948 0138 1F4A     		ldr	r2, .L367+12
 3949 013a 506B     		ldr	r0, [r2, #52]
 3950 013c 0190     		str	r0, [sp, #4]
 453:Drivers/sdio.h **** 			if (flags & (succes_flags | error_flags)) {
 3951              		.loc 1 453 4 is_stmt 1 view .LVU1337
 453:Drivers/sdio.h **** 			if (flags & (succes_flags | error_flags)) {
 3952              		.loc 1 453 8 is_stmt 0 view .LVU1338
 3953 013e 0199     		ldr	r1, [sp, #4]
ARM GAS  /var/folders/84/_x1cyy_j36g486tldtwl37280000gn/T//ccBOLdZ4.s 			page 101


 453:Drivers/sdio.h **** 			if (flags & (succes_flags | error_flags)) {
 3954              		.loc 1 453 14 view .LVU1339
 3955 0140 40F21A7E 		movw	lr, #1818
 453:Drivers/sdio.h **** 			if (flags & (succes_flags | error_flags)) {
 3956              		.loc 1 453 4 view .LVU1340
 3957 0144 11EA0E0F 		tst	r1, lr
 454:Drivers/sdio.h **** 					return false;
 3958              		.loc 1 454 15 view .LVU1341
 3959 0148 40F21A2C 		movw	ip, #538
 453:Drivers/sdio.h **** 				if (flags & error_flags) {
 3960              		.loc 1 453 4 view .LVU1342
 3961 014c F4D0     		beq	.L343
 454:Drivers/sdio.h **** 					return false;
 3962              		.loc 1 454 9 view .LVU1343
 3963 014e 019B     		ldr	r3, [sp, #4]
 454:Drivers/sdio.h **** 					return false;
 3964              		.loc 1 454 5 view .LVU1344
 3965 0150 13EA0C0F 		tst	r3, ip
 3966 0154 D3D1     		bne	.L295
 3967              		.loc 1 456 16 view .LVU1345
 3968 0156 019A     		ldr	r2, [sp, #4]
 3969              		.loc 1 456 12 view .LVU1346
 3970 0158 12F4A06F 		tst	r2, #1280
 3971 015c ECD0     		beq	.L343
 3972              	.LVL287:
 3973              		.loc 1 456 12 view .LVU1347
 3974              	.LBE1011:
 3975              	.LBE1010:
 3976              	.LBE1009:
 3977              	.LBE1016:
 3978              	.LBE1019:
  82:Drivers/sdio.h **** 		}
