ARM GAS  /var/folders/84/_x1cyy_j36g486tldtwl37280000gn/T//ccgGnd1a.s 			page 1


   1              		.cpu cortex-m4
   2              		.eabi_attribute 27, 1
   3              		.eabi_attribute 28, 1
   4              		.eabi_attribute 20, 1
   5              		.eabi_attribute 21, 1
   6              		.eabi_attribute 23, 3
   7              		.eabi_attribute 24, 1
   8              		.eabi_attribute 25, 1
   9              		.eabi_attribute 26, 1
  10              		.eabi_attribute 30, 2
  11              		.eabi_attribute 34, 1
  12              		.eabi_attribute 18, 4
  13              		.file	"disk.cpp"
  14              		.text
  15              	.Ltext0:
  16              		.cfi_sections	.debug_frame
  17              		.section	.text.startup._GLOBAL__sub_I_disk,"ax",%progbits
  18              		.align	1
  19              		.p2align 2,,3
  20              		.arch armv7e-m
  21              		.syntax unified
  22              		.thumb
  23              		.thumb_func
  24              		.fpu fpv4-sp-d16
  26              	_GLOBAL__sub_I_disk:
  27              	.LFB2568:
  28              		.file 1 "Src/Disk/disk.cpp"
   1:Src/Disk/disk.cpp **** #include "disk.h"
   2:Src/Disk/disk.cpp **** 
   3:Src/Disk/disk.cpp **** Disk disk;
  29              		.loc 1 3 10 view -0
  30              		.cfi_startproc
  31              		@ args = 0, pretend = 0, frame = 0
  32              		@ frame_needed = 0, uses_anonymous_args = 0
  33              		@ link register save eliminated.
  34              	.LVL0:
  35              	.LBB219:
  36              	.LBI219:
  37              		.loc 1 3 10 view .LVU1
  38              	.LBB220:
  39              	.LBB221:
  40              	.LBI221:
  41              		.file 2 "Src/Disk/disk.h"
   1:Src/Disk/disk.h **** #ifndef Disk_h
   2:Src/Disk/disk.h **** #define Disk_h
   3:Src/Disk/disk.h **** 
   4:Src/Disk/disk.h **** #include "sdio.h"
   5:Src/Disk/disk.h **** #include "ff.h"
   6:Src/Disk/disk.h **** #include "directory.h"
   7:Src/Disk/disk.h **** #include "entry.h"
   8:Src/Disk/disk.h **** #include "file.h"
   9:Src/Disk/disk.h **** 
  10:Src/Disk/disk.h **** class Disk {
  42              		.loc 2 10 7 view .LVU2
  43              	.LBB222:
  44              	.LBI222:
  45              		.file 3 "Src/Disk/directory.h"
ARM GAS  /var/folders/84/_x1cyy_j36g486tldtwl37280000gn/T//ccgGnd1a.s 			page 2


   1:Src/Disk/directory.h **** #ifndef Directory_h
   2:Src/Disk/directory.h **** #define Directory_h
   3:Src/Disk/directory.h **** 
   4:Src/Disk/directory.h **** #include "ff.h"
   5:Src/Disk/directory.h **** #include "stringBuilder.h"
   6:Src/Disk/directory.h **** 
   7:Src/Disk/directory.h **** class Directory {
  46              		.loc 3 7 7 view .LVU3
  47              	.LBB223:
  48              	.LBI223:
  49              		.file 4 "/Users/joostbooy/Desktop/Code/stm32/lib/utils/stringBuilder.h"
   1:/Users/joostbooy/Desktop/Code/stm32/lib/utils/stringBuilder.h **** #ifndef StringBuilder_h
   2:/Users/joostbooy/Desktop/Code/stm32/lib/utils/stringBuilder.h **** #define StringBuilder_h
   3:/Users/joostbooy/Desktop/Code/stm32/lib/utils/stringBuilder.h **** 
   4:/Users/joostbooy/Desktop/Code/stm32/lib/utils/stringBuilder.h **** #include "stmf4lib.h"
   5:/Users/joostbooy/Desktop/Code/stm32/lib/utils/stringBuilder.h **** 
   6:/Users/joostbooy/Desktop/Code/stm32/lib/utils/stringBuilder.h **** class StringBuilder {
   7:/Users/joostbooy/Desktop/Code/stm32/lib/utils/stringBuilder.h **** 
   8:/Users/joostbooy/Desktop/Code/stm32/lib/utils/stringBuilder.h **** public:
   9:/Users/joostbooy/Desktop/Code/stm32/lib/utils/stringBuilder.h **** 
  10:/Users/joostbooy/Desktop/Code/stm32/lib/utils/stringBuilder.h **** 	StringBuilder(char* ptr, int kMax) {
  11:/Users/joostbooy/Desktop/Code/stm32/lib/utils/stringBuilder.h **** 		char_buff_ = ptr;
  12:/Users/joostbooy/Desktop/Code/stm32/lib/utils/stringBuilder.h **** 		kMax_ = kMax;
  13:/Users/joostbooy/Desktop/Code/stm32/lib/utils/stringBuilder.h **** 		clear();
  14:/Users/joostbooy/Desktop/Code/stm32/lib/utils/stringBuilder.h **** 	}
  15:/Users/joostbooy/Desktop/Code/stm32/lib/utils/stringBuilder.h **** 
  16:/Users/joostbooy/Desktop/Code/stm32/lib/utils/stringBuilder.h **** 	void clear() {
  17:/Users/joostbooy/Desktop/Code/stm32/lib/utils/stringBuilder.h **** 		pos = 0;
  18:/Users/joostbooy/Desktop/Code/stm32/lib/utils/stringBuilder.h **** 		char_buff_[0] = '\0';
  19:/Users/joostbooy/Desktop/Code/stm32/lib/utils/stringBuilder.h **** 	}
  20:/Users/joostbooy/Desktop/Code/stm32/lib/utils/stringBuilder.h **** 
  21:/Users/joostbooy/Desktop/Code/stm32/lib/utils/stringBuilder.h **** 	uint8_t length() {
  22:/Users/joostbooy/Desktop/Code/stm32/lib/utils/stringBuilder.h **** 		return pos;
  23:/Users/joostbooy/Desktop/Code/stm32/lib/utils/stringBuilder.h **** 	}
  24:/Users/joostbooy/Desktop/Code/stm32/lib/utils/stringBuilder.h **** 
  25:/Users/joostbooy/Desktop/Code/stm32/lib/utils/stringBuilder.h **** 	const char* read()  {
  26:/Users/joostbooy/Desktop/Code/stm32/lib/utils/stringBuilder.h **** 		return char_buff_;
  27:/Users/joostbooy/Desktop/Code/stm32/lib/utils/stringBuilder.h **** 	}
  28:/Users/joostbooy/Desktop/Code/stm32/lib/utils/stringBuilder.h **** 
  29:/Users/joostbooy/Desktop/Code/stm32/lib/utils/stringBuilder.h **** 	void truncate(uint8_t last) {
  30:/Users/joostbooy/Desktop/Code/stm32/lib/utils/stringBuilder.h **** 		if (last < pos) {
  31:/Users/joostbooy/Desktop/Code/stm32/lib/utils/stringBuilder.h **** 			pos = last;
  32:/Users/joostbooy/Desktop/Code/stm32/lib/utils/stringBuilder.h **** 			char_buff_[pos] = '\0';
  33:/Users/joostbooy/Desktop/Code/stm32/lib/utils/stringBuilder.h **** 		}
  34:/Users/joostbooy/Desktop/Code/stm32/lib/utils/stringBuilder.h **** 	}
  35:/Users/joostbooy/Desktop/Code/stm32/lib/utils/stringBuilder.h **** 
  36:/Users/joostbooy/Desktop/Code/stm32/lib/utils/stringBuilder.h **** 	// Char
  37:/Users/joostbooy/Desktop/Code/stm32/lib/utils/stringBuilder.h **** 	const char* append(const char* txt) {
  38:/Users/joostbooy/Desktop/Code/stm32/lib/utils/stringBuilder.h **** 		copy(&char_buff_[pos], txt);
  39:/Users/joostbooy/Desktop/Code/stm32/lib/utils/stringBuilder.h **** 		return read();
  40:/Users/joostbooy/Desktop/Code/stm32/lib/utils/stringBuilder.h **** 	}
  41:/Users/joostbooy/Desktop/Code/stm32/lib/utils/stringBuilder.h **** 
  42:/Users/joostbooy/Desktop/Code/stm32/lib/utils/stringBuilder.h **** 	const char* prepend(const char* txt) {
  43:/Users/joostbooy/Desktop/Code/stm32/lib/utils/stringBuilder.h **** 		char copy_buff[kMax_];
  44:/Users/joostbooy/Desktop/Code/stm32/lib/utils/stringBuilder.h **** 		for (int i = 0; i <= pos; ++i) {
  45:/Users/joostbooy/Desktop/Code/stm32/lib/utils/stringBuilder.h **** 			copy_buff[i] = char_buff_[i];
  46:/Users/joostbooy/Desktop/Code/stm32/lib/utils/stringBuilder.h **** 		}
ARM GAS  /var/folders/84/_x1cyy_j36g486tldtwl37280000gn/T//ccgGnd1a.s 			page 3


  47:/Users/joostbooy/Desktop/Code/stm32/lib/utils/stringBuilder.h **** 		write(txt, &copy_buff[0]);
  48:/Users/joostbooy/Desktop/Code/stm32/lib/utils/stringBuilder.h **** 		return read();
  49:/Users/joostbooy/Desktop/Code/stm32/lib/utils/stringBuilder.h **** 	}
  50:/Users/joostbooy/Desktop/Code/stm32/lib/utils/stringBuilder.h **** 
  51:/Users/joostbooy/Desktop/Code/stm32/lib/utils/stringBuilder.h **** 	// Int
  52:/Users/joostbooy/Desktop/Code/stm32/lib/utils/stringBuilder.h **** 	const char* append(int32_t value) {
  53:/Users/joostbooy/Desktop/Code/stm32/lib/utils/stringBuilder.h **** 		char int_buffer[kMax_];
  54:/Users/joostbooy/Desktop/Code/stm32/lib/utils/stringBuilder.h **** 		itoa(value, int_buffer, 10);
  55:/Users/joostbooy/Desktop/Code/stm32/lib/utils/stringBuilder.h **** 		copy(&char_buff_[pos], int_buffer);
  56:/Users/joostbooy/Desktop/Code/stm32/lib/utils/stringBuilder.h **** 		return read();
  57:/Users/joostbooy/Desktop/Code/stm32/lib/utils/stringBuilder.h **** 	}
  58:/Users/joostbooy/Desktop/Code/stm32/lib/utils/stringBuilder.h **** 
  59:/Users/joostbooy/Desktop/Code/stm32/lib/utils/stringBuilder.h **** 	const char* prepend(int32_t value) {
  60:/Users/joostbooy/Desktop/Code/stm32/lib/utils/stringBuilder.h **** 		char copy_buff[kMax_];
  61:/Users/joostbooy/Desktop/Code/stm32/lib/utils/stringBuilder.h **** 		for (int i = 0; i <= pos; ++i) {
  62:/Users/joostbooy/Desktop/Code/stm32/lib/utils/stringBuilder.h **** 			copy_buff[i] = char_buff_[i];
  63:/Users/joostbooy/Desktop/Code/stm32/lib/utils/stringBuilder.h **** 		}
  64:/Users/joostbooy/Desktop/Code/stm32/lib/utils/stringBuilder.h **** 		write(value, &copy_buff[0]);
  65:/Users/joostbooy/Desktop/Code/stm32/lib/utils/stringBuilder.h **** 		return read();
  66:/Users/joostbooy/Desktop/Code/stm32/lib/utils/stringBuilder.h **** 	}
  67:/Users/joostbooy/Desktop/Code/stm32/lib/utils/stringBuilder.h **** 
  68:/Users/joostbooy/Desktop/Code/stm32/lib/utils/stringBuilder.h **** 	// Builders
  69:/Users/joostbooy/Desktop/Code/stm32/lib/utils/stringBuilder.h **** 	template <typename type_a>
  70:/Users/joostbooy/Desktop/Code/stm32/lib/utils/stringBuilder.h **** 	const char* write(type_a a) {
  71:/Users/joostbooy/Desktop/Code/stm32/lib/utils/stringBuilder.h **** 		clear();
  72:/Users/joostbooy/Desktop/Code/stm32/lib/utils/stringBuilder.h **** 		append(a);
  73:/Users/joostbooy/Desktop/Code/stm32/lib/utils/stringBuilder.h **** 		return read();
  74:/Users/joostbooy/Desktop/Code/stm32/lib/utils/stringBuilder.h **** 	}
  75:/Users/joostbooy/Desktop/Code/stm32/lib/utils/stringBuilder.h **** 
  76:/Users/joostbooy/Desktop/Code/stm32/lib/utils/stringBuilder.h **** 	template <typename type_a, typename type_b>
  77:/Users/joostbooy/Desktop/Code/stm32/lib/utils/stringBuilder.h **** 	const char* write(type_a a, type_b b) {
  78:/Users/joostbooy/Desktop/Code/stm32/lib/utils/stringBuilder.h **** 		clear();
  79:/Users/joostbooy/Desktop/Code/stm32/lib/utils/stringBuilder.h **** 		append(a);
  80:/Users/joostbooy/Desktop/Code/stm32/lib/utils/stringBuilder.h **** 		append(b);
  81:/Users/joostbooy/Desktop/Code/stm32/lib/utils/stringBuilder.h **** 		return read();
  82:/Users/joostbooy/Desktop/Code/stm32/lib/utils/stringBuilder.h **** 	}
  83:/Users/joostbooy/Desktop/Code/stm32/lib/utils/stringBuilder.h **** 
  84:/Users/joostbooy/Desktop/Code/stm32/lib/utils/stringBuilder.h **** 	template <typename type_a, typename type_b, typename type_c>
  85:/Users/joostbooy/Desktop/Code/stm32/lib/utils/stringBuilder.h **** 	const char* write(type_a a, type_b b, type_c c) {
  86:/Users/joostbooy/Desktop/Code/stm32/lib/utils/stringBuilder.h **** 		clear();
  87:/Users/joostbooy/Desktop/Code/stm32/lib/utils/stringBuilder.h **** 		append(a);
  88:/Users/joostbooy/Desktop/Code/stm32/lib/utils/stringBuilder.h **** 		append(b);
  89:/Users/joostbooy/Desktop/Code/stm32/lib/utils/stringBuilder.h **** 		append(c);
  90:/Users/joostbooy/Desktop/Code/stm32/lib/utils/stringBuilder.h **** 		return read();
  91:/Users/joostbooy/Desktop/Code/stm32/lib/utils/stringBuilder.h **** 	}
  92:/Users/joostbooy/Desktop/Code/stm32/lib/utils/stringBuilder.h **** 
  93:/Users/joostbooy/Desktop/Code/stm32/lib/utils/stringBuilder.h **** 	template <typename type_a, typename type_b, typename type_c, typename type_d>
  94:/Users/joostbooy/Desktop/Code/stm32/lib/utils/stringBuilder.h **** 	const char* write(type_a a, type_b b, type_c c, type_d d) {
  95:/Users/joostbooy/Desktop/Code/stm32/lib/utils/stringBuilder.h **** 		clear();
  96:/Users/joostbooy/Desktop/Code/stm32/lib/utils/stringBuilder.h **** 		append(a);
  97:/Users/joostbooy/Desktop/Code/stm32/lib/utils/stringBuilder.h **** 		append(b);
  98:/Users/joostbooy/Desktop/Code/stm32/lib/utils/stringBuilder.h **** 		append(c);
  99:/Users/joostbooy/Desktop/Code/stm32/lib/utils/stringBuilder.h **** 		append(d);
 100:/Users/joostbooy/Desktop/Code/stm32/lib/utils/stringBuilder.h **** 		return read();
 101:/Users/joostbooy/Desktop/Code/stm32/lib/utils/stringBuilder.h **** 	}
 102:/Users/joostbooy/Desktop/Code/stm32/lib/utils/stringBuilder.h **** 
 103:/Users/joostbooy/Desktop/Code/stm32/lib/utils/stringBuilder.h **** 	template <typename type_a, typename type_b, typename type_c, typename type_d, typename type_e>
ARM GAS  /var/folders/84/_x1cyy_j36g486tldtwl37280000gn/T//ccgGnd1a.s 			page 4


 104:/Users/joostbooy/Desktop/Code/stm32/lib/utils/stringBuilder.h **** 	const char* write(type_a a, type_b b, type_c c, type_d d, type_e e) {
 105:/Users/joostbooy/Desktop/Code/stm32/lib/utils/stringBuilder.h **** 		clear();
 106:/Users/joostbooy/Desktop/Code/stm32/lib/utils/stringBuilder.h **** 		append(a);
 107:/Users/joostbooy/Desktop/Code/stm32/lib/utils/stringBuilder.h **** 		append(b);
 108:/Users/joostbooy/Desktop/Code/stm32/lib/utils/stringBuilder.h **** 		append(c);
 109:/Users/joostbooy/Desktop/Code/stm32/lib/utils/stringBuilder.h **** 		append(d);
 110:/Users/joostbooy/Desktop/Code/stm32/lib/utils/stringBuilder.h **** 		append(e);
 111:/Users/joostbooy/Desktop/Code/stm32/lib/utils/stringBuilder.h **** 		return read();
 112:/Users/joostbooy/Desktop/Code/stm32/lib/utils/stringBuilder.h **** 	}
 113:/Users/joostbooy/Desktop/Code/stm32/lib/utils/stringBuilder.h **** 
 114:/Users/joostbooy/Desktop/Code/stm32/lib/utils/stringBuilder.h **** 	template <typename type_a, typename type_b, typename type_c, typename type_d, typename type_e, typ
 115:/Users/joostbooy/Desktop/Code/stm32/lib/utils/stringBuilder.h **** 	const char* write(type_a a, type_b b, type_c c, type_d d, type_e e, type_f f) {
 116:/Users/joostbooy/Desktop/Code/stm32/lib/utils/stringBuilder.h **** 		clear();
 117:/Users/joostbooy/Desktop/Code/stm32/lib/utils/stringBuilder.h **** 		append(a);
 118:/Users/joostbooy/Desktop/Code/stm32/lib/utils/stringBuilder.h **** 		append(b);
 119:/Users/joostbooy/Desktop/Code/stm32/lib/utils/stringBuilder.h **** 		append(c);
 120:/Users/joostbooy/Desktop/Code/stm32/lib/utils/stringBuilder.h **** 		append(d);
 121:/Users/joostbooy/Desktop/Code/stm32/lib/utils/stringBuilder.h **** 		append(e);
 122:/Users/joostbooy/Desktop/Code/stm32/lib/utils/stringBuilder.h **** 		append(f);
 123:/Users/joostbooy/Desktop/Code/stm32/lib/utils/stringBuilder.h **** 		return read();
 124:/Users/joostbooy/Desktop/Code/stm32/lib/utils/stringBuilder.h **** 	}
 125:/Users/joostbooy/Desktop/Code/stm32/lib/utils/stringBuilder.h **** 
 126:/Users/joostbooy/Desktop/Code/stm32/lib/utils/stringBuilder.h **** private:
 127:/Users/joostbooy/Desktop/Code/stm32/lib/utils/stringBuilder.h **** 	uint8_t pos = 0;
 128:/Users/joostbooy/Desktop/Code/stm32/lib/utils/stringBuilder.h **** 	char* char_buff_;
 129:/Users/joostbooy/Desktop/Code/stm32/lib/utils/stringBuilder.h **** 	int kMax_;
 130:/Users/joostbooy/Desktop/Code/stm32/lib/utils/stringBuilder.h **** 
 131:/Users/joostbooy/Desktop/Code/stm32/lib/utils/stringBuilder.h **** 	void copy(char* dest, const char* src) {
 132:/Users/joostbooy/Desktop/Code/stm32/lib/utils/stringBuilder.h **** 		if (pos >= kMax_) { return; }
 133:/Users/joostbooy/Desktop/Code/stm32/lib/utils/stringBuilder.h **** 
 134:/Users/joostbooy/Desktop/Code/stm32/lib/utils/stringBuilder.h **** 		while (*src != '\0') {
 135:/Users/joostbooy/Desktop/Code/stm32/lib/utils/stringBuilder.h **** 			*dest++ = *src++;
 136:/Users/joostbooy/Desktop/Code/stm32/lib/utils/stringBuilder.h **** 			if (++pos >= kMax_){
 137:/Users/joostbooy/Desktop/Code/stm32/lib/utils/stringBuilder.h **** 				break;
 138:/Users/joostbooy/Desktop/Code/stm32/lib/utils/stringBuilder.h **** 			}
 139:/Users/joostbooy/Desktop/Code/stm32/lib/utils/stringBuilder.h **** 		}
 140:/Users/joostbooy/Desktop/Code/stm32/lib/utils/stringBuilder.h **** 		*dest = '\0';
 141:/Users/joostbooy/Desktop/Code/stm32/lib/utils/stringBuilder.h **** 	}
 142:/Users/joostbooy/Desktop/Code/stm32/lib/utils/stringBuilder.h **** };
 143:/Users/joostbooy/Desktop/Code/stm32/lib/utils/stringBuilder.h **** 
 144:/Users/joostbooy/Desktop/Code/stm32/lib/utils/stringBuilder.h **** 
 145:/Users/joostbooy/Desktop/Code/stm32/lib/utils/stringBuilder.h **** template <const uint8_t kMax>
 146:/Users/joostbooy/Desktop/Code/stm32/lib/utils/stringBuilder.h **** class StringBuilderBase : public StringBuilder {
 147:/Users/joostbooy/Desktop/Code/stm32/lib/utils/stringBuilder.h **** 
 148:/Users/joostbooy/Desktop/Code/stm32/lib/utils/stringBuilder.h **** public:
 149:/Users/joostbooy/Desktop/Code/stm32/lib/utils/stringBuilder.h **** 	StringBuilderBase() : StringBuilder(char_buff, kMax) {};
  50              		.loc 4 149 2 view .LVU4
  51              	.LBB224:
  52              	.LBB225:
  53              	.LBI225:
  10:/Users/joostbooy/Desktop/Code/stm32/lib/utils/stringBuilder.h **** 		char_buff_ = ptr;
  54              		.loc 4 10 2 view .LVU5
  55              	.LBB226:
  56              	.LBB227:
  10:/Users/joostbooy/Desktop/Code/stm32/lib/utils/stringBuilder.h **** 		char_buff_ = ptr;
  57              		.loc 4 10 37 is_stmt 0 view .LVU6
  58 0000 484B     		ldr	r3, .L4
ARM GAS  /var/folders/84/_x1cyy_j36g486tldtwl37280000gn/T//ccgGnd1a.s 			page 5


  59              	.LBE227:
  60              	.LBE226:
  61              	.LBE225:
  62              	.LBE224:
  63              	.LBE223:
  64              	.LBE222:
  65              	.LBE221:
  66              	.LBE220:
  67              	.LBE219:
  68              		.loc 1 3 10 view .LVU7
  69 0002 70B4     		push	{r4, r5, r6}
  70              		.cfi_def_cfa_offset 12
  71              		.cfi_offset 4, -12
  72              		.cfi_offset 5, -8
  73              		.cfi_offset 6, -4
  74              	.LBB542:
  75              	.LBB540:
  76              	.LBB538:
  77              	.LBB305:
  78              	.LBB252:
  79              	.LBB253:
  80              	.LBB254:
  81              	.LBB255:
  82              	.LBB256:
  11:/Users/joostbooy/Desktop/Code/stm32/lib/utils/stringBuilder.h **** 		kMax_ = kMax;
  83              		.loc 4 11 14 view .LVU8
  84 0004 03F16800 		add	r0, r3, #104
  85              	.LBE256:
  86              	.LBE255:
  87              	.LBE254:
  88              	.LBE253:
  89              	.LBE252:
  90              	.LBB273:
  91              	.LBB274:
  92              	.LBB275:
  93              	.LBB276:
  94              	.LBB277:
  95 0008 03F1B801 		add	r1, r3, #184
  96              	.LBE277:
  97              	.LBE276:
  98              	.LBE275:
  99              	.LBE274:
 100              	.LBE273:
 101              	.LBB294:
 102              	.LBB247:
 103              	.LBB242:
 104              	.LBB237:
 105              	.LBB232:
 106 000c 03F11804 		add	r4, r3, #24
 107              	.LBE232:
 108              	.LBE237:
 109              	.LBE242:
 110              	.LBE247:
 111              	.LBE294:
 112              	.LBE305:
 113              	.LBB306:
 114              	.LBB307:
ARM GAS  /var/folders/84/_x1cyy_j36g486tldtwl37280000gn/T//ccgGnd1a.s 			page 6


 115              	.LBB308:
 116              	.LBB309:
 117              	.LBB310:
 118              	.LBB311:
 119              	.LBB312:
 120              	.LBB313:
 121 0010 03F58475 		add	r5, r3, #264
 122              	.LBE313:
 123              	.LBE312:
 124              	.LBE311:
 125              	.LBE310:
 126              	.LBE309:
 127              	.LBE308:
 128              	.LBE307:
 129              	.LBE306:
 130              	.LBB503:
 131              	.LBB295:
 132              	.LBB270:
 133              	.LBB267:
 134              	.LBB264:
 135              	.LBB261:
 136 0014 1866     		str	r0, [r3, #96]
 137              	.LBE261:
 138              	.LBE264:
 139              	.LBE267:
 140              	.LBE270:
 141              	.LBE295:
 142              	.LBB296:
 143              	.LBB291:
 144              	.LBB288:
 145              	.LBB285:
 146              	.LBB282:
 147 0016 C3F8B010 		str	r1, [r3, #176]
 148              	.LBE282:
 149              	.LBE285:
 150              	.LBE288:
 151              	.LBE291:
 152              	.LBE296:
 153              	.LBE503:
 154              	.LBB504:
 155              	.LBB495:
 156              	.LBB426:
 157              	.LBB410:
 158              	.LBB394:
 159              	.LBB378:
 160              	.LBB362:
 161              	.LBB346:
 162 001a 03F5AC70 		add	r0, r3, #344
 163 001e 03F5C071 		add	r1, r3, #384
 164              	.LBE346:
 165              	.LBE362:
 166              	.LBE378:
 167              	.LBE394:
 168              	.LBE410:
 169              	.LBE426:
 170              	.LBE495:
 171              	.LBE504:
ARM GAS  /var/folders/84/_x1cyy_j36g486tldtwl37280000gn/T//ccgGnd1a.s 			page 7


 172              	.LBB505:
 173              	.LBB297:
 174              	.LBB248:
 175              	.LBB243:
 176              	.LBB238:
 177              	.LBB233:
  10:/Users/joostbooy/Desktop/Code/stm32/lib/utils/stringBuilder.h **** 		char_buff_ = ptr;
 178              		.loc 4 10 37 view .LVU9
 179 0022 0022     		movs	r2, #0
  11:/Users/joostbooy/Desktop/Code/stm32/lib/utils/stringBuilder.h **** 		kMax_ = kMax;
 180              		.loc 4 11 14 view .LVU10
 181 0024 1C61     		str	r4, [r3, #16]
 182              	.LBE233:
 183              	.LBE238:
 184              	.LBE243:
 185              	.LBE248:
 186              	.LBE297:
 187              	.LBE505:
 188              	.LBB506:
 189              	.LBB496:
 190              	.LBB427:
 191              	.LBB411:
 192              	.LBB395:
 193              	.LBB379:
 194              	.LBB363:
 195              	.LBB347:
 196 0026 03F59876 		add	r6, r3, #304
 197 002a C3F80051 		str	r5, [r3, #256]
 198 002e 03F5E874 		add	r4, r3, #464
 199 0032 03F5D475 		add	r5, r3, #424
 200 0036 C3F85001 		str	r0, [r3, #336]
 201 003a C3F87811 		str	r1, [r3, #376]
 202              	.LBE347:
 203              	.LBE363:
 204              	.LBE379:
 205              	.LBE395:
 206              	.LBE411:
 207              	.LBE427:
 208              	.LBE496:
 209              	.LBE506:
 210              	.LBB507:
 211              	.LBB298:
 212              	.LBB249:
 213              	.LBB244:
 214              	.LBB239:
 215              	.LBB234:
  12:/Users/joostbooy/Desktop/Code/stm32/lib/utils/stringBuilder.h **** 		clear();
 216              		.loc 4 12 9 view .LVU11
 217 003e 4020     		movs	r0, #64
 218              	.LBE234:
 219              	.LBE239:
 220              	.LBE244:
 221              	.LBE249:
 222              	.LBE298:
 223              	.LBE507:
 224              	.LBB508:
 225              	.LBB497:
ARM GAS  /var/folders/84/_x1cyy_j36g486tldtwl37280000gn/T//ccgGnd1a.s 			page 8


 226              	.LBB428:
 227              	.LBB412:
 228              	.LBB396:
 229              	.LBB380:
 230              	.LBB364:
 231              	.LBB348:
 232 0040 1021     		movs	r1, #16
  11:/Users/joostbooy/Desktop/Code/stm32/lib/utils/stringBuilder.h **** 		kMax_ = kMax;
 233              		.loc 4 11 14 view .LVU12
 234 0042 C3F82861 		str	r6, [r3, #296]
 235 0046 C3F8A051 		str	r5, [r3, #416]
 236 004a 03F5FC76 		add	r6, r3, #504
 237              	.LBE348:
 238              	.LBE364:
 239              	.LBE380:
 240              	.LBE396:
 241              	.LBE412:
 242              	.LBE428:
 243              	.LBE497:
 244              	.LBE508:
 245              	.LBB509:
 246              	.LBB299:
 247              	.LBB250:
 248              	.LBB245:
 249              	.LBB240:
 250              	.LBB235:
  10:/Users/joostbooy/Desktop/Code/stm32/lib/utils/stringBuilder.h **** 		char_buff_ = ptr;
 251              		.loc 4 10 37 view .LVU13
 252 004e 1A73     		strb	r2, [r3, #12]
  11:/Users/joostbooy/Desktop/Code/stm32/lib/utils/stringBuilder.h **** 		kMax_ = kMax;
 253              		.loc 4 11 3 is_stmt 1 view .LVU14
  12:/Users/joostbooy/Desktop/Code/stm32/lib/utils/stringBuilder.h **** 		clear();
 254              		.loc 4 12 3 view .LVU15
 255              	.LBB228:
 256              	.LBB229:
  18:/Users/joostbooy/Desktop/Code/stm32/lib/utils/stringBuilder.h **** 	}
 257              		.loc 4 18 17 is_stmt 0 view .LVU16
 258 0050 1A76     		strb	r2, [r3, #24]
 259              	.LBE229:
 260              	.LBE228:
 261              	.LBE235:
 262              	.LBE240:
 263              	.LBE245:
 264              	.LBE250:
 265              	.LBE299:
 266              	.LBB300:
 267              	.LBB271:
 268              	.LBB268:
 269              	.LBB265:
 270              	.LBB262:
  10:/Users/joostbooy/Desktop/Code/stm32/lib/utils/stringBuilder.h **** 		char_buff_ = ptr;
 271              		.loc 4 10 37 view .LVU17
 272 0052 83F85C20 		strb	r2, [r3, #92]
 273              	.LBB257:
 274              	.LBB258:
  18:/Users/joostbooy/Desktop/Code/stm32/lib/utils/stringBuilder.h **** 	}
 275              		.loc 4 18 17 view .LVU18
ARM GAS  /var/folders/84/_x1cyy_j36g486tldtwl37280000gn/T//ccgGnd1a.s 			page 9


 276 0056 83F86820 		strb	r2, [r3, #104]
 277              	.LBE258:
 278              	.LBE257:
 279              	.LBE262:
 280              	.LBE265:
 281              	.LBE268:
 282              	.LBE271:
 283              	.LBE300:
 284              	.LBB301:
 285              	.LBB292:
 286              	.LBB289:
 287              	.LBB286:
 288              	.LBB283:
  10:/Users/joostbooy/Desktop/Code/stm32/lib/utils/stringBuilder.h **** 		char_buff_ = ptr;
 289              		.loc 4 10 37 view .LVU19
 290 005a 83F8AC20 		strb	r2, [r3, #172]
 291              	.LBB278:
 292              	.LBB279:
  18:/Users/joostbooy/Desktop/Code/stm32/lib/utils/stringBuilder.h **** 	}
 293              		.loc 4 18 17 view .LVU20
 294 005e 83F8B820 		strb	r2, [r3, #184]
 295              	.LBE279:
 296              	.LBE278:
 297              	.LBE283:
 298              	.LBE286:
 299              	.LBE289:
 300              	.LBE292:
 301              	.LBE301:
 302              	.LBE509:
 303              	.LBB510:
 304              	.LBB498:
 305              	.LBB429:
 306              	.LBB413:
 307              	.LBB397:
 308              	.LBB381:
 309              	.LBB365:
 310              	.LBB349:
  10:/Users/joostbooy/Desktop/Code/stm32/lib/utils/stringBuilder.h **** 		char_buff_ = ptr;
 311              		.loc 4 10 37 view .LVU21
 312 0062 83F8FC20 		strb	r2, [r3, #252]
 313              	.LBB314:
 314              	.LBB315:
  18:/Users/joostbooy/Desktop/Code/stm32/lib/utils/stringBuilder.h **** 	}
 315              		.loc 4 18 17 view .LVU22
 316 0066 83F80821 		strb	r2, [r3, #264]
 317              	.LBE315:
 318              	.LBE314:
  10:/Users/joostbooy/Desktop/Code/stm32/lib/utils/stringBuilder.h **** 		char_buff_ = ptr;
 319              		.loc 4 10 37 view .LVU23
 320 006a 83F82421 		strb	r2, [r3, #292]
 321              	.LBB331:
 322              	.LBB316:
  18:/Users/joostbooy/Desktop/Code/stm32/lib/utils/stringBuilder.h **** 	}
 323              		.loc 4 18 17 view .LVU24
 324 006e 83F83021 		strb	r2, [r3, #304]
 325              	.LBE316:
 326              	.LBE331:
ARM GAS  /var/folders/84/_x1cyy_j36g486tldtwl37280000gn/T//ccgGnd1a.s 			page 10


  10:/Users/joostbooy/Desktop/Code/stm32/lib/utils/stringBuilder.h **** 		char_buff_ = ptr;
 327              		.loc 4 10 37 view .LVU25
 328 0072 83F84C21 		strb	r2, [r3, #332]
 329              	.LBB332:
 330              	.LBB317:
  18:/Users/joostbooy/Desktop/Code/stm32/lib/utils/stringBuilder.h **** 	}
 331              		.loc 4 18 17 view .LVU26
 332 0076 83F85821 		strb	r2, [r3, #344]
 333              	.LBE317:
 334              	.LBE332:
  10:/Users/joostbooy/Desktop/Code/stm32/lib/utils/stringBuilder.h **** 		char_buff_ = ptr;
 335              		.loc 4 10 37 view .LVU27
 336 007a 83F87421 		strb	r2, [r3, #372]
 337              	.LBB333:
 338              	.LBB318:
  18:/Users/joostbooy/Desktop/Code/stm32/lib/utils/stringBuilder.h **** 	}
 339              		.loc 4 18 17 view .LVU28
 340 007e 83F88021 		strb	r2, [r3, #384]
 341              	.LBE318:
 342              	.LBE333:
  10:/Users/joostbooy/Desktop/Code/stm32/lib/utils/stringBuilder.h **** 		char_buff_ = ptr;
 343              		.loc 4 10 37 view .LVU29
 344 0082 83F89C21 		strb	r2, [r3, #412]
 345              	.LBB334:
 346              	.LBB319:
  18:/Users/joostbooy/Desktop/Code/stm32/lib/utils/stringBuilder.h **** 	}
 347              		.loc 4 18 17 view .LVU30
 348 0086 83F8A821 		strb	r2, [r3, #424]
 349              	.LBE319:
 350              	.LBE334:
 351              	.LBE349:
 352              	.LBE365:
 353              	.LBE381:
 354              	.LBE397:
 355              	.LBE413:
 356              	.LBE429:
 357              	.LBE498:
 358              	.LBE510:
 359              	.LBB511:
 360              	.LBB302:
 361              	.LBB251:
 362              	.LBB246:
 363              	.LBB241:
 364              	.LBB236:
  12:/Users/joostbooy/Desktop/Code/stm32/lib/utils/stringBuilder.h **** 		clear();
 365              		.loc 4 12 9 view .LVU31
 366 008a 5861     		str	r0, [r3, #20]
  13:/Users/joostbooy/Desktop/Code/stm32/lib/utils/stringBuilder.h **** 	}
 367              		.loc 4 13 3 is_stmt 1 view .LVU32
 368              	.LBB231:
 369              	.LBI228:
  16:/Users/joostbooy/Desktop/Code/stm32/lib/utils/stringBuilder.h **** 		pos = 0;
 370              		.loc 4 16 7 view .LVU33
 371              	.LVL1:
 372              	.LBB230:
  17:/Users/joostbooy/Desktop/Code/stm32/lib/utils/stringBuilder.h **** 		char_buff_[0] = '\0';
 373              		.loc 4 17 3 view .LVU34
ARM GAS  /var/folders/84/_x1cyy_j36g486tldtwl37280000gn/T//ccgGnd1a.s 			page 11


  18:/Users/joostbooy/Desktop/Code/stm32/lib/utils/stringBuilder.h **** 	}
 374              		.loc 4 18 3 view .LVU35
  18:/Users/joostbooy/Desktop/Code/stm32/lib/utils/stringBuilder.h **** 	}
 375              		.loc 4 18 3 is_stmt 0 view .LVU36
 376              	.LBE230:
 377              	.LBE231:
 378              	.LBE236:
 379              	.LBE241:
 380              	.LBE246:
 381              	.LBE251:
 382              	.LBE302:
 383              	.LBB303:
 384              	.LBI252:
 385              		.loc 4 149 2 is_stmt 1 view .LVU37
 386              	.LBB272:
 387              	.LBB269:
 388              	.LBI254:
  10:/Users/joostbooy/Desktop/Code/stm32/lib/utils/stringBuilder.h **** 		char_buff_ = ptr;
 389              		.loc 4 10 2 view .LVU38
 390              	.LBB266:
 391              	.LBB263:
  11:/Users/joostbooy/Desktop/Code/stm32/lib/utils/stringBuilder.h **** 		kMax_ = kMax;
 392              		.loc 4 11 3 view .LVU39
  12:/Users/joostbooy/Desktop/Code/stm32/lib/utils/stringBuilder.h **** 		clear();
 393              		.loc 4 12 3 view .LVU40
  12:/Users/joostbooy/Desktop/Code/stm32/lib/utils/stringBuilder.h **** 		clear();
 394              		.loc 4 12 9 is_stmt 0 view .LVU41
 395 008c 5866     		str	r0, [r3, #100]
  13:/Users/joostbooy/Desktop/Code/stm32/lib/utils/stringBuilder.h **** 	}
 396              		.loc 4 13 3 is_stmt 1 view .LVU42
 397              	.LBB260:
 398              	.LBI257:
  16:/Users/joostbooy/Desktop/Code/stm32/lib/utils/stringBuilder.h **** 		pos = 0;
 399              		.loc 4 16 7 view .LVU43
 400              	.LVL2:
 401              	.LBB259:
  17:/Users/joostbooy/Desktop/Code/stm32/lib/utils/stringBuilder.h **** 		char_buff_[0] = '\0';
 402              		.loc 4 17 3 view .LVU44
  18:/Users/joostbooy/Desktop/Code/stm32/lib/utils/stringBuilder.h **** 	}
 403              		.loc 4 18 3 view .LVU45
  18:/Users/joostbooy/Desktop/Code/stm32/lib/utils/stringBuilder.h **** 	}
 404              		.loc 4 18 3 is_stmt 0 view .LVU46
 405              	.LBE259:
 406              	.LBE260:
 407              	.LBE263:
 408              	.LBE266:
 409              	.LBE269:
 410              	.LBE272:
 411              	.LBE303:
 412              	.LBB304:
 413              	.LBI273:
 414              		.loc 4 149 2 is_stmt 1 view .LVU47
 415              	.LBB293:
 416              	.LBB290:
 417              	.LBI275:
  10:/Users/joostbooy/Desktop/Code/stm32/lib/utils/stringBuilder.h **** 		char_buff_ = ptr;
 418              		.loc 4 10 2 view .LVU48
ARM GAS  /var/folders/84/_x1cyy_j36g486tldtwl37280000gn/T//ccgGnd1a.s 			page 12


 419              	.LBB287:
 420              	.LBB284:
  11:/Users/joostbooy/Desktop/Code/stm32/lib/utils/stringBuilder.h **** 		kMax_ = kMax;
 421              		.loc 4 11 3 view .LVU49
  12:/Users/joostbooy/Desktop/Code/stm32/lib/utils/stringBuilder.h **** 		clear();
 422              		.loc 4 12 3 view .LVU50
  12:/Users/joostbooy/Desktop/Code/stm32/lib/utils/stringBuilder.h **** 		clear();
 423              		.loc 4 12 9 is_stmt 0 view .LVU51
 424 008e C3F8B400 		str	r0, [r3, #180]
  13:/Users/joostbooy/Desktop/Code/stm32/lib/utils/stringBuilder.h **** 	}
 425              		.loc 4 13 3 is_stmt 1 view .LVU52
 426              	.LBB281:
 427              	.LBI278:
  16:/Users/joostbooy/Desktop/Code/stm32/lib/utils/stringBuilder.h **** 		pos = 0;
 428              		.loc 4 16 7 view .LVU53
 429              	.LVL3:
 430              	.LBB280:
  17:/Users/joostbooy/Desktop/Code/stm32/lib/utils/stringBuilder.h **** 		char_buff_[0] = '\0';
 431              		.loc 4 17 3 view .LVU54
  18:/Users/joostbooy/Desktop/Code/stm32/lib/utils/stringBuilder.h **** 	}
 432              		.loc 4 18 3 view .LVU55
  18:/Users/joostbooy/Desktop/Code/stm32/lib/utils/stringBuilder.h **** 	}
 433              		.loc 4 18 3 is_stmt 0 view .LVU56
 434              	.LBE280:
 435              	.LBE281:
 436              	.LBE284:
 437              	.LBE287:
 438              	.LBE290:
 439              	.LBE293:
 440              	.LBE304:
 441              	.LBE511:
 442              	.LBB512:
 443              	.LBI306:
 444              		.file 5 "Src/Disk/entry.h"
   1:Src/Disk/entry.h **** #ifndef Entry_h
   2:Src/Disk/entry.h **** #define Entry_h
   3:Src/Disk/entry.h **** 
   4:Src/Disk/entry.h **** #include "ff.h"
   5:Src/Disk/entry.h **** #include "stringUtils.h"
   6:Src/Disk/entry.h **** 
   7:Src/Disk/entry.h **** // entry's corresponding to the directory set in directory.h
   8:Src/Disk/entry.h **** 
   9:Src/Disk/entry.h **** class Entry {
 445              		.loc 5 9 7 is_stmt 1 view .LVU57
 446              	.LBB499:
 447              		.loc 5 9 7 view .LVU58
 448              	.LBB430:
 449              	.LBI308:
  10:Src/Disk/entry.h **** 
  11:Src/Disk/entry.h **** public:
  12:Src/Disk/entry.h **** 
  13:Src/Disk/entry.h **** 	enum Filter {
  14:Src/Disk/entry.h **** 		NONE,
  15:Src/Disk/entry.h **** 		PROJECT,
  16:Src/Disk/entry.h **** 		CALIBRATION,
  17:Src/Disk/entry.h **** 		FOLDER
  18:Src/Disk/entry.h **** 	};
ARM GAS  /var/folders/84/_x1cyy_j36g486tldtwl37280000gn/T//ccgGnd1a.s 			page 13


  19:Src/Disk/entry.h **** 
  20:Src/Disk/entry.h **** 	struct List {
 450              		.loc 5 20 9 view .LVU59
 451              	.LBB414:
 452              	.LBI309:
 453              		.loc 4 149 2 view .LVU60
 454              	.LBB398:
 455              	.LBB382:
 456              	.LBI311:
  10:/Users/joostbooy/Desktop/Code/stm32/lib/utils/stringBuilder.h **** 		char_buff_ = ptr;
 457              		.loc 4 10 2 view .LVU61
 458              	.LBB366:
 459              	.LBB350:
  11:/Users/joostbooy/Desktop/Code/stm32/lib/utils/stringBuilder.h **** 		kMax_ = kMax;
 460              		.loc 4 11 3 view .LVU62
  12:/Users/joostbooy/Desktop/Code/stm32/lib/utils/stringBuilder.h **** 		clear();
 461              		.loc 4 12 3 view .LVU63
  11:/Users/joostbooy/Desktop/Code/stm32/lib/utils/stringBuilder.h **** 		kMax_ = kMax;
 462              		.loc 4 11 14 is_stmt 0 view .LVU64
 463 0092 03F50875 		add	r5, r3, #544
  12:/Users/joostbooy/Desktop/Code/stm32/lib/utils/stringBuilder.h **** 		clear();
 464              		.loc 4 12 9 view .LVU65
 465 0096 C3F80411 		str	r1, [r3, #260]
  13:/Users/joostbooy/Desktop/Code/stm32/lib/utils/stringBuilder.h **** 	}
 466              		.loc 4 13 3 is_stmt 1 view .LVU66
 467              	.LVL4:
 468              	.LBB335:
 469              	.LBI314:
  16:/Users/joostbooy/Desktop/Code/stm32/lib/utils/stringBuilder.h **** 		pos = 0;
 470              		.loc 4 16 7 view .LVU67
 471              	.LBB320:
  17:/Users/joostbooy/Desktop/Code/stm32/lib/utils/stringBuilder.h **** 		char_buff_[0] = '\0';
 472              		.loc 4 17 3 view .LVU68
  18:/Users/joostbooy/Desktop/Code/stm32/lib/utils/stringBuilder.h **** 	}
 473              		.loc 4 18 3 view .LVU69
  18:/Users/joostbooy/Desktop/Code/stm32/lib/utils/stringBuilder.h **** 	}
 474              		.loc 4 18 3 is_stmt 0 view .LVU70
 475              	.LBE320:
 476              	.LBE335:
 477              	.LBE350:
 478              	.LBE366:
 479              	.LBE382:
 480              	.LBE398:
 481              	.LBE414:
 482              	.LBE430:
   9:Src/Disk/entry.h **** 
 483              		.loc 5 9 7 is_stmt 1 view .LVU71
   9:Src/Disk/entry.h **** 
 484              		.loc 5 9 7 view .LVU72
 485              	.LBB431:
 486              		.loc 5 20 9 view .LVU73
 487              	.LBB415:
 488              		.loc 4 149 2 view .LVU74
 489              	.LBB399:
 490              	.LBB383:
  10:/Users/joostbooy/Desktop/Code/stm32/lib/utils/stringBuilder.h **** 		char_buff_ = ptr;
 491              		.loc 4 10 2 view .LVU75
ARM GAS  /var/folders/84/_x1cyy_j36g486tldtwl37280000gn/T//ccgGnd1a.s 			page 14


 492              	.LBB367:
 493              	.LBB351:
  11:/Users/joostbooy/Desktop/Code/stm32/lib/utils/stringBuilder.h **** 		kMax_ = kMax;
 494              		.loc 4 11 3 view .LVU76
  12:/Users/joostbooy/Desktop/Code/stm32/lib/utils/stringBuilder.h **** 		clear();
 495              		.loc 4 12 3 view .LVU77
  12:/Users/joostbooy/Desktop/Code/stm32/lib/utils/stringBuilder.h **** 		clear();
 496              		.loc 4 12 9 is_stmt 0 view .LVU78
 497 009a C3F82C11 		str	r1, [r3, #300]
  13:/Users/joostbooy/Desktop/Code/stm32/lib/utils/stringBuilder.h **** 	}
 498              		.loc 4 13 3 is_stmt 1 view .LVU79
 499              	.LBB336:
  16:/Users/joostbooy/Desktop/Code/stm32/lib/utils/stringBuilder.h **** 		pos = 0;
 500              		.loc 4 16 7 view .LVU80
 501              	.LVL5:
 502              	.LBB321:
  17:/Users/joostbooy/Desktop/Code/stm32/lib/utils/stringBuilder.h **** 		char_buff_[0] = '\0';
 503              		.loc 4 17 3 view .LVU81
  18:/Users/joostbooy/Desktop/Code/stm32/lib/utils/stringBuilder.h **** 	}
 504              		.loc 4 18 3 view .LVU82
  18:/Users/joostbooy/Desktop/Code/stm32/lib/utils/stringBuilder.h **** 	}
 505              		.loc 4 18 3 is_stmt 0 view .LVU83
 506              	.LBE321:
 507              	.LBE336:
 508              	.LBE351:
 509              	.LBE367:
 510              	.LBE383:
 511              	.LBE399:
 512              	.LBE415:
 513              	.LBE431:
   9:Src/Disk/entry.h **** 
 514              		.loc 5 9 7 is_stmt 1 view .LVU84
   9:Src/Disk/entry.h **** 
 515              		.loc 5 9 7 view .LVU85
 516              	.LBB432:
 517              		.loc 5 20 9 view .LVU86
 518              	.LBB416:
 519              		.loc 4 149 2 view .LVU87
 520              	.LBB400:
 521              	.LBB384:
  10:/Users/joostbooy/Desktop/Code/stm32/lib/utils/stringBuilder.h **** 		char_buff_ = ptr;
 522              		.loc 4 10 2 view .LVU88
 523              	.LBB368:
 524              	.LBB352:
  11:/Users/joostbooy/Desktop/Code/stm32/lib/utils/stringBuilder.h **** 		kMax_ = kMax;
 525              		.loc 4 11 3 view .LVU89
  12:/Users/joostbooy/Desktop/Code/stm32/lib/utils/stringBuilder.h **** 		clear();
 526              		.loc 4 12 3 view .LVU90
  12:/Users/joostbooy/Desktop/Code/stm32/lib/utils/stringBuilder.h **** 		clear();
 527              		.loc 4 12 9 is_stmt 0 view .LVU91
 528 009e C3F85411 		str	r1, [r3, #340]
  13:/Users/joostbooy/Desktop/Code/stm32/lib/utils/stringBuilder.h **** 	}
 529              		.loc 4 13 3 is_stmt 1 view .LVU92
 530              	.LBB337:
  16:/Users/joostbooy/Desktop/Code/stm32/lib/utils/stringBuilder.h **** 		pos = 0;
 531              		.loc 4 16 7 view .LVU93
 532              	.LVL6:
ARM GAS  /var/folders/84/_x1cyy_j36g486tldtwl37280000gn/T//ccgGnd1a.s 			page 15


 533              	.LBB322:
  17:/Users/joostbooy/Desktop/Code/stm32/lib/utils/stringBuilder.h **** 		char_buff_[0] = '\0';
 534              		.loc 4 17 3 view .LVU94
  18:/Users/joostbooy/Desktop/Code/stm32/lib/utils/stringBuilder.h **** 	}
 535              		.loc 4 18 3 view .LVU95
  18:/Users/joostbooy/Desktop/Code/stm32/lib/utils/stringBuilder.h **** 	}
 536              		.loc 4 18 3 is_stmt 0 view .LVU96
 537              	.LBE322:
 538              	.LBE337:
 539              	.LBE352:
 540              	.LBE368:
 541              	.LBE384:
 542              	.LBE400:
 543              	.LBE416:
 544              	.LBE432:
   9:Src/Disk/entry.h **** 
 545              		.loc 5 9 7 is_stmt 1 view .LVU97
   9:Src/Disk/entry.h **** 
 546              		.loc 5 9 7 view .LVU98
 547              	.LBB433:
 548              		.loc 5 20 9 view .LVU99
 549              	.LBB417:
 550              		.loc 4 149 2 view .LVU100
 551              	.LBB401:
 552              	.LBB385:
  10:/Users/joostbooy/Desktop/Code/stm32/lib/utils/stringBuilder.h **** 		char_buff_ = ptr;
 553              		.loc 4 10 2 view .LVU101
 554              	.LBB369:
 555              	.LBB353:
  11:/Users/joostbooy/Desktop/Code/stm32/lib/utils/stringBuilder.h **** 		kMax_ = kMax;
 556              		.loc 4 11 3 view .LVU102
  12:/Users/joostbooy/Desktop/Code/stm32/lib/utils/stringBuilder.h **** 		clear();
 557              		.loc 4 12 3 view .LVU103
  12:/Users/joostbooy/Desktop/Code/stm32/lib/utils/stringBuilder.h **** 		clear();
 558              		.loc 4 12 9 is_stmt 0 view .LVU104
 559 00a2 C3F87C11 		str	r1, [r3, #380]
  13:/Users/joostbooy/Desktop/Code/stm32/lib/utils/stringBuilder.h **** 	}
 560              		.loc 4 13 3 is_stmt 1 view .LVU105
 561              	.LBB338:
  16:/Users/joostbooy/Desktop/Code/stm32/lib/utils/stringBuilder.h **** 		pos = 0;
 562              		.loc 4 16 7 view .LVU106
 563              	.LVL7:
 564              	.LBB323:
  17:/Users/joostbooy/Desktop/Code/stm32/lib/utils/stringBuilder.h **** 		char_buff_[0] = '\0';
 565              		.loc 4 17 3 view .LVU107
  18:/Users/joostbooy/Desktop/Code/stm32/lib/utils/stringBuilder.h **** 	}
 566              		.loc 4 18 3 view .LVU108
  18:/Users/joostbooy/Desktop/Code/stm32/lib/utils/stringBuilder.h **** 	}
 567              		.loc 4 18 3 is_stmt 0 view .LVU109
 568              	.LBE323:
 569              	.LBE338:
 570              	.LBE353:
 571              	.LBE369:
 572              	.LBE385:
 573              	.LBE401:
 574              	.LBE417:
 575              	.LBE433:
ARM GAS  /var/folders/84/_x1cyy_j36g486tldtwl37280000gn/T//ccgGnd1a.s 			page 16


   9:Src/Disk/entry.h **** 
 576              		.loc 5 9 7 is_stmt 1 view .LVU110
   9:Src/Disk/entry.h **** 
 577              		.loc 5 9 7 view .LVU111
 578              	.LBB434:
 579              		.loc 5 20 9 view .LVU112
 580              	.LBB418:
 581              		.loc 4 149 2 view .LVU113
 582              	.LBB402:
 583              	.LBB386:
  10:/Users/joostbooy/Desktop/Code/stm32/lib/utils/stringBuilder.h **** 		char_buff_ = ptr;
 584              		.loc 4 10 2 view .LVU114
 585              	.LBB370:
 586              	.LBB354:
  11:/Users/joostbooy/Desktop/Code/stm32/lib/utils/stringBuilder.h **** 		kMax_ = kMax;
 587              		.loc 4 11 3 view .LVU115
  12:/Users/joostbooy/Desktop/Code/stm32/lib/utils/stringBuilder.h **** 		clear();
 588              		.loc 4 12 3 view .LVU116
  12:/Users/joostbooy/Desktop/Code/stm32/lib/utils/stringBuilder.h **** 		clear();
 589              		.loc 4 12 9 is_stmt 0 view .LVU117
 590 00a6 C3F8A411 		str	r1, [r3, #420]
  13:/Users/joostbooy/Desktop/Code/stm32/lib/utils/stringBuilder.h **** 	}
 591              		.loc 4 13 3 is_stmt 1 view .LVU118
 592              	.LBB339:
  16:/Users/joostbooy/Desktop/Code/stm32/lib/utils/stringBuilder.h **** 		pos = 0;
 593              		.loc 4 16 7 view .LVU119
 594              	.LVL8:
 595              	.LBB324:
  17:/Users/joostbooy/Desktop/Code/stm32/lib/utils/stringBuilder.h **** 		char_buff_[0] = '\0';
 596              		.loc 4 17 3 view .LVU120
  18:/Users/joostbooy/Desktop/Code/stm32/lib/utils/stringBuilder.h **** 	}
 597              		.loc 4 18 3 view .LVU121
  18:/Users/joostbooy/Desktop/Code/stm32/lib/utils/stringBuilder.h **** 	}
 598              		.loc 4 18 3 is_stmt 0 view .LVU122
 599              	.LBE324:
 600              	.LBE339:
 601              	.LBE354:
 602              	.LBE370:
 603              	.LBE386:
 604              	.LBE402:
 605              	.LBE418:
 606              	.LBE434:
   9:Src/Disk/entry.h **** 
 607              		.loc 5 9 7 is_stmt 1 view .LVU123
   9:Src/Disk/entry.h **** 
 608              		.loc 5 9 7 view .LVU124
 609              	.LBB435:
 610              		.loc 5 20 9 view .LVU125
 611              	.LBB419:
 612              		.loc 4 149 2 view .LVU126
 613              	.LBB403:
 614              	.LBB387:
  10:/Users/joostbooy/Desktop/Code/stm32/lib/utils/stringBuilder.h **** 		char_buff_ = ptr;
 615              		.loc 4 10 2 view .LVU127
 616              	.LBB371:
 617              	.LBB355:
  10:/Users/joostbooy/Desktop/Code/stm32/lib/utils/stringBuilder.h **** 		char_buff_ = ptr;
ARM GAS  /var/folders/84/_x1cyy_j36g486tldtwl37280000gn/T//ccgGnd1a.s 			page 17


 618              		.loc 4 10 37 is_stmt 0 view .LVU128
 619 00aa 83F8C421 		strb	r2, [r3, #452]
  11:/Users/joostbooy/Desktop/Code/stm32/lib/utils/stringBuilder.h **** 		kMax_ = kMax;
 620              		.loc 4 11 3 is_stmt 1 view .LVU129
 621              	.LBB340:
 622              	.LBB325:
  18:/Users/joostbooy/Desktop/Code/stm32/lib/utils/stringBuilder.h **** 	}
 623              		.loc 4 18 17 is_stmt 0 view .LVU130
 624 00ae 83F8D021 		strb	r2, [r3, #464]
 625              	.LBE325:
 626              	.LBE340:
  10:/Users/joostbooy/Desktop/Code/stm32/lib/utils/stringBuilder.h **** 		char_buff_ = ptr;
 627              		.loc 4 10 37 view .LVU131
 628 00b2 83F8EC21 		strb	r2, [r3, #492]
 629              	.LBB341:
 630              	.LBB326:
  18:/Users/joostbooy/Desktop/Code/stm32/lib/utils/stringBuilder.h **** 	}
 631              		.loc 4 18 17 view .LVU132
 632 00b6 83F8F821 		strb	r2, [r3, #504]
 633              	.LBE326:
 634              	.LBE341:
  10:/Users/joostbooy/Desktop/Code/stm32/lib/utils/stringBuilder.h **** 		char_buff_ = ptr;
 635              		.loc 4 10 37 view .LVU133
 636 00ba 83F81422 		strb	r2, [r3, #532]
 637              	.LBB342:
 638              	.LBB327:
  18:/Users/joostbooy/Desktop/Code/stm32/lib/utils/stringBuilder.h **** 	}
 639              		.loc 4 18 17 view .LVU134
 640 00be 83F82022 		strb	r2, [r3, #544]
 641              	.LBE327:
 642              	.LBE342:
 643              	.LBE355:
 644              	.LBE371:
 645              	.LBE387:
 646              	.LBE403:
 647              	.LBE419:
 648              	.LBE435:
 649              	.LBB436:
 650              	.LBB437:
 651              	.LBB438:
 652              	.LBB439:
 653              	.LBB440:
  10:/Users/joostbooy/Desktop/Code/stm32/lib/utils/stringBuilder.h **** 		char_buff_ = ptr;
 654              		.loc 4 10 37 view .LVU135
 655 00c2 83F84822 		strb	r2, [r3, #584]
 656              	.LBB441:
 657              	.LBB442:
  18:/Users/joostbooy/Desktop/Code/stm32/lib/utils/stringBuilder.h **** 	}
 658              		.loc 4 18 17 view .LVU136
 659 00c6 83F85422 		strb	r2, [r3, #596]
 660              	.LBE442:
 661              	.LBE441:
 662              	.LBE440:
 663              	.LBE439:
 664              	.LBE438:
 665              	.LBE437:
 666              	.LBE436:
ARM GAS  /var/folders/84/_x1cyy_j36g486tldtwl37280000gn/T//ccgGnd1a.s 			page 18


 667              	.LBB457:
 668              	.LBB458:
 669              	.LBB459:
 670              	.LBB460:
 671              	.LBB461:
  10:/Users/joostbooy/Desktop/Code/stm32/lib/utils/stringBuilder.h **** 		char_buff_ = ptr;
 672              		.loc 4 10 37 view .LVU137
 673 00ca 83F89822 		strb	r2, [r3, #664]
 674              	.LBB462:
 675              	.LBB463:
  18:/Users/joostbooy/Desktop/Code/stm32/lib/utils/stringBuilder.h **** 	}
 676              		.loc 4 18 17 view .LVU138
 677 00ce 83F8A422 		strb	r2, [r3, #676]
 678              	.LBE463:
 679              	.LBE462:
 680              	.LBE461:
 681              	.LBE460:
 682              	.LBE459:
 683              	.LBE458:
 684              	.LBE457:
 685              	.LBE499:
 686              	.LBE512:
 687              	.LBB513:
 688              	.LBB514:
 689              	.LBB515:
 690              	.LBB516:
 691              	.LBB517:
 692              	.LBB518:
  10:/Users/joostbooy/Desktop/Code/stm32/lib/utils/stringBuilder.h **** 		char_buff_ = ptr;
 693              		.loc 4 10 37 view .LVU139
 694 00d2 83F8F822 		strb	r2, [r3, #760]
 695              	.LBB519:
 696              	.LBB520:
  18:/Users/joostbooy/Desktop/Code/stm32/lib/utils/stringBuilder.h **** 	}
 697              		.loc 4 18 17 view .LVU140
 698 00d6 83F80423 		strb	r2, [r3, #772]
 699              	.LBE520:
 700              	.LBE519:
 701              	.LBE518:
 702              	.LBE517:
 703              	.LBE516:
 704              	.LBE515:
 705              	.LBE514:
 706              	.LBE513:
 707              	.LBB533:
 708              	.LBB500:
 709              	.LBB482:
 710              	.LBB420:
 711              	.LBB404:
 712              	.LBB388:
 713              	.LBB372:
 714              	.LBB356:
  11:/Users/joostbooy/Desktop/Code/stm32/lib/utils/stringBuilder.h **** 		kMax_ = kMax;
 715              		.loc 4 11 14 view .LVU141
 716 00da C3F8C841 		str	r4, [r3, #456]
  12:/Users/joostbooy/Desktop/Code/stm32/lib/utils/stringBuilder.h **** 		clear();
 717              		.loc 4 12 3 is_stmt 1 view .LVU142
ARM GAS  /var/folders/84/_x1cyy_j36g486tldtwl37280000gn/T//ccgGnd1a.s 			page 19


 718              	.LBE356:
 719              	.LBE372:
 720              	.LBE388:
 721              	.LBE404:
 722              	.LBE420:
 723              	.LBE482:
 724              	.LBB483:
 725              	.LBB454:
 726              	.LBB451:
 727              	.LBB448:
 728              	.LBB445:
  12:/Users/joostbooy/Desktop/Code/stm32/lib/utils/stringBuilder.h **** 		clear();
 729              		.loc 4 12 9 is_stmt 0 view .LVU143
 730 00de C3F85002 		str	r0, [r3, #592]
  11:/Users/joostbooy/Desktop/Code/stm32/lib/utils/stringBuilder.h **** 		kMax_ = kMax;
 731              		.loc 4 11 14 view .LVU144
 732 00e2 03F51574 		add	r4, r3, #596
 733              	.LBE445:
 734              	.LBE448:
 735              	.LBE451:
 736              	.LBE454:
 737              	.LBE483:
 738              	.LBB484:
 739              	.LBB478:
 740              	.LBB474:
 741              	.LBB470:
 742              	.LBB466:
  12:/Users/joostbooy/Desktop/Code/stm32/lib/utils/stringBuilder.h **** 		clear();
 743              		.loc 4 12 9 view .LVU145
 744 00e6 C3F8A002 		str	r0, [r3, #672]
 745              	.LBE466:
 746              	.LBE470:
 747              	.LBE474:
 748              	.LBE478:
 749              	.LBE484:
   9:Src/Disk/entry.h **** 
 750              		.loc 5 9 7 view .LVU146
 751 00ea C3F8E822 		str	r2, [r3, #744]
 752 00ee 83F8EC22 		strb	r2, [r3, #748]
 753              	.LBE500:
 754              	.LBE533:
 755              	.LBB534:
 756              	.LBB531:
 757              	.LBB529:
 758              	.LBB527:
 759              	.LBB525:
 760              	.LBB523:
  12:/Users/joostbooy/Desktop/Code/stm32/lib/utils/stringBuilder.h **** 		clear();
 761              		.loc 4 12 9 view .LVU147
 762 00f2 C3F80003 		str	r0, [r3, #768]
  11:/Users/joostbooy/Desktop/Code/stm32/lib/utils/stringBuilder.h **** 		kMax_ = kMax;
 763              		.loc 4 11 14 view .LVU148
 764 00f6 03F54172 		add	r2, r3, #772
 765              	.LBE523:
 766              	.LBE525:
 767              	.LBE527:
 768              	.LBE529:
ARM GAS  /var/folders/84/_x1cyy_j36g486tldtwl37280000gn/T//ccgGnd1a.s 			page 20


 769              	.LBE531:
 770              	.LBE534:
 771              	.LBB535:
 772              	.LBB501:
 773              	.LBB485:
 774              	.LBB479:
 775              	.LBB475:
 776              	.LBB471:
 777              	.LBB467:
 778 00fa 03F52970 		add	r0, r3, #676
 779              	.LBE467:
 780              	.LBE471:
 781              	.LBE475:
 782              	.LBE479:
 783              	.LBE485:
 784              	.LBB486:
 785              	.LBB421:
 786              	.LBB405:
 787              	.LBB389:
 788              	.LBB373:
 789              	.LBB357:
 790 00fe C3F8F061 		str	r6, [r3, #496]
 791 0102 C3F81852 		str	r5, [r3, #536]
 792              	.LBE357:
 793              	.LBE373:
 794              	.LBE389:
 795              	.LBE405:
 796              	.LBE421:
 797              	.LBE486:
 798              	.LBB487:
 799              	.LBB455:
 800              	.LBB452:
 801              	.LBB449:
 802              	.LBB446:
 803 0106 C3F84C42 		str	r4, [r3, #588]
 804              	.LBE446:
 805              	.LBE449:
 806              	.LBE452:
 807              	.LBE455:
 808              	.LBE487:
 809              	.LBB488:
 810              	.LBB422:
 811              	.LBB406:
 812              	.LBB390:
 813              	.LBB374:
 814              	.LBB358:
  12:/Users/joostbooy/Desktop/Code/stm32/lib/utils/stringBuilder.h **** 		clear();
 815              		.loc 4 12 9 view .LVU149
 816 010a C3F8CC11 		str	r1, [r3, #460]
  13:/Users/joostbooy/Desktop/Code/stm32/lib/utils/stringBuilder.h **** 	}
 817              		.loc 4 13 3 is_stmt 1 view .LVU150
 818              	.LBB343:
  16:/Users/joostbooy/Desktop/Code/stm32/lib/utils/stringBuilder.h **** 		pos = 0;
 819              		.loc 4 16 7 view .LVU151
 820              	.LVL9:
 821              	.LBB328:
  17:/Users/joostbooy/Desktop/Code/stm32/lib/utils/stringBuilder.h **** 		char_buff_[0] = '\0';
ARM GAS  /var/folders/84/_x1cyy_j36g486tldtwl37280000gn/T//ccgGnd1a.s 			page 21


 822              		.loc 4 17 3 view .LVU152
  18:/Users/joostbooy/Desktop/Code/stm32/lib/utils/stringBuilder.h **** 	}
 823              		.loc 4 18 3 view .LVU153
  18:/Users/joostbooy/Desktop/Code/stm32/lib/utils/stringBuilder.h **** 	}
 824              		.loc 4 18 3 is_stmt 0 view .LVU154
 825              	.LBE328:
 826              	.LBE343:
 827              	.LBE358:
 828              	.LBE374:
 829              	.LBE390:
 830              	.LBE406:
 831              	.LBE422:
 832              	.LBE488:
   9:Src/Disk/entry.h **** 
 833              		.loc 5 9 7 is_stmt 1 view .LVU155
   9:Src/Disk/entry.h **** 
 834              		.loc 5 9 7 view .LVU156
 835              	.LBB489:
 836              		.loc 5 20 9 view .LVU157
 837              	.LBB423:
 838              		.loc 4 149 2 view .LVU158
 839              	.LBB407:
 840              	.LBB391:
  10:/Users/joostbooy/Desktop/Code/stm32/lib/utils/stringBuilder.h **** 		char_buff_ = ptr;
 841              		.loc 4 10 2 view .LVU159
 842              	.LBB375:
 843              	.LBB359:
  11:/Users/joostbooy/Desktop/Code/stm32/lib/utils/stringBuilder.h **** 		kMax_ = kMax;
 844              		.loc 4 11 3 view .LVU160
  12:/Users/joostbooy/Desktop/Code/stm32/lib/utils/stringBuilder.h **** 		clear();
 845              		.loc 4 12 3 view .LVU161
  13:/Users/joostbooy/Desktop/Code/stm32/lib/utils/stringBuilder.h **** 	}
 846              		.loc 4 13 3 view .LVU162
 847              	.LBB344:
  16:/Users/joostbooy/Desktop/Code/stm32/lib/utils/stringBuilder.h **** 		pos = 0;
 848              		.loc 4 16 7 view .LVU163
 849              	.LBB329:
  17:/Users/joostbooy/Desktop/Code/stm32/lib/utils/stringBuilder.h **** 		char_buff_[0] = '\0';
 850              		.loc 4 17 3 view .LVU164
  18:/Users/joostbooy/Desktop/Code/stm32/lib/utils/stringBuilder.h **** 	}
 851              		.loc 4 18 3 view .LVU165
  18:/Users/joostbooy/Desktop/Code/stm32/lib/utils/stringBuilder.h **** 	}
 852              		.loc 4 18 3 is_stmt 0 view .LVU166
 853              	.LBE329:
 854              	.LBE344:
 855              	.LBE359:
 856              	.LBE375:
 857              	.LBE391:
 858              	.LBE407:
 859              	.LBE423:
 860              	.LBE489:
   9:Src/Disk/entry.h **** 
 861              		.loc 5 9 7 is_stmt 1 view .LVU167
   9:Src/Disk/entry.h **** 
 862              		.loc 5 9 7 view .LVU168
 863              	.LBB490:
 864              		.loc 5 20 9 view .LVU169
ARM GAS  /var/folders/84/_x1cyy_j36g486tldtwl37280000gn/T//ccgGnd1a.s 			page 22


 865              	.LBB424:
 866              		.loc 4 149 2 view .LVU170
 867              	.LBB408:
 868              	.LBB392:
  10:/Users/joostbooy/Desktop/Code/stm32/lib/utils/stringBuilder.h **** 		char_buff_ = ptr;
 869              		.loc 4 10 2 view .LVU171
 870              	.LBB376:
 871              	.LBB360:
  11:/Users/joostbooy/Desktop/Code/stm32/lib/utils/stringBuilder.h **** 		kMax_ = kMax;
 872              		.loc 4 11 3 view .LVU172
  12:/Users/joostbooy/Desktop/Code/stm32/lib/utils/stringBuilder.h **** 		clear();
 873              		.loc 4 12 3 view .LVU173
  13:/Users/joostbooy/Desktop/Code/stm32/lib/utils/stringBuilder.h **** 	}
 874              		.loc 4 13 3 view .LVU174
 875              	.LBB345:
  16:/Users/joostbooy/Desktop/Code/stm32/lib/utils/stringBuilder.h **** 		pos = 0;
 876              		.loc 4 16 7 view .LVU175
 877              	.LBB330:
  17:/Users/joostbooy/Desktop/Code/stm32/lib/utils/stringBuilder.h **** 		char_buff_[0] = '\0';
 878              		.loc 4 17 3 view .LVU176
  18:/Users/joostbooy/Desktop/Code/stm32/lib/utils/stringBuilder.h **** 	}
 879              		.loc 4 18 3 view .LVU177
  18:/Users/joostbooy/Desktop/Code/stm32/lib/utils/stringBuilder.h **** 	}
 880              		.loc 4 18 3 is_stmt 0 view .LVU178
 881              	.LBE330:
 882              	.LBE345:
 883              	.LBE360:
 884              	.LBE376:
 885              	.LBE392:
 886              	.LBE408:
 887              	.LBE424:
 888              	.LBE490:
   9:Src/Disk/entry.h **** 
 889              		.loc 5 9 7 is_stmt 1 view .LVU179
   9:Src/Disk/entry.h **** 
 890              		.loc 5 9 7 view .LVU180
 891              	.LBB491:
 892              	.LBI436:
 893              		.loc 4 149 2 view .LVU181
 894              	.LBB456:
 895              	.LBB453:
 896              	.LBI438:
  10:/Users/joostbooy/Desktop/Code/stm32/lib/utils/stringBuilder.h **** 		char_buff_ = ptr;
 897              		.loc 4 10 2 view .LVU182
 898              	.LBB450:
 899              	.LBB447:
  11:/Users/joostbooy/Desktop/Code/stm32/lib/utils/stringBuilder.h **** 		kMax_ = kMax;
 900              		.loc 4 11 3 view .LVU183
  12:/Users/joostbooy/Desktop/Code/stm32/lib/utils/stringBuilder.h **** 		clear();
 901              		.loc 4 12 3 view .LVU184
  13:/Users/joostbooy/Desktop/Code/stm32/lib/utils/stringBuilder.h **** 	}
 902              		.loc 4 13 3 view .LVU185
 903              	.LBB444:
 904              	.LBI441:
  16:/Users/joostbooy/Desktop/Code/stm32/lib/utils/stringBuilder.h **** 		pos = 0;
 905              		.loc 4 16 7 view .LVU186
 906              	.LBB443:
ARM GAS  /var/folders/84/_x1cyy_j36g486tldtwl37280000gn/T//ccgGnd1a.s 			page 23


  17:/Users/joostbooy/Desktop/Code/stm32/lib/utils/stringBuilder.h **** 		char_buff_[0] = '\0';
 907              		.loc 4 17 3 view .LVU187
  18:/Users/joostbooy/Desktop/Code/stm32/lib/utils/stringBuilder.h **** 	}
 908              		.loc 4 18 3 view .LVU188
  18:/Users/joostbooy/Desktop/Code/stm32/lib/utils/stringBuilder.h **** 	}
 909              		.loc 4 18 3 is_stmt 0 view .LVU189
 910              	.LBE443:
 911              	.LBE444:
 912              	.LBE447:
 913              	.LBE450:
 914              	.LBE453:
 915              	.LBE456:
 916              	.LBE491:
 917              	.LBB492:
 918              	.LBI457:
 919              		.loc 4 149 2 is_stmt 1 view .LVU190
 920              	.LBB480:
 921              	.LBB476:
 922              	.LBI459:
  10:/Users/joostbooy/Desktop/Code/stm32/lib/utils/stringBuilder.h **** 		char_buff_ = ptr;
 923              		.loc 4 10 2 view .LVU191
 924              	.LBB472:
 925              	.LBB468:
  11:/Users/joostbooy/Desktop/Code/stm32/lib/utils/stringBuilder.h **** 		kMax_ = kMax;
 926              		.loc 4 11 3 view .LVU192
 927              	.LBE468:
 928              	.LBE472:
 929              	.LBE476:
 930              	.LBE480:
 931              	.LBE492:
 932              	.LBE501:
 933              	.LBE535:
 934              	.LBE538:
 935              	.LBE540:
 936              	.LBE542:
 937              		.loc 1 3 10 is_stmt 0 view .LVU193
 938 010e 70BC     		pop	{r4, r5, r6}
 939              		.cfi_restore 6
 940              		.cfi_restore 5
 941              		.cfi_restore 4
 942              		.cfi_def_cfa_offset 0
 943              	.LBB543:
 944              	.LBB541:
 945              	.LBB539:
 946              	.LBB536:
 947              	.LBB502:
 948              	.LBB493:
 949              	.LBB425:
 950              	.LBB409:
 951              	.LBB393:
 952              	.LBB377:
 953              	.LBB361:
  12:/Users/joostbooy/Desktop/Code/stm32/lib/utils/stringBuilder.h **** 		clear();
 954              		.loc 4 12 9 view .LVU194
 955 0110 C3F8F411 		str	r1, [r3, #500]
 956 0114 C3F81C12 		str	r1, [r3, #540]
 957              	.LBE361:
ARM GAS  /var/folders/84/_x1cyy_j36g486tldtwl37280000gn/T//ccgGnd1a.s 			page 24


 958              	.LBE377:
 959              	.LBE393:
 960              	.LBE409:
 961              	.LBE425:
 962              	.LBE493:
 963              	.LBB494:
 964              	.LBB481:
 965              	.LBB477:
 966              	.LBB473:
 967              	.LBB469:
  11:/Users/joostbooy/Desktop/Code/stm32/lib/utils/stringBuilder.h **** 		kMax_ = kMax;
 968              		.loc 4 11 14 view .LVU195
 969 0118 C3F89C02 		str	r0, [r3, #668]
  12:/Users/joostbooy/Desktop/Code/stm32/lib/utils/stringBuilder.h **** 		clear();
 970              		.loc 4 12 3 is_stmt 1 view .LVU196
  13:/Users/joostbooy/Desktop/Code/stm32/lib/utils/stringBuilder.h **** 	}
 971              		.loc 4 13 3 view .LVU197
 972              	.LBB465:
 973              	.LBI462:
  16:/Users/joostbooy/Desktop/Code/stm32/lib/utils/stringBuilder.h **** 		pos = 0;
 974              		.loc 4 16 7 view .LVU198
 975              	.LVL10:
 976              	.LBB464:
  17:/Users/joostbooy/Desktop/Code/stm32/lib/utils/stringBuilder.h **** 		char_buff_[0] = '\0';
 977              		.loc 4 17 3 view .LVU199
  18:/Users/joostbooy/Desktop/Code/stm32/lib/utils/stringBuilder.h **** 	}
 978              		.loc 4 18 3 view .LVU200
  18:/Users/joostbooy/Desktop/Code/stm32/lib/utils/stringBuilder.h **** 	}
 979              		.loc 4 18 3 is_stmt 0 view .LVU201
 980              	.LBE464:
 981              	.LBE465:
 982              	.LBE469:
 983              	.LBE473:
 984              	.LBE477:
 985              	.LBE481:
 986              	.LBE494:
 987              	.LBE502:
 988              	.LBE536:
 989              	.LBB537:
 990              	.LBI513:
 991              		.file 6 "Src/Disk/file.h"
   1:Src/Disk/file.h **** #ifndef File_h
   2:Src/Disk/file.h **** #define File_h
   3:Src/Disk/file.h **** 
   4:Src/Disk/file.h **** #include "ff.h"
   5:Src/Disk/file.h **** #include "stringBuilder.h"
   6:Src/Disk/file.h **** 
   7:Src/Disk/file.h **** class File {
 992              		.loc 6 7 7 is_stmt 1 view .LVU202
 993              	.LBB532:
 994              	.LBI514:
 995              		.loc 4 149 2 view .LVU203
 996              	.LBB530:
 997              	.LBB528:
 998              	.LBI516:
  10:/Users/joostbooy/Desktop/Code/stm32/lib/utils/stringBuilder.h **** 		char_buff_ = ptr;
 999              		.loc 4 10 2 view .LVU204
ARM GAS  /var/folders/84/_x1cyy_j36g486tldtwl37280000gn/T//ccgGnd1a.s 			page 25


 1000              	.LBB526:
 1001              	.LBB524:
  11:/Users/joostbooy/Desktop/Code/stm32/lib/utils/stringBuilder.h **** 		kMax_ = kMax;
 1002              		.loc 4 11 3 view .LVU205
  11:/Users/joostbooy/Desktop/Code/stm32/lib/utils/stringBuilder.h **** 		kMax_ = kMax;
 1003              		.loc 4 11 14 is_stmt 0 view .LVU206
 1004 011c C3F8FC22 		str	r2, [r3, #764]
  12:/Users/joostbooy/Desktop/Code/stm32/lib/utils/stringBuilder.h **** 		clear();
 1005              		.loc 4 12 3 is_stmt 1 view .LVU207
  13:/Users/joostbooy/Desktop/Code/stm32/lib/utils/stringBuilder.h **** 	}
 1006              		.loc 4 13 3 view .LVU208
 1007              	.LBB522:
 1008              	.LBI519:
  16:/Users/joostbooy/Desktop/Code/stm32/lib/utils/stringBuilder.h **** 		pos = 0;
 1009              		.loc 4 16 7 view .LVU209
 1010              	.LVL11:
 1011              	.LBB521:
  17:/Users/joostbooy/Desktop/Code/stm32/lib/utils/stringBuilder.h **** 		char_buff_[0] = '\0';
 1012              		.loc 4 17 3 view .LVU210
  18:/Users/joostbooy/Desktop/Code/stm32/lib/utils/stringBuilder.h **** 	}
 1013              		.loc 4 18 3 view .LVU211
  18:/Users/joostbooy/Desktop/Code/stm32/lib/utils/stringBuilder.h **** 	}
 1014              		.loc 4 18 3 is_stmt 0 view .LVU212
 1015              	.LBE521:
 1016              	.LBE522:
 1017              	.LBE524:
 1018              	.LBE526:
 1019              	.LBE528:
 1020              	.LBE530:
 1021              	.LBE532:
 1022              	.LBE537:
 1023              	.LBE539:
 1024              	.LBE541:
 1025              	.LBE543:
 1026              		.loc 1 3 10 view .LVU213
 1027 0120 7047     		bx	lr
 1028              	.L5:
 1029 0122 00BF     		.align	2
 1030              	.L4:
 1031 0124 00000000 		.word	.LANCHOR0
 1032              		.cfi_endproc
 1033              	.LFE2568:
 1035              		.section	.init_array,"aw",%init_array
 1036              		.align	2
 1037 0000 00000000 		.word	_GLOBAL__sub_I_disk(target1)
 1038              		.global	disk
 1039              		.section	.bss.disk,"aw",%nobits
 1040              		.align	2
 1041              		.set	.LANCHOR0,. + 0
 1044              	disk:
 1045 0000 00000000 		.space	2024
 1045      00000000 
 1045      00000000 
 1045      00000000 
 1045      00000000 
 1046              		.text
 1047              	.Letext0:
ARM GAS  /var/folders/84/_x1cyy_j36g486tldtwl37280000gn/T//ccgGnd1a.s 			page 26


 1048              		.file 7 "/usr/local/Caskroom/gcc-arm-embedded/9-2019-q4-major/gcc-arm-none-eabi-9-2019-q4-major/ar
 1049              		.file 8 "/usr/local/Caskroom/gcc-arm-embedded/9-2019-q4-major/gcc-arm-none-eabi-9-2019-q4-major/ar
 1050              		.file 9 "/usr/local/Caskroom/gcc-arm-embedded/9-2019-q4-major/gcc-arm-none-eabi-9-2019-q4-major/ar
 1051              		.file 10 "/Users/joostbooy/STM32Cube/Repository/STM32Cube_FW_F4_V1.26.1/Drivers/CMSIS/Include/core
 1052              		.file 11 "/Users/joostbooy/STM32Cube/Repository/STM32Cube_FW_F4_V1.26.1/Drivers/CMSIS/Device/ST/ST
 1053              		.file 12 "/usr/local/Caskroom/gcc-arm-embedded/9-2019-q4-major/gcc-arm-none-eabi-9-2019-q4-major/l
 1054              		.file 13 "/Users/joostbooy/STM32Cube/Repository/STM32Cube_FW_F4_V1.26.1/Drivers/STM32F4xx_HAL_Driv
 1055              		.file 14 "/usr/local/Caskroom/gcc-arm-embedded/9-2019-q4-major/gcc-arm-none-eabi-9-2019-q4-major/a
 1056              		.file 15 "/usr/local/Caskroom/gcc-arm-embedded/9-2019-q4-major/gcc-arm-none-eabi-9-2019-q4-major/a
 1057              		.file 16 "/usr/local/Caskroom/gcc-arm-embedded/9-2019-q4-major/gcc-arm-none-eabi-9-2019-q4-major/a
 1058              		.file 17 "/usr/local/Caskroom/gcc-arm-embedded/9-2019-q4-major/gcc-arm-none-eabi-9-2019-q4-major/a
 1059              		.file 18 "/usr/local/Caskroom/gcc-arm-embedded/9-2019-q4-major/gcc-arm-none-eabi-9-2019-q4-major/a
 1060              		.file 19 "/usr/local/Caskroom/gcc-arm-embedded/9-2019-q4-major/gcc-arm-none-eabi-9-2019-q4-major/a
 1061              		.file 20 "/usr/local/Caskroom/gcc-arm-embedded/9-2019-q4-major/gcc-arm-none-eabi-9-2019-q4-major/a
 1062              		.file 21 "/usr/local/Caskroom/gcc-arm-embedded/9-2019-q4-major/gcc-arm-none-eabi-9-2019-q4-major/a
 1063              		.file 22 "/usr/local/Caskroom/gcc-arm-embedded/9-2019-q4-major/gcc-arm-none-eabi-9-2019-q4-major/a
 1064              		.file 23 "/usr/local/Caskroom/gcc-arm-embedded/9-2019-q4-major/gcc-arm-none-eabi-9-2019-q4-major/a
 1065              		.file 24 "/usr/local/Caskroom/gcc-arm-embedded/9-2019-q4-major/gcc-arm-none-eabi-9-2019-q4-major/a
 1066              		.file 25 "/usr/local/Caskroom/gcc-arm-embedded/9-2019-q4-major/gcc-arm-none-eabi-9-2019-q4-major/a
 1067              		.file 26 "/usr/local/Caskroom/gcc-arm-embedded/9-2019-q4-major/gcc-arm-none-eabi-9-2019-q4-major/a
 1068              		.file 27 "/usr/local/Caskroom/gcc-arm-embedded/9-2019-q4-major/gcc-arm-none-eabi-9-2019-q4-major/a
 1069              		.file 28 "/usr/local/Caskroom/gcc-arm-embedded/9-2019-q4-major/gcc-arm-none-eabi-9-2019-q4-major/a
 1070              		.file 29 "/usr/local/Caskroom/gcc-arm-embedded/9-2019-q4-major/gcc-arm-none-eabi-9-2019-q4-major/a
 1071              		.file 30 "/usr/local/Caskroom/gcc-arm-embedded/9-2019-q4-major/gcc-arm-none-eabi-9-2019-q4-major/a
 1072              		.file 31 "/usr/local/Caskroom/gcc-arm-embedded/9-2019-q4-major/gcc-arm-none-eabi-9-2019-q4-major/a
 1073              		.file 32 "/usr/local/Caskroom/gcc-arm-embedded/9-2019-q4-major/gcc-arm-none-eabi-9-2019-q4-major/a
 1074              		.file 33 "/usr/local/Caskroom/gcc-arm-embedded/9-2019-q4-major/gcc-arm-none-eabi-9-2019-q4-major/a
 1075              		.file 34 "/usr/local/Caskroom/gcc-arm-embedded/9-2019-q4-major/gcc-arm-none-eabi-9-2019-q4-major/a
 1076              		.file 35 "/usr/local/Caskroom/gcc-arm-embedded/9-2019-q4-major/gcc-arm-none-eabi-9-2019-q4-major/a
 1077              		.file 36 "/usr/local/Caskroom/gcc-arm-embedded/9-2019-q4-major/gcc-arm-none-eabi-9-2019-q4-major/a
 1078              		.file 37 "/usr/local/Caskroom/gcc-arm-embedded/9-2019-q4-major/gcc-arm-none-eabi-9-2019-q4-major/a
 1079              		.file 38 "/usr/local/Caskroom/gcc-arm-embedded/9-2019-q4-major/gcc-arm-none-eabi-9-2019-q4-major/l
 1080              		.file 39 "<built-in>"
 1081              		.file 40 "/usr/local/Caskroom/gcc-arm-embedded/9-2019-q4-major/gcc-arm-none-eabi-9-2019-q4-major/a
 1082              		.file 41 "/usr/local/Caskroom/gcc-arm-embedded/9-2019-q4-major/gcc-arm-none-eabi-9-2019-q4-major/a
 1083              		.file 42 "/usr/local/Caskroom/gcc-arm-embedded/9-2019-q4-major/gcc-arm-none-eabi-9-2019-q4-major/a
 1084              		.file 43 "/usr/local/Caskroom/gcc-arm-embedded/9-2019-q4-major/gcc-arm-none-eabi-9-2019-q4-major/a
 1085              		.file 44 "/usr/local/Caskroom/gcc-arm-embedded/9-2019-q4-major/gcc-arm-none-eabi-9-2019-q4-major/a
 1086              		.file 45 "/usr/local/Caskroom/gcc-arm-embedded/9-2019-q4-major/gcc-arm-none-eabi-9-2019-q4-major/a
 1087              		.file 46 "/usr/local/Caskroom/gcc-arm-embedded/9-2019-q4-major/gcc-arm-none-eabi-9-2019-q4-major/a
 1088              		.file 47 "/usr/local/Caskroom/gcc-arm-embedded/9-2019-q4-major/gcc-arm-none-eabi-9-2019-q4-major/a
 1089              		.file 48 "/usr/local/Caskroom/gcc-arm-embedded/9-2019-q4-major/gcc-arm-none-eabi-9-2019-q4-major/a
 1090              		.file 49 "Drivers/micros.h"
 1091              		.file 50 "Src/Engine/timeOut.h"
 1092              		.file 51 "Drivers/debug.h"
 1093              		.file 52 "Drivers/sdio.h"
 1094              		.file 53 "/Users/joostbooy/Desktop/Code/stm32/lib/ff14b/source/ff.h"
ARM GAS  /var/folders/84/_x1cyy_j36g486tldtwl37280000gn/T//ccgGnd1a.s 			page 27

