ARM GAS  /var/folders/84/_x1cyy_j36g486tldtwl37280000gn/T//ccaJEjXT.s 			page 1


   1              		.cpu cortex-m4
   2              		.eabi_attribute 27, 1
   3              		.eabi_attribute 28, 1
   4              		.eabi_attribute 20, 1
   5              		.eabi_attribute 21, 1
   6              		.eabi_attribute 23, 3
   7              		.eabi_attribute 24, 1
   8              		.eabi_attribute 25, 1
   9              		.eabi_attribute 26, 1
  10              		.eabi_attribute 30, 2
  11              		.eabi_attribute 34, 1
  12              		.eabi_attribute 18, 4
  13              		.file	"display.cpp"
  14              		.text
  15              	.Ltext0:
  16              		.cfi_sections	.debug_frame
  17              		.section	.text._ZN7Display4initEv,"ax",%progbits
  18              		.align	1
  19              		.p2align 2,,3
  20              		.global	_ZN7Display4initEv
  21              		.arch armv7e-m
  22              		.syntax unified
  23              		.thumb
  24              		.thumb_func
  25              		.fpu fpv4-sp-d16
  27              	_ZN7Display4initEv:
  28              	.LVL0:
  29              	.LFB1994:
  30              		.file 1 "Drivers/display.cpp"
   1:Drivers/display.cpp **** #include "display.h"
   2:Drivers/display.cpp **** #include "micros.h"
   3:Drivers/display.cpp **** 
   4:Drivers/display.cpp **** Display display;
   5:Drivers/display.cpp **** 
   6:Drivers/display.cpp **** void Display::init() {
  31              		.loc 1 6 22 view -0
  32              		.cfi_startproc
  33              		@ args = 0, pretend = 0, frame = 112
  34              		@ frame_needed = 0, uses_anonymous_args = 0
   7:Drivers/display.cpp **** 	GPIO_InitTypeDef GPIO_InitStruct = {0};
  35              		.loc 1 7 2 view .LVU1
   6:Drivers/display.cpp **** 	GPIO_InitTypeDef GPIO_InitStruct = {0};
  36              		.loc 1 6 22 is_stmt 0 view .LVU2
  37 0000 2DE9F041 		push	{r4, r5, r6, r7, r8, lr}
  38              		.cfi_def_cfa_offset 24
  39              		.cfi_offset 4, -24
  40              		.cfi_offset 5, -20
  41              		.cfi_offset 6, -16
  42              		.cfi_offset 7, -12
  43              		.cfi_offset 8, -8
  44              		.cfi_offset 14, -4
  45 0004 9CB0     		sub	sp, sp, #112
  46              		.cfi_def_cfa_offset 136
  47              		.loc 1 7 19 view .LVU3
  48 0006 0025     		movs	r5, #0
   8:Drivers/display.cpp **** 
   9:Drivers/display.cpp **** 	/**GPIO Configuration
ARM GAS  /var/folders/84/_x1cyy_j36g486tldtwl37280000gn/T//ccaJEjXT.s 			page 2


  10:Drivers/display.cpp **** 	PD7     ------> DC
  11:Drivers/display.cpp **** 	PB5     ------> CS
  12:Drivers/display.cpp **** 	PB7     ------> RESET
  13:Drivers/display.cpp **** 	*/
  14:Drivers/display.cpp **** 	GPIO_InitStruct.Pin = GPIO_PIN_7;
  15:Drivers/display.cpp **** 	GPIO_InitStruct.Mode = GPIO_MODE_OUTPUT_PP;
  16:Drivers/display.cpp **** 	GPIO_InitStruct.Pull = GPIO_NOPULL;
  17:Drivers/display.cpp **** 	GPIO_InitStruct.Speed = GPIO_SPEED_FREQ_HIGH;
  49              		.loc 1 17 24 view .LVU4
  50 0008 0226     		movs	r6, #2
  14:Drivers/display.cpp **** 	GPIO_InitStruct.Mode = GPIO_MODE_OUTPUT_PP;
  51              		.loc 1 14 22 view .LVU5
  52 000a 8023     		movs	r3, #128
  15:Drivers/display.cpp **** 	GPIO_InitStruct.Pull = GPIO_NOPULL;
  53              		.loc 1 15 23 view .LVU6
  54 000c 0127     		movs	r7, #1
  18:Drivers/display.cpp **** 	HAL_GPIO_Init(GPIOD, &GPIO_InitStruct);
  55              		.loc 1 18 15 view .LVU7
  56 000e 01A9     		add	r1, sp, #4
   6:Drivers/display.cpp **** 	GPIO_InitTypeDef GPIO_InitStruct = {0};
  57              		.loc 1 6 22 view .LVU8
  58 0010 0446     		mov	r4, r0
  59              		.loc 1 18 15 view .LVU9
  60 0012 9A48     		ldr	r0, .L254
  61              	.LVL1:
   7:Drivers/display.cpp **** 
  62              		.loc 1 7 19 view .LVU10
  63 0014 0595     		str	r5, [sp, #20]
  14:Drivers/display.cpp **** 	GPIO_InitStruct.Mode = GPIO_MODE_OUTPUT_PP;
  64              		.loc 1 14 2 is_stmt 1 view .LVU11
  15:Drivers/display.cpp **** 	GPIO_InitStruct.Pull = GPIO_NOPULL;
  65              		.loc 1 15 23 is_stmt 0 view .LVU12
  66 0016 CDE90137 		strd	r3, r7, [sp, #4]
  16:Drivers/display.cpp **** 	GPIO_InitStruct.Speed = GPIO_SPEED_FREQ_HIGH;
  67              		.loc 1 16 2 is_stmt 1 view .LVU13
  17:Drivers/display.cpp **** 	HAL_GPIO_Init(GPIOD, &GPIO_InitStruct);
  68              		.loc 1 17 2 view .LVU14
  16:Drivers/display.cpp **** 	GPIO_InitStruct.Speed = GPIO_SPEED_FREQ_HIGH;
  69              		.loc 1 16 23 is_stmt 0 view .LVU15
  70 001a 0395     		str	r5, [sp, #12]
  17:Drivers/display.cpp **** 	HAL_GPIO_Init(GPIOD, &GPIO_InitStruct);
  71              		.loc 1 17 24 view .LVU16
  72 001c 0496     		str	r6, [sp, #16]
  73              		.loc 1 18 2 is_stmt 1 view .LVU17
  74              		.loc 1 18 15 is_stmt 0 view .LVU18
  75 001e FFF7FEFF 		bl	HAL_GPIO_Init
  76              	.LVL2:
  19:Drivers/display.cpp **** 
  20:Drivers/display.cpp **** 	GPIO_InitStruct.Pin = GPIO_PIN_5 | GPIO_PIN_7;
  77              		.loc 1 20 2 is_stmt 1 view .LVU19
  78              		.loc 1 20 22 is_stmt 0 view .LVU20
  79 0022 A022     		movs	r2, #160
  21:Drivers/display.cpp **** 	GPIO_InitStruct.Mode = GPIO_MODE_OUTPUT_PP;
  22:Drivers/display.cpp **** 	GPIO_InitStruct.Pull = GPIO_NOPULL;
  23:Drivers/display.cpp **** 	GPIO_InitStruct.Speed = GPIO_SPEED_FREQ_HIGH;
  24:Drivers/display.cpp **** 	HAL_GPIO_Init(GPIOB, &GPIO_InitStruct);
  80              		.loc 1 24 15 view .LVU21
ARM GAS  /var/folders/84/_x1cyy_j36g486tldtwl37280000gn/T//ccaJEjXT.s 			page 3


  81 0024 9648     		ldr	r0, .L254+4
  20:Drivers/display.cpp **** 	GPIO_InitStruct.Mode = GPIO_MODE_OUTPUT_PP;
  82              		.loc 1 20 22 view .LVU22
  83 0026 0192     		str	r2, [sp, #4]
  21:Drivers/display.cpp **** 	GPIO_InitStruct.Mode = GPIO_MODE_OUTPUT_PP;
  84              		.loc 1 21 2 is_stmt 1 view .LVU23
  22:Drivers/display.cpp **** 	GPIO_InitStruct.Speed = GPIO_SPEED_FREQ_HIGH;
  85              		.loc 1 22 2 view .LVU24
  23:Drivers/display.cpp **** 	HAL_GPIO_Init(GPIOB, &GPIO_InitStruct);
  86              		.loc 1 23 2 view .LVU25
  87              		.loc 1 24 2 view .LVU26
  88              		.loc 1 24 15 is_stmt 0 view .LVU27
  89 0028 01A9     		add	r1, sp, #4
  22:Drivers/display.cpp **** 	GPIO_InitStruct.Speed = GPIO_SPEED_FREQ_HIGH;
  90              		.loc 1 22 23 view .LVU28
  91 002a CDE90275 		strd	r7, r5, [sp, #8]
  25:Drivers/display.cpp **** 
  26:Drivers/display.cpp **** 	/**SPI2 GPIO Configuration
  27:Drivers/display.cpp **** 	PC2     ------> SPI2_MISO
  28:Drivers/display.cpp **** 	PC3     ------> SPI2_MOSI
  29:Drivers/display.cpp **** 	PD3     ------> SPI2_SCK
  30:Drivers/display.cpp **** 	*/
  31:Drivers/display.cpp **** 	GPIO_InitStruct.Pin = GPIO_PIN_2|GPIO_PIN_3;
  32:Drivers/display.cpp **** 	GPIO_InitStruct.Mode = GPIO_MODE_AF_PP;
  33:Drivers/display.cpp **** 	GPIO_InitStruct.Pull = GPIO_NOPULL;
  34:Drivers/display.cpp **** 	GPIO_InitStruct.Speed = GPIO_SPEED_FREQ_HIGH;
  35:Drivers/display.cpp **** 	GPIO_InitStruct.Alternate = GPIO_AF5_SPI2;
  92              		.loc 1 35 28 view .LVU29
  93 002e 4FF00508 		mov	r8, #5
  23:Drivers/display.cpp **** 	HAL_GPIO_Init(GPIOB, &GPIO_InitStruct);
  94              		.loc 1 23 24 view .LVU30
  95 0032 0496     		str	r6, [sp, #16]
  24:Drivers/display.cpp **** 
  96              		.loc 1 24 15 view .LVU31
  97 0034 FFF7FEFF 		bl	HAL_GPIO_Init
  98              	.LVL3:
  31:Drivers/display.cpp **** 	GPIO_InitStruct.Mode = GPIO_MODE_AF_PP;
  99              		.loc 1 31 2 is_stmt 1 view .LVU32
  31:Drivers/display.cpp **** 	GPIO_InitStruct.Mode = GPIO_MODE_AF_PP;
 100              		.loc 1 31 22 is_stmt 0 view .LVU33
 101 0038 0C23     		movs	r3, #12
  36:Drivers/display.cpp **** 	HAL_GPIO_Init(GPIOC, &GPIO_InitStruct);
 102              		.loc 1 36 15 view .LVU34
 103 003a 9248     		ldr	r0, .L254+8
  31:Drivers/display.cpp **** 	GPIO_InitStruct.Mode = GPIO_MODE_AF_PP;
 104              		.loc 1 31 22 view .LVU35
 105 003c 0193     		str	r3, [sp, #4]
  32:Drivers/display.cpp **** 	GPIO_InitStruct.Pull = GPIO_NOPULL;
 106              		.loc 1 32 2 is_stmt 1 view .LVU36
  33:Drivers/display.cpp **** 	GPIO_InitStruct.Speed = GPIO_SPEED_FREQ_HIGH;
 107              		.loc 1 33 2 view .LVU37
  34:Drivers/display.cpp **** 	GPIO_InitStruct.Alternate = GPIO_AF5_SPI2;
 108              		.loc 1 34 2 view .LVU38
  35:Drivers/display.cpp **** 	HAL_GPIO_Init(GPIOC, &GPIO_InitStruct);
 109              		.loc 1 35 2 view .LVU39
 110              		.loc 1 36 15 is_stmt 0 view .LVU40
 111 003e 01A9     		add	r1, sp, #4
ARM GAS  /var/folders/84/_x1cyy_j36g486tldtwl37280000gn/T//ccaJEjXT.s 			page 4


  33:Drivers/display.cpp **** 	GPIO_InitStruct.Speed = GPIO_SPEED_FREQ_HIGH;
 112              		.loc 1 33 23 view .LVU41
 113 0040 CDE90265 		strd	r6, r5, [sp, #8]
  34:Drivers/display.cpp **** 	GPIO_InitStruct.Alternate = GPIO_AF5_SPI2;
 114              		.loc 1 34 24 view .LVU42
 115 0044 0496     		str	r6, [sp, #16]
  35:Drivers/display.cpp **** 	HAL_GPIO_Init(GPIOC, &GPIO_InitStruct);
 116              		.loc 1 35 28 view .LVU43
 117 0046 CDF81480 		str	r8, [sp, #20]
 118              		.loc 1 36 2 is_stmt 1 view .LVU44
 119              		.loc 1 36 15 is_stmt 0 view .LVU45
 120 004a FFF7FEFF 		bl	HAL_GPIO_Init
 121              	.LVL4:
  37:Drivers/display.cpp **** 
  38:Drivers/display.cpp **** 	GPIO_InitStruct.Pin = GPIO_PIN_3;
 122              		.loc 1 38 2 is_stmt 1 view .LVU46
 123              		.loc 1 38 22 is_stmt 0 view .LVU47
 124 004e 0822     		movs	r2, #8
  39:Drivers/display.cpp **** 	GPIO_InitStruct.Mode = GPIO_MODE_AF_PP;
  40:Drivers/display.cpp **** 	GPIO_InitStruct.Pull = GPIO_NOPULL;
  41:Drivers/display.cpp **** 	GPIO_InitStruct.Speed = GPIO_SPEED_FREQ_HIGH;
  42:Drivers/display.cpp **** 	GPIO_InitStruct.Alternate = GPIO_AF5_SPI2;
  43:Drivers/display.cpp **** 	HAL_GPIO_Init(GPIOD, &GPIO_InitStruct);
 125              		.loc 1 43 15 view .LVU48
 126 0050 8A48     		ldr	r0, .L254
  38:Drivers/display.cpp **** 	GPIO_InitStruct.Mode = GPIO_MODE_AF_PP;
 127              		.loc 1 38 22 view .LVU49
 128 0052 0192     		str	r2, [sp, #4]
  39:Drivers/display.cpp **** 	GPIO_InitStruct.Mode = GPIO_MODE_AF_PP;
 129              		.loc 1 39 2 is_stmt 1 view .LVU50
  40:Drivers/display.cpp **** 	GPIO_InitStruct.Speed = GPIO_SPEED_FREQ_HIGH;
 130              		.loc 1 40 2 view .LVU51
  41:Drivers/display.cpp **** 	GPIO_InitStruct.Alternate = GPIO_AF5_SPI2;
 131              		.loc 1 41 2 view .LVU52
  42:Drivers/display.cpp **** 	HAL_GPIO_Init(GPIOD, &GPIO_InitStruct);
 132              		.loc 1 42 2 view .LVU53
 133              		.loc 1 43 2 view .LVU54
 134              		.loc 1 43 15 is_stmt 0 view .LVU55
 135 0054 01A9     		add	r1, sp, #4
  40:Drivers/display.cpp **** 	GPIO_InitStruct.Speed = GPIO_SPEED_FREQ_HIGH;
 136              		.loc 1 40 23 view .LVU56
 137 0056 CDE90265 		strd	r6, r5, [sp, #8]
  42:Drivers/display.cpp **** 	HAL_GPIO_Init(GPIOD, &GPIO_InitStruct);
 138              		.loc 1 42 28 view .LVU57
 139 005a CDE90468 		strd	r6, r8, [sp, #16]
 140              		.loc 1 43 15 view .LVU58
 141 005e FFF7FEFF 		bl	HAL_GPIO_Init
 142              	.LVL5:
  44:Drivers/display.cpp **** 
  45:Drivers/display.cpp **** 	// SPI 2
  46:Drivers/display.cpp **** 	SPI_HandleTypeDef hspi2;
 143              		.loc 1 46 2 is_stmt 1 view .LVU59
  47:Drivers/display.cpp **** 	hspi2.Instance = SPI2;
 144              		.loc 1 47 2 view .LVU60
  48:Drivers/display.cpp **** 	hspi2.Init.Mode = SPI_MODE_MASTER;
  49:Drivers/display.cpp **** 	hspi2.Init.Direction = SPI_DIRECTION_2LINES;
  50:Drivers/display.cpp **** 	hspi2.Init.DataSize = SPI_DATASIZE_8BIT;
ARM GAS  /var/folders/84/_x1cyy_j36g486tldtwl37280000gn/T//ccaJEjXT.s 			page 5


  51:Drivers/display.cpp **** 	hspi2.Init.CLKPolarity = SPI_POLARITY_HIGH;
  52:Drivers/display.cpp **** 	hspi2.Init.CLKPhase = SPI_PHASE_2EDGE;
  53:Drivers/display.cpp **** 	hspi2.Init.NSS = SPI_NSS_SOFT;
  54:Drivers/display.cpp **** 	hspi2.Init.BaudRatePrescaler = SPI_BAUDRATEPRESCALER_16;
 145              		.loc 1 54 31 is_stmt 0 view .LVU61
 146 0062 4FF01808 		mov	r8, #24
  47:Drivers/display.cpp **** 	hspi2.Instance = SPI2;
 147              		.loc 1 47 17 view .LVU62
 148 0066 DFF82CC2 		ldr	ip, .L254+24
  52:Drivers/display.cpp **** 	hspi2.Init.NSS = SPI_NSS_SOFT;
 149              		.loc 1 52 22 view .LVU63
 150 006a 0B97     		str	r7, [sp, #44]
  53:Drivers/display.cpp **** 	hspi2.Init.BaudRatePrescaler = SPI_BAUDRATEPRESCALER_16;
 151              		.loc 1 53 17 view .LVU64
 152 006c 4FF40071 		mov	r1, #512
  48:Drivers/display.cpp **** 	hspi2.Init.Mode = SPI_MODE_MASTER;
 153              		.loc 1 48 18 view .LVU65
 154 0070 4FF48277 		mov	r7, #260
  55:Drivers/display.cpp **** 	hspi2.Init.FirstBit = SPI_FIRSTBIT_MSB;
  56:Drivers/display.cpp **** 	hspi2.Init.TIMode = SPI_TIMODE_DISABLE;
  57:Drivers/display.cpp **** 	hspi2.Init.CRCCalculation = SPI_CRCCALCULATION_DISABLE;
  58:Drivers/display.cpp **** 	hspi2.Init.CRCPolynomial = 10;
 155              		.loc 1 58 27 view .LVU66
 156 0074 0A23     		movs	r3, #10
  59:Drivers/display.cpp **** 	HAL_SPI_Init(&hspi2);
 157              		.loc 1 59 14 view .LVU67
 158 0076 0DEB0800 		add	r0, sp, r8
  50:Drivers/display.cpp **** 	hspi2.Init.CLKPolarity = SPI_POLARITY_HIGH;
 159              		.loc 1 50 22 view .LVU68
 160 007a CDE90855 		strd	r5, r5, [sp, #32]
  56:Drivers/display.cpp **** 	hspi2.Init.CRCCalculation = SPI_CRCCALCULATION_DISABLE;
 161              		.loc 1 56 20 view .LVU69
 162 007e CDE90E55 		strd	r5, r5, [sp, #56]
  48:Drivers/display.cpp **** 	hspi2.Init.Direction = SPI_DIRECTION_2LINES;
 163              		.loc 1 48 18 view .LVU70
 164 0082 CDE906C7 		strd	ip, r7, [sp, #24]
  49:Drivers/display.cpp **** 	hspi2.Init.DataSize = SPI_DATASIZE_8BIT;
 165              		.loc 1 49 2 is_stmt 1 view .LVU71
  50:Drivers/display.cpp **** 	hspi2.Init.CLKPolarity = SPI_POLARITY_HIGH;
 166              		.loc 1 50 2 view .LVU72
  51:Drivers/display.cpp **** 	hspi2.Init.CLKPhase = SPI_PHASE_2EDGE;
 167              		.loc 1 51 2 view .LVU73
  52:Drivers/display.cpp **** 	hspi2.Init.NSS = SPI_NSS_SOFT;
 168              		.loc 1 52 2 view .LVU74
  53:Drivers/display.cpp **** 	hspi2.Init.BaudRatePrescaler = SPI_BAUDRATEPRESCALER_16;
 169              		.loc 1 53 2 view .LVU75
  54:Drivers/display.cpp **** 	hspi2.Init.FirstBit = SPI_FIRSTBIT_MSB;
 170              		.loc 1 54 31 is_stmt 0 view .LVU76
 171 0086 CDE90C18 		strd	r1, r8, [sp, #48]
  55:Drivers/display.cpp **** 	hspi2.Init.TIMode = SPI_TIMODE_DISABLE;
 172              		.loc 1 55 2 is_stmt 1 view .LVU77
  56:Drivers/display.cpp **** 	hspi2.Init.CRCCalculation = SPI_CRCCALCULATION_DISABLE;
 173              		.loc 1 56 2 view .LVU78
  57:Drivers/display.cpp **** 	hspi2.Init.CRCPolynomial = 10;
 174              		.loc 1 57 2 view .LVU79
  58:Drivers/display.cpp **** 	HAL_SPI_Init(&hspi2);
 175              		.loc 1 58 2 view .LVU80
ARM GAS  /var/folders/84/_x1cyy_j36g486tldtwl37280000gn/T//ccaJEjXT.s 			page 6


  51:Drivers/display.cpp **** 	hspi2.Init.CLKPhase = SPI_PHASE_2EDGE;
 176              		.loc 1 51 25 is_stmt 0 view .LVU81
 177 008a 0A96     		str	r6, [sp, #40]
  57:Drivers/display.cpp **** 	hspi2.Init.CRCPolynomial = 10;
 178              		.loc 1 57 28 view .LVU82
 179 008c 1095     		str	r5, [sp, #64]
  58:Drivers/display.cpp **** 	HAL_SPI_Init(&hspi2);
 180              		.loc 1 58 27 view .LVU83
 181 008e 1193     		str	r3, [sp, #68]
 182              		.loc 1 59 2 is_stmt 1 view .LVU84
 183              		.loc 1 59 14 is_stmt 0 view .LVU85
 184 0090 FFF7FEFF 		bl	HAL_SPI_Init
 185              	.LVL6:
  60:Drivers/display.cpp **** 	__HAL_SPI_ENABLE(&hspi2);
 186              		.loc 1 60 2 is_stmt 1 view .LVU86
 187 0094 0698     		ldr	r0, [sp, #24]
  61:Drivers/display.cpp **** 
  62:Drivers/display.cpp **** 	//DMA
  63:Drivers/display.cpp **** 	DMA1_Stream4->CR &= ~DMA_SxCR_EN;	// disable stream & wait
 188              		.loc 1 63 19 is_stmt 0 view .LVU87
 189 0096 7C4D     		ldr	r5, .L254+12
  60:Drivers/display.cpp **** 	__HAL_SPI_ENABLE(&hspi2);
 190              		.loc 1 60 2 view .LVU88
 191 0098 0668     		ldr	r6, [r0]
 192 009a 46F04002 		orr	r2, r6, #64
 193 009e 0260     		str	r2, [r0]
 194              		.loc 1 63 2 is_stmt 1 view .LVU89
 195              		.loc 1 63 19 is_stmt 0 view .LVU90
 196 00a0 2F68     		ldr	r7, [r5]
 197 00a2 27F00101 		bic	r1, r7, #1
 198 00a6 2960     		str	r1, [r5]
 199              	.L2:
  64:Drivers/display.cpp **** 	while ((DMA1_Stream4->CR) & DMA_SxCR_EN);
 200              		.loc 1 64 2 is_stmt 1 view .LVU91
 201              		.loc 1 64 30 view .LVU92
 202              		.loc 1 64 24 is_stmt 0 view .LVU93
 203 00a8 774E     		ldr	r6, .L254+12
 204 00aa 3368     		ldr	r3, [r6]
 205              		.loc 1 64 30 view .LVU94
 206 00ac 13F00107 		ands	r7, r3, #1
 207 00b0 FAD1     		bne	.L2
  65:Drivers/display.cpp **** 
  66:Drivers/display.cpp **** 	DMA1_Stream4->CR = (0 << 25) | DMA_SxCR_MINC | DMA_SxCR_DIR_0 | DMA_SxCR_TCIE | DMA_SxCR_DMEIE;
 208              		.loc 1 66 2 is_stmt 1 view .LVU95
 209              		.loc 1 66 19 is_stmt 0 view .LVU96
 210 00b2 40F25240 		movw	r0, #1106
 211 00b6 3060     		str	r0, [r6]
  67:Drivers/display.cpp **** 	DMA1_Stream4->FCR &= ~DMA_SxFCR_DMDIS;
 212              		.loc 1 67 2 is_stmt 1 view .LVU97
 213              		.loc 1 67 20 is_stmt 0 view .LVU98
 214 00b8 7269     		ldr	r2, [r6, #20]
 215              	.LBB364:
 216              	.LBB365:
 217              		.file 2 "Drivers/display.h"
   1:Drivers/display.h **** #ifndef Display_h
   2:Drivers/display.h **** #define Display_h
   3:Drivers/display.h **** 
ARM GAS  /var/folders/84/_x1cyy_j36g486tldtwl37280000gn/T//ccaJEjXT.s 			page 7


   4:Drivers/display.h **** #include "stmf4lib.h"
   5:Drivers/display.h **** #include "debug.h"
   6:Drivers/display.h **** 
   7:Drivers/display.h **** 
   8:Drivers/display.h **** class Display {
   9:Drivers/display.h **** 
  10:Drivers/display.h **** public:
  11:Drivers/display.h **** 	void init();
  12:Drivers/display.h **** 
  13:Drivers/display.h **** 	inline void select(){
  14:Drivers/display.h **** 		GPIOB->BSRR = GPIO_PIN_5 << 16;
 218              		.loc 2 14 15 view .LVU99
 219 00ba 714B     		ldr	r3, .L254+4
 220              	.LBE365:
 221              	.LBE364:
 222              	.LBB368:
 223              	.LBB369:
 224              	.LBB370:
 225              	.LBB371:
 226              		.file 3 "Drivers/micros.h"
   1:Drivers/micros.h **** #ifndef Micros_h
   2:Drivers/micros.h **** #define Micros_h
   3:Drivers/micros.h **** 
   4:Drivers/micros.h **** #include "stmf4lib.h"
   5:Drivers/micros.h **** 
   6:Drivers/micros.h **** class Micros {
   7:Drivers/micros.h **** 
   8:Drivers/micros.h **** public:
   9:Drivers/micros.h **** 	void init();
  10:Drivers/micros.h **** 
  11:Drivers/micros.h **** 	inline volatile uint32_t read() {
  12:Drivers/micros.h **** 		return TIM5->CNT;
 227              		.loc 3 12 16 view .LVU100
 228 00bc 734D     		ldr	r5, .L254+16
 229              	.LBE371:
 230              	.LBE370:
 231              	.LBE369:
 232              	.LBE368:
 233              		.loc 1 67 20 view .LVU101
 234 00be 22F00401 		bic	r1, r2, #4
 235 00c2 7161     		str	r1, [r6, #20]
  68:Drivers/display.cpp **** 
  69:Drivers/display.cpp **** 	dma_busy_ = false;
 236              		.loc 1 69 2 is_stmt 1 view .LVU102
  70:Drivers/display.cpp **** 
  71:Drivers/display.cpp **** 	// Select, Reset & wait
  72:Drivers/display.cpp **** 	select();
  73:Drivers/display.cpp **** 
  74:Drivers/display.cpp **** 	GPIOB->BSRR = GPIO_PIN_7 << 16;
 237              		.loc 1 74 14 is_stmt 0 view .LVU103
 238 00c4 4FF40000 		mov	r0, #8388608
 239              	.LBB379:
 240              	.LBB366:
 241              		.loc 2 14 15 view .LVU104
 242 00c8 4FF40016 		mov	r6, #2097152
 243              	.LBE366:
 244              	.LBE379:
ARM GAS  /var/folders/84/_x1cyy_j36g486tldtwl37280000gn/T//ccaJEjXT.s 			page 8


  69:Drivers/display.cpp **** 
 245              		.loc 1 69 12 view .LVU105
 246 00cc 6770     		strb	r7, [r4, #1]
  72:Drivers/display.cpp **** 
 247              		.loc 1 72 2 is_stmt 1 view .LVU106
 248              	.LBB380:
 249              	.LBI364:
  13:Drivers/display.h **** 		GPIOB->BSRR = GPIO_PIN_5 << 16;
 250              		.loc 2 13 14 view .LVU107
 251              	.LVL7:
 252              	.LBB367:
 253              		.loc 2 14 3 view .LVU108
 254              		.loc 2 14 15 is_stmt 0 view .LVU109
 255 00ce 9E61     		str	r6, [r3, #24]
 256              	.LBE367:
 257              	.LBE380:
 258              		.loc 1 74 2 is_stmt 1 view .LVU110
 259              		.loc 1 74 14 is_stmt 0 view .LVU111
 260 00d0 9861     		str	r0, [r3, #24]
  75:Drivers/display.cpp **** 	micros.delay(150 * 1000);
 261              		.loc 1 75 2 is_stmt 1 view .LVU112
 262              	.LVL8:
 263              	.LBB381:
 264              	.LBI368:
  13:Drivers/micros.h **** 	}
  14:Drivers/micros.h **** 
  15:Drivers/micros.h **** 	void delay(uint32_t us) {
 265              		.loc 3 15 7 view .LVU113
 266              	.LBB378:
  16:Drivers/micros.h **** 		uint32_t start = read();
 267              		.loc 3 16 3 view .LVU114
 268              	.LBB373:
 269              	.LBI370:
  11:Drivers/micros.h **** 		return TIM5->CNT;
 270              		.loc 3 11 27 view .LVU115
 271              	.LBB372:
  12:Drivers/micros.h **** 	}
 272              		.loc 3 12 3 view .LVU116
  12:Drivers/micros.h **** 	}
 273              		.loc 3 12 16 is_stmt 0 view .LVU117
 274 00d2 6F6A     		ldr	r7, [r5, #36]
 275              	.LVL9:
 276              	.L3:
  12:Drivers/micros.h **** 	}
 277              		.loc 3 12 16 view .LVU118
 278              	.LBE372:
 279              	.LBE373:
  17:Drivers/micros.h **** 		while (static_cast<uint32_t>(read() - start) < us);
 280              		.loc 3 17 3 is_stmt 1 view .LVU119
 281              		.loc 3 17 48 view .LVU120
 282              	.LBB374:
 283              	.LBI374:
  11:Drivers/micros.h **** 		return TIM5->CNT;
 284              		.loc 3 11 27 view .LVU121
 285              	.LBB375:
  12:Drivers/micros.h **** 	}
 286              		.loc 3 12 3 view .LVU122
ARM GAS  /var/folders/84/_x1cyy_j36g486tldtwl37280000gn/T//ccaJEjXT.s 			page 9


  12:Drivers/micros.h **** 	}
 287              		.loc 3 12 16 is_stmt 0 view .LVU123
 288 00d4 6D4A     		ldr	r2, .L254+16
 289              	.LBE375:
 290              	.LBE374:
 291              		.loc 3 17 48 view .LVU124
 292 00d6 6E4D     		ldr	r5, .L254+20
 293              	.LBB377:
 294              	.LBB376:
  12:Drivers/micros.h **** 	}
 295              		.loc 3 12 16 view .LVU125
 296 00d8 536A     		ldr	r3, [r2, #36]
 297              	.LBE376:
 298              	.LBE377:
 299              		.loc 3 17 39 view .LVU126
 300 00da D91B     		subs	r1, r3, r7
 301              		.loc 3 17 48 view .LVU127
 302 00dc A942     		cmp	r1, r5
 303 00de F9D9     		bls	.L3
 304              	.LVL10:
 305              		.loc 3 17 48 view .LVU128
 306              	.LBE378:
 307              	.LBE381:
  76:Drivers/display.cpp **** 	GPIOB->BSRR = GPIO_PIN_7;
 308              		.loc 1 76 2 is_stmt 1 view .LVU129
 309              		.loc 1 76 14 is_stmt 0 view .LVU130
 310 00e0 674E     		ldr	r6, .L254+4
 311 00e2 8020     		movs	r0, #128
 312 00e4 B061     		str	r0, [r6, #24]
  77:Drivers/display.cpp **** 	micros.delay(150 * 1000);
 313              		.loc 1 77 2 is_stmt 1 view .LVU131
 314              	.LVL11:
 315              	.LBB382:
 316              	.LBI382:
  15:Drivers/micros.h **** 		uint32_t start = read();
 317              		.loc 3 15 7 view .LVU132
 318              	.LBB383:
  16:Drivers/micros.h **** 		while (static_cast<uint32_t>(read() - start) < us);
 319              		.loc 3 16 3 view .LVU133
 320              	.LBB384:
 321              	.LBI384:
  11:Drivers/micros.h **** 		return TIM5->CNT;
 322              		.loc 3 11 27 view .LVU134
 323              	.LBB385:
  12:Drivers/micros.h **** 	}
 324              		.loc 3 12 3 view .LVU135
  12:Drivers/micros.h **** 	}
 325              		.loc 3 12 16 is_stmt 0 view .LVU136
 326 00e6 576A     		ldr	r7, [r2, #36]
 327              	.LVL12:
 328              	.L4:
  12:Drivers/micros.h **** 	}
 329              		.loc 3 12 16 view .LVU137
 330              	.LBE385:
 331              	.LBE384:
 332              		.loc 3 17 3 is_stmt 1 view .LVU138
 333              		.loc 3 17 48 view .LVU139
ARM GAS  /var/folders/84/_x1cyy_j36g486tldtwl37280000gn/T//ccaJEjXT.s 			page 10


 334              	.LBB386:
 335              	.LBI386:
  11:Drivers/micros.h **** 		return TIM5->CNT;
 336              		.loc 3 11 27 view .LVU140
 337              	.LBB387:
  12:Drivers/micros.h **** 	}
 338              		.loc 3 12 3 view .LVU141
  12:Drivers/micros.h **** 	}
 339              		.loc 3 12 16 is_stmt 0 view .LVU142
 340 00e8 684D     		ldr	r5, .L254+16
 341              	.LBE387:
 342              	.LBE386:
 343              		.loc 3 17 48 view .LVU143
 344 00ea 694A     		ldr	r2, .L254+20
 345              	.LBB389:
 346              	.LBB388:
  12:Drivers/micros.h **** 	}
 347              		.loc 3 12 16 view .LVU144
 348 00ec 6B6A     		ldr	r3, [r5, #36]
 349              	.LBE388:
 350              	.LBE389:
 351              		.loc 3 17 39 view .LVU145
 352 00ee D91B     		subs	r1, r3, r7
 353              		.loc 3 17 48 view .LVU146
 354 00f0 9142     		cmp	r1, r2
 355 00f2 F9D9     		bls	.L4
 356              	.LVL13:
 357              		.loc 3 17 48 view .LVU147
 358              	.LBE383:
 359              	.LBE382:
  78:Drivers/display.cpp **** 
  79:Drivers/display.cpp **** 	// Start lcd configuration
  80:Drivers/display.cpp **** 	sendCommand(0xfd, 0x12);		// Set Command Lock (MCU protection status) | 0x12 = reset
 360              		.loc 1 80 2 is_stmt 1 view .LVU148
 361              	.LBB390:
 362              	.LBI390:
  15:Drivers/display.h **** 	}
  16:Drivers/display.h **** 
  17:Drivers/display.h **** 	inline void deselect(){
  18:Drivers/display.h **** 		GPIOB->BSRR = GPIO_PIN_5;
  19:Drivers/display.h **** 	}
  20:Drivers/display.h **** 
  21:Drivers/display.h **** 	inline void cd_high(){
  22:Drivers/display.h **** 		GPIOD->BSRR = GPIO_PIN_7;
  23:Drivers/display.h **** 	}
  24:Drivers/display.h **** 
  25:Drivers/display.h **** 	inline void cd_low(){
  26:Drivers/display.h **** 		GPIOD->BSRR = GPIO_PIN_7 << 16;
  27:Drivers/display.h **** 	}
  28:Drivers/display.h **** 
  29:Drivers/display.h **** 	void sendCommand(uint8_t cmd) {
  30:Drivers/display.h **** 		cd_low();
  31:Drivers/display.h **** 		spi_write(cmd);
  32:Drivers/display.h **** 	}
  33:Drivers/display.h **** 
  34:Drivers/display.h **** 	void sendData(uint8_t data) {
  35:Drivers/display.h **** 		cd_high();
ARM GAS  /var/folders/84/_x1cyy_j36g486tldtwl37280000gn/T//ccaJEjXT.s 			page 11


  36:Drivers/display.h **** 		spi_write(data);
  37:Drivers/display.h **** 	}
  38:Drivers/display.h **** 
  39:Drivers/display.h **** 	void sendCommand(uint8_t cmd, uint8_t data) {
 363              		.loc 2 39 7 view .LVU149
 364              	.LBE390:
  40:Drivers/display.h **** 		sendCommand(cmd);
 365              		.loc 2 40 3 view .LVU150
 366              	.LBB421:
 367              	.LBB391:
 368              	.LBI391:
  29:Drivers/display.h **** 		cd_low();
 369              		.loc 2 29 7 view .LVU151
 370              	.LBE391:
 371              	.LBE421:
  30:Drivers/display.h **** 		spi_write(cmd);
 372              		.loc 2 30 3 view .LVU152
 373              	.LBB422:
 374              	.LBB400:
 375              	.LBB392:
 376              	.LBI392:
  25:Drivers/display.h **** 		GPIOD->BSRR = GPIO_PIN_7 << 16;
 377              		.loc 2 25 14 view .LVU153
 378              	.LBB393:
  26:Drivers/display.h **** 	}
 379              		.loc 2 26 3 view .LVU154
  26:Drivers/display.h **** 	}
 380              		.loc 2 26 15 is_stmt 0 view .LVU155
 381 00f4 614E     		ldr	r6, .L254
 382 00f6 4FF40000 		mov	r0, #8388608
 383 00fa B061     		str	r0, [r6, #24]
 384              	.L5:
  26:Drivers/display.h **** 	}
 385              		.loc 2 26 15 view .LVU156
 386              	.LBE393:
 387              	.LBE392:
 388              	.LBB394:
 389              	.LBB395:
  41:Drivers/display.h **** 		sendData(data);
  42:Drivers/display.h **** 	}
  43:Drivers/display.h **** 
  44:Drivers/display.h **** 	void sendCommand(uint8_t cmd, uint8_t data_a, uint8_t data_b) {
  45:Drivers/display.h **** 		sendCommand(cmd);
  46:Drivers/display.h **** 		sendData(data_a);
  47:Drivers/display.h **** 		sendData(data_b);
  48:Drivers/display.h **** 	}
  49:Drivers/display.h **** 
  50:Drivers/display.h **** 	void set_col_address(uint8_t a, uint8_t b) {
  51:Drivers/display.h **** 		sendCommand(0x15, a, b);
  52:Drivers/display.h **** 	}
  53:Drivers/display.h **** 
  54:Drivers/display.h **** 	void set_row_address(uint8_t a, uint8_t b) {
  55:Drivers/display.h **** 		sendCommand(0x75, a, b);
  56:Drivers/display.h **** 	}
  57:Drivers/display.h **** 
  58:Drivers/display.h **** 	void enable_write() {
  59:Drivers/display.h **** 		sendCommand(0x5C);
ARM GAS  /var/folders/84/_x1cyy_j36g486tldtwl37280000gn/T//ccaJEjXT.s 			page 12


  60:Drivers/display.h **** 	}
  61:Drivers/display.h **** 
  62:Drivers/display.h **** 	void unlock_dma() {
  63:Drivers/display.h **** 		SPI2->CR2 &= ~SPI_CR2_TXDMAEN;
  64:Drivers/display.h **** 		DMA1_Stream4->CR &= ~DMA_SxCR_EN;
  65:Drivers/display.h **** 		dma_busy_ = false;
  66:Drivers/display.h **** 	}
  67:Drivers/display.h **** 
  68:Drivers/display.h **** 	volatile bool dma_busy() {
  69:Drivers/display.h **** 		return dma_busy_;
  70:Drivers/display.h **** 	}
  71:Drivers/display.h **** 
  72:Drivers/display.h **** 	void sendBuffer(uint8_t* data, uint32_t size) {
  73:Drivers/display.h **** 		while (dma_busy_) {};
  74:Drivers/display.h **** 		dummy = SPI2->DR;
  75:Drivers/display.h **** 
  76:Drivers/display.h **** 		set_col_address(0x1C, 0x5B);
  77:Drivers/display.h **** 		set_row_address(0x00, 0x3F);
  78:Drivers/display.h **** 		enable_write();
  79:Drivers/display.h **** 
  80:Drivers/display.h **** 		cd_high();
  81:Drivers/display.h **** 
  82:Drivers/display.h **** 		DMA1->HIFCR |= DMA_HIFCR_CTCIF4 | DMA_HIFCR_CHTIF4 | DMA_HIFCR_CTEIF4 | DMA_HIFCR_CDMEIF4 | DMA_H
  83:Drivers/display.h **** 		DMA1_Stream4->PAR = reinterpret_cast<uint32_t>(&SPI2->DR);
  84:Drivers/display.h **** 		DMA1_Stream4->M0AR = reinterpret_cast<uint32_t>(&data[0]);
  85:Drivers/display.h **** 		DMA1_Stream4->NDTR = size;
  86:Drivers/display.h **** 		DMA1_Stream4->CR |= DMA_SxCR_EN;
  87:Drivers/display.h **** 		SPI2->CR2 |= SPI_CR2_TXDMAEN;
  88:Drivers/display.h **** 
  89:Drivers/display.h **** 		dma_busy_ = true;
  90:Drivers/display.h **** 	}
  91:Drivers/display.h **** 
  92:Drivers/display.h **** 
  93:Drivers/display.h **** private:
  94:Drivers/display.h **** 	volatile uint8_t dummy;
  95:Drivers/display.h **** 	volatile bool dma_busy_;
  96:Drivers/display.h **** 
  97:Drivers/display.h **** 
  98:Drivers/display.h **** 	void spi_write(uint8_t data) {
  99:Drivers/display.h **** 		while (!(SPI2->SR & SPI_FLAG_TXE));
 390              		.loc 2 99 3 is_stmt 1 view .LVU157
 391              		.loc 2 99 10 view .LVU158
 392              		.loc 2 99 18 is_stmt 0 view .LVU159
 393 00fc 654F     		ldr	r7, .L254+24
 394 00fe BD68     		ldr	r5, [r7, #8]
 395              		.loc 2 99 10 view .LVU160
 396 0100 A907     		lsls	r1, r5, #30
 397 0102 FBD5     		bpl	.L5
 100:Drivers/display.h **** 		SPI2->DR = data;
 398              		.loc 2 100 3 is_stmt 1 view .LVU161
 399              		.loc 2 100 12 is_stmt 0 view .LVU162
 400 0104 FD22     		movs	r2, #253
 401 0106 FA60     		str	r2, [r7, #12]
 402              	.L6:
 101:Drivers/display.h **** 
 102:Drivers/display.h **** 		while (!(SPI2->SR & SPI_FLAG_RXNE));
 403              		.loc 2 102 3 is_stmt 1 view .LVU163
ARM GAS  /var/folders/84/_x1cyy_j36g486tldtwl37280000gn/T//ccaJEjXT.s 			page 13


 404              		.loc 2 102 10 view .LVU164
 405              		.loc 2 102 18 is_stmt 0 view .LVU165
 406 0108 624B     		ldr	r3, .L254+24
 407 010a 9968     		ldr	r1, [r3, #8]
 408              		.loc 2 102 10 view .LVU166
 409 010c CA07     		lsls	r2, r1, #31
 410 010e FBD5     		bpl	.L6
 103:Drivers/display.h **** 		dummy = SPI2->DR;
 411              		.loc 2 103 3 is_stmt 1 view .LVU167
 412              		.loc 2 103 17 is_stmt 0 view .LVU168
 413 0110 DE68     		ldr	r6, [r3, #12]
 414              	.LBE395:
 415              	.LBE394:
 416              	.LBE400:
 417              	.LBB401:
 418              	.LBB402:
 419              	.LBB403:
  22:Drivers/display.h **** 	}
 420              		.loc 2 22 15 view .LVU169
 421 0112 5A48     		ldr	r0, .L254
 422              	.LBE403:
 423              	.LBE402:
 424              	.LBE401:
 425              	.LBB414:
 426              	.LBB398:
 427              	.LBB396:
 428              		.loc 2 103 9 view .LVU170
 429 0114 F7B2     		uxtb	r7, r6
 430              	.LBE396:
 431              	.LBE398:
 432              	.LBE414:
 433              	.LBB415:
 434              	.LBB406:
 435              	.LBB404:
  22:Drivers/display.h **** 	}
 436              		.loc 2 22 15 view .LVU171
 437 0116 8025     		movs	r5, #128
 438              	.LBE404:
 439              	.LBE406:
 440              	.LBE415:
 441              	.LBB416:
 442              	.LBB399:
 443              	.LBB397:
 444              		.loc 2 103 9 view .LVU172
 445 0118 2770     		strb	r7, [r4]
 446              	.LVL14:
 447              		.loc 2 103 9 view .LVU173
 448              	.LBE397:
 449              	.LBE399:
 450              	.LBE416:
 451              	.LBE422:
  41:Drivers/display.h **** 	}
 452              		.loc 2 41 3 is_stmt 1 view .LVU174
 453              	.LBB423:
 454              	.LBB417:
 455              	.LBI401:
  34:Drivers/display.h **** 		cd_high();
ARM GAS  /var/folders/84/_x1cyy_j36g486tldtwl37280000gn/T//ccaJEjXT.s 			page 14


 456              		.loc 2 34 7 view .LVU175
 457              	.LBE417:
 458              	.LBE423:
  35:Drivers/display.h **** 		spi_write(data);
 459              		.loc 2 35 3 view .LVU176
 460              	.LBB424:
 461              	.LBB418:
 462              	.LBB407:
 463              	.LBI402:
  21:Drivers/display.h **** 		GPIOD->BSRR = GPIO_PIN_7;
 464              		.loc 2 21 14 view .LVU177
 465              	.LBB405:
  22:Drivers/display.h **** 	}
 466              		.loc 2 22 3 view .LVU178
  22:Drivers/display.h **** 	}
 467              		.loc 2 22 15 is_stmt 0 view .LVU179
 468 011a 8561     		str	r5, [r0, #24]
 469              	.L7:
  22:Drivers/display.h **** 	}
 470              		.loc 2 22 15 view .LVU180
 471              	.LBE405:
 472              	.LBE407:
 473              	.LBB408:
 474              	.LBB409:
  99:Drivers/display.h **** 		SPI2->DR = data;
 475              		.loc 2 99 3 is_stmt 1 view .LVU181
  99:Drivers/display.h **** 		SPI2->DR = data;
 476              		.loc 2 99 10 view .LVU182
  99:Drivers/display.h **** 		SPI2->DR = data;
 477              		.loc 2 99 18 is_stmt 0 view .LVU183
 478 011c 5D4B     		ldr	r3, .L254+24
 479 011e 9A68     		ldr	r2, [r3, #8]
  99:Drivers/display.h **** 		SPI2->DR = data;
 480              		.loc 2 99 10 view .LVU184
 481 0120 9707     		lsls	r7, r2, #30
 482 0122 FBD5     		bpl	.L7
 100:Drivers/display.h **** 
 483              		.loc 2 100 3 is_stmt 1 view .LVU185
 100:Drivers/display.h **** 
 484              		.loc 2 100 12 is_stmt 0 view .LVU186
 485 0124 1221     		movs	r1, #18
 486 0126 D960     		str	r1, [r3, #12]
 487              	.L8:
 102:Drivers/display.h **** 		dummy = SPI2->DR;
 488              		.loc 2 102 3 is_stmt 1 view .LVU187
 102:Drivers/display.h **** 		dummy = SPI2->DR;
 489              		.loc 2 102 10 view .LVU188
 102:Drivers/display.h **** 		dummy = SPI2->DR;
 490              		.loc 2 102 18 is_stmt 0 view .LVU189
 491 0128 5A48     		ldr	r0, .L254+24
 492 012a 8668     		ldr	r6, [r0, #8]
 102:Drivers/display.h **** 		dummy = SPI2->DR;
 493              		.loc 2 102 10 view .LVU190
 494 012c F607     		lsls	r6, r6, #31
 495 012e FBD5     		bpl	.L8
 496              		.loc 2 103 3 is_stmt 1 view .LVU191
 497              		.loc 2 103 17 is_stmt 0 view .LVU192
ARM GAS  /var/folders/84/_x1cyy_j36g486tldtwl37280000gn/T//ccaJEjXT.s 			page 15


 498 0130 C768     		ldr	r7, [r0, #12]
 499              	.LBE409:
 500              	.LBE408:
 501              	.LBE418:
 502              	.LBE424:
 503              	.LBB425:
 504              	.LBB426:
 505              	.LBB427:
  26:Drivers/display.h **** 	}
 506              		.loc 2 26 15 view .LVU193
 507 0132 524D     		ldr	r5, .L254
 508              	.LBE427:
 509              	.LBE426:
 510              	.LBE425:
 511              	.LBB438:
 512              	.LBB419:
 513              	.LBB412:
 514              	.LBB410:
 515              		.loc 2 103 9 view .LVU194
 516 0134 FBB2     		uxtb	r3, r7
 517              	.LBE410:
 518              	.LBE412:
 519              	.LBE419:
 520              	.LBE438:
 521              	.LBB439:
 522              	.LBB430:
 523              	.LBB428:
  26:Drivers/display.h **** 	}
 524              		.loc 2 26 15 view .LVU195
 525 0136 4FF40002 		mov	r2, #8388608
 526              	.LBE428:
 527              	.LBE430:
 528              	.LBE439:
 529              	.LBB440:
 530              	.LBB420:
 531              	.LBB413:
 532              	.LBB411:
 533              		.loc 2 103 9 view .LVU196
 534 013a 2370     		strb	r3, [r4]
 535              	.LVL15:
 536              		.loc 2 103 9 view .LVU197
 537              	.LBE411:
 538              	.LBE413:
 539              	.LBE420:
 540              	.LBE440:
  81:Drivers/display.cpp **** 	sendCommand(0xae);				// Set Display Off
 541              		.loc 1 81 2 is_stmt 1 view .LVU198
 542              	.LBB441:
 543              	.LBI425:
  29:Drivers/display.h **** 		cd_low();
 544              		.loc 2 29 7 view .LVU199
 545              	.LBE441:
  30:Drivers/display.h **** 		spi_write(cmd);
 546              		.loc 2 30 3 view .LVU200
 547              	.LBB442:
 548              	.LBB431:
 549              	.LBI426:
ARM GAS  /var/folders/84/_x1cyy_j36g486tldtwl37280000gn/T//ccaJEjXT.s 			page 16


  25:Drivers/display.h **** 		GPIOD->BSRR = GPIO_PIN_7 << 16;
 550              		.loc 2 25 14 view .LVU201
 551              	.LBB429:
  26:Drivers/display.h **** 	}
 552              		.loc 2 26 3 view .LVU202
  26:Drivers/display.h **** 	}
 553              		.loc 2 26 15 is_stmt 0 view .LVU203
 554 013c AA61     		str	r2, [r5, #24]
 555              	.L9:
  26:Drivers/display.h **** 	}
 556              		.loc 2 26 15 view .LVU204
 557              	.LBE429:
 558              	.LBE431:
 559              	.LBB432:
 560              	.LBB433:
  99:Drivers/display.h **** 		SPI2->DR = data;
 561              		.loc 2 99 3 is_stmt 1 view .LVU205
  99:Drivers/display.h **** 		SPI2->DR = data;
 562              		.loc 2 99 10 view .LVU206
  99:Drivers/display.h **** 		SPI2->DR = data;
 563              		.loc 2 99 18 is_stmt 0 view .LVU207
 564 013e 5549     		ldr	r1, .L254+24
 565 0140 8868     		ldr	r0, [r1, #8]
  99:Drivers/display.h **** 		SPI2->DR = data;
 566              		.loc 2 99 10 view .LVU208
 567 0142 8507     		lsls	r5, r0, #30
 568 0144 FBD5     		bpl	.L9
 100:Drivers/display.h **** 
 569              		.loc 2 100 3 is_stmt 1 view .LVU209
 100:Drivers/display.h **** 
 570              		.loc 2 100 12 is_stmt 0 view .LVU210
 571 0146 AE26     		movs	r6, #174
 572 0148 CE60     		str	r6, [r1, #12]
 573              	.L10:
 102:Drivers/display.h **** 		dummy = SPI2->DR;
 574              		.loc 2 102 3 is_stmt 1 view .LVU211
 102:Drivers/display.h **** 		dummy = SPI2->DR;
 575              		.loc 2 102 10 view .LVU212
 102:Drivers/display.h **** 		dummy = SPI2->DR;
 576              		.loc 2 102 18 is_stmt 0 view .LVU213
 577 014a 524F     		ldr	r7, .L254+24
 578 014c BD68     		ldr	r5, [r7, #8]
 102:Drivers/display.h **** 		dummy = SPI2->DR;
 579              		.loc 2 102 10 view .LVU214
 580 014e E807     		lsls	r0, r5, #31
 581 0150 FBD5     		bpl	.L10
 582              		.loc 2 103 3 is_stmt 1 view .LVU215
 583              		.loc 2 103 17 is_stmt 0 view .LVU216
 584 0152 FB68     		ldr	r3, [r7, #12]
 585              	.LBE433:
 586              	.LBE432:
 587              	.LBE442:
 588              	.LBB443:
 589              	.LBB444:
 590              	.LBB445:
 591              	.LBB446:
  26:Drivers/display.h **** 	}
ARM GAS  /var/folders/84/_x1cyy_j36g486tldtwl37280000gn/T//ccaJEjXT.s 			page 17


 592              		.loc 2 26 15 view .LVU217
 593 0154 494A     		ldr	r2, .L254
 594              	.LBE446:
 595              	.LBE445:
 596              	.LBE444:
 597              	.LBE443:
 598              	.LBB480:
 599              	.LBB436:
 600              	.LBB434:
 601              		.loc 2 103 9 view .LVU218
 602 0156 D8B2     		uxtb	r0, r3
 603              	.LBE434:
 604              	.LBE436:
 605              	.LBE480:
 606              	.LBB481:
 607              	.LBB457:
 608              	.LBB449:
 609              	.LBB447:
  26:Drivers/display.h **** 	}
 610              		.loc 2 26 15 view .LVU219
 611 0158 4FF40001 		mov	r1, #8388608
 612              	.LBE447:
 613              	.LBE449:
 614              	.LBE457:
 615              	.LBE481:
 616              	.LBB482:
 617              	.LBB437:
 618              	.LBB435:
 619              		.loc 2 103 9 view .LVU220
 620 015c 2070     		strb	r0, [r4]
 621              	.LVL16:
 622              		.loc 2 103 9 view .LVU221
 623              	.LBE435:
 624              	.LBE437:
 625              	.LBE482:
  82:Drivers/display.cpp **** 	sendCommand(0xb3, 0xd1);		// Set Front Clock Divider / Oscillator Frequency
 626              		.loc 1 82 2 is_stmt 1 view .LVU222
 627              	.LBB483:
 628              	.LBI443:
  39:Drivers/display.h **** 		sendCommand(cmd);
 629              		.loc 2 39 7 view .LVU223
 630              	.LBE483:
  40:Drivers/display.h **** 		sendData(data);
 631              		.loc 2 40 3 view .LVU224
 632              	.LBB484:
 633              	.LBB458:
 634              	.LBI444:
  29:Drivers/display.h **** 		cd_low();
 635              		.loc 2 29 7 view .LVU225
 636              	.LBE458:
 637              	.LBE484:
  30:Drivers/display.h **** 		spi_write(cmd);
 638              		.loc 2 30 3 view .LVU226
 639              	.LBB485:
 640              	.LBB459:
 641              	.LBB450:
 642              	.LBI445:
ARM GAS  /var/folders/84/_x1cyy_j36g486tldtwl37280000gn/T//ccaJEjXT.s 			page 18


  25:Drivers/display.h **** 		GPIOD->BSRR = GPIO_PIN_7 << 16;
 643              		.loc 2 25 14 view .LVU227
 644              	.LBB448:
  26:Drivers/display.h **** 	}
 645              		.loc 2 26 3 view .LVU228
  26:Drivers/display.h **** 	}
 646              		.loc 2 26 15 is_stmt 0 view .LVU229
 647 015e 9161     		str	r1, [r2, #24]
 648              	.L11:
  26:Drivers/display.h **** 	}
 649              		.loc 2 26 15 view .LVU230
 650              	.LBE448:
 651              	.LBE450:
 652              	.LBB451:
 653              	.LBB452:
  99:Drivers/display.h **** 		SPI2->DR = data;
 654              		.loc 2 99 3 is_stmt 1 view .LVU231
  99:Drivers/display.h **** 		SPI2->DR = data;
 655              		.loc 2 99 10 view .LVU232
  99:Drivers/display.h **** 		SPI2->DR = data;
 656              		.loc 2 99 18 is_stmt 0 view .LVU233
 657 0160 4C4E     		ldr	r6, .L254+24
 658 0162 B768     		ldr	r7, [r6, #8]
  99:Drivers/display.h **** 		SPI2->DR = data;
 659              		.loc 2 99 10 view .LVU234
 660 0164 B907     		lsls	r1, r7, #30
 661 0166 FBD5     		bpl	.L11
 100:Drivers/display.h **** 
 662              		.loc 2 100 3 is_stmt 1 view .LVU235
 100:Drivers/display.h **** 
 663              		.loc 2 100 12 is_stmt 0 view .LVU236
 664 0168 B325     		movs	r5, #179
 665 016a F560     		str	r5, [r6, #12]
 666              	.L12:
 102:Drivers/display.h **** 		dummy = SPI2->DR;
 667              		.loc 2 102 3 is_stmt 1 view .LVU237
 102:Drivers/display.h **** 		dummy = SPI2->DR;
 668              		.loc 2 102 10 view .LVU238
 102:Drivers/display.h **** 		dummy = SPI2->DR;
 669              		.loc 2 102 18 is_stmt 0 view .LVU239
 670 016c 494B     		ldr	r3, .L254+24
 671 016e 9A68     		ldr	r2, [r3, #8]
 102:Drivers/display.h **** 		dummy = SPI2->DR;
 672              		.loc 2 102 10 view .LVU240
 673 0170 D207     		lsls	r2, r2, #31
 674 0172 FBD5     		bpl	.L12
 675              		.loc 2 103 3 is_stmt 1 view .LVU241
 676              		.loc 2 103 17 is_stmt 0 view .LVU242
 677 0174 D868     		ldr	r0, [r3, #12]
 678              	.LBE452:
 679              	.LBE451:
 680              	.LBE459:
 681              	.LBB460:
 682              	.LBB461:
 683              	.LBB462:
  22:Drivers/display.h **** 	}
 684              		.loc 2 22 15 view .LVU243
ARM GAS  /var/folders/84/_x1cyy_j36g486tldtwl37280000gn/T//ccaJEjXT.s 			page 19


 685 0176 414E     		ldr	r6, .L254
 686              	.LBE462:
 687              	.LBE461:
 688              	.LBE460:
 689              	.LBB473:
 690              	.LBB455:
 691              	.LBB453:
 692              		.loc 2 103 9 view .LVU244
 693 0178 C7B2     		uxtb	r7, r0
 694              	.LBE453:
 695              	.LBE455:
 696              	.LBE473:
 697              	.LBB474:
 698              	.LBB465:
 699              	.LBB463:
  22:Drivers/display.h **** 	}
 700              		.loc 2 22 15 view .LVU245
 701 017a 8021     		movs	r1, #128
 702              	.LBE463:
 703              	.LBE465:
 704              	.LBE474:
 705              	.LBB475:
 706              	.LBB456:
 707              	.LBB454:
 708              		.loc 2 103 9 view .LVU246
 709 017c 2770     		strb	r7, [r4]
 710              	.LVL17:
 711              		.loc 2 103 9 view .LVU247
 712              	.LBE454:
 713              	.LBE456:
 714              	.LBE475:
 715              	.LBE485:
  41:Drivers/display.h **** 	}
 716              		.loc 2 41 3 is_stmt 1 view .LVU248
 717              	.LBB486:
 718              	.LBB476:
 719              	.LBI460:
  34:Drivers/display.h **** 		cd_high();
 720              		.loc 2 34 7 view .LVU249
 721              	.LBE476:
 722              	.LBE486:
  35:Drivers/display.h **** 		spi_write(data);
 723              		.loc 2 35 3 view .LVU250
 724              	.LBB487:
 725              	.LBB477:
 726              	.LBB466:
 727              	.LBI461:
  21:Drivers/display.h **** 		GPIOD->BSRR = GPIO_PIN_7;
 728              		.loc 2 21 14 view .LVU251
 729              	.LBB464:
  22:Drivers/display.h **** 	}
 730              		.loc 2 22 3 view .LVU252
  22:Drivers/display.h **** 	}
 731              		.loc 2 22 15 is_stmt 0 view .LVU253
 732 017e B161     		str	r1, [r6, #24]
 733              	.L13:
  22:Drivers/display.h **** 	}
ARM GAS  /var/folders/84/_x1cyy_j36g486tldtwl37280000gn/T//ccaJEjXT.s 			page 20


 734              		.loc 2 22 15 view .LVU254
 735              	.LBE464:
 736              	.LBE466:
 737              	.LBB467:
 738              	.LBB468:
  99:Drivers/display.h **** 		SPI2->DR = data;
 739              		.loc 2 99 3 is_stmt 1 view .LVU255
  99:Drivers/display.h **** 		SPI2->DR = data;
 740              		.loc 2 99 10 view .LVU256
  99:Drivers/display.h **** 		SPI2->DR = data;
 741              		.loc 2 99 18 is_stmt 0 view .LVU257
 742 0180 444D     		ldr	r5, .L254+24
 743 0182 AB68     		ldr	r3, [r5, #8]
  99:Drivers/display.h **** 		SPI2->DR = data;
 744              		.loc 2 99 10 view .LVU258
 745 0184 9F07     		lsls	r7, r3, #30
 746 0186 FBD5     		bpl	.L13
 100:Drivers/display.h **** 
 747              		.loc 2 100 3 is_stmt 1 view .LVU259
 100:Drivers/display.h **** 
 748              		.loc 2 100 12 is_stmt 0 view .LVU260
 749 0188 D122     		movs	r2, #209
 750 018a EA60     		str	r2, [r5, #12]
 751              	.L14:
 102:Drivers/display.h **** 		dummy = SPI2->DR;
 752              		.loc 2 102 3 is_stmt 1 view .LVU261
 102:Drivers/display.h **** 		dummy = SPI2->DR;
 753              		.loc 2 102 10 view .LVU262
 102:Drivers/display.h **** 		dummy = SPI2->DR;
 754              		.loc 2 102 18 is_stmt 0 view .LVU263
 755 018c 4148     		ldr	r0, .L254+24
 756 018e 8668     		ldr	r6, [r0, #8]
 102:Drivers/display.h **** 		dummy = SPI2->DR;
 757              		.loc 2 102 10 view .LVU264
 758 0190 F607     		lsls	r6, r6, #31
 759 0192 FBD5     		bpl	.L14
 760              		.loc 2 103 3 is_stmt 1 view .LVU265
 761              		.loc 2 103 17 is_stmt 0 view .LVU266
 762 0194 C768     		ldr	r7, [r0, #12]
 763              	.LBE468:
 764              	.LBE467:
 765              	.LBE477:
 766              	.LBE487:
 767              	.LBB488:
 768              	.LBB489:
 769              	.LBB490:
 770              	.LBB491:
  26:Drivers/display.h **** 	}
 771              		.loc 2 26 15 view .LVU267
 772 0196 394D     		ldr	r5, .L254
 773              	.LBE491:
 774              	.LBE490:
 775              	.LBE489:
 776              	.LBE488:
 777              	.LBB525:
 778              	.LBB478:
 779              	.LBB471:
ARM GAS  /var/folders/84/_x1cyy_j36g486tldtwl37280000gn/T//ccaJEjXT.s 			page 21


 780              	.LBB469:
 781              		.loc 2 103 9 view .LVU268
 782 0198 FBB2     		uxtb	r3, r7
 783              	.LBE469:
 784              	.LBE471:
 785              	.LBE478:
 786              	.LBE525:
 787              	.LBB526:
 788              	.LBB502:
 789              	.LBB494:
 790              	.LBB492:
  26:Drivers/display.h **** 	}
 791              		.loc 2 26 15 view .LVU269
 792 019a 4FF40001 		mov	r1, #8388608
 793              	.LBE492:
 794              	.LBE494:
 795              	.LBE502:
 796              	.LBE526:
 797              	.LBB527:
 798              	.LBB479:
 799              	.LBB472:
 800              	.LBB470:
 801              		.loc 2 103 9 view .LVU270
 802 019e 2370     		strb	r3, [r4]
 803              	.LVL18:
 804              		.loc 2 103 9 view .LVU271
 805              	.LBE470:
 806              	.LBE472:
 807              	.LBE479:
 808              	.LBE527:
  83:Drivers/display.cpp **** 	sendCommand(0xca, 0x3f);		// Set MUX Ratio | 0x3f = 64mux
 809              		.loc 1 83 2 is_stmt 1 view .LVU272
 810              	.LBB528:
 811              	.LBI488:
  39:Drivers/display.h **** 		sendCommand(cmd);
 812              		.loc 2 39 7 view .LVU273
 813              	.LBE528:
  40:Drivers/display.h **** 		sendData(data);
 814              		.loc 2 40 3 view .LVU274
 815              	.LBB529:
 816              	.LBB503:
 817              	.LBI489:
  29:Drivers/display.h **** 		cd_low();
 818              		.loc 2 29 7 view .LVU275
 819              	.LBE503:
 820              	.LBE529:
  30:Drivers/display.h **** 		spi_write(cmd);
 821              		.loc 2 30 3 view .LVU276
 822              	.LBB530:
 823              	.LBB504:
 824              	.LBB495:
 825              	.LBI490:
  25:Drivers/display.h **** 		GPIOD->BSRR = GPIO_PIN_7 << 16;
 826              		.loc 2 25 14 view .LVU277
 827              	.LBB493:
  26:Drivers/display.h **** 	}
 828              		.loc 2 26 3 view .LVU278
ARM GAS  /var/folders/84/_x1cyy_j36g486tldtwl37280000gn/T//ccaJEjXT.s 			page 22


  26:Drivers/display.h **** 	}
 829              		.loc 2 26 15 is_stmt 0 view .LVU279
 830 01a0 A961     		str	r1, [r5, #24]
 831              	.L15:
  26:Drivers/display.h **** 	}
 832              		.loc 2 26 15 view .LVU280
 833              	.LBE493:
 834              	.LBE495:
 835              	.LBB496:
 836              	.LBB497:
  99:Drivers/display.h **** 		SPI2->DR = data;
 837              		.loc 2 99 3 is_stmt 1 view .LVU281
  99:Drivers/display.h **** 		SPI2->DR = data;
 838              		.loc 2 99 10 view .LVU282
  99:Drivers/display.h **** 		SPI2->DR = data;
 839              		.loc 2 99 18 is_stmt 0 view .LVU283
 840 01a2 3C48     		ldr	r0, .L254+24
 841 01a4 8268     		ldr	r2, [r0, #8]
  99:Drivers/display.h **** 		SPI2->DR = data;
 842              		.loc 2 99 10 view .LVU284
 843 01a6 9507     		lsls	r5, r2, #30
 844 01a8 FBD5     		bpl	.L15
 100:Drivers/display.h **** 
 845              		.loc 2 100 3 is_stmt 1 view .LVU285
 100:Drivers/display.h **** 
 846              		.loc 2 100 12 is_stmt 0 view .LVU286
 847 01aa CA26     		movs	r6, #202
 848 01ac C660     		str	r6, [r0, #12]
 849              	.L16:
 102:Drivers/display.h **** 		dummy = SPI2->DR;
 850              		.loc 2 102 3 is_stmt 1 view .LVU287
 102:Drivers/display.h **** 		dummy = SPI2->DR;
 851              		.loc 2 102 10 view .LVU288
 102:Drivers/display.h **** 		dummy = SPI2->DR;
 852              		.loc 2 102 18 is_stmt 0 view .LVU289
 853 01ae 394F     		ldr	r7, .L254+24
 854 01b0 BD68     		ldr	r5, [r7, #8]
 102:Drivers/display.h **** 		dummy = SPI2->DR;
 855              		.loc 2 102 10 view .LVU290
 856 01b2 E807     		lsls	r0, r5, #31
 857 01b4 FBD5     		bpl	.L16
 858              		.loc 2 103 3 is_stmt 1 view .LVU291
 859              		.loc 2 103 17 is_stmt 0 view .LVU292
 860 01b6 FB68     		ldr	r3, [r7, #12]
 861              	.LBE497:
 862              	.LBE496:
 863              	.LBE504:
 864              	.LBB505:
 865              	.LBB506:
 866              	.LBB507:
  22:Drivers/display.h **** 	}
 867              		.loc 2 22 15 view .LVU293
 868 01b8 3048     		ldr	r0, .L254
 869              	.LBE507:
 870              	.LBE506:
 871              	.LBE505:
 872              	.LBB518:
ARM GAS  /var/folders/84/_x1cyy_j36g486tldtwl37280000gn/T//ccaJEjXT.s 			page 23


 873              	.LBB500:
 874              	.LBB498:
 875              		.loc 2 103 9 view .LVU294
 876 01ba DAB2     		uxtb	r2, r3
 877              	.LBE498:
 878              	.LBE500:
 879              	.LBE518:
 880              	.LBB519:
 881              	.LBB510:
 882              	.LBB508:
  22:Drivers/display.h **** 	}
 883              		.loc 2 22 15 view .LVU295
 884 01bc 8021     		movs	r1, #128
 885              	.LBE508:
 886              	.LBE510:
 887              	.LBE519:
 888              	.LBB520:
 889              	.LBB501:
 890              	.LBB499:
 891              		.loc 2 103 9 view .LVU296
 892 01be 2270     		strb	r2, [r4]
 893              	.LVL19:
 894              		.loc 2 103 9 view .LVU297
 895              	.LBE499:
 896              	.LBE501:
 897              	.LBE520:
 898              	.LBE530:
  41:Drivers/display.h **** 	}
 899              		.loc 2 41 3 is_stmt 1 view .LVU298
 900              	.LBB531:
 901              	.LBB521:
 902              	.LBI505:
  34:Drivers/display.h **** 		cd_high();
 903              		.loc 2 34 7 view .LVU299
 904              	.LBE521:
 905              	.LBE531:
  35:Drivers/display.h **** 		spi_write(data);
 906              		.loc 2 35 3 view .LVU300
 907              	.LBB532:
 908              	.LBB522:
 909              	.LBB511:
 910              	.LBI506:
  21:Drivers/display.h **** 		GPIOD->BSRR = GPIO_PIN_7;
 911              		.loc 2 21 14 view .LVU301
 912              	.LBB509:
  22:Drivers/display.h **** 	}
 913              		.loc 2 22 3 view .LVU302
  22:Drivers/display.h **** 	}
 914              		.loc 2 22 15 is_stmt 0 view .LVU303
 915 01c0 8161     		str	r1, [r0, #24]
 916              	.L17:
  22:Drivers/display.h **** 	}
 917              		.loc 2 22 15 view .LVU304
 918              	.LBE509:
 919              	.LBE511:
 920              	.LBB512:
 921              	.LBB513:
ARM GAS  /var/folders/84/_x1cyy_j36g486tldtwl37280000gn/T//ccaJEjXT.s 			page 24


  99:Drivers/display.h **** 		SPI2->DR = data;
 922              		.loc 2 99 3 is_stmt 1 view .LVU305
  99:Drivers/display.h **** 		SPI2->DR = data;
 923              		.loc 2 99 10 view .LVU306
  99:Drivers/display.h **** 		SPI2->DR = data;
 924              		.loc 2 99 18 is_stmt 0 view .LVU307
 925 01c2 344E     		ldr	r6, .L254+24
 926 01c4 B768     		ldr	r7, [r6, #8]
  99:Drivers/display.h **** 		SPI2->DR = data;
 927              		.loc 2 99 10 view .LVU308
 928 01c6 B907     		lsls	r1, r7, #30
 929 01c8 FBD5     		bpl	.L17
 100:Drivers/display.h **** 
 930              		.loc 2 100 3 is_stmt 1 view .LVU309
 100:Drivers/display.h **** 
 931              		.loc 2 100 12 is_stmt 0 view .LVU310
 932 01ca 3F25     		movs	r5, #63
 933 01cc F560     		str	r5, [r6, #12]
 934              	.L18:
 102:Drivers/display.h **** 		dummy = SPI2->DR;
 935              		.loc 2 102 3 is_stmt 1 view .LVU311
 102:Drivers/display.h **** 		dummy = SPI2->DR;
 936              		.loc 2 102 10 view .LVU312
 102:Drivers/display.h **** 		dummy = SPI2->DR;
 937              		.loc 2 102 18 is_stmt 0 view .LVU313
 938 01ce 314B     		ldr	r3, .L254+24
 939 01d0 9868     		ldr	r0, [r3, #8]
 102:Drivers/display.h **** 		dummy = SPI2->DR;
 940              		.loc 2 102 10 view .LVU314
 941 01d2 C207     		lsls	r2, r0, #31
 942 01d4 FBD5     		bpl	.L18
 943              		.loc 2 103 3 is_stmt 1 view .LVU315
 944              		.loc 2 103 17 is_stmt 0 view .LVU316
 945 01d6 D968     		ldr	r1, [r3, #12]
 946              	.LBE513:
 947              	.LBE512:
 948              	.LBE522:
 949              	.LBE532:
 950              	.LBB533:
 951              	.LBB534:
 952              	.LBB535:
 953              	.LBB536:
  26:Drivers/display.h **** 	}
 954              		.loc 2 26 15 view .LVU317
 955 01d8 284A     		ldr	r2, .L254
 956              	.LBE536:
 957              	.LBE535:
 958              	.LBE534:
 959              	.LBE533:
 960              	.LBB570:
 961              	.LBB523:
 962              	.LBB516:
 963              	.LBB514:
 964              		.loc 2 103 9 view .LVU318
 965 01da CEB2     		uxtb	r6, r1
 966              	.LBE514:
 967              	.LBE516:
ARM GAS  /var/folders/84/_x1cyy_j36g486tldtwl37280000gn/T//ccaJEjXT.s 			page 25


 968              	.LBE523:
 969              	.LBE570:
 970              	.LBB571:
 971              	.LBB547:
 972              	.LBB539:
 973              	.LBB537:
  26:Drivers/display.h **** 	}
 974              		.loc 2 26 15 view .LVU319
 975 01dc 4FF40007 		mov	r7, #8388608
 976              	.LBE537:
 977              	.LBE539:
 978              	.LBE547:
 979              	.LBE571:
 980              	.LBB572:
 981              	.LBB524:
 982              	.LBB517:
 983              	.LBB515:
 984              		.loc 2 103 9 view .LVU320
 985 01e0 2670     		strb	r6, [r4]
 986              	.LVL20:
 987              		.loc 2 103 9 view .LVU321
 988              	.LBE515:
 989              	.LBE517:
 990              	.LBE524:
 991              	.LBE572:
  84:Drivers/display.cpp **** 	sendCommand(0xa2, 0x00);		// Set Display Offset | 0x00 = reset
 992              		.loc 1 84 2 is_stmt 1 view .LVU322
 993              	.LBB573:
 994              	.LBI533:
  39:Drivers/display.h **** 		sendCommand(cmd);
 995              		.loc 2 39 7 view .LVU323
 996              	.LBE573:
  40:Drivers/display.h **** 		sendData(data);
 997              		.loc 2 40 3 view .LVU324
 998              	.LBB574:
 999              	.LBB548:
 1000              	.LBI534:
  29:Drivers/display.h **** 		cd_low();
 1001              		.loc 2 29 7 view .LVU325
 1002              	.LBE548:
 1003              	.LBE574:
  30:Drivers/display.h **** 		spi_write(cmd);
 1004              		.loc 2 30 3 view .LVU326
 1005              	.LBB575:
 1006              	.LBB549:
 1007              	.LBB540:
 1008              	.LBI535:
  25:Drivers/display.h **** 		GPIOD->BSRR = GPIO_PIN_7 << 16;
 1009              		.loc 2 25 14 view .LVU327
 1010              	.LBB538:
  26:Drivers/display.h **** 	}
 1011              		.loc 2 26 3 view .LVU328
  26:Drivers/display.h **** 	}
 1012              		.loc 2 26 15 is_stmt 0 view .LVU329
 1013 01e2 9761     		str	r7, [r2, #24]
 1014              	.L19:
  26:Drivers/display.h **** 	}
ARM GAS  /var/folders/84/_x1cyy_j36g486tldtwl37280000gn/T//ccaJEjXT.s 			page 26


 1015              		.loc 2 26 15 view .LVU330
 1016              	.LBE538:
 1017              	.LBE540:
 1018              	.LBB541:
 1019              	.LBB542:
  99:Drivers/display.h **** 		SPI2->DR = data;
 1020              		.loc 2 99 3 is_stmt 1 view .LVU331
  99:Drivers/display.h **** 		SPI2->DR = data;
 1021              		.loc 2 99 10 view .LVU332
  99:Drivers/display.h **** 		SPI2->DR = data;
 1022              		.loc 2 99 18 is_stmt 0 view .LVU333
 1023 01e4 2B4D     		ldr	r5, .L254+24
 1024 01e6 AB68     		ldr	r3, [r5, #8]
  99:Drivers/display.h **** 		SPI2->DR = data;
 1025              		.loc 2 99 10 view .LVU334
 1026 01e8 9F07     		lsls	r7, r3, #30
 1027 01ea FBD5     		bpl	.L19
 100:Drivers/display.h **** 
 1028              		.loc 2 100 3 is_stmt 1 view .LVU335
 100:Drivers/display.h **** 
 1029              		.loc 2 100 12 is_stmt 0 view .LVU336
 1030 01ec A220     		movs	r0, #162
 1031 01ee E860     		str	r0, [r5, #12]
 1032              	.L20:
 102:Drivers/display.h **** 		dummy = SPI2->DR;
 1033              		.loc 2 102 3 is_stmt 1 view .LVU337
 102:Drivers/display.h **** 		dummy = SPI2->DR;
 1034              		.loc 2 102 10 view .LVU338
 102:Drivers/display.h **** 		dummy = SPI2->DR;
 1035              		.loc 2 102 18 is_stmt 0 view .LVU339
 1036 01f0 2849     		ldr	r1, .L254+24
 1037 01f2 8A68     		ldr	r2, [r1, #8]
 102:Drivers/display.h **** 		dummy = SPI2->DR;
 1038              		.loc 2 102 10 view .LVU340
 1039 01f4 D607     		lsls	r6, r2, #31
 1040 01f6 FBD5     		bpl	.L20
 1041              		.loc 2 103 3 is_stmt 1 view .LVU341
 1042              		.loc 2 103 17 is_stmt 0 view .LVU342
 1043 01f8 CE68     		ldr	r6, [r1, #12]
 1044              	.LBE542:
 1045              	.LBE541:
 1046              	.LBE549:
 1047              	.LBB550:
 1048              	.LBB551:
 1049              	.LBB552:
  22:Drivers/display.h **** 	}
 1050              		.loc 2 22 15 view .LVU343
 1051 01fa 204F     		ldr	r7, .L254
 1052              	.LBE552:
 1053              	.LBE551:
 1054              	.LBE550:
 1055              	.LBB563:
 1056              	.LBB545:
 1057              	.LBB543:
 1058              		.loc 2 103 9 view .LVU344
 1059 01fc F5B2     		uxtb	r5, r6
 1060              	.LBE543:
ARM GAS  /var/folders/84/_x1cyy_j36g486tldtwl37280000gn/T//ccaJEjXT.s 			page 27


 1061              	.LBE545:
 1062              	.LBE563:
 1063              	.LBB564:
 1064              	.LBB555:
 1065              	.LBB553:
  22:Drivers/display.h **** 	}
 1066              		.loc 2 22 15 view .LVU345
 1067 01fe 8023     		movs	r3, #128
 1068              	.LBE553:
 1069              	.LBE555:
 1070              	.LBE564:
 1071              	.LBB565:
 1072              	.LBB546:
 1073              	.LBB544:
 1074              		.loc 2 103 9 view .LVU346
 1075 0200 2570     		strb	r5, [r4]
 1076              	.LVL21:
 1077              		.loc 2 103 9 view .LVU347
 1078              	.LBE544:
 1079              	.LBE546:
 1080              	.LBE565:
 1081              	.LBE575:
  41:Drivers/display.h **** 	}
 1082              		.loc 2 41 3 is_stmt 1 view .LVU348
 1083              	.LBB576:
 1084              	.LBB566:
 1085              	.LBI550:
  34:Drivers/display.h **** 		cd_high();
 1086              		.loc 2 34 7 view .LVU349
 1087              	.LBE566:
 1088              	.LBE576:
  35:Drivers/display.h **** 		spi_write(data);
 1089              		.loc 2 35 3 view .LVU350
 1090              	.LBB577:
 1091              	.LBB567:
 1092              	.LBB556:
 1093              	.LBI551:
  21:Drivers/display.h **** 		GPIOD->BSRR = GPIO_PIN_7;
 1094              		.loc 2 21 14 view .LVU351
 1095              	.LBB554:
  22:Drivers/display.h **** 	}
 1096              		.loc 2 22 3 view .LVU352
  22:Drivers/display.h **** 	}
 1097              		.loc 2 22 15 is_stmt 0 view .LVU353
 1098 0202 BB61     		str	r3, [r7, #24]
 1099              	.L21:
  22:Drivers/display.h **** 	}
 1100              		.loc 2 22 15 view .LVU354
 1101              	.LBE554:
 1102              	.LBE556:
 1103              	.LBB557:
 1104              	.LBB558:
  99:Drivers/display.h **** 		SPI2->DR = data;
 1105              		.loc 2 99 3 is_stmt 1 view .LVU355
  99:Drivers/display.h **** 		SPI2->DR = data;
 1106              		.loc 2 99 10 view .LVU356
  99:Drivers/display.h **** 		SPI2->DR = data;
ARM GAS  /var/folders/84/_x1cyy_j36g486tldtwl37280000gn/T//ccaJEjXT.s 			page 28


 1107              		.loc 2 99 18 is_stmt 0 view .LVU357
 1108 0204 2348     		ldr	r0, .L254+24
 1109 0206 8168     		ldr	r1, [r0, #8]
  99:Drivers/display.h **** 		SPI2->DR = data;
 1110              		.loc 2 99 10 view .LVU358
 1111 0208 8D07     		lsls	r5, r1, #30
 1112 020a FBD5     		bpl	.L21
 100:Drivers/display.h **** 
 1113              		.loc 2 100 3 is_stmt 1 view .LVU359
 100:Drivers/display.h **** 
 1114              		.loc 2 100 12 is_stmt 0 view .LVU360
 1115 020c 0022     		movs	r2, #0
 1116 020e C260     		str	r2, [r0, #12]
 1117              	.L22:
 102:Drivers/display.h **** 		dummy = SPI2->DR;
 1118              		.loc 2 102 3 is_stmt 1 view .LVU361
 102:Drivers/display.h **** 		dummy = SPI2->DR;
 1119              		.loc 2 102 10 view .LVU362
 102:Drivers/display.h **** 		dummy = SPI2->DR;
 1120              		.loc 2 102 18 is_stmt 0 view .LVU363
 1121 0210 204E     		ldr	r6, .L254+24
 1122 0212 B768     		ldr	r7, [r6, #8]
 102:Drivers/display.h **** 		dummy = SPI2->DR;
 1123              		.loc 2 102 10 view .LVU364
 1124 0214 F807     		lsls	r0, r7, #31
 1125 0216 FBD5     		bpl	.L22
 1126              		.loc 2 103 3 is_stmt 1 view .LVU365
 1127              		.loc 2 103 17 is_stmt 0 view .LVU366
 1128 0218 F568     		ldr	r5, [r6, #12]
 1129              	.LBE558:
 1130              	.LBE557:
 1131              	.LBE567:
 1132              	.LBE577:
 1133              	.LBB578:
 1134              	.LBB579:
 1135              	.LBB580:
 1136              	.LBB581:
  26:Drivers/display.h **** 	}
 1137              		.loc 2 26 15 view .LVU367
 1138 021a 1848     		ldr	r0, .L254
 1139              	.LBE581:
 1140              	.LBE580:
 1141              	.LBE579:
 1142              	.LBE578:
 1143              	.LBB615:
 1144              	.LBB568:
 1145              	.LBB561:
 1146              	.LBB559:
 1147              		.loc 2 103 9 view .LVU368
 1148 021c EBB2     		uxtb	r3, r5
 1149              	.LBE559:
 1150              	.LBE561:
 1151              	.LBE568:
 1152              	.LBE615:
 1153              	.LBB616:
 1154              	.LBB592:
 1155              	.LBB584:
ARM GAS  /var/folders/84/_x1cyy_j36g486tldtwl37280000gn/T//ccaJEjXT.s 			page 29


 1156              	.LBB582:
  26:Drivers/display.h **** 	}
 1157              		.loc 2 26 15 view .LVU369
 1158 021e 4FF40001 		mov	r1, #8388608
 1159              	.LBE582:
 1160              	.LBE584:
 1161              	.LBE592:
 1162              	.LBE616:
 1163              	.LBB617:
 1164              	.LBB569:
 1165              	.LBB562:
 1166              	.LBB560:
 1167              		.loc 2 103 9 view .LVU370
 1168 0222 2370     		strb	r3, [r4]
 1169              	.LVL22:
 1170              		.loc 2 103 9 view .LVU371
 1171              	.LBE560:
 1172              	.LBE562:
 1173              	.LBE569:
 1174              	.LBE617:
  85:Drivers/display.cpp **** 	sendCommand(0xa1, 0x00);		// Set Display Start Line, 0x00 = register
 1175              		.loc 1 85 2 is_stmt 1 view .LVU372
 1176              	.LBB618:
 1177              	.LBI578:
  39:Drivers/display.h **** 		sendCommand(cmd);
 1178              		.loc 2 39 7 view .LVU373
 1179              	.LBE618:
  40:Drivers/display.h **** 		sendData(data);
 1180              		.loc 2 40 3 view .LVU374
 1181              	.LBB619:
 1182              	.LBB593:
 1183              	.LBI579:
  29:Drivers/display.h **** 		cd_low();
 1184              		.loc 2 29 7 view .LVU375
 1185              	.LBE593:
 1186              	.LBE619:
  30:Drivers/display.h **** 		spi_write(cmd);
 1187              		.loc 2 30 3 view .LVU376
 1188              	.LBB620:
 1189              	.LBB594:
 1190              	.LBB585:
 1191              	.LBI580:
  25:Drivers/display.h **** 		GPIOD->BSRR = GPIO_PIN_7 << 16;
 1192              		.loc 2 25 14 view .LVU377
 1193              	.LBB583:
  26:Drivers/display.h **** 	}
 1194              		.loc 2 26 3 view .LVU378
  26:Drivers/display.h **** 	}
 1195              		.loc 2 26 15 is_stmt 0 view .LVU379
 1196 0224 8161     		str	r1, [r0, #24]
 1197              	.L23:
  26:Drivers/display.h **** 	}
 1198              		.loc 2 26 15 view .LVU380
 1199              	.LBE583:
 1200              	.LBE585:
 1201              	.LBB586:
 1202              	.LBB587:
ARM GAS  /var/folders/84/_x1cyy_j36g486tldtwl37280000gn/T//ccaJEjXT.s 			page 30


  99:Drivers/display.h **** 		SPI2->DR = data;
 1203              		.loc 2 99 3 is_stmt 1 view .LVU381
  99:Drivers/display.h **** 		SPI2->DR = data;
 1204              		.loc 2 99 10 view .LVU382
  99:Drivers/display.h **** 		SPI2->DR = data;
 1205              		.loc 2 99 18 is_stmt 0 view .LVU383
 1206 0226 1B4E     		ldr	r6, .L254+24
 1207 0228 B268     		ldr	r2, [r6, #8]
  99:Drivers/display.h **** 		SPI2->DR = data;
 1208              		.loc 2 99 10 view .LVU384
 1209 022a 9107     		lsls	r1, r2, #30
 1210 022c FBD5     		bpl	.L23
 100:Drivers/display.h **** 
 1211              		.loc 2 100 3 is_stmt 1 view .LVU385
 100:Drivers/display.h **** 
 1212              		.loc 2 100 12 is_stmt 0 view .LVU386
 1213 022e A127     		movs	r7, #161
 1214 0230 F760     		str	r7, [r6, #12]
 1215              	.L24:
 102:Drivers/display.h **** 		dummy = SPI2->DR;
 1216              		.loc 2 102 3 is_stmt 1 view .LVU387
 102:Drivers/display.h **** 		dummy = SPI2->DR;
 1217              		.loc 2 102 10 view .LVU388
 102:Drivers/display.h **** 		dummy = SPI2->DR;
 1218              		.loc 2 102 18 is_stmt 0 view .LVU389
 1219 0232 184D     		ldr	r5, .L254+24
 1220 0234 A868     		ldr	r0, [r5, #8]
 102:Drivers/display.h **** 		dummy = SPI2->DR;
 1221              		.loc 2 102 10 view .LVU390
 1222 0236 C207     		lsls	r2, r0, #31
 1223 0238 FBD5     		bpl	.L24
 1224              		.loc 2 103 3 is_stmt 1 view .LVU391
 1225              		.loc 2 103 17 is_stmt 0 view .LVU392
 1226 023a EB68     		ldr	r3, [r5, #12]
 1227              	.LBE587:
 1228              	.LBE586:
 1229              	.LBE594:
 1230              	.LBB595:
 1231              	.LBB596:
 1232              	.LBB597:
  22:Drivers/display.h **** 	}
 1233              		.loc 2 22 15 view .LVU393
 1234 023c 0F4E     		ldr	r6, .L254
 1235              	.LBE597:
 1236              	.LBE596:
 1237              	.LBE595:
 1238              	.LBB608:
 1239              	.LBB590:
 1240              	.LBB588:
 1241              		.loc 2 103 9 view .LVU394
 1242 023e DAB2     		uxtb	r2, r3
 1243              	.LBE588:
 1244              	.LBE590:
 1245              	.LBE608:
 1246              	.LBB609:
 1247              	.LBB600:
 1248              	.LBB598:
ARM GAS  /var/folders/84/_x1cyy_j36g486tldtwl37280000gn/T//ccaJEjXT.s 			page 31


  22:Drivers/display.h **** 	}
 1249              		.loc 2 22 15 view .LVU395
 1250 0240 8021     		movs	r1, #128
 1251              	.LBE598:
 1252              	.LBE600:
 1253              	.LBE609:
 1254              	.LBB610:
 1255              	.LBB591:
 1256              	.LBB589:
 1257              		.loc 2 103 9 view .LVU396
 1258 0242 2270     		strb	r2, [r4]
 1259              	.LVL23:
 1260              		.loc 2 103 9 view .LVU397
 1261              	.LBE589:
 1262              	.LBE591:
 1263              	.LBE610:
 1264              	.LBE620:
  41:Drivers/display.h **** 	}
 1265              		.loc 2 41 3 is_stmt 1 view .LVU398
 1266              	.LBB621:
 1267              	.LBB611:
 1268              	.LBI595:
  34:Drivers/display.h **** 		cd_high();
 1269              		.loc 2 34 7 view .LVU399
 1270              	.LBE611:
 1271              	.LBE621:
  35:Drivers/display.h **** 		spi_write(data);
 1272              		.loc 2 35 3 view .LVU400
 1273              	.LBB622:
 1274              	.LBB612:
 1275              	.LBB601:
 1276              	.LBI596:
  21:Drivers/display.h **** 		GPIOD->BSRR = GPIO_PIN_7;
 1277              		.loc 2 21 14 view .LVU401
 1278              	.LBB599:
  22:Drivers/display.h **** 	}
 1279              		.loc 2 22 3 view .LVU402
  22:Drivers/display.h **** 	}
 1280              		.loc 2 22 15 is_stmt 0 view .LVU403
 1281 0244 B161     		str	r1, [r6, #24]
 1282              	.L25:
  22:Drivers/display.h **** 	}
 1283              		.loc 2 22 15 view .LVU404
 1284              	.LBE599:
 1285              	.LBE601:
 1286              	.LBB602:
 1287              	.LBB603:
  99:Drivers/display.h **** 		SPI2->DR = data;
 1288              		.loc 2 99 3 is_stmt 1 view .LVU405
  99:Drivers/display.h **** 		SPI2->DR = data;
 1289              		.loc 2 99 10 view .LVU406
  99:Drivers/display.h **** 		SPI2->DR = data;
 1290              		.loc 2 99 18 is_stmt 0 view .LVU407
 1291 0246 134D     		ldr	r5, .L254+24
 1292 0248 AF68     		ldr	r7, [r5, #8]
  99:Drivers/display.h **** 		SPI2->DR = data;
 1293              		.loc 2 99 10 view .LVU408
ARM GAS  /var/folders/84/_x1cyy_j36g486tldtwl37280000gn/T//ccaJEjXT.s 			page 32


 1294 024a BF07     		lsls	r7, r7, #30
 1295 024c FBD5     		bpl	.L25
 100:Drivers/display.h **** 
 1296              		.loc 2 100 3 is_stmt 1 view .LVU409
 100:Drivers/display.h **** 
 1297              		.loc 2 100 12 is_stmt 0 view .LVU410
 1298 024e 0020     		movs	r0, #0
 1299 0250 E860     		str	r0, [r5, #12]
 1300              	.L26:
 102:Drivers/display.h **** 		dummy = SPI2->DR;
 1301              		.loc 2 102 3 is_stmt 1 view .LVU411
 102:Drivers/display.h **** 		dummy = SPI2->DR;
 1302              		.loc 2 102 10 view .LVU412
 102:Drivers/display.h **** 		dummy = SPI2->DR;
 1303              		.loc 2 102 18 is_stmt 0 view .LVU413
 1304 0252 104B     		ldr	r3, .L254+24
 1305 0254 9E68     		ldr	r6, [r3, #8]
 102:Drivers/display.h **** 		dummy = SPI2->DR;
 1306              		.loc 2 102 10 view .LVU414
 1307 0256 F607     		lsls	r6, r6, #31
 1308 0258 FBD5     		bpl	.L26
 1309              		.loc 2 103 3 is_stmt 1 view .LVU415
 1310              		.loc 2 103 17 is_stmt 0 view .LVU416
 1311 025a D968     		ldr	r1, [r3, #12]
 1312              	.LBE603:
 1313              	.LBE602:
 1314              	.LBE612:
 1315              	.LBE622:
 1316              	.LBB623:
 1317              	.LBB624:
 1318              	.LBB625:
 1319              	.LBB626:
  26:Drivers/display.h **** 	}
 1320              		.loc 2 26 15 view .LVU417
 1321 025c 074A     		ldr	r2, .L254
 1322              	.LBE626:
 1323              	.LBE625:
 1324              	.LBE624:
 1325              	.LBE623:
 1326              	.LBB678:
 1327              	.LBB613:
 1328              	.LBB606:
 1329              	.LBB604:
 1330              		.loc 2 103 9 view .LVU418
 1331 025e CDB2     		uxtb	r5, r1
 1332              	.LBE604:
 1333              	.LBE606:
 1334              	.LBE613:
 1335              	.LBE678:
 1336              	.LBB679:
 1337              	.LBB637:
 1338              	.LBB629:
 1339              	.LBB627:
  26:Drivers/display.h **** 	}
 1340              		.loc 2 26 15 view .LVU419
 1341 0260 4FF40007 		mov	r7, #8388608
 1342              	.LBE627:
ARM GAS  /var/folders/84/_x1cyy_j36g486tldtwl37280000gn/T//ccaJEjXT.s 			page 33


 1343              	.LBE629:
 1344              	.LBE637:
 1345              	.LBE679:
 1346              	.LBB680:
 1347              	.LBB614:
 1348              	.LBB607:
 1349              	.LBB605:
 1350              		.loc 2 103 9 view .LVU420
 1351 0264 2570     		strb	r5, [r4]
 1352              	.LVL24:
 1353              		.loc 2 103 9 view .LVU421
 1354              	.LBE605:
 1355              	.LBE607:
 1356              	.LBE614:
 1357              	.LBE680:
  86:Drivers/display.cpp **** 	sendCommand(0xa0, 0x14, 0x11);	// Set Re-map and Dual COM Line mode
 1358              		.loc 1 86 2 is_stmt 1 view .LVU422
 1359              	.LBB681:
 1360              	.LBI623:
  44:Drivers/display.h **** 		sendCommand(cmd);
 1361              		.loc 2 44 7 view .LVU423
 1362              	.LBE681:
  45:Drivers/display.h **** 		sendData(data_a);
 1363              		.loc 2 45 3 view .LVU424
 1364              	.LBB682:
 1365              	.LBB638:
 1366              	.LBI624:
  29:Drivers/display.h **** 		cd_low();
 1367              		.loc 2 29 7 view .LVU425
 1368              	.LBE638:
 1369              	.LBE682:
  30:Drivers/display.h **** 		spi_write(cmd);
 1370              		.loc 2 30 3 view .LVU426
 1371              	.LBB683:
 1372              	.LBB639:
 1373              	.LBB630:
 1374              	.LBI625:
  25:Drivers/display.h **** 		GPIOD->BSRR = GPIO_PIN_7 << 16;
 1375              		.loc 2 25 14 view .LVU427
 1376              	.LBB628:
  26:Drivers/display.h **** 	}
 1377              		.loc 2 26 3 view .LVU428
  26:Drivers/display.h **** 	}
 1378              		.loc 2 26 15 is_stmt 0 view .LVU429
 1379 0266 9761     		str	r7, [r2, #24]
 1380              	.L27:
  26:Drivers/display.h **** 	}
 1381              		.loc 2 26 15 view .LVU430
 1382              	.LBE628:
 1383              	.LBE630:
 1384              	.LBB631:
 1385              	.LBB632:
  99:Drivers/display.h **** 		SPI2->DR = data;
 1386              		.loc 2 99 3 is_stmt 1 view .LVU431
  99:Drivers/display.h **** 		SPI2->DR = data;
 1387              		.loc 2 99 10 view .LVU432
  99:Drivers/display.h **** 		SPI2->DR = data;
ARM GAS  /var/folders/84/_x1cyy_j36g486tldtwl37280000gn/T//ccaJEjXT.s 			page 34


 1388              		.loc 2 99 18 is_stmt 0 view .LVU433
 1389 0268 0A48     		ldr	r0, .L254+24
 1390 026a 8368     		ldr	r3, [r0, #8]
  99:Drivers/display.h **** 		SPI2->DR = data;
 1391              		.loc 2 99 10 view .LVU434
 1392 026c 9D07     		lsls	r5, r3, #30
 1393 026e FBD5     		bpl	.L27
 100:Drivers/display.h **** 
 1394              		.loc 2 100 3 is_stmt 1 view .LVU435
 100:Drivers/display.h **** 
 1395              		.loc 2 100 12 is_stmt 0 view .LVU436
 1396 0270 A026     		movs	r6, #160
 1397 0272 C660     		str	r6, [r0, #12]
 1398              	.L28:
 102:Drivers/display.h **** 		dummy = SPI2->DR;
 1399              		.loc 2 102 3 is_stmt 1 view .LVU437
 102:Drivers/display.h **** 		dummy = SPI2->DR;
 1400              		.loc 2 102 10 view .LVU438
 102:Drivers/display.h **** 		dummy = SPI2->DR;
 1401              		.loc 2 102 18 is_stmt 0 view .LVU439
 1402 0274 0749     		ldr	r1, .L254+24
 1403 0276 8A68     		ldr	r2, [r1, #8]
 102:Drivers/display.h **** 		dummy = SPI2->DR;
 1404              		.loc 2 102 10 view .LVU440
 1405 0278 D007     		lsls	r0, r2, #31
 1406 027a 0DE0     		b	.L255
 1407              	.L256:
 1408              		.align	2
 1409              	.L254:
 1410 027c 000C0240 		.word	1073875968
 1411 0280 00040240 		.word	1073873920
 1412 0284 00080240 		.word	1073874944
 1413 0288 70600240 		.word	1073897584
 1414 028c 000C0040 		.word	1073744896
 1415 0290 EF490200 		.word	149999
 1416 0294 00380040 		.word	1073756160
 1417              	.L255:
 1418 0298 ECD5     		bpl	.L28
 1419              		.loc 2 103 3 is_stmt 1 view .LVU441
 1420              		.loc 2 103 17 is_stmt 0 view .LVU442
 1421 029a CD68     		ldr	r5, [r1, #12]
 1422              	.LBE632:
 1423              	.LBE631:
 1424              	.LBE639:
 1425              	.LBB640:
 1426              	.LBB641:
 1427              	.LBB642:
  22:Drivers/display.h **** 	}
 1428              		.loc 2 22 15 view .LVU443
 1429 029c 8E4F     		ldr	r7, .L257
 1430              	.LBE642:
 1431              	.LBE641:
 1432              	.LBE640:
 1433              	.LBB653:
 1434              	.LBB635:
 1435              	.LBB633:
 1436              		.loc 2 103 9 view .LVU444
ARM GAS  /var/folders/84/_x1cyy_j36g486tldtwl37280000gn/T//ccaJEjXT.s 			page 35


 1437 029e E8B2     		uxtb	r0, r5
 1438              	.LBE633:
 1439              	.LBE635:
 1440              	.LBE653:
 1441              	.LBB654:
 1442              	.LBB645:
 1443              	.LBB643:
  22:Drivers/display.h **** 	}
 1444              		.loc 2 22 15 view .LVU445
 1445 02a0 8023     		movs	r3, #128
 1446              	.LBE643:
 1447              	.LBE645:
 1448              	.LBE654:
 1449              	.LBB655:
 1450              	.LBB636:
 1451              	.LBB634:
 1452              		.loc 2 103 9 view .LVU446
 1453 02a2 2070     		strb	r0, [r4]
 1454              	.LVL25:
 1455              		.loc 2 103 9 view .LVU447
 1456              	.LBE634:
 1457              	.LBE636:
 1458              	.LBE655:
 1459              	.LBE683:
  46:Drivers/display.h **** 		sendData(data_b);
 1460              		.loc 2 46 3 is_stmt 1 view .LVU448
 1461              	.LBB684:
 1462              	.LBB656:
 1463              	.LBI640:
  34:Drivers/display.h **** 		cd_high();
 1464              		.loc 2 34 7 view .LVU449
 1465              	.LBE656:
 1466              	.LBE684:
  35:Drivers/display.h **** 		spi_write(data);
 1467              		.loc 2 35 3 view .LVU450
 1468              	.LBB685:
 1469              	.LBB657:
 1470              	.LBB646:
 1471              	.LBI641:
  21:Drivers/display.h **** 		GPIOD->BSRR = GPIO_PIN_7;
 1472              		.loc 2 21 14 view .LVU451
 1473              	.LBB644:
  22:Drivers/display.h **** 	}
 1474              		.loc 2 22 3 view .LVU452
  22:Drivers/display.h **** 	}
 1475              		.loc 2 22 15 is_stmt 0 view .LVU453
 1476 02a4 BB61     		str	r3, [r7, #24]
 1477              	.L29:
  22:Drivers/display.h **** 	}
 1478              		.loc 2 22 15 view .LVU454
 1479              	.LBE644:
 1480              	.LBE646:
 1481              	.LBB647:
 1482              	.LBB648:
  99:Drivers/display.h **** 		SPI2->DR = data;
 1483              		.loc 2 99 3 is_stmt 1 view .LVU455
  99:Drivers/display.h **** 		SPI2->DR = data;
ARM GAS  /var/folders/84/_x1cyy_j36g486tldtwl37280000gn/T//ccaJEjXT.s 			page 36


 1484              		.loc 2 99 10 view .LVU456
  99:Drivers/display.h **** 		SPI2->DR = data;
 1485              		.loc 2 99 18 is_stmt 0 view .LVU457
 1486 02a6 8D4E     		ldr	r6, .L257+4
 1487 02a8 B168     		ldr	r1, [r6, #8]
  99:Drivers/display.h **** 		SPI2->DR = data;
 1488              		.loc 2 99 10 view .LVU458
 1489 02aa 8907     		lsls	r1, r1, #30
 1490 02ac FBD5     		bpl	.L29
 100:Drivers/display.h **** 
 1491              		.loc 2 100 3 is_stmt 1 view .LVU459
 100:Drivers/display.h **** 
 1492              		.loc 2 100 12 is_stmt 0 view .LVU460
 1493 02ae 1422     		movs	r2, #20
 1494 02b0 F260     		str	r2, [r6, #12]
 1495              	.L30:
 102:Drivers/display.h **** 		dummy = SPI2->DR;
 1496              		.loc 2 102 3 is_stmt 1 view .LVU461
 102:Drivers/display.h **** 		dummy = SPI2->DR;
 1497              		.loc 2 102 10 view .LVU462
 102:Drivers/display.h **** 		dummy = SPI2->DR;
 1498              		.loc 2 102 18 is_stmt 0 view .LVU463
 1499 02b2 8A4D     		ldr	r5, .L257+4
 1500 02b4 AF68     		ldr	r7, [r5, #8]
 102:Drivers/display.h **** 		dummy = SPI2->DR;
 1501              		.loc 2 102 10 view .LVU464
 1502 02b6 FA07     		lsls	r2, r7, #31
 1503 02b8 FBD5     		bpl	.L30
 1504              		.loc 2 103 3 is_stmt 1 view .LVU465
 1505              		.loc 2 103 17 is_stmt 0 view .LVU466
 1506 02ba E868     		ldr	r0, [r5, #12]
 1507              	.LBE648:
 1508              	.LBE647:
 1509              	.LBE657:
 1510              	.LBB658:
 1511              	.LBB659:
 1512              	.LBB660:
  22:Drivers/display.h **** 	}
 1513              		.loc 2 22 15 view .LVU467
 1514 02bc 864E     		ldr	r6, .L257
 1515              	.LBE660:
 1516              	.LBE659:
 1517              	.LBE658:
 1518              	.LBB671:
 1519              	.LBB651:
 1520              	.LBB649:
 1521              		.loc 2 103 9 view .LVU468
 1522 02be C3B2     		uxtb	r3, r0
 1523              	.LBE649:
 1524              	.LBE651:
 1525              	.LBE671:
 1526              	.LBB672:
 1527              	.LBB663:
 1528              	.LBB661:
  22:Drivers/display.h **** 	}
 1529              		.loc 2 22 15 view .LVU469
 1530 02c0 8021     		movs	r1, #128
ARM GAS  /var/folders/84/_x1cyy_j36g486tldtwl37280000gn/T//ccaJEjXT.s 			page 37


 1531              	.LBE661:
 1532              	.LBE663:
 1533              	.LBE672:
 1534              	.LBB673:
 1535              	.LBB652:
 1536              	.LBB650:
 1537              		.loc 2 103 9 view .LVU470
 1538 02c2 2370     		strb	r3, [r4]
 1539              	.LVL26:
 1540              		.loc 2 103 9 view .LVU471
 1541              	.LBE650:
 1542              	.LBE652:
 1543              	.LBE673:
 1544              	.LBE685:
  47:Drivers/display.h **** 	}
 1545              		.loc 2 47 3 is_stmt 1 view .LVU472
 1546              	.LBB686:
 1547              	.LBB674:
 1548              	.LBI658:
  34:Drivers/display.h **** 		cd_high();
 1549              		.loc 2 34 7 view .LVU473
 1550              	.LBE674:
 1551              	.LBE686:
  35:Drivers/display.h **** 		spi_write(data);
 1552              		.loc 2 35 3 view .LVU474
 1553              	.LBB687:
 1554              	.LBB675:
 1555              	.LBB664:
 1556              	.LBI659:
  21:Drivers/display.h **** 		GPIOD->BSRR = GPIO_PIN_7;
 1557              		.loc 2 21 14 view .LVU475
 1558              	.LBB662:
  22:Drivers/display.h **** 	}
 1559              		.loc 2 22 3 view .LVU476
  22:Drivers/display.h **** 	}
 1560              		.loc 2 22 15 is_stmt 0 view .LVU477
 1561 02c4 B161     		str	r1, [r6, #24]
 1562              	.L31:
  22:Drivers/display.h **** 	}
 1563              		.loc 2 22 15 view .LVU478
 1564              	.LBE662:
 1565              	.LBE664:
 1566              	.LBB665:
 1567              	.LBB666:
  99:Drivers/display.h **** 		SPI2->DR = data;
 1568              		.loc 2 99 3 is_stmt 1 view .LVU479
  99:Drivers/display.h **** 		SPI2->DR = data;
 1569              		.loc 2 99 10 view .LVU480
  99:Drivers/display.h **** 		SPI2->DR = data;
 1570              		.loc 2 99 18 is_stmt 0 view .LVU481
 1571 02c6 854D     		ldr	r5, .L257+4
 1572 02c8 AA68     		ldr	r2, [r5, #8]
  99:Drivers/display.h **** 		SPI2->DR = data;
 1573              		.loc 2 99 10 view .LVU482
 1574 02ca 9707     		lsls	r7, r2, #30
 1575 02cc FBD5     		bpl	.L31
 100:Drivers/display.h **** 
ARM GAS  /var/folders/84/_x1cyy_j36g486tldtwl37280000gn/T//ccaJEjXT.s 			page 38


 1576              		.loc 2 100 3 is_stmt 1 view .LVU483
 100:Drivers/display.h **** 
 1577              		.loc 2 100 12 is_stmt 0 view .LVU484
 1578 02ce 1127     		movs	r7, #17
 1579 02d0 EF60     		str	r7, [r5, #12]
 1580              	.L32:
 102:Drivers/display.h **** 		dummy = SPI2->DR;
 1581              		.loc 2 102 3 is_stmt 1 view .LVU485
 102:Drivers/display.h **** 		dummy = SPI2->DR;
 1582              		.loc 2 102 10 view .LVU486
 102:Drivers/display.h **** 		dummy = SPI2->DR;
 1583              		.loc 2 102 18 is_stmt 0 view .LVU487
 1584 02d2 8248     		ldr	r0, .L257+4
 1585 02d4 8668     		ldr	r6, [r0, #8]
 102:Drivers/display.h **** 		dummy = SPI2->DR;
 1586              		.loc 2 102 10 view .LVU488
 1587 02d6 F607     		lsls	r6, r6, #31
 1588 02d8 FBD5     		bpl	.L32
 1589              		.loc 2 103 3 is_stmt 1 view .LVU489
 1590              		.loc 2 103 17 is_stmt 0 view .LVU490
 1591 02da C368     		ldr	r3, [r0, #12]
 1592              	.LBE666:
 1593              	.LBE665:
 1594              	.LBE675:
 1595              	.LBE687:
 1596              	.LBB688:
 1597              	.LBB689:
 1598              	.LBB690:
 1599              	.LBB691:
  26:Drivers/display.h **** 	}
 1600              		.loc 2 26 15 view .LVU491
 1601 02dc 7E4D     		ldr	r5, .L257
 1602              	.LBE691:
 1603              	.LBE690:
 1604              	.LBE689:
 1605              	.LBE688:
 1606              	.LBB725:
 1607              	.LBB676:
 1608              	.LBB669:
 1609              	.LBB667:
 1610              		.loc 2 103 9 view .LVU492
 1611 02de DAB2     		uxtb	r2, r3
 1612              	.LBE667:
 1613              	.LBE669:
 1614              	.LBE676:
 1615              	.LBE725:
 1616              	.LBB726:
 1617              	.LBB702:
 1618              	.LBB694:
 1619              	.LBB692:
  26:Drivers/display.h **** 	}
 1620              		.loc 2 26 15 view .LVU493
 1621 02e0 4FF40001 		mov	r1, #8388608
 1622              	.LBE692:
 1623              	.LBE694:
 1624              	.LBE702:
 1625              	.LBE726:
ARM GAS  /var/folders/84/_x1cyy_j36g486tldtwl37280000gn/T//ccaJEjXT.s 			page 39


 1626              	.LBB727:
 1627              	.LBB677:
 1628              	.LBB670:
 1629              	.LBB668:
 1630              		.loc 2 103 9 view .LVU494
 1631 02e4 2270     		strb	r2, [r4]
 1632              	.LVL27:
 1633              		.loc 2 103 9 view .LVU495
 1634              	.LBE668:
 1635              	.LBE670:
 1636              	.LBE677:
 1637              	.LBE727:
  87:Drivers/display.cpp **** 									// 0x14 = Reset except Enable Nibble Re-map, Scan from COM[N-1] to COM0, where N is the Mu
  88:Drivers/display.cpp **** 									// 0x11 = Reset except Enable Dual COM mode (MUX = 63)
  89:Drivers/display.cpp **** 	sendCommand(0xb5, 0x00);		// Set GPIO
 1638              		.loc 1 89 2 is_stmt 1 view .LVU496
 1639              	.LBB728:
 1640              	.LBI688:
  39:Drivers/display.h **** 		sendCommand(cmd);
 1641              		.loc 2 39 7 view .LVU497
 1642              	.LBE728:
  40:Drivers/display.h **** 		sendData(data);
 1643              		.loc 2 40 3 view .LVU498
 1644              	.LBB729:
 1645              	.LBB703:
 1646              	.LBI689:
  29:Drivers/display.h **** 		cd_low();
 1647              		.loc 2 29 7 view .LVU499
 1648              	.LBE703:
 1649              	.LBE729:
  30:Drivers/display.h **** 		spi_write(cmd);
 1650              		.loc 2 30 3 view .LVU500
 1651              	.LBB730:
 1652              	.LBB704:
 1653              	.LBB695:
 1654              	.LBI690:
  25:Drivers/display.h **** 		GPIOD->BSRR = GPIO_PIN_7 << 16;
 1655              		.loc 2 25 14 view .LVU501
 1656              	.LBB693:
  26:Drivers/display.h **** 	}
 1657              		.loc 2 26 3 view .LVU502
  26:Drivers/display.h **** 	}
 1658              		.loc 2 26 15 is_stmt 0 view .LVU503
 1659 02e6 A961     		str	r1, [r5, #24]
 1660              	.L33:
  26:Drivers/display.h **** 	}
 1661              		.loc 2 26 15 view .LVU504
 1662              	.LBE693:
 1663              	.LBE695:
 1664              	.LBB696:
 1665              	.LBB697:
  99:Drivers/display.h **** 		SPI2->DR = data;
 1666              		.loc 2 99 3 is_stmt 1 view .LVU505
  99:Drivers/display.h **** 		SPI2->DR = data;
 1667              		.loc 2 99 10 view .LVU506
  99:Drivers/display.h **** 		SPI2->DR = data;
 1668              		.loc 2 99 18 is_stmt 0 view .LVU507
ARM GAS  /var/folders/84/_x1cyy_j36g486tldtwl37280000gn/T//ccaJEjXT.s 			page 40


 1669 02e8 7C4F     		ldr	r7, .L257+4
 1670 02ea B868     		ldr	r0, [r7, #8]
  99:Drivers/display.h **** 		SPI2->DR = data;
 1671              		.loc 2 99 10 view .LVU508
 1672 02ec 8507     		lsls	r5, r0, #30
 1673 02ee FBD5     		bpl	.L33
 100:Drivers/display.h **** 
 1674              		.loc 2 100 3 is_stmt 1 view .LVU509
 100:Drivers/display.h **** 
 1675              		.loc 2 100 12 is_stmt 0 view .LVU510
 1676 02f0 B526     		movs	r6, #181
 1677 02f2 FE60     		str	r6, [r7, #12]
 1678              	.L34:
 102:Drivers/display.h **** 		dummy = SPI2->DR;
 1679              		.loc 2 102 3 is_stmt 1 view .LVU511
 102:Drivers/display.h **** 		dummy = SPI2->DR;
 1680              		.loc 2 102 10 view .LVU512
 102:Drivers/display.h **** 		dummy = SPI2->DR;
 1681              		.loc 2 102 18 is_stmt 0 view .LVU513
 1682 02f4 794B     		ldr	r3, .L257+4
 1683 02f6 9D68     		ldr	r5, [r3, #8]
 102:Drivers/display.h **** 		dummy = SPI2->DR;
 1684              		.loc 2 102 10 view .LVU514
 1685 02f8 E807     		lsls	r0, r5, #31
 1686 02fa FBD5     		bpl	.L34
 1687              		.loc 2 103 3 is_stmt 1 view .LVU515
 1688              		.loc 2 103 17 is_stmt 0 view .LVU516
 1689 02fc D968     		ldr	r1, [r3, #12]
 1690              	.LBE697:
 1691              	.LBE696:
 1692              	.LBE704:
 1693              	.LBB705:
 1694              	.LBB706:
 1695              	.LBB707:
  22:Drivers/display.h **** 	}
 1696              		.loc 2 22 15 view .LVU517
 1697 02fe 764A     		ldr	r2, .L257
 1698              	.LBE707:
 1699              	.LBE706:
 1700              	.LBE705:
 1701              	.LBB718:
 1702              	.LBB700:
 1703              	.LBB698:
 1704              		.loc 2 103 9 view .LVU518
 1705 0300 CFB2     		uxtb	r7, r1
 1706              	.LBE698:
 1707              	.LBE700:
 1708              	.LBE718:
 1709              	.LBB719:
 1710              	.LBB710:
 1711              	.LBB708:
  22:Drivers/display.h **** 	}
 1712              		.loc 2 22 15 view .LVU519
 1713 0302 8020     		movs	r0, #128
 1714              	.LBE708:
 1715              	.LBE710:
 1716              	.LBE719:
ARM GAS  /var/folders/84/_x1cyy_j36g486tldtwl37280000gn/T//ccaJEjXT.s 			page 41


 1717              	.LBB720:
 1718              	.LBB701:
 1719              	.LBB699:
 1720              		.loc 2 103 9 view .LVU520
 1721 0304 2770     		strb	r7, [r4]
 1722              	.LVL28:
 1723              		.loc 2 103 9 view .LVU521
 1724              	.LBE699:
 1725              	.LBE701:
 1726              	.LBE720:
 1727              	.LBE730:
  41:Drivers/display.h **** 	}
 1728              		.loc 2 41 3 is_stmt 1 view .LVU522
 1729              	.LBB731:
 1730              	.LBB721:
 1731              	.LBI705:
  34:Drivers/display.h **** 		cd_high();
 1732              		.loc 2 34 7 view .LVU523
 1733              	.LBE721:
 1734              	.LBE731:
  35:Drivers/display.h **** 		spi_write(data);
 1735              		.loc 2 35 3 view .LVU524
 1736              	.LBB732:
 1737              	.LBB722:
 1738              	.LBB711:
 1739              	.LBI706:
  21:Drivers/display.h **** 		GPIOD->BSRR = GPIO_PIN_7;
 1740              		.loc 2 21 14 view .LVU525
 1741              	.LBB709:
  22:Drivers/display.h **** 	}
 1742              		.loc 2 22 3 view .LVU526
  22:Drivers/display.h **** 	}
 1743              		.loc 2 22 15 is_stmt 0 view .LVU527
 1744 0306 9061     		str	r0, [r2, #24]
 1745              	.L35:
  22:Drivers/display.h **** 	}
 1746              		.loc 2 22 15 view .LVU528
 1747              	.LBE709:
 1748              	.LBE711:
 1749              	.LBB712:
 1750              	.LBB713:
  99:Drivers/display.h **** 		SPI2->DR = data;
 1751              		.loc 2 99 3 is_stmt 1 view .LVU529
  99:Drivers/display.h **** 		SPI2->DR = data;
 1752              		.loc 2 99 10 view .LVU530
  99:Drivers/display.h **** 		SPI2->DR = data;
 1753              		.loc 2 99 18 is_stmt 0 view .LVU531
 1754 0308 744E     		ldr	r6, .L257+4
 1755 030a B368     		ldr	r3, [r6, #8]
  99:Drivers/display.h **** 		SPI2->DR = data;
 1756              		.loc 2 99 10 view .LVU532
 1757 030c 9907     		lsls	r1, r3, #30
 1758 030e FBD5     		bpl	.L35
 100:Drivers/display.h **** 
 1759              		.loc 2 100 3 is_stmt 1 view .LVU533
 100:Drivers/display.h **** 
 1760              		.loc 2 100 12 is_stmt 0 view .LVU534
ARM GAS  /var/folders/84/_x1cyy_j36g486tldtwl37280000gn/T//ccaJEjXT.s 			page 42


 1761 0310 0025     		movs	r5, #0
 1762 0312 F560     		str	r5, [r6, #12]
 1763              	.L36:
 102:Drivers/display.h **** 		dummy = SPI2->DR;
 1764              		.loc 2 102 3 is_stmt 1 view .LVU535
 102:Drivers/display.h **** 		dummy = SPI2->DR;
 1765              		.loc 2 102 10 view .LVU536
 102:Drivers/display.h **** 		dummy = SPI2->DR;
 1766              		.loc 2 102 18 is_stmt 0 view .LVU537
 1767 0314 7149     		ldr	r1, .L257+4
 1768 0316 8A68     		ldr	r2, [r1, #8]
 102:Drivers/display.h **** 		dummy = SPI2->DR;
 1769              		.loc 2 102 10 view .LVU538
 1770 0318 D207     		lsls	r2, r2, #31
 1771 031a FBD5     		bpl	.L36
 1772              		.loc 2 103 3 is_stmt 1 view .LVU539
 1773              		.loc 2 103 17 is_stmt 0 view .LVU540
 1774 031c CF68     		ldr	r7, [r1, #12]
 1775              	.LBE713:
 1776              	.LBE712:
 1777              	.LBE722:
 1778              	.LBE732:
 1779              	.LBB733:
 1780              	.LBB734:
 1781              	.LBB735:
 1782              	.LBB736:
  26:Drivers/display.h **** 	}
 1783              		.loc 2 26 15 view .LVU541
 1784 031e 6E48     		ldr	r0, .L257
 1785              	.LBE736:
 1786              	.LBE735:
 1787              	.LBE734:
 1788              	.LBE733:
 1789              	.LBB770:
 1790              	.LBB723:
 1791              	.LBB716:
 1792              	.LBB714:
 1793              		.loc 2 103 9 view .LVU542
 1794 0320 FEB2     		uxtb	r6, r7
 1795              	.LBE714:
 1796              	.LBE716:
 1797              	.LBE723:
 1798              	.LBE770:
 1799              	.LBB771:
 1800              	.LBB747:
 1801              	.LBB739:
 1802              	.LBB737:
  26:Drivers/display.h **** 	}
 1803              		.loc 2 26 15 view .LVU543
 1804 0322 4FF40003 		mov	r3, #8388608
 1805              	.LBE737:
 1806              	.LBE739:
 1807              	.LBE747:
 1808              	.LBE771:
 1809              	.LBB772:
 1810              	.LBB724:
 1811              	.LBB717:
ARM GAS  /var/folders/84/_x1cyy_j36g486tldtwl37280000gn/T//ccaJEjXT.s 			page 43


 1812              	.LBB715:
 1813              		.loc 2 103 9 view .LVU544
 1814 0326 2670     		strb	r6, [r4]
 1815              	.LVL29:
 1816              		.loc 2 103 9 view .LVU545
 1817              	.LBE715:
 1818              	.LBE717:
 1819              	.LBE724:
 1820              	.LBE772:
  90:Drivers/display.cpp **** 	sendCommand(0xab, 0x00);		// Function Selection | 0x01 = reset = Enable internal VDD regulator
 1821              		.loc 1 90 2 is_stmt 1 view .LVU546
 1822              	.LBB773:
 1823              	.LBI733:
  39:Drivers/display.h **** 		sendCommand(cmd);
 1824              		.loc 2 39 7 view .LVU547
 1825              	.LBE773:
  40:Drivers/display.h **** 		sendData(data);
 1826              		.loc 2 40 3 view .LVU548
 1827              	.LBB774:
 1828              	.LBB748:
 1829              	.LBI734:
  29:Drivers/display.h **** 		cd_low();
 1830              		.loc 2 29 7 view .LVU549
 1831              	.LBE748:
 1832              	.LBE774:
  30:Drivers/display.h **** 		spi_write(cmd);
 1833              		.loc 2 30 3 view .LVU550
 1834              	.LBB775:
 1835              	.LBB749:
 1836              	.LBB740:
 1837              	.LBI735:
  25:Drivers/display.h **** 		GPIOD->BSRR = GPIO_PIN_7 << 16;
 1838              		.loc 2 25 14 view .LVU551
 1839              	.LBB738:
  26:Drivers/display.h **** 	}
 1840              		.loc 2 26 3 view .LVU552
  26:Drivers/display.h **** 	}
 1841              		.loc 2 26 15 is_stmt 0 view .LVU553
 1842 0328 8361     		str	r3, [r0, #24]
 1843              	.L37:
  26:Drivers/display.h **** 	}
 1844              		.loc 2 26 15 view .LVU554
 1845              	.LBE738:
 1846              	.LBE740:
 1847              	.LBB741:
 1848              	.LBB742:
  99:Drivers/display.h **** 		SPI2->DR = data;
 1849              		.loc 2 99 3 is_stmt 1 view .LVU555
  99:Drivers/display.h **** 		SPI2->DR = data;
 1850              		.loc 2 99 10 view .LVU556
  99:Drivers/display.h **** 		SPI2->DR = data;
 1851              		.loc 2 99 18 is_stmt 0 view .LVU557
 1852 032a 6C4D     		ldr	r5, .L257+4
 1853 032c A968     		ldr	r1, [r5, #8]
  99:Drivers/display.h **** 		SPI2->DR = data;
 1854              		.loc 2 99 10 view .LVU558
 1855 032e 8F07     		lsls	r7, r1, #30
ARM GAS  /var/folders/84/_x1cyy_j36g486tldtwl37280000gn/T//ccaJEjXT.s 			page 44


 1856 0330 FBD5     		bpl	.L37
 100:Drivers/display.h **** 
 1857              		.loc 2 100 3 is_stmt 1 view .LVU559
 100:Drivers/display.h **** 
 1858              		.loc 2 100 12 is_stmt 0 view .LVU560
 1859 0332 AB22     		movs	r2, #171
 1860 0334 EA60     		str	r2, [r5, #12]
 1861              	.L38:
 102:Drivers/display.h **** 		dummy = SPI2->DR;
 1862              		.loc 2 102 3 is_stmt 1 view .LVU561
 102:Drivers/display.h **** 		dummy = SPI2->DR;
 1863              		.loc 2 102 10 view .LVU562
 102:Drivers/display.h **** 		dummy = SPI2->DR;
 1864              		.loc 2 102 18 is_stmt 0 view .LVU563
 1865 0336 694F     		ldr	r7, .L257+4
 1866 0338 B868     		ldr	r0, [r7, #8]
 102:Drivers/display.h **** 		dummy = SPI2->DR;
 1867              		.loc 2 102 10 view .LVU564
 1868 033a C607     		lsls	r6, r0, #31
 1869 033c FBD5     		bpl	.L38
 1870              		.loc 2 103 3 is_stmt 1 view .LVU565
 1871              		.loc 2 103 17 is_stmt 0 view .LVU566
 1872 033e FE68     		ldr	r6, [r7, #12]
 1873              	.LBE742:
 1874              	.LBE741:
 1875              	.LBE749:
 1876              	.LBB750:
 1877              	.LBB751:
 1878              	.LBB752:
  22:Drivers/display.h **** 	}
 1879              		.loc 2 22 15 view .LVU567
 1880 0340 654D     		ldr	r5, .L257
 1881              	.LBE752:
 1882              	.LBE751:
 1883              	.LBE750:
 1884              	.LBB763:
 1885              	.LBB745:
 1886              	.LBB743:
 1887              		.loc 2 103 9 view .LVU568
 1888 0342 F3B2     		uxtb	r3, r6
 1889              	.LBE743:
 1890              	.LBE745:
 1891              	.LBE763:
 1892              	.LBB764:
 1893              	.LBB755:
 1894              	.LBB753:
  22:Drivers/display.h **** 	}
 1895              		.loc 2 22 15 view .LVU569
 1896 0344 8021     		movs	r1, #128
 1897              	.LBE753:
 1898              	.LBE755:
 1899              	.LBE764:
 1900              	.LBB765:
 1901              	.LBB746:
 1902              	.LBB744:
 1903              		.loc 2 103 9 view .LVU570
 1904 0346 2370     		strb	r3, [r4]
ARM GAS  /var/folders/84/_x1cyy_j36g486tldtwl37280000gn/T//ccaJEjXT.s 			page 45


 1905              	.LVL30:
 1906              		.loc 2 103 9 view .LVU571
 1907              	.LBE744:
 1908              	.LBE746:
 1909              	.LBE765:
 1910              	.LBE775:
  41:Drivers/display.h **** 	}
 1911              		.loc 2 41 3 is_stmt 1 view .LVU572
 1912              	.LBB776:
 1913              	.LBB766:
 1914              	.LBI750:
  34:Drivers/display.h **** 		cd_high();
 1915              		.loc 2 34 7 view .LVU573
 1916              	.LBE766:
 1917              	.LBE776:
  35:Drivers/display.h **** 		spi_write(data);
 1918              		.loc 2 35 3 view .LVU574
 1919              	.LBB777:
 1920              	.LBB767:
 1921              	.LBB756:
 1922              	.LBI751:
  21:Drivers/display.h **** 		GPIOD->BSRR = GPIO_PIN_7;
 1923              		.loc 2 21 14 view .LVU575
 1924              	.LBB754:
  22:Drivers/display.h **** 	}
 1925              		.loc 2 22 3 view .LVU576
  22:Drivers/display.h **** 	}
 1926              		.loc 2 22 15 is_stmt 0 view .LVU577
 1927 0348 A961     		str	r1, [r5, #24]
 1928              	.L39:
  22:Drivers/display.h **** 	}
 1929              		.loc 2 22 15 view .LVU578
 1930              	.LBE754:
 1931              	.LBE756:
 1932              	.LBB757:
 1933              	.LBB758:
  99:Drivers/display.h **** 		SPI2->DR = data;
 1934              		.loc 2 99 3 is_stmt 1 view .LVU579
  99:Drivers/display.h **** 		SPI2->DR = data;
 1935              		.loc 2 99 10 view .LVU580
  99:Drivers/display.h **** 		SPI2->DR = data;
 1936              		.loc 2 99 18 is_stmt 0 view .LVU581
 1937 034a 644F     		ldr	r7, .L257+4
 1938 034c BA68     		ldr	r2, [r7, #8]
  99:Drivers/display.h **** 		SPI2->DR = data;
 1939              		.loc 2 99 10 view .LVU582
 1940 034e 9507     		lsls	r5, r2, #30
 1941 0350 FBD5     		bpl	.L39
 100:Drivers/display.h **** 
 1942              		.loc 2 100 3 is_stmt 1 view .LVU583
 100:Drivers/display.h **** 
 1943              		.loc 2 100 12 is_stmt 0 view .LVU584
 1944 0352 0020     		movs	r0, #0
 1945 0354 F860     		str	r0, [r7, #12]
 1946              	.L40:
 102:Drivers/display.h **** 		dummy = SPI2->DR;
 1947              		.loc 2 102 3 is_stmt 1 view .LVU585
ARM GAS  /var/folders/84/_x1cyy_j36g486tldtwl37280000gn/T//ccaJEjXT.s 			page 46


 102:Drivers/display.h **** 		dummy = SPI2->DR;
 1948              		.loc 2 102 10 view .LVU586
 102:Drivers/display.h **** 		dummy = SPI2->DR;
 1949              		.loc 2 102 18 is_stmt 0 view .LVU587
 1950 0356 614E     		ldr	r6, .L257+4
 1951 0358 B568     		ldr	r5, [r6, #8]
 102:Drivers/display.h **** 		dummy = SPI2->DR;
 1952              		.loc 2 102 10 view .LVU588
 1953 035a E807     		lsls	r0, r5, #31
 1954 035c FBD5     		bpl	.L40
 1955              		.loc 2 103 3 is_stmt 1 view .LVU589
 1956              		.loc 2 103 17 is_stmt 0 view .LVU590
 1957 035e F368     		ldr	r3, [r6, #12]
 1958              	.LBE758:
 1959              	.LBE757:
 1960              	.LBE767:
 1961              	.LBE777:
 1962              	.LBB778:
 1963              	.LBB779:
 1964              	.LBB780:
 1965              	.LBB781:
  26:Drivers/display.h **** 	}
 1966              		.loc 2 26 15 view .LVU591
 1967 0360 5D4F     		ldr	r7, .L257
 1968              	.LBE781:
 1969              	.LBE780:
 1970              	.LBE779:
 1971              	.LBE778:
 1972              	.LBB833:
 1973              	.LBB768:
 1974              	.LBB761:
 1975              	.LBB759:
 1976              		.loc 2 103 9 view .LVU592
 1977 0362 DAB2     		uxtb	r2, r3
 1978              	.LBE759:
 1979              	.LBE761:
 1980              	.LBE768:
 1981              	.LBE833:
 1982              	.LBB834:
 1983              	.LBB792:
 1984              	.LBB784:
 1985              	.LBB782:
  26:Drivers/display.h **** 	}
 1986              		.loc 2 26 15 view .LVU593
 1987 0364 4FF40001 		mov	r1, #8388608
 1988              	.LBE782:
 1989              	.LBE784:
 1990              	.LBE792:
 1991              	.LBE834:
 1992              	.LBB835:
 1993              	.LBB769:
 1994              	.LBB762:
 1995              	.LBB760:
 1996              		.loc 2 103 9 view .LVU594
 1997 0368 2270     		strb	r2, [r4]
 1998              	.LVL31:
 1999              		.loc 2 103 9 view .LVU595
ARM GAS  /var/folders/84/_x1cyy_j36g486tldtwl37280000gn/T//ccaJEjXT.s 			page 47


 2000              	.LBE760:
 2001              	.LBE762:
 2002              	.LBE769:
 2003              	.LBE835:
  91:Drivers/display.cpp **** 	sendCommand(0xb4, 0xa0, 0xb5);	// Display Enhancement A | 0xa0 = Enable external VSL |  0xb5 = Nor
 2004              		.loc 1 91 2 is_stmt 1 view .LVU596
 2005              	.LBB836:
 2006              	.LBI778:
  44:Drivers/display.h **** 		sendCommand(cmd);
 2007              		.loc 2 44 7 view .LVU597
 2008              	.LBE836:
  45:Drivers/display.h **** 		sendData(data_a);
 2009              		.loc 2 45 3 view .LVU598
 2010              	.LBB837:
 2011              	.LBB793:
 2012              	.LBI779:
  29:Drivers/display.h **** 		cd_low();
 2013              		.loc 2 29 7 view .LVU599
 2014              	.LBE793:
 2015              	.LBE837:
  30:Drivers/display.h **** 		spi_write(cmd);
 2016              		.loc 2 30 3 view .LVU600
 2017              	.LBB838:
 2018              	.LBB794:
 2019              	.LBB785:
 2020              	.LBI780:
  25:Drivers/display.h **** 		GPIOD->BSRR = GPIO_PIN_7 << 16;
 2021              		.loc 2 25 14 view .LVU601
 2022              	.LBB783:
  26:Drivers/display.h **** 	}
 2023              		.loc 2 26 3 view .LVU602
  26:Drivers/display.h **** 	}
 2024              		.loc 2 26 15 is_stmt 0 view .LVU603
 2025 036a B961     		str	r1, [r7, #24]
 2026              	.L41:
  26:Drivers/display.h **** 	}
 2027              		.loc 2 26 15 view .LVU604
 2028              	.LBE783:
 2029              	.LBE785:
 2030              	.LBB786:
 2031              	.LBB787:
  99:Drivers/display.h **** 		SPI2->DR = data;
 2032              		.loc 2 99 3 is_stmt 1 view .LVU605
  99:Drivers/display.h **** 		SPI2->DR = data;
 2033              		.loc 2 99 10 view .LVU606
  99:Drivers/display.h **** 		SPI2->DR = data;
 2034              		.loc 2 99 18 is_stmt 0 view .LVU607
 2035 036c 5B48     		ldr	r0, .L257+4
 2036 036e 8668     		ldr	r6, [r0, #8]
  99:Drivers/display.h **** 		SPI2->DR = data;
 2037              		.loc 2 99 10 view .LVU608
 2038 0370 B107     		lsls	r1, r6, #30
 2039 0372 FBD5     		bpl	.L41
 100:Drivers/display.h **** 
 2040              		.loc 2 100 3 is_stmt 1 view .LVU609
 100:Drivers/display.h **** 
 2041              		.loc 2 100 12 is_stmt 0 view .LVU610
ARM GAS  /var/folders/84/_x1cyy_j36g486tldtwl37280000gn/T//ccaJEjXT.s 			page 48


 2042 0374 B425     		movs	r5, #180
 2043 0376 C560     		str	r5, [r0, #12]
 2044              	.L42:
 102:Drivers/display.h **** 		dummy = SPI2->DR;
 2045              		.loc 2 102 3 is_stmt 1 view .LVU611
 102:Drivers/display.h **** 		dummy = SPI2->DR;
 2046              		.loc 2 102 10 view .LVU612
 102:Drivers/display.h **** 		dummy = SPI2->DR;
 2047              		.loc 2 102 18 is_stmt 0 view .LVU613
 2048 0378 584B     		ldr	r3, .L257+4
 2049 037a 9F68     		ldr	r7, [r3, #8]
 102:Drivers/display.h **** 		dummy = SPI2->DR;
 2050              		.loc 2 102 10 view .LVU614
 2051 037c FA07     		lsls	r2, r7, #31
 2052 037e FBD5     		bpl	.L42
 2053              		.loc 2 103 3 is_stmt 1 view .LVU615
 2054              		.loc 2 103 17 is_stmt 0 view .LVU616
 2055 0380 D968     		ldr	r1, [r3, #12]
 2056              	.LBE787:
 2057              	.LBE786:
 2058              	.LBE794:
 2059              	.LBB795:
 2060              	.LBB796:
 2061              	.LBB797:
  22:Drivers/display.h **** 	}
 2062              		.loc 2 22 15 view .LVU617
 2063 0382 554A     		ldr	r2, .L257
 2064              	.LBE797:
 2065              	.LBE796:
 2066              	.LBE795:
 2067              	.LBB808:
 2068              	.LBB790:
 2069              	.LBB788:
 2070              		.loc 2 103 9 view .LVU618
 2071 0384 C8B2     		uxtb	r0, r1
 2072              	.LBE788:
 2073              	.LBE790:
 2074              	.LBE808:
 2075              	.LBB809:
 2076              	.LBB800:
 2077              	.LBB798:
  22:Drivers/display.h **** 	}
 2078              		.loc 2 22 15 view .LVU619
 2079 0386 8026     		movs	r6, #128
 2080              	.LBE798:
 2081              	.LBE800:
 2082              	.LBE809:
 2083              	.LBB810:
 2084              	.LBB791:
 2085              	.LBB789:
 2086              		.loc 2 103 9 view .LVU620
 2087 0388 2070     		strb	r0, [r4]
 2088              	.LVL32:
 2089              		.loc 2 103 9 view .LVU621
 2090              	.LBE789:
 2091              	.LBE791:
 2092              	.LBE810:
ARM GAS  /var/folders/84/_x1cyy_j36g486tldtwl37280000gn/T//ccaJEjXT.s 			page 49


 2093              	.LBE838:
  46:Drivers/display.h **** 		sendData(data_b);
 2094              		.loc 2 46 3 is_stmt 1 view .LVU622
 2095              	.LBB839:
 2096              	.LBB811:
 2097              	.LBI795:
  34:Drivers/display.h **** 		cd_high();
 2098              		.loc 2 34 7 view .LVU623
 2099              	.LBE811:
 2100              	.LBE839:
  35:Drivers/display.h **** 		spi_write(data);
 2101              		.loc 2 35 3 view .LVU624
 2102              	.LBB840:
 2103              	.LBB812:
 2104              	.LBB801:
 2105              	.LBI796:
  21:Drivers/display.h **** 		GPIOD->BSRR = GPIO_PIN_7;
 2106              		.loc 2 21 14 view .LVU625
 2107              	.LBB799:
  22:Drivers/display.h **** 	}
 2108              		.loc 2 22 3 view .LVU626
  22:Drivers/display.h **** 	}
 2109              		.loc 2 22 15 is_stmt 0 view .LVU627
 2110 038a 9661     		str	r6, [r2, #24]
 2111              	.L43:
  22:Drivers/display.h **** 	}
 2112              		.loc 2 22 15 view .LVU628
 2113              	.LBE799:
 2114              	.LBE801:
 2115              	.LBB802:
 2116              	.LBB803:
  99:Drivers/display.h **** 		SPI2->DR = data;
 2117              		.loc 2 99 3 is_stmt 1 view .LVU629
  99:Drivers/display.h **** 		SPI2->DR = data;
 2118              		.loc 2 99 10 view .LVU630
  99:Drivers/display.h **** 		SPI2->DR = data;
 2119              		.loc 2 99 18 is_stmt 0 view .LVU631
 2120 038c 534D     		ldr	r5, .L257+4
 2121 038e AB68     		ldr	r3, [r5, #8]
  99:Drivers/display.h **** 		SPI2->DR = data;
 2122              		.loc 2 99 10 view .LVU632
 2123 0390 9F07     		lsls	r7, r3, #30
 2124 0392 FBD5     		bpl	.L43
 100:Drivers/display.h **** 
 2125              		.loc 2 100 3 is_stmt 1 view .LVU633
 100:Drivers/display.h **** 
 2126              		.loc 2 100 12 is_stmt 0 view .LVU634
 2127 0394 A027     		movs	r7, #160
 2128 0396 EF60     		str	r7, [r5, #12]
 2129              	.L44:
 102:Drivers/display.h **** 		dummy = SPI2->DR;
 2130              		.loc 2 102 3 is_stmt 1 view .LVU635
 102:Drivers/display.h **** 		dummy = SPI2->DR;
 2131              		.loc 2 102 10 view .LVU636
 102:Drivers/display.h **** 		dummy = SPI2->DR;
 2132              		.loc 2 102 18 is_stmt 0 view .LVU637
 2133 0398 5049     		ldr	r1, .L257+4
ARM GAS  /var/folders/84/_x1cyy_j36g486tldtwl37280000gn/T//ccaJEjXT.s 			page 50


 2134 039a 8A68     		ldr	r2, [r1, #8]
 102:Drivers/display.h **** 		dummy = SPI2->DR;
 2135              		.loc 2 102 10 view .LVU638
 2136 039c D607     		lsls	r6, r2, #31
 2137 039e FBD5     		bpl	.L44
 2138              		.loc 2 103 3 is_stmt 1 view .LVU639
 2139              		.loc 2 103 17 is_stmt 0 view .LVU640
 2140 03a0 C868     		ldr	r0, [r1, #12]
 2141              	.LBE803:
 2142              	.LBE802:
 2143              	.LBE812:
 2144              	.LBB813:
 2145              	.LBB814:
 2146              	.LBB815:
  22:Drivers/display.h **** 	}
 2147              		.loc 2 22 15 view .LVU641
 2148 03a2 4D4E     		ldr	r6, .L257
 2149              	.LBE815:
 2150              	.LBE814:
 2151              	.LBE813:
 2152              	.LBB826:
 2153              	.LBB806:
 2154              	.LBB804:
 2155              		.loc 2 103 9 view .LVU642
 2156 03a4 C5B2     		uxtb	r5, r0
 2157              	.LBE804:
 2158              	.LBE806:
 2159              	.LBE826:
 2160              	.LBB827:
 2161              	.LBB818:
 2162              	.LBB816:
  22:Drivers/display.h **** 	}
 2163              		.loc 2 22 15 view .LVU643
 2164 03a6 8023     		movs	r3, #128
 2165              	.LBE816:
 2166              	.LBE818:
 2167              	.LBE827:
 2168              	.LBB828:
 2169              	.LBB807:
 2170              	.LBB805:
 2171              		.loc 2 103 9 view .LVU644
 2172 03a8 2570     		strb	r5, [r4]
 2173              	.LVL33:
 2174              		.loc 2 103 9 view .LVU645
 2175              	.LBE805:
 2176              	.LBE807:
 2177              	.LBE828:
 2178              	.LBE840:
  47:Drivers/display.h **** 	}
 2179              		.loc 2 47 3 is_stmt 1 view .LVU646
 2180              	.LBB841:
 2181              	.LBB829:
 2182              	.LBI813:
  34:Drivers/display.h **** 		cd_high();
 2183              		.loc 2 34 7 view .LVU647
 2184              	.LBE829:
 2185              	.LBE841:
ARM GAS  /var/folders/84/_x1cyy_j36g486tldtwl37280000gn/T//ccaJEjXT.s 			page 51


  35:Drivers/display.h **** 		spi_write(data);
 2186              		.loc 2 35 3 view .LVU648
 2187              	.LBB842:
 2188              	.LBB830:
 2189              	.LBB819:
 2190              	.LBI814:
  21:Drivers/display.h **** 		GPIOD->BSRR = GPIO_PIN_7;
 2191              		.loc 2 21 14 view .LVU649
 2192              	.LBB817:
  22:Drivers/display.h **** 	}
 2193              		.loc 2 22 3 view .LVU650
  22:Drivers/display.h **** 	}
 2194              		.loc 2 22 15 is_stmt 0 view .LVU651
 2195 03aa B361     		str	r3, [r6, #24]
 2196              	.L45:
  22:Drivers/display.h **** 	}
 2197              		.loc 2 22 15 view .LVU652
 2198              	.LBE817:
 2199              	.LBE819:
 2200              	.LBB820:
 2201              	.LBB821:
  99:Drivers/display.h **** 		SPI2->DR = data;
 2202              		.loc 2 99 3 is_stmt 1 view .LVU653
  99:Drivers/display.h **** 		SPI2->DR = data;
 2203              		.loc 2 99 10 view .LVU654
  99:Drivers/display.h **** 		SPI2->DR = data;
 2204              		.loc 2 99 18 is_stmt 0 view .LVU655
 2205 03ac 4B4F     		ldr	r7, .L257+4
 2206 03ae B968     		ldr	r1, [r7, #8]
  99:Drivers/display.h **** 		SPI2->DR = data;
 2207              		.loc 2 99 10 view .LVU656
 2208 03b0 8D07     		lsls	r5, r1, #30
 2209 03b2 FBD5     		bpl	.L45
 100:Drivers/display.h **** 
 2210              		.loc 2 100 3 is_stmt 1 view .LVU657
 100:Drivers/display.h **** 
 2211              		.loc 2 100 12 is_stmt 0 view .LVU658
 2212 03b4 B522     		movs	r2, #181
 2213 03b6 FA60     		str	r2, [r7, #12]
 2214              	.L46:
 102:Drivers/display.h **** 		dummy = SPI2->DR;
 2215              		.loc 2 102 3 is_stmt 1 view .LVU659
 102:Drivers/display.h **** 		dummy = SPI2->DR;
 2216              		.loc 2 102 10 view .LVU660
 102:Drivers/display.h **** 		dummy = SPI2->DR;
 2217              		.loc 2 102 18 is_stmt 0 view .LVU661
 2218 03b8 484E     		ldr	r6, .L257+4
 2219 03ba B068     		ldr	r0, [r6, #8]
 102:Drivers/display.h **** 		dummy = SPI2->DR;
 2220              		.loc 2 102 10 view .LVU662
 2221 03bc C007     		lsls	r0, r0, #31
 2222 03be FBD5     		bpl	.L46
 2223              		.loc 2 103 3 is_stmt 1 view .LVU663
 2224              		.loc 2 103 17 is_stmt 0 view .LVU664
 2225 03c0 F568     		ldr	r5, [r6, #12]
 2226              	.LBE821:
 2227              	.LBE820:
ARM GAS  /var/folders/84/_x1cyy_j36g486tldtwl37280000gn/T//ccaJEjXT.s 			page 52


 2228              	.LBE830:
 2229              	.LBE842:
 2230              	.LBB843:
 2231              	.LBB844:
 2232              	.LBB845:
 2233              	.LBB846:
  26:Drivers/display.h **** 	}
 2234              		.loc 2 26 15 view .LVU665
 2235 03c2 454F     		ldr	r7, .L257
 2236              	.LBE846:
 2237              	.LBE845:
 2238              	.LBE844:
 2239              	.LBE843:
 2240              	.LBB880:
 2241              	.LBB831:
 2242              	.LBB824:
 2243              	.LBB822:
 2244              		.loc 2 103 9 view .LVU666
 2245 03c4 EBB2     		uxtb	r3, r5
 2246              	.LBE822:
 2247              	.LBE824:
 2248              	.LBE831:
 2249              	.LBE880:
 2250              	.LBB881:
 2251              	.LBB857:
 2252              	.LBB849:
 2253              	.LBB847:
  26:Drivers/display.h **** 	}
 2254              		.loc 2 26 15 view .LVU667
 2255 03c6 4FF40001 		mov	r1, #8388608
 2256              	.LBE847:
 2257              	.LBE849:
 2258              	.LBE857:
 2259              	.LBE881:
 2260              	.LBB882:
 2261              	.LBB832:
 2262              	.LBB825:
 2263              	.LBB823:
 2264              		.loc 2 103 9 view .LVU668
 2265 03ca 2370     		strb	r3, [r4]
 2266              	.LVL34:
 2267              		.loc 2 103 9 view .LVU669
 2268              	.LBE823:
 2269              	.LBE825:
 2270              	.LBE832:
 2271              	.LBE882:
  92:Drivers/display.cpp **** 	sendCommand(0xc1, 0x9f);		// Set Contrast Current
 2272              		.loc 1 92 2 is_stmt 1 view .LVU670
 2273              	.LBB883:
 2274              	.LBI843:
  39:Drivers/display.h **** 		sendCommand(cmd);
 2275              		.loc 2 39 7 view .LVU671
 2276              	.LBE883:
  40:Drivers/display.h **** 		sendData(data);
 2277              		.loc 2 40 3 view .LVU672
 2278              	.LBB884:
 2279              	.LBB858:
ARM GAS  /var/folders/84/_x1cyy_j36g486tldtwl37280000gn/T//ccaJEjXT.s 			page 53


 2280              	.LBI844:
  29:Drivers/display.h **** 		cd_low();
 2281              		.loc 2 29 7 view .LVU673
 2282              	.LBE858:
 2283              	.LBE884:
  30:Drivers/display.h **** 		spi_write(cmd);
 2284              		.loc 2 30 3 view .LVU674
 2285              	.LBB885:
 2286              	.LBB859:
 2287              	.LBB850:
 2288              	.LBI845:
  25:Drivers/display.h **** 		GPIOD->BSRR = GPIO_PIN_7 << 16;
 2289              		.loc 2 25 14 view .LVU675
 2290              	.LBB848:
  26:Drivers/display.h **** 	}
 2291              		.loc 2 26 3 view .LVU676
  26:Drivers/display.h **** 	}
 2292              		.loc 2 26 15 is_stmt 0 view .LVU677
 2293 03cc B961     		str	r1, [r7, #24]
 2294              	.L47:
  26:Drivers/display.h **** 	}
 2295              		.loc 2 26 15 view .LVU678
 2296              	.LBE848:
 2297              	.LBE850:
 2298              	.LBB851:
 2299              	.LBB852:
  99:Drivers/display.h **** 		SPI2->DR = data;
 2300              		.loc 2 99 3 is_stmt 1 view .LVU679
  99:Drivers/display.h **** 		SPI2->DR = data;
 2301              		.loc 2 99 10 view .LVU680
  99:Drivers/display.h **** 		SPI2->DR = data;
 2302              		.loc 2 99 18 is_stmt 0 view .LVU681
 2303 03ce 434E     		ldr	r6, .L257+4
 2304 03d0 B268     		ldr	r2, [r6, #8]
  99:Drivers/display.h **** 		SPI2->DR = data;
 2305              		.loc 2 99 10 view .LVU682
 2306 03d2 9107     		lsls	r1, r2, #30
 2307 03d4 FBD5     		bpl	.L47
 100:Drivers/display.h **** 
 2308              		.loc 2 100 3 is_stmt 1 view .LVU683
 100:Drivers/display.h **** 
 2309              		.loc 2 100 12 is_stmt 0 view .LVU684
 2310 03d6 C120     		movs	r0, #193
 2311 03d8 F060     		str	r0, [r6, #12]
 2312              	.L48:
 102:Drivers/display.h **** 		dummy = SPI2->DR;
 2313              		.loc 2 102 3 is_stmt 1 view .LVU685
 102:Drivers/display.h **** 		dummy = SPI2->DR;
 2314              		.loc 2 102 10 view .LVU686
 102:Drivers/display.h **** 		dummy = SPI2->DR;
 2315              		.loc 2 102 18 is_stmt 0 view .LVU687
 2316 03da 404D     		ldr	r5, .L257+4
 2317 03dc AF68     		ldr	r7, [r5, #8]
 102:Drivers/display.h **** 		dummy = SPI2->DR;
 2318              		.loc 2 102 10 view .LVU688
 2319 03de FA07     		lsls	r2, r7, #31
 2320 03e0 FBD5     		bpl	.L48
ARM GAS  /var/folders/84/_x1cyy_j36g486tldtwl37280000gn/T//ccaJEjXT.s 			page 54


 2321              		.loc 2 103 3 is_stmt 1 view .LVU689
 2322              		.loc 2 103 17 is_stmt 0 view .LVU690
 2323 03e2 EB68     		ldr	r3, [r5, #12]
 2324              	.LBE852:
 2325              	.LBE851:
 2326              	.LBE859:
 2327              	.LBB860:
 2328              	.LBB861:
 2329              	.LBB862:
  22:Drivers/display.h **** 	}
 2330              		.loc 2 22 15 view .LVU691
 2331 03e4 3C4E     		ldr	r6, .L257
 2332              	.LBE862:
 2333              	.LBE861:
 2334              	.LBE860:
 2335              	.LBB873:
 2336              	.LBB855:
 2337              	.LBB853:
 2338              		.loc 2 103 9 view .LVU692
 2339 03e6 DAB2     		uxtb	r2, r3
 2340              	.LBE853:
 2341              	.LBE855:
 2342              	.LBE873:
 2343              	.LBB874:
 2344              	.LBB865:
 2345              	.LBB863:
  22:Drivers/display.h **** 	}
 2346              		.loc 2 22 15 view .LVU693
 2347 03e8 8021     		movs	r1, #128
 2348              	.LBE863:
 2349              	.LBE865:
 2350              	.LBE874:
 2351              	.LBB875:
 2352              	.LBB856:
 2353              	.LBB854:
 2354              		.loc 2 103 9 view .LVU694
 2355 03ea 2270     		strb	r2, [r4]
 2356              	.LVL35:
 2357              		.loc 2 103 9 view .LVU695
 2358              	.LBE854:
 2359              	.LBE856:
 2360              	.LBE875:
 2361              	.LBE885:
  41:Drivers/display.h **** 	}
 2362              		.loc 2 41 3 is_stmt 1 view .LVU696
 2363              	.LBB886:
 2364              	.LBB876:
 2365              	.LBI860:
  34:Drivers/display.h **** 		cd_high();
 2366              		.loc 2 34 7 view .LVU697
 2367              	.LBE876:
 2368              	.LBE886:
  35:Drivers/display.h **** 		spi_write(data);
 2369              		.loc 2 35 3 view .LVU698
 2370              	.LBB887:
 2371              	.LBB877:
 2372              	.LBB866:
ARM GAS  /var/folders/84/_x1cyy_j36g486tldtwl37280000gn/T//ccaJEjXT.s 			page 55


 2373              	.LBI861:
  21:Drivers/display.h **** 		GPIOD->BSRR = GPIO_PIN_7;
 2374              		.loc 2 21 14 view .LVU699
 2375              	.LBB864:
  22:Drivers/display.h **** 	}
 2376              		.loc 2 22 3 view .LVU700
  22:Drivers/display.h **** 	}
 2377              		.loc 2 22 15 is_stmt 0 view .LVU701
 2378 03ec B161     		str	r1, [r6, #24]
 2379              	.L49:
  22:Drivers/display.h **** 	}
 2380              		.loc 2 22 15 view .LVU702
 2381              	.LBE864:
 2382              	.LBE866:
 2383              	.LBB867:
 2384              	.LBB868:
  99:Drivers/display.h **** 		SPI2->DR = data;
 2385              		.loc 2 99 3 is_stmt 1 view .LVU703
  99:Drivers/display.h **** 		SPI2->DR = data;
 2386              		.loc 2 99 10 view .LVU704
  99:Drivers/display.h **** 		SPI2->DR = data;
 2387              		.loc 2 99 18 is_stmt 0 view .LVU705
 2388 03ee 3B48     		ldr	r0, .L257+4
 2389 03f0 8568     		ldr	r5, [r0, #8]
  99:Drivers/display.h **** 		SPI2->DR = data;
 2390              		.loc 2 99 10 view .LVU706
 2391 03f2 AF07     		lsls	r7, r5, #30
 2392 03f4 FBD5     		bpl	.L49
 100:Drivers/display.h **** 
 2393              		.loc 2 100 3 is_stmt 1 view .LVU707
 100:Drivers/display.h **** 
 2394              		.loc 2 100 12 is_stmt 0 view .LVU708
 2395 03f6 9F27     		movs	r7, #159
 2396 03f8 C760     		str	r7, [r0, #12]
 2397              	.L50:
 102:Drivers/display.h **** 		dummy = SPI2->DR;
 2398              		.loc 2 102 3 is_stmt 1 view .LVU709
 102:Drivers/display.h **** 		dummy = SPI2->DR;
 2399              		.loc 2 102 10 view .LVU710
 102:Drivers/display.h **** 		dummy = SPI2->DR;
 2400              		.loc 2 102 18 is_stmt 0 view .LVU711
 2401 03fa 384B     		ldr	r3, .L257+4
 2402 03fc 9E68     		ldr	r6, [r3, #8]
 102:Drivers/display.h **** 		dummy = SPI2->DR;
 2403              		.loc 2 102 10 view .LVU712
 2404 03fe F607     		lsls	r6, r6, #31
 2405 0400 FBD5     		bpl	.L50
 2406              		.loc 2 103 3 is_stmt 1 view .LVU713
 2407              		.loc 2 103 17 is_stmt 0 view .LVU714
 2408 0402 D968     		ldr	r1, [r3, #12]
 2409              	.LBE868:
 2410              	.LBE867:
 2411              	.LBE877:
 2412              	.LBE887:
 2413              	.LBB888:
 2414              	.LBB889:
 2415              	.LBB890:
ARM GAS  /var/folders/84/_x1cyy_j36g486tldtwl37280000gn/T//ccaJEjXT.s 			page 56


 2416              	.LBB891:
  26:Drivers/display.h **** 	}
 2417              		.loc 2 26 15 view .LVU715
 2418 0404 344A     		ldr	r2, .L257
 2419              	.LBE891:
 2420              	.LBE890:
 2421              	.LBE889:
 2422              	.LBE888:
 2423              	.LBB925:
 2424              	.LBB878:
 2425              	.LBB871:
 2426              	.LBB869:
 2427              		.loc 2 103 9 view .LVU716
 2428 0406 C8B2     		uxtb	r0, r1
 2429              	.LBE869:
 2430              	.LBE871:
 2431              	.LBE878:
 2432              	.LBE925:
 2433              	.LBB926:
 2434              	.LBB902:
 2435              	.LBB894:
 2436              	.LBB892:
  26:Drivers/display.h **** 	}
 2437              		.loc 2 26 15 view .LVU717
 2438 0408 4FF40005 		mov	r5, #8388608
 2439              	.LBE892:
 2440              	.LBE894:
 2441              	.LBE902:
 2442              	.LBE926:
 2443              	.LBB927:
 2444              	.LBB879:
 2445              	.LBB872:
 2446              	.LBB870:
 2447              		.loc 2 103 9 view .LVU718
 2448 040c 2070     		strb	r0, [r4]
 2449              	.LVL36:
 2450              		.loc 2 103 9 view .LVU719
 2451              	.LBE870:
 2452              	.LBE872:
 2453              	.LBE879:
 2454              	.LBE927:
  93:Drivers/display.cpp **** 	sendCommand(0xc7, 0x0f);		// Master Contrast Current Control | 0x0f = no change
 2455              		.loc 1 93 2 is_stmt 1 view .LVU720
 2456              	.LBB928:
 2457              	.LBI888:
  39:Drivers/display.h **** 		sendCommand(cmd);
 2458              		.loc 2 39 7 view .LVU721
 2459              	.LBE928:
  40:Drivers/display.h **** 		sendData(data);
 2460              		.loc 2 40 3 view .LVU722
 2461              	.LBB929:
 2462              	.LBB903:
 2463              	.LBI889:
  29:Drivers/display.h **** 		cd_low();
 2464              		.loc 2 29 7 view .LVU723
 2465              	.LBE903:
 2466              	.LBE929:
ARM GAS  /var/folders/84/_x1cyy_j36g486tldtwl37280000gn/T//ccaJEjXT.s 			page 57


  30:Drivers/display.h **** 		spi_write(cmd);
 2467              		.loc 2 30 3 view .LVU724
 2468              	.LBB930:
 2469              	.LBB904:
 2470              	.LBB895:
 2471              	.LBI890:
  25:Drivers/display.h **** 		GPIOD->BSRR = GPIO_PIN_7 << 16;
 2472              		.loc 2 25 14 view .LVU725
 2473              	.LBB893:
  26:Drivers/display.h **** 	}
 2474              		.loc 2 26 3 view .LVU726
  26:Drivers/display.h **** 	}
 2475              		.loc 2 26 15 is_stmt 0 view .LVU727
 2476 040e 9561     		str	r5, [r2, #24]
 2477              	.L51:
  26:Drivers/display.h **** 	}
 2478              		.loc 2 26 15 view .LVU728
 2479              	.LBE893:
 2480              	.LBE895:
 2481              	.LBB896:
 2482              	.LBB897:
  99:Drivers/display.h **** 		SPI2->DR = data;
 2483              		.loc 2 99 3 is_stmt 1 view .LVU729
  99:Drivers/display.h **** 		SPI2->DR = data;
 2484              		.loc 2 99 10 view .LVU730
  99:Drivers/display.h **** 		SPI2->DR = data;
 2485              		.loc 2 99 18 is_stmt 0 view .LVU731
 2486 0410 324F     		ldr	r7, .L257+4
 2487 0412 BB68     		ldr	r3, [r7, #8]
  99:Drivers/display.h **** 		SPI2->DR = data;
 2488              		.loc 2 99 10 view .LVU732
 2489 0414 9D07     		lsls	r5, r3, #30
 2490 0416 FBD5     		bpl	.L51
 100:Drivers/display.h **** 
 2491              		.loc 2 100 3 is_stmt 1 view .LVU733
 100:Drivers/display.h **** 
 2492              		.loc 2 100 12 is_stmt 0 view .LVU734
 2493 0418 C726     		movs	r6, #199
 2494 041a FE60     		str	r6, [r7, #12]
 2495              	.L52:
 102:Drivers/display.h **** 		dummy = SPI2->DR;
 2496              		.loc 2 102 3 is_stmt 1 view .LVU735
 102:Drivers/display.h **** 		dummy = SPI2->DR;
 2497              		.loc 2 102 10 view .LVU736
 102:Drivers/display.h **** 		dummy = SPI2->DR;
 2498              		.loc 2 102 18 is_stmt 0 view .LVU737
 2499 041c 2F49     		ldr	r1, .L257+4
 2500 041e 8A68     		ldr	r2, [r1, #8]
 102:Drivers/display.h **** 		dummy = SPI2->DR;
 2501              		.loc 2 102 10 view .LVU738
 2502 0420 D007     		lsls	r0, r2, #31
 2503 0422 FBD5     		bpl	.L52
 2504              		.loc 2 103 3 is_stmt 1 view .LVU739
 2505              		.loc 2 103 17 is_stmt 0 view .LVU740
 2506 0424 C868     		ldr	r0, [r1, #12]
 2507              	.LBE897:
 2508              	.LBE896:
ARM GAS  /var/folders/84/_x1cyy_j36g486tldtwl37280000gn/T//ccaJEjXT.s 			page 58


 2509              	.LBE904:
 2510              	.LBB905:
 2511              	.LBB906:
 2512              	.LBB907:
  22:Drivers/display.h **** 	}
 2513              		.loc 2 22 15 view .LVU741
 2514 0426 2C4D     		ldr	r5, .L257
 2515              	.LBE907:
 2516              	.LBE906:
 2517              	.LBE905:
 2518              	.LBB918:
 2519              	.LBB900:
 2520              	.LBB898:
 2521              		.loc 2 103 9 view .LVU742
 2522 0428 C7B2     		uxtb	r7, r0
 2523              	.LBE898:
 2524              	.LBE900:
 2525              	.LBE918:
 2526              	.LBB919:
 2527              	.LBB910:
 2528              	.LBB908:
  22:Drivers/display.h **** 	}
 2529              		.loc 2 22 15 view .LVU743
 2530 042a 8023     		movs	r3, #128
 2531              	.LBE908:
 2532              	.LBE910:
 2533              	.LBE919:
 2534              	.LBB920:
 2535              	.LBB901:
 2536              	.LBB899:
 2537              		.loc 2 103 9 view .LVU744
 2538 042c 2770     		strb	r7, [r4]
 2539              	.LVL37:
 2540              		.loc 2 103 9 view .LVU745
 2541              	.LBE899:
 2542              	.LBE901:
 2543              	.LBE920:
 2544              	.LBE930:
  41:Drivers/display.h **** 	}
 2545              		.loc 2 41 3 is_stmt 1 view .LVU746
 2546              	.LBB931:
 2547              	.LBB921:
 2548              	.LBI905:
  34:Drivers/display.h **** 		cd_high();
 2549              		.loc 2 34 7 view .LVU747
 2550              	.LBE921:
 2551              	.LBE931:
  35:Drivers/display.h **** 		spi_write(data);
 2552              		.loc 2 35 3 view .LVU748
 2553              	.LBB932:
 2554              	.LBB922:
 2555              	.LBB911:
 2556              	.LBI906:
  21:Drivers/display.h **** 		GPIOD->BSRR = GPIO_PIN_7;
 2557              		.loc 2 21 14 view .LVU749
 2558              	.LBB909:
  22:Drivers/display.h **** 	}
ARM GAS  /var/folders/84/_x1cyy_j36g486tldtwl37280000gn/T//ccaJEjXT.s 			page 59


 2559              		.loc 2 22 3 view .LVU750
  22:Drivers/display.h **** 	}
 2560              		.loc 2 22 15 is_stmt 0 view .LVU751
 2561 042e AB61     		str	r3, [r5, #24]
 2562              	.L53:
  22:Drivers/display.h **** 	}
 2563              		.loc 2 22 15 view .LVU752
 2564              	.LBE909:
 2565              	.LBE911:
 2566              	.LBB912:
 2567              	.LBB913:
  99:Drivers/display.h **** 		SPI2->DR = data;
 2568              		.loc 2 99 3 is_stmt 1 view .LVU753
  99:Drivers/display.h **** 		SPI2->DR = data;
 2569              		.loc 2 99 10 view .LVU754
  99:Drivers/display.h **** 		SPI2->DR = data;
 2570              		.loc 2 99 18 is_stmt 0 view .LVU755
 2571 0430 2A4E     		ldr	r6, .L257+4
 2572 0432 B168     		ldr	r1, [r6, #8]
  99:Drivers/display.h **** 		SPI2->DR = data;
 2573              		.loc 2 99 10 view .LVU756
 2574 0434 8907     		lsls	r1, r1, #30
 2575 0436 FBD5     		bpl	.L53
 100:Drivers/display.h **** 
 2576              		.loc 2 100 3 is_stmt 1 view .LVU757
 100:Drivers/display.h **** 
 2577              		.loc 2 100 12 is_stmt 0 view .LVU758
 2578 0438 0F22     		movs	r2, #15
 2579 043a F260     		str	r2, [r6, #12]
 2580              	.L54:
 102:Drivers/display.h **** 		dummy = SPI2->DR;
 2581              		.loc 2 102 3 is_stmt 1 view .LVU759
 102:Drivers/display.h **** 		dummy = SPI2->DR;
 2582              		.loc 2 102 10 view .LVU760
 102:Drivers/display.h **** 		dummy = SPI2->DR;
 2583              		.loc 2 102 18 is_stmt 0 view .LVU761
 2584 043c 2748     		ldr	r0, .L257+4
 2585 043e 8568     		ldr	r5, [r0, #8]
 102:Drivers/display.h **** 		dummy = SPI2->DR;
 2586              		.loc 2 102 10 view .LVU762
 2587 0440 EA07     		lsls	r2, r5, #31
 2588 0442 FBD5     		bpl	.L54
 2589              		.loc 2 103 3 is_stmt 1 view .LVU763
 2590              		.loc 2 103 17 is_stmt 0 view .LVU764
 2591 0444 C768     		ldr	r7, [r0, #12]
 2592              	.LBE913:
 2593              	.LBE912:
 2594              	.LBE922:
 2595              	.LBE932:
 2596              	.LBB933:
 2597              	.LBB934:
 2598              	.LBB935:
  26:Drivers/display.h **** 	}
 2599              		.loc 2 26 15 view .LVU765
 2600 0446 244E     		ldr	r6, .L257
 2601              	.LBE935:
 2602              	.LBE934:
ARM GAS  /var/folders/84/_x1cyy_j36g486tldtwl37280000gn/T//ccaJEjXT.s 			page 60


 2603              	.LBE933:
 2604              	.LBB946:
 2605              	.LBB923:
 2606              	.LBB916:
 2607              	.LBB914:
 2608              		.loc 2 103 9 view .LVU766
 2609 0448 FBB2     		uxtb	r3, r7
 2610              	.LBE914:
 2611              	.LBE916:
 2612              	.LBE923:
 2613              	.LBE946:
 2614              	.LBB947:
 2615              	.LBB938:
 2616              	.LBB936:
  26:Drivers/display.h **** 	}
 2617              		.loc 2 26 15 view .LVU767
 2618 044a 4FF40001 		mov	r1, #8388608
 2619              	.LBE936:
 2620              	.LBE938:
 2621              	.LBE947:
 2622              	.LBB948:
 2623              	.LBB924:
 2624              	.LBB917:
 2625              	.LBB915:
 2626              		.loc 2 103 9 view .LVU768
 2627 044e 2370     		strb	r3, [r4]
 2628              	.LVL38:
 2629              		.loc 2 103 9 view .LVU769
 2630              	.LBE915:
 2631              	.LBE917:
 2632              	.LBE924:
 2633              	.LBE948:
  94:Drivers/display.cpp **** 	sendCommand(0xb9);				// Select Default Linear Gray Scale table
 2634              		.loc 1 94 2 is_stmt 1 view .LVU770
 2635              	.LBB949:
 2636              	.LBI933:
  29:Drivers/display.h **** 		cd_low();
 2637              		.loc 2 29 7 view .LVU771
 2638              	.LBE949:
  30:Drivers/display.h **** 		spi_write(cmd);
 2639              		.loc 2 30 3 view .LVU772
 2640              	.LBB950:
 2641              	.LBB939:
 2642              	.LBI934:
  25:Drivers/display.h **** 		GPIOD->BSRR = GPIO_PIN_7 << 16;
 2643              		.loc 2 25 14 view .LVU773
 2644              	.LBB937:
  26:Drivers/display.h **** 	}
 2645              		.loc 2 26 3 view .LVU774
  26:Drivers/display.h **** 	}
 2646              		.loc 2 26 15 is_stmt 0 view .LVU775
 2647 0450 B161     		str	r1, [r6, #24]
 2648              	.L55:
  26:Drivers/display.h **** 	}
 2649              		.loc 2 26 15 view .LVU776
 2650              	.LBE937:
 2651              	.LBE939:
ARM GAS  /var/folders/84/_x1cyy_j36g486tldtwl37280000gn/T//ccaJEjXT.s 			page 61


 2652              	.LBB940:
 2653              	.LBB941:
  99:Drivers/display.h **** 		SPI2->DR = data;
 2654              		.loc 2 99 3 is_stmt 1 view .LVU777
  99:Drivers/display.h **** 		SPI2->DR = data;
 2655              		.loc 2 99 10 view .LVU778
  99:Drivers/display.h **** 		SPI2->DR = data;
 2656              		.loc 2 99 18 is_stmt 0 view .LVU779
 2657 0452 2248     		ldr	r0, .L257+4
 2658 0454 8268     		ldr	r2, [r0, #8]
  99:Drivers/display.h **** 		SPI2->DR = data;
 2659              		.loc 2 99 10 view .LVU780
 2660 0456 9707     		lsls	r7, r2, #30
 2661 0458 FBD5     		bpl	.L55
 100:Drivers/display.h **** 
 2662              		.loc 2 100 3 is_stmt 1 view .LVU781
 100:Drivers/display.h **** 
 2663              		.loc 2 100 12 is_stmt 0 view .LVU782
 2664 045a B925     		movs	r5, #185
 2665 045c C560     		str	r5, [r0, #12]
 2666              	.L56:
 102:Drivers/display.h **** 		dummy = SPI2->DR;
 2667              		.loc 2 102 3 is_stmt 1 view .LVU783
 102:Drivers/display.h **** 		dummy = SPI2->DR;
 2668              		.loc 2 102 10 view .LVU784
 102:Drivers/display.h **** 		dummy = SPI2->DR;
 2669              		.loc 2 102 18 is_stmt 0 view .LVU785
 2670 045e 1F4F     		ldr	r7, .L257+4
 2671 0460 BE68     		ldr	r6, [r7, #8]
 102:Drivers/display.h **** 		dummy = SPI2->DR;
 2672              		.loc 2 102 10 view .LVU786
 2673 0462 F607     		lsls	r6, r6, #31
 2674 0464 FBD5     		bpl	.L56
 2675              		.loc 2 103 3 is_stmt 1 view .LVU787
 2676              		.loc 2 103 17 is_stmt 0 view .LVU788
 2677 0466 FB68     		ldr	r3, [r7, #12]
 2678              	.LBE941:
 2679              	.LBE940:
 2680              	.LBE950:
 2681              	.LBB951:
 2682              	.LBB952:
 2683              	.LBB953:
 2684              	.LBB954:
  26:Drivers/display.h **** 	}
 2685              		.loc 2 26 15 view .LVU789
 2686 0468 1B48     		ldr	r0, .L257
 2687              	.LBE954:
 2688              	.LBE953:
 2689              	.LBE952:
 2690              	.LBE951:
 2691              	.LBB988:
 2692              	.LBB944:
 2693              	.LBB942:
 2694              		.loc 2 103 9 view .LVU790
 2695 046a DAB2     		uxtb	r2, r3
 2696              	.LBE942:
 2697              	.LBE944:
ARM GAS  /var/folders/84/_x1cyy_j36g486tldtwl37280000gn/T//ccaJEjXT.s 			page 62


 2698              	.LBE988:
 2699              	.LBB989:
 2700              	.LBB965:
 2701              	.LBB957:
 2702              	.LBB955:
  26:Drivers/display.h **** 	}
 2703              		.loc 2 26 15 view .LVU791
 2704 046c 4FF40001 		mov	r1, #8388608
 2705              	.LBE955:
 2706              	.LBE957:
 2707              	.LBE965:
 2708              	.LBE989:
 2709              	.LBB990:
 2710              	.LBB945:
 2711              	.LBB943:
 2712              		.loc 2 103 9 view .LVU792
 2713 0470 2270     		strb	r2, [r4]
 2714              	.LVL39:
 2715              		.loc 2 103 9 view .LVU793
 2716              	.LBE943:
 2717              	.LBE945:
 2718              	.LBE990:
  95:Drivers/display.cpp **** 	sendCommand(0xb1, 0x74);		// Set Phase Length | 0xe2 = Phase 1 period (reset phase length) = 5 DCL
 2719              		.loc 1 95 2 is_stmt 1 view .LVU794
 2720              	.LBB991:
 2721              	.LBI951:
  39:Drivers/display.h **** 		sendCommand(cmd);
 2722              		.loc 2 39 7 view .LVU795
 2723              	.LBE991:
  40:Drivers/display.h **** 		sendData(data);
 2724              		.loc 2 40 3 view .LVU796
 2725              	.LBB992:
 2726              	.LBB966:
 2727              	.LBI952:
  29:Drivers/display.h **** 		cd_low();
 2728              		.loc 2 29 7 view .LVU797
 2729              	.LBE966:
 2730              	.LBE992:
  30:Drivers/display.h **** 		spi_write(cmd);
 2731              		.loc 2 30 3 view .LVU798
 2732              	.LBB993:
 2733              	.LBB967:
 2734              	.LBB958:
 2735              	.LBI953:
  25:Drivers/display.h **** 		GPIOD->BSRR = GPIO_PIN_7 << 16;
 2736              		.loc 2 25 14 view .LVU799
 2737              	.LBB956:
  26:Drivers/display.h **** 	}
 2738              		.loc 2 26 3 view .LVU800
  26:Drivers/display.h **** 	}
 2739              		.loc 2 26 15 is_stmt 0 view .LVU801
 2740 0472 8161     		str	r1, [r0, #24]
 2741              	.L57:
  26:Drivers/display.h **** 	}
 2742              		.loc 2 26 15 view .LVU802
 2743              	.LBE956:
 2744              	.LBE958:
ARM GAS  /var/folders/84/_x1cyy_j36g486tldtwl37280000gn/T//ccaJEjXT.s 			page 63


 2745              	.LBB959:
 2746              	.LBB960:
  99:Drivers/display.h **** 		SPI2->DR = data;
 2747              		.loc 2 99 3 is_stmt 1 view .LVU803
  99:Drivers/display.h **** 		SPI2->DR = data;
 2748              		.loc 2 99 10 view .LVU804
  99:Drivers/display.h **** 		SPI2->DR = data;
 2749              		.loc 2 99 18 is_stmt 0 view .LVU805
 2750 0474 194F     		ldr	r7, .L257+4
 2751 0476 BD68     		ldr	r5, [r7, #8]
  99:Drivers/display.h **** 		SPI2->DR = data;
 2752              		.loc 2 99 10 view .LVU806
 2753 0478 AD07     		lsls	r5, r5, #30
 2754 047a FBD5     		bpl	.L57
 100:Drivers/display.h **** 
 2755              		.loc 2 100 3 is_stmt 1 view .LVU807
 100:Drivers/display.h **** 
 2756              		.loc 2 100 12 is_stmt 0 view .LVU808
 2757 047c B126     		movs	r6, #177
 2758 047e FE60     		str	r6, [r7, #12]
 2759              	.L58:
 102:Drivers/display.h **** 		dummy = SPI2->DR;
 2760              		.loc 2 102 3 is_stmt 1 view .LVU809
 102:Drivers/display.h **** 		dummy = SPI2->DR;
 2761              		.loc 2 102 10 view .LVU810
 102:Drivers/display.h **** 		dummy = SPI2->DR;
 2762              		.loc 2 102 18 is_stmt 0 view .LVU811
 2763 0480 164B     		ldr	r3, .L257+4
 2764 0482 9868     		ldr	r0, [r3, #8]
 102:Drivers/display.h **** 		dummy = SPI2->DR;
 2765              		.loc 2 102 10 view .LVU812
 2766 0484 C007     		lsls	r0, r0, #31
 2767 0486 FBD5     		bpl	.L58
 2768              		.loc 2 103 3 is_stmt 1 view .LVU813
 2769              		.loc 2 103 17 is_stmt 0 view .LVU814
 2770 0488 D968     		ldr	r1, [r3, #12]
 2771              	.LBE960:
 2772              	.LBE959:
 2773              	.LBE967:
 2774              	.LBB968:
 2775              	.LBB969:
 2776              	.LBB970:
  22:Drivers/display.h **** 	}
 2777              		.loc 2 22 15 view .LVU815
 2778 048a 134A     		ldr	r2, .L257
 2779              	.LBE970:
 2780              	.LBE969:
 2781              	.LBE968:
 2782              	.LBB981:
 2783              	.LBB963:
 2784              	.LBB961:
 2785              		.loc 2 103 9 view .LVU816
 2786 048c CFB2     		uxtb	r7, r1
 2787              	.LBE961:
 2788              	.LBE963:
 2789              	.LBE981:
 2790              	.LBB982:
ARM GAS  /var/folders/84/_x1cyy_j36g486tldtwl37280000gn/T//ccaJEjXT.s 			page 64


 2791              	.LBB973:
 2792              	.LBB971:
  22:Drivers/display.h **** 	}
 2793              		.loc 2 22 15 view .LVU817
 2794 048e 8025     		movs	r5, #128
 2795              	.LBE971:
 2796              	.LBE973:
 2797              	.LBE982:
 2798              	.LBB983:
 2799              	.LBB964:
 2800              	.LBB962:
 2801              		.loc 2 103 9 view .LVU818
 2802 0490 2770     		strb	r7, [r4]
 2803              	.LVL40:
 2804              		.loc 2 103 9 view .LVU819
 2805              	.LBE962:
 2806              	.LBE964:
 2807              	.LBE983:
 2808              	.LBE993:
  41:Drivers/display.h **** 	}
 2809              		.loc 2 41 3 is_stmt 1 view .LVU820
 2810              	.LBB994:
 2811              	.LBB984:
 2812              	.LBI968:
  34:Drivers/display.h **** 		cd_high();
 2813              		.loc 2 34 7 view .LVU821
 2814              	.LBE984:
 2815              	.LBE994:
  35:Drivers/display.h **** 		spi_write(data);
 2816              		.loc 2 35 3 view .LVU822
 2817              	.LBB995:
 2818              	.LBB985:
 2819              	.LBB974:
 2820              	.LBI969:
  21:Drivers/display.h **** 		GPIOD->BSRR = GPIO_PIN_7;
 2821              		.loc 2 21 14 view .LVU823
 2822              	.LBB972:
  22:Drivers/display.h **** 	}
 2823              		.loc 2 22 3 view .LVU824
  22:Drivers/display.h **** 	}
 2824              		.loc 2 22 15 is_stmt 0 view .LVU825
 2825 0492 9561     		str	r5, [r2, #24]
 2826              	.L59:
  22:Drivers/display.h **** 	}
 2827              		.loc 2 22 15 view .LVU826
 2828              	.LBE972:
 2829              	.LBE974:
 2830              	.LBB975:
 2831              	.LBB976:
  99:Drivers/display.h **** 		SPI2->DR = data;
 2832              		.loc 2 99 3 is_stmt 1 view .LVU827
  99:Drivers/display.h **** 		SPI2->DR = data;
 2833              		.loc 2 99 10 view .LVU828
  99:Drivers/display.h **** 		SPI2->DR = data;
 2834              		.loc 2 99 18 is_stmt 0 view .LVU829
 2835 0494 114E     		ldr	r6, .L257+4
 2836 0496 B368     		ldr	r3, [r6, #8]
ARM GAS  /var/folders/84/_x1cyy_j36g486tldtwl37280000gn/T//ccaJEjXT.s 			page 65


  99:Drivers/display.h **** 		SPI2->DR = data;
 2837              		.loc 2 99 10 view .LVU830
 2838 0498 9907     		lsls	r1, r3, #30
 2839 049a FBD5     		bpl	.L59
 100:Drivers/display.h **** 
 2840              		.loc 2 100 3 is_stmt 1 view .LVU831
 100:Drivers/display.h **** 
 2841              		.loc 2 100 12 is_stmt 0 view .LVU832
 2842 049c 7420     		movs	r0, #116
 2843 049e F060     		str	r0, [r6, #12]
 2844              	.L60:
 102:Drivers/display.h **** 		dummy = SPI2->DR;
 2845              		.loc 2 102 3 is_stmt 1 view .LVU833
 102:Drivers/display.h **** 		dummy = SPI2->DR;
 2846              		.loc 2 102 10 view .LVU834
 102:Drivers/display.h **** 		dummy = SPI2->DR;
 2847              		.loc 2 102 18 is_stmt 0 view .LVU835
 2848 04a0 0E49     		ldr	r1, .L257+4
 2849 04a2 8A68     		ldr	r2, [r1, #8]
 102:Drivers/display.h **** 		dummy = SPI2->DR;
 2850              		.loc 2 102 10 view .LVU836
 2851 04a4 D207     		lsls	r2, r2, #31
 2852 04a6 FBD5     		bpl	.L60
 2853              		.loc 2 103 3 is_stmt 1 view .LVU837
 2854              		.loc 2 103 17 is_stmt 0 view .LVU838
 2855 04a8 CF68     		ldr	r7, [r1, #12]
 2856              	.LBE976:
 2857              	.LBE975:
 2858              	.LBE985:
 2859              	.LBE995:
 2860              	.LBB996:
 2861              	.LBB997:
 2862              	.LBB998:
 2863              	.LBB999:
  26:Drivers/display.h **** 	}
 2864              		.loc 2 26 15 view .LVU839
 2865 04aa 0B4D     		ldr	r5, .L257
 2866              	.LBE999:
 2867              	.LBE998:
 2868              	.LBE997:
 2869              	.LBE996:
 2870              	.LBB1051:
 2871              	.LBB986:
 2872              	.LBB979:
 2873              	.LBB977:
 2874              		.loc 2 103 9 view .LVU840
 2875 04ac FEB2     		uxtb	r6, r7
 2876              	.LBE977:
 2877              	.LBE979:
 2878              	.LBE986:
 2879              	.LBE1051:
 2880              	.LBB1052:
 2881              	.LBB1010:
 2882              	.LBB1002:
 2883              	.LBB1000:
  26:Drivers/display.h **** 	}
 2884              		.loc 2 26 15 view .LVU841
ARM GAS  /var/folders/84/_x1cyy_j36g486tldtwl37280000gn/T//ccaJEjXT.s 			page 66


 2885 04ae 4FF40003 		mov	r3, #8388608
 2886              	.LBE1000:
 2887              	.LBE1002:
 2888              	.LBE1010:
 2889              	.LBE1052:
 2890              	.LBB1053:
 2891              	.LBB987:
 2892              	.LBB980:
 2893              	.LBB978:
 2894              		.loc 2 103 9 view .LVU842
 2895 04b2 2670     		strb	r6, [r4]
 2896              	.LVL41:
 2897              		.loc 2 103 9 view .LVU843
 2898              	.LBE978:
 2899              	.LBE980:
 2900              	.LBE987:
 2901              	.LBE1053:
  96:Drivers/display.cpp **** 	sendCommand(0xd1, 0xa2, 0x20);	// Display Enhancement B | 0xa2 = Normal (reset) | 0x20 = n/a
 2902              		.loc 1 96 2 is_stmt 1 view .LVU844
 2903              	.LBB1054:
 2904              	.LBI996:
  44:Drivers/display.h **** 		sendCommand(cmd);
 2905              		.loc 2 44 7 view .LVU845
 2906              	.LBE1054:
  45:Drivers/display.h **** 		sendData(data_a);
 2907              		.loc 2 45 3 view .LVU846
 2908              	.LBB1055:
 2909              	.LBB1011:
 2910              	.LBI997:
  29:Drivers/display.h **** 		cd_low();
 2911              		.loc 2 29 7 view .LVU847
 2912              	.LBE1011:
 2913              	.LBE1055:
  30:Drivers/display.h **** 		spi_write(cmd);
 2914              		.loc 2 30 3 view .LVU848
 2915              	.LBB1056:
 2916              	.LBB1012:
 2917              	.LBB1003:
 2918              	.LBI998:
  25:Drivers/display.h **** 		GPIOD->BSRR = GPIO_PIN_7 << 16;
 2919              		.loc 2 25 14 view .LVU849
 2920              	.LBB1001:
  26:Drivers/display.h **** 	}
 2921              		.loc 2 26 3 view .LVU850
  26:Drivers/display.h **** 	}
 2922              		.loc 2 26 15 is_stmt 0 view .LVU851
 2923 04b4 AB61     		str	r3, [r5, #24]
 2924              	.L61:
  26:Drivers/display.h **** 	}
 2925              		.loc 2 26 15 view .LVU852
 2926              	.LBE1001:
 2927              	.LBE1003:
 2928              	.LBB1004:
 2929              	.LBB1005:
  99:Drivers/display.h **** 		SPI2->DR = data;
 2930              		.loc 2 99 3 is_stmt 1 view .LVU853
  99:Drivers/display.h **** 		SPI2->DR = data;
ARM GAS  /var/folders/84/_x1cyy_j36g486tldtwl37280000gn/T//ccaJEjXT.s 			page 67


 2931              		.loc 2 99 10 view .LVU854
  99:Drivers/display.h **** 		SPI2->DR = data;
 2932              		.loc 2 99 18 is_stmt 0 view .LVU855
 2933 04b6 0948     		ldr	r0, .L257+4
 2934 04b8 8168     		ldr	r1, [r0, #8]
  99:Drivers/display.h **** 		SPI2->DR = data;
 2935              		.loc 2 99 10 view .LVU856
 2936 04ba 8F07     		lsls	r7, r1, #30
 2937 04bc FBD5     		bpl	.L61
 100:Drivers/display.h **** 
 2938              		.loc 2 100 3 is_stmt 1 view .LVU857
 100:Drivers/display.h **** 
 2939              		.loc 2 100 12 is_stmt 0 view .LVU858
 2940 04be D122     		movs	r2, #209
 2941 04c0 C260     		str	r2, [r0, #12]
 2942              	.L62:
 102:Drivers/display.h **** 		dummy = SPI2->DR;
 2943              		.loc 2 102 3 is_stmt 1 view .LVU859
 102:Drivers/display.h **** 		dummy = SPI2->DR;
 2944              		.loc 2 102 10 view .LVU860
 102:Drivers/display.h **** 		dummy = SPI2->DR;
 2945              		.loc 2 102 18 is_stmt 0 view .LVU861
 2946 04c2 064F     		ldr	r7, .L257+4
 2947 04c4 BD68     		ldr	r5, [r7, #8]
 102:Drivers/display.h **** 		dummy = SPI2->DR;
 2948              		.loc 2 102 10 view .LVU862
 2949 04c6 EE07     		lsls	r6, r5, #31
 2950 04c8 FBD5     		bpl	.L62
 2951              		.loc 2 103 3 is_stmt 1 view .LVU863
 2952              		.loc 2 103 17 is_stmt 0 view .LVU864
 2953 04ca FE68     		ldr	r6, [r7, #12]
 2954              	.LBE1005:
 2955              	.LBE1004:
 2956              	.LBE1012:
 2957              	.LBB1013:
 2958              	.LBB1014:
 2959              	.LBB1015:
  22:Drivers/display.h **** 	}
 2960              		.loc 2 22 15 view .LVU865
 2961 04cc 0248     		ldr	r0, .L257
 2962              	.LBE1015:
 2963              	.LBE1014:
 2964              	.LBE1013:
 2965              	.LBB1026:
 2966              	.LBB1008:
 2967              	.LBB1006:
 2968              		.loc 2 103 9 view .LVU866
 2969 04ce F3B2     		uxtb	r3, r6
 2970              	.LBE1006:
 2971              	.LBE1008:
 2972              	.LBE1026:
 2973              	.LBB1027:
 2974              	.LBB1018:
 2975              	.LBB1016:
  22:Drivers/display.h **** 	}
 2976              		.loc 2 22 15 view .LVU867
 2977 04d0 8021     		movs	r1, #128
ARM GAS  /var/folders/84/_x1cyy_j36g486tldtwl37280000gn/T//ccaJEjXT.s 			page 68


 2978              	.LBE1016:
 2979              	.LBE1018:
 2980              	.LBE1027:
 2981              	.LBB1028:
 2982              	.LBB1009:
 2983              	.LBB1007:
 2984              		.loc 2 103 9 view .LVU868
 2985 04d2 2370     		strb	r3, [r4]
 2986 04d4 04E0     		b	.L258
 2987              	.L259:
 2988 04d6 00BF     		.align	2
 2989              	.L257:
 2990 04d8 000C0240 		.word	1073875968
 2991 04dc 00380040 		.word	1073756160
 2992              	.L258:
 2993              	.LVL42:
 2994              		.loc 2 103 9 view .LVU869
 2995              	.LBE1007:
 2996              	.LBE1009:
 2997              	.LBE1028:
 2998              	.LBE1056:
  46:Drivers/display.h **** 		sendData(data_b);
 2999              		.loc 2 46 3 is_stmt 1 view .LVU870
 3000              	.LBB1057:
 3001              	.LBB1029:
 3002              	.LBI1013:
  34:Drivers/display.h **** 		cd_high();
 3003              		.loc 2 34 7 view .LVU871
 3004              	.LBE1029:
 3005              	.LBE1057:
  35:Drivers/display.h **** 		spi_write(data);
 3006              		.loc 2 35 3 view .LVU872
 3007              	.LBB1058:
 3008              	.LBB1030:
 3009              	.LBB1019:
 3010              	.LBI1014:
  21:Drivers/display.h **** 		GPIOD->BSRR = GPIO_PIN_7;
 3011              		.loc 2 21 14 view .LVU873
 3012              	.LBB1017:
  22:Drivers/display.h **** 	}
 3013              		.loc 2 22 3 view .LVU874
  22:Drivers/display.h **** 	}
 3014              		.loc 2 22 15 is_stmt 0 view .LVU875
 3015 04e0 8161     		str	r1, [r0, #24]
 3016              	.L63:
  22:Drivers/display.h **** 	}
 3017              		.loc 2 22 15 view .LVU876
 3018              	.LBE1017:
 3019              	.LBE1019:
 3020              	.LBB1020:
 3021              	.LBB1021:
  99:Drivers/display.h **** 		SPI2->DR = data;
 3022              		.loc 2 99 3 is_stmt 1 view .LVU877
  99:Drivers/display.h **** 		SPI2->DR = data;
 3023              		.loc 2 99 10 view .LVU878
  99:Drivers/display.h **** 		SPI2->DR = data;
 3024              		.loc 2 99 18 is_stmt 0 view .LVU879
ARM GAS  /var/folders/84/_x1cyy_j36g486tldtwl37280000gn/T//ccaJEjXT.s 			page 69


 3025 04e2 654F     		ldr	r7, .L260
 3026 04e4 BA68     		ldr	r2, [r7, #8]
  99:Drivers/display.h **** 		SPI2->DR = data;
 3027              		.loc 2 99 10 view .LVU880
 3028 04e6 9507     		lsls	r5, r2, #30
 3029 04e8 FBD5     		bpl	.L63
 100:Drivers/display.h **** 
 3030              		.loc 2 100 3 is_stmt 1 view .LVU881
 100:Drivers/display.h **** 
 3031              		.loc 2 100 12 is_stmt 0 view .LVU882
 3032 04ea A225     		movs	r5, #162
 3033 04ec FD60     		str	r5, [r7, #12]
 3034              	.L64:
 102:Drivers/display.h **** 		dummy = SPI2->DR;
 3035              		.loc 2 102 3 is_stmt 1 view .LVU883
 102:Drivers/display.h **** 		dummy = SPI2->DR;
 3036              		.loc 2 102 10 view .LVU884
 102:Drivers/display.h **** 		dummy = SPI2->DR;
 3037              		.loc 2 102 18 is_stmt 0 view .LVU885
 3038 04ee 624E     		ldr	r6, .L260
 3039 04f0 B068     		ldr	r0, [r6, #8]
 102:Drivers/display.h **** 		dummy = SPI2->DR;
 3040              		.loc 2 102 10 view .LVU886
 3041 04f2 C007     		lsls	r0, r0, #31
 3042 04f4 FBD5     		bpl	.L64
 3043              		.loc 2 103 3 is_stmt 1 view .LVU887
 3044              		.loc 2 103 17 is_stmt 0 view .LVU888
 3045 04f6 F368     		ldr	r3, [r6, #12]
 3046              	.LBE1021:
 3047              	.LBE1020:
 3048              	.LBE1030:
 3049              	.LBB1031:
 3050              	.LBB1032:
 3051              	.LBB1033:
  22:Drivers/display.h **** 	}
 3052              		.loc 2 22 15 view .LVU889
 3053 04f8 604F     		ldr	r7, .L260+4
 3054              	.LBE1033:
 3055              	.LBE1032:
 3056              	.LBE1031:
 3057              	.LBB1044:
 3058              	.LBB1024:
 3059              	.LBB1022:
 3060              		.loc 2 103 9 view .LVU890
 3061 04fa DAB2     		uxtb	r2, r3
 3062              	.LBE1022:
 3063              	.LBE1024:
 3064              	.LBE1044:
 3065              	.LBB1045:
 3066              	.LBB1036:
 3067              	.LBB1034:
  22:Drivers/display.h **** 	}
 3068              		.loc 2 22 15 view .LVU891
 3069 04fc 8021     		movs	r1, #128
 3070              	.LBE1034:
 3071              	.LBE1036:
 3072              	.LBE1045:
ARM GAS  /var/folders/84/_x1cyy_j36g486tldtwl37280000gn/T//ccaJEjXT.s 			page 70


 3073              	.LBB1046:
 3074              	.LBB1025:
 3075              	.LBB1023:
 3076              		.loc 2 103 9 view .LVU892
 3077 04fe 2270     		strb	r2, [r4]
 3078              	.LVL43:
 3079              		.loc 2 103 9 view .LVU893
 3080              	.LBE1023:
 3081              	.LBE1025:
 3082              	.LBE1046:
 3083              	.LBE1058:
  47:Drivers/display.h **** 	}
 3084              		.loc 2 47 3 is_stmt 1 view .LVU894
 3085              	.LBB1059:
 3086              	.LBB1047:
 3087              	.LBI1031:
  34:Drivers/display.h **** 		cd_high();
 3088              		.loc 2 34 7 view .LVU895
 3089              	.LBE1047:
 3090              	.LBE1059:
  35:Drivers/display.h **** 		spi_write(data);
 3091              		.loc 2 35 3 view .LVU896
 3092              	.LBB1060:
 3093              	.LBB1048:
 3094              	.LBB1037:
 3095              	.LBI1032:
  21:Drivers/display.h **** 		GPIOD->BSRR = GPIO_PIN_7;
 3096              		.loc 2 21 14 view .LVU897
 3097              	.LBB1035:
  22:Drivers/display.h **** 	}
 3098              		.loc 2 22 3 view .LVU898
  22:Drivers/display.h **** 	}
 3099              		.loc 2 22 15 is_stmt 0 view .LVU899
 3100 0500 B961     		str	r1, [r7, #24]
 3101              	.L65:
  22:Drivers/display.h **** 	}
 3102              		.loc 2 22 15 view .LVU900
 3103              	.LBE1035:
 3104              	.LBE1037:
 3105              	.LBB1038:
 3106              	.LBB1039:
  99:Drivers/display.h **** 		SPI2->DR = data;
 3107              		.loc 2 99 3 is_stmt 1 view .LVU901
  99:Drivers/display.h **** 		SPI2->DR = data;
 3108              		.loc 2 99 10 view .LVU902
  99:Drivers/display.h **** 		SPI2->DR = data;
 3109              		.loc 2 99 18 is_stmt 0 view .LVU903
 3110 0502 5D4D     		ldr	r5, .L260
 3111 0504 AE68     		ldr	r6, [r5, #8]
  99:Drivers/display.h **** 		SPI2->DR = data;
 3112              		.loc 2 99 10 view .LVU904
 3113 0506 B107     		lsls	r1, r6, #30
 3114 0508 FBD5     		bpl	.L65
 100:Drivers/display.h **** 
 3115              		.loc 2 100 3 is_stmt 1 view .LVU905
 100:Drivers/display.h **** 
 3116              		.loc 2 100 12 is_stmt 0 view .LVU906
ARM GAS  /var/folders/84/_x1cyy_j36g486tldtwl37280000gn/T//ccaJEjXT.s 			page 71


 3117 050a 2020     		movs	r0, #32
 3118 050c E860     		str	r0, [r5, #12]
 3119              	.L66:
 102:Drivers/display.h **** 		dummy = SPI2->DR;
 3120              		.loc 2 102 3 is_stmt 1 view .LVU907
 102:Drivers/display.h **** 		dummy = SPI2->DR;
 3121              		.loc 2 102 10 view .LVU908
 102:Drivers/display.h **** 		dummy = SPI2->DR;
 3122              		.loc 2 102 18 is_stmt 0 view .LVU909
 3123 050e 5A4B     		ldr	r3, .L260
 3124 0510 9F68     		ldr	r7, [r3, #8]
 102:Drivers/display.h **** 		dummy = SPI2->DR;
 3125              		.loc 2 102 10 view .LVU910
 3126 0512 FA07     		lsls	r2, r7, #31
 3127 0514 FBD5     		bpl	.L66
 3128              		.loc 2 103 3 is_stmt 1 view .LVU911
 3129              		.loc 2 103 17 is_stmt 0 view .LVU912
 3130 0516 D968     		ldr	r1, [r3, #12]
 3131              	.LBE1039:
 3132              	.LBE1038:
 3133              	.LBE1048:
 3134              	.LBE1060:
 3135              	.LBB1061:
 3136              	.LBB1062:
 3137              	.LBB1063:
 3138              	.LBB1064:
  26:Drivers/display.h **** 	}
 3139              		.loc 2 26 15 view .LVU913
 3140 0518 584A     		ldr	r2, .L260+4
 3141              	.LBE1064:
 3142              	.LBE1063:
 3143              	.LBE1062:
 3144              	.LBE1061:
 3145              	.LBB1098:
 3146              	.LBB1049:
 3147              	.LBB1042:
 3148              	.LBB1040:
 3149              		.loc 2 103 9 view .LVU914
 3150 051a CDB2     		uxtb	r5, r1
 3151              	.LBE1040:
 3152              	.LBE1042:
 3153              	.LBE1049:
 3154              	.LBE1098:
 3155              	.LBB1099:
 3156              	.LBB1075:
 3157              	.LBB1067:
 3158              	.LBB1065:
  26:Drivers/display.h **** 	}
 3159              		.loc 2 26 15 view .LVU915
 3160 051c 4FF40006 		mov	r6, #8388608
 3161              	.LBE1065:
 3162              	.LBE1067:
 3163              	.LBE1075:
 3164              	.LBE1099:
 3165              	.LBB1100:
 3166              	.LBB1050:
 3167              	.LBB1043:
ARM GAS  /var/folders/84/_x1cyy_j36g486tldtwl37280000gn/T//ccaJEjXT.s 			page 72


 3168              	.LBB1041:
 3169              		.loc 2 103 9 view .LVU916
 3170 0520 2570     		strb	r5, [r4]
 3171              	.LVL44:
 3172              		.loc 2 103 9 view .LVU917
 3173              	.LBE1041:
 3174              	.LBE1043:
 3175              	.LBE1050:
 3176              	.LBE1100:
  97:Drivers/display.cpp **** 	sendCommand(0xbb, 0x17);		// Set Pre-charge voltage | 0x1f = 0.6 * VCC
 3177              		.loc 1 97 2 is_stmt 1 view .LVU918
 3178              	.LBB1101:
 3179              	.LBI1061:
  39:Drivers/display.h **** 		sendCommand(cmd);
 3180              		.loc 2 39 7 view .LVU919
 3181              	.LBE1101:
  40:Drivers/display.h **** 		sendData(data);
 3182              		.loc 2 40 3 view .LVU920
 3183              	.LBB1102:
 3184              	.LBB1076:
 3185              	.LBI1062:
  29:Drivers/display.h **** 		cd_low();
 3186              		.loc 2 29 7 view .LVU921
 3187              	.LBE1076:
 3188              	.LBE1102:
  30:Drivers/display.h **** 		spi_write(cmd);
 3189              		.loc 2 30 3 view .LVU922
 3190              	.LBB1103:
 3191              	.LBB1077:
 3192              	.LBB1068:
 3193              	.LBI1063:
  25:Drivers/display.h **** 		GPIOD->BSRR = GPIO_PIN_7 << 16;
 3194              		.loc 2 25 14 view .LVU923
 3195              	.LBB1066:
  26:Drivers/display.h **** 	}
 3196              		.loc 2 26 3 view .LVU924
  26:Drivers/display.h **** 	}
 3197              		.loc 2 26 15 is_stmt 0 view .LVU925
 3198 0522 9661     		str	r6, [r2, #24]
 3199              	.L67:
  26:Drivers/display.h **** 	}
 3200              		.loc 2 26 15 view .LVU926
 3201              	.LBE1066:
 3202              	.LBE1068:
 3203              	.LBB1069:
 3204              	.LBB1070:
  99:Drivers/display.h **** 		SPI2->DR = data;
 3205              		.loc 2 99 3 is_stmt 1 view .LVU927
  99:Drivers/display.h **** 		SPI2->DR = data;
 3206              		.loc 2 99 10 view .LVU928
  99:Drivers/display.h **** 		SPI2->DR = data;
 3207              		.loc 2 99 18 is_stmt 0 view .LVU929
 3208 0524 5448     		ldr	r0, .L260
 3209 0526 8368     		ldr	r3, [r0, #8]
  99:Drivers/display.h **** 		SPI2->DR = data;
 3210              		.loc 2 99 10 view .LVU930
 3211 0528 9F07     		lsls	r7, r3, #30
ARM GAS  /var/folders/84/_x1cyy_j36g486tldtwl37280000gn/T//ccaJEjXT.s 			page 73


 3212 052a FBD5     		bpl	.L67
 100:Drivers/display.h **** 
 3213              		.loc 2 100 3 is_stmt 1 view .LVU931
 100:Drivers/display.h **** 
 3214              		.loc 2 100 12 is_stmt 0 view .LVU932
 3215 052c BB27     		movs	r7, #187
 3216 052e C760     		str	r7, [r0, #12]
 3217              	.L68:
 102:Drivers/display.h **** 		dummy = SPI2->DR;
 3218              		.loc 2 102 3 is_stmt 1 view .LVU933
 102:Drivers/display.h **** 		dummy = SPI2->DR;
 3219              		.loc 2 102 10 view .LVU934
 102:Drivers/display.h **** 		dummy = SPI2->DR;
 3220              		.loc 2 102 18 is_stmt 0 view .LVU935
 3221 0530 5149     		ldr	r1, .L260
 3222 0532 8A68     		ldr	r2, [r1, #8]
 102:Drivers/display.h **** 		dummy = SPI2->DR;
 3223              		.loc 2 102 10 view .LVU936
 3224 0534 D607     		lsls	r6, r2, #31
 3225 0536 FBD5     		bpl	.L68
 3226              		.loc 2 103 3 is_stmt 1 view .LVU937
 3227              		.loc 2 103 17 is_stmt 0 view .LVU938
 3228 0538 CD68     		ldr	r5, [r1, #12]
 3229              	.LBE1070:
 3230              	.LBE1069:
 3231              	.LBE1077:
 3232              	.LBB1078:
 3233              	.LBB1079:
 3234              	.LBB1080:
  22:Drivers/display.h **** 	}
 3235              		.loc 2 22 15 view .LVU939
 3236 053a 504E     		ldr	r6, .L260+4
 3237              	.LBE1080:
 3238              	.LBE1079:
 3239              	.LBE1078:
 3240              	.LBB1091:
 3241              	.LBB1073:
 3242              	.LBB1071:
 3243              		.loc 2 103 9 view .LVU940
 3244 053c E8B2     		uxtb	r0, r5
 3245              	.LBE1071:
 3246              	.LBE1073:
 3247              	.LBE1091:
 3248              	.LBB1092:
 3249              	.LBB1083:
 3250              	.LBB1081:
  22:Drivers/display.h **** 	}
 3251              		.loc 2 22 15 view .LVU941
 3252 053e 8023     		movs	r3, #128
 3253              	.LBE1081:
 3254              	.LBE1083:
 3255              	.LBE1092:
 3256              	.LBB1093:
 3257              	.LBB1074:
 3258              	.LBB1072:
 3259              		.loc 2 103 9 view .LVU942
 3260 0540 2070     		strb	r0, [r4]
ARM GAS  /var/folders/84/_x1cyy_j36g486tldtwl37280000gn/T//ccaJEjXT.s 			page 74


 3261              	.LVL45:
 3262              		.loc 2 103 9 view .LVU943
 3263              	.LBE1072:
 3264              	.LBE1074:
 3265              	.LBE1093:
 3266              	.LBE1103:
  41:Drivers/display.h **** 	}
 3267              		.loc 2 41 3 is_stmt 1 view .LVU944
 3268              	.LBB1104:
 3269              	.LBB1094:
 3270              	.LBI1078:
  34:Drivers/display.h **** 		cd_high();
 3271              		.loc 2 34 7 view .LVU945
 3272              	.LBE1094:
 3273              	.LBE1104:
  35:Drivers/display.h **** 		spi_write(data);
 3274              		.loc 2 35 3 view .LVU946
 3275              	.LBB1105:
 3276              	.LBB1095:
 3277              	.LBB1084:
 3278              	.LBI1079:
  21:Drivers/display.h **** 		GPIOD->BSRR = GPIO_PIN_7;
 3279              		.loc 2 21 14 view .LVU947
 3280              	.LBB1082:
  22:Drivers/display.h **** 	}
 3281              		.loc 2 22 3 view .LVU948
  22:Drivers/display.h **** 	}
 3282              		.loc 2 22 15 is_stmt 0 view .LVU949
 3283 0542 B361     		str	r3, [r6, #24]
 3284              	.L69:
  22:Drivers/display.h **** 	}
 3285              		.loc 2 22 15 view .LVU950
 3286              	.LBE1082:
 3287              	.LBE1084:
 3288              	.LBB1085:
 3289              	.LBB1086:
  99:Drivers/display.h **** 		SPI2->DR = data;
 3290              		.loc 2 99 3 is_stmt 1 view .LVU951
  99:Drivers/display.h **** 		SPI2->DR = data;
 3291              		.loc 2 99 10 view .LVU952
  99:Drivers/display.h **** 		SPI2->DR = data;
 3292              		.loc 2 99 18 is_stmt 0 view .LVU953
 3293 0544 4C4F     		ldr	r7, .L260
 3294 0546 B968     		ldr	r1, [r7, #8]
  99:Drivers/display.h **** 		SPI2->DR = data;
 3295              		.loc 2 99 10 view .LVU954
 3296 0548 8D07     		lsls	r5, r1, #30
 3297 054a FBD5     		bpl	.L69
 100:Drivers/display.h **** 
 3298              		.loc 2 100 3 is_stmt 1 view .LVU955
 100:Drivers/display.h **** 
 3299              		.loc 2 100 12 is_stmt 0 view .LVU956
 3300 054c 1722     		movs	r2, #23
 3301 054e FA60     		str	r2, [r7, #12]
 3302              	.L70:
 102:Drivers/display.h **** 		dummy = SPI2->DR;
 3303              		.loc 2 102 3 is_stmt 1 view .LVU957
ARM GAS  /var/folders/84/_x1cyy_j36g486tldtwl37280000gn/T//ccaJEjXT.s 			page 75


 102:Drivers/display.h **** 		dummy = SPI2->DR;
 3304              		.loc 2 102 10 view .LVU958
 102:Drivers/display.h **** 		dummy = SPI2->DR;
 3305              		.loc 2 102 18 is_stmt 0 view .LVU959
 3306 0550 494D     		ldr	r5, .L260
 3307 0552 AE68     		ldr	r6, [r5, #8]
 102:Drivers/display.h **** 		dummy = SPI2->DR;
 3308              		.loc 2 102 10 view .LVU960
 3309 0554 F007     		lsls	r0, r6, #31
 3310 0556 FBD5     		bpl	.L70
 3311              		.loc 2 103 3 is_stmt 1 view .LVU961
 3312              		.loc 2 103 17 is_stmt 0 view .LVU962
 3313 0558 E868     		ldr	r0, [r5, #12]
 3314              	.LBE1086:
 3315              	.LBE1085:
 3316              	.LBE1095:
 3317              	.LBE1105:
 3318              	.LBB1106:
 3319              	.LBB1107:
 3320              	.LBB1108:
 3321              	.LBB1109:
  26:Drivers/display.h **** 	}
 3322              		.loc 2 26 15 view .LVU963
 3323 055a 484F     		ldr	r7, .L260+4
 3324              	.LBE1109:
 3325              	.LBE1108:
 3326              	.LBE1107:
 3327              	.LBE1106:
 3328              	.LBB1143:
 3329              	.LBB1096:
 3330              	.LBB1089:
 3331              	.LBB1087:
 3332              		.loc 2 103 9 view .LVU964
 3333 055c C3B2     		uxtb	r3, r0
 3334              	.LBE1087:
 3335              	.LBE1089:
 3336              	.LBE1096:
 3337              	.LBE1143:
 3338              	.LBB1144:
 3339              	.LBB1120:
 3340              	.LBB1112:
 3341              	.LBB1110:
  26:Drivers/display.h **** 	}
 3342              		.loc 2 26 15 view .LVU965
 3343 055e 4FF40001 		mov	r1, #8388608
 3344              	.LBE1110:
 3345              	.LBE1112:
 3346              	.LBE1120:
 3347              	.LBE1144:
 3348              	.LBB1145:
 3349              	.LBB1097:
 3350              	.LBB1090:
 3351              	.LBB1088:
 3352              		.loc 2 103 9 view .LVU966
 3353 0562 2370     		strb	r3, [r4]
 3354              	.LVL46:
 3355              		.loc 2 103 9 view .LVU967
ARM GAS  /var/folders/84/_x1cyy_j36g486tldtwl37280000gn/T//ccaJEjXT.s 			page 76


 3356              	.LBE1088:
 3357              	.LBE1090:
 3358              	.LBE1097:
 3359              	.LBE1145:
  98:Drivers/display.cpp **** 	sendCommand(0xb6, 0x08);		// Set Second Precharge Period | 0x08 = 8 dclks
 3360              		.loc 1 98 2 is_stmt 1 view .LVU968
 3361              	.LBB1146:
 3362              	.LBI1106:
  39:Drivers/display.h **** 		sendCommand(cmd);
 3363              		.loc 2 39 7 view .LVU969
 3364              	.LBE1146:
  40:Drivers/display.h **** 		sendData(data);
 3365              		.loc 2 40 3 view .LVU970
 3366              	.LBB1147:
 3367              	.LBB1121:
 3368              	.LBI1107:
  29:Drivers/display.h **** 		cd_low();
 3369              		.loc 2 29 7 view .LVU971
 3370              	.LBE1121:
 3371              	.LBE1147:
  30:Drivers/display.h **** 		spi_write(cmd);
 3372              		.loc 2 30 3 view .LVU972
 3373              	.LBB1148:
 3374              	.LBB1122:
 3375              	.LBB1113:
 3376              	.LBI1108:
  25:Drivers/display.h **** 		GPIOD->BSRR = GPIO_PIN_7 << 16;
 3377              		.loc 2 25 14 view .LVU973
 3378              	.LBB1111:
  26:Drivers/display.h **** 	}
 3379              		.loc 2 26 3 view .LVU974
  26:Drivers/display.h **** 	}
 3380              		.loc 2 26 15 is_stmt 0 view .LVU975
 3381 0564 B961     		str	r1, [r7, #24]
 3382              	.L71:
  26:Drivers/display.h **** 	}
 3383              		.loc 2 26 15 view .LVU976
 3384              	.LBE1111:
 3385              	.LBE1113:
 3386              	.LBB1114:
 3387              	.LBB1115:
  99:Drivers/display.h **** 		SPI2->DR = data;
 3388              		.loc 2 99 3 is_stmt 1 view .LVU977
  99:Drivers/display.h **** 		SPI2->DR = data;
 3389              		.loc 2 99 10 view .LVU978
  99:Drivers/display.h **** 		SPI2->DR = data;
 3390              		.loc 2 99 18 is_stmt 0 view .LVU979
 3391 0566 444D     		ldr	r5, .L260
 3392 0568 AA68     		ldr	r2, [r5, #8]
  99:Drivers/display.h **** 		SPI2->DR = data;
 3393              		.loc 2 99 10 view .LVU980
 3394 056a 9107     		lsls	r1, r2, #30
 3395 056c FBD5     		bpl	.L71
 100:Drivers/display.h **** 
 3396              		.loc 2 100 3 is_stmt 1 view .LVU981
 100:Drivers/display.h **** 
 3397              		.loc 2 100 12 is_stmt 0 view .LVU982
ARM GAS  /var/folders/84/_x1cyy_j36g486tldtwl37280000gn/T//ccaJEjXT.s 			page 77


 3398 056e B626     		movs	r6, #182
 3399 0570 EE60     		str	r6, [r5, #12]
 3400              	.L72:
 102:Drivers/display.h **** 		dummy = SPI2->DR;
 3401              		.loc 2 102 3 is_stmt 1 view .LVU983
 102:Drivers/display.h **** 		dummy = SPI2->DR;
 3402              		.loc 2 102 10 view .LVU984
 102:Drivers/display.h **** 		dummy = SPI2->DR;
 3403              		.loc 2 102 18 is_stmt 0 view .LVU985
 3404 0572 4148     		ldr	r0, .L260
 3405 0574 8768     		ldr	r7, [r0, #8]
 102:Drivers/display.h **** 		dummy = SPI2->DR;
 3406              		.loc 2 102 10 view .LVU986
 3407 0576 FA07     		lsls	r2, r7, #31
 3408 0578 FBD5     		bpl	.L72
 3409              		.loc 2 103 3 is_stmt 1 view .LVU987
 3410              		.loc 2 103 17 is_stmt 0 view .LVU988
 3411 057a C368     		ldr	r3, [r0, #12]
 3412              	.LBE1115:
 3413              	.LBE1114:
 3414              	.LBE1122:
 3415              	.LBB1123:
 3416              	.LBB1124:
 3417              	.LBB1125:
  22:Drivers/display.h **** 	}
 3418              		.loc 2 22 15 view .LVU989
 3419 057c 3F4D     		ldr	r5, .L260+4
 3420              	.LBE1125:
 3421              	.LBE1124:
 3422              	.LBE1123:
 3423              	.LBB1136:
 3424              	.LBB1118:
 3425              	.LBB1116:
 3426              		.loc 2 103 9 view .LVU990
 3427 057e DAB2     		uxtb	r2, r3
 3428              	.LBE1116:
 3429              	.LBE1118:
 3430              	.LBE1136:
 3431              	.LBB1137:
 3432              	.LBB1128:
 3433              	.LBB1126:
  22:Drivers/display.h **** 	}
 3434              		.loc 2 22 15 view .LVU991
 3435 0580 8021     		movs	r1, #128
 3436              	.LBE1126:
 3437              	.LBE1128:
 3438              	.LBE1137:
 3439              	.LBB1138:
 3440              	.LBB1119:
 3441              	.LBB1117:
 3442              		.loc 2 103 9 view .LVU992
 3443 0582 2270     		strb	r2, [r4]
 3444              	.LVL47:
 3445              		.loc 2 103 9 view .LVU993
 3446              	.LBE1117:
 3447              	.LBE1119:
 3448              	.LBE1138:
ARM GAS  /var/folders/84/_x1cyy_j36g486tldtwl37280000gn/T//ccaJEjXT.s 			page 78


 3449              	.LBE1148:
  41:Drivers/display.h **** 	}
 3450              		.loc 2 41 3 is_stmt 1 view .LVU994
 3451              	.LBB1149:
 3452              	.LBB1139:
 3453              	.LBI1123:
  34:Drivers/display.h **** 		cd_high();
 3454              		.loc 2 34 7 view .LVU995
 3455              	.LBE1139:
 3456              	.LBE1149:
  35:Drivers/display.h **** 		spi_write(data);
 3457              		.loc 2 35 3 view .LVU996
 3458              	.LBB1150:
 3459              	.LBB1140:
 3460              	.LBB1129:
 3461              	.LBI1124:
  21:Drivers/display.h **** 		GPIOD->BSRR = GPIO_PIN_7;
 3462              		.loc 2 21 14 view .LVU997
 3463              	.LBB1127:
  22:Drivers/display.h **** 	}
 3464              		.loc 2 22 3 view .LVU998
  22:Drivers/display.h **** 	}
 3465              		.loc 2 22 15 is_stmt 0 view .LVU999
 3466 0584 A961     		str	r1, [r5, #24]
 3467              	.L73:
  22:Drivers/display.h **** 	}
 3468              		.loc 2 22 15 view .LVU1000
 3469              	.LBE1127:
 3470              	.LBE1129:
 3471              	.LBB1130:
 3472              	.LBB1131:
  99:Drivers/display.h **** 		SPI2->DR = data;
 3473              		.loc 2 99 3 is_stmt 1 view .LVU1001
  99:Drivers/display.h **** 		SPI2->DR = data;
 3474              		.loc 2 99 10 view .LVU1002
  99:Drivers/display.h **** 		SPI2->DR = data;
 3475              		.loc 2 99 18 is_stmt 0 view .LVU1003
 3476 0586 3C4E     		ldr	r6, .L260
 3477 0588 B068     		ldr	r0, [r6, #8]
  99:Drivers/display.h **** 		SPI2->DR = data;
 3478              		.loc 2 99 10 view .LVU1004
 3479 058a 8707     		lsls	r7, r0, #30
 3480 058c FBD5     		bpl	.L73
 100:Drivers/display.h **** 
 3481              		.loc 2 100 3 is_stmt 1 view .LVU1005
 100:Drivers/display.h **** 
 3482              		.loc 2 100 12 is_stmt 0 view .LVU1006
 3483 058e 0827     		movs	r7, #8
 3484 0590 F760     		str	r7, [r6, #12]
 3485              	.L74:
 102:Drivers/display.h **** 		dummy = SPI2->DR;
 3486              		.loc 2 102 3 is_stmt 1 view .LVU1007
 102:Drivers/display.h **** 		dummy = SPI2->DR;
 3487              		.loc 2 102 10 view .LVU1008
 102:Drivers/display.h **** 		dummy = SPI2->DR;
 3488              		.loc 2 102 18 is_stmt 0 view .LVU1009
 3489 0592 394B     		ldr	r3, .L260
ARM GAS  /var/folders/84/_x1cyy_j36g486tldtwl37280000gn/T//ccaJEjXT.s 			page 79


 3490 0594 9D68     		ldr	r5, [r3, #8]
 102:Drivers/display.h **** 		dummy = SPI2->DR;
 3491              		.loc 2 102 10 view .LVU1010
 3492 0596 EE07     		lsls	r6, r5, #31
 3493 0598 FBD5     		bpl	.L74
 3494              		.loc 2 103 3 is_stmt 1 view .LVU1011
 3495              		.loc 2 103 17 is_stmt 0 view .LVU1012
 3496 059a D968     		ldr	r1, [r3, #12]
 3497              	.LBE1131:
 3498              	.LBE1130:
 3499              	.LBE1140:
 3500              	.LBE1150:
 3501              	.LBB1151:
 3502              	.LBB1152:
 3503              	.LBB1153:
 3504              	.LBB1154:
  26:Drivers/display.h **** 	}
 3505              		.loc 2 26 15 view .LVU1013
 3506 059c 374A     		ldr	r2, .L260+4
 3507              	.LBE1154:
 3508              	.LBE1153:
 3509              	.LBE1152:
 3510              	.LBE1151:
 3511              	.LBB1188:
 3512              	.LBB1141:
 3513              	.LBB1134:
 3514              	.LBB1132:
 3515              		.loc 2 103 9 view .LVU1014
 3516 059e CEB2     		uxtb	r6, r1
 3517              	.LBE1132:
 3518              	.LBE1134:
 3519              	.LBE1141:
 3520              	.LBE1188:
 3521              	.LBB1189:
 3522              	.LBB1165:
 3523              	.LBB1157:
 3524              	.LBB1155:
  26:Drivers/display.h **** 	}
 3525              		.loc 2 26 15 view .LVU1015
 3526 05a0 4FF40000 		mov	r0, #8388608
 3527              	.LBE1155:
 3528              	.LBE1157:
 3529              	.LBE1165:
 3530              	.LBE1189:
 3531              	.LBB1190:
 3532              	.LBB1142:
 3533              	.LBB1135:
 3534              	.LBB1133:
 3535              		.loc 2 103 9 view .LVU1016
 3536 05a4 2670     		strb	r6, [r4]
 3537              	.LVL48:
 3538              		.loc 2 103 9 view .LVU1017
 3539              	.LBE1133:
 3540              	.LBE1135:
 3541              	.LBE1142:
 3542              	.LBE1190:
  99:Drivers/display.cpp **** 	sendCommand(0xbe, 0x07);		// Set VCOMH | 0x07 = = 0.86 x VCC
ARM GAS  /var/folders/84/_x1cyy_j36g486tldtwl37280000gn/T//ccaJEjXT.s 			page 80


 3543              		.loc 1 99 2 is_stmt 1 view .LVU1018
 3544              	.LBB1191:
 3545              	.LBI1151:
  39:Drivers/display.h **** 		sendCommand(cmd);
 3546              		.loc 2 39 7 view .LVU1019
 3547              	.LBE1191:
  40:Drivers/display.h **** 		sendData(data);
 3548              		.loc 2 40 3 view .LVU1020
 3549              	.LBB1192:
 3550              	.LBB1166:
 3551              	.LBI1152:
  29:Drivers/display.h **** 		cd_low();
 3552              		.loc 2 29 7 view .LVU1021
 3553              	.LBE1166:
 3554              	.LBE1192:
  30:Drivers/display.h **** 		spi_write(cmd);
 3555              		.loc 2 30 3 view .LVU1022
 3556              	.LBB1193:
 3557              	.LBB1167:
 3558              	.LBB1158:
 3559              	.LBI1153:
  25:Drivers/display.h **** 		GPIOD->BSRR = GPIO_PIN_7 << 16;
 3560              		.loc 2 25 14 view .LVU1023
 3561              	.LBB1156:
  26:Drivers/display.h **** 	}
 3562              		.loc 2 26 3 view .LVU1024
  26:Drivers/display.h **** 	}
 3563              		.loc 2 26 15 is_stmt 0 view .LVU1025
 3564 05a6 9061     		str	r0, [r2, #24]
 3565              	.L75:
  26:Drivers/display.h **** 	}
 3566              		.loc 2 26 15 view .LVU1026
 3567              	.LBE1156:
 3568              	.LBE1158:
 3569              	.LBB1159:
 3570              	.LBB1160:
  99:Drivers/display.h **** 		SPI2->DR = data;
 3571              		.loc 2 99 3 is_stmt 1 view .LVU1027
  99:Drivers/display.h **** 		SPI2->DR = data;
 3572              		.loc 2 99 10 view .LVU1028
  99:Drivers/display.h **** 		SPI2->DR = data;
 3573              		.loc 2 99 18 is_stmt 0 view .LVU1029
 3574 05a8 334F     		ldr	r7, .L260
 3575 05aa BB68     		ldr	r3, [r7, #8]
  99:Drivers/display.h **** 		SPI2->DR = data;
 3576              		.loc 2 99 10 view .LVU1030
 3577 05ac 9D07     		lsls	r5, r3, #30
 3578 05ae FBD5     		bpl	.L75
 100:Drivers/display.h **** 
 3579              		.loc 2 100 3 is_stmt 1 view .LVU1031
 100:Drivers/display.h **** 
 3580              		.loc 2 100 12 is_stmt 0 view .LVU1032
 3581 05b0 BE25     		movs	r5, #190
 3582 05b2 FD60     		str	r5, [r7, #12]
 3583              	.L76:
 102:Drivers/display.h **** 		dummy = SPI2->DR;
 3584              		.loc 2 102 3 is_stmt 1 view .LVU1033
ARM GAS  /var/folders/84/_x1cyy_j36g486tldtwl37280000gn/T//ccaJEjXT.s 			page 81


 102:Drivers/display.h **** 		dummy = SPI2->DR;
 3585              		.loc 2 102 10 view .LVU1034
 102:Drivers/display.h **** 		dummy = SPI2->DR;
 3586              		.loc 2 102 18 is_stmt 0 view .LVU1035
 3587 05b4 3049     		ldr	r1, .L260
 3588 05b6 8A68     		ldr	r2, [r1, #8]
 102:Drivers/display.h **** 		dummy = SPI2->DR;
 3589              		.loc 2 102 10 view .LVU1036
 3590 05b8 D007     		lsls	r0, r2, #31
 3591 05ba FBD5     		bpl	.L76
 3592              		.loc 2 103 3 is_stmt 1 view .LVU1037
 3593              		.loc 2 103 17 is_stmt 0 view .LVU1038
 3594 05bc CE68     		ldr	r6, [r1, #12]
 3595              	.LBE1160:
 3596              	.LBE1159:
 3597              	.LBE1167:
 3598              	.LBB1168:
 3599              	.LBB1169:
 3600              	.LBB1170:
  22:Drivers/display.h **** 	}
 3601              		.loc 2 22 15 view .LVU1039
 3602 05be 2F48     		ldr	r0, .L260+4
 3603              	.LBE1170:
 3604              	.LBE1169:
 3605              	.LBE1168:
 3606              	.LBB1181:
 3607              	.LBB1163:
 3608              	.LBB1161:
 3609              		.loc 2 103 9 view .LVU1040
 3610 05c0 F7B2     		uxtb	r7, r6
 3611              	.LBE1161:
 3612              	.LBE1163:
 3613              	.LBE1181:
 3614              	.LBB1182:
 3615              	.LBB1173:
 3616              	.LBB1171:
  22:Drivers/display.h **** 	}
 3617              		.loc 2 22 15 view .LVU1041
 3618 05c2 8023     		movs	r3, #128
 3619              	.LBE1171:
 3620              	.LBE1173:
 3621              	.LBE1182:
 3622              	.LBB1183:
 3623              	.LBB1164:
 3624              	.LBB1162:
 3625              		.loc 2 103 9 view .LVU1042
 3626 05c4 2770     		strb	r7, [r4]
 3627              	.LVL49:
 3628              		.loc 2 103 9 view .LVU1043
 3629              	.LBE1162:
 3630              	.LBE1164:
 3631              	.LBE1183:
 3632              	.LBE1193:
  41:Drivers/display.h **** 	}
 3633              		.loc 2 41 3 is_stmt 1 view .LVU1044
 3634              	.LBB1194:
 3635              	.LBB1184:
ARM GAS  /var/folders/84/_x1cyy_j36g486tldtwl37280000gn/T//ccaJEjXT.s 			page 82


 3636              	.LBI1168:
  34:Drivers/display.h **** 		cd_high();
 3637              		.loc 2 34 7 view .LVU1045
 3638              	.LBE1184:
 3639              	.LBE1194:
  35:Drivers/display.h **** 		spi_write(data);
 3640              		.loc 2 35 3 view .LVU1046
 3641              	.LBB1195:
 3642              	.LBB1185:
 3643              	.LBB1174:
 3644              	.LBI1169:
  21:Drivers/display.h **** 		GPIOD->BSRR = GPIO_PIN_7;
 3645              		.loc 2 21 14 view .LVU1047
 3646              	.LBB1172:
  22:Drivers/display.h **** 	}
 3647              		.loc 2 22 3 view .LVU1048
  22:Drivers/display.h **** 	}
 3648              		.loc 2 22 15 is_stmt 0 view .LVU1049
 3649 05c6 8361     		str	r3, [r0, #24]
 3650              	.L77:
  22:Drivers/display.h **** 	}
 3651              		.loc 2 22 15 view .LVU1050
 3652              	.LBE1172:
 3653              	.LBE1174:
 3654              	.LBB1175:
 3655              	.LBB1176:
  99:Drivers/display.h **** 		SPI2->DR = data;
 3656              		.loc 2 99 3 is_stmt 1 view .LVU1051
  99:Drivers/display.h **** 		SPI2->DR = data;
 3657              		.loc 2 99 10 view .LVU1052
  99:Drivers/display.h **** 		SPI2->DR = data;
 3658              		.loc 2 99 18 is_stmt 0 view .LVU1053
 3659 05c8 2B4D     		ldr	r5, .L260
 3660 05ca A968     		ldr	r1, [r5, #8]
  99:Drivers/display.h **** 		SPI2->DR = data;
 3661              		.loc 2 99 10 view .LVU1054
 3662 05cc 8907     		lsls	r1, r1, #30
 3663 05ce FBD5     		bpl	.L77
 100:Drivers/display.h **** 
 3664              		.loc 2 100 3 is_stmt 1 view .LVU1055
 100:Drivers/display.h **** 
 3665              		.loc 2 100 12 is_stmt 0 view .LVU1056
 3666 05d0 0722     		movs	r2, #7
 3667 05d2 EA60     		str	r2, [r5, #12]
 3668              	.L78:
 102:Drivers/display.h **** 		dummy = SPI2->DR;
 3669              		.loc 2 102 3 is_stmt 1 view .LVU1057
 102:Drivers/display.h **** 		dummy = SPI2->DR;
 3670              		.loc 2 102 10 view .LVU1058
 102:Drivers/display.h **** 		dummy = SPI2->DR;
 3671              		.loc 2 102 18 is_stmt 0 view .LVU1059
 3672 05d4 284E     		ldr	r6, .L260
 3673 05d6 B068     		ldr	r0, [r6, #8]
 102:Drivers/display.h **** 		dummy = SPI2->DR;
 3674              		.loc 2 102 10 view .LVU1060
 3675 05d8 C207     		lsls	r2, r0, #31
 3676 05da FBD5     		bpl	.L78
ARM GAS  /var/folders/84/_x1cyy_j36g486tldtwl37280000gn/T//ccaJEjXT.s 			page 83


 3677              		.loc 2 103 3 is_stmt 1 view .LVU1061
 3678              		.loc 2 103 17 is_stmt 0 view .LVU1062
 3679 05dc F768     		ldr	r7, [r6, #12]
 3680              	.LBE1176:
 3681              	.LBE1175:
 3682              	.LBE1185:
 3683              	.LBE1195:
 3684              	.LBB1196:
 3685              	.LBB1197:
 3686              	.LBB1198:
  26:Drivers/display.h **** 	}
 3687              		.loc 2 26 15 view .LVU1063
 3688 05de 274D     		ldr	r5, .L260+4
 3689              	.LBE1198:
 3690              	.LBE1197:
 3691              	.LBE1196:
 3692              	.LBB1209:
 3693              	.LBB1186:
 3694              	.LBB1179:
 3695              	.LBB1177:
 3696              		.loc 2 103 9 view .LVU1064
 3697 05e0 FBB2     		uxtb	r3, r7
 3698              	.LBE1177:
 3699              	.LBE1179:
 3700              	.LBE1186:
 3701              	.LBE1209:
 3702              	.LBB1210:
 3703              	.LBB1201:
 3704              	.LBB1199:
  26:Drivers/display.h **** 	}
 3705              		.loc 2 26 15 view .LVU1065
 3706 05e2 4FF40001 		mov	r1, #8388608
 3707              	.LBE1199:
 3708              	.LBE1201:
 3709              	.LBE1210:
 3710              	.LBB1211:
 3711              	.LBB1187:
 3712              	.LBB1180:
 3713              	.LBB1178:
 3714              		.loc 2 103 9 view .LVU1066
 3715 05e6 2370     		strb	r3, [r4]
 3716              	.LVL50:
 3717              		.loc 2 103 9 view .LVU1067
 3718              	.LBE1178:
 3719              	.LBE1180:
 3720              	.LBE1187:
 3721              	.LBE1211:
 100:Drivers/display.cpp **** 	sendCommand(0xa6);				// Set Display Mode = Normal Display
 3722              		.loc 1 100 2 is_stmt 1 view .LVU1068
 3723              	.LBB1212:
 3724              	.LBI1196:
  29:Drivers/display.h **** 		cd_low();
 3725              		.loc 2 29 7 view .LVU1069
 3726              	.LBE1212:
  30:Drivers/display.h **** 		spi_write(cmd);
 3727              		.loc 2 30 3 view .LVU1070
 3728              	.LBB1213:
ARM GAS  /var/folders/84/_x1cyy_j36g486tldtwl37280000gn/T//ccaJEjXT.s 			page 84


 3729              	.LBB1202:
 3730              	.LBI1197:
  25:Drivers/display.h **** 		GPIOD->BSRR = GPIO_PIN_7 << 16;
 3731              		.loc 2 25 14 view .LVU1071
 3732              	.LBB1200:
  26:Drivers/display.h **** 	}
 3733              		.loc 2 26 3 view .LVU1072
  26:Drivers/display.h **** 	}
 3734              		.loc 2 26 15 is_stmt 0 view .LVU1073
 3735 05e8 A961     		str	r1, [r5, #24]
 3736              	.L79:
  26:Drivers/display.h **** 	}
 3737              		.loc 2 26 15 view .LVU1074
 3738              	.LBE1200:
 3739              	.LBE1202:
 3740              	.LBB1203:
 3741              	.LBB1204:
  99:Drivers/display.h **** 		SPI2->DR = data;
 3742              		.loc 2 99 3 is_stmt 1 view .LVU1075
  99:Drivers/display.h **** 		SPI2->DR = data;
 3743              		.loc 2 99 10 view .LVU1076
  99:Drivers/display.h **** 		SPI2->DR = data;
 3744              		.loc 2 99 18 is_stmt 0 view .LVU1077
 3745 05ea 234E     		ldr	r6, .L260
 3746 05ec B268     		ldr	r2, [r6, #8]
  99:Drivers/display.h **** 		SPI2->DR = data;
 3747              		.loc 2 99 10 view .LVU1078
 3748 05ee 9707     		lsls	r7, r2, #30
 3749 05f0 FBD5     		bpl	.L79
 100:Drivers/display.h **** 
 3750              		.loc 2 100 3 is_stmt 1 view .LVU1079
 100:Drivers/display.h **** 
 3751              		.loc 2 100 12 is_stmt 0 view .LVU1080
 3752 05f2 A620     		movs	r0, #166
 3753 05f4 F060     		str	r0, [r6, #12]
 3754              	.L80:
 102:Drivers/display.h **** 		dummy = SPI2->DR;
 3755              		.loc 2 102 3 is_stmt 1 view .LVU1081
 102:Drivers/display.h **** 		dummy = SPI2->DR;
 3756              		.loc 2 102 10 view .LVU1082
 102:Drivers/display.h **** 		dummy = SPI2->DR;
 3757              		.loc 2 102 18 is_stmt 0 view .LVU1083
 3758 05f6 204F     		ldr	r7, .L260
 3759 05f8 BD68     		ldr	r5, [r7, #8]
 102:Drivers/display.h **** 		dummy = SPI2->DR;
 3760              		.loc 2 102 10 view .LVU1084
 3761 05fa EE07     		lsls	r6, r5, #31
 3762 05fc FBD5     		bpl	.L80
 3763              		.loc 2 103 3 is_stmt 1 view .LVU1085
 3764              		.loc 2 103 17 is_stmt 0 view .LVU1086
 3765 05fe FB68     		ldr	r3, [r7, #12]
 3766              	.LBE1204:
 3767              	.LBE1203:
 3768              	.LBE1213:
 3769              	.LBB1214:
 3770              	.LBB1215:
 3771              	.LBB1216:
ARM GAS  /var/folders/84/_x1cyy_j36g486tldtwl37280000gn/T//ccaJEjXT.s 			page 85


  26:Drivers/display.h **** 	}
 3772              		.loc 2 26 15 view .LVU1087
 3773 0600 1E4E     		ldr	r6, .L260+4
 3774              	.LBE1216:
 3775              	.LBE1215:
 3776              	.LBE1214:
 3777              	.LBB1225:
 3778              	.LBB1207:
 3779              	.LBB1205:
 3780              		.loc 2 103 9 view .LVU1088
 3781 0602 DAB2     		uxtb	r2, r3
 3782              	.LBE1205:
 3783              	.LBE1207:
 3784              	.LBE1225:
 3785              	.LBB1226:
 3786              	.LBB1219:
 3787              	.LBB1217:
  26:Drivers/display.h **** 	}
 3788              		.loc 2 26 15 view .LVU1089
 3789 0604 4FF40001 		mov	r1, #8388608
 3790              	.LBE1217:
 3791              	.LBE1219:
 3792              	.LBE1226:
 3793              	.LBB1227:
 3794              	.LBB1208:
 3795              	.LBB1206:
 3796              		.loc 2 103 9 view .LVU1090
 3797 0608 2270     		strb	r2, [r4]
 3798              	.LVL51:
 3799              		.loc 2 103 9 view .LVU1091
 3800              	.LBE1206:
 3801              	.LBE1208:
 3802              	.LBE1227:
 101:Drivers/display.cpp **** 	sendCommand(0xa9);				// Exit Partial Display
 3803              		.loc 1 101 2 is_stmt 1 view .LVU1092
 3804              	.LBB1228:
 3805              	.LBI1214:
  29:Drivers/display.h **** 		cd_low();
 3806              		.loc 2 29 7 view .LVU1093
 3807              	.LBE1228:
  30:Drivers/display.h **** 		spi_write(cmd);
 3808              		.loc 2 30 3 view .LVU1094
 3809              	.LBB1229:
 3810              	.LBB1220:
 3811              	.LBI1215:
  25:Drivers/display.h **** 		GPIOD->BSRR = GPIO_PIN_7 << 16;
 3812              		.loc 2 25 14 view .LVU1095
 3813              	.LBB1218:
  26:Drivers/display.h **** 	}
 3814              		.loc 2 26 3 view .LVU1096
  26:Drivers/display.h **** 	}
 3815              		.loc 2 26 15 is_stmt 0 view .LVU1097
 3816 060a B161     		str	r1, [r6, #24]
 3817              	.L81:
  26:Drivers/display.h **** 	}
 3818              		.loc 2 26 15 view .LVU1098
 3819              	.LBE1218:
ARM GAS  /var/folders/84/_x1cyy_j36g486tldtwl37280000gn/T//ccaJEjXT.s 			page 86


 3820              	.LBE1220:
 3821              	.LBB1221:
 3822              	.LBB1222:
  99:Drivers/display.h **** 		SPI2->DR = data;
 3823              		.loc 2 99 3 is_stmt 1 view .LVU1099
  99:Drivers/display.h **** 		SPI2->DR = data;
 3824              		.loc 2 99 10 view .LVU1100
  99:Drivers/display.h **** 		SPI2->DR = data;
 3825              		.loc 2 99 18 is_stmt 0 view .LVU1101
 3826 060c 1A48     		ldr	r0, .L260
 3827 060e 8768     		ldr	r7, [r0, #8]
  99:Drivers/display.h **** 		SPI2->DR = data;
 3828              		.loc 2 99 10 view .LVU1102
 3829 0610 BD07     		lsls	r5, r7, #30
 3830 0612 FBD5     		bpl	.L81
 100:Drivers/display.h **** 
 3831              		.loc 2 100 3 is_stmt 1 view .LVU1103
 100:Drivers/display.h **** 
 3832              		.loc 2 100 12 is_stmt 0 view .LVU1104
 3833 0614 A925     		movs	r5, #169
 3834 0616 C560     		str	r5, [r0, #12]
 3835              	.L82:
 102:Drivers/display.h **** 		dummy = SPI2->DR;
 3836              		.loc 2 102 3 is_stmt 1 view .LVU1105
 102:Drivers/display.h **** 		dummy = SPI2->DR;
 3837              		.loc 2 102 10 view .LVU1106
 102:Drivers/display.h **** 		dummy = SPI2->DR;
 3838              		.loc 2 102 18 is_stmt 0 view .LVU1107
 3839 0618 174B     		ldr	r3, .L260
 3840 061a 9E68     		ldr	r6, [r3, #8]
 102:Drivers/display.h **** 		dummy = SPI2->DR;
 3841              		.loc 2 102 10 view .LVU1108
 3842 061c F007     		lsls	r0, r6, #31
 3843 061e FBD5     		bpl	.L82
 3844              		.loc 2 103 3 is_stmt 1 view .LVU1109
 3845              		.loc 2 103 17 is_stmt 0 view .LVU1110
 3846 0620 D968     		ldr	r1, [r3, #12]
 3847              	.LBE1222:
 3848              	.LBE1221:
 3849              	.LBE1229:
 3850              	.LBB1230:
 3851              	.LBB1231:
 3852              	.LBB1232:
 3853              	.LBB1233:
  12:Drivers/micros.h **** 	}
 3854              		.loc 3 12 16 view .LVU1111
 3855 0622 174A     		ldr	r2, .L260+8
 3856              	.LBE1233:
 3857              	.LBE1232:
 3858              	.LBE1231:
 3859              	.LBE1230:
 3860              	.LBB1239:
 3861              	.LBB1224:
 3862              	.LBB1223:
 3863              		.loc 2 103 9 view .LVU1112
 3864 0624 C8B2     		uxtb	r0, r1
 3865 0626 2070     		strb	r0, [r4]
ARM GAS  /var/folders/84/_x1cyy_j36g486tldtwl37280000gn/T//ccaJEjXT.s 			page 87


 3866              	.LVL52:
 3867              		.loc 2 103 9 view .LVU1113
 3868              	.LBE1223:
 3869              	.LBE1224:
 3870              	.LBE1239:
 102:Drivers/display.cpp **** 	micros.delay(10 * 1000);
 3871              		.loc 1 102 2 is_stmt 1 view .LVU1114
 3872              	.LBB1240:
 3873              	.LBI1230:
  15:Drivers/micros.h **** 		uint32_t start = read();
 3874              		.loc 3 15 7 view .LVU1115
 3875              	.LBB1238:
  16:Drivers/micros.h **** 		while (static_cast<uint32_t>(read() - start) < us);
 3876              		.loc 3 16 3 view .LVU1116
 3877              	.LBB1235:
 3878              	.LBI1232:
  11:Drivers/micros.h **** 		return TIM5->CNT;
 3879              		.loc 3 11 27 view .LVU1117
 3880              	.LBB1234:
  12:Drivers/micros.h **** 	}
 3881              		.loc 3 12 3 view .LVU1118
  12:Drivers/micros.h **** 	}
 3882              		.loc 3 12 16 is_stmt 0 view .LVU1119
 3883 0628 576A     		ldr	r7, [r2, #36]
 3884              	.LVL53:
 3885              	.L83:
  12:Drivers/micros.h **** 	}
 3886              		.loc 3 12 16 view .LVU1120
 3887              	.LBE1234:
 3888              	.LBE1235:
 3889              		.loc 3 17 3 is_stmt 1 view .LVU1121
 3890              		.loc 3 17 48 view .LVU1122
 3891              	.LBB1236:
 3892              	.LBI1236:
  11:Drivers/micros.h **** 		return TIM5->CNT;
 3893              		.loc 3 11 27 view .LVU1123
 3894              	.LBB1237:
  12:Drivers/micros.h **** 	}
 3895              		.loc 3 12 3 view .LVU1124
  12:Drivers/micros.h **** 	}
 3896              		.loc 3 12 16 is_stmt 0 view .LVU1125
 3897 062a 154D     		ldr	r5, .L260+8
 3898 062c 6B6A     		ldr	r3, [r5, #36]
 3899              	.LBE1237:
 3900              	.LBE1236:
 3901              		.loc 3 17 48 view .LVU1126
 3902 062e 42F20F76 		movw	r6, #9999
 3903              		.loc 3 17 39 view .LVU1127
 3904 0632 D91B     		subs	r1, r3, r7
 3905              		.loc 3 17 48 view .LVU1128
 3906 0634 B142     		cmp	r1, r6
 3907 0636 F8D9     		bls	.L83
 3908              	.LVL54:
 3909              		.loc 3 17 48 view .LVU1129
 3910              	.LBE1238:
 3911              	.LBE1240:
 103:Drivers/display.cpp **** 	sendCommand(0xaf);				// Set Sleep mode OFF (Display ON),
ARM GAS  /var/folders/84/_x1cyy_j36g486tldtwl37280000gn/T//ccaJEjXT.s 			page 88


 3912              		.loc 1 103 2 is_stmt 1 view .LVU1130
 3913              	.LBB1241:
 3914              	.LBI1241:
  29:Drivers/display.h **** 		cd_low();
 3915              		.loc 2 29 7 view .LVU1131
 3916              	.LBE1241:
  30:Drivers/display.h **** 		spi_write(cmd);
 3917              		.loc 2 30 3 view .LVU1132
 3918              	.LBB1248:
 3919              	.LBB1242:
 3920              	.LBI1242:
  25:Drivers/display.h **** 		GPIOD->BSRR = GPIO_PIN_7 << 16;
 3921              		.loc 2 25 14 view .LVU1133
 3922              	.LBB1243:
  26:Drivers/display.h **** 	}
 3923              		.loc 2 26 3 view .LVU1134
  26:Drivers/display.h **** 	}
 3924              		.loc 2 26 15 is_stmt 0 view .LVU1135
 3925 0638 1048     		ldr	r0, .L260+4
 3926 063a 4FF40002 		mov	r2, #8388608
 3927 063e 8261     		str	r2, [r0, #24]
 3928              	.L84:
  26:Drivers/display.h **** 	}
 3929              		.loc 2 26 15 view .LVU1136
 3930              	.LBE1243:
 3931              	.LBE1242:
 3932              	.LBB1244:
 3933              	.LBB1245:
  99:Drivers/display.h **** 		SPI2->DR = data;
 3934              		.loc 2 99 3 is_stmt 1 view .LVU1137
  99:Drivers/display.h **** 		SPI2->DR = data;
 3935              		.loc 2 99 10 view .LVU1138
  99:Drivers/display.h **** 		SPI2->DR = data;
 3936              		.loc 2 99 18 is_stmt 0 view .LVU1139
 3937 0640 0D4F     		ldr	r7, .L260
 3938 0642 BD68     		ldr	r5, [r7, #8]
  99:Drivers/display.h **** 		SPI2->DR = data;
 3939              		.loc 2 99 10 view .LVU1140
 3940 0644 A907     		lsls	r1, r5, #30
 3941 0646 FBD5     		bpl	.L84
 100:Drivers/display.h **** 
 3942              		.loc 2 100 3 is_stmt 1 view .LVU1141
 100:Drivers/display.h **** 
 3943              		.loc 2 100 12 is_stmt 0 view .LVU1142
 3944 0648 AF23     		movs	r3, #175
 3945 064a FB60     		str	r3, [r7, #12]
 3946              	.L85:
 102:Drivers/display.h **** 		dummy = SPI2->DR;
 3947              		.loc 2 102 3 is_stmt 1 view .LVU1143
 102:Drivers/display.h **** 		dummy = SPI2->DR;
 3948              		.loc 2 102 10 view .LVU1144
 102:Drivers/display.h **** 		dummy = SPI2->DR;
 3949              		.loc 2 102 18 is_stmt 0 view .LVU1145
 3950 064c 0A4E     		ldr	r6, .L260
 3951 064e B168     		ldr	r1, [r6, #8]
 102:Drivers/display.h **** 		dummy = SPI2->DR;
 3952              		.loc 2 102 10 view .LVU1146
ARM GAS  /var/folders/84/_x1cyy_j36g486tldtwl37280000gn/T//ccaJEjXT.s 			page 89


 3953 0650 CA07     		lsls	r2, r1, #31
 3954 0652 FBD5     		bpl	.L85
 3955              		.loc 2 103 3 is_stmt 1 view .LVU1147
 3956              		.loc 2 103 17 is_stmt 0 view .LVU1148
 3957 0654 F068     		ldr	r0, [r6, #12]
 3958              	.LBE1245:
 3959              	.LBE1244:
 3960              	.LBE1248:
 3961              	.LBB1249:
 3962              	.LBB1250:
 3963              	.LBB1251:
 3964              	.LBB1252:
  12:Drivers/micros.h **** 	}
 3965              		.loc 3 12 16 view .LVU1149
 3966 0656 0A4A     		ldr	r2, .L260+8
 3967              	.LBE1252:
 3968              	.LBE1251:
 3969              	.LBE1250:
 3970              	.LBE1249:
 3971              	.LBB1258:
 3972              	.LBB1247:
 3973              	.LBB1246:
 3974              		.loc 2 103 9 view .LVU1150
 3975 0658 C7B2     		uxtb	r7, r0
 3976 065a 2770     		strb	r7, [r4]
 3977              	.LVL55:
 3978              		.loc 2 103 9 view .LVU1151
 3979              	.LBE1246:
 3980              	.LBE1247:
 3981              	.LBE1258:
 104:Drivers/display.cpp **** 	micros.delay(50 * 1000);
 3982              		.loc 1 104 2 is_stmt 1 view .LVU1152
 3983              	.LBB1259:
 3984              	.LBI1249:
  15:Drivers/micros.h **** 		uint32_t start = read();
 3985              		.loc 3 15 7 view .LVU1153
 3986              	.LBB1257:
  16:Drivers/micros.h **** 		while (static_cast<uint32_t>(read() - start) < us);
 3987              		.loc 3 16 3 view .LVU1154
 3988              	.LBB1254:
 3989              	.LBI1251:
  11:Drivers/micros.h **** 		return TIM5->CNT;
 3990              		.loc 3 11 27 view .LVU1155
 3991              	.LBB1253:
  12:Drivers/micros.h **** 	}
 3992              		.loc 3 12 3 view .LVU1156
  12:Drivers/micros.h **** 	}
 3993              		.loc 3 12 16 is_stmt 0 view .LVU1157
 3994 065c 546A     		ldr	r4, [r2, #36]
 3995              	.LVL56:
 3996              	.L86:
  12:Drivers/micros.h **** 	}
 3997              		.loc 3 12 16 view .LVU1158
 3998              	.LBE1253:
 3999              	.LBE1254:
 4000              		.loc 3 17 3 is_stmt 1 view .LVU1159
 4001              		.loc 3 17 48 view .LVU1160
ARM GAS  /var/folders/84/_x1cyy_j36g486tldtwl37280000gn/T//ccaJEjXT.s 			page 90


 4002              	.LBB1255:
 4003              	.LBI1255:
  11:Drivers/micros.h **** 		return TIM5->CNT;
 4004              		.loc 3 11 27 view .LVU1161
 4005              	.LBB1256:
  12:Drivers/micros.h **** 	}
 4006              		.loc 3 12 3 view .LVU1162
  12:Drivers/micros.h **** 	}
 4007              		.loc 3 12 16 is_stmt 0 view .LVU1163
 4008 065e 084D     		ldr	r5, .L260+8
 4009 0660 6B6A     		ldr	r3, [r5, #36]
 4010              	.LBE1256:
 4011              	.LBE1255:
 4012              		.loc 3 17 48 view .LVU1164
 4013 0662 4CF24F36 		movw	r6, #49999
 4014              		.loc 3 17 39 view .LVU1165
 4015 0666 191B     		subs	r1, r3, r4
 4016              		.loc 3 17 48 view .LVU1166
 4017 0668 B142     		cmp	r1, r6
 4018 066a F8D9     		bls	.L86
 4019              	.LVL57:
 4020              		.loc 3 17 48 view .LVU1167
 4021              	.LBE1257:
 4022              	.LBE1259:
 105:Drivers/display.cpp **** 
 106:Drivers/display.cpp **** 	// Start dma interrupt
 107:Drivers/display.cpp **** 	HAL_NVIC_EnableIRQ(DMA1_Stream4_IRQn);
 4023              		.loc 1 107 2 is_stmt 1 view .LVU1168
 4024              		.loc 1 107 20 is_stmt 0 view .LVU1169
 4025 066c 0F20     		movs	r0, #15
 4026 066e FFF7FEFF 		bl	HAL_NVIC_EnableIRQ
 4027              	.LVL58:
 108:Drivers/display.cpp **** }
 4028              		.loc 1 108 1 view .LVU1170
 4029 0672 1CB0     		add	sp, sp, #112
 4030              		.cfi_def_cfa_offset 24
 4031              		@ sp needed
 4032 0674 BDE8F081 		pop	{r4, r5, r6, r7, r8, pc}
 4033              	.L261:
 4034              		.align	2
 4035              	.L260:
 4036 0678 00380040 		.word	1073756160
 4037 067c 000C0240 		.word	1073875968
 4038 0680 000C0040 		.word	1073744896
 4039              		.cfi_endproc
 4040              	.LFE1994:
 4042              		.section	.text.DMA1_Stream4_IRQHandler,"ax",%progbits
 4043              		.align	1
 4044              		.p2align 2,,3
 4045              		.global	DMA1_Stream4_IRQHandler
 4046              		.syntax unified
 4047              		.thumb
 4048              		.thumb_func
 4049              		.fpu fpv4-sp-d16
 4051              	DMA1_Stream4_IRQHandler:
 4052              	.LFB1995:
 109:Drivers/display.cpp **** 
ARM GAS  /var/folders/84/_x1cyy_j36g486tldtwl37280000gn/T//ccaJEjXT.s 			page 91


 110:Drivers/display.cpp **** extern "C" {
 111:Drivers/display.cpp **** 	void DMA1_Stream4_IRQHandler(void) {
 4053              		.loc 1 111 37 is_stmt 1 view -0
 4054              		.cfi_startproc
 4055              		@ args = 0, pretend = 0, frame = 0
 4056              		@ frame_needed = 0, uses_anonymous_args = 0
 4057              		@ link register save eliminated.
 112:Drivers/display.cpp **** 		uint32_t flags = DMA1->HISR;
 4058              		.loc 1 112 3 view .LVU1172
 4059              		.loc 1 112 26 is_stmt 0 view .LVU1173
 4060 0000 0A4B     		ldr	r3, .L267
 4061 0002 5968     		ldr	r1, [r3, #4]
 4062              	.LVL59:
 113:Drivers/display.cpp **** 		DMA1->HIFCR |= DMA_HIFCR_CTCIF4 | DMA_HIFCR_CHTIF4;
 4063              		.loc 1 113 3 is_stmt 1 view .LVU1174
 4064              		.loc 1 113 15 is_stmt 0 view .LVU1175
 4065 0004 DA68     		ldr	r2, [r3, #12]
 4066 0006 42F03000 		orr	r0, r2, #48
 4067 000a D860     		str	r0, [r3, #12]
 114:Drivers/display.cpp **** 
 115:Drivers/display.cpp **** 		if (flags & DMA_HISR_TCIF4) {
 4068              		.loc 1 115 3 is_stmt 1 view .LVU1176
 4069 000c 8B06     		lsls	r3, r1, #26
 4070 000e 0CD5     		bpl	.L262
 116:Drivers/display.cpp **** 			display.unlock_dma();
 4071              		.loc 1 116 4 view .LVU1177
 4072              	.LVL60:
 4073              	.LBB1260:
 4074              	.LBI1260:
  62:Drivers/display.h **** 		SPI2->CR2 &= ~SPI_CR2_TXDMAEN;
 4075              		.loc 2 62 7 view .LVU1178
 4076              	.LBB1261:
  63:Drivers/display.h **** 		DMA1_Stream4->CR &= ~DMA_SxCR_EN;
 4077              		.loc 2 63 3 view .LVU1179
  63:Drivers/display.h **** 		DMA1_Stream4->CR &= ~DMA_SxCR_EN;
 4078              		.loc 2 63 13 is_stmt 0 view .LVU1180
 4079 0010 0749     		ldr	r1, .L267+4
 4080              	.LVL61:
  64:Drivers/display.h **** 		dma_busy_ = false;
 4081              		.loc 2 64 20 view .LVU1181
 4082 0012 084A     		ldr	r2, .L267+8
  63:Drivers/display.h **** 		DMA1_Stream4->CR &= ~DMA_SxCR_EN;
 4083              		.loc 2 63 13 view .LVU1182
 4084 0014 4B68     		ldr	r3, [r1, #4]
  65:Drivers/display.h **** 	}
 4085              		.loc 2 65 13 view .LVU1183
 4086 0016 0848     		ldr	r0, .L267+12
  63:Drivers/display.h **** 		DMA1_Stream4->CR &= ~DMA_SxCR_EN;
 4087              		.loc 2 63 13 view .LVU1184
 4088 0018 23F00203 		bic	r3, r3, #2
 4089 001c 4B60     		str	r3, [r1, #4]
  64:Drivers/display.h **** 		dma_busy_ = false;
 4090              		.loc 2 64 3 is_stmt 1 view .LVU1185
  64:Drivers/display.h **** 		dma_busy_ = false;
 4091              		.loc 2 64 20 is_stmt 0 view .LVU1186
 4092 001e 1368     		ldr	r3, [r2]
  65:Drivers/display.h **** 	}
ARM GAS  /var/folders/84/_x1cyy_j36g486tldtwl37280000gn/T//ccaJEjXT.s 			page 92


 4093              		.loc 2 65 13 view .LVU1187
 4094 0020 0021     		movs	r1, #0
  64:Drivers/display.h **** 		dma_busy_ = false;
 4095              		.loc 2 64 20 view .LVU1188
 4096 0022 23F00103 		bic	r3, r3, #1
 4097 0026 1360     		str	r3, [r2]
  65:Drivers/display.h **** 	}
 4098              		.loc 2 65 3 is_stmt 1 view .LVU1189
  65:Drivers/display.h **** 	}
 4099              		.loc 2 65 13 is_stmt 0 view .LVU1190
 4100 0028 4170     		strb	r1, [r0, #1]
 4101              	.LVL62:
 4102              	.L262:
  65:Drivers/display.h **** 	}
 4103              		.loc 2 65 13 view .LVU1191
 4104              	.LBE1261:
 4105              	.LBE1260:
 117:Drivers/display.cpp **** 		}
 118:Drivers/display.cpp **** 	}
 4106              		.loc 1 118 2 view .LVU1192
 4107 002a 7047     		bx	lr
 4108              	.L268:
 4109              		.align	2
 4110              	.L267:
 4111 002c 00600240 		.word	1073897472
 4112 0030 00380040 		.word	1073756160
 4113 0034 70600240 		.word	1073897584
 4114 0038 00000000 		.word	.LANCHOR0
 4115              		.cfi_endproc
 4116              	.LFE1995:
 4118              		.global	display
 4119              		.section	.bss.display,"aw",%nobits
 4120              		.align	2
 4121              		.set	.LANCHOR0,. + 0
 4124              	display:
 4125 0000 0000     		.space	2
 4126              		.text
 4127              	.Letext0:
 4128              		.file 4 "/Users/joostbooy/STM32Cube/Repository/STM32Cube_FW_F4_V1.26.1/Drivers/CMSIS/Device/ST/STM
 4129              		.file 5 "/usr/local/Caskroom/gcc-arm-embedded/9-2019-q4-major/gcc-arm-none-eabi-9-2019-q4-major/ar
 4130              		.file 6 "/usr/local/Caskroom/gcc-arm-embedded/9-2019-q4-major/gcc-arm-none-eabi-9-2019-q4-major/ar
 4131              		.file 7 "/usr/local/Caskroom/gcc-arm-embedded/9-2019-q4-major/gcc-arm-none-eabi-9-2019-q4-major/ar
 4132              		.file 8 "/Users/joostbooy/STM32Cube/Repository/STM32Cube_FW_F4_V1.26.1/Drivers/CMSIS/Include/core_
 4133              		.file 9 "/Users/joostbooy/STM32Cube/Repository/STM32Cube_FW_F4_V1.26.1/Drivers/CMSIS/Device/ST/STM
 4134              		.file 10 "/usr/local/Caskroom/gcc-arm-embedded/9-2019-q4-major/gcc-arm-none-eabi-9-2019-q4-major/l
 4135              		.file 11 "/Users/joostbooy/STM32Cube/Repository/STM32Cube_FW_F4_V1.26.1/Drivers/STM32F4xx_HAL_Driv
 4136              		.file 12 "/Users/joostbooy/STM32Cube/Repository/STM32Cube_FW_F4_V1.26.1/Drivers/STM32F4xx_HAL_Driv
 4137              		.file 13 "/Users/joostbooy/STM32Cube/Repository/STM32Cube_FW_F4_V1.26.1/Drivers/STM32F4xx_HAL_Driv
 4138              		.file 14 "/Users/joostbooy/STM32Cube/Repository/STM32Cube_FW_F4_V1.26.1/Drivers/STM32F4xx_HAL_Driv
 4139              		.file 15 "/Users/joostbooy/STM32Cube/Repository/STM32Cube_FW_F4_V1.26.1/Drivers/STM32F4xx_HAL_Driv
 4140              		.file 16 "/usr/local/Caskroom/gcc-arm-embedded/9-2019-q4-major/gcc-arm-none-eabi-9-2019-q4-major/a
 4141              		.file 17 "/usr/local/Caskroom/gcc-arm-embedded/9-2019-q4-major/gcc-arm-none-eabi-9-2019-q4-major/a
 4142              		.file 18 "/usr/local/Caskroom/gcc-arm-embedded/9-2019-q4-major/gcc-arm-none-eabi-9-2019-q4-major/a
 4143              		.file 19 "/usr/local/Caskroom/gcc-arm-embedded/9-2019-q4-major/gcc-arm-none-eabi-9-2019-q4-major/a
 4144              		.file 20 "/usr/local/Caskroom/gcc-arm-embedded/9-2019-q4-major/gcc-arm-none-eabi-9-2019-q4-major/a
 4145              		.file 21 "/usr/local/Caskroom/gcc-arm-embedded/9-2019-q4-major/gcc-arm-none-eabi-9-2019-q4-major/a
 4146              		.file 22 "/usr/local/Caskroom/gcc-arm-embedded/9-2019-q4-major/gcc-arm-none-eabi-9-2019-q4-major/a
ARM GAS  /var/folders/84/_x1cyy_j36g486tldtwl37280000gn/T//ccaJEjXT.s 			page 93


 4147              		.file 23 "/usr/local/Caskroom/gcc-arm-embedded/9-2019-q4-major/gcc-arm-none-eabi-9-2019-q4-major/a
 4148              		.file 24 "/usr/local/Caskroom/gcc-arm-embedded/9-2019-q4-major/gcc-arm-none-eabi-9-2019-q4-major/a
 4149              		.file 25 "/usr/local/Caskroom/gcc-arm-embedded/9-2019-q4-major/gcc-arm-none-eabi-9-2019-q4-major/a
 4150              		.file 26 "/usr/local/Caskroom/gcc-arm-embedded/9-2019-q4-major/gcc-arm-none-eabi-9-2019-q4-major/a
 4151              		.file 27 "/usr/local/Caskroom/gcc-arm-embedded/9-2019-q4-major/gcc-arm-none-eabi-9-2019-q4-major/a
 4152              		.file 28 "/usr/local/Caskroom/gcc-arm-embedded/9-2019-q4-major/gcc-arm-none-eabi-9-2019-q4-major/a
 4153              		.file 29 "/usr/local/Caskroom/gcc-arm-embedded/9-2019-q4-major/gcc-arm-none-eabi-9-2019-q4-major/a
 4154              		.file 30 "/usr/local/Caskroom/gcc-arm-embedded/9-2019-q4-major/gcc-arm-none-eabi-9-2019-q4-major/a
 4155              		.file 31 "/usr/local/Caskroom/gcc-arm-embedded/9-2019-q4-major/gcc-arm-none-eabi-9-2019-q4-major/a
 4156              		.file 32 "/usr/local/Caskroom/gcc-arm-embedded/9-2019-q4-major/gcc-arm-none-eabi-9-2019-q4-major/a
 4157              		.file 33 "/usr/local/Caskroom/gcc-arm-embedded/9-2019-q4-major/gcc-arm-none-eabi-9-2019-q4-major/a
 4158              		.file 34 "/usr/local/Caskroom/gcc-arm-embedded/9-2019-q4-major/gcc-arm-none-eabi-9-2019-q4-major/a
 4159              		.file 35 "/usr/local/Caskroom/gcc-arm-embedded/9-2019-q4-major/gcc-arm-none-eabi-9-2019-q4-major/a
 4160              		.file 36 "/usr/local/Caskroom/gcc-arm-embedded/9-2019-q4-major/gcc-arm-none-eabi-9-2019-q4-major/a
 4161              		.file 37 "/usr/local/Caskroom/gcc-arm-embedded/9-2019-q4-major/gcc-arm-none-eabi-9-2019-q4-major/a
 4162              		.file 38 "/usr/local/Caskroom/gcc-arm-embedded/9-2019-q4-major/gcc-arm-none-eabi-9-2019-q4-major/a
 4163              		.file 39 "/usr/local/Caskroom/gcc-arm-embedded/9-2019-q4-major/gcc-arm-none-eabi-9-2019-q4-major/a
 4164              		.file 40 "/usr/local/Caskroom/gcc-arm-embedded/9-2019-q4-major/gcc-arm-none-eabi-9-2019-q4-major/l
 4165              		.file 41 "<built-in>"
 4166              		.file 42 "/usr/local/Caskroom/gcc-arm-embedded/9-2019-q4-major/gcc-arm-none-eabi-9-2019-q4-major/a
 4167              		.file 43 "/usr/local/Caskroom/gcc-arm-embedded/9-2019-q4-major/gcc-arm-none-eabi-9-2019-q4-major/a
 4168              		.file 44 "/usr/local/Caskroom/gcc-arm-embedded/9-2019-q4-major/gcc-arm-none-eabi-9-2019-q4-major/a
 4169              		.file 45 "/usr/local/Caskroom/gcc-arm-embedded/9-2019-q4-major/gcc-arm-none-eabi-9-2019-q4-major/a
 4170              		.file 46 "/usr/local/Caskroom/gcc-arm-embedded/9-2019-q4-major/gcc-arm-none-eabi-9-2019-q4-major/a
 4171              		.file 47 "/usr/local/Caskroom/gcc-arm-embedded/9-2019-q4-major/gcc-arm-none-eabi-9-2019-q4-major/a
 4172              		.file 48 "/usr/local/Caskroom/gcc-arm-embedded/9-2019-q4-major/gcc-arm-none-eabi-9-2019-q4-major/a
 4173              		.file 49 "/usr/local/Caskroom/gcc-arm-embedded/9-2019-q4-major/gcc-arm-none-eabi-9-2019-q4-major/a
 4174              		.file 50 "/usr/local/Caskroom/gcc-arm-embedded/9-2019-q4-major/gcc-arm-none-eabi-9-2019-q4-major/a
 4175              		.file 51 "Drivers/debug.h"
 4176              		.file 52 "/Users/joostbooy/STM32Cube/Repository/STM32Cube_FW_F4_V1.26.1/Drivers/STM32F4xx_HAL_Driv
ARM GAS  /var/folders/84/_x1cyy_j36g486tldtwl37280000gn/T//ccaJEjXT.s 			page 94

