ARM GAS  /var/folders/84/_x1cyy_j36g486tldtwl37280000gn/T//ccQZarxD.s 			page 1


   1              		.cpu cortex-m4
   2              		.eabi_attribute 27, 1
   3              		.eabi_attribute 28, 1
   4              		.eabi_attribute 20, 1
   5              		.eabi_attribute 21, 1
   6              		.eabi_attribute 23, 3
   7              		.eabi_attribute 24, 1
   8              		.eabi_attribute 25, 1
   9              		.eabi_attribute 26, 1
  10              		.eabi_attribute 30, 2
  11              		.eabi_attribute 34, 1
  12              		.eabi_attribute 18, 4
  13              		.file	"drumPainter.cpp"
  14              		.text
  15              	.Ltext0:
  16              		.cfi_sections	.debug_frame
  17              		.section	.text.startup._GLOBAL__sub_I__ZN11DrumPainter6windowE,"ax",%progbits
  18              		.align	1
  19              		.p2align 2,,3
  20              		.arch armv7e-m
  21              		.syntax unified
  22              		.thumb
  23              		.thumb_func
  24              		.fpu fpv4-sp-d16
  26              	_GLOBAL__sub_I__ZN11DrumPainter6windowE:
  27              	.LFB3254:
  28              		.file 1 "Src/Ui/Painters/drumPainter.cpp"
   1:Src/Ui/Painters/drumPainter.cpp **** #include "drumPainter.h"
   2:Src/Ui/Painters/drumPainter.cpp **** 
   3:Src/Ui/Painters/drumPainter.cpp **** Window DrumPainter::window = {
   4:Src/Ui/Painters/drumPainter.cpp **** 	.x = 0,
   5:Src/Ui/Painters/drumPainter.cpp **** 	.y = 8,
   6:Src/Ui/Painters/drumPainter.cpp **** 	.width = canvas.width() - 1,
   7:Src/Ui/Painters/drumPainter.cpp **** 	.height = 48,
   8:Src/Ui/Painters/drumPainter.cpp **** 	.collumns = 18,
   9:Src/Ui/Painters/drumPainter.cpp **** 	.rows = 8,
  10:Src/Ui/Painters/drumPainter.cpp **** };
  11:Src/Ui/Painters/drumPainter.cpp **** 
  12:Src/Ui/Painters/drumPainter.cpp **** Window::Cell DrumPainter::cell;
  13:Src/Ui/Painters/drumPainter.cpp **** 
  14:Src/Ui/Painters/drumPainter.cpp **** float DrumPainter::wf;
  15:Src/Ui/Painters/drumPainter.cpp **** 
  16:Src/Ui/Painters/drumPainter.cpp **** int DrumPainter::selected_track;
  17:Src/Ui/Painters/drumPainter.cpp **** int DrumPainter::last_top_row;
  18:Src/Ui/Painters/drumPainter.cpp **** int DrumPainter::scroll_bar_frames;
  19:Src/Ui/Painters/drumPainter.cpp **** int DrumPainter::last_step_value;
  20:Src/Ui/Painters/drumPainter.cpp **** int DrumPainter::step_value_frames;
  29              		.loc 1 20 35 view -0
  30              		.cfi_startproc
  31              		@ args = 0, pretend = 0, frame = 0
  32              		@ frame_needed = 0, uses_anonymous_args = 0
  33              		@ link register save eliminated.
  34              	.LBB6:
  35              	.LBI6:
  36              		.loc 1 20 35 view .LVU1
  37              	.LVL0:
  38              		.loc 1 20 35 is_stmt 0 view .LVU2
ARM GAS  /var/folders/84/_x1cyy_j36g486tldtwl37280000gn/T//ccQZarxD.s 			page 2


  39              	.LBE6:
  40              		.file 2 "Src/Ui/canvas.h"
   1:Src/Ui/canvas.h **** #ifndef Canvas_h
   2:Src/Ui/canvas.h **** #define Canvas_h
   3:Src/Ui/canvas.h **** 
   4:Src/Ui/canvas.h **** #include "stmf4lib.h"
   5:Src/Ui/canvas.h **** #include "frameBuffer.h"
   6:Src/Ui/canvas.h **** #include "font.h"
   7:Src/Ui/canvas.h **** #include "bitmap.h"
   8:Src/Ui/canvas.h **** #include "stringUtils.h"
   9:Src/Ui/canvas.h **** #include "dsp.h"
  10:Src/Ui/canvas.h **** 
  11:Src/Ui/canvas.h **** class Canvas {
  12:Src/Ui/canvas.h **** 
  13:Src/Ui/canvas.h **** public:
  14:Src/Ui/canvas.h **** 
  15:Src/Ui/canvas.h **** 	enum Color {
  16:Src/Ui/canvas.h **** 		WHITE,
  17:Src/Ui/canvas.h **** 		LIGHT_GRAY,
  18:Src/Ui/canvas.h **** 		GRAY,
  19:Src/Ui/canvas.h **** 		DARK_GRAY,
  20:Src/Ui/canvas.h **** 		BLACK,
  21:Src/Ui/canvas.h **** 		INVERTED,
  22:Src/Ui/canvas.h **** 		SUBTRACTED,
  23:Src/Ui/canvas.h **** 		MULTIPLIED,
  24:Src/Ui/canvas.h **** 	};
  25:Src/Ui/canvas.h **** 
  26:Src/Ui/canvas.h **** 	enum Allign {
  27:Src/Ui/canvas.h **** 		LEFT,
  28:Src/Ui/canvas.h **** 		RIGHT,
  29:Src/Ui/canvas.h **** 		CENTER,
  30:Src/Ui/canvas.h **** 		TOP,
  31:Src/Ui/canvas.h **** 		BOTTOM,
  32:Src/Ui/canvas.h **** 	};
  33:Src/Ui/canvas.h **** 
  34:Src/Ui/canvas.h **** 	//Frame buffer
  35:Src/Ui/canvas.h **** 	static const int width_ = 256;
  36:Src/Ui/canvas.h **** 	static const int height_ = 64;
  37:Src/Ui/canvas.h **** 	const int width() { return Canvas::width_; }
  41              		.loc 2 37 22 is_stmt 1 view .LVU3
  42              	.LBB10:
  43              	.LBB7:
  10:Src/Ui/Painters/drumPainter.cpp **** 
  44              		.loc 1 10 1 is_stmt 0 view .LVU4
  45 0000 0C4B     		ldr	r3, .L4
  46              	.LBE7:
  47              	.LBE10:
  48              		.loc 1 20 35 view .LVU5
  49 0002 30B4     		push	{r4, r5}
  50              		.cfi_def_cfa_offset 8
  51              		.cfi_offset 4, -8
  52              		.cfi_offset 5, -4
  53              	.LBB11:
  54              	.LBB8:
  10:Src/Ui/Painters/drumPainter.cpp **** 
  55              		.loc 1 10 1 view .LVU6
  56 0004 D3E90420 		ldrd	r2, r0, [r3, #16]
ARM GAS  /var/folders/84/_x1cyy_j36g486tldtwl37280000gn/T//ccQZarxD.s 			page 3


  57 0008 FF24     		movs	r4, #255
  58 000a 411E     		subs	r1, r0, #1
  59 000c 551E     		subs	r5, r2, #1
  60 000e 9863     		str	r0, [r3, #56]
  61 0010 D863     		str	r0, [r3, #60]
  62 0012 5963     		str	r1, [r3, #52]
  63 0014 DA64     		str	r2, [r3, #76]
  64 0016 D968     		ldr	r1, [r3, #12]
  65 0018 1A65     		str	r2, [r3, #80]
  66              	.LVL1:
  10:Src/Ui/Painters/drumPainter.cpp **** 
  67              		.loc 1 10 1 view .LVU7
  68 001a 91FBF0F0 		sdiv	r0, r1, r0
  69 001e 94FBF2F2 		sdiv	r2, r4, r2
  70 0022 9D64     		str	r5, [r3, #72]
  71 0024 9C60     		str	r4, [r3, #8]
  72 0026 D861     		str	r0, [r3, #28]
  73              	.LBE8:
  74              	.LBE11:
  75              		.loc 1 20 35 view .LVU8
  76 0028 30BC     		pop	{r4, r5}
  77              		.cfi_restore 5
  78              		.cfi_restore 4
  79              		.cfi_def_cfa_offset 0
  80              	.LBB12:
  81              	.LBB9:
  10:Src/Ui/Painters/drumPainter.cpp **** 
  82              		.loc 1 10 1 view .LVU9
  83 002a D862     		str	r0, [r3, #44]
  84 002c 9A61     		str	r2, [r3, #24]
  85 002e 9A62     		str	r2, [r3, #40]
  86              	.LBE9:
  87              	.LBE12:
  88              		.loc 1 20 35 view .LVU10
  89 0030 7047     		bx	lr
  90              	.L5:
  91 0032 00BF     		.align	2
  92              	.L4:
  93 0034 00000000 		.word	.LANCHOR0
  94              		.cfi_endproc
  95              	.LFE3254:
  97              		.section	.init_array,"aw",%init_array
  98              		.align	2
  99 0000 00000000 		.word	_GLOBAL__sub_I__ZN11DrumPainter6windowE(target1)
 100              		.global	_ZN11DrumPainter17step_value_framesE
 101              		.global	_ZN11DrumPainter15last_step_valueE
 102              		.global	_ZN11DrumPainter17scroll_bar_framesE
 103              		.global	_ZN11DrumPainter12last_top_rowE
 104              		.global	_ZN11DrumPainter14selected_trackE
 105              		.global	_ZN11DrumPainter2wfE
 106              		.global	_ZN11DrumPainter4cellE
 107              		.global	_ZN11DrumPainter6windowE
 108              		.section	.bss._ZN11DrumPainter12last_top_rowE,"aw",%nobits
 109              		.align	2
 112              	_ZN11DrumPainter12last_top_rowE:
 113 0000 00000000 		.space	4
 114              		.section	.bss._ZN11DrumPainter14selected_trackE,"aw",%nobits
ARM GAS  /var/folders/84/_x1cyy_j36g486tldtwl37280000gn/T//ccQZarxD.s 			page 4


 115              		.align	2
 118              	_ZN11DrumPainter14selected_trackE:
 119 0000 00000000 		.space	4
 120              		.section	.bss._ZN11DrumPainter15last_step_valueE,"aw",%nobits
 121              		.align	2
 124              	_ZN11DrumPainter15last_step_valueE:
 125 0000 00000000 		.space	4
 126              		.section	.bss._ZN11DrumPainter17scroll_bar_framesE,"aw",%nobits
 127              		.align	2
 130              	_ZN11DrumPainter17scroll_bar_framesE:
 131 0000 00000000 		.space	4
 132              		.section	.bss._ZN11DrumPainter17step_value_framesE,"aw",%nobits
 133              		.align	2
 136              	_ZN11DrumPainter17step_value_framesE:
 137 0000 00000000 		.space	4
 138              		.section	.bss._ZN11DrumPainter2wfE,"aw",%nobits
 139              		.align	2
 142              	_ZN11DrumPainter2wfE:
 143 0000 00000000 		.space	4
 144              		.section	.bss._ZN11DrumPainter4cellE,"aw",%nobits
 145              		.align	2
 148              	_ZN11DrumPainter4cellE:
 149 0000 00000000 		.space	16
 149      00000000 
 149      00000000 
 149      00000000 
 150              		.section	.data._ZN11DrumPainter6windowE,"aw"
 151              		.align	2
 152              		.set	.LANCHOR0,. + 0
 155              	_ZN11DrumPainter6windowE:
 156 0000 00000000 		.word	0
 157 0004 08000000 		.word	8
 158 0008 00000000 		.space	4
 159 000c 30000000 		.word	48
 160 0010 12000000 		.word	18
 161 0014 08000000 		.word	8
 162 0018 00000000 		.space	8
 162      00000000 
 163 0020 00000000 		.word	0
 164 0024 00000000 		.word	0
 165 0028 00000000 		.space	8
 165      00000000 
 166 0030 00000000 		.word	0
 167 0034 00000000 		.space	12
 167      00000000 
 167      00000000 
 168 0040 00       		.byte	0
 169 0041 000000   		.space	3
 170 0044 00000000 		.word	0
 171 0048 00000000 		.space	12
 171      00000000 
 171      00000000 
 172 0054 00       		.byte	0
 173 0055 000000   		.space	3
 174              		.text
 175              	.Letext0:
 176              		.file 3 "/usr/local/Caskroom/gcc-arm-embedded/9-2019-q4-major/gcc-arm-none-eabi-9-2019-q4-major/ar
ARM GAS  /var/folders/84/_x1cyy_j36g486tldtwl37280000gn/T//ccQZarxD.s 			page 5


 177              		.file 4 "/usr/local/Caskroom/gcc-arm-embedded/9-2019-q4-major/gcc-arm-none-eabi-9-2019-q4-major/ar
 178              		.file 5 "/usr/local/Caskroom/gcc-arm-embedded/9-2019-q4-major/gcc-arm-none-eabi-9-2019-q4-major/ar
 179              		.file 6 "/Users/joostbooy/STM32Cube/Repository/STM32Cube_FW_F4_V1.26.1/Drivers/CMSIS/Include/core_
 180              		.file 7 "/Users/joostbooy/STM32Cube/Repository/STM32Cube_FW_F4_V1.26.1/Drivers/CMSIS/Device/ST/STM
 181              		.file 8 "/usr/local/Caskroom/gcc-arm-embedded/9-2019-q4-major/gcc-arm-none-eabi-9-2019-q4-major/li
 182              		.file 9 "/Users/joostbooy/STM32Cube/Repository/STM32Cube_FW_F4_V1.26.1/Drivers/STM32F4xx_HAL_Drive
 183              		.file 10 "/usr/local/Caskroom/gcc-arm-embedded/9-2019-q4-major/gcc-arm-none-eabi-9-2019-q4-major/a
 184              		.file 11 "/usr/local/Caskroom/gcc-arm-embedded/9-2019-q4-major/gcc-arm-none-eabi-9-2019-q4-major/a
 185              		.file 12 "/usr/local/Caskroom/gcc-arm-embedded/9-2019-q4-major/gcc-arm-none-eabi-9-2019-q4-major/a
 186              		.file 13 "/usr/local/Caskroom/gcc-arm-embedded/9-2019-q4-major/gcc-arm-none-eabi-9-2019-q4-major/a
 187              		.file 14 "/usr/local/Caskroom/gcc-arm-embedded/9-2019-q4-major/gcc-arm-none-eabi-9-2019-q4-major/a
 188              		.file 15 "/usr/local/Caskroom/gcc-arm-embedded/9-2019-q4-major/gcc-arm-none-eabi-9-2019-q4-major/a
 189              		.file 16 "/usr/local/Caskroom/gcc-arm-embedded/9-2019-q4-major/gcc-arm-none-eabi-9-2019-q4-major/a
 190              		.file 17 "/usr/local/Caskroom/gcc-arm-embedded/9-2019-q4-major/gcc-arm-none-eabi-9-2019-q4-major/a
 191              		.file 18 "/usr/local/Caskroom/gcc-arm-embedded/9-2019-q4-major/gcc-arm-none-eabi-9-2019-q4-major/a
 192              		.file 19 "/usr/local/Caskroom/gcc-arm-embedded/9-2019-q4-major/gcc-arm-none-eabi-9-2019-q4-major/a
 193              		.file 20 "/usr/local/Caskroom/gcc-arm-embedded/9-2019-q4-major/gcc-arm-none-eabi-9-2019-q4-major/a
 194              		.file 21 "/usr/local/Caskroom/gcc-arm-embedded/9-2019-q4-major/gcc-arm-none-eabi-9-2019-q4-major/a
 195              		.file 22 "/usr/local/Caskroom/gcc-arm-embedded/9-2019-q4-major/gcc-arm-none-eabi-9-2019-q4-major/a
 196              		.file 23 "/usr/local/Caskroom/gcc-arm-embedded/9-2019-q4-major/gcc-arm-none-eabi-9-2019-q4-major/a
 197              		.file 24 "/usr/local/Caskroom/gcc-arm-embedded/9-2019-q4-major/gcc-arm-none-eabi-9-2019-q4-major/a
 198              		.file 25 "/usr/local/Caskroom/gcc-arm-embedded/9-2019-q4-major/gcc-arm-none-eabi-9-2019-q4-major/a
 199              		.file 26 "/usr/local/Caskroom/gcc-arm-embedded/9-2019-q4-major/gcc-arm-none-eabi-9-2019-q4-major/a
 200              		.file 27 "/usr/local/Caskroom/gcc-arm-embedded/9-2019-q4-major/gcc-arm-none-eabi-9-2019-q4-major/a
 201              		.file 28 "/usr/local/Caskroom/gcc-arm-embedded/9-2019-q4-major/gcc-arm-none-eabi-9-2019-q4-major/a
 202              		.file 29 "/usr/local/Caskroom/gcc-arm-embedded/9-2019-q4-major/gcc-arm-none-eabi-9-2019-q4-major/a
 203              		.file 30 "/usr/local/Caskroom/gcc-arm-embedded/9-2019-q4-major/gcc-arm-none-eabi-9-2019-q4-major/a
 204              		.file 31 "/usr/local/Caskroom/gcc-arm-embedded/9-2019-q4-major/gcc-arm-none-eabi-9-2019-q4-major/a
 205              		.file 32 "/usr/local/Caskroom/gcc-arm-embedded/9-2019-q4-major/gcc-arm-none-eabi-9-2019-q4-major/a
 206              		.file 33 "/usr/local/Caskroom/gcc-arm-embedded/9-2019-q4-major/gcc-arm-none-eabi-9-2019-q4-major/a
 207              		.file 34 "/usr/local/Caskroom/gcc-arm-embedded/9-2019-q4-major/gcc-arm-none-eabi-9-2019-q4-major/l
 208              		.file 35 "<built-in>"
 209              		.file 36 "/usr/local/Caskroom/gcc-arm-embedded/9-2019-q4-major/gcc-arm-none-eabi-9-2019-q4-major/a
 210              		.file 37 "/usr/local/Caskroom/gcc-arm-embedded/9-2019-q4-major/gcc-arm-none-eabi-9-2019-q4-major/a
 211              		.file 38 "/usr/local/Caskroom/gcc-arm-embedded/9-2019-q4-major/gcc-arm-none-eabi-9-2019-q4-major/a
 212              		.file 39 "/usr/local/Caskroom/gcc-arm-embedded/9-2019-q4-major/gcc-arm-none-eabi-9-2019-q4-major/a
 213              		.file 40 "/usr/local/Caskroom/gcc-arm-embedded/9-2019-q4-major/gcc-arm-none-eabi-9-2019-q4-major/a
 214              		.file 41 "/usr/local/Caskroom/gcc-arm-embedded/9-2019-q4-major/gcc-arm-none-eabi-9-2019-q4-major/a
 215              		.file 42 "/usr/local/Caskroom/gcc-arm-embedded/9-2019-q4-major/gcc-arm-none-eabi-9-2019-q4-major/a
 216              		.file 43 "/usr/local/Caskroom/gcc-arm-embedded/9-2019-q4-major/gcc-arm-none-eabi-9-2019-q4-major/a
 217              		.file 44 "/usr/local/Caskroom/gcc-arm-embedded/9-2019-q4-major/gcc-arm-none-eabi-9-2019-q4-major/a
 218              		.file 45 "Src/Settings/trackData.h"
 219              		.file 46 "/Users/joostbooy/Desktop/Code/stm32/lib/utils/stringBuilder.h"
 220              		.file 47 "lookupTables/lookUpTables.h"
 221              		.file 48 "Src/Engine/midiEvent.h"
 222              		.file 49 "Drivers/uart.h"
 223              		.file 50 "Drivers/Usb/usb.h"
 224              		.file 51 "lookupTables/font.h"
 225              		.file 52 "Src/Settings/pattern.h"
 226              		.file 53 "Src/Settings/baseTrack.h"
 227              		.file 54 "Src/Settings/serial.h"
 228              		.file 55 "Src/Settings/serialItem.h"
 229              		.file 56 "/Users/joostbooy/Desktop/Code/stm32/lib/ff14b/source/ff.h"
 230              		.file 57 "Src/Disk/file.h"
 231              		.file 58 "/Users/joostbooy/Desktop/Code/stm32/lib/utils/hash.h"
 232              		.file 59 "Src/Disk/fileWriter.h"
 233              		.file 60 "Src/Disk/fileReader.h"
ARM GAS  /var/folders/84/_x1cyy_j36g486tldtwl37280000gn/T//ccQZarxD.s 			page 6


 234              		.file 61 "Src/Settings/scale.h"
 235              		.file 62 "/Users/joostbooy/Desktop/Code/stm32/lib/utils/stack.h"
 236              		.file 63 "Src/Settings/noteTrack.h"
 237              		.file 64 "Src/Settings/arpeggiator.h"
 238              		.file 65 "Src/Settings/chordTrack.h"
 239              		.file 66 "Src/Settings/drumTrack.h"
 240              		.file 67 "Src/Settings/curveTrack.h"
 241              		.file 68 "Src/Settings/track.h"
 242              		.file 69 "Src/Settings/midiClock.h"
 243              		.file 70 "Src/Settings/song.h"
 244              		.file 71 "Src/Ui/clipboard.h"
 245              		.file 72 "Src/Settings/cvOutput.h"
 246              		.file 73 "Src/Settings/cvInput.h"
 247              		.file 74 "Src/Settings/midiFilter.h"
 248              		.file 75 "Src/Settings/midiMonitor.h"
 249              		.file 76 "Src/Settings/midiInput.h"
 250              		.file 77 "Src/Settings/midiOutput.h"
 251              		.file 78 "Drivers/micros.h"
 252              		.file 79 "Drivers/dac.h"
 253              		.file 80 "Src/Settings/calibration.h"
 254              		.file 81 "Src/Settings/drumKit.h"
 255              		.file 82 "Src/Settings/settings.h"
 256              		.file 83 "lookupTables/bitmap.h"
 257              		.file 84 "Src/Ui/frameBuffer.h"
 258              		.file 85 "Src/Ui/Painters/window.h"
 259              		.file 86 "Src/Ui/Pages/pages.h"
 260              		.file 87 "Src/Ui/Pages/chapter.h"
 261              		.file 88 "Src/Ui/Painters/drumPainter.h"
ARM GAS  /var/folders/84/_x1cyy_j36g486tldtwl37280000gn/T//ccQZarxD.s 			page 7

