ARM GAS  /var/folders/84/_x1cyy_j36g486tldtwl37280000gn/T//ccZ8X9jg.s 			page 1


   1              		.cpu cortex-m4
   2              		.eabi_attribute 27, 1
   3              		.eabi_attribute 28, 1
   4              		.eabi_attribute 20, 1
   5              		.eabi_attribute 21, 1
   6              		.eabi_attribute 23, 3
   7              		.eabi_attribute 24, 1
   8              		.eabi_attribute 25, 1
   9              		.eabi_attribute 26, 1
  10              		.eabi_attribute 30, 2
  11              		.eabi_attribute 34, 1
  12              		.eabi_attribute 18, 4
  13              		.file	"engine.cpp"
  14              		.text
  15              	.Ltext0:
  16              		.cfi_sections	.debug_frame
  17              		.section	.text._ZN6Engine4initEv,"ax",%progbits
  18              		.align	1
  19              		.p2align 2,,3
  20              		.global	_ZN6Engine4initEv
  21              		.arch armv7e-m
  22              		.syntax unified
  23              		.thumb
  24              		.thumb_func
  25              		.fpu fpv4-sp-d16
  27              	_ZN6Engine4initEv:
  28              	.LVL0:
  29              	.LFB2900:
  30              		.file 1 "Src/Engine/engine.cpp"
   1:Src/Engine/engine.cpp **** #include "engine.h"
   2:Src/Engine/engine.cpp **** #include "scale.h"
   3:Src/Engine/engine.cpp **** #include "usb.h"
   4:Src/Engine/engine.cpp **** #include "debug.h"
   5:Src/Engine/engine.cpp **** 
   6:Src/Engine/engine.cpp **** Engine engine;
   7:Src/Engine/engine.cpp **** 
   8:Src/Engine/engine.cpp **** void Engine::init() {
  31              		.loc 1 8 21 view -0
  32              		.cfi_startproc
  33              		@ args = 0, pretend = 0, frame = 16
  34              		@ frame_needed = 0, uses_anonymous_args = 0
   9:Src/Engine/engine.cpp **** 	state_ = STOPPED;
  35              		.loc 1 9 2 view .LVU1
   8:Src/Engine/engine.cpp **** 	state_ = STOPPED;
  36              		.loc 1 8 21 is_stmt 0 view .LVU2
  37 0000 2DE9F04F 		push	{r4, r5, r6, r7, r8, r9, r10, fp, lr}
  38              		.cfi_def_cfa_offset 36
  39              		.cfi_offset 4, -36
  40              		.cfi_offset 5, -32
  41              		.cfi_offset 6, -28
  42              		.cfi_offset 7, -24
  43              		.cfi_offset 8, -20
  44              		.cfi_offset 9, -16
  45              		.cfi_offset 10, -12
  46              		.cfi_offset 11, -8
  47              		.cfi_offset 14, -4
  10:Src/Engine/engine.cpp **** 	clock_ticks = 0;
ARM GAS  /var/folders/84/_x1cyy_j36g486tldtwl37280000gn/T//ccZ8X9jg.s 			page 2


  11:Src/Engine/engine.cpp **** 	processed_ticks = 0;
  48              		.loc 1 11 18 view .LVU3
  49 0004 45F67062 		movw	r2, #24176
   8:Src/Engine/engine.cpp **** 	state_ = STOPPED;
  50              		.loc 1 8 21 view .LVU4
  51 0008 8246     		mov	r10, r0
   9:Src/Engine/engine.cpp **** 	clock_ticks = 0;
  52              		.loc 1 9 9 view .LVU5
  53 000a 45F66866 		movw	r6, #24168
  54              	.LBB1389:
  55              	.LBB1390:
  56              	.LBB1391:
  57              	.LBB1392:
  58              		.file 2 "/Users/joostbooy/Desktop/Code/stm32/lib/utils/que.h"
   1:/Users/joostbooy/Desktop/Code/stm32/lib/utils/que.h **** #ifndef Que_h
   2:/Users/joostbooy/Desktop/Code/stm32/lib/utils/que.h **** #define Que_h
   3:/Users/joostbooy/Desktop/Code/stm32/lib/utils/que.h **** 
   4:/Users/joostbooy/Desktop/Code/stm32/lib/utils/que.h **** #include "stmf4lib.h"
   5:/Users/joostbooy/Desktop/Code/stm32/lib/utils/que.h **** 
   6:/Users/joostbooy/Desktop/Code/stm32/lib/utils/que.h **** // Circular Que
   7:/Users/joostbooy/Desktop/Code/stm32/lib/utils/que.h **** 
   8:/Users/joostbooy/Desktop/Code/stm32/lib/utils/que.h **** template <typename T, const size_t kMaxSize>
   9:/Users/joostbooy/Desktop/Code/stm32/lib/utils/que.h **** class Que {
  10:/Users/joostbooy/Desktop/Code/stm32/lib/utils/que.h **** public:
  11:/Users/joostbooy/Desktop/Code/stm32/lib/utils/que.h **** 
  12:/Users/joostbooy/Desktop/Code/stm32/lib/utils/que.h **** 	inline void init() {
  13:/Users/joostbooy/Desktop/Code/stm32/lib/utils/que.h **** 		write_pos_ = 0;
  59              		.loc 2 13 3 view .LVU6
  60 000e 00F56350 		add	r0, r0, #14528
  61              	.LVL1:
  62              		.loc 2 13 3 view .LVU7
  63              	.LBE1392:
  64              	.LBE1391:
  65              	.LBE1390:
  66              	.LBE1389:
  10:Src/Engine/engine.cpp **** 	processed_ticks = 0;
  67              		.loc 1 10 14 view .LVU8
  68 0012 45F66C64 		movw	r4, #24172
   9:Src/Engine/engine.cpp **** 	clock_ticks = 0;
  69              		.loc 1 9 9 view .LVU9
  70 0016 0023     		movs	r3, #0
  71              	.LBB1416:
  72              	.LBB1410:
  73              	.LBB1401:
  74              	.LBB1393:
  75              		.loc 2 13 3 view .LVU10
  76 0018 0430     		adds	r0, r0, #4
  77              	.LBE1393:
  78              	.LBE1401:
  79              		.file 3 "Src/Engine/cvInputEngine.h"
   1:Src/Engine/cvInputEngine.h **** #ifndef CvInputEngine_h
   2:Src/Engine/cvInputEngine.h **** #define CvInputEngine_h
   3:Src/Engine/cvInputEngine.h **** 
   4:Src/Engine/cvInputEngine.h **** #include "cvInput.h"
   5:Src/Engine/cvInputEngine.h **** #include "que.h"
   6:Src/Engine/cvInputEngine.h **** #include "adc.h"
   7:Src/Engine/cvInputEngine.h **** #include "dsp.h"
ARM GAS  /var/folders/84/_x1cyy_j36g486tldtwl37280000gn/T//ccZ8X9jg.s 			page 3


   8:Src/Engine/cvInputEngine.h **** 
   9:Src/Engine/cvInputEngine.h **** class CvInputEngine {
  10:Src/Engine/cvInputEngine.h **** 
  11:Src/Engine/cvInputEngine.h **** public:
  12:Src/Engine/cvInputEngine.h **** 
  13:Src/Engine/cvInputEngine.h **** 	void init() {
  14:Src/Engine/cvInputEngine.h **** 		for (int i = 0; i < CvInput::NUM_PORTS; ++i) {
  15:Src/Engine/cvInputEngine.h **** 			cv_que[i].init();
  16:Src/Engine/cvInputEngine.h **** 			filterd[i] = 0.0f;
  80              		.loc 3 16 15 view .LVU11
  81 001a 0AF56359 		add	r9, r10, #14528
  82              	.LBE1410:
  83              	.LBE1416:
   8:Src/Engine/engine.cpp **** 	state_ = STOPPED;
  84              		.loc 1 8 21 view .LVU12
  85 001e 2DED028B 		vpush.64	{d8}
  86              		.cfi_def_cfa_offset 44
  87              		.cfi_offset 80, -44
  88              		.cfi_offset 81, -40
  89              	.LBB1417:
  90              	.LBB1411:
  91              		.loc 3 16 15 view .LVU13
  92 0022 4FF00008 		mov	r8, #0
  93              	.LBE1411:
  94              	.LBE1417:
   9:Src/Engine/engine.cpp **** 	clock_ticks = 0;
  95              		.loc 1 9 9 view .LVU14
  96 0026 0AF80630 		strb	r3, [r10, r6]
  10:Src/Engine/engine.cpp **** 	processed_ticks = 0;
  97              		.loc 1 10 2 is_stmt 1 view .LVU15
  98              	.LBB1418:
  99              	.LBB1419:
 100              	.LBB1420:
 101              	.LBB1421:
 102              	.LBB1422:
 103              		.file 4 "Src/Engine/midiBuffer.h"
   1:Src/Engine/midiBuffer.h **** #ifndef MidiBuffer_h
   2:Src/Engine/midiBuffer.h **** #define MidiBuffer_h
   3:Src/Engine/midiBuffer.h **** 
   4:Src/Engine/midiBuffer.h **** #include "midiEvent.h"
   5:Src/Engine/midiBuffer.h **** #include "que.h"
   6:Src/Engine/midiBuffer.h **** 
   7:Src/Engine/midiBuffer.h **** class MidiBuffer {
   8:Src/Engine/midiBuffer.h **** 
   9:Src/Engine/midiBuffer.h **** public:
  10:Src/Engine/midiBuffer.h **** 
  11:Src/Engine/midiBuffer.h **** 	struct Reading {
  12:Src/Engine/midiBuffer.h **** 		uint8_t data;
  13:Src/Engine/midiBuffer.h **** 		uint32_t time;
  14:Src/Engine/midiBuffer.h **** 	};
  15:Src/Engine/midiBuffer.h **** 
  16:Src/Engine/midiBuffer.h **** 	Que<Reading, 64> in_que;
  17:Src/Engine/midiBuffer.h **** 	Que<uint8_t, 64> out_que;
  18:Src/Engine/midiBuffer.h **** 	Que<uint8_t, 8> clock_out_que;
  19:Src/Engine/midiBuffer.h **** 
  20:Src/Engine/midiBuffer.h **** 	void init(int port_index) {
  21:Src/Engine/midiBuffer.h **** 		num_data_bytes_ = 0;
ARM GAS  /var/folders/84/_x1cyy_j36g486tldtwl37280000gn/T//ccZ8X9jg.s 			page 4


  22:Src/Engine/midiBuffer.h **** 		last_message_ = 0x00;
  23:Src/Engine/midiBuffer.h **** 
  24:Src/Engine/midiBuffer.h **** 		event.port = port_index;
 104              		.loc 4 24 14 is_stmt 0 view .LVU16
 105 002a 41F2022B 		movw	fp, #4610
 106              	.LBE1422:
 107              	.LBE1421:
 108              	.LBE1420:
 109              		.file 5 "Src/Engine/midiPort.h"
   1:Src/Engine/midiPort.h **** #ifndef MidiPort_h
   2:Src/Engine/midiPort.h **** #define MidiPort_h
   3:Src/Engine/midiPort.h **** 
   4:Src/Engine/midiPort.h **** #include "uart.h"
   5:Src/Engine/midiPort.h **** #include "usb.h"
   6:Src/Engine/midiPort.h **** #include "midiBuffer.h"
   7:Src/Engine/midiPort.h **** 
   8:Src/Engine/midiPort.h **** class MidiPort {
   9:Src/Engine/midiPort.h **** 
  10:Src/Engine/midiPort.h **** public:
  11:Src/Engine/midiPort.h **** 
  12:Src/Engine/midiPort.h **** 	enum Port {
  13:Src/Engine/midiPort.h **** 		MIDI_UART_1,
  14:Src/Engine/midiPort.h **** 		MIDI_UART_2,
  15:Src/Engine/midiPort.h **** 		MIDI_UART_3,
  16:Src/Engine/midiPort.h **** 		MIDI_UART_4,
  17:Src/Engine/midiPort.h **** 		MIDI_USB,
  18:Src/Engine/midiPort.h **** 
  19:Src/Engine/midiPort.h **** 		NUM_PORTS
  20:Src/Engine/midiPort.h **** 	};
  21:Src/Engine/midiPort.h **** 
  22:Src/Engine/midiPort.h **** 	static const char* port_text(uint8_t port) {
  23:Src/Engine/midiPort.h **** 		switch (port)
  24:Src/Engine/midiPort.h **** 		{
  25:Src/Engine/midiPort.h **** 		case MIDI_UART_1:	return "MIDI PORT 1";
  26:Src/Engine/midiPort.h **** 		case MIDI_UART_2:	return "MIDI PORT 2";
  27:Src/Engine/midiPort.h **** 		case MIDI_UART_3:	return "MIDI PORT 3";
  28:Src/Engine/midiPort.h **** 		case MIDI_UART_4:	return "MIDI PORT 4";
  29:Src/Engine/midiPort.h **** 		case MIDI_USB:		return "MIDI USB";
  30:Src/Engine/midiPort.h **** 		default:			break;
  31:Src/Engine/midiPort.h **** 		}
  32:Src/Engine/midiPort.h **** 		return nullptr;
  33:Src/Engine/midiPort.h **** 	}
  34:Src/Engine/midiPort.h **** 
  35:Src/Engine/midiPort.h **** 	void init() {
  36:Src/Engine/midiPort.h **** 		usb_data_pos = 0;
  37:Src/Engine/midiPort.h **** 		memset(usb_data, 0x00, 4);
 110              		.loc 5 37 9 view .LVU17
 111 002e CAF80030 		str	r3, [r10]	@ unaligned
 112              	.LBB1461:
 113              	.LBB1442:
 114              	.LBB1423:
  21:Src/Engine/midiBuffer.h **** 		last_message_ = 0x00;
 115              		.loc 4 21 19 view .LVU18
 116 0032 AAF88432 		strh	r3, [r10, #644]	@ movhi
 117 0036 AAF80035 		strh	r3, [r10, #1280]	@ movhi
 118 003a AAF87C37 		strh	r3, [r10, #1916]	@ movhi
 119 003e AAF8F839 		strh	r3, [r10, #2552]	@ movhi
ARM GAS  /var/folders/84/_x1cyy_j36g486tldtwl37280000gn/T//ccZ8X9jg.s 			page 5


 120 0042 AAF8743C 		strh	r3, [r10, #3188]	@ movhi
 121              	.LBE1423:
 122              	.LBE1442:
 123              	.LBE1461:
  36:Src/Engine/midiPort.h **** 		memset(usb_data, 0x00, 4);
 124              		.loc 5 36 16 view .LVU19
 125 0046 CAF80430 		str	r3, [r10, #4]
 126              	.LBB1462:
  38:Src/Engine/midiPort.h **** 
  39:Src/Engine/midiPort.h **** 		for (int i = 0; i < NUM_PORTS; ++i) {
  40:Src/Engine/midiPort.h **** 			buffer_[i].init(i);
  41:Src/Engine/midiPort.h **** 			last_received[i] = 0x00;
 127              		.loc 5 41 21 view .LVU20
 128 004a AAF80830 		strh	r3, [r10, #8]	@ movhi
 129              	.LBB1443:
 130              	.LBB1424:
 131              		.loc 4 24 14 view .LVU21
 132 004e 4FF48056 		mov	r6, #4096
 133              	.LBE1424:
 134              	.LBE1443:
 135              	.LBE1462:
 136              	.LBE1419:
 137              	.LBE1418:
  10:Src/Engine/engine.cpp **** 	processed_ticks = 0;
 138              		.loc 1 10 14 view .LVU22
 139 0052 4AF80430 		str	r3, [r10, r4]
 140              		.loc 1 11 2 is_stmt 1 view .LVU23
 141              	.LBB1489:
 142              	.LBB1476:
 143              	.LBB1463:
 144              	.LBB1444:
 145              	.LBB1425:
 146              		.loc 4 24 14 is_stmt 0 view .LVU24
 147 0056 41F2033C 		movw	ip, #4867
 148              	.LBE1425:
 149              	.LBE1444:
 150              	.LBE1463:
 151              	.LBE1476:
 152              	.LBE1489:
 153              		.loc 1 11 18 view .LVU25
 154 005a 4AF80230 		str	r3, [r10, r2]
  12:Src/Engine/engine.cpp **** 
  13:Src/Engine/engine.cpp **** 	midiPort.init();
 155              		.loc 1 13 2 is_stmt 1 view .LVU26
 156              	.LVL2:
 157              	.LBB1490:
 158              	.LBI1418:
  35:Src/Engine/midiPort.h **** 		usb_data_pos = 0;
 159              		.loc 5 35 7 view .LVU27
 160              	.LBB1477:
  36:Src/Engine/midiPort.h **** 		memset(usb_data, 0x00, 4);
 161              		.loc 5 36 3 view .LVU28
  37:Src/Engine/midiPort.h **** 
 162              		.loc 5 37 3 view .LVU29
  39:Src/Engine/midiPort.h **** 			buffer_[i].init(i);
 163              		.loc 5 39 3 view .LVU30
 164              	.LBB1464:
ARM GAS  /var/folders/84/_x1cyy_j36g486tldtwl37280000gn/T//ccZ8X9jg.s 			page 6


  39:Src/Engine/midiPort.h **** 			buffer_[i].init(i);
 165              		.loc 5 39 21 view .LVU31
  40:Src/Engine/midiPort.h **** 			last_received[i] = 0x00;
 166              		.loc 5 40 4 view .LVU32
 167              	.LBB1445:
 168              	.LBI1421:
  20:Src/Engine/midiBuffer.h **** 		num_data_bytes_ = 0;
 169              		.loc 4 20 7 view .LVU33
 170              	.LBB1426:
  21:Src/Engine/midiBuffer.h **** 		last_message_ = 0x00;
 171              		.loc 4 21 3 view .LVU34
  22:Src/Engine/midiBuffer.h **** 
 172              		.loc 4 22 3 view .LVU35
 173              		.loc 4 24 3 view .LVU36
  25:Src/Engine/midiBuffer.h **** 		clock_event.port = port_index;
 174              		.loc 4 25 3 view .LVU37
  26:Src/Engine/midiBuffer.h **** 
  27:Src/Engine/midiBuffer.h **** 		MidiEvent::set_source(&event, MidiEvent::PORT, port_index);
 175              		.loc 4 27 3 view .LVU38
 176              		.loc 4 27 3 is_stmt 0 view .LVU39
 177              	.LBE1426:
 178              	.LBE1445:
 179              	.LBE1464:
 180              	.LBE1477:
 181              	.LBE1490:
 182              		.file 6 "Src/Engine/midiEvent.h"
   1:Src/Engine/midiEvent.h **** #ifndef MidiEvent_h
   2:Src/Engine/midiEvent.h **** #define MidiEvent_h
   3:Src/Engine/midiEvent.h **** 
   4:Src/Engine/midiEvent.h **** #include "lookUpTables.h"
   5:Src/Engine/midiEvent.h **** 
   6:Src/Engine/midiEvent.h **** class MidiEvent {
   7:Src/Engine/midiEvent.h **** 
   8:Src/Engine/midiEvent.h **** public:
   9:Src/Engine/midiEvent.h **** 
  10:Src/Engine/midiEvent.h **** 	enum SourceType {
  11:Src/Engine/midiEvent.h **** 		TRACK		= 0,
  12:Src/Engine/midiEvent.h **** 		PORT		= 16,
  13:Src/Engine/midiEvent.h **** 		NUM_SOURCES = PORT + 5,
  14:Src/Engine/midiEvent.h **** 	};
  15:Src/Engine/midiEvent.h **** 
  16:Src/Engine/midiEvent.h **** 	enum MessageType {
  17:Src/Engine/midiEvent.h **** 		NOTE_OFF			= 0x80,
  18:Src/Engine/midiEvent.h **** 		NOTE_ON				= 0x90,
  19:Src/Engine/midiEvent.h **** 		KEY_PRESSURE		= 0xA0,
  20:Src/Engine/midiEvent.h **** 		CONTROLLER_CHANGE	= 0xB0,
  21:Src/Engine/midiEvent.h **** 		PROGRAM_CHANGE		= 0xC0,
  22:Src/Engine/midiEvent.h **** 		CHANNEL_PRESSURE	= 0xD0,
  23:Src/Engine/midiEvent.h **** 		PITCH_BEND			= 0xE0,
  24:Src/Engine/midiEvent.h **** 		CLOCK_PULSE			= 0xF8,
  25:Src/Engine/midiEvent.h **** 		CLOCK_START			= 0xFA,
  26:Src/Engine/midiEvent.h **** 		CLOCK_CONTINUE		= 0xFB,
  27:Src/Engine/midiEvent.h **** 		CLOCK_STOP			= 0xFC,
  28:Src/Engine/midiEvent.h **** 		SONG_POSITION		= 0xF2,
  29:Src/Engine/midiEvent.h **** 	};
  30:Src/Engine/midiEvent.h **** 
  31:Src/Engine/midiEvent.h **** 	struct Event {
ARM GAS  /var/folders/84/_x1cyy_j36g486tldtwl37280000gn/T//ccZ8X9jg.s 			page 7


  32:Src/Engine/midiEvent.h **** 		uint8_t message;
  33:Src/Engine/midiEvent.h **** 		uint8_t data[2];
  34:Src/Engine/midiEvent.h **** 		uint32_t time;
  35:Src/Engine/midiEvent.h **** 		uint8_t port;
  36:Src/Engine/midiEvent.h **** 		uint8_t source;
  37:Src/Engine/midiEvent.h **** 		uint8_t tie;
  38:Src/Engine/midiEvent.h **** 	};
  39:Src/Engine/midiEvent.h **** 
  40:Src/Engine/midiEvent.h **** 	// message types
  41:Src/Engine/midiEvent.h **** 
  42:Src/Engine/midiEvent.h **** 	static inline bool is_note_on(Event *event) {
  43:Src/Engine/midiEvent.h **** 		return (event->message & 0xF0) == NOTE_ON;
  44:Src/Engine/midiEvent.h **** 	}
  45:Src/Engine/midiEvent.h **** 
  46:Src/Engine/midiEvent.h **** 	static inline bool is_note_off(Event *event) {
  47:Src/Engine/midiEvent.h **** 		return (event->message & 0xF0) == NOTE_OFF;
  48:Src/Engine/midiEvent.h **** 	}
  49:Src/Engine/midiEvent.h **** 
  50:Src/Engine/midiEvent.h **** 	static inline bool is_bend(Event *event) {
  51:Src/Engine/midiEvent.h **** 		return (event->message & 0xF0) == PITCH_BEND;
  52:Src/Engine/midiEvent.h **** 	}
  53:Src/Engine/midiEvent.h **** 
  54:Src/Engine/midiEvent.h **** 	static inline bool is_cc(Event *event) {
  55:Src/Engine/midiEvent.h **** 		return (event->message & 0xF0) == CONTROLLER_CHANGE;
  56:Src/Engine/midiEvent.h **** 	}
  57:Src/Engine/midiEvent.h **** 
  58:Src/Engine/midiEvent.h **** 	static inline bool is_clock_message(Event* event) {
  59:Src/Engine/midiEvent.h **** 		return event->message >= 0xF8;
  60:Src/Engine/midiEvent.h **** 	}
  61:Src/Engine/midiEvent.h **** 
  62:Src/Engine/midiEvent.h **** 	static inline uint8_t get_type(Event* event) {
  63:Src/Engine/midiEvent.h **** 		return is_clock_message(event) ? event->message : event->message & 0xF0;
  64:Src/Engine/midiEvent.h **** 	}
  65:Src/Engine/midiEvent.h **** 
  66:Src/Engine/midiEvent.h **** 	static inline bool get_channel(Event* event, uint8_t *channel) {
  67:Src/Engine/midiEvent.h **** 		*channel = event->message & 0x0F;
  68:Src/Engine/midiEvent.h **** 		return !is_clock_message(event);
  69:Src/Engine/midiEvent.h **** 	}
  70:Src/Engine/midiEvent.h **** 
  71:Src/Engine/midiEvent.h **** 	// source
  72:Src/Engine/midiEvent.h **** 	static inline void set_source(Event *event, SourceType type, uint8_t index) {
  73:Src/Engine/midiEvent.h **** 		event->source = serialise_source(type, index);
 183              		.loc 6 73 3 is_stmt 1 view .LVU40
  74:Src/Engine/midiEvent.h **** 	}
  75:Src/Engine/midiEvent.h **** 
  76:Src/Engine/midiEvent.h **** 	static inline void get_source(Event *event, uint8_t *type, uint8_t *index) {
  77:Src/Engine/midiEvent.h **** 		deserialise_source(event->source, index, type);
  78:Src/Engine/midiEvent.h **** 	}
  79:Src/Engine/midiEvent.h **** 
  80:Src/Engine/midiEvent.h **** 	static inline int serialise_source(SourceType type, uint8_t index) {
  81:Src/Engine/midiEvent.h **** 		return type + index;
 184              		.loc 6 81 3 view .LVU41
 185              	.LBB1491:
 186              	.LBB1478:
 187              	.LBB1465:
 188              	.LBB1446:
 189              	.LBB1427:
ARM GAS  /var/folders/84/_x1cyy_j36g486tldtwl37280000gn/T//ccZ8X9jg.s 			page 8


  24:Src/Engine/midiBuffer.h **** 		clock_event.port = port_index;
 190              		.loc 4 24 14 is_stmt 0 view .LVU42
 191 005e 41F20114 		movw	r4, #4353
 192              	.LBE1427:
 193              	.LBE1446:
 194              	.LBE1465:
 195              	.LBE1478:
 196              	.LBE1491:
 197              	.LBB1492:
 198              	.LBB1412:
  17:Src/Engine/cvInputEngine.h **** 			note_is_playing[i] = false;
  18:Src/Engine/cvInputEngine.h **** 			last_value[i] = 0xFF;
 199              		.loc 3 18 18 view .LVU43
 200 0062 FF22     		movs	r2, #255
 201              	.LBE1412:
 202              	.LBE1492:
 203              	.LBB1493:
 204              	.LBB1479:
 205              	.LBB1466:
 206              	.LBB1447:
 207              	.LBB1428:
  24:Src/Engine/midiBuffer.h **** 		clock_event.port = port_index;
 208              		.loc 4 24 14 view .LVU44
 209 0064 41F2044E 		movw	lr, #5124
 210 0068 AAF87462 		strh	r6, [r10, #628]	@ movhi
 211              	.LVL3:
  28:Src/Engine/midiBuffer.h **** 		MidiEvent::set_source(&clock_event, MidiEvent::PORT, port_index);
 212              		.loc 4 28 3 is_stmt 1 view .LVU45
 213              		.loc 4 28 3 is_stmt 0 view .LVU46
 214              	.LBE1428:
 215              	.LBE1447:
 216              	.LBE1466:
 217              	.LBE1479:
 218              	.LBE1493:
  73:Src/Engine/midiEvent.h **** 	}
 219              		.loc 6 73 3 is_stmt 1 view .LVU47
 220              		.loc 6 81 3 view .LVU48
 221              	.LBB1494:
 222              	.LBB1480:
 223              	.LBB1467:
 224              	.LBB1448:
 225              	.LBB1429:
  25:Src/Engine/midiBuffer.h **** 
 226              		.loc 4 25 20 is_stmt 0 view .LVU49
 227 006c AAF88062 		strh	r6, [r10, #640]	@ movhi
 228              	.LVL4:
  25:Src/Engine/midiBuffer.h **** 
 229              		.loc 4 25 20 view .LVU50
 230              	.LBE1429:
 231              	.LBE1448:
 232              		.loc 5 41 4 is_stmt 1 view .LVU51
  39:Src/Engine/midiPort.h **** 			buffer_[i].init(i);
 233              		.loc 5 39 3 view .LVU52
  39:Src/Engine/midiPort.h **** 			buffer_[i].init(i);
 234              		.loc 5 39 21 view .LVU53
  40:Src/Engine/midiPort.h **** 			last_received[i] = 0x00;
 235              		.loc 5 40 4 view .LVU54
ARM GAS  /var/folders/84/_x1cyy_j36g486tldtwl37280000gn/T//ccZ8X9jg.s 			page 9


 236              	.LBB1449:
  20:Src/Engine/midiBuffer.h **** 		num_data_bytes_ = 0;
 237              		.loc 4 20 7 view .LVU55
 238              	.LBB1430:
  21:Src/Engine/midiBuffer.h **** 		last_message_ = 0x00;
 239              		.loc 4 21 3 view .LVU56
  22:Src/Engine/midiBuffer.h **** 
 240              		.loc 4 22 3 view .LVU57
  24:Src/Engine/midiBuffer.h **** 		clock_event.port = port_index;
 241              		.loc 4 24 3 view .LVU58
  25:Src/Engine/midiBuffer.h **** 
 242              		.loc 4 25 3 view .LVU59
  27:Src/Engine/midiBuffer.h **** 		MidiEvent::set_source(&clock_event, MidiEvent::PORT, port_index);
 243              		.loc 4 27 3 view .LVU60
  27:Src/Engine/midiBuffer.h **** 		MidiEvent::set_source(&clock_event, MidiEvent::PORT, port_index);
 244              		.loc 4 27 3 is_stmt 0 view .LVU61
 245              	.LBE1430:
 246              	.LBE1449:
 247              	.LBE1467:
 248              	.LBE1480:
 249              	.LBE1494:
  73:Src/Engine/midiEvent.h **** 	}
 250              		.loc 6 73 3 is_stmt 1 view .LVU62
 251              		.loc 6 81 3 view .LVU63
 252              	.LBB1495:
 253              	.LBB1481:
 254              	.LBB1468:
 255              	.LBB1450:
 256              	.LBB1431:
  24:Src/Engine/midiBuffer.h **** 		clock_event.port = port_index;
 257              		.loc 4 24 14 is_stmt 0 view .LVU64
 258 0070 AAF8F044 		strh	r4, [r10, #1264]	@ movhi
 259              	.LVL5:
 260              		.loc 4 28 3 is_stmt 1 view .LVU65
 261              		.loc 4 28 3 is_stmt 0 view .LVU66
 262              	.LBE1431:
 263              	.LBE1450:
 264              	.LBE1468:
 265              	.LBE1481:
 266              	.LBE1495:
  73:Src/Engine/midiEvent.h **** 	}
 267              		.loc 6 73 3 is_stmt 1 view .LVU67
 268              		.loc 6 81 3 view .LVU68
 269              	.LBB1496:
 270              	.LBB1482:
 271              	.LBB1469:
 272              	.LBB1451:
 273              	.LBB1432:
  25:Src/Engine/midiBuffer.h **** 
 274              		.loc 4 25 20 is_stmt 0 view .LVU69
 275 0074 AAF8FC44 		strh	r4, [r10, #1276]	@ movhi
 276              	.LVL6:
  25:Src/Engine/midiBuffer.h **** 
 277              		.loc 4 25 20 view .LVU70
 278              	.LBE1432:
 279              	.LBE1451:
 280              		.loc 5 41 4 is_stmt 1 view .LVU71
ARM GAS  /var/folders/84/_x1cyy_j36g486tldtwl37280000gn/T//ccZ8X9jg.s 			page 10


  39:Src/Engine/midiPort.h **** 			buffer_[i].init(i);
 281              		.loc 5 39 3 view .LVU72
  39:Src/Engine/midiPort.h **** 			buffer_[i].init(i);
 282              		.loc 5 39 21 view .LVU73
  40:Src/Engine/midiPort.h **** 			last_received[i] = 0x00;
 283              		.loc 5 40 4 view .LVU74
 284              	.LBB1452:
  20:Src/Engine/midiBuffer.h **** 		num_data_bytes_ = 0;
 285              		.loc 4 20 7 view .LVU75
 286              	.LBB1433:
  21:Src/Engine/midiBuffer.h **** 		last_message_ = 0x00;
 287              		.loc 4 21 3 view .LVU76
  22:Src/Engine/midiBuffer.h **** 
 288              		.loc 4 22 3 view .LVU77
  24:Src/Engine/midiBuffer.h **** 		clock_event.port = port_index;
 289              		.loc 4 24 3 view .LVU78
  25:Src/Engine/midiBuffer.h **** 
 290              		.loc 4 25 3 view .LVU79
  27:Src/Engine/midiBuffer.h **** 		MidiEvent::set_source(&clock_event, MidiEvent::PORT, port_index);
 291              		.loc 4 27 3 view .LVU80
  27:Src/Engine/midiBuffer.h **** 		MidiEvent::set_source(&clock_event, MidiEvent::PORT, port_index);
 292              		.loc 4 27 3 is_stmt 0 view .LVU81
 293              	.LBE1433:
 294              	.LBE1452:
 295              	.LBE1469:
 296              	.LBE1482:
 297              	.LBE1496:
  73:Src/Engine/midiEvent.h **** 	}
 298              		.loc 6 73 3 is_stmt 1 view .LVU82
 299              		.loc 6 81 3 view .LVU83
 300              	.LBB1497:
 301              	.LBB1483:
 302              	.LBB1470:
 303              	.LBB1453:
 304              	.LBB1434:
  24:Src/Engine/midiBuffer.h **** 		clock_event.port = port_index;
 305              		.loc 4 24 14 is_stmt 0 view .LVU84
 306 0078 AAF86CB7 		strh	fp, [r10, #1900]	@ movhi
 307              	.LVL7:
 308              		.loc 4 28 3 is_stmt 1 view .LVU85
 309              		.loc 4 28 3 is_stmt 0 view .LVU86
 310              	.LBE1434:
 311              	.LBE1453:
 312              	.LBE1470:
 313              	.LBE1483:
 314              	.LBE1497:
  73:Src/Engine/midiEvent.h **** 	}
 315              		.loc 6 73 3 is_stmt 1 view .LVU87
 316              		.loc 6 81 3 view .LVU88
 317              	.LBB1498:
 318              	.LBB1484:
 319              	.LBB1471:
 320              	.LBB1454:
 321              	.LBB1435:
  25:Src/Engine/midiBuffer.h **** 
 322              		.loc 4 25 20 is_stmt 0 view .LVU89
 323 007c AAF878B7 		strh	fp, [r10, #1912]	@ movhi
ARM GAS  /var/folders/84/_x1cyy_j36g486tldtwl37280000gn/T//ccZ8X9jg.s 			page 11


 324              	.LVL8:
  25:Src/Engine/midiBuffer.h **** 
 325              		.loc 4 25 20 view .LVU90
 326              	.LBE1435:
 327              	.LBE1454:
 328              		.loc 5 41 4 is_stmt 1 view .LVU91
  39:Src/Engine/midiPort.h **** 			buffer_[i].init(i);
 329              		.loc 5 39 3 view .LVU92
  39:Src/Engine/midiPort.h **** 			buffer_[i].init(i);
 330              		.loc 5 39 21 view .LVU93
  40:Src/Engine/midiPort.h **** 			last_received[i] = 0x00;
 331              		.loc 5 40 4 view .LVU94
 332              	.LBB1455:
  20:Src/Engine/midiBuffer.h **** 		num_data_bytes_ = 0;
 333              		.loc 4 20 7 view .LVU95
 334              	.LBB1436:
  21:Src/Engine/midiBuffer.h **** 		last_message_ = 0x00;
 335              		.loc 4 21 3 view .LVU96
  22:Src/Engine/midiBuffer.h **** 
 336              		.loc 4 22 3 view .LVU97
  24:Src/Engine/midiBuffer.h **** 		clock_event.port = port_index;
 337              		.loc 4 24 3 view .LVU98
  25:Src/Engine/midiBuffer.h **** 
 338              		.loc 4 25 3 view .LVU99
  27:Src/Engine/midiBuffer.h **** 		MidiEvent::set_source(&clock_event, MidiEvent::PORT, port_index);
 339              		.loc 4 27 3 view .LVU100
  27:Src/Engine/midiBuffer.h **** 		MidiEvent::set_source(&clock_event, MidiEvent::PORT, port_index);
 340              		.loc 4 27 3 is_stmt 0 view .LVU101
 341              	.LBE1436:
 342              	.LBE1455:
 343              	.LBE1471:
 344              	.LBE1484:
 345              	.LBE1498:
  73:Src/Engine/midiEvent.h **** 	}
 346              		.loc 6 73 3 is_stmt 1 view .LVU102
 347              		.loc 6 81 3 view .LVU103
 348              	.LBB1499:
 349              	.LBB1485:
 350              	.LBB1472:
 351              	.LBB1456:
 352              	.LBB1437:
  24:Src/Engine/midiBuffer.h **** 		clock_event.port = port_index;
 353              		.loc 4 24 14 is_stmt 0 view .LVU104
 354 0080 AAF8E8C9 		strh	ip, [r10, #2536]	@ movhi
 355              	.LVL9:
 356              		.loc 4 28 3 is_stmt 1 view .LVU105
 357              		.loc 4 28 3 is_stmt 0 view .LVU106
 358              	.LBE1437:
 359              	.LBE1456:
 360              	.LBE1472:
 361              	.LBE1485:
 362              	.LBE1499:
  73:Src/Engine/midiEvent.h **** 	}
 363              		.loc 6 73 3 is_stmt 1 view .LVU107
 364              		.loc 6 81 3 view .LVU108
 365              	.LBB1500:
 366              	.LBB1486:
ARM GAS  /var/folders/84/_x1cyy_j36g486tldtwl37280000gn/T//ccZ8X9jg.s 			page 12


 367              	.LBB1473:
 368              	.LBB1457:
 369              	.LBB1438:
  25:Src/Engine/midiBuffer.h **** 
 370              		.loc 4 25 20 is_stmt 0 view .LVU109
 371 0084 AAF8F4C9 		strh	ip, [r10, #2548]	@ movhi
 372              	.LVL10:
  25:Src/Engine/midiBuffer.h **** 
 373              		.loc 4 25 20 view .LVU110
 374              	.LBE1438:
 375              	.LBE1457:
 376              		.loc 5 41 4 is_stmt 1 view .LVU111
  39:Src/Engine/midiPort.h **** 			buffer_[i].init(i);
 377              		.loc 5 39 3 view .LVU112
  39:Src/Engine/midiPort.h **** 			buffer_[i].init(i);
 378              		.loc 5 39 21 view .LVU113
  40:Src/Engine/midiPort.h **** 			last_received[i] = 0x00;
 379              		.loc 5 40 4 view .LVU114
 380              	.LBB1458:
  20:Src/Engine/midiBuffer.h **** 		num_data_bytes_ = 0;
 381              		.loc 4 20 7 view .LVU115
 382              	.LBB1439:
  21:Src/Engine/midiBuffer.h **** 		last_message_ = 0x00;
 383              		.loc 4 21 3 view .LVU116
  22:Src/Engine/midiBuffer.h **** 
 384              		.loc 4 22 3 view .LVU117
  24:Src/Engine/midiBuffer.h **** 		clock_event.port = port_index;
 385              		.loc 4 24 3 view .LVU118
  25:Src/Engine/midiBuffer.h **** 
 386              		.loc 4 25 3 view .LVU119
  27:Src/Engine/midiBuffer.h **** 		MidiEvent::set_source(&clock_event, MidiEvent::PORT, port_index);
 387              		.loc 4 27 3 view .LVU120
  27:Src/Engine/midiBuffer.h **** 		MidiEvent::set_source(&clock_event, MidiEvent::PORT, port_index);
 388              		.loc 4 27 3 is_stmt 0 view .LVU121
 389              	.LBE1439:
 390              	.LBE1458:
 391              	.LBE1473:
 392              	.LBE1486:
 393              	.LBE1500:
  73:Src/Engine/midiEvent.h **** 	}
 394              		.loc 6 73 3 is_stmt 1 view .LVU122
 395              		.loc 6 81 3 view .LVU123
 396              	.LBB1501:
 397              	.LBB1487:
 398              	.LBB1474:
 399              	.LBB1459:
 400              	.LBB1440:
  24:Src/Engine/midiBuffer.h **** 		clock_event.port = port_index;
 401              		.loc 4 24 14 is_stmt 0 view .LVU124
 402 0088 AAF864EC 		strh	lr, [r10, #3172]	@ movhi
 403              	.LVL11:
 404              		.loc 4 28 3 is_stmt 1 view .LVU125
 405              		.loc 4 28 3 is_stmt 0 view .LVU126
 406              	.LBE1440:
 407              	.LBE1459:
 408              	.LBE1474:
 409              	.LBE1487:
ARM GAS  /var/folders/84/_x1cyy_j36g486tldtwl37280000gn/T//ccZ8X9jg.s 			page 13


 410              	.LBE1501:
  73:Src/Engine/midiEvent.h **** 	}
 411              		.loc 6 73 3 is_stmt 1 view .LVU127
 412              		.loc 6 81 3 view .LVU128
 413              	.LBB1502:
 414              	.LBB1488:
 415              	.LBB1475:
 416              	.LBB1460:
 417              	.LBB1441:
  25:Src/Engine/midiBuffer.h **** 
 418              		.loc 4 25 20 is_stmt 0 view .LVU129
 419 008c AAF870EC 		strh	lr, [r10, #3184]	@ movhi
 420              	.LVL12:
  25:Src/Engine/midiBuffer.h **** 
 421              		.loc 4 25 20 view .LVU130
 422              	.LBE1441:
 423              	.LBE1460:
 424              		.loc 5 41 4 is_stmt 1 view .LVU131
  39:Src/Engine/midiPort.h **** 			buffer_[i].init(i);
 425              		.loc 5 39 3 view .LVU132
  39:Src/Engine/midiPort.h **** 			buffer_[i].init(i);
 426              		.loc 5 39 21 view .LVU133
  39:Src/Engine/midiPort.h **** 			buffer_[i].init(i);
 427              		.loc 5 39 21 is_stmt 0 view .LVU134
 428              	.LBE1475:
 429              	.LBE1488:
 430              	.LBE1502:
 431              	.LBB1503:
 432              	.LBB1413:
  15:Src/Engine/cvInputEngine.h **** 			filterd[i] = 0.0f;
 433              		.loc 3 15 4 is_stmt 1 view .LVU135
 434              	.LBB1402:
 435              	.LBI1391:
  12:/Users/joostbooy/Desktop/Code/stm32/lib/utils/que.h **** 		write_pos_ = 0;
 436              		.loc 2 12 14 view .LVU136
 437              	.LBE1402:
  16:Src/Engine/cvInputEngine.h **** 			note_is_playing[i] = false;
 438              		.loc 3 16 15 is_stmt 0 view .LVU137
 439 0090 0AF56356 		add	r6, r10, #14528
 440              	.LBB1403:
 441              	.LBB1394:
 442              		.loc 2 13 3 view .LVU138
 443 0094 C364     		str	r3, [r0, #76]
 444              	.LBE1394:
 445              	.LBE1403:
 446              		.loc 3 18 18 view .LVU139
 447 0096 0276     		strb	r2, [r0, #24]
 448              	.LBB1404:
 449              	.LBB1395:
  14:/Users/joostbooy/Desktop/Code/stm32/lib/utils/que.h **** 		read_pos_ = 0;
 450              		.loc 2 14 3 view .LVU140
 451 0098 0365     		str	r3, [r0, #80]
 452              		.loc 2 14 3 view .LVU141
 453              	.LBE1395:
 454              	.LBE1404:
  16:Src/Engine/cvInputEngine.h **** 			note_is_playing[i] = false;
 455              		.loc 3 16 4 is_stmt 1 view .LVU142
ARM GAS  /var/folders/84/_x1cyy_j36g486tldtwl37280000gn/T//ccZ8X9jg.s 			page 14


  17:Src/Engine/cvInputEngine.h **** 			last_value[i] = 0xFF;
 456              		.loc 3 17 23 is_stmt 0 view .LVU143
 457 009a 0374     		strb	r3, [r0, #16]
 458              	.LBB1405:
 459              	.LBB1396:
  13:/Users/joostbooy/Desktop/Code/stm32/lib/utils/que.h **** 		read_pos_ = 0;
 460              		.loc 2 13 3 view .LVU144
 461 009c C0F85431 		str	r3, [r0, #340]
 462              	.LBE1396:
 463              	.LBE1405:
  16:Src/Engine/cvInputEngine.h **** 			note_is_playing[i] = false;
 464              		.loc 3 16 15 view .LVU145
 465 00a0 C0F80080 		str	r8, [r0]	@ float
  17:Src/Engine/cvInputEngine.h **** 			last_value[i] = 0xFF;
 466              		.loc 3 17 4 is_stmt 1 view .LVU146
 467              		.loc 3 18 4 view .LVU147
  14:Src/Engine/cvInputEngine.h **** 			cv_que[i].init();
 468              		.loc 3 14 3 view .LVU148
 469              	.LVL13:
  14:Src/Engine/cvInputEngine.h **** 			cv_que[i].init();
 470              		.loc 3 14 21 view .LVU149
  15:Src/Engine/cvInputEngine.h **** 			filterd[i] = 0.0f;
 471              		.loc 3 15 4 view .LVU150
 472              	.LBB1406:
  12:/Users/joostbooy/Desktop/Code/stm32/lib/utils/que.h **** 		write_pos_ = 0;
 473              		.loc 2 12 14 view .LVU151
 474              	.LBB1397:
 475              		.loc 2 14 3 is_stmt 0 view .LVU152
 476 00a4 C0F85831 		str	r3, [r0, #344]
 477              		.loc 2 14 3 view .LVU153
 478              	.LBE1397:
 479              	.LBE1406:
  16:Src/Engine/cvInputEngine.h **** 			note_is_playing[i] = false;
 480              		.loc 3 16 4 is_stmt 1 view .LVU154
  16:Src/Engine/cvInputEngine.h **** 			note_is_playing[i] = false;
 481              		.loc 3 16 15 is_stmt 0 view .LVU155
 482 00a8 C9F80880 		str	r8, [r9, #8]	@ float
  17:Src/Engine/cvInputEngine.h **** 			last_value[i] = 0xFF;
 483              		.loc 3 17 4 is_stmt 1 view .LVU156
  16:Src/Engine/cvInputEngine.h **** 			note_is_playing[i] = false;
 484              		.loc 3 16 15 is_stmt 0 view .LVU157
 485 00ac 0AF56359 		add	r9, r10, #14528
 486              	.LBE1413:
 487              	.LBE1503:
  14:Src/Engine/engine.cpp **** 	cvInputEngine.init();
  15:Src/Engine/engine.cpp **** 	cvOutputEngine.init();
 488              		.loc 1 15 21 view .LVU158
 489 00b0 43F24867 		movw	r7, #13896
 490 00b4 0AF55C51 		add	r1, r10, #14080
 491 00b8 0AF55955 		add	r5, r10, #13888
 492 00bc 0E31     		adds	r1, r1, #14
 493              	.LBB1504:
 494              	.LBB1414:
  17:Src/Engine/cvInputEngine.h **** 			last_value[i] = 0xFF;
 495              		.loc 3 17 23 view .LVU159
 496 00be 4374     		strb	r3, [r0, #17]
 497              		.loc 3 18 4 is_stmt 1 view .LVU160
ARM GAS  /var/folders/84/_x1cyy_j36g486tldtwl37280000gn/T//ccZ8X9jg.s 			page 15


 498 00c0 0F35     		adds	r5, r5, #15
 499              		.loc 3 18 18 is_stmt 0 view .LVU161
 500 00c2 4276     		strb	r2, [r0, #25]
  14:Src/Engine/cvInputEngine.h **** 			cv_que[i].init();
 501              		.loc 3 14 3 is_stmt 1 view .LVU162
 502              	.LVL14:
  14:Src/Engine/cvInputEngine.h **** 			cv_que[i].init();
 503              		.loc 3 14 21 view .LVU163
  15:Src/Engine/cvInputEngine.h **** 			filterd[i] = 0.0f;
 504              		.loc 3 15 4 view .LVU164
 505              	.LBB1407:
  12:/Users/joostbooy/Desktop/Code/stm32/lib/utils/que.h **** 		write_pos_ = 0;
 506              		.loc 2 12 14 view .LVU165
 507              	.LBB1398:
  13:/Users/joostbooy/Desktop/Code/stm32/lib/utils/que.h **** 		read_pos_ = 0;
 508              		.loc 2 13 3 is_stmt 0 view .LVU166
 509 00c4 C0F85C32 		str	r3, [r0, #604]
 510              		.loc 2 14 3 view .LVU167
 511 00c8 C0F86032 		str	r3, [r0, #608]
 512              		.loc 2 14 3 view .LVU168
 513              	.LBE1398:
 514              	.LBE1407:
  16:Src/Engine/cvInputEngine.h **** 			note_is_playing[i] = false;
 515              		.loc 3 16 4 is_stmt 1 view .LVU169
  16:Src/Engine/cvInputEngine.h **** 			note_is_playing[i] = false;
 516              		.loc 3 16 15 is_stmt 0 view .LVU170
 517 00cc C9F80C80 		str	r8, [r9, #12]	@ float
  17:Src/Engine/cvInputEngine.h **** 			last_value[i] = 0xFF;
 518              		.loc 3 17 4 is_stmt 1 view .LVU171
 519              	.LBB1408:
 520              	.LBB1399:
  13:/Users/joostbooy/Desktop/Code/stm32/lib/utils/que.h **** 		read_pos_ = 0;
 521              		.loc 2 13 3 is_stmt 0 view .LVU172
 522 00d0 C0F86433 		str	r3, [r0, #868]
 523              	.LBE1399:
 524              	.LBE1408:
 525              		.loc 3 18 18 view .LVU173
 526 00d4 8276     		strb	r2, [r0, #26]
  17:Src/Engine/cvInputEngine.h **** 			last_value[i] = 0xFF;
 527              		.loc 3 17 23 view .LVU174
 528 00d6 8374     		strb	r3, [r0, #18]
 529              		.loc 3 18 4 is_stmt 1 view .LVU175
  14:Src/Engine/cvInputEngine.h **** 			cv_que[i].init();
 530              		.loc 3 14 3 view .LVU176
 531              	.LVL15:
  14:Src/Engine/cvInputEngine.h **** 			cv_que[i].init();
 532              		.loc 3 14 21 view .LVU177
  15:Src/Engine/cvInputEngine.h **** 			filterd[i] = 0.0f;
 533              		.loc 3 15 4 view .LVU178
 534              	.LBB1409:
  12:/Users/joostbooy/Desktop/Code/stm32/lib/utils/que.h **** 		write_pos_ = 0;
 535              		.loc 2 12 14 view .LVU179
 536              	.LBB1400:
 537              		.loc 2 14 3 is_stmt 0 view .LVU180
 538 00d8 C0F86833 		str	r3, [r0, #872]
 539              		.loc 2 14 3 view .LVU181
 540              	.LBE1400:
ARM GAS  /var/folders/84/_x1cyy_j36g486tldtwl37280000gn/T//ccZ8X9jg.s 			page 16


 541              	.LBE1409:
  16:Src/Engine/cvInputEngine.h **** 			note_is_playing[i] = false;
 542              		.loc 3 16 4 is_stmt 1 view .LVU182
  16:Src/Engine/cvInputEngine.h **** 			note_is_playing[i] = false;
 543              		.loc 3 16 15 is_stmt 0 view .LVU183
 544 00dc C6F81080 		str	r8, [r6, #16]	@ float
  17:Src/Engine/cvInputEngine.h **** 			last_value[i] = 0xFF;
 545              		.loc 3 17 4 is_stmt 1 view .LVU184
 546              		.loc 3 18 18 is_stmt 0 view .LVU185
 547 00e0 C276     		strb	r2, [r0, #27]
 548              	.LBE1414:
 549              	.LBE1504:
 550              		.loc 1 15 21 view .LVU186
 551 00e2 0AEB0702 		add	r2, r10, r7
 552              	.LBB1505:
 553              	.LBB1506:
 554              	.LBB1507:
 555              	.LBB1508:
 556              	.LBB1509:
 557              		.file 7 "Src/Engine/cvOutputEngine.h"
   1:Src/Engine/cvOutputEngine.h **** #ifndef CvOutputEngine_h
   2:Src/Engine/cvOutputEngine.h **** #define CvOutputEngine_h
   3:Src/Engine/cvOutputEngine.h **** 
   4:Src/Engine/cvOutputEngine.h **** #include "dac.h"
   5:Src/Engine/cvOutputEngine.h **** #include "gateIO.h"
   6:Src/Engine/cvOutputEngine.h **** #include "cvOutput.h"
   7:Src/Engine/cvOutputEngine.h **** #include "midiEvent.h"
   8:Src/Engine/cvOutputEngine.h **** #include "clockEngine.h"
   9:Src/Engine/cvOutputEngine.h **** #include "calibration.h"
  10:Src/Engine/cvOutputEngine.h **** 
  11:Src/Engine/cvOutputEngine.h **** class CvOutputEngine {
  12:Src/Engine/cvOutputEngine.h **** 
  13:Src/Engine/cvOutputEngine.h **** public:
  14:Src/Engine/cvOutputEngine.h **** 	void init() {
  15:Src/Engine/cvOutputEngine.h **** 		reset();
  16:Src/Engine/cvOutputEngine.h **** 
  17:Src/Engine/cvOutputEngine.h **** 		calibrating_ = false;
  18:Src/Engine/cvOutputEngine.h **** 
  19:Src/Engine/cvOutputEngine.h **** 		for (int i = 0; i < MidiEvent::NUM_SOURCES; ++i) {
  20:Src/Engine/cvOutputEngine.h **** 			vel_value[i] = 0;
  21:Src/Engine/cvOutputEngine.h **** 			cc_value[i] = 0;
  22:Src/Engine/cvOutputEngine.h **** 			note_value[i] = 0;
  23:Src/Engine/cvOutputEngine.h **** 			last_note_value[i] = 0;
  24:Src/Engine/cvOutputEngine.h **** 		}
  25:Src/Engine/cvOutputEngine.h **** 	}
  26:Src/Engine/cvOutputEngine.h **** 
  27:Src/Engine/cvOutputEngine.h **** 	void reset() {
  28:Src/Engine/cvOutputEngine.h **** 		is_running_ = false;
  29:Src/Engine/cvOutputEngine.h **** 		trigger_flags = 0;
  30:Src/Engine/cvOutputEngine.h **** 
  31:Src/Engine/cvOutputEngine.h **** 		for (int i = 0; i < MidiEvent::NUM_SOURCES; ++i) {
  32:Src/Engine/cvOutputEngine.h **** 			legato_flag[i] = 0;
  33:Src/Engine/cvOutputEngine.h **** 			note_count[i] = 0;
  34:Src/Engine/cvOutputEngine.h **** 			slide_phase[i] = 0.f;
 558              		.loc 7 34 19 view .LVU187
 559 00e6 0AF55954 		add	r4, r10, #13888
 560              	.LBE1509:
ARM GAS  /var/folders/84/_x1cyy_j36g486tldtwl37280000gn/T//ccZ8X9jg.s 			page 17


 561              	.LBE1508:
 562              	.LBE1507:
 563              	.LBE1506:
 564              	.LBE1505:
 565              	.LBB1549:
 566              	.LBB1415:
  17:Src/Engine/cvInputEngine.h **** 			last_value[i] = 0xFF;
 567              		.loc 3 17 23 view .LVU188
 568 00ea C374     		strb	r3, [r0, #19]
 569              		.loc 3 18 4 is_stmt 1 view .LVU189
  14:Src/Engine/cvInputEngine.h **** 			cv_que[i].init();
 570              		.loc 3 14 3 view .LVU190
 571              	.LVL16:
  14:Src/Engine/cvInputEngine.h **** 			cv_que[i].init();
 572              		.loc 3 14 21 view .LVU191
  14:Src/Engine/cvInputEngine.h **** 			cv_que[i].init();
 573              		.loc 3 14 21 is_stmt 0 view .LVU192
 574              	.LBE1415:
 575              	.LBE1549:
 576              		.loc 1 15 2 is_stmt 1 view .LVU193
 577              	.LBB1550:
 578              	.LBI1505:
  14:Src/Engine/cvOutputEngine.h **** 		reset();
 579              		.loc 7 14 7 view .LVU194
 580              	.LBB1547:
  15:Src/Engine/cvOutputEngine.h **** 
 581              		.loc 7 15 3 view .LVU195
 582              	.LBB1544:
 583              	.LBI1507:
  27:Src/Engine/cvOutputEngine.h **** 		is_running_ = false;
 584              		.loc 7 27 7 view .LVU196
 585              	.LBB1542:
  28:Src/Engine/cvOutputEngine.h **** 		trigger_flags = 0;
 586              		.loc 7 28 3 view .LVU197
 587              	.LBB1510:
 588              		.loc 7 34 19 is_stmt 0 view .LVU198
 589 00ec 2834     		adds	r4, r4, #40
 590              	.LBE1510:
  28:Src/Engine/cvOutputEngine.h **** 		trigger_flags = 0;
 591              		.loc 7 28 15 view .LVU199
 592 00ee 0AF80730 		strb	r3, [r10, r7]
  29:Src/Engine/cvOutputEngine.h **** 
 593              		.loc 7 29 3 is_stmt 1 view .LVU200
  29:Src/Engine/cvOutputEngine.h **** 
 594              		.loc 7 29 17 is_stmt 0 view .LVU201
 595 00f2 5360     		str	r3, [r2, #4]
  31:Src/Engine/cvOutputEngine.h **** 			legato_flag[i] = 0;
 596              		.loc 7 31 3 is_stmt 1 view .LVU202
 597              	.LVL17:
 598              	.LBB1511:
  31:Src/Engine/cvOutputEngine.h **** 			legato_flag[i] = 0;
 599              		.loc 7 31 21 view .LVU203
  32:Src/Engine/cvOutputEngine.h **** 			note_count[i] = 0;
 600              		.loc 7 32 19 is_stmt 0 view .LVU204
 601 00f4 05F8013F 		strb	r3, [r5, #1]!
  33:Src/Engine/cvOutputEngine.h **** 			slide_phase[i] = 0.f;
 602              		.loc 7 33 18 view .LVU205
ARM GAS  /var/folders/84/_x1cyy_j36g486tldtwl37280000gn/T//ccZ8X9jg.s 			page 18


 603 00f8 21F8023F 		strh	r3, [r1, #2]!	@ movhi
  35:Src/Engine/cvOutputEngine.h **** 			bend_value[i] = 0.f;
  36:Src/Engine/cvOutputEngine.h **** 			last_note_value[i] = note_value[i];
 604              		.loc 7 36 23 view .LVU206
 605 00fc B1F87E00 		ldrh	r0, [r1, #126]
  34:Src/Engine/cvOutputEngine.h **** 			bend_value[i] = 0.f;
 606              		.loc 7 34 19 view .LVU207
 607 0100 44F8048B 		str	r8, [r4], #4	@ float
 608 0104 0AF55957 		add	r7, r10, #13888
  35:Src/Engine/cvOutputEngine.h **** 			bend_value[i] = 0.f;
 609              		.loc 7 35 18 view .LVU208
 610 0108 C4F85080 		str	r8, [r4, #80]	@ float
 611              	.LBE1511:
 612              	.LBE1542:
 613              	.LBE1544:
 614              	.LBE1547:
 615              	.LBE1550:
   8:Src/Engine/engine.cpp **** 	state_ = STOPPED;
 616              		.loc 1 8 21 view .LVU209
 617 010c 85B0     		sub	sp, sp, #20
 618              		.cfi_def_cfa_offset 64
 619 010e 07F1240B 		add	fp, r7, #36
 620              	.LVL18:
 621              	.LBB1551:
 622              	.LBB1548:
 623              	.LBB1545:
 624              	.LBB1543:
 625              	.LBB1512:
  32:Src/Engine/cvOutputEngine.h **** 			note_count[i] = 0;
 626              		.loc 7 32 4 is_stmt 1 view .LVU210
  33:Src/Engine/cvOutputEngine.h **** 			slide_phase[i] = 0.f;
 627              		.loc 7 33 4 view .LVU211
  34:Src/Engine/cvOutputEngine.h **** 			bend_value[i] = 0.f;
 628              		.loc 7 34 4 view .LVU212
  35:Src/Engine/cvOutputEngine.h **** 			last_note_value[i] = note_value[i];
 629              		.loc 7 35 4 view .LVU213
 630              		.loc 7 36 4 view .LVU214
 631              		.loc 7 36 23 is_stmt 0 view .LVU215
 632 0112 A1F8A800 		strh	r0, [r1, #168]	@ movhi
  31:Src/Engine/cvOutputEngine.h **** 			legato_flag[i] = 0;
 633              		.loc 7 31 3 is_stmt 1 view .LVU216
  31:Src/Engine/cvOutputEngine.h **** 			legato_flag[i] = 0;
 634              		.loc 7 31 21 view .LVU217
 635              	.L2:
  32:Src/Engine/cvOutputEngine.h **** 			note_count[i] = 0;
 636              		.loc 7 32 4 view .LVU218
  34:Src/Engine/cvOutputEngine.h **** 			bend_value[i] = 0.f;
 637              		.loc 7 34 19 is_stmt 0 view .LVU219
 638 0116 2646     		mov	r6, r4
  32:Src/Engine/cvOutputEngine.h **** 			note_count[i] = 0;
 639              		.loc 7 32 19 view .LVU220
 640 0118 0023     		movs	r3, #0
  34:Src/Engine/cvOutputEngine.h **** 			bend_value[i] = 0.f;
 641              		.loc 7 34 19 view .LVU221
 642 011a 4FF0000E 		mov	lr, #0
  32:Src/Engine/cvOutputEngine.h **** 			note_count[i] = 0;
 643              		.loc 7 32 19 view .LVU222
ARM GAS  /var/folders/84/_x1cyy_j36g486tldtwl37280000gn/T//ccZ8X9jg.s 			page 19


 644 011e 6B70     		strb	r3, [r5, #1]
  33:Src/Engine/cvOutputEngine.h **** 			slide_phase[i] = 0.f;
 645              		.loc 7 33 4 is_stmt 1 view .LVU223
 646              		.loc 7 36 23 is_stmt 0 view .LVU224
 647 0120 B1F88000 		ldrh	r0, [r1, #128]
  33:Src/Engine/cvOutputEngine.h **** 			slide_phase[i] = 0.f;
 648              		.loc 7 33 18 view .LVU225
 649 0124 4B80     		strh	r3, [r1, #2]	@ movhi
  34:Src/Engine/cvOutputEngine.h **** 			bend_value[i] = 0.f;
 650              		.loc 7 34 4 is_stmt 1 view .LVU226
 651 0126 01F1040C 		add	ip, r1, #4
  34:Src/Engine/cvOutputEngine.h **** 			bend_value[i] = 0.f;
 652              		.loc 7 34 19 is_stmt 0 view .LVU227
 653 012a 46F804EB 		str	lr, [r6], #4	@ float
  35:Src/Engine/cvOutputEngine.h **** 			last_note_value[i] = note_value[i];
 654              		.loc 7 35 4 is_stmt 1 view .LVU228
 655              		.loc 7 36 23 is_stmt 0 view .LVU229
 656 012e B1F88270 		ldrh	r7, [r1, #130]
  35:Src/Engine/cvOutputEngine.h **** 			last_note_value[i] = note_value[i];
 657              		.loc 7 35 18 view .LVU230
 658 0132 C6F850E0 		str	lr, [r6, #80]	@ float
 659              		.loc 7 36 4 is_stmt 1 view .LVU231
 660              		.loc 7 36 23 is_stmt 0 view .LVU232
 661 0136 A1F8AA00 		strh	r0, [r1, #170]	@ movhi
  31:Src/Engine/cvOutputEngine.h **** 			legato_flag[i] = 0;
 662              		.loc 7 31 3 is_stmt 1 view .LVU233
  31:Src/Engine/cvOutputEngine.h **** 			legato_flag[i] = 0;
 663              		.loc 7 31 21 view .LVU234
  32:Src/Engine/cvOutputEngine.h **** 			note_count[i] = 0;
 664              		.loc 7 32 4 view .LVU235
  32:Src/Engine/cvOutputEngine.h **** 			note_count[i] = 0;
 665              		.loc 7 32 19 is_stmt 0 view .LVU236
 666 013a AB70     		strb	r3, [r5, #2]
  33:Src/Engine/cvOutputEngine.h **** 			slide_phase[i] = 0.f;
 667              		.loc 7 33 4 is_stmt 1 view .LVU237
  33:Src/Engine/cvOutputEngine.h **** 			slide_phase[i] = 0.f;
 668              		.loc 7 33 18 is_stmt 0 view .LVU238
 669 013c 8B80     		strh	r3, [r1, #4]	@ movhi
  34:Src/Engine/cvOutputEngine.h **** 			bend_value[i] = 0.f;
 670              		.loc 7 34 4 is_stmt 1 view .LVU239
  35:Src/Engine/cvOutputEngine.h **** 			last_note_value[i] = note_value[i];
 671              		.loc 7 35 4 view .LVU240
  34:Src/Engine/cvOutputEngine.h **** 			bend_value[i] = 0.f;
 672              		.loc 7 34 19 is_stmt 0 view .LVU241
 673 013e C4F804E0 		str	lr, [r4, #4]	@ float
  35:Src/Engine/cvOutputEngine.h **** 			last_note_value[i] = note_value[i];
 674              		.loc 7 35 18 view .LVU242
 675 0142 C6F854E0 		str	lr, [r6, #84]	@ float
 676              		.loc 7 36 4 is_stmt 1 view .LVU243
 677              		.loc 7 36 23 is_stmt 0 view .LVU244
 678 0146 ACF8A870 		strh	r7, [ip, #168]	@ movhi
  31:Src/Engine/cvOutputEngine.h **** 			legato_flag[i] = 0;
 679              		.loc 7 31 3 is_stmt 1 view .LVU245
  31:Src/Engine/cvOutputEngine.h **** 			legato_flag[i] = 0;
 680              		.loc 7 31 21 view .LVU246
  32:Src/Engine/cvOutputEngine.h **** 			note_count[i] = 0;
 681              		.loc 7 32 4 view .LVU247
ARM GAS  /var/folders/84/_x1cyy_j36g486tldtwl37280000gn/T//ccZ8X9jg.s 			page 20


 682              		.loc 7 36 23 is_stmt 0 view .LVU248
 683 014a B1F88400 		ldrh	r0, [r1, #132]
  32:Src/Engine/cvOutputEngine.h **** 			note_count[i] = 0;
 684              		.loc 7 32 19 view .LVU249
 685 014e EB70     		strb	r3, [r5, #3]
  33:Src/Engine/cvOutputEngine.h **** 			slide_phase[i] = 0.f;
 686              		.loc 7 33 4 is_stmt 1 view .LVU250
  33:Src/Engine/cvOutputEngine.h **** 			slide_phase[i] = 0.f;
 687              		.loc 7 33 18 is_stmt 0 view .LVU251
 688 0150 CB80     		strh	r3, [r1, #6]	@ movhi
  34:Src/Engine/cvOutputEngine.h **** 			bend_value[i] = 0.f;
 689              		.loc 7 34 4 is_stmt 1 view .LVU252
  35:Src/Engine/cvOutputEngine.h **** 			last_note_value[i] = note_value[i];
 690              		.loc 7 35 4 view .LVU253
  34:Src/Engine/cvOutputEngine.h **** 			bend_value[i] = 0.f;
 691              		.loc 7 34 19 is_stmt 0 view .LVU254
 692 0152 C6F804E0 		str	lr, [r6, #4]	@ float
 693              		.loc 7 36 23 view .LVU255
 694 0156 B1F88660 		ldrh	r6, [r1, #134]
  35:Src/Engine/cvOutputEngine.h **** 			last_note_value[i] = note_value[i];
 695              		.loc 7 35 18 view .LVU256
 696 015a C4F85CE0 		str	lr, [r4, #92]	@ float
 697              		.loc 7 36 4 is_stmt 1 view .LVU257
 698              		.loc 7 36 23 is_stmt 0 view .LVU258
 699 015e A1F8AE00 		strh	r0, [r1, #174]	@ movhi
  31:Src/Engine/cvOutputEngine.h **** 			legato_flag[i] = 0;
 700              		.loc 7 31 3 is_stmt 1 view .LVU259
  31:Src/Engine/cvOutputEngine.h **** 			legato_flag[i] = 0;
 701              		.loc 7 31 21 view .LVU260
  32:Src/Engine/cvOutputEngine.h **** 			note_count[i] = 0;
 702              		.loc 7 32 4 view .LVU261
  32:Src/Engine/cvOutputEngine.h **** 			note_count[i] = 0;
 703              		.loc 7 32 19 is_stmt 0 view .LVU262
 704 0162 2B71     		strb	r3, [r5, #4]
  33:Src/Engine/cvOutputEngine.h **** 			slide_phase[i] = 0.f;
 705              		.loc 7 33 4 is_stmt 1 view .LVU263
  33:Src/Engine/cvOutputEngine.h **** 			slide_phase[i] = 0.f;
 706              		.loc 7 33 18 is_stmt 0 view .LVU264
 707 0164 0B81     		strh	r3, [r1, #8]	@ movhi
  34:Src/Engine/cvOutputEngine.h **** 			bend_value[i] = 0.f;
 708              		.loc 7 34 4 is_stmt 1 view .LVU265
  35:Src/Engine/cvOutputEngine.h **** 			last_note_value[i] = note_value[i];
 709              		.loc 7 35 4 view .LVU266
  34:Src/Engine/cvOutputEngine.h **** 			bend_value[i] = 0.f;
 710              		.loc 7 34 19 is_stmt 0 view .LVU267
 711 0166 C4F80CE0 		str	lr, [r4, #12]	@ float
  35:Src/Engine/cvOutputEngine.h **** 			last_note_value[i] = note_value[i];
 712              		.loc 7 35 18 view .LVU268
 713 016a C4F860E0 		str	lr, [r4, #96]	@ float
 714              		.loc 7 36 4 is_stmt 1 view .LVU269
 715              		.loc 7 36 23 is_stmt 0 view .LVU270
 716 016e A1F8B060 		strh	r6, [r1, #176]	@ movhi
  31:Src/Engine/cvOutputEngine.h **** 			legato_flag[i] = 0;
 717              		.loc 7 31 3 is_stmt 1 view .LVU271
  31:Src/Engine/cvOutputEngine.h **** 			legato_flag[i] = 0;
 718              		.loc 7 31 21 view .LVU272
  32:Src/Engine/cvOutputEngine.h **** 			note_count[i] = 0;
ARM GAS  /var/folders/84/_x1cyy_j36g486tldtwl37280000gn/T//ccZ8X9jg.s 			page 21


 719              		.loc 7 32 4 view .LVU273
  32:Src/Engine/cvOutputEngine.h **** 			note_count[i] = 0;
 720              		.loc 7 32 19 is_stmt 0 view .LVU274
 721 0172 05F8053F 		strb	r3, [r5, #5]!
  33:Src/Engine/cvOutputEngine.h **** 			slide_phase[i] = 0.f;
 722              		.loc 7 33 4 is_stmt 1 view .LVU275
  33:Src/Engine/cvOutputEngine.h **** 			slide_phase[i] = 0.f;
 723              		.loc 7 33 18 is_stmt 0 view .LVU276
 724 0176 21F80A3F 		strh	r3, [r1, #10]!	@ movhi
  34:Src/Engine/cvOutputEngine.h **** 			bend_value[i] = 0.f;
 725              		.loc 7 34 4 is_stmt 1 view .LVU277
 726 017a 1434     		adds	r4, r4, #20
  34:Src/Engine/cvOutputEngine.h **** 			bend_value[i] = 0.f;
 727              		.loc 7 34 19 is_stmt 0 view .LVU278
 728 017c 44F804EC 		str	lr, [r4, #-4]	@ float
  35:Src/Engine/cvOutputEngine.h **** 			last_note_value[i] = note_value[i];
 729              		.loc 7 35 4 is_stmt 1 view .LVU279
 730              		.loc 7 36 23 is_stmt 0 view .LVU280
 731 0180 B1F87E70 		ldrh	r7, [r1, #126]
  35:Src/Engine/cvOutputEngine.h **** 			last_note_value[i] = note_value[i];
 732              		.loc 7 35 18 view .LVU281
 733 0184 C4F850E0 		str	lr, [r4, #80]	@ float
 734              		.loc 7 36 4 is_stmt 1 view .LVU282
  31:Src/Engine/cvOutputEngine.h **** 			legato_flag[i] = 0;
 735              		.loc 7 31 21 is_stmt 0 view .LVU283
 736 0188 5D45     		cmp	r5, fp
 737              		.loc 7 36 23 view .LVU284
 738 018a A1F8A870 		strh	r7, [r1, #168]	@ movhi
  31:Src/Engine/cvOutputEngine.h **** 			legato_flag[i] = 0;
 739              		.loc 7 31 3 is_stmt 1 view .LVU285
  31:Src/Engine/cvOutputEngine.h **** 			legato_flag[i] = 0;
 740              		.loc 7 31 21 view .LVU286
 741 018e C2D1     		bne	.L2
 742              	.LVL19:
  31:Src/Engine/cvOutputEngine.h **** 			legato_flag[i] = 0;
 743              		.loc 7 31 21 is_stmt 0 view .LVU287
 744              	.LBE1512:
 745              	.LBB1513:
  37:Src/Engine/cvOutputEngine.h **** 		}
  38:Src/Engine/cvOutputEngine.h **** 
  39:Src/Engine/cvOutputEngine.h **** 		for (int i = 0; i < CvOutput::NUM_PORTS; ++i) {
  40:Src/Engine/cvOutputEngine.h **** 			clock[i].reset();
 746              		.loc 7 40 4 is_stmt 1 view .LVU288
 747              	.LBB1514:
 748              	.LBI1514:
 749              		.file 8 "Src/Engine/clockEngine.h"
   1:Src/Engine/clockEngine.h **** #ifndef ClockEngine_h
   2:Src/Engine/clockEngine.h **** #define ClockEngine_h
   3:Src/Engine/clockEngine.h **** 
   4:Src/Engine/clockEngine.h **** #include "lookupTables.h"
   5:Src/Engine/clockEngine.h **** #include "stringBuilder.h"
   6:Src/Engine/clockEngine.h **** #include "uiText.h"
   7:Src/Engine/clockEngine.h **** #include "rng.h"
   8:Src/Engine/clockEngine.h **** 
   9:Src/Engine/clockEngine.h **** class ClockEngine {
  10:Src/Engine/clockEngine.h **** 
  11:Src/Engine/clockEngine.h **** public:
ARM GAS  /var/folders/84/_x1cyy_j36g486tldtwl37280000gn/T//ccZ8X9jg.s 			page 22


  12:Src/Engine/clockEngine.h **** 
  13:Src/Engine/clockEngine.h **** 	enum Speed {
  14:Src/Engine/clockEngine.h **** 		DOTTED_1TH,
  15:Src/Engine/clockEngine.h **** 		WHOLE_1TH,
  16:Src/Engine/clockEngine.h **** 		TRIPLET_1TH,
  17:Src/Engine/clockEngine.h **** 		DOTTED_2TH,
  18:Src/Engine/clockEngine.h **** 		WHOLE_2TH,
  19:Src/Engine/clockEngine.h **** 		TRIPLET_2TH,
  20:Src/Engine/clockEngine.h **** 		DOTTED_4TH,
  21:Src/Engine/clockEngine.h **** 		WHOLE_4TH,
  22:Src/Engine/clockEngine.h **** 		TRIPLET_4TH,
  23:Src/Engine/clockEngine.h **** 		DOTTED_8TH,
  24:Src/Engine/clockEngine.h **** 		WHOLE_8TH,
  25:Src/Engine/clockEngine.h **** 		TRIPLET_8TH,
  26:Src/Engine/clockEngine.h **** 		DOTTED_16TH,
  27:Src/Engine/clockEngine.h **** 		WHOLE_16TH,
  28:Src/Engine/clockEngine.h **** 		TRIPLET_16TH,
  29:Src/Engine/clockEngine.h **** 		DOTTED_32TH,
  30:Src/Engine/clockEngine.h **** 		WHOLE_32TH,
  31:Src/Engine/clockEngine.h **** 		TRIPLET_32TH,
  32:Src/Engine/clockEngine.h **** 
  33:Src/Engine/clockEngine.h **** 		NUM_SIGNATURES
  34:Src/Engine/clockEngine.h **** 	};
  35:Src/Engine/clockEngine.h **** 
  36:Src/Engine/clockEngine.h **** 	static const char* speed_text_small(int value) {
  37:Src/Engine/clockEngine.h **** 		switch (value)
  38:Src/Engine/clockEngine.h **** 		{
  39:Src/Engine/clockEngine.h **** 		case DOTTED_1TH: 	return "1D";
  40:Src/Engine/clockEngine.h **** 		case WHOLE_1TH:		return "1";
  41:Src/Engine/clockEngine.h **** 		case TRIPLET_1TH:	return "1T";
  42:Src/Engine/clockEngine.h **** 		case DOTTED_2TH: 	return "2D";
  43:Src/Engine/clockEngine.h **** 		case WHOLE_2TH:		return "2";
  44:Src/Engine/clockEngine.h **** 		case TRIPLET_2TH:	return "2T";
  45:Src/Engine/clockEngine.h **** 		case DOTTED_4TH:	return "4D";
  46:Src/Engine/clockEngine.h **** 		case WHOLE_4TH:		return "4";
  47:Src/Engine/clockEngine.h **** 		case TRIPLET_4TH:	return "4T";
  48:Src/Engine/clockEngine.h **** 		case DOTTED_8TH:	return "8D";
  49:Src/Engine/clockEngine.h **** 		case WHOLE_8TH:		return "8";
  50:Src/Engine/clockEngine.h **** 		case TRIPLET_8TH:	return "8T";
  51:Src/Engine/clockEngine.h **** 		case DOTTED_16TH:	return "16D";
  52:Src/Engine/clockEngine.h **** 		case WHOLE_16TH:	return "16";
  53:Src/Engine/clockEngine.h **** 		case TRIPLET_16TH:	return "16T";
  54:Src/Engine/clockEngine.h **** 		case DOTTED_32TH:	return "32D";
  55:Src/Engine/clockEngine.h **** 		case WHOLE_32TH:	return "32";
  56:Src/Engine/clockEngine.h **** 		case TRIPLET_32TH:	return "32T";
  57:Src/Engine/clockEngine.h **** 		default:			return nullptr;
  58:Src/Engine/clockEngine.h **** 			break;
  59:Src/Engine/clockEngine.h **** 		}
  60:Src/Engine/clockEngine.h **** 	}
  61:Src/Engine/clockEngine.h **** 
  62:Src/Engine/clockEngine.h **** 	static const char* speed_text(int value) {
  63:Src/Engine/clockEngine.h **** 		UiText::str.write("1/");
  64:Src/Engine/clockEngine.h **** 		UiText::str.append(speed_text_small(value));
  65:Src/Engine/clockEngine.h **** 		return UiText::str.read();
  66:Src/Engine/clockEngine.h **** 	}
  67:Src/Engine/clockEngine.h **** 
  68:Src/Engine/clockEngine.h **** 	void set_speed(uint8_t speed) {
ARM GAS  /var/folders/84/_x1cyy_j36g486tldtwl37280000gn/T//ccZ8X9jg.s 			page 23


  69:Src/Engine/clockEngine.h **** 		speed_ = speed;
  70:Src/Engine/clockEngine.h **** 	}
  71:Src/Engine/clockEngine.h **** 
  72:Src/Engine/clockEngine.h **** 	void reset() {
 750              		.loc 8 72 7 view .LVU289
 751              	.LBB1515:
  73:Src/Engine/clockEngine.h **** 		triggered_ = 0;
 752              		.loc 8 73 3 view .LVU290
 753 0190 0AF55C54 		add	r4, r10, #14080
  74:Src/Engine/clockEngine.h **** 		ticks_passed_ = 0;
  75:Src/Engine/clockEngine.h **** 
  76:Src/Engine/clockEngine.h **** 		prescaler_32th_triplet = 0;
 754              		.loc 8 76 26 is_stmt 0 view .LVU291
 755 0194 43F2EC71 		movw	r1, #14316
 756              	.LBE1515:
 757              	.LBE1514:
  41:Src/Engine/cvOutputEngine.h **** 			clock_ticks[i] = 0;
 758              		.loc 7 41 19 view .LVU292
 759 0198 43F6A405 		movw	r5, #14500
 760              	.LBB1529:
 761              	.LBB1516:
 762              		.loc 8 76 26 view .LVU293
 763 019c 43F60406 		movw	r6, #14340
 764              	.LBE1516:
 765              	.LBE1529:
 766              		.loc 7 41 19 view .LVU294
 767 01a0 43F6A807 		movw	r7, #14504
 768              	.LBB1530:
 769              	.LBB1517:
 770              		.loc 8 76 26 view .LVU295
 771 01a4 43F61C08 		movw	r8, #14364
 772              	.LBE1517:
 773              	.LBE1530:
 774              		.loc 7 41 19 view .LVU296
 775 01a8 43F6AC09 		movw	r9, #14508
 776              	.LBB1531:
 777              	.LBB1518:
 778              		.loc 8 76 26 view .LVU297
 779 01ac 43F6340B 		movw	fp, #14388
 780              	.LBE1518:
 781              	.LBE1531:
 782              		.loc 7 41 19 view .LVU298
 783 01b0 43F6B00E 		movw	lr, #14512
 784 01b4 3834     		adds	r4, r4, #56
 785              	.LBB1532:
 786              	.LBB1519:
  73:Src/Engine/clockEngine.h **** 		triggered_ = 0;
 787              		.loc 8 73 14 view .LVU299
 788 01b6 82F89D31 		strb	r3, [r2, #413]
  74:Src/Engine/clockEngine.h **** 		ticks_passed_ = 0;
 789              		.loc 8 74 3 is_stmt 1 view .LVU300
 790              		.loc 8 76 3 view .LVU301
  77:Src/Engine/clockEngine.h **** 		prescaler_32th_whole = 0;
 791              		.loc 8 77 3 view .LVU302
  78:Src/Engine/clockEngine.h **** 		prescaler_32th_dotted = 0;
 792              		.loc 8 78 3 view .LVU303
  74:Src/Engine/clockEngine.h **** 
ARM GAS  /var/folders/84/_x1cyy_j36g486tldtwl37280000gn/T//ccZ8X9jg.s 			page 24


 793              		.loc 8 74 17 is_stmt 0 view .LVU304
 794 01ba C2F8A031 		str	r3, [r2, #416]
  76:Src/Engine/clockEngine.h **** 		prescaler_32th_whole = 0;
 795              		.loc 8 76 26 view .LVU305
 796 01be 43F64C0C 		movw	ip, #14412
 797 01c2 2AF80130 		strh	r3, [r10, r1]	@ movhi
  79:Src/Engine/clockEngine.h **** 
  80:Src/Engine/clockEngine.h **** 		ticks_32th_triplet = 0;
  81:Src/Engine/clockEngine.h **** 		ticks_32th_whole = 0;
 798              		.loc 8 81 20 view .LVU306
 799 01c6 C2E96A33 		strd	r3, r3, [r2, #424]
  78:Src/Engine/clockEngine.h **** 
 800              		.loc 8 78 25 view .LVU307
 801 01ca 82F8A631 		strb	r3, [r2, #422]
  80:Src/Engine/clockEngine.h **** 		ticks_32th_whole = 0;
 802              		.loc 8 80 3 is_stmt 1 view .LVU308
  82:Src/Engine/clockEngine.h **** 		ticks_32th_dotted = 0;
 803              		.loc 8 82 3 view .LVU309
 804              		.loc 8 82 21 is_stmt 0 view .LVU310
 805 01ce C2F8B031 		str	r3, [r2, #432]
 806              	.LVL20:
 807              		.loc 8 82 21 view .LVU311
 808              	.LBE1519:
 809              	.LBE1532:
 810              		.loc 7 41 4 is_stmt 1 view .LVU312
 811              	.LBB1533:
 812              	.LBB1520:
  76:Src/Engine/clockEngine.h **** 		prescaler_32th_whole = 0;
 813              		.loc 8 76 26 is_stmt 0 view .LVU313
 814 01d2 43F66401 		movw	r1, #14436
 815              	.LBE1520:
 816              	.LBE1533:
 817              		.loc 7 41 19 view .LVU314
 818 01d6 4AF80530 		str	r3, [r10, r5]
  39:Src/Engine/cvOutputEngine.h **** 			clock[i].reset();
 819              		.loc 7 39 3 is_stmt 1 view .LVU315
 820              	.LVL21:
  39:Src/Engine/cvOutputEngine.h **** 			clock[i].reset();
 821              		.loc 7 39 21 view .LVU316
  40:Src/Engine/cvOutputEngine.h **** 			clock_ticks[i] = 0;
 822              		.loc 7 40 4 view .LVU317
 823              	.LBB1534:
  72:Src/Engine/clockEngine.h **** 		triggered_ = 0;
 824              		.loc 8 72 7 view .LVU318
 825              	.LBB1521:
  73:Src/Engine/clockEngine.h **** 		ticks_passed_ = 0;
 826              		.loc 8 73 3 view .LVU319
  73:Src/Engine/clockEngine.h **** 		ticks_passed_ = 0;
 827              		.loc 8 73 14 is_stmt 0 view .LVU320
 828 01da 82F8B531 		strb	r3, [r2, #437]
  74:Src/Engine/clockEngine.h **** 
 829              		.loc 8 74 3 is_stmt 1 view .LVU321
  76:Src/Engine/clockEngine.h **** 		prescaler_32th_whole = 0;
 830              		.loc 8 76 3 view .LVU322
  77:Src/Engine/clockEngine.h **** 		prescaler_32th_dotted = 0;
 831              		.loc 8 77 3 view .LVU323
  78:Src/Engine/clockEngine.h **** 
ARM GAS  /var/folders/84/_x1cyy_j36g486tldtwl37280000gn/T//ccZ8X9jg.s 			page 25


 832              		.loc 8 78 3 view .LVU324
  74:Src/Engine/clockEngine.h **** 
 833              		.loc 8 74 17 is_stmt 0 view .LVU325
 834 01de C2F8B831 		str	r3, [r2, #440]
 835              	.LBE1521:
 836              	.LBE1534:
 837              		.loc 7 41 19 view .LVU326
 838 01e2 43F6B405 		movw	r5, #14516
 839              	.LBB1535:
 840              	.LBB1522:
  76:Src/Engine/clockEngine.h **** 		prescaler_32th_whole = 0;
 841              		.loc 8 76 26 view .LVU327
 842 01e6 2AF80630 		strh	r3, [r10, r6]	@ movhi
  81:Src/Engine/clockEngine.h **** 		ticks_32th_dotted = 0;
 843              		.loc 8 81 20 view .LVU328
 844 01ea C2E97033 		strd	r3, r3, [r2, #448]
  78:Src/Engine/clockEngine.h **** 
 845              		.loc 8 78 25 view .LVU329
 846 01ee 82F8BE31 		strb	r3, [r2, #446]
  80:Src/Engine/clockEngine.h **** 		ticks_32th_whole = 0;
 847              		.loc 8 80 3 is_stmt 1 view .LVU330
 848              		.loc 8 82 3 view .LVU331
 849              		.loc 8 82 21 is_stmt 0 view .LVU332
 850 01f2 C2F8C831 		str	r3, [r2, #456]
 851              	.LVL22:
 852              		.loc 8 82 21 view .LVU333
 853              	.LBE1522:
 854              	.LBE1535:
 855              		.loc 7 41 4 is_stmt 1 view .LVU334
 856              		.loc 7 41 19 is_stmt 0 view .LVU335
 857 01f6 43F6B806 		movw	r6, #14520
 858 01fa 4AF80730 		str	r3, [r10, r7]
  39:Src/Engine/cvOutputEngine.h **** 			clock[i].reset();
 859              		.loc 7 39 3 is_stmt 1 view .LVU336
 860              	.LVL23:
  39:Src/Engine/cvOutputEngine.h **** 			clock[i].reset();
 861              		.loc 7 39 21 view .LVU337
  40:Src/Engine/cvOutputEngine.h **** 			clock_ticks[i] = 0;
 862              		.loc 7 40 4 view .LVU338
 863              	.LBB1536:
  72:Src/Engine/clockEngine.h **** 		triggered_ = 0;
 864              		.loc 8 72 7 view .LVU339
 865              	.LBB1523:
  73:Src/Engine/clockEngine.h **** 		ticks_passed_ = 0;
 866              		.loc 8 73 3 view .LVU340
  73:Src/Engine/clockEngine.h **** 		ticks_passed_ = 0;
 867              		.loc 8 73 14 is_stmt 0 view .LVU341
 868 01fe 82F8CD31 		strb	r3, [r2, #461]
  74:Src/Engine/clockEngine.h **** 
 869              		.loc 8 74 3 is_stmt 1 view .LVU342
  76:Src/Engine/clockEngine.h **** 		prescaler_32th_whole = 0;
 870              		.loc 8 76 3 view .LVU343
  77:Src/Engine/clockEngine.h **** 		prescaler_32th_dotted = 0;
 871              		.loc 8 77 3 view .LVU344
  78:Src/Engine/clockEngine.h **** 
 872              		.loc 8 78 3 view .LVU345
  74:Src/Engine/clockEngine.h **** 
ARM GAS  /var/folders/84/_x1cyy_j36g486tldtwl37280000gn/T//ccZ8X9jg.s 			page 26


 873              		.loc 8 74 17 is_stmt 0 view .LVU346
 874 0202 C2F8D031 		str	r3, [r2, #464]
  76:Src/Engine/clockEngine.h **** 		prescaler_32th_whole = 0;
 875              		.loc 8 76 26 view .LVU347
 876 0206 43F67C07 		movw	r7, #14460
 877 020a 2AF80830 		strh	r3, [r10, r8]	@ movhi
  81:Src/Engine/clockEngine.h **** 		ticks_32th_dotted = 0;
 878              		.loc 8 81 20 view .LVU348
 879 020e C2E97633 		strd	r3, r3, [r2, #472]
  78:Src/Engine/clockEngine.h **** 
 880              		.loc 8 78 25 view .LVU349
 881 0212 82F8D631 		strb	r3, [r2, #470]
  80:Src/Engine/clockEngine.h **** 		ticks_32th_whole = 0;
 882              		.loc 8 80 3 is_stmt 1 view .LVU350
 883              		.loc 8 82 3 view .LVU351
 884              		.loc 8 82 21 is_stmt 0 view .LVU352
 885 0216 C2F8E031 		str	r3, [r2, #480]
 886              	.LVL24:
 887              		.loc 8 82 21 view .LVU353
 888              	.LBE1523:
 889              	.LBE1536:
 890              		.loc 7 41 4 is_stmt 1 view .LVU354
 891              		.loc 7 41 19 is_stmt 0 view .LVU355
 892 021a 43F6BC08 		movw	r8, #14524
 893 021e 4AF80930 		str	r3, [r10, r9]
  39:Src/Engine/cvOutputEngine.h **** 			clock[i].reset();
 894              		.loc 7 39 3 is_stmt 1 view .LVU356
 895              	.LVL25:
  39:Src/Engine/cvOutputEngine.h **** 			clock[i].reset();
 896              		.loc 7 39 21 view .LVU357
  40:Src/Engine/cvOutputEngine.h **** 			clock_ticks[i] = 0;
 897              		.loc 7 40 4 view .LVU358
 898              	.LBB1537:
  72:Src/Engine/clockEngine.h **** 		triggered_ = 0;
 899              		.loc 8 72 7 view .LVU359
 900              	.LBB1524:
  73:Src/Engine/clockEngine.h **** 		ticks_passed_ = 0;
 901              		.loc 8 73 3 view .LVU360
  73:Src/Engine/clockEngine.h **** 		ticks_passed_ = 0;
 902              		.loc 8 73 14 is_stmt 0 view .LVU361
 903 0222 82F8E531 		strb	r3, [r2, #485]
  74:Src/Engine/clockEngine.h **** 
 904              		.loc 8 74 3 is_stmt 1 view .LVU362
  76:Src/Engine/clockEngine.h **** 		prescaler_32th_whole = 0;
 905              		.loc 8 76 3 view .LVU363
  77:Src/Engine/clockEngine.h **** 		prescaler_32th_dotted = 0;
 906              		.loc 8 77 3 view .LVU364
  78:Src/Engine/clockEngine.h **** 
 907              		.loc 8 78 3 view .LVU365
  74:Src/Engine/clockEngine.h **** 
 908              		.loc 8 74 17 is_stmt 0 view .LVU366
 909 0226 C2F8E831 		str	r3, [r2, #488]
  76:Src/Engine/clockEngine.h **** 		prescaler_32th_whole = 0;
 910              		.loc 8 76 26 view .LVU367
 911 022a 43F69409 		movw	r9, #14484
 912 022e 2AF80B30 		strh	r3, [r10, fp]	@ movhi
  81:Src/Engine/clockEngine.h **** 		ticks_32th_dotted = 0;
ARM GAS  /var/folders/84/_x1cyy_j36g486tldtwl37280000gn/T//ccZ8X9jg.s 			page 27


 913              		.loc 8 81 20 view .LVU368
 914 0232 C2E97C33 		strd	r3, r3, [r2, #496]
  78:Src/Engine/clockEngine.h **** 
 915              		.loc 8 78 25 view .LVU369
 916 0236 82F8EE31 		strb	r3, [r2, #494]
  80:Src/Engine/clockEngine.h **** 		ticks_32th_whole = 0;
 917              		.loc 8 80 3 is_stmt 1 view .LVU370
 918              		.loc 8 82 3 view .LVU371
 919              		.loc 8 82 21 is_stmt 0 view .LVU372
 920 023a C2F8F831 		str	r3, [r2, #504]
 921              	.LVL26:
 922              		.loc 8 82 21 view .LVU373
 923              	.LBE1524:
 924              	.LBE1537:
 925              		.loc 7 41 4 is_stmt 1 view .LVU374
 926              		.loc 7 41 19 is_stmt 0 view .LVU375
 927 023e 0AF5635B 		add	fp, r10, #14528
 928 0242 4AF80E30 		str	r3, [r10, lr]
  39:Src/Engine/cvOutputEngine.h **** 			clock[i].reset();
 929              		.loc 7 39 3 is_stmt 1 view .LVU376
 930              	.LVL27:
  39:Src/Engine/cvOutputEngine.h **** 			clock[i].reset();
 931              		.loc 7 39 21 view .LVU377
  40:Src/Engine/cvOutputEngine.h **** 			clock_ticks[i] = 0;
 932              		.loc 7 40 4 view .LVU378
 933              	.LBB1538:
  72:Src/Engine/clockEngine.h **** 		triggered_ = 0;
 934              		.loc 8 72 7 view .LVU379
 935              	.LBB1525:
  73:Src/Engine/clockEngine.h **** 		ticks_passed_ = 0;
 936              		.loc 8 73 3 view .LVU380
 937 0246 A646     		mov	lr, r4
  73:Src/Engine/clockEngine.h **** 		ticks_passed_ = 0;
 938              		.loc 8 73 14 is_stmt 0 view .LVU381
 939 0248 82F8FD31 		strb	r3, [r2, #509]
  74:Src/Engine/clockEngine.h **** 
 940              		.loc 8 74 3 is_stmt 1 view .LVU382
  76:Src/Engine/clockEngine.h **** 		prescaler_32th_whole = 0;
 941              		.loc 8 76 3 view .LVU383
  77:Src/Engine/clockEngine.h **** 		prescaler_32th_dotted = 0;
 942              		.loc 8 77 3 view .LVU384
  78:Src/Engine/clockEngine.h **** 
 943              		.loc 8 78 3 view .LVU385
  74:Src/Engine/clockEngine.h **** 
 944              		.loc 8 74 17 is_stmt 0 view .LVU386
 945 024c C2F80032 		str	r3, [r2, #512]
  76:Src/Engine/clockEngine.h **** 		prescaler_32th_whole = 0;
 946              		.loc 8 76 26 view .LVU387
 947 0250 2AF80C30 		strh	r3, [r10, ip]	@ movhi
  81:Src/Engine/clockEngine.h **** 		ticks_32th_dotted = 0;
 948              		.loc 8 81 20 view .LVU388
 949 0254 C2E98233 		strd	r3, r3, [r2, #520]
  78:Src/Engine/clockEngine.h **** 
 950              		.loc 8 78 25 view .LVU389
 951 0258 82F80632 		strb	r3, [r2, #518]
  80:Src/Engine/clockEngine.h **** 		ticks_32th_whole = 0;
 952              		.loc 8 80 3 is_stmt 1 view .LVU390
ARM GAS  /var/folders/84/_x1cyy_j36g486tldtwl37280000gn/T//ccZ8X9jg.s 			page 28


 953              		.loc 8 82 3 view .LVU391
 954              		.loc 8 82 21 is_stmt 0 view .LVU392
 955 025c C2F81032 		str	r3, [r2, #528]
 956              	.LVL28:
 957              		.loc 8 82 21 view .LVU393
 958              	.LBE1525:
 959              	.LBE1538:
 960              		.loc 7 41 4 is_stmt 1 view .LVU394
 961              		.loc 7 41 19 is_stmt 0 view .LVU395
 962 0260 4AF80530 		str	r3, [r10, r5]
  39:Src/Engine/cvOutputEngine.h **** 			clock[i].reset();
 963              		.loc 7 39 3 is_stmt 1 view .LVU396
 964              	.LVL29:
  39:Src/Engine/cvOutputEngine.h **** 			clock[i].reset();
 965              		.loc 7 39 21 view .LVU397
  40:Src/Engine/cvOutputEngine.h **** 			clock_ticks[i] = 0;
 966              		.loc 7 40 4 view .LVU398
 967              	.LBB1539:
  72:Src/Engine/clockEngine.h **** 		triggered_ = 0;
 968              		.loc 8 72 7 view .LVU399
 969              	.LBB1526:
  73:Src/Engine/clockEngine.h **** 		ticks_passed_ = 0;
 970              		.loc 8 73 3 view .LVU400
  73:Src/Engine/clockEngine.h **** 		ticks_passed_ = 0;
 971              		.loc 8 73 14 is_stmt 0 view .LVU401
 972 0264 82F81532 		strb	r3, [r2, #533]
  74:Src/Engine/clockEngine.h **** 
 973              		.loc 8 74 3 is_stmt 1 view .LVU402
  76:Src/Engine/clockEngine.h **** 		prescaler_32th_whole = 0;
 974              		.loc 8 76 3 view .LVU403
  77:Src/Engine/clockEngine.h **** 		prescaler_32th_dotted = 0;
 975              		.loc 8 77 3 view .LVU404
  78:Src/Engine/clockEngine.h **** 
 976              		.loc 8 78 3 view .LVU405
  74:Src/Engine/clockEngine.h **** 
 977              		.loc 8 74 17 is_stmt 0 view .LVU406
 978 0268 C2F81832 		str	r3, [r2, #536]
  76:Src/Engine/clockEngine.h **** 		prescaler_32th_whole = 0;
 979              		.loc 8 76 26 view .LVU407
 980 026c 2AF80130 		strh	r3, [r10, r1]	@ movhi
  81:Src/Engine/clockEngine.h **** 		ticks_32th_dotted = 0;
 981              		.loc 8 81 20 view .LVU408
 982 0270 C2E98833 		strd	r3, r3, [r2, #544]
  78:Src/Engine/clockEngine.h **** 
 983              		.loc 8 78 25 view .LVU409
 984 0274 82F81E32 		strb	r3, [r2, #542]
  80:Src/Engine/clockEngine.h **** 		ticks_32th_whole = 0;
 985              		.loc 8 80 3 is_stmt 1 view .LVU410
 986              		.loc 8 82 3 view .LVU411
 987              		.loc 8 82 21 is_stmt 0 view .LVU412
 988 0278 C2F82832 		str	r3, [r2, #552]
 989              	.LVL30:
 990              		.loc 8 82 21 view .LVU413
 991              	.LBE1526:
 992              	.LBE1539:
 993              		.loc 7 41 4 is_stmt 1 view .LVU414
 994              		.loc 7 41 19 is_stmt 0 view .LVU415
ARM GAS  /var/folders/84/_x1cyy_j36g486tldtwl37280000gn/T//ccZ8X9jg.s 			page 29


 995 027c 4AF80630 		str	r3, [r10, r6]
  39:Src/Engine/cvOutputEngine.h **** 			clock[i].reset();
 996              		.loc 7 39 3 is_stmt 1 view .LVU416
 997              	.LVL31:
  39:Src/Engine/cvOutputEngine.h **** 			clock[i].reset();
 998              		.loc 7 39 21 view .LVU417
  40:Src/Engine/cvOutputEngine.h **** 			clock_ticks[i] = 0;
 999              		.loc 7 40 4 view .LVU418
 1000              	.LBB1540:
  72:Src/Engine/clockEngine.h **** 		triggered_ = 0;
 1001              		.loc 8 72 7 view .LVU419
 1002              	.LBB1527:
  73:Src/Engine/clockEngine.h **** 		ticks_passed_ = 0;
 1003              		.loc 8 73 3 view .LVU420
  73:Src/Engine/clockEngine.h **** 		ticks_passed_ = 0;
 1004              		.loc 8 73 14 is_stmt 0 view .LVU421
 1005 0280 82F82D32 		strb	r3, [r2, #557]
  74:Src/Engine/clockEngine.h **** 
 1006              		.loc 8 74 3 is_stmt 1 view .LVU422
  76:Src/Engine/clockEngine.h **** 		prescaler_32th_whole = 0;
 1007              		.loc 8 76 3 view .LVU423
  77:Src/Engine/clockEngine.h **** 		prescaler_32th_dotted = 0;
 1008              		.loc 8 77 3 view .LVU424
  78:Src/Engine/clockEngine.h **** 
 1009              		.loc 8 78 3 view .LVU425
  74:Src/Engine/clockEngine.h **** 
 1010              		.loc 8 74 17 is_stmt 0 view .LVU426
 1011 0284 C2F83032 		str	r3, [r2, #560]
  76:Src/Engine/clockEngine.h **** 		prescaler_32th_whole = 0;
 1012              		.loc 8 76 26 view .LVU427
 1013 0288 2AF80730 		strh	r3, [r10, r7]	@ movhi
  81:Src/Engine/clockEngine.h **** 		ticks_32th_dotted = 0;
 1014              		.loc 8 81 20 view .LVU428
 1015 028c C2E98E33 		strd	r3, r3, [r2, #568]
  78:Src/Engine/clockEngine.h **** 
 1016              		.loc 8 78 25 view .LVU429
 1017 0290 82F83632 		strb	r3, [r2, #566]
  80:Src/Engine/clockEngine.h **** 		ticks_32th_whole = 0;
 1018              		.loc 8 80 3 is_stmt 1 view .LVU430
 1019              		.loc 8 82 3 view .LVU431
 1020              		.loc 8 82 21 is_stmt 0 view .LVU432
 1021 0294 C2F84032 		str	r3, [r2, #576]
 1022              	.LVL32:
 1023              		.loc 8 82 21 view .LVU433
 1024              	.LBE1527:
 1025              	.LBE1540:
 1026              		.loc 7 41 4 is_stmt 1 view .LVU434
 1027              		.loc 7 41 19 is_stmt 0 view .LVU435
 1028 0298 4AF80830 		str	r3, [r10, r8]
  39:Src/Engine/cvOutputEngine.h **** 			clock[i].reset();
 1029              		.loc 7 39 3 is_stmt 1 view .LVU436
 1030              	.LVL33:
  39:Src/Engine/cvOutputEngine.h **** 			clock[i].reset();
 1031              		.loc 7 39 21 view .LVU437
  40:Src/Engine/cvOutputEngine.h **** 			clock_ticks[i] = 0;
 1032              		.loc 7 40 4 view .LVU438
 1033              	.LBB1541:
ARM GAS  /var/folders/84/_x1cyy_j36g486tldtwl37280000gn/T//ccZ8X9jg.s 			page 30


  72:Src/Engine/clockEngine.h **** 		triggered_ = 0;
 1034              		.loc 8 72 7 view .LVU439
 1035              	.LBB1528:
  73:Src/Engine/clockEngine.h **** 		ticks_passed_ = 0;
 1036              		.loc 8 73 3 view .LVU440
  73:Src/Engine/clockEngine.h **** 		ticks_passed_ = 0;
 1037              		.loc 8 73 14 is_stmt 0 view .LVU441
 1038 029c 82F84532 		strb	r3, [r2, #581]
  74:Src/Engine/clockEngine.h **** 
 1039              		.loc 8 74 3 is_stmt 1 view .LVU442
  76:Src/Engine/clockEngine.h **** 		prescaler_32th_whole = 0;
 1040              		.loc 8 76 3 view .LVU443
  77:Src/Engine/clockEngine.h **** 		prescaler_32th_dotted = 0;
 1041              		.loc 8 77 3 view .LVU444
  78:Src/Engine/clockEngine.h **** 
 1042              		.loc 8 78 3 view .LVU445
  74:Src/Engine/clockEngine.h **** 
 1043              		.loc 8 74 17 is_stmt 0 view .LVU446
 1044 02a0 C2F84832 		str	r3, [r2, #584]
  76:Src/Engine/clockEngine.h **** 		prescaler_32th_whole = 0;
 1045              		.loc 8 76 26 view .LVU447
 1046 02a4 2AF80930 		strh	r3, [r10, r9]	@ movhi
  81:Src/Engine/clockEngine.h **** 		ticks_32th_dotted = 0;
 1047              		.loc 8 81 20 view .LVU448
 1048 02a8 C2E99433 		strd	r3, r3, [r2, #592]
  78:Src/Engine/clockEngine.h **** 
 1049              		.loc 8 78 25 view .LVU449
 1050 02ac 82F84E32 		strb	r3, [r2, #590]
  80:Src/Engine/clockEngine.h **** 		ticks_32th_whole = 0;
 1051              		.loc 8 80 3 is_stmt 1 view .LVU450
 1052              		.loc 8 82 3 view .LVU451
 1053              		.loc 8 82 21 is_stmt 0 view .LVU452
 1054 02b0 C2F85832 		str	r3, [r2, #600]
 1055              	.LVL34:
 1056              		.loc 8 82 21 view .LVU453
 1057              	.LBE1528:
 1058              	.LBE1541:
 1059              		.loc 7 41 4 is_stmt 1 view .LVU454
 1060              		.loc 7 41 19 is_stmt 0 view .LVU455
 1061 02b4 CBF80030 		str	r3, [fp]
  39:Src/Engine/cvOutputEngine.h **** 			clock[i].reset();
 1062              		.loc 7 39 3 is_stmt 1 view .LVU456
 1063              	.LVL35:
  39:Src/Engine/cvOutputEngine.h **** 			clock[i].reset();
 1064              		.loc 7 39 21 view .LVU457
  39:Src/Engine/cvOutputEngine.h **** 			clock[i].reset();
 1065              		.loc 7 39 21 is_stmt 0 view .LVU458
 1066              	.LBE1513:
 1067              	.LBE1543:
 1068              	.LBE1545:
  17:Src/Engine/cvOutputEngine.h **** 
 1069              		.loc 7 17 3 is_stmt 1 view .LVU459
  17:Src/Engine/cvOutputEngine.h **** 
 1070              		.loc 7 17 16 is_stmt 0 view .LVU460
 1071 02b8 5370     		strb	r3, [r2, #1]
  19:Src/Engine/cvOutputEngine.h **** 			vel_value[i] = 0;
 1072              		.loc 7 19 3 is_stmt 1 view .LVU461
ARM GAS  /var/folders/84/_x1cyy_j36g486tldtwl37280000gn/T//ccZ8X9jg.s 			page 31


 1073              	.LVL36:
 1074              	.LBB1546:
  19:Src/Engine/cvOutputEngine.h **** 			vel_value[i] = 0;
 1075              		.loc 7 19 21 view .LVU462
  20:Src/Engine/cvOutputEngine.h **** 			cc_value[i] = 0;
 1076              		.loc 7 20 17 is_stmt 0 view .LVU463
 1077 02ba A385     		strh	r3, [r4, #44]	@ movhi
  21:Src/Engine/cvOutputEngine.h **** 			note_value[i] = 0;
 1078              		.loc 7 21 16 view .LVU464
 1079 02bc 2EF8023F 		strh	r3, [lr, #2]!	@ movhi
 1080 02c0 0AF55D50 		add	r0, r10, #14144
  22:Src/Engine/cvOutputEngine.h **** 			last_note_value[i] = 0;
 1081              		.loc 7 22 18 view .LVU465
 1082 02c4 AEF85430 		strh	r3, [lr, #84]	@ movhi
  23:Src/Engine/cvOutputEngine.h **** 		}
 1083              		.loc 7 23 23 view .LVU466
 1084 02c8 AEF87E30 		strh	r3, [lr, #126]	@ movhi
 1085 02cc 00F12204 		add	r4, r0, #34
 1086              	.LVL37:
  20:Src/Engine/cvOutputEngine.h **** 			cc_value[i] = 0;
 1087              		.loc 7 20 4 is_stmt 1 view .LVU467
  21:Src/Engine/cvOutputEngine.h **** 			note_value[i] = 0;
 1088              		.loc 7 21 4 view .LVU468
  22:Src/Engine/cvOutputEngine.h **** 			last_note_value[i] = 0;
 1089              		.loc 7 22 4 view .LVU469
  23:Src/Engine/cvOutputEngine.h **** 		}
 1090              		.loc 7 23 4 view .LVU470
  19:Src/Engine/cvOutputEngine.h **** 			vel_value[i] = 0;
 1091              		.loc 7 19 3 view .LVU471
  19:Src/Engine/cvOutputEngine.h **** 			vel_value[i] = 0;
 1092              		.loc 7 19 21 view .LVU472
 1093              	.L3:
  20:Src/Engine/cvOutputEngine.h **** 			cc_value[i] = 0;
 1094              		.loc 7 20 4 view .LVU473
  20:Src/Engine/cvOutputEngine.h **** 			cc_value[i] = 0;
 1095              		.loc 7 20 17 is_stmt 0 view .LVU474
 1096 02d0 0023     		movs	r3, #0
 1097 02d2 AEF82C30 		strh	r3, [lr, #44]	@ movhi
  21:Src/Engine/cvOutputEngine.h **** 			note_value[i] = 0;
 1098              		.loc 7 21 4 is_stmt 1 view .LVU475
  21:Src/Engine/cvOutputEngine.h **** 			note_value[i] = 0;
 1099              		.loc 7 21 16 is_stmt 0 view .LVU476
 1100 02d6 AEF80230 		strh	r3, [lr, #2]	@ movhi
  22:Src/Engine/cvOutputEngine.h **** 			last_note_value[i] = 0;
 1101              		.loc 7 22 4 is_stmt 1 view .LVU477
  22:Src/Engine/cvOutputEngine.h **** 			last_note_value[i] = 0;
 1102              		.loc 7 22 18 is_stmt 0 view .LVU478
 1103 02da AEF85630 		strh	r3, [lr, #86]	@ movhi
  23:Src/Engine/cvOutputEngine.h **** 		}
 1104              		.loc 7 23 4 is_stmt 1 view .LVU479
  23:Src/Engine/cvOutputEngine.h **** 		}
 1105              		.loc 7 23 23 is_stmt 0 view .LVU480
 1106 02de AEF88030 		strh	r3, [lr, #128]	@ movhi
  19:Src/Engine/cvOutputEngine.h **** 			vel_value[i] = 0;
 1107              		.loc 7 19 3 is_stmt 1 view .LVU481
  19:Src/Engine/cvOutputEngine.h **** 			vel_value[i] = 0;
 1108              		.loc 7 19 21 view .LVU482
ARM GAS  /var/folders/84/_x1cyy_j36g486tldtwl37280000gn/T//ccZ8X9jg.s 			page 32


  20:Src/Engine/cvOutputEngine.h **** 			cc_value[i] = 0;
 1109              		.loc 7 20 4 view .LVU483
  20:Src/Engine/cvOutputEngine.h **** 			cc_value[i] = 0;
 1110              		.loc 7 20 17 is_stmt 0 view .LVU484
 1111 02e2 AEF82E30 		strh	r3, [lr, #46]	@ movhi
  21:Src/Engine/cvOutputEngine.h **** 			note_value[i] = 0;
 1112              		.loc 7 21 4 is_stmt 1 view .LVU485
  21:Src/Engine/cvOutputEngine.h **** 			note_value[i] = 0;
 1113              		.loc 7 21 16 is_stmt 0 view .LVU486
 1114 02e6 AEF80430 		strh	r3, [lr, #4]	@ movhi
  22:Src/Engine/cvOutputEngine.h **** 			last_note_value[i] = 0;
 1115              		.loc 7 22 4 is_stmt 1 view .LVU487
  22:Src/Engine/cvOutputEngine.h **** 			last_note_value[i] = 0;
 1116              		.loc 7 22 18 is_stmt 0 view .LVU488
 1117 02ea AEF85830 		strh	r3, [lr, #88]	@ movhi
  23:Src/Engine/cvOutputEngine.h **** 		}
 1118              		.loc 7 23 4 is_stmt 1 view .LVU489
  23:Src/Engine/cvOutputEngine.h **** 		}
 1119              		.loc 7 23 23 is_stmt 0 view .LVU490
 1120 02ee AEF88230 		strh	r3, [lr, #130]	@ movhi
  19:Src/Engine/cvOutputEngine.h **** 			vel_value[i] = 0;
 1121              		.loc 7 19 3 is_stmt 1 view .LVU491
  19:Src/Engine/cvOutputEngine.h **** 			vel_value[i] = 0;
 1122              		.loc 7 19 21 view .LVU492
  20:Src/Engine/cvOutputEngine.h **** 			cc_value[i] = 0;
 1123              		.loc 7 20 4 view .LVU493
  20:Src/Engine/cvOutputEngine.h **** 			cc_value[i] = 0;
 1124              		.loc 7 20 17 is_stmt 0 view .LVU494
 1125 02f2 AEF83030 		strh	r3, [lr, #48]	@ movhi
  21:Src/Engine/cvOutputEngine.h **** 			note_value[i] = 0;
 1126              		.loc 7 21 4 is_stmt 1 view .LVU495
  21:Src/Engine/cvOutputEngine.h **** 			note_value[i] = 0;
 1127              		.loc 7 21 16 is_stmt 0 view .LVU496
 1128 02f6 AEF80630 		strh	r3, [lr, #6]	@ movhi
  22:Src/Engine/cvOutputEngine.h **** 			last_note_value[i] = 0;
 1129              		.loc 7 22 4 is_stmt 1 view .LVU497
  22:Src/Engine/cvOutputEngine.h **** 			last_note_value[i] = 0;
 1130              		.loc 7 22 18 is_stmt 0 view .LVU498
 1131 02fa AEF85A30 		strh	r3, [lr, #90]	@ movhi
  23:Src/Engine/cvOutputEngine.h **** 		}
 1132              		.loc 7 23 4 is_stmt 1 view .LVU499
  23:Src/Engine/cvOutputEngine.h **** 		}
 1133              		.loc 7 23 23 is_stmt 0 view .LVU500
 1134 02fe AEF88430 		strh	r3, [lr, #132]	@ movhi
  19:Src/Engine/cvOutputEngine.h **** 			vel_value[i] = 0;
 1135              		.loc 7 19 3 is_stmt 1 view .LVU501
  19:Src/Engine/cvOutputEngine.h **** 			vel_value[i] = 0;
 1136              		.loc 7 19 21 view .LVU502
  20:Src/Engine/cvOutputEngine.h **** 			cc_value[i] = 0;
 1137              		.loc 7 20 4 view .LVU503
  20:Src/Engine/cvOutputEngine.h **** 			cc_value[i] = 0;
 1138              		.loc 7 20 17 is_stmt 0 view .LVU504
 1139 0302 AEF83230 		strh	r3, [lr, #50]	@ movhi
  21:Src/Engine/cvOutputEngine.h **** 			note_value[i] = 0;
 1140              		.loc 7 21 4 is_stmt 1 view .LVU505
  21:Src/Engine/cvOutputEngine.h **** 			note_value[i] = 0;
 1141              		.loc 7 21 16 is_stmt 0 view .LVU506
ARM GAS  /var/folders/84/_x1cyy_j36g486tldtwl37280000gn/T//ccZ8X9jg.s 			page 33


 1142 0306 AEF80830 		strh	r3, [lr, #8]	@ movhi
  22:Src/Engine/cvOutputEngine.h **** 			last_note_value[i] = 0;
 1143              		.loc 7 22 4 is_stmt 1 view .LVU507
  22:Src/Engine/cvOutputEngine.h **** 			last_note_value[i] = 0;
 1144              		.loc 7 22 18 is_stmt 0 view .LVU508
 1145 030a AEF85C30 		strh	r3, [lr, #92]	@ movhi
  23:Src/Engine/cvOutputEngine.h **** 		}
 1146              		.loc 7 23 4 is_stmt 1 view .LVU509
  23:Src/Engine/cvOutputEngine.h **** 		}
 1147              		.loc 7 23 23 is_stmt 0 view .LVU510
 1148 030e AEF88630 		strh	r3, [lr, #134]	@ movhi
  19:Src/Engine/cvOutputEngine.h **** 			vel_value[i] = 0;
 1149              		.loc 7 19 3 is_stmt 1 view .LVU511
  19:Src/Engine/cvOutputEngine.h **** 			vel_value[i] = 0;
 1150              		.loc 7 19 21 view .LVU512
  20:Src/Engine/cvOutputEngine.h **** 			cc_value[i] = 0;
 1151              		.loc 7 20 4 view .LVU513
  20:Src/Engine/cvOutputEngine.h **** 			cc_value[i] = 0;
 1152              		.loc 7 20 17 is_stmt 0 view .LVU514
 1153 0312 AEF83430 		strh	r3, [lr, #52]	@ movhi
  21:Src/Engine/cvOutputEngine.h **** 			note_value[i] = 0;
 1154              		.loc 7 21 4 is_stmt 1 view .LVU515
  21:Src/Engine/cvOutputEngine.h **** 			note_value[i] = 0;
 1155              		.loc 7 21 16 is_stmt 0 view .LVU516
 1156 0316 AEF80A30 		strh	r3, [lr, #10]	@ movhi
  22:Src/Engine/cvOutputEngine.h **** 			last_note_value[i] = 0;
 1157              		.loc 7 22 4 is_stmt 1 view .LVU517
  22:Src/Engine/cvOutputEngine.h **** 			last_note_value[i] = 0;
 1158              		.loc 7 22 18 is_stmt 0 view .LVU518
 1159 031a AEF85E30 		strh	r3, [lr, #94]	@ movhi
  23:Src/Engine/cvOutputEngine.h **** 		}
 1160              		.loc 7 23 4 is_stmt 1 view .LVU519
  23:Src/Engine/cvOutputEngine.h **** 		}
 1161              		.loc 7 23 23 is_stmt 0 view .LVU520
 1162 031e AEF88830 		strh	r3, [lr, #136]	@ movhi
  19:Src/Engine/cvOutputEngine.h **** 			vel_value[i] = 0;
 1163              		.loc 7 19 3 is_stmt 1 view .LVU521
  19:Src/Engine/cvOutputEngine.h **** 			vel_value[i] = 0;
 1164              		.loc 7 19 21 view .LVU522
  20:Src/Engine/cvOutputEngine.h **** 			cc_value[i] = 0;
 1165              		.loc 7 20 4 view .LVU523
  20:Src/Engine/cvOutputEngine.h **** 			cc_value[i] = 0;
 1166              		.loc 7 20 17 is_stmt 0 view .LVU524
 1167 0322 AEF83630 		strh	r3, [lr, #54]	@ movhi
  21:Src/Engine/cvOutputEngine.h **** 			note_value[i] = 0;
 1168              		.loc 7 21 4 is_stmt 1 view .LVU525
  21:Src/Engine/cvOutputEngine.h **** 			note_value[i] = 0;
 1169              		.loc 7 21 16 is_stmt 0 view .LVU526
 1170 0326 AEF80C30 		strh	r3, [lr, #12]	@ movhi
  22:Src/Engine/cvOutputEngine.h **** 			last_note_value[i] = 0;
 1171              		.loc 7 22 4 is_stmt 1 view .LVU527
  22:Src/Engine/cvOutputEngine.h **** 			last_note_value[i] = 0;
 1172              		.loc 7 22 18 is_stmt 0 view .LVU528
 1173 032a AEF86030 		strh	r3, [lr, #96]	@ movhi
  23:Src/Engine/cvOutputEngine.h **** 		}
 1174              		.loc 7 23 4 is_stmt 1 view .LVU529
  23:Src/Engine/cvOutputEngine.h **** 		}
ARM GAS  /var/folders/84/_x1cyy_j36g486tldtwl37280000gn/T//ccZ8X9jg.s 			page 34


 1175              		.loc 7 23 23 is_stmt 0 view .LVU530
 1176 032e AEF88A30 		strh	r3, [lr, #138]	@ movhi
  19:Src/Engine/cvOutputEngine.h **** 			vel_value[i] = 0;
 1177              		.loc 7 19 3 is_stmt 1 view .LVU531
  19:Src/Engine/cvOutputEngine.h **** 			vel_value[i] = 0;
 1178              		.loc 7 19 21 view .LVU532
  20:Src/Engine/cvOutputEngine.h **** 			cc_value[i] = 0;
 1179              		.loc 7 20 4 view .LVU533
  20:Src/Engine/cvOutputEngine.h **** 			cc_value[i] = 0;
 1180              		.loc 7 20 17 is_stmt 0 view .LVU534
 1181 0332 AEF83830 		strh	r3, [lr, #56]	@ movhi
  21:Src/Engine/cvOutputEngine.h **** 			note_value[i] = 0;
 1182              		.loc 7 21 4 is_stmt 1 view .LVU535
  21:Src/Engine/cvOutputEngine.h **** 			note_value[i] = 0;
 1183              		.loc 7 21 16 is_stmt 0 view .LVU536
 1184 0336 AEF80E30 		strh	r3, [lr, #14]	@ movhi
  22:Src/Engine/cvOutputEngine.h **** 			last_note_value[i] = 0;
 1185              		.loc 7 22 4 is_stmt 1 view .LVU537
  22:Src/Engine/cvOutputEngine.h **** 			last_note_value[i] = 0;
 1186              		.loc 7 22 18 is_stmt 0 view .LVU538
 1187 033a AEF86230 		strh	r3, [lr, #98]	@ movhi
  23:Src/Engine/cvOutputEngine.h **** 		}
 1188              		.loc 7 23 4 is_stmt 1 view .LVU539
  23:Src/Engine/cvOutputEngine.h **** 		}
 1189              		.loc 7 23 23 is_stmt 0 view .LVU540
 1190 033e AEF88C30 		strh	r3, [lr, #140]	@ movhi
  19:Src/Engine/cvOutputEngine.h **** 			vel_value[i] = 0;
 1191              		.loc 7 19 3 is_stmt 1 view .LVU541
  19:Src/Engine/cvOutputEngine.h **** 			vel_value[i] = 0;
 1192              		.loc 7 19 21 view .LVU542
  20:Src/Engine/cvOutputEngine.h **** 			cc_value[i] = 0;
 1193              		.loc 7 20 4 view .LVU543
  20:Src/Engine/cvOutputEngine.h **** 			cc_value[i] = 0;
 1194              		.loc 7 20 17 is_stmt 0 view .LVU544
 1195 0342 AEF83A30 		strh	r3, [lr, #58]	@ movhi
  21:Src/Engine/cvOutputEngine.h **** 			note_value[i] = 0;
 1196              		.loc 7 21 4 is_stmt 1 view .LVU545
  21:Src/Engine/cvOutputEngine.h **** 			note_value[i] = 0;
 1197              		.loc 7 21 16 is_stmt 0 view .LVU546
 1198 0346 AEF81030 		strh	r3, [lr, #16]	@ movhi
  22:Src/Engine/cvOutputEngine.h **** 			last_note_value[i] = 0;
 1199              		.loc 7 22 4 is_stmt 1 view .LVU547
  22:Src/Engine/cvOutputEngine.h **** 			last_note_value[i] = 0;
 1200              		.loc 7 22 18 is_stmt 0 view .LVU548
 1201 034a AEF86430 		strh	r3, [lr, #100]	@ movhi
  23:Src/Engine/cvOutputEngine.h **** 		}
 1202              		.loc 7 23 4 is_stmt 1 view .LVU549
  23:Src/Engine/cvOutputEngine.h **** 		}
 1203              		.loc 7 23 23 is_stmt 0 view .LVU550
 1204 034e AEF88E30 		strh	r3, [lr, #142]	@ movhi
  19:Src/Engine/cvOutputEngine.h **** 			vel_value[i] = 0;
 1205              		.loc 7 19 3 is_stmt 1 view .LVU551
  19:Src/Engine/cvOutputEngine.h **** 			vel_value[i] = 0;
 1206              		.loc 7 19 21 view .LVU552
  20:Src/Engine/cvOutputEngine.h **** 			cc_value[i] = 0;
 1207              		.loc 7 20 4 view .LVU553
  20:Src/Engine/cvOutputEngine.h **** 			cc_value[i] = 0;
ARM GAS  /var/folders/84/_x1cyy_j36g486tldtwl37280000gn/T//ccZ8X9jg.s 			page 35


 1208              		.loc 7 20 17 is_stmt 0 view .LVU554
 1209 0352 AEF83C30 		strh	r3, [lr, #60]	@ movhi
  21:Src/Engine/cvOutputEngine.h **** 			note_value[i] = 0;
 1210              		.loc 7 21 4 is_stmt 1 view .LVU555
  21:Src/Engine/cvOutputEngine.h **** 			note_value[i] = 0;
 1211              		.loc 7 21 16 is_stmt 0 view .LVU556
 1212 0356 AEF81230 		strh	r3, [lr, #18]	@ movhi
  22:Src/Engine/cvOutputEngine.h **** 			last_note_value[i] = 0;
 1213              		.loc 7 22 4 is_stmt 1 view .LVU557
  22:Src/Engine/cvOutputEngine.h **** 			last_note_value[i] = 0;
 1214              		.loc 7 22 18 is_stmt 0 view .LVU558
 1215 035a AEF86630 		strh	r3, [lr, #102]	@ movhi
  23:Src/Engine/cvOutputEngine.h **** 		}
 1216              		.loc 7 23 4 is_stmt 1 view .LVU559
  23:Src/Engine/cvOutputEngine.h **** 		}
 1217              		.loc 7 23 23 is_stmt 0 view .LVU560
 1218 035e AEF89030 		strh	r3, [lr, #144]	@ movhi
  19:Src/Engine/cvOutputEngine.h **** 			vel_value[i] = 0;
 1219              		.loc 7 19 3 is_stmt 1 view .LVU561
  19:Src/Engine/cvOutputEngine.h **** 			vel_value[i] = 0;
 1220              		.loc 7 19 21 view .LVU562
  20:Src/Engine/cvOutputEngine.h **** 			cc_value[i] = 0;
 1221              		.loc 7 20 4 view .LVU563
  20:Src/Engine/cvOutputEngine.h **** 			cc_value[i] = 0;
 1222              		.loc 7 20 17 is_stmt 0 view .LVU564
 1223 0362 AEF83E30 		strh	r3, [lr, #62]	@ movhi
  21:Src/Engine/cvOutputEngine.h **** 			note_value[i] = 0;
 1224              		.loc 7 21 4 is_stmt 1 view .LVU565
  21:Src/Engine/cvOutputEngine.h **** 			note_value[i] = 0;
 1225              		.loc 7 21 16 is_stmt 0 view .LVU566
 1226 0366 2EF8143F 		strh	r3, [lr, #20]!	@ movhi
  22:Src/Engine/cvOutputEngine.h **** 			last_note_value[i] = 0;
 1227              		.loc 7 22 4 is_stmt 1 view .LVU567
  19:Src/Engine/cvOutputEngine.h **** 			vel_value[i] = 0;
 1228              		.loc 7 19 21 is_stmt 0 view .LVU568
 1229 036a A645     		cmp	lr, r4
  22:Src/Engine/cvOutputEngine.h **** 			last_note_value[i] = 0;
 1230              		.loc 7 22 18 view .LVU569
 1231 036c AEF85430 		strh	r3, [lr, #84]	@ movhi
  23:Src/Engine/cvOutputEngine.h **** 		}
 1232              		.loc 7 23 4 is_stmt 1 view .LVU570
  23:Src/Engine/cvOutputEngine.h **** 		}
 1233              		.loc 7 23 23 is_stmt 0 view .LVU571
 1234 0370 AEF87E30 		strh	r3, [lr, #126]	@ movhi
  19:Src/Engine/cvOutputEngine.h **** 			vel_value[i] = 0;
 1235              		.loc 7 19 3 is_stmt 1 view .LVU572
  19:Src/Engine/cvOutputEngine.h **** 			vel_value[i] = 0;
 1236              		.loc 7 19 21 view .LVU573
 1237 0374 ACD1     		bne	.L3
 1238              	.LVL38:
  19:Src/Engine/cvOutputEngine.h **** 			vel_value[i] = 0;
 1239              		.loc 7 19 21 is_stmt 0 view .LVU574
 1240              	.LBE1546:
 1241              	.LBE1548:
 1242              	.LBE1551:
  16:Src/Engine/engine.cpp **** 	midiOutputEngine.init(&midiPort, &cvOutputEngine);
 1243              		.loc 1 16 2 is_stmt 1 view .LVU575
ARM GAS  /var/folders/84/_x1cyy_j36g486tldtwl37280000gn/T//ccZ8X9jg.s 			page 36


 1244              		.loc 1 16 23 is_stmt 0 view .LVU576
 1245 0376 41F2F465 		movw	r5, #5876
 1246 037a 0AEB0501 		add	r1, r10, r5
 1247 037e 0AF5415C 		add	ip, r10, #12352
 1248              	.LBB1552:
 1249              	.LBB1553:
 1250              		.file 9 "Src/Engine/midiOutputEngine.h"
   1:Src/Engine/midiOutputEngine.h **** #ifndef MidiOutputEngine_h
   2:Src/Engine/midiOutputEngine.h **** #define MidiOutputEngine_h
   3:Src/Engine/midiOutputEngine.h **** 
   4:Src/Engine/midiOutputEngine.h **** #include "midiPort.h"
   5:Src/Engine/midiOutputEngine.h **** #include "midiScheduler.h"
   6:Src/Engine/midiOutputEngine.h **** #include "cvOutputEngine.h"
   7:Src/Engine/midiOutputEngine.h **** 
   8:Src/Engine/midiOutputEngine.h **** class MidiOutputEngine {
   9:Src/Engine/midiOutputEngine.h **** 
  10:Src/Engine/midiOutputEngine.h **** public:
  11:Src/Engine/midiOutputEngine.h **** 
  12:Src/Engine/midiOutputEngine.h **** 	void init(MidiPort *midiPort, CvOutputEngine *cvOuput) {
  13:Src/Engine/midiOutputEngine.h **** 		cvOutput_ = cvOuput;
 1251              		.loc 9 13 13 view .LVU577
 1252 0382 4A60     		str	r2, [r1, #4]
  14:Src/Engine/midiOutputEngine.h **** 		midiPort_ = midiPort;
 1253              		.loc 9 14 13 view .LVU578
 1254 0384 4AF805A0 		str	r10, [r10, r5]
 1255              	.LBE1553:
 1256              	.LBE1552:
 1257              		.loc 1 16 23 view .LVU579
 1258 0388 0291     		str	r1, [sp, #8]
 1259              	.LVL39:
 1260              	.LBB1563:
 1261              	.LBI1552:
  12:Src/Engine/midiOutputEngine.h **** 		cvOutput_ = cvOuput;
 1262              		.loc 9 12 7 is_stmt 1 view .LVU580
 1263              	.LBB1562:
  13:Src/Engine/midiOutputEngine.h **** 		midiPort_ = midiPort;
 1264              		.loc 9 13 3 view .LVU581
 1265              		.loc 9 14 3 view .LVU582
  15:Src/Engine/midiOutputEngine.h **** 
  16:Src/Engine/midiOutputEngine.h **** 		for (int i = 0; i < MidiPort::NUM_PORTS; ++i) {
 1266              		.loc 9 16 3 view .LVU583
 1267              	.LBB1554:
 1268              		.loc 9 16 21 view .LVU584
 1269 038a 0CF11C09 		add	r9, ip, #28
 1270 038e 0AF5B958 		add	r8, r10, #5920
 1271              	.LVL40:
 1272              	.L5:
  17:Src/Engine/midiOutputEngine.h **** 			scheduler_[i].init();
 1273              		.loc 9 17 4 view .LVU585
 1274              	.LBB1555:
 1275              	.LBI1555:
 1276              		.file 10 "Src/Engine/midiScheduler.h"
   1:Src/Engine/midiScheduler.h **** #ifndef MidiScheduler_h
   2:Src/Engine/midiScheduler.h **** #define MidiScheduler_h
   3:Src/Engine/midiScheduler.h **** 
   4:Src/Engine/midiScheduler.h **** #include "midiEvent.h"
   5:Src/Engine/midiScheduler.h **** 
ARM GAS  /var/folders/84/_x1cyy_j36g486tldtwl37280000gn/T//ccZ8X9jg.s 			page 37


   6:Src/Engine/midiScheduler.h **** template <const size_t kMaxEvents>
   7:Src/Engine/midiScheduler.h **** class MidiScheduler {
   8:Src/Engine/midiScheduler.h **** 
   9:Src/Engine/midiScheduler.h **** public:
  10:Src/Engine/midiScheduler.h **** 
  11:Src/Engine/midiScheduler.h **** 	inline void init() {
 1277              		.loc 10 11 14 view .LVU586
 1278              	.LBB1556:
  12:Src/Engine/midiScheduler.h **** 		size = 0;
 1279              		.loc 10 12 3 is_stmt 0 view .LVU587
 1280 0392 0022     		movs	r2, #0
  13:Src/Engine/midiScheduler.h **** 		head = 0;									// 0 is the tail
  14:Src/Engine/midiScheduler.h **** 		head_free_slots = 1;						// Cannot be the same as head
 1281              		.loc 10 14 3 view .LVU588
 1282 0394 0126     		movs	r6, #1
 1283              	.LBB1557:
  15:Src/Engine/midiScheduler.h **** 		for (size_t i = 1; i < kMaxEvents; ++i) {
  16:Src/Engine/midiScheduler.h **** 			entry[i].next = i + 1;
 1284              		.loc 10 16 22 view .LVU589
 1285 0396 0227     		movs	r7, #2
 1286 0398 0323     		movs	r3, #3
 1287              	.LBE1557:
  12:Src/Engine/midiScheduler.h **** 		head = 0;									// 0 is the tail
 1288              		.loc 10 12 3 view .LVU590
 1289 039a C8F8DC24 		str	r2, [r8, #1244]
  13:Src/Engine/midiScheduler.h **** 		head = 0;									// 0 is the tail
 1290              		.loc 10 13 3 view .LVU591
 1291 039e C8F8E024 		str	r2, [r8, #1248]
  14:Src/Engine/midiScheduler.h **** 		for (size_t i = 1; i < kMaxEvents; ++i) {
 1292              		.loc 10 14 3 view .LVU592
 1293 03a2 C8F8E464 		str	r6, [r8, #1252]
 1294              	.LVL41:
 1295              	.LBB1558:
  15:Src/Engine/midiScheduler.h **** 		for (size_t i = 1; i < kMaxEvents; ++i) {
 1296              		.loc 10 15 24 is_stmt 1 view .LVU593
 1297              		.loc 10 16 4 is_stmt 0 view .LVU594
 1298 03a6 C8F80070 		str	r7, [r8]
  15:Src/Engine/midiScheduler.h **** 		for (size_t i = 1; i < kMaxEvents; ++i) {
 1299              		.loc 10 15 3 is_stmt 1 view .LVU595
  15:Src/Engine/midiScheduler.h **** 		for (size_t i = 1; i < kMaxEvents; ++i) {
 1300              		.loc 10 15 24 view .LVU596
 1301              	.LVL42:
 1302              		.loc 10 16 4 is_stmt 0 view .LVU597
 1303 03aa C8F81430 		str	r3, [r8, #20]
  15:Src/Engine/midiScheduler.h **** 		for (size_t i = 1; i < kMaxEvents; ++i) {
 1304              		.loc 10 15 3 is_stmt 1 view .LVU598
 1305              	.LVL43:
  15:Src/Engine/midiScheduler.h **** 		for (size_t i = 1; i < kMaxEvents; ++i) {
 1306              		.loc 10 15 24 view .LVU599
 1307 03ae 08F12802 		add	r2, r8, #40
 1308              	.LVL44:
 1309              	.L4:
 1310              		.loc 10 16 22 is_stmt 0 view .LVU600
 1311 03b2 591C     		adds	r1, r3, #1
 1312 03b4 03F1020B 		add	fp, r3, #2
 1313 03b8 03F1030E 		add	lr, r3, #3
 1314 03bc 1F1D     		adds	r7, r3, #4
ARM GAS  /var/folders/84/_x1cyy_j36g486tldtwl37280000gn/T//ccZ8X9jg.s 			page 38


 1315 03be 5E1D     		adds	r6, r3, #5
 1316 03c0 9D1D     		adds	r5, r3, #6
 1317 03c2 DC1D     		adds	r4, r3, #7
 1318 03c4 03F10800 		add	r0, r3, #8
 1319              		.loc 10 16 4 view .LVU601
 1320 03c8 1160     		str	r1, [r2]
  15:Src/Engine/midiScheduler.h **** 		for (size_t i = 1; i < kMaxEvents; ++i) {
 1321              		.loc 10 15 3 is_stmt 1 view .LVU602
  15:Src/Engine/midiScheduler.h **** 		for (size_t i = 1; i < kMaxEvents; ++i) {
 1322              		.loc 10 15 24 view .LVU603
 1323              	.LVL45:
 1324              		.loc 10 16 22 is_stmt 0 view .LVU604
 1325 03ca 03F10901 		add	r1, r3, #9
 1326 03ce 0A33     		adds	r3, r3, #10
  15:Src/Engine/midiScheduler.h **** 		for (size_t i = 1; i < kMaxEvents; ++i) {
 1327              		.loc 10 15 24 view .LVU605
 1328 03d0 3F2B     		cmp	r3, #63
 1329              		.loc 10 16 4 view .LVU606
 1330 03d2 C2F814B0 		str	fp, [r2, #20]
  15:Src/Engine/midiScheduler.h **** 		for (size_t i = 1; i < kMaxEvents; ++i) {
 1331              		.loc 10 15 3 is_stmt 1 view .LVU607
 1332              	.LVL46:
  15:Src/Engine/midiScheduler.h **** 		for (size_t i = 1; i < kMaxEvents; ++i) {
 1333              		.loc 10 15 24 view .LVU608
 1334              		.loc 10 16 4 is_stmt 0 view .LVU609
 1335 03d6 C2F828E0 		str	lr, [r2, #40]
  15:Src/Engine/midiScheduler.h **** 		for (size_t i = 1; i < kMaxEvents; ++i) {
 1336              		.loc 10 15 3 is_stmt 1 view .LVU610
 1337              	.LVL47:
  15:Src/Engine/midiScheduler.h **** 		for (size_t i = 1; i < kMaxEvents; ++i) {
 1338              		.loc 10 15 24 view .LVU611
 1339              		.loc 10 16 4 is_stmt 0 view .LVU612
 1340 03da D763     		str	r7, [r2, #60]
  15:Src/Engine/midiScheduler.h **** 		for (size_t i = 1; i < kMaxEvents; ++i) {
 1341              		.loc 10 15 3 is_stmt 1 view .LVU613
 1342              	.LVL48:
  15:Src/Engine/midiScheduler.h **** 		for (size_t i = 1; i < kMaxEvents; ++i) {
 1343              		.loc 10 15 24 view .LVU614
 1344              		.loc 10 16 4 is_stmt 0 view .LVU615
 1345 03dc 1665     		str	r6, [r2, #80]
  15:Src/Engine/midiScheduler.h **** 		for (size_t i = 1; i < kMaxEvents; ++i) {
 1346              		.loc 10 15 3 is_stmt 1 view .LVU616
 1347              	.LVL49:
  15:Src/Engine/midiScheduler.h **** 		for (size_t i = 1; i < kMaxEvents; ++i) {
 1348              		.loc 10 15 24 view .LVU617
 1349              		.loc 10 16 4 is_stmt 0 view .LVU618
 1350 03de 5566     		str	r5, [r2, #100]
  15:Src/Engine/midiScheduler.h **** 		for (size_t i = 1; i < kMaxEvents; ++i) {
 1351              		.loc 10 15 3 is_stmt 1 view .LVU619
 1352              	.LVL50:
  15:Src/Engine/midiScheduler.h **** 		for (size_t i = 1; i < kMaxEvents; ++i) {
 1353              		.loc 10 15 24 view .LVU620
 1354              		.loc 10 16 4 is_stmt 0 view .LVU621
 1355 03e0 9467     		str	r4, [r2, #120]
  15:Src/Engine/midiScheduler.h **** 		for (size_t i = 1; i < kMaxEvents; ++i) {
 1356              		.loc 10 15 3 is_stmt 1 view .LVU622
 1357              	.LVL51:
ARM GAS  /var/folders/84/_x1cyy_j36g486tldtwl37280000gn/T//ccZ8X9jg.s 			page 39


  15:Src/Engine/midiScheduler.h **** 		for (size_t i = 1; i < kMaxEvents; ++i) {
 1358              		.loc 10 15 24 view .LVU623
 1359              		.loc 10 16 4 is_stmt 0 view .LVU624
 1360 03e2 C2F88C00 		str	r0, [r2, #140]
  15:Src/Engine/midiScheduler.h **** 		for (size_t i = 1; i < kMaxEvents; ++i) {
 1361              		.loc 10 15 3 is_stmt 1 view .LVU625
 1362              	.LVL52:
  15:Src/Engine/midiScheduler.h **** 		for (size_t i = 1; i < kMaxEvents; ++i) {
 1363              		.loc 10 15 24 view .LVU626
 1364              		.loc 10 16 4 is_stmt 0 view .LVU627
 1365 03e6 C2F8A010 		str	r1, [r2, #160]
  15:Src/Engine/midiScheduler.h **** 		for (size_t i = 1; i < kMaxEvents; ++i) {
 1366              		.loc 10 15 3 is_stmt 1 view .LVU628
 1367              	.LVL53:
  15:Src/Engine/midiScheduler.h **** 		for (size_t i = 1; i < kMaxEvents; ++i) {
 1368              		.loc 10 15 24 view .LVU629
 1369              		.loc 10 16 4 is_stmt 0 view .LVU630
 1370 03ea C2F8B430 		str	r3, [r2, #180]
  15:Src/Engine/midiScheduler.h **** 		for (size_t i = 1; i < kMaxEvents; ++i) {
 1371              		.loc 10 15 3 is_stmt 1 view .LVU631
 1372              	.LVL54:
  15:Src/Engine/midiScheduler.h **** 		for (size_t i = 1; i < kMaxEvents; ++i) {
 1373              		.loc 10 15 24 view .LVU632
 1374 03ee 02F1C802 		add	r2, r2, #200
 1375 03f2 DED1     		bne	.L4
 1376              	.LVL55:
  15:Src/Engine/midiScheduler.h **** 		for (size_t i = 1; i < kMaxEvents; ++i) {
 1377              		.loc 10 15 24 is_stmt 0 view .LVU633
 1378              	.LBE1558:
 1379              	.LBE1556:
 1380              	.LBE1555:
  16:Src/Engine/midiOutputEngine.h **** 			scheduler_[i].init();
 1381              		.loc 9 16 3 is_stmt 1 view .LVU634
  16:Src/Engine/midiOutputEngine.h **** 			scheduler_[i].init();
 1382              		.loc 9 16 21 view .LVU635
 1383 03f4 08F20C58 		addw	r8, r8, #1292
 1384 03f8 C845     		cmp	r8, r9
 1385 03fa CAD1     		bne	.L5
 1386 03fc 0AF54151 		add	r1, r10, #12352
 1387 0400 0231     		adds	r1, r1, #2
 1388              	.LBE1554:
 1389              	.LBB1559:
  18:Src/Engine/midiOutputEngine.h **** 		}
  19:Src/Engine/midiOutputEngine.h **** 
  20:Src/Engine/midiOutputEngine.h **** 		for (int i = 0; i < MidiEvent::NUM_SOURCES; ++i) {
  21:Src/Engine/midiOutputEngine.h **** 			tied_event_[i].tie = false;
 1390              		.loc 9 21 4 view .LVU636
 1391              	.LBE1559:
 1392              	.LBB1560:
 1393 0402 0022     		movs	r2, #0
 1394 0404 0C23     		movs	r3, #12
 1395              	.LBE1560:
 1396              	.LBB1561:
 1397              		.loc 9 21 23 is_stmt 0 view .LVU637
 1398 0406 8A54     		strb	r2, [r1, r2]
  20:Src/Engine/midiOutputEngine.h **** 			tied_event_[i].tie = false;
 1399              		.loc 9 20 3 is_stmt 1 view .LVU638
ARM GAS  /var/folders/84/_x1cyy_j36g486tldtwl37280000gn/T//ccZ8X9jg.s 			page 40


  20:Src/Engine/midiOutputEngine.h **** 			tied_event_[i].tie = false;
 1400              		.loc 9 20 21 view .LVU639
 1401              	.L6:
 1402              		.loc 9 21 4 view .LVU640
 1403              		.loc 9 21 23 is_stmt 0 view .LVU641
 1404 0408 0022     		movs	r2, #0
 1405 040a CA54     		strb	r2, [r1, r3]
  20:Src/Engine/midiOutputEngine.h **** 			tied_event_[i].tie = false;
 1406              		.loc 9 20 3 is_stmt 1 view .LVU642
  20:Src/Engine/midiOutputEngine.h **** 			tied_event_[i].tie = false;
 1407              		.loc 9 20 21 view .LVU643
 1408              		.loc 9 21 4 view .LVU644
 1409 040c 03F10C09 		add	r9, r3, #12
 1410 0410 03F1180B 		add	fp, r3, #24
 1411 0414 03F1240E 		add	lr, r3, #36
 1412 0418 03F1300C 		add	ip, r3, #48
 1413 041c 03F13C07 		add	r7, r3, #60
 1414 0420 03F14806 		add	r6, r3, #72
 1415 0424 03F15405 		add	r5, r3, #84
 1416 0428 03F16004 		add	r4, r3, #96
 1417 042c 03F16C00 		add	r0, r3, #108
 1418 0430 7833     		adds	r3, r3, #120
  20:Src/Engine/midiOutputEngine.h **** 			tied_event_[i].tie = false;
 1419              		.loc 9 20 21 is_stmt 0 view .LVU645
 1420 0432 FC2B     		cmp	r3, #252
 1421              		.loc 9 21 23 view .LVU646
 1422 0434 01F80920 		strb	r2, [r1, r9]
  20:Src/Engine/midiOutputEngine.h **** 			tied_event_[i].tie = false;
 1423              		.loc 9 20 3 is_stmt 1 view .LVU647
  20:Src/Engine/midiOutputEngine.h **** 			tied_event_[i].tie = false;
 1424              		.loc 9 20 21 view .LVU648
 1425              		.loc 9 21 4 view .LVU649
 1426              		.loc 9 21 23 is_stmt 0 view .LVU650
 1427 0438 01F80B20 		strb	r2, [r1, fp]
  20:Src/Engine/midiOutputEngine.h **** 			tied_event_[i].tie = false;
 1428              		.loc 9 20 3 is_stmt 1 view .LVU651
  20:Src/Engine/midiOutputEngine.h **** 			tied_event_[i].tie = false;
 1429              		.loc 9 20 21 view .LVU652
 1430              		.loc 9 21 4 view .LVU653
 1431              		.loc 9 21 23 is_stmt 0 view .LVU654
 1432 043c 01F80E20 		strb	r2, [r1, lr]
  20:Src/Engine/midiOutputEngine.h **** 			tied_event_[i].tie = false;
 1433              		.loc 9 20 3 is_stmt 1 view .LVU655
  20:Src/Engine/midiOutputEngine.h **** 			tied_event_[i].tie = false;
 1434              		.loc 9 20 21 view .LVU656
 1435              		.loc 9 21 4 view .LVU657
 1436              		.loc 9 21 23 is_stmt 0 view .LVU658
 1437 0440 01F80C20 		strb	r2, [r1, ip]
  20:Src/Engine/midiOutputEngine.h **** 			tied_event_[i].tie = false;
 1438              		.loc 9 20 3 is_stmt 1 view .LVU659
  20:Src/Engine/midiOutputEngine.h **** 			tied_event_[i].tie = false;
 1439              		.loc 9 20 21 view .LVU660
 1440              		.loc 9 21 4 view .LVU661
 1441              		.loc 9 21 23 is_stmt 0 view .LVU662
 1442 0444 CA55     		strb	r2, [r1, r7]
  20:Src/Engine/midiOutputEngine.h **** 			tied_event_[i].tie = false;
 1443              		.loc 9 20 3 is_stmt 1 view .LVU663
ARM GAS  /var/folders/84/_x1cyy_j36g486tldtwl37280000gn/T//ccZ8X9jg.s 			page 41


  20:Src/Engine/midiOutputEngine.h **** 			tied_event_[i].tie = false;
 1444              		.loc 9 20 21 view .LVU664
 1445              		.loc 9 21 4 view .LVU665
 1446              		.loc 9 21 23 is_stmt 0 view .LVU666
 1447 0446 8A55     		strb	r2, [r1, r6]
  20:Src/Engine/midiOutputEngine.h **** 			tied_event_[i].tie = false;
 1448              		.loc 9 20 3 is_stmt 1 view .LVU667
  20:Src/Engine/midiOutputEngine.h **** 			tied_event_[i].tie = false;
 1449              		.loc 9 20 21 view .LVU668
 1450              		.loc 9 21 4 view .LVU669
 1451              		.loc 9 21 23 is_stmt 0 view .LVU670
 1452 0448 4A55     		strb	r2, [r1, r5]
  20:Src/Engine/midiOutputEngine.h **** 			tied_event_[i].tie = false;
 1453              		.loc 9 20 3 is_stmt 1 view .LVU671
  20:Src/Engine/midiOutputEngine.h **** 			tied_event_[i].tie = false;
 1454              		.loc 9 20 21 view .LVU672
 1455              		.loc 9 21 4 view .LVU673
 1456              		.loc 9 21 23 is_stmt 0 view .LVU674
 1457 044a 0A55     		strb	r2, [r1, r4]
  20:Src/Engine/midiOutputEngine.h **** 			tied_event_[i].tie = false;
 1458              		.loc 9 20 3 is_stmt 1 view .LVU675
  20:Src/Engine/midiOutputEngine.h **** 			tied_event_[i].tie = false;
 1459              		.loc 9 20 21 view .LVU676
 1460              		.loc 9 21 4 view .LVU677
 1461              		.loc 9 21 23 is_stmt 0 view .LVU678
 1462 044c 0A54     		strb	r2, [r1, r0]
  20:Src/Engine/midiOutputEngine.h **** 			tied_event_[i].tie = false;
 1463              		.loc 9 20 3 is_stmt 1 view .LVU679
  20:Src/Engine/midiOutputEngine.h **** 			tied_event_[i].tie = false;
 1464              		.loc 9 20 21 view .LVU680
 1465 044e DBD1     		bne	.L6
 1466              	.LVL56:
  20:Src/Engine/midiOutputEngine.h **** 			tied_event_[i].tie = false;
 1467              		.loc 9 20 21 is_stmt 0 view .LVU681
 1468              	.LBE1561:
 1469              	.LBE1562:
 1470              	.LBE1563:
  17:Src/Engine/engine.cpp **** 	midiInputEngine.init(&midiOutputEngine);
 1471              		.loc 1 17 2 is_stmt 1 view .LVU682
 1472              	.LBB1564:
 1473              	.LBI1564:
 1474              		.file 11 "Src/Engine/midiInputEngine.h"
   1:Src/Engine/midiInputEngine.h **** #ifndef MidiInputEngine_h
   2:Src/Engine/midiInputEngine.h **** #define MidiInputEngine_h
   3:Src/Engine/midiInputEngine.h **** 
   4:Src/Engine/midiInputEngine.h **** #include "settings.h"
   5:Src/Engine/midiInputEngine.h **** #include "noteStack.h"
   6:Src/Engine/midiInputEngine.h **** #include "arpeggiatorEngine.h"
   7:Src/Engine/midiInputEngine.h **** #include "midiOutputEngine.h"
   8:Src/Engine/midiInputEngine.h **** 
   9:Src/Engine/midiInputEngine.h **** class MidiInputEngine {
  10:Src/Engine/midiInputEngine.h **** 
  11:Src/Engine/midiInputEngine.h **** public:
  12:Src/Engine/midiInputEngine.h **** 
  13:Src/Engine/midiInputEngine.h **** 	void init(MidiOutputEngine *outputEngine) {
 1475              		.loc 11 13 7 view .LVU683
 1476              	.LBB1565:
ARM GAS  /var/folders/84/_x1cyy_j36g486tldtwl37280000gn/T//ccZ8X9jg.s 			page 42


  14:Src/Engine/midiInputEngine.h **** 		ticks = 0;
 1477              		.loc 11 14 3 view .LVU684
 1478              		.loc 11 14 9 is_stmt 0 view .LVU685
 1479 0450 41F28427 		movw	r7, #4740
  15:Src/Engine/midiInputEngine.h **** 		reset_request = 0;
 1480              		.loc 11 15 17 view .LVU686
 1481 0454 41F28828 		movw	r8, #4744
  16:Src/Engine/midiInputEngine.h **** 
  17:Src/Engine/midiInputEngine.h **** 		outputEngine_ = outputEngine;
 1482              		.loc 11 17 17 view .LVU687
 1483 0458 41F28C21 		movw	r1, #4748
 1484 045c 029B     		ldr	r3, [sp, #8]
  14:Src/Engine/midiInputEngine.h **** 		reset_request = 0;
 1485              		.loc 11 14 9 view .LVU688
 1486 045e 4AF80720 		str	r2, [r10, r7]
  15:Src/Engine/midiInputEngine.h **** 		reset_request = 0;
 1487              		.loc 11 15 3 is_stmt 1 view .LVU689
 1488 0462 0AF5AB54 		add	r4, r10, #5472
 1489              		.loc 11 17 17 is_stmt 0 view .LVU690
 1490 0466 4AF80130 		str	r3, [r10, r1]
 1491 046a 0AF59457 		add	r7, r10, #4736
  15:Src/Engine/midiInputEngine.h **** 		reset_request = 0;
 1492              		.loc 11 15 17 view .LVU691
 1493 046e 0AF80820 		strb	r2, [r10, r8]
 1494              		.loc 11 17 3 is_stmt 1 view .LVU692
  18:Src/Engine/midiInputEngine.h **** 
  19:Src/Engine/midiInputEngine.h **** 		for (int i = 0; i < MidiPort::NUM_PORTS; ++i) {
 1495              		.loc 11 19 3 view .LVU693
 1496              	.LVL57:
 1497              	.LBB1566:
 1498              		.loc 11 19 21 view .LVU694
 1499 0472 CAEBCA65 		rsb	r5, r10, r10, lsl #27
 1500 0476 0AF59552 		add	r2, r10, #4768
 1501 047a 9C4E     		ldr	r6, .L65
 1502 047c 02F10408 		add	r8, r2, #4
 1503 0480 02F10A0B 		add	fp, r2, #10
 1504 0484 1037     		adds	r7, r7, #16
 1505 0486 0434     		adds	r4, r4, #4
 1506 0488 4FEA4519 		lsl	r9, r5, #5
 1507              	.LVL58:
 1508              	.L7:
  20:Src/Engine/midiInputEngine.h **** 			cc_value_[i] = 0;
 1509              		.loc 11 20 4 view .LVU695
 1510              	.LBB1567:
 1511              	.LBB1568:
 1512              		.file 12 "Src/Engine/noteStack.h"
   1:Src/Engine/noteStack.h **** #ifndef NoteStack_h
   2:Src/Engine/noteStack.h **** #define NoteStack_h
   3:Src/Engine/noteStack.h **** 
   4:Src/Engine/noteStack.h **** class NoteStack {
   5:Src/Engine/noteStack.h **** 
   6:Src/Engine/noteStack.h **** public:
   7:Src/Engine/noteStack.h **** 
   8:Src/Engine/noteStack.h **** 	void init() {
   9:Src/Engine/noteStack.h **** 		size_ = 0;
 1513              		.loc 12 9 9 is_stmt 0 view .LVU696
 1514 048c 07EB471E 		add	lr, r7, r7, lsl #5
ARM GAS  /var/folders/84/_x1cyy_j36g486tldtwl37280000gn/T//ccZ8X9jg.s 			page 43


 1515 0490 AEF5143C 		sub	ip, lr, #151552
 1516 0494 ACF5EA70 		sub	r0, ip, #468
 1517              	.LBE1568:
 1518              	.LBE1567:
 1519              		.loc 11 20 17 view .LVU697
 1520 0498 0025     		movs	r5, #0
 1521 049a 08F8015B 		strb	r5, [r8], #1
  21:Src/Engine/midiInputEngine.h **** 			bend_value_[i] = 0;
 1522              		.loc 11 21 4 is_stmt 1 view .LVU698
 1523              		.loc 11 21 19 is_stmt 0 view .LVU699
 1524 049e 2BF8025B 		strh	r5, [fp], #2	@ movhi
  22:Src/Engine/midiInputEngine.h **** 			note_stack_[i].init();
 1525              		.loc 11 22 4 is_stmt 1 view .LVU700
 1526              	.LBB1570:
 1527              	.LBI1567:
   8:Src/Engine/noteStack.h **** 		size_ = 0;
 1528              		.loc 12 8 7 view .LVU701
 1529              	.LVL59:
 1530              	.LBB1569:
 1531              		.loc 12 9 3 view .LVU702
 1532              		.loc 12 9 9 is_stmt 0 view .LVU703
 1533 04a2 00F80950 		strb	r5, [r0, r9]
 1534              	.LBE1569:
 1535              	.LBE1570:
  23:Src/Engine/midiInputEngine.h **** 			channel_receive_[i] = 0;
 1536              		.loc 11 23 4 is_stmt 1 view .LVU704
 1537              		.loc 11 23 24 is_stmt 0 view .LVU705
 1538 04a6 47F8045B 		str	r5, [r7], #4
  24:Src/Engine/midiInputEngine.h **** 			arpeggiatorEngine[i].init(&settings.midiInput(i).arpeggiator);
 1539              		.loc 11 24 4 is_stmt 1 view .LVU706
 1540              	.LBB1571:
 1541              	.LBB1572:
 1542              	.LBB1573:
 1543              	.LBB1574:
 1544              	.LBB1575:
 1545              	.LBB1576:
  81:Src/Engine/clockEngine.h **** 		ticks_32th_dotted = 0;
 1546              		.loc 8 81 20 is_stmt 0 view .LVU707
 1547 04aa C4E90D55 		strd	r5, r5, [r4, #52]
 1548              	.LBE1576:
 1549              	.LBE1575:
 1550              	.LBE1574:
 1551              	.LBE1573:
 1552              		.file 13 "Src/Engine/arpeggiatorEngine.h"
   1:Src/Engine/arpeggiatorEngine.h **** #ifndef ArpeggiatorEngine_h
   2:Src/Engine/arpeggiatorEngine.h **** #define ArpeggiatorEngine_h
   3:Src/Engine/arpeggiatorEngine.h **** 
   4:Src/Engine/arpeggiatorEngine.h **** #include "stmf4lib.h"
   5:Src/Engine/arpeggiatorEngine.h **** #include "arpeggiator.h"
   6:Src/Engine/arpeggiatorEngine.h **** #include "clockEngine.h"
   7:Src/Engine/arpeggiatorEngine.h **** #include "reciprocal.h"
   8:Src/Engine/arpeggiatorEngine.h **** 
   9:Src/Engine/arpeggiatorEngine.h **** class ArpeggiatorEngine {
  10:Src/Engine/arpeggiatorEngine.h **** 
  11:Src/Engine/arpeggiatorEngine.h **** public:
  12:Src/Engine/arpeggiatorEngine.h **** 
  13:Src/Engine/arpeggiatorEngine.h **** 	void init(Arpeggiator *arppegiator) {
ARM GAS  /var/folders/84/_x1cyy_j36g486tldtwl37280000gn/T//ccZ8X9jg.s 			page 44


  14:Src/Engine/arpeggiatorEngine.h **** 		arpeggiator_ = arppegiator;
 1553              		.loc 13 14 16 view .LVU708
 1554 04ae 6662     		str	r6, [r4, #36]
 1555              	.LBB1586:
 1556              	.LBB1587:
  15:Src/Engine/arpeggiatorEngine.h **** 		clear_notes();
  16:Src/Engine/arpeggiatorEngine.h **** 		reset();
  17:Src/Engine/arpeggiatorEngine.h **** 	}
  18:Src/Engine/arpeggiatorEngine.h **** 
  19:Src/Engine/arpeggiatorEngine.h **** 	void reset() {
  20:Src/Engine/arpeggiatorEngine.h **** 		trigger_position_ = 0;
  21:Src/Engine/arpeggiatorEngine.h **** 		clockEngine.reset();
  22:Src/Engine/arpeggiatorEngine.h **** 		reset(&note_clock, arpeggiator_->note_mode());
  23:Src/Engine/arpeggiatorEngine.h **** 		reset(&gate_clock, arpeggiator_->gate_mode());
  24:Src/Engine/arpeggiatorEngine.h **** 		reset(&velocity_clock, arpeggiator_->velocity_mode());
  25:Src/Engine/arpeggiatorEngine.h **** 	}
  26:Src/Engine/arpeggiatorEngine.h **** 
  27:Src/Engine/arpeggiatorEngine.h **** 	bool tick() {
  28:Src/Engine/arpeggiatorEngine.h **** 		clockEngine.set_speed(arpeggiator_->speed());
  29:Src/Engine/arpeggiatorEngine.h **** 
  30:Src/Engine/arpeggiatorEngine.h **** 		if (clockEngine.tick() && trigger()) {
  31:Src/Engine/arpeggiatorEngine.h **** 			tick(&note_clock, arpeggiator_->note_mode());
  32:Src/Engine/arpeggiatorEngine.h **** 			tick(&gate_clock, arpeggiator_->gate_mode());
  33:Src/Engine/arpeggiatorEngine.h **** 			tick(&velocity_clock, arpeggiator_->velocity_mode());
  34:Src/Engine/arpeggiatorEngine.h **** 			return true;
  35:Src/Engine/arpeggiatorEngine.h **** 		}
  36:Src/Engine/arpeggiatorEngine.h **** 		return false;
  37:Src/Engine/arpeggiatorEngine.h **** 	}
  38:Src/Engine/arpeggiatorEngine.h **** 
  39:Src/Engine/arpeggiatorEngine.h **** 	void clear_notes() {
  40:Src/Engine/arpeggiatorEngine.h **** 		size_ = 0;
 1557              		.loc 13 40 9 view .LVU709
 1558 04b0 04F8145C 		strb	r5, [r4, #-20]
 1559              	.LBE1587:
 1560              	.LBE1586:
 1561              	.LBB1589:
 1562              	.LBB1581:
  20:Src/Engine/arpeggiatorEngine.h **** 		clockEngine.reset();
 1563              		.loc 13 20 21 view .LVU710
 1564 04b4 04F8035C 		strb	r5, [r4, #-3]
 1565              	.LBB1579:
 1566              	.LBB1577:
  73:Src/Engine/clockEngine.h **** 		ticks_passed_ = 0;
 1567              		.loc 8 73 14 view .LVU711
 1568 04b8 84F82950 		strb	r5, [r4, #41]
  74:Src/Engine/clockEngine.h **** 
 1569              		.loc 8 74 17 view .LVU712
 1570 04bc E562     		str	r5, [r4, #44]
  76:Src/Engine/clockEngine.h **** 		prescaler_32th_whole = 0;
 1571              		.loc 8 76 26 view .LVU713
 1572 04be 84F83050 		strb	r5, [r4, #48]
  77:Src/Engine/clockEngine.h **** 		prescaler_32th_dotted = 0;
 1573              		.loc 8 77 24 view .LVU714
 1574 04c2 84F83150 		strb	r5, [r4, #49]
  78:Src/Engine/clockEngine.h **** 
 1575              		.loc 8 78 25 view .LVU715
 1576 04c6 84F83250 		strb	r5, [r4, #50]
ARM GAS  /var/folders/84/_x1cyy_j36g486tldtwl37280000gn/T//ccZ8X9jg.s 			page 45


 1577              		.loc 8 82 21 view .LVU716
 1578 04ca E563     		str	r5, [r4, #60]
 1579 04cc A4F11400 		sub	r0, r4, #20
 1580              	.LVL60:
 1581              		.loc 8 82 21 view .LVU717
 1582              	.LBE1577:
 1583              	.LBE1579:
 1584              	.LBE1581:
 1585              	.LBE1589:
 1586              	.LBE1572:
 1587              	.LBE1571:
 1588              	.LBE1566:
 1589              	.LBE1565:
 1590              	.LBE1564:
 1591              		.file 14 "Src/Settings/settings.h"
   1:Src/Settings/settings.h **** #ifndef Settings_h
   2:Src/Settings/settings.h **** #define Settings_h
   3:Src/Settings/settings.h **** 
   4:Src/Settings/settings.h **** #include "song.h"
   5:Src/Settings/settings.h **** #include "clipboard.h"
   6:Src/Settings/settings.h **** #include "cvOutput.h"
   7:Src/Settings/settings.h **** #include "cvInput.h"
   8:Src/Settings/settings.h **** #include "midiInput.h"
   9:Src/Settings/settings.h **** #include "midiOutput.h"
  10:Src/Settings/settings.h **** #include "calibration.h"
  11:Src/Settings/settings.h **** #include "drumKit.h"
  12:Src/Settings/settings.h **** 
  13:Src/Settings/settings.h **** class Settings {
  14:Src/Settings/settings.h **** 
  15:Src/Settings/settings.h **** public:
  16:Src/Settings/settings.h **** 
  17:Src/Settings/settings.h **** 	const uint32_t current_version() {
  18:Src/Settings/settings.h **** 		return 1;
  19:Src/Settings/settings.h **** 	}
  20:Src/Settings/settings.h **** 
  21:Src/Settings/settings.h **** 	const char* current_version_text() {
  22:Src/Settings/settings.h **** 		return "VERSION 1.0";
  23:Src/Settings/settings.h **** 	}
  24:Src/Settings/settings.h **** 
  25:Src/Settings/settings.h **** 	Song song;
  26:Src/Settings/settings.h **** 	DrumKit drumKit;
  27:Src/Settings/settings.h **** 	Calibration calibration;
  28:Src/Settings/settings.h **** 
  29:Src/Settings/settings.h **** 	MidiInput &midiInput(int port) {
  30:Src/Settings/settings.h **** 		return midiInput_[port];
 1592              		.loc 14 30 3 is_stmt 1 view .LVU718
 1593              	.LBB1611:
 1594              	.LBB1607:
 1595              	.LBB1603:
 1596              	.LBB1599:
 1597              	.LBI1571:
  13:Src/Engine/arpeggiatorEngine.h **** 		arpeggiator_ = arppegiator;
 1598              		.loc 13 13 7 view .LVU719
 1599              	.LBB1595:
  14:Src/Engine/arpeggiatorEngine.h **** 		clear_notes();
 1600              		.loc 13 14 3 view .LVU720
  15:Src/Engine/arpeggiatorEngine.h **** 		reset();
ARM GAS  /var/folders/84/_x1cyy_j36g486tldtwl37280000gn/T//ccZ8X9jg.s 			page 46


 1601              		.loc 13 15 3 view .LVU721
 1602              	.LBB1590:
 1603              	.LBI1586:
  39:Src/Engine/arpeggiatorEngine.h **** 		size_ = 0;
 1604              		.loc 13 39 7 view .LVU722
 1605              	.LBB1588:
 1606              		.loc 13 40 3 view .LVU723
 1607              	.LBE1588:
 1608              	.LBE1590:
  16:Src/Engine/arpeggiatorEngine.h **** 	}
 1609              		.loc 13 16 3 view .LVU724
 1610              	.LBB1591:
 1611              	.LBI1573:
  19:Src/Engine/arpeggiatorEngine.h **** 		trigger_position_ = 0;
 1612              		.loc 13 19 7 view .LVU725
 1613              	.LBB1582:
  20:Src/Engine/arpeggiatorEngine.h **** 		clockEngine.reset();
 1614              		.loc 13 20 3 view .LVU726
  21:Src/Engine/arpeggiatorEngine.h **** 		reset(&note_clock, arpeggiator_->note_mode());
 1615              		.loc 13 21 3 view .LVU727
 1616              	.LBB1580:
 1617              	.LBI1575:
  72:Src/Engine/clockEngine.h **** 		triggered_ = 0;
 1618              		.loc 8 72 7 view .LVU728
 1619              	.LBB1578:
  73:Src/Engine/clockEngine.h **** 		ticks_passed_ = 0;
 1620              		.loc 8 73 3 view .LVU729
  74:Src/Engine/clockEngine.h **** 
 1621              		.loc 8 74 3 view .LVU730
  76:Src/Engine/clockEngine.h **** 		prescaler_32th_whole = 0;
 1622              		.loc 8 76 3 view .LVU731
  77:Src/Engine/clockEngine.h **** 		prescaler_32th_dotted = 0;
 1623              		.loc 8 77 3 view .LVU732
  78:Src/Engine/clockEngine.h **** 
 1624              		.loc 8 78 3 view .LVU733
  80:Src/Engine/clockEngine.h **** 		ticks_32th_whole = 0;
 1625              		.loc 8 80 3 view .LVU734
  81:Src/Engine/clockEngine.h **** 		ticks_32th_dotted = 0;
 1626              		.loc 8 81 3 view .LVU735
 1627              		.loc 8 82 3 view .LVU736
 1628              		.loc 8 82 3 is_stmt 0 view .LVU737
 1629              	.LBE1578:
 1630              	.LBE1580:
  22:Src/Engine/arpeggiatorEngine.h **** 		reset(&gate_clock, arpeggiator_->gate_mode());
 1631              		.loc 13 22 3 is_stmt 1 view .LVU738
  22:Src/Engine/arpeggiatorEngine.h **** 		reset(&gate_clock, arpeggiator_->gate_mode());
 1632              		.loc 13 22 3 is_stmt 0 view .LVU739
 1633              	.LBE1582:
 1634              	.LBE1591:
 1635              	.LBE1595:
 1636              	.LBE1599:
 1637              	.LBE1603:
 1638              	.LBE1607:
 1639              	.LBE1611:
 1640              		.file 15 "Src/Settings/arpeggiator.h"
   1:Src/Settings/arpeggiator.h **** #ifndef Arpeggiator_h
   2:Src/Settings/arpeggiator.h **** #define Arpeggiator_h
ARM GAS  /var/folders/84/_x1cyy_j36g486tldtwl37280000gn/T//ccZ8X9jg.s 			page 47


   3:Src/Settings/arpeggiator.h **** 
   4:Src/Settings/arpeggiator.h **** #include "stmf4lib.h"
   5:Src/Settings/arpeggiator.h **** #include "fileReader.h"
   6:Src/Settings/arpeggiator.h **** #include "fileWriter.h"
   7:Src/Settings/arpeggiator.h **** #include "clockEngine.h"
   8:Src/Settings/arpeggiator.h **** #include "uiText.h"
   9:Src/Settings/arpeggiator.h **** 
  10:Src/Settings/arpeggiator.h **** class Arpeggiator {
  11:Src/Settings/arpeggiator.h **** 
  12:Src/Settings/arpeggiator.h **** public:
  13:Src/Settings/arpeggiator.h **** 
  14:Src/Settings/arpeggiator.h **** 	enum TriggerMode {
  15:Src/Settings/arpeggiator.h **** 		XOOX,
  16:Src/Settings/arpeggiator.h **** 		XOXX,
  17:Src/Settings/arpeggiator.h **** 		XXOO,
  18:Src/Settings/arpeggiator.h **** 		XXOX,
  19:Src/Settings/arpeggiator.h **** 		XXXO,
  20:Src/Settings/arpeggiator.h **** 		XXXX,
  21:Src/Settings/arpeggiator.h **** 
  22:Src/Settings/arpeggiator.h **** 		NUM_TRIGGER_MODES
  23:Src/Settings/arpeggiator.h **** 	};
  24:Src/Settings/arpeggiator.h **** 
  25:Src/Settings/arpeggiator.h **** 	static const char* trigger_mode_text(uint8_t mode) {
  26:Src/Settings/arpeggiator.h **** 		switch (mode)
  27:Src/Settings/arpeggiator.h **** 		{
  28:Src/Settings/arpeggiator.h **** 		case XOOX:	return "|..|";
  29:Src/Settings/arpeggiator.h **** 		case XOXX:	return "|.||";
  30:Src/Settings/arpeggiator.h **** 		case XXOO:	return "||..";
  31:Src/Settings/arpeggiator.h **** 		case XXOX:	return "||.|";
  32:Src/Settings/arpeggiator.h **** 		case XXXO:	return "|||.";
  33:Src/Settings/arpeggiator.h **** 		case XXXX:	return "||||";
  34:Src/Settings/arpeggiator.h **** 		default:	break;
  35:Src/Settings/arpeggiator.h **** 		}
  36:Src/Settings/arpeggiator.h **** 		return nullptr;
  37:Src/Settings/arpeggiator.h **** 	}
  38:Src/Settings/arpeggiator.h **** 
  39:Src/Settings/arpeggiator.h **** 	const uint8_t trigger_mask() {
  40:Src/Settings/arpeggiator.h **** 		switch (trigger_mode_)
  41:Src/Settings/arpeggiator.h **** 		{
  42:Src/Settings/arpeggiator.h **** 		case XOOX:	return 0x9;
  43:Src/Settings/arpeggiator.h **** 		case XOXX:	return 0xD;
  44:Src/Settings/arpeggiator.h **** 		case XXOO:	return 0x3;
  45:Src/Settings/arpeggiator.h **** 		case XXOX:	return 0xB;
  46:Src/Settings/arpeggiator.h **** 		case XXXO:	return 0x7;
  47:Src/Settings/arpeggiator.h **** 		case XXXX:	return 0xF;
  48:Src/Settings/arpeggiator.h **** 		default:	break;
  49:Src/Settings/arpeggiator.h **** 		}
  50:Src/Settings/arpeggiator.h **** 		return 0x00;
  51:Src/Settings/arpeggiator.h **** 	}
  52:Src/Settings/arpeggiator.h **** 
  53:Src/Settings/arpeggiator.h **** 	enum ClockMode {
  54:Src/Settings/arpeggiator.h **** 		OFF,
  55:Src/Settings/arpeggiator.h **** 		FORWARD,
  56:Src/Settings/arpeggiator.h **** 		REVERSE,
  57:Src/Settings/arpeggiator.h **** 		ALTERNATE,
  58:Src/Settings/arpeggiator.h **** 		ALTERNATE_REVERSE,
  59:Src/Settings/arpeggiator.h **** 		PINGPONG,
ARM GAS  /var/folders/84/_x1cyy_j36g486tldtwl37280000gn/T//ccZ8X9jg.s 			page 48


  60:Src/Settings/arpeggiator.h **** 		PINGPONG_REVERSE,
  61:Src/Settings/arpeggiator.h **** 		ZIGZAG,
  62:Src/Settings/arpeggiator.h **** 		ZIGZAG_REVERSE,
  63:Src/Settings/arpeggiator.h **** 
  64:Src/Settings/arpeggiator.h **** 		NUM_CLOCK_MODES
  65:Src/Settings/arpeggiator.h **** 	};
  66:Src/Settings/arpeggiator.h **** 
  67:Src/Settings/arpeggiator.h **** 	static const char* clock_mode_text(uint8_t mode) {
  68:Src/Settings/arpeggiator.h **** 		switch (mode)
  69:Src/Settings/arpeggiator.h **** 		{
  70:Src/Settings/arpeggiator.h **** 		case OFF:				return "OFF";
  71:Src/Settings/arpeggiator.h **** 		case FORWARD:			return "FORWARD";
  72:Src/Settings/arpeggiator.h **** 		case REVERSE:			return "REVERSE";
  73:Src/Settings/arpeggiator.h **** 		case ALTERNATE:			return "ALTERNATE";
  74:Src/Settings/arpeggiator.h **** 		case ALTERNATE_REVERSE:	return "ALTERNATE REVERSE";
  75:Src/Settings/arpeggiator.h **** 		case PINGPONG:			return "PINGPONG";
  76:Src/Settings/arpeggiator.h **** 		case PINGPONG_REVERSE:	return "PINGPONG REVERSE";
  77:Src/Settings/arpeggiator.h **** 		case ZIGZAG:			return "ZIGZAG";
  78:Src/Settings/arpeggiator.h **** 		case ZIGZAG_REVERSE:	return "ZIGZAG REVERSE";
  79:Src/Settings/arpeggiator.h **** 		default:				break;
  80:Src/Settings/arpeggiator.h **** 		}
  81:Src/Settings/arpeggiator.h **** 		return nullptr;
  82:Src/Settings/arpeggiator.h **** 	}
  83:Src/Settings/arpeggiator.h **** 
  84:Src/Settings/arpeggiator.h **** 	static const char* clock_mode_text_small(uint8_t mode) {
  85:Src/Settings/arpeggiator.h **** 		switch (mode)
  86:Src/Settings/arpeggiator.h **** 		{
  87:Src/Settings/arpeggiator.h **** 		case OFF:				return "OFF";
  88:Src/Settings/arpeggiator.h **** 		case FORWARD:			return ">";
  89:Src/Settings/arpeggiator.h **** 		case REVERSE:			return "<";
  90:Src/Settings/arpeggiator.h **** 		case ALTERNATE:			return ">|<";
  91:Src/Settings/arpeggiator.h **** 		case ALTERNATE_REVERSE:	return "<|>";
  92:Src/Settings/arpeggiator.h **** 		case PINGPONG:			return "><";
  93:Src/Settings/arpeggiator.h **** 		case PINGPONG_REVERSE:	return "<>";
  94:Src/Settings/arpeggiator.h **** 		case ZIGZAG:			return "_-_";
  95:Src/Settings/arpeggiator.h **** 		case ZIGZAG_REVERSE:	return "-_-";
  96:Src/Settings/arpeggiator.h **** 		default:				break;
  97:Src/Settings/arpeggiator.h **** 		}
  98:Src/Settings/arpeggiator.h **** 		return nullptr;
  99:Src/Settings/arpeggiator.h **** 	}
 100:Src/Settings/arpeggiator.h **** 
 101:Src/Settings/arpeggiator.h **** 	void init() {
 102:Src/Settings/arpeggiator.h **** 		set_offset(0);
 103:Src/Settings/arpeggiator.h **** 		set_trigger_mode(XXXX);
 104:Src/Settings/arpeggiator.h **** 		set_velocity(100);
 105:Src/Settings/arpeggiator.h **** 		set_gate_length(4);
 106:Src/Settings/arpeggiator.h **** 		set_note_mode(OFF);
 107:Src/Settings/arpeggiator.h **** 		set_velocity_mode(OFF);
 108:Src/Settings/arpeggiator.h **** 		set_gate_mode(OFF);
 109:Src/Settings/arpeggiator.h **** 		set_swing(8);
 110:Src/Settings/arpeggiator.h **** 		set_speed(ClockEngine::WHOLE_16TH);
 111:Src/Settings/arpeggiator.h **** 	}
 112:Src/Settings/arpeggiator.h **** 
 113:Src/Settings/arpeggiator.h **** 
 114:Src/Settings/arpeggiator.h **** 	// optional boundary check to speed up chord track engine
 115:Src/Settings/arpeggiator.h **** 
 116:Src/Settings/arpeggiator.h **** 	// speed
ARM GAS  /var/folders/84/_x1cyy_j36g486tldtwl37280000gn/T//ccZ8X9jg.s 			page 49


 117:Src/Settings/arpeggiator.h **** 	uint8_t speed() {
 118:Src/Settings/arpeggiator.h **** 		return speed_;
 119:Src/Settings/arpeggiator.h **** 	}
 120:Src/Settings/arpeggiator.h **** 
 121:Src/Settings/arpeggiator.h **** 	void set_speed(int value, bool boundary_check = 1) {
 122:Src/Settings/arpeggiator.h **** 		speed_ = boundary_check ? stmlib::clip(0, ClockEngine::NUM_SIGNATURES - 1, value) : value;
 123:Src/Settings/arpeggiator.h **** 	}
 124:Src/Settings/arpeggiator.h **** 
 125:Src/Settings/arpeggiator.h **** 	const char* speed_text() {
 126:Src/Settings/arpeggiator.h **** 		return ClockEngine::speed_text(speed());
 127:Src/Settings/arpeggiator.h **** 	}
 128:Src/Settings/arpeggiator.h **** 
 129:Src/Settings/arpeggiator.h **** 	// speed
 130:Src/Settings/arpeggiator.h **** 	uint8_t swing() {
 131:Src/Settings/arpeggiator.h **** 		return swing_;
 132:Src/Settings/arpeggiator.h **** 	}
 133:Src/Settings/arpeggiator.h **** 
 134:Src/Settings/arpeggiator.h **** 	void set_swing(int value, bool boundary_check = 1) {
 135:Src/Settings/arpeggiator.h **** 		swing_ = boundary_check ? stmlib::clip(1, 15, value) : value;
 136:Src/Settings/arpeggiator.h **** 	}
 137:Src/Settings/arpeggiator.h **** 
 138:Src/Settings/arpeggiator.h **** 	const char* swing_text() {
 139:Src/Settings/arpeggiator.h **** 		return ClockEngine::swing_text(swing());
 140:Src/Settings/arpeggiator.h **** 	}
 141:Src/Settings/arpeggiator.h **** 
 142:Src/Settings/arpeggiator.h **** 	// offset
 143:Src/Settings/arpeggiator.h **** 	uint8_t offset() {
 144:Src/Settings/arpeggiator.h **** 		return offset_;
 145:Src/Settings/arpeggiator.h **** 	}
 146:Src/Settings/arpeggiator.h **** 
 147:Src/Settings/arpeggiator.h **** 	void set_offset(int value, bool boundary_check = 1) {
 148:Src/Settings/arpeggiator.h **** 		offset_ = boundary_check ? stmlib::clip(0, 15, value) : value;
 149:Src/Settings/arpeggiator.h **** 	}
 150:Src/Settings/arpeggiator.h **** 
 151:Src/Settings/arpeggiator.h **** 	const char* offset_text() {
 152:Src/Settings/arpeggiator.h **** 		return UiText::str.write(offset());
 153:Src/Settings/arpeggiator.h **** 	}
 154:Src/Settings/arpeggiator.h **** 
 155:Src/Settings/arpeggiator.h **** 	// trigger mode
 156:Src/Settings/arpeggiator.h **** 	uint8_t trigger_mode() {
 157:Src/Settings/arpeggiator.h **** 		return trigger_mode_;
 158:Src/Settings/arpeggiator.h **** 	}
 159:Src/Settings/arpeggiator.h **** 
 160:Src/Settings/arpeggiator.h **** 	void set_trigger_mode(int value, bool boundary_check = 1) {
 161:Src/Settings/arpeggiator.h **** 		trigger_mode_ = boundary_check ? stmlib::clip(0, NUM_TRIGGER_MODES - 1, value) : value;
 162:Src/Settings/arpeggiator.h **** 	}
 163:Src/Settings/arpeggiator.h **** 
 164:Src/Settings/arpeggiator.h **** 	const char* trigger_mode_text() {
 165:Src/Settings/arpeggiator.h **** 		return trigger_mode_text(trigger_mode());
 166:Src/Settings/arpeggiator.h **** 	}
 167:Src/Settings/arpeggiator.h **** 
 168:Src/Settings/arpeggiator.h **** 	// note mode
 169:Src/Settings/arpeggiator.h **** 	uint8_t note_mode() {
 170:Src/Settings/arpeggiator.h **** 		return note_mode_;
 1641              		.loc 15 170 3 is_stmt 1 view .LVU740
 1642              	.LBB1612:
 1643              	.LBB1608:
ARM GAS  /var/folders/84/_x1cyy_j36g486tldtwl37280000gn/T//ccZ8X9jg.s 			page 50


 1644              	.LBB1604:
 1645              	.LBB1600:
 1646              	.LBB1596:
 1647              	.LBB1592:
 1648              	.LBB1583:
  22:Src/Engine/arpeggiatorEngine.h **** 		reset(&gate_clock, arpeggiator_->gate_mode());
 1649              		.loc 13 22 8 is_stmt 0 view .LVU741
 1650 04d0 B279     		ldrb	r2, [r6, #6]	@ zero_extendqisi2
 1651 04d2 0090     		str	r0, [sp]
 1652 04d4 2146     		mov	r1, r4
 1653 04d6 FFF7FEFF 		bl	_ZN17ArpeggiatorEngine5resetEPNS_5ClockEh
 1654              	.LVL61:
  23:Src/Engine/arpeggiatorEngine.h **** 		reset(&velocity_clock, arpeggiator_->velocity_mode());
 1655              		.loc 13 23 3 is_stmt 1 view .LVU742
  23:Src/Engine/arpeggiatorEngine.h **** 		reset(&velocity_clock, arpeggiator_->velocity_mode());
 1656              		.loc 13 23 3 is_stmt 0 view .LVU743
 1657              	.LBE1583:
 1658              	.LBE1592:
 1659              	.LBE1596:
 1660              	.LBE1600:
 1661              	.LBE1604:
 1662              	.LBE1608:
 1663              	.LBE1612:
 171:Src/Settings/arpeggiator.h **** 	}
 172:Src/Settings/arpeggiator.h **** 
 173:Src/Settings/arpeggiator.h **** 	void set_note_mode(int value, bool boundary_check = 1) {
 174:Src/Settings/arpeggiator.h **** 		note_mode_ = boundary_check ? stmlib::clip(0, NUM_CLOCK_MODES - 1, value) : value;
 175:Src/Settings/arpeggiator.h **** 	}
 176:Src/Settings/arpeggiator.h **** 
 177:Src/Settings/arpeggiator.h **** 	const char* note_mode_text() {
 178:Src/Settings/arpeggiator.h **** 		return clock_mode_text(note_mode());
 179:Src/Settings/arpeggiator.h **** 	}
 180:Src/Settings/arpeggiator.h **** 
 181:Src/Settings/arpeggiator.h **** 	// velocity mode
 182:Src/Settings/arpeggiator.h **** 	uint8_t velocity_mode() {
 183:Src/Settings/arpeggiator.h **** 		return velocity_mode_;
 184:Src/Settings/arpeggiator.h **** 	}
 185:Src/Settings/arpeggiator.h **** 
 186:Src/Settings/arpeggiator.h **** 
 187:Src/Settings/arpeggiator.h **** 	void set_velocity_mode(int value, bool boundary_check = 1) {
 188:Src/Settings/arpeggiator.h **** 		velocity_mode_ = boundary_check ? stmlib::clip(0, NUM_CLOCK_MODES - 1, value) : value;
 189:Src/Settings/arpeggiator.h **** 	}
 190:Src/Settings/arpeggiator.h **** 
 191:Src/Settings/arpeggiator.h **** 	const char* velocity_mode_text() {
 192:Src/Settings/arpeggiator.h **** 		return clock_mode_text(velocity_mode());
 193:Src/Settings/arpeggiator.h **** 	}
 194:Src/Settings/arpeggiator.h **** 
 195:Src/Settings/arpeggiator.h **** 	// gate mode
 196:Src/Settings/arpeggiator.h **** 	uint8_t gate_mode() {
 197:Src/Settings/arpeggiator.h **** 		return gate_mode_;
 1664              		.loc 15 197 3 is_stmt 1 view .LVU744
 1665              	.LBB1613:
 1666              	.LBB1609:
 1667              	.LBB1605:
 1668              	.LBB1601:
 1669              	.LBB1597:
 1670              	.LBB1593:
ARM GAS  /var/folders/84/_x1cyy_j36g486tldtwl37280000gn/T//ccZ8X9jg.s 			page 51


 1671              	.LBB1584:
  23:Src/Engine/arpeggiatorEngine.h **** 		reset(&velocity_clock, arpeggiator_->velocity_mode());
 1672              		.loc 13 23 8 is_stmt 0 view .LVU745
 1673 04da 616A     		ldr	r1, [r4, #36]
 1674 04dc 0098     		ldr	r0, [sp]
 1675 04de CA79     		ldrb	r2, [r1, #7]	@ zero_extendqisi2
 1676 04e0 04F11801 		add	r1, r4, #24
 1677 04e4 FFF7FEFF 		bl	_ZN17ArpeggiatorEngine5resetEPNS_5ClockEh
 1678              	.LVL62:
  24:Src/Engine/arpeggiatorEngine.h **** 	}
 1679              		.loc 13 24 3 is_stmt 1 view .LVU746
  24:Src/Engine/arpeggiatorEngine.h **** 	}
 1680              		.loc 13 24 3 is_stmt 0 view .LVU747
 1681              	.LBE1584:
 1682              	.LBE1593:
 1683              	.LBE1597:
 1684              	.LBE1601:
 1685              	.LBE1605:
 1686              	.LBE1609:
 1687              	.LBE1613:
 183:Src/Settings/arpeggiator.h **** 	}
 1688              		.loc 15 183 3 is_stmt 1 view .LVU748
 1689              	.LBB1614:
 1690              	.LBB1610:
 1691              	.LBB1606:
 1692              	.LBB1602:
 1693              	.LBB1598:
 1694              	.LBB1594:
 1695              	.LBB1585:
  24:Src/Engine/arpeggiatorEngine.h **** 	}
 1696              		.loc 13 24 8 is_stmt 0 view .LVU749
 1697 04e8 636A     		ldr	r3, [r4, #36]
 1698 04ea 0098     		ldr	r0, [sp]
 1699 04ec 1A7A     		ldrb	r2, [r3, #8]	@ zero_extendqisi2
 1700 04ee 04F10C01 		add	r1, r4, #12
 1701 04f2 FFF7FEFF 		bl	_ZN17ArpeggiatorEngine5resetEPNS_5ClockEh
 1702              	.LVL63:
  24:Src/Engine/arpeggiatorEngine.h **** 	}
 1703              		.loc 13 24 8 view .LVU750
 1704              	.LBE1585:
 1705              	.LBE1594:
 1706              	.LBE1598:
 1707              	.LBE1602:
  25:Src/Engine/midiInputEngine.h **** 			arpeggiator_state_[i] = 0;
 1708              		.loc 11 25 4 is_stmt 1 view .LVU751
  19:Src/Engine/midiInputEngine.h **** 			cc_value_[i] = 0;
 1709              		.loc 11 19 21 is_stmt 0 view .LVU752
 1710 04f6 7E4A     		ldr	r2, .L65+4
 1711              		.loc 11 25 26 view .LVU753
 1712 04f8 88F80F50 		strb	r5, [r8, #15]
  19:Src/Engine/midiInputEngine.h **** 			cc_value_[i] = 0;
 1713              		.loc 11 19 3 is_stmt 1 view .LVU754
  19:Src/Engine/midiInputEngine.h **** 			cc_value_[i] = 0;
 1714              		.loc 11 19 21 view .LVU755
 1715 04fc 06F5CE76 		add	r6, r6, #412
 1716              	.LVL64:
  19:Src/Engine/midiInputEngine.h **** 			cc_value_[i] = 0;
ARM GAS  /var/folders/84/_x1cyy_j36g486tldtwl37280000gn/T//ccZ8X9jg.s 			page 52


 1717              		.loc 11 19 21 is_stmt 0 view .LVU756
 1718 0500 9642     		cmp	r6, r2
 1719 0502 04F15404 		add	r4, r4, #84
 1720 0506 C1D1     		bne	.L7
 1721              	.LVL65:
  19:Src/Engine/midiInputEngine.h **** 			cc_value_[i] = 0;
 1722              		.loc 11 19 21 view .LVU757
 1723              	.LBE1606:
 1724              	.LBE1610:
 1725              	.LBE1614:
  18:Src/Engine/engine.cpp **** 	midiRecordEngine.init(&midiOutputEngine);
 1726              		.loc 1 18 2 is_stmt 1 view .LVU758
 1727              	.LBB1615:
 1728              	.LBI1615:
 1729              		.file 16 "Src/Engine/midiRecordEngine.h"
   1:Src/Engine/midiRecordEngine.h **** #ifndef MidiRecordEngine_h
   2:Src/Engine/midiRecordEngine.h **** #define MidiRecordEngine_h
   3:Src/Engine/midiRecordEngine.h **** 
   4:Src/Engine/midiRecordEngine.h **** #include "midiEvent.h"
   5:Src/Engine/midiRecordEngine.h **** 
   6:Src/Engine/midiRecordEngine.h **** class MidiRecordEngine {
   7:Src/Engine/midiRecordEngine.h **** 
   8:Src/Engine/midiRecordEngine.h **** public:
   9:Src/Engine/midiRecordEngine.h **** 
  10:Src/Engine/midiRecordEngine.h **** 	void init(MidiOutputEngine *midiOutputEngine) {
 1730              		.loc 16 10 7 view .LVU759
 1731              	.LBB1616:
  11:Src/Engine/midiRecordEngine.h **** 		midiOutputEngine_ = midiOutputEngine;
 1732              		.loc 16 11 3 view .LVU760
 1733              		.loc 16 11 21 is_stmt 0 view .LVU761
 1734 0508 0AF54853 		add	r3, r10, #12800
 1735 050c 3033     		adds	r3, r3, #48
 1736 050e 0298     		ldr	r0, [sp, #8]
 1737 0510 C3F80404 		str	r0, [r3, #1028]
  12:Src/Engine/midiRecordEngine.h **** 		for (size_t i = 0; i < kMaxSize; ++i) {
 1738              		.loc 16 12 3 is_stmt 1 view .LVU762
 1739              	.LVL66:
 1740              	.LBB1617:
 1741              		.loc 16 12 24 view .LVU763
 1742 0514 0AF54C57 		add	r7, r10, #13056
 1743 0518 CAEBCA74 		rsb	r4, r10, r10, lsl #31
 1744 051c 07F1300B 		add	fp, r7, #48
 1745 0520 6100     		lsls	r1, r4, #1
 1746              	.LVL67:
 1747              	.L8:
  13:Src/Engine/midiRecordEngine.h **** 			length_[i] = 1;
 1748              		.loc 16 13 4 view .LVU764
 1749 0522 03F10408 		add	r8, r3, #4
  14:Src/Engine/midiRecordEngine.h **** 			events_[i].tie = true;
 1750              		.loc 16 14 19 is_stmt 0 view .LVU765
 1751 0526 03EB430E 		add	lr, r3, r3, lsl #1
 1752 052a AEF5C647 		sub	r7, lr, #25344
 1753 052e 08EB4809 		add	r9, r8, r8, lsl #1
 1754 0532 A9F5C642 		sub	r2, r9, #25344
 1755 0536 3E46     		mov	r6, r7
 1756 0538 3D46     		mov	r5, r7
 1757 053a 3C46     		mov	r4, r7
ARM GAS  /var/folders/84/_x1cyy_j36g486tldtwl37280000gn/T//ccZ8X9jg.s 			page 53


 1758 053c A2F15E09 		sub	r9, r2, #94
 1759 0540 A2F1520E 		sub	lr, r2, #82
 1760 0544 A7F13A0C 		sub	ip, r7, #58
 1761 0548 223E     		subs	r6, r6, #34
 1762 054a 2E3F     		subs	r7, r7, #46
 1763 054c 163D     		subs	r5, r5, #22
 1764 054e 0A3C     		subs	r4, r4, #10
  13:Src/Engine/midiRecordEngine.h **** 			length_[i] = 1;
 1765              		.loc 16 13 15 view .LVU766
 1766 0550 0122     		movs	r2, #1
 1767 0552 5A60     		str	r2, [r3, #4]
 1768              		.loc 16 14 4 is_stmt 1 view .LVU767
 1769              		.loc 16 14 19 is_stmt 0 view .LVU768
 1770 0554 09F80120 		strb	r2, [r9, r1]
  12:Src/Engine/midiRecordEngine.h **** 		for (size_t i = 0; i < kMaxSize; ++i) {
 1771              		.loc 16 12 3 is_stmt 1 view .LVU769
  12:Src/Engine/midiRecordEngine.h **** 		for (size_t i = 0; i < kMaxSize; ++i) {
 1772              		.loc 16 12 24 view .LVU770
  13:Src/Engine/midiRecordEngine.h **** 			length_[i] = 1;
 1773              		.loc 16 13 4 view .LVU771
  13:Src/Engine/midiRecordEngine.h **** 			length_[i] = 1;
 1774              		.loc 16 13 15 is_stmt 0 view .LVU772
 1775 0558 C8F80420 		str	r2, [r8, #4]
 1776              		.loc 16 14 4 is_stmt 1 view .LVU773
 1777              		.loc 16 14 19 is_stmt 0 view .LVU774
 1778 055c 0EF80120 		strb	r2, [lr, r1]
  12:Src/Engine/midiRecordEngine.h **** 		for (size_t i = 0; i < kMaxSize; ++i) {
 1779              		.loc 16 12 3 is_stmt 1 view .LVU775
  12:Src/Engine/midiRecordEngine.h **** 		for (size_t i = 0; i < kMaxSize; ++i) {
 1780              		.loc 16 12 24 view .LVU776
  13:Src/Engine/midiRecordEngine.h **** 			length_[i] = 1;
 1781              		.loc 16 13 4 view .LVU777
  13:Src/Engine/midiRecordEngine.h **** 			length_[i] = 1;
 1782              		.loc 16 13 15 is_stmt 0 view .LVU778
 1783 0560 DA60     		str	r2, [r3, #12]
 1784              		.loc 16 14 4 is_stmt 1 view .LVU779
 1785              		.loc 16 14 19 is_stmt 0 view .LVU780
 1786 0562 0CF80120 		strb	r2, [ip, r1]
  12:Src/Engine/midiRecordEngine.h **** 		for (size_t i = 0; i < kMaxSize; ++i) {
 1787              		.loc 16 12 3 is_stmt 1 view .LVU781
  12:Src/Engine/midiRecordEngine.h **** 		for (size_t i = 0; i < kMaxSize; ++i) {
 1788              		.loc 16 12 24 view .LVU782
  13:Src/Engine/midiRecordEngine.h **** 			length_[i] = 1;
 1789              		.loc 16 13 4 view .LVU783
  13:Src/Engine/midiRecordEngine.h **** 			length_[i] = 1;
 1790              		.loc 16 13 15 is_stmt 0 view .LVU784
 1791 0566 1A61     		str	r2, [r3, #16]
 1792              		.loc 16 14 4 is_stmt 1 view .LVU785
 1793              		.loc 16 14 19 is_stmt 0 view .LVU786
 1794 0568 7A54     		strb	r2, [r7, r1]
  12:Src/Engine/midiRecordEngine.h **** 		for (size_t i = 0; i < kMaxSize; ++i) {
 1795              		.loc 16 12 3 is_stmt 1 view .LVU787
  12:Src/Engine/midiRecordEngine.h **** 		for (size_t i = 0; i < kMaxSize; ++i) {
 1796              		.loc 16 12 24 view .LVU788
  13:Src/Engine/midiRecordEngine.h **** 			length_[i] = 1;
 1797              		.loc 16 13 4 view .LVU789
  13:Src/Engine/midiRecordEngine.h **** 			length_[i] = 1;
ARM GAS  /var/folders/84/_x1cyy_j36g486tldtwl37280000gn/T//ccZ8X9jg.s 			page 54


 1798              		.loc 16 13 15 is_stmt 0 view .LVU790
 1799 056a 5A61     		str	r2, [r3, #20]
 1800              		.loc 16 14 4 is_stmt 1 view .LVU791
 1801              		.loc 16 14 19 is_stmt 0 view .LVU792
 1802 056c 7254     		strb	r2, [r6, r1]
  12:Src/Engine/midiRecordEngine.h **** 		for (size_t i = 0; i < kMaxSize; ++i) {
 1803              		.loc 16 12 3 is_stmt 1 view .LVU793
  12:Src/Engine/midiRecordEngine.h **** 		for (size_t i = 0; i < kMaxSize; ++i) {
 1804              		.loc 16 12 24 view .LVU794
  13:Src/Engine/midiRecordEngine.h **** 			length_[i] = 1;
 1805              		.loc 16 13 4 view .LVU795
  13:Src/Engine/midiRecordEngine.h **** 			length_[i] = 1;
 1806              		.loc 16 13 15 is_stmt 0 view .LVU796
 1807 056e 9A61     		str	r2, [r3, #24]
 1808              		.loc 16 14 4 is_stmt 1 view .LVU797
 1809              		.loc 16 14 19 is_stmt 0 view .LVU798
 1810 0570 6A54     		strb	r2, [r5, r1]
  12:Src/Engine/midiRecordEngine.h **** 		for (size_t i = 0; i < kMaxSize; ++i) {
 1811              		.loc 16 12 3 is_stmt 1 view .LVU799
  12:Src/Engine/midiRecordEngine.h **** 		for (size_t i = 0; i < kMaxSize; ++i) {
 1812              		.loc 16 12 24 view .LVU800
  13:Src/Engine/midiRecordEngine.h **** 			length_[i] = 1;
 1813              		.loc 16 13 4 view .LVU801
  13:Src/Engine/midiRecordEngine.h **** 			length_[i] = 1;
 1814              		.loc 16 13 15 is_stmt 0 view .LVU802
 1815 0572 DA61     		str	r2, [r3, #28]
 1816              		.loc 16 14 4 is_stmt 1 view .LVU803
 1817              		.loc 16 14 19 is_stmt 0 view .LVU804
 1818 0574 6254     		strb	r2, [r4, r1]
  12:Src/Engine/midiRecordEngine.h **** 		for (size_t i = 0; i < kMaxSize; ++i) {
 1819              		.loc 16 12 3 is_stmt 1 view .LVU805
  12:Src/Engine/midiRecordEngine.h **** 		for (size_t i = 0; i < kMaxSize; ++i) {
 1820              		.loc 16 12 24 view .LVU806
  13:Src/Engine/midiRecordEngine.h **** 			length_[i] = 1;
 1821              		.loc 16 13 4 view .LVU807
  13:Src/Engine/midiRecordEngine.h **** 			length_[i] = 1;
 1822              		.loc 16 13 15 is_stmt 0 view .LVU808
 1823 0576 43F8202F 		str	r2, [r3, #32]!
 1824              		.loc 16 14 4 is_stmt 1 view .LVU809
 1825              		.loc 16 14 19 is_stmt 0 view .LVU810
 1826 057a 03EB4308 		add	r8, r3, r3, lsl #1
 1827 057e A8F5C640 		sub	r0, r8, #25344
 1828 0582 A0F15E09 		sub	r9, r0, #94
  12:Src/Engine/midiRecordEngine.h **** 		for (size_t i = 0; i < kMaxSize; ++i) {
 1829              		.loc 16 12 24 view .LVU811
 1830 0586 5B45     		cmp	r3, fp
 1831              		.loc 16 14 19 view .LVU812
 1832 0588 09F80120 		strb	r2, [r9, r1]
  12:Src/Engine/midiRecordEngine.h **** 		for (size_t i = 0; i < kMaxSize; ++i) {
 1833              		.loc 16 12 3 is_stmt 1 view .LVU813
  12:Src/Engine/midiRecordEngine.h **** 		for (size_t i = 0; i < kMaxSize; ++i) {
 1834              		.loc 16 12 24 view .LVU814
 1835 058c C9D1     		bne	.L8
 1836              	.LVL68:
  12:Src/Engine/midiRecordEngine.h **** 		for (size_t i = 0; i < kMaxSize; ++i) {
 1837              		.loc 16 12 24 is_stmt 0 view .LVU815
 1838              	.LBE1617:
ARM GAS  /var/folders/84/_x1cyy_j36g486tldtwl37280000gn/T//ccZ8X9jg.s 			page 55


 1839              	.LBE1616:
 1840              	.LBE1615:
  19:Src/Engine/engine.cpp **** 	trackEngine.init(&midiOutputEngine);
 1841              		.loc 1 19 2 is_stmt 1 view .LVU816
 1842              		.loc 1 19 18 is_stmt 0 view .LVU817
 1843 058e 0AF58943 		add	r3, r10, #17536
 1844 0592 1E46     		mov	r6, r3
 1845 0594 5833     		adds	r3, r3, #88
 1846 0596 0AF5A047 		add	r7, r10, #20480
 1847 059a 0AF5A444 		add	r4, r10, #20992
 1848 059e 0AF5B54B 		add	fp, r10, #23168
 1849              	.LBB1618:
 1850              	.LBB1619:
 1851              		.file 17 "Src/Engine/trackEngine.h"
   1:Src/Engine/trackEngine.h **** #ifndef TrackEngine_h
   2:Src/Engine/trackEngine.h **** #define TrackEngine_h
   3:Src/Engine/trackEngine.h **** 
   4:Src/Engine/trackEngine.h **** #include "settings.h"
   5:Src/Engine/trackEngine.h **** #include "noteTrackEngine.h"
   6:Src/Engine/trackEngine.h **** #include "chordTrackEngine.h"
   7:Src/Engine/trackEngine.h **** #include "drumTrackEngine.h"
   8:Src/Engine/trackEngine.h **** #include "curveTrackEngine.h"
   9:Src/Engine/trackEngine.h **** 
  10:Src/Engine/trackEngine.h **** #include "debug.h"
  11:Src/Engine/trackEngine.h **** 
  12:Src/Engine/trackEngine.h **** class TrackEngine {
  13:Src/Engine/trackEngine.h **** 
  14:Src/Engine/trackEngine.h **** public:
  15:Src/Engine/trackEngine.h **** 
  16:Src/Engine/trackEngine.h **** 	void init(MidiOutputEngine *outputEngine) {
  17:Src/Engine/trackEngine.h **** 		for (int i = 0; i < kMaxTracks; ++i) {
 1852              		.loc 17 17 12 view .LVU818
 1853 05a2 0021     		movs	r1, #0
 1854 05a4 DFF84C81 		ldr	r8, .L65+8
 1855 05a8 CDF80CA0 		str	r10, [sp, #12]
 1856              	.LBE1619:
 1857              	.LBE1618:
 1858              		.loc 1 19 18 view .LVU819
 1859 05ac 08EE103A 		vmov	s16, r3	@ int
 1860              	.LVL69:
 1861              	.LBB1821:
 1862              	.LBI1618:
  16:Src/Engine/trackEngine.h **** 		for (int i = 0; i < kMaxTracks; ++i) {
 1863              		.loc 17 16 7 is_stmt 1 view .LVU820
 1864              	.LBE1821:
 1865              		.loc 17 17 3 view .LVU821
 1866              	.LBB1822:
 1867              	.LBB1795:
 1868              		.loc 17 17 21 view .LVU822
 1869 05b0 6837     		adds	r7, r7, #104
 1870 05b2 6836     		adds	r6, r6, #104
 1871 05b4 2034     		adds	r4, r4, #32
 1872 05b6 0BF1680B 		add	fp, fp, #104
 1873              		.loc 17 17 12 is_stmt 0 view .LVU823
 1874 05ba 8A46     		mov	r10, r1
 1875              	.LVL70:
 1876              	.L9:
ARM GAS  /var/folders/84/_x1cyy_j36g486tldtwl37280000gn/T//ccZ8X9jg.s 			page 56


  18:Src/Engine/trackEngine.h **** 			track_state[i].init(i, outputEngine);
 1877              		.loc 17 18 4 is_stmt 1 view .LVU824
 1878              	.LBB1620:
 1879              	.LBB1621:
 1880              		.file 18 "Src/Engine/trackState.h"
   1:Src/Engine/trackState.h **** #ifndef TrackState_h
   2:Src/Engine/trackState.h **** #define TrackState_h
   3:Src/Engine/trackState.h **** 
   4:Src/Engine/trackState.h **** #include "settings.h"
   5:Src/Engine/trackState.h **** #include "midiOutputEngine.h"
   6:Src/Engine/trackState.h **** #include "clockEngine.h"
   7:Src/Engine/trackState.h **** #include "positionEngine.h"
   8:Src/Engine/trackState.h **** #include "repeatEngine.h"
   9:Src/Engine/trackState.h **** #include "reciprocal.h"
  10:Src/Engine/trackState.h **** #include "curve.h"
  11:Src/Engine/trackState.h **** 
  12:Src/Engine/trackState.h **** class TrackState {
  13:Src/Engine/trackState.h **** 
  14:Src/Engine/trackState.h **** public:
  15:Src/Engine/trackState.h **** 
  16:Src/Engine/trackState.h **** 	ClockEngine clock;
  17:Src/Engine/trackState.h **** 	RepeatEngine repeat;
  18:Src/Engine/trackState.h **** 	PositionEngine position;
  19:Src/Engine/trackState.h **** 	MidiEvent::Event event;
  20:Src/Engine/trackState.h **** 
  21:Src/Engine/trackState.h **** 	void init(uint8_t track_index, MidiOutputEngine *outputEngine) {
  22:Src/Engine/trackState.h **** 		outputEngine_ = outputEngine;
 1881              		.loc 18 22 17 is_stmt 0 view .LVU825
 1882 05bc 029A     		ldr	r2, [sp, #8]
 1883 05be 5FFA8AF9 		uxtb	r9, r10
 1884              	.LVL71:
 1885              		.loc 18 22 17 view .LVU826
 1886              	.LBE1621:
 1887              	.LBI1620:
  21:Src/Engine/trackState.h **** 		outputEngine_ = outputEngine;
 1888              		.loc 18 21 7 is_stmt 1 view .LVU827
 1889              	.LBB1628:
 1890              		.loc 18 22 3 view .LVU828
 1891 05c2 06F11803 		add	r3, r6, #24
 1892              	.LBE1628:
 1893              	.LBE1620:
 1894              	.LBB1631:
 1895              	.LBB1632:
 1896              		.file 19 "Src/Engine/noteTrackEngine.h"
   1:Src/Engine/noteTrackEngine.h **** #ifndef NoteTrackEngine_h
   2:Src/Engine/noteTrackEngine.h **** #define NoteTrackEngine_h
   3:Src/Engine/noteTrackEngine.h **** 
   4:Src/Engine/noteTrackEngine.h **** #include "settings.h"
   5:Src/Engine/noteTrackEngine.h **** #include "trackState.h"
   6:Src/Engine/noteTrackEngine.h **** #include "rng.h"
   7:Src/Engine/noteTrackEngine.h **** 
   8:Src/Engine/noteTrackEngine.h **** template<const bool allow_randomization>
   9:Src/Engine/noteTrackEngine.h **** class NoteTrackEngine {
  10:Src/Engine/noteTrackEngine.h **** 
  11:Src/Engine/noteTrackEngine.h **** public:
  12:Src/Engine/noteTrackEngine.h **** 
  13:Src/Engine/noteTrackEngine.h **** 	void init(int track_index, TrackState *trackState) {
ARM GAS  /var/folders/84/_x1cyy_j36g486tldtwl37280000gn/T//ccZ8X9jg.s 			page 57


  14:Src/Engine/noteTrackEngine.h **** 		track_index_ = track_index;
  15:Src/Engine/noteTrackEngine.h **** 		trackState_ = trackState;
  16:Src/Engine/noteTrackEngine.h **** 		repeats_ = &trackState->repeat;
  17:Src/Engine/noteTrackEngine.h **** 		noteTrack_ = &settings.song.track(track_index).note;
 1897              		.loc 19 17 3 is_stmt 0 view .LVU829
 1898 05c6 08F1100C 		add	ip, r8, #16
 1899              	.LBE1632:
 1900              	.LBE1631:
 1901              	.LBB1635:
 1902              	.LBB1636:
 1903              		.file 20 "Src/Engine/chordTrackEngine.h"
   1:Src/Engine/chordTrackEngine.h **** #ifndef ChordTrackEngine_h
   2:Src/Engine/chordTrackEngine.h **** #define ChordTrackEngine_h
   3:Src/Engine/chordTrackEngine.h **** 
   4:Src/Engine/chordTrackEngine.h **** #include "settings.h"
   5:Src/Engine/chordTrackEngine.h **** #include "trackState.h"
   6:Src/Engine/chordTrackEngine.h **** #include "rng.h"
   7:Src/Engine/chordTrackEngine.h **** #include "chord.h"
   8:Src/Engine/chordTrackEngine.h **** #include "arpeggiator.h"
   9:Src/Engine/chordTrackEngine.h **** #include "arpeggiatorEngine.h"
  10:Src/Engine/chordTrackEngine.h **** 
  11:Src/Engine/chordTrackEngine.h **** template<const bool allow_randomization>
  12:Src/Engine/chordTrackEngine.h **** class ChordTrackEngine {
  13:Src/Engine/chordTrackEngine.h **** 
  14:Src/Engine/chordTrackEngine.h **** public:
  15:Src/Engine/chordTrackEngine.h **** 
  16:Src/Engine/chordTrackEngine.h **** 	void init(int track_index, TrackState *trackState) {
  17:Src/Engine/chordTrackEngine.h **** 		track_index_ = track_index;
  18:Src/Engine/chordTrackEngine.h **** 		trackState_ = trackState;
  19:Src/Engine/chordTrackEngine.h **** 		chordTrack_ = &settings.song.track(track_index).chord;
 1904              		.loc 20 19 3 view .LVU830
 1905 05ca 08F12001 		add	r1, r8, #32
 1906              	.LBB1637:
 1907              	.LBB1638:
 1908              	.LBB1639:
 161:Src/Settings/arpeggiator.h **** 	}
 1909              		.loc 15 161 17 view .LVU831
 1910 05ce 0520     		movs	r0, #5
 1911              	.LBE1639:
 1912              	.LBE1638:
 1913              	.LBE1637:
 1914              	.LBE1636:
 1915              	.LBE1635:
 1916              	.LBB1758:
 1917              	.LBB1629:
  23:Src/Engine/trackState.h **** 
  24:Src/Engine/trackState.h **** 		track_index_ = track_index;
  25:Src/Engine/trackState.h **** 		track_ = &settings.song.track(track_index_);
 1918              		.loc 18 25 10 view .LVU832
 1919 05d0 C6E92A82 		strd	r8, r2, [r6, #168]
  24:Src/Engine/trackState.h **** 		track_ = &settings.song.track(track_index_);
 1920              		.loc 18 24 16 view .LVU833
 1921 05d4 86F8B090 		strb	r9, [r6, #176]
 1922              		.loc 18 25 3 is_stmt 1 view .LVU834
 1923              	.LVL72:
 1924              	.LBB1622:
 1925              	.LBI1622:
ARM GAS  /var/folders/84/_x1cyy_j36g486tldtwl37280000gn/T//ccZ8X9jg.s 			page 58


 1926              		.file 21 "Src/Settings/song.h"
   1:Src/Settings/song.h **** #ifndef Song_h
   2:Src/Settings/song.h **** #define Song_h
   3:Src/Settings/song.h **** 
   4:Src/Settings/song.h **** #include "stmf4lib.h"
   5:Src/Settings/song.h **** #include "track.h"
   6:Src/Settings/song.h **** #include "scale.h"
   7:Src/Settings/song.h **** #include "chord.h"
   8:Src/Settings/song.h **** #include "midiClock.h"
   9:Src/Settings/song.h **** #include "uiList.h"
  10:Src/Settings/song.h **** 
  11:Src/Settings/song.h **** class Song {
  12:Src/Settings/song.h **** 
  13:Src/Settings/song.h **** public:
  14:Src/Settings/song.h **** 
  15:Src/Settings/song.h **** 	Scale scale;
  16:Src/Settings/song.h **** 	MidiClock midiClock;
  17:Src/Settings/song.h **** 
  18:Src/Settings/song.h **** 	Track &track(int index) {
 1927              		.loc 21 18 9 view .LVU835
 1928              	.LBB1623:
  19:Src/Settings/song.h **** 		return track_[index];
 1929              		.loc 21 19 3 view .LVU836
 1930              		.loc 21 19 3 is_stmt 0 view .LVU837
 1931              	.LBE1623:
 1932              	.LBE1622:
  26:Src/Engine/trackState.h **** 
  27:Src/Engine/trackState.h **** 		MidiEvent::set_source(&event, MidiEvent::TRACK, track_index_);
 1933              		.loc 18 27 3 is_stmt 1 view .LVU838
 1934              	.LBB1624:
 1935              	.LBI1624:
  72:Src/Engine/midiEvent.h **** 		event->source = serialise_source(type, index);
 1936              		.loc 6 72 21 view .LVU839
 1937              	.LBB1625:
  73:Src/Engine/midiEvent.h **** 	}
 1938              		.loc 6 73 3 view .LVU840
  73:Src/Engine/midiEvent.h **** 	}
 1939              		.loc 6 73 3 is_stmt 0 view .LVU841
 1940              	.LBE1625:
 1941              	.LBE1624:
 1942              	.LBE1629:
 1943              	.LBE1758:
 1944              	.LBE1795:
 1945              	.LBE1822:
 1946              		.loc 6 81 3 is_stmt 1 view .LVU842
 1947              	.LBB1823:
 1948              	.LBB1796:
 1949              	.LBB1759:
 1950              	.LBB1630:
 1951              	.LBB1627:
 1952              	.LBB1626:
  73:Src/Engine/midiEvent.h **** 	}
 1953              		.loc 6 73 17 is_stmt 0 view .LVU843
 1954 05d8 86F8A590 		strb	r9, [r6, #165]
 1955              	.LVL73:
  73:Src/Engine/midiEvent.h **** 	}
 1956              		.loc 6 73 17 view .LVU844
ARM GAS  /var/folders/84/_x1cyy_j36g486tldtwl37280000gn/T//ccZ8X9jg.s 			page 59


 1957              	.LBE1626:
 1958              	.LBE1627:
 1959              	.LBE1630:
 1960              	.LBE1759:
  19:Src/Engine/trackEngine.h **** 
  20:Src/Engine/trackEngine.h **** 			note_track[i].init(i, &track_state[i]);
 1961              		.loc 17 20 4 is_stmt 1 view .LVU845
 1962              	.LBB1760:
 1963              	.LBI1631:
  13:Src/Engine/noteTrackEngine.h **** 		track_index_ = track_index;
 1964              		.loc 19 13 7 view .LVU846
 1965              	.LBE1760:
 1966              	.LBB1761:
 1967              	.LBB1740:
 1968              	.LBB1684:
 1969              	.LBB1642:
 1970              	.LBB1643:
 148:Src/Settings/arpeggiator.h **** 	}
 1971              		.loc 15 148 11 is_stmt 0 view .LVU847
 1972 05dc 0025     		movs	r5, #0
 1973              	.LBE1643:
 1974              	.LBE1642:
 1975              	.LBE1684:
 1976              	.LBE1740:
 1977              	.LBE1761:
 1978              	.LBB1762:
 1979              	.LBB1633:
  16:Src/Engine/noteTrackEngine.h **** 		noteTrack_ = &settings.song.track(track_index).note;
 1980              		.loc 19 16 3 view .LVU848
 1981 05de C7E90163 		strd	r6, r3, [r7, #4]
 1982              		.loc 19 17 3 view .LVU849
 1983 05e2 C7F800C0 		str	ip, [r7]
  14:Src/Engine/noteTrackEngine.h **** 		trackState_ = trackState;
 1984              		.loc 19 14 3 view .LVU850
 1985 05e6 87F80C90 		strb	r9, [r7, #12]
 1986              	.LBE1633:
 1987              	.LBE1762:
 1988              	.LBB1763:
 1989              	.LBB1741:
 1990              	.LBB1685:
 1991              	.LBB1646:
 1992              	.LBB1647:
 198:Src/Settings/arpeggiator.h **** 	}
 199:Src/Settings/arpeggiator.h **** 
 200:Src/Settings/arpeggiator.h **** 	void set_gate_mode(int value, bool boundary_check = 1) {
 201:Src/Settings/arpeggiator.h **** 		gate_mode_ = boundary_check ? stmlib::clip(0, NUM_CLOCK_MODES - 1, value) : value;
 202:Src/Settings/arpeggiator.h **** 	}
 203:Src/Settings/arpeggiator.h **** 
 204:Src/Settings/arpeggiator.h **** 	const char* gate_mode_text() {
 205:Src/Settings/arpeggiator.h **** 		return clock_mode_text(gate_mode());
 206:Src/Settings/arpeggiator.h **** 	}
 207:Src/Settings/arpeggiator.h **** 
 208:Src/Settings/arpeggiator.h **** 	// gate length
 209:Src/Settings/arpeggiator.h **** 	uint8_t gate_length() {
 210:Src/Settings/arpeggiator.h **** 		return gate_length_;
 211:Src/Settings/arpeggiator.h **** 	}
 212:Src/Settings/arpeggiator.h **** 
ARM GAS  /var/folders/84/_x1cyy_j36g486tldtwl37280000gn/T//ccZ8X9jg.s 			page 60


 213:Src/Settings/arpeggiator.h **** 	void set_gate_length(int value, bool boundary_check = 1) {
 214:Src/Settings/arpeggiator.h **** 		gate_length_ = boundary_check ? stmlib::clip(1, 63, value) : value;
 1993              		.loc 15 214 16 view .LVU851
 1994 05ea 4FF0040E 		mov	lr, #4
 1995              	.LBE1647:
 1996              	.LBE1646:
 1997              	.LBE1685:
 1998              		.loc 20 19 3 view .LVU852
 1999 05ee 44E90E16 		strd	r1, r6, [r4, #-56]
 2000              	.LBB1686:
 2001              	.LBB1650:
 2002              	.LBB1651:
 135:Src/Settings/arpeggiator.h **** 	}
 2003              		.loc 15 135 10 view .LVU853
 2004 05f2 4FF0080C 		mov	ip, #8
 2005              	.LBE1651:
 2006              	.LBE1650:
 2007              	.LBB1654:
 2008              	.LBB1640:
 161:Src/Settings/arpeggiator.h **** 	}
 2009              		.loc 15 161 17 view .LVU854
 2010 05f6 04F81D0C 		strb	r0, [r4, #-29]
 2011              	.LBE1640:
 2012              	.LBE1654:
 2013              	.LBE1686:
 2014              	.LBB1687:
 2015              	.LBB1688:
  14:Src/Engine/arpeggiatorEngine.h **** 		clear_notes();
 2016              		.loc 13 14 16 view .LVU855
 2017 05fa A4F11E02 		sub	r2, r4, #30
 2018 05fe A4F11400 		sub	r0, r4, #20
 2019              	.LBE1688:
 2020              	.LBE1687:
 2021              	.LBE1741:
 2022              	.LBE1763:
 2023              	.LBB1764:
 2024              	.LBB1634:
  16:Src/Engine/noteTrackEngine.h **** 		noteTrack_ = &settings.song.track(track_index).note;
 2025              		.loc 19 16 3 view .LVU856
 2026 0602 0193     		str	r3, [sp, #4]
 2027              	.LVL74:
  16:Src/Engine/noteTrackEngine.h **** 		noteTrack_ = &settings.song.track(track_index).note;
 2028              		.loc 19 16 3 view .LVU857
 2029              	.LBE1634:
 2030              	.LBE1764:
 2031              	.LBE1796:
 2032              	.LBE1823:
 2033              		.loc 21 19 3 is_stmt 1 view .LVU858
 2034              	.LBB1824:
 2035              	.LBB1797:
  21:Src/Engine/trackEngine.h **** 			chord_track[i].init(i, &track_state[i]);
 2036              		.loc 17 21 4 view .LVU859
 2037              	.LBB1765:
 2038              	.LBI1635:
  16:Src/Engine/chordTrackEngine.h **** 		track_index_ = track_index;
 2039              		.loc 20 16 7 view .LVU860
 2040              	.LBB1742:
ARM GAS  /var/folders/84/_x1cyy_j36g486tldtwl37280000gn/T//ccZ8X9jg.s 			page 61


 2041              	.LBB1720:
 2042              	.LBI1637:
 101:Src/Settings/arpeggiator.h **** 		set_offset(0);
 2043              		.loc 15 101 7 view .LVU861
 2044              	.LBE1720:
 2045              	.LBE1742:
 2046              	.LBE1765:
 2047              	.LBE1797:
 2048              	.LBE1824:
 102:Src/Settings/arpeggiator.h **** 		set_trigger_mode(XXXX);
 2049              		.loc 15 102 3 view .LVU862
 2050              	.LBB1825:
 2051              	.LBB1798:
 2052              	.LBB1766:
 2053              	.LBB1743:
 2054              	.LBB1721:
 2055              	.LBB1655:
 2056              	.LBI1642:
 147:Src/Settings/arpeggiator.h **** 		offset_ = boundary_check ? stmlib::clip(0, 15, value) : value;
 2057              		.loc 15 147 7 view .LVU863
 2058              	.LBB1644:
 148:Src/Settings/arpeggiator.h **** 	}
 2059              		.loc 15 148 3 view .LVU864
 148:Src/Settings/arpeggiator.h **** 	}
 2060              		.loc 15 148 3 is_stmt 0 view .LVU865
 2061              	.LBE1644:
 2062              	.LBE1655:
 2063              	.LBE1721:
 2064              	.LBE1743:
 2065              	.LBE1766:
 2066              	.LBE1798:
 2067              	.LBE1825:
 2068              		.file 22 "stm32/stmf4lib.h"
   1:stm32/stmf4lib.h **** #ifndef STM32F4Lib_h
   2:stm32/stmf4lib.h **** #define STM32F4Lib_h
   3:stm32/stmf4lib.h **** 
   4:stm32/stmf4lib.h **** #include "stm32f4xx.h"
   5:stm32/stmf4lib.h **** #include <functional>
   6:stm32/stmf4lib.h **** #include <stdlib.h>
   7:stm32/stmf4lib.h **** #include <stdint.h>
   8:stm32/stmf4lib.h **** #include <limits>
   9:stm32/stmf4lib.h **** #include <cstring>
  10:stm32/stmf4lib.h **** #include <cmath>
  11:stm32/stmf4lib.h **** 
  12:stm32/stmf4lib.h **** //#include <assert.h>
  13:stm32/stmf4lib.h **** //#include <algorithm>
  14:stm32/stmf4lib.h **** 
  15:stm32/stmf4lib.h **** #define CCM_RAM __attribute__((section(".ccmram")))
  16:stm32/stmf4lib.h **** #define FORCE_INLINE __attribute__((always_inline))
  17:stm32/stmf4lib.h **** 
  18:stm32/stmf4lib.h **** class stmlib {
  19:stm32/stmf4lib.h **** 
  20:stm32/stmf4lib.h **** public:
  21:stm32/stmf4lib.h **** 
  22:stm32/stmf4lib.h **** 	static inline int clip_min(int min, int value) {
  23:stm32/stmf4lib.h **** 		return value > min ? value : min;
  24:stm32/stmf4lib.h **** 	}
ARM GAS  /var/folders/84/_x1cyy_j36g486tldtwl37280000gn/T//ccZ8X9jg.s 			page 62


  25:stm32/stmf4lib.h **** 
  26:stm32/stmf4lib.h **** 	static inline int clip_max(int max, int value) {
  27:stm32/stmf4lib.h **** 		return value < max ? value : max;
  28:stm32/stmf4lib.h **** 	}
  29:stm32/stmf4lib.h **** 
  30:stm32/stmf4lib.h **** 	static inline int clip(int min, int max, int value) {
  31:stm32/stmf4lib.h **** 		return value > max ? max : (value < min ? min : value);
 2069              		.loc 22 31 3 is_stmt 1 view .LVU866
 2070              	.LBB1826:
 2071              	.LBB1799:
 2072              	.LBB1767:
 2073              	.LBB1744:
 2074              	.LBB1722:
 2075              	.LBB1656:
 2076              	.LBB1657:
 122:Src/Settings/arpeggiator.h **** 	}
 2077              		.loc 15 122 10 is_stmt 0 view .LVU867
 2078 0604 0D21     		movs	r1, #13
 2079              	.LBE1657:
 2080              	.LBE1656:
 2081              	.LBB1660:
 2082              	.LBB1661:
 215:Src/Settings/arpeggiator.h **** 	}
 216:Src/Settings/arpeggiator.h **** 
 217:Src/Settings/arpeggiator.h **** 	const char* gate_length_text() {
 218:Src/Settings/arpeggiator.h **** 		return ClockEngine::gate_duration_text(gate_length());
 219:Src/Settings/arpeggiator.h **** 	}
 220:Src/Settings/arpeggiator.h **** 
 221:Src/Settings/arpeggiator.h **** 	// velocity
 222:Src/Settings/arpeggiator.h **** 	uint8_t velocity() {
 223:Src/Settings/arpeggiator.h **** 		return velocity_;
 224:Src/Settings/arpeggiator.h **** 	}
 225:Src/Settings/arpeggiator.h **** 
 226:Src/Settings/arpeggiator.h **** 	void set_velocity(int value, bool boundary_check = 1) {
 227:Src/Settings/arpeggiator.h **** 		velocity_ = boundary_check ? stmlib::clip(0, 127, value) : value;
 2083              		.loc 15 227 13 view .LVU868
 2084 0606 4FF06403 		mov	r3, #100
 2085 060a 04F81C3C 		strb	r3, [r4, #-28]
 2086              	.LBE1661:
 2087              	.LBE1660:
 2088              	.LBB1663:
 2089              	.LBB1648:
 214:Src/Settings/arpeggiator.h **** 	}
 2090              		.loc 15 214 16 view .LVU869
 2091 060e 04F81BEC 		strb	lr, [r4, #-27]
 2092              	.LBE1648:
 2093              	.LBE1663:
 2094              	.LBB1664:
 2095              	.LBB1652:
 135:Src/Settings/arpeggiator.h **** 	}
 2096              		.loc 15 135 10 view .LVU870
 2097 0612 04F819CC 		strb	ip, [r4, #-25]
 2098              	.LBE1652:
 2099              	.LBE1664:
 2100              	.LBB1665:
 2101              	.LBB1658:
 122:Src/Settings/arpeggiator.h **** 	}
ARM GAS  /var/folders/84/_x1cyy_j36g486tldtwl37280000gn/T//ccZ8X9jg.s 			page 63


 2102              		.loc 15 122 10 view .LVU871
 2103 0616 04F81A1C 		strb	r1, [r4, #-26]
 2104              	.LBE1658:
 2105              	.LBE1665:
 2106              	.LBE1722:
 2107              	.LBB1723:
 2108              	.LBB1713:
 2109              	.LBB1689:
 2110              	.LBB1690:
 2111              	.LBB1691:
 2112              	.LBB1692:
  81:Src/Engine/clockEngine.h **** 		ticks_32th_dotted = 0;
 2113              		.loc 8 81 20 view .LVU872
 2114 061a C4E90D55 		strd	r5, r5, [r4, #52]
 2115              	.LBE1692:
 2116              	.LBE1691:
  22:Src/Engine/arpeggiatorEngine.h **** 		reset(&gate_clock, arpeggiator_->gate_mode());
 2117              		.loc 13 22 8 view .LVU873
 2118 061e 2146     		mov	r1, r4
 2119              	.LBE1690:
 2120              	.LBE1689:
 2121              	.LBE1713:
 2122              	.LBE1723:
  17:Src/Engine/chordTrackEngine.h **** 		trackState_ = trackState;
 2123              		.loc 20 17 3 view .LVU874
 2124 0620 04F8309C 		strb	r9, [r4, #-48]
 2125              	.LBB1724:
 2126              	.LBB1666:
 2127              	.LBB1645:
 148:Src/Settings/arpeggiator.h **** 	}
 2128              		.loc 15 148 11 view .LVU875
 2129 0624 04F81E5C 		strb	r5, [r4, #-30]
 2130              	.LVL75:
 148:Src/Settings/arpeggiator.h **** 	}
 2131              		.loc 15 148 11 view .LVU876
 2132              	.LBE1645:
 2133              	.LBE1666:
 2134              	.LBE1724:
 2135              	.LBE1744:
 2136              	.LBE1767:
 2137              	.LBE1799:
 2138              	.LBE1826:
 103:Src/Settings/arpeggiator.h **** 		set_velocity(100);
 2139              		.loc 15 103 3 is_stmt 1 view .LVU877
 2140              	.LBB1827:
 2141              	.LBB1800:
 2142              	.LBB1768:
 2143              	.LBB1745:
 2144              	.LBB1725:
 2145              	.LBB1667:
 2146              	.LBI1638:
 160:Src/Settings/arpeggiator.h **** 		trigger_mode_ = boundary_check ? stmlib::clip(0, NUM_TRIGGER_MODES - 1, value) : value;
 2147              		.loc 15 160 7 view .LVU878
 2148              	.LBB1641:
 161:Src/Settings/arpeggiator.h **** 	}
 2149              		.loc 15 161 3 view .LVU879
 161:Src/Settings/arpeggiator.h **** 	}
ARM GAS  /var/folders/84/_x1cyy_j36g486tldtwl37280000gn/T//ccZ8X9jg.s 			page 64


 2150              		.loc 15 161 3 is_stmt 0 view .LVU880
 2151              	.LBE1641:
 2152              	.LBE1667:
 2153              	.LBE1725:
 2154              	.LBE1745:
 2155              	.LBE1768:
 2156              	.LBE1800:
 2157              	.LBE1827:
 2158              		.loc 22 31 3 is_stmt 1 view .LVU881
 104:Src/Settings/arpeggiator.h **** 		set_gate_length(4);
 2159              		.loc 15 104 3 view .LVU882
 2160              	.LBB1828:
 2161              	.LBB1801:
 2162              	.LBB1769:
 2163              	.LBB1746:
 2164              	.LBB1726:
 2165              	.LBB1668:
 2166              	.LBI1660:
 226:Src/Settings/arpeggiator.h **** 		velocity_ = boundary_check ? stmlib::clip(0, 127, value) : value;
 2167              		.loc 15 226 7 view .LVU883
 2168              	.LBB1662:
 2169              		.loc 15 227 3 view .LVU884
 2170              		.loc 15 227 3 is_stmt 0 view .LVU885
 2171              	.LBE1662:
 2172              	.LBE1668:
 2173              	.LBE1726:
 2174              	.LBE1746:
 2175              	.LBE1769:
 2176              	.LBE1801:
 2177              	.LBE1828:
 2178              		.loc 22 31 3 is_stmt 1 view .LVU886
 105:Src/Settings/arpeggiator.h **** 		set_note_mode(OFF);
 2179              		.loc 15 105 3 view .LVU887
 2180              	.LBB1829:
 2181              	.LBB1802:
 2182              	.LBB1770:
 2183              	.LBB1747:
 2184              	.LBB1727:
 2185              	.LBB1669:
 2186              	.LBI1646:
 213:Src/Settings/arpeggiator.h **** 		gate_length_ = boundary_check ? stmlib::clip(1, 63, value) : value;
 2187              		.loc 15 213 7 view .LVU888
 2188              	.LBB1649:
 214:Src/Settings/arpeggiator.h **** 	}
 2189              		.loc 15 214 3 view .LVU889
 214:Src/Settings/arpeggiator.h **** 	}
 2190              		.loc 15 214 3 is_stmt 0 view .LVU890
 2191              	.LBE1649:
 2192              	.LBE1669:
 2193              	.LBE1727:
 2194              	.LBE1747:
 2195              	.LBE1770:
 2196              	.LBE1802:
 2197              	.LBE1829:
 2198              		.loc 22 31 3 is_stmt 1 view .LVU891
 106:Src/Settings/arpeggiator.h **** 		set_velocity_mode(OFF);
 2199              		.loc 15 106 3 view .LVU892
ARM GAS  /var/folders/84/_x1cyy_j36g486tldtwl37280000gn/T//ccZ8X9jg.s 			page 65


 2200              	.LBB1830:
 2201              	.LBB1803:
 2202              	.LBB1771:
 2203              	.LBB1748:
 2204              	.LBB1728:
 2205              	.LBB1670:
 2206              	.LBI1670:
 173:Src/Settings/arpeggiator.h **** 		note_mode_ = boundary_check ? stmlib::clip(0, NUM_CLOCK_MODES - 1, value) : value;
 2207              		.loc 15 173 7 view .LVU893
 2208              	.LBB1671:
 174:Src/Settings/arpeggiator.h **** 	}
 2209              		.loc 15 174 3 view .LVU894
 174:Src/Settings/arpeggiator.h **** 	}
 2210              		.loc 15 174 3 is_stmt 0 view .LVU895
 2211              	.LBE1671:
 2212              	.LBE1670:
 2213              	.LBE1728:
 2214              	.LBE1748:
 2215              	.LBE1771:
 2216              	.LBE1803:
 2217              	.LBE1830:
 2218              		.loc 22 31 3 is_stmt 1 view .LVU896
 107:Src/Settings/arpeggiator.h **** 		set_gate_mode(OFF);
 2219              		.loc 15 107 3 view .LVU897
 2220              	.LBB1831:
 2221              	.LBB1804:
 2222              	.LBB1772:
 2223              	.LBB1749:
 2224              	.LBB1729:
 2225              	.LBB1673:
 2226              	.LBI1673:
 187:Src/Settings/arpeggiator.h **** 		velocity_mode_ = boundary_check ? stmlib::clip(0, NUM_CLOCK_MODES - 1, value) : value;
 2227              		.loc 15 187 7 view .LVU898
 2228              	.LBB1674:
 188:Src/Settings/arpeggiator.h **** 	}
 2229              		.loc 15 188 3 view .LVU899
 188:Src/Settings/arpeggiator.h **** 	}
 2230              		.loc 15 188 3 is_stmt 0 view .LVU900
 2231              	.LBE1674:
 2232              	.LBE1673:
 2233              	.LBE1729:
 2234              	.LBE1749:
 2235              	.LBE1772:
 2236              	.LBE1804:
 2237              	.LBE1831:
 2238              		.loc 22 31 3 is_stmt 1 view .LVU901
 108:Src/Settings/arpeggiator.h **** 		set_swing(8);
 2239              		.loc 15 108 3 view .LVU902
 2240              	.LBB1832:
 2241              	.LBB1805:
 2242              	.LBB1773:
 2243              	.LBB1750:
 2244              	.LBB1730:
 2245              	.LBB1676:
 2246              	.LBI1676:
 200:Src/Settings/arpeggiator.h **** 		gate_mode_ = boundary_check ? stmlib::clip(0, NUM_CLOCK_MODES - 1, value) : value;
 2247              		.loc 15 200 7 view .LVU903
ARM GAS  /var/folders/84/_x1cyy_j36g486tldtwl37280000gn/T//ccZ8X9jg.s 			page 66


 2248              	.LBB1677:
 201:Src/Settings/arpeggiator.h **** 	}
 2249              		.loc 15 201 3 view .LVU904
 201:Src/Settings/arpeggiator.h **** 	}
 2250              		.loc 15 201 3 is_stmt 0 view .LVU905
 2251              	.LBE1677:
 2252              	.LBE1676:
 2253              	.LBE1730:
 2254              	.LBE1750:
 2255              	.LBE1773:
 2256              	.LBE1805:
 2257              	.LBE1832:
 2258              		.loc 22 31 3 is_stmt 1 view .LVU906
 109:Src/Settings/arpeggiator.h **** 		set_speed(ClockEngine::WHOLE_16TH);
 2259              		.loc 15 109 3 view .LVU907
 2260              	.LBB1833:
 2261              	.LBB1806:
 2262              	.LBB1774:
 2263              	.LBB1751:
 2264              	.LBB1731:
 2265              	.LBB1679:
 2266              	.LBI1650:
 134:Src/Settings/arpeggiator.h **** 		swing_ = boundary_check ? stmlib::clip(1, 15, value) : value;
 2267              		.loc 15 134 7 view .LVU908
 2268              	.LBB1653:
 135:Src/Settings/arpeggiator.h **** 	}
 2269              		.loc 15 135 3 view .LVU909
 135:Src/Settings/arpeggiator.h **** 	}
 2270              		.loc 15 135 3 is_stmt 0 view .LVU910
 2271              	.LBE1653:
 2272              	.LBE1679:
 2273              	.LBE1731:
 2274              	.LBE1751:
 2275              	.LBE1774:
 2276              	.LBE1806:
 2277              	.LBE1833:
 2278              		.loc 22 31 3 is_stmt 1 view .LVU911
 110:Src/Settings/arpeggiator.h **** 	}
 2279              		.loc 15 110 3 view .LVU912
 2280              	.LBB1834:
 2281              	.LBB1807:
 2282              	.LBB1775:
 2283              	.LBB1752:
 2284              	.LBB1732:
 2285              	.LBB1680:
 2286              	.LBI1656:
 121:Src/Settings/arpeggiator.h **** 		speed_ = boundary_check ? stmlib::clip(0, ClockEngine::NUM_SIGNATURES - 1, value) : value;
 2287              		.loc 15 121 7 view .LVU913
 2288              	.LBB1659:
 122:Src/Settings/arpeggiator.h **** 	}
 2289              		.loc 15 122 3 view .LVU914
 122:Src/Settings/arpeggiator.h **** 	}
 2290              		.loc 15 122 3 is_stmt 0 view .LVU915
 2291              	.LBE1659:
 2292              	.LBE1680:
 2293              	.LBE1732:
 2294              	.LBE1752:
ARM GAS  /var/folders/84/_x1cyy_j36g486tldtwl37280000gn/T//ccZ8X9jg.s 			page 67


 2295              	.LBE1775:
 2296              	.LBE1807:
 2297              	.LBE1834:
 2298              		.loc 22 31 3 is_stmt 1 view .LVU916
 2299              	.LBB1835:
 2300              	.LBB1808:
 2301              	.LBB1776:
 2302              	.LBB1753:
 2303              	.LBB1733:
 2304              	.LBI1687:
  13:Src/Engine/arpeggiatorEngine.h **** 		arpeggiator_ = arppegiator;
 2305              		.loc 13 13 7 view .LVU917
 2306              	.LBB1714:
  14:Src/Engine/arpeggiatorEngine.h **** 		clear_notes();
 2307              		.loc 13 14 3 view .LVU918
 2308              	.LBE1714:
 2309              	.LBE1733:
 2310              	.LBB1734:
 2311              	.LBB1681:
 2312              	.LBB1672:
 174:Src/Settings/arpeggiator.h **** 	}
 2313              		.loc 15 174 14 is_stmt 0 view .LVU919
 2314 0628 04F8185C 		strb	r5, [r4, #-24]
 2315              	.LBE1672:
 2316              	.LBE1681:
 2317              	.LBB1682:
 2318              	.LBB1675:
 188:Src/Settings/arpeggiator.h **** 	}
 2319              		.loc 15 188 18 view .LVU920
 2320 062c 04F8165C 		strb	r5, [r4, #-22]
 2321              	.LBE1675:
 2322              	.LBE1682:
 2323              	.LBB1683:
 2324              	.LBB1678:
 201:Src/Settings/arpeggiator.h **** 	}
 2325              		.loc 15 201 14 view .LVU921
 2326 0630 04F8175C 		strb	r5, [r4, #-23]
 2327              	.LBE1678:
 2328              	.LBE1683:
 2329              	.LBE1734:
 2330              	.LBB1735:
 2331              	.LBB1715:
 2332              	.LBB1703:
 2333              	.LBB1704:
 2334              		.loc 13 40 9 view .LVU922
 2335 0634 04F8145C 		strb	r5, [r4, #-20]
 2336              	.LBE1704:
 2337              	.LBE1703:
 2338              	.LBB1706:
 2339              	.LBB1697:
  20:Src/Engine/arpeggiatorEngine.h **** 		clockEngine.reset();
 2340              		.loc 13 20 21 view .LVU923
 2341 0638 04F8035C 		strb	r5, [r4, #-3]
 2342              	.LBB1695:
 2343              	.LBB1693:
  73:Src/Engine/clockEngine.h **** 		ticks_passed_ = 0;
 2344              		.loc 8 73 14 view .LVU924
ARM GAS  /var/folders/84/_x1cyy_j36g486tldtwl37280000gn/T//ccZ8X9jg.s 			page 68


 2345 063c 84F82950 		strb	r5, [r4, #41]
  74:Src/Engine/clockEngine.h **** 
 2346              		.loc 8 74 17 view .LVU925
 2347 0640 E562     		str	r5, [r4, #44]
  76:Src/Engine/clockEngine.h **** 		prescaler_32th_whole = 0;
 2348              		.loc 8 76 26 view .LVU926
 2349 0642 84F83050 		strb	r5, [r4, #48]
  77:Src/Engine/clockEngine.h **** 		prescaler_32th_dotted = 0;
 2350              		.loc 8 77 24 view .LVU927
 2351 0646 84F83150 		strb	r5, [r4, #49]
  78:Src/Engine/clockEngine.h **** 
 2352              		.loc 8 78 25 view .LVU928
 2353 064a 84F83250 		strb	r5, [r4, #50]
 2354              		.loc 8 82 21 view .LVU929
 2355 064e E563     		str	r5, [r4, #60]
 2356              	.LBE1693:
 2357              	.LBE1695:
  22:Src/Engine/arpeggiatorEngine.h **** 		reset(&gate_clock, arpeggiator_->gate_mode());
 2358              		.loc 13 22 8 view .LVU930
 2359 0650 0090     		str	r0, [sp]
 2360              	.LBE1697:
 2361              	.LBE1706:
  14:Src/Engine/arpeggiatorEngine.h **** 		clear_notes();
 2362              		.loc 13 14 16 view .LVU931
 2363 0652 6262     		str	r2, [r4, #36]
  15:Src/Engine/arpeggiatorEngine.h **** 		reset();
 2364              		.loc 13 15 3 is_stmt 1 view .LVU932
 2365              	.LVL76:
 2366              	.LBB1707:
 2367              	.LBI1703:
  39:Src/Engine/arpeggiatorEngine.h **** 		size_ = 0;
 2368              		.loc 13 39 7 view .LVU933
 2369              	.LBB1705:
 2370              		.loc 13 40 3 view .LVU934
 2371              	.LBE1705:
 2372              	.LBE1707:
  16:Src/Engine/arpeggiatorEngine.h **** 	}
 2373              		.loc 13 16 3 view .LVU935
 2374              	.LBB1708:
 2375              	.LBI1689:
  19:Src/Engine/arpeggiatorEngine.h **** 		trigger_position_ = 0;
 2376              		.loc 13 19 7 view .LVU936
 2377              	.LBB1698:
  20:Src/Engine/arpeggiatorEngine.h **** 		clockEngine.reset();
 2378              		.loc 13 20 3 view .LVU937
  21:Src/Engine/arpeggiatorEngine.h **** 		reset(&note_clock, arpeggiator_->note_mode());
 2379              		.loc 13 21 3 view .LVU938
 2380              	.LBB1696:
 2381              	.LBI1691:
  72:Src/Engine/clockEngine.h **** 		triggered_ = 0;
 2382              		.loc 8 72 7 view .LVU939
 2383              	.LBB1694:
  73:Src/Engine/clockEngine.h **** 		ticks_passed_ = 0;
 2384              		.loc 8 73 3 view .LVU940
  74:Src/Engine/clockEngine.h **** 
 2385              		.loc 8 74 3 view .LVU941
  76:Src/Engine/clockEngine.h **** 		prescaler_32th_whole = 0;
ARM GAS  /var/folders/84/_x1cyy_j36g486tldtwl37280000gn/T//ccZ8X9jg.s 			page 69


 2386              		.loc 8 76 3 view .LVU942
  77:Src/Engine/clockEngine.h **** 		prescaler_32th_dotted = 0;
 2387              		.loc 8 77 3 view .LVU943
  78:Src/Engine/clockEngine.h **** 
 2388              		.loc 8 78 3 view .LVU944
  80:Src/Engine/clockEngine.h **** 		ticks_32th_whole = 0;
 2389              		.loc 8 80 3 view .LVU945
  81:Src/Engine/clockEngine.h **** 		ticks_32th_dotted = 0;
 2390              		.loc 8 81 3 view .LVU946
 2391              		.loc 8 82 3 view .LVU947
 2392              		.loc 8 82 3 is_stmt 0 view .LVU948
 2393              	.LBE1694:
 2394              	.LBE1696:
  22:Src/Engine/arpeggiatorEngine.h **** 		reset(&gate_clock, arpeggiator_->gate_mode());
 2395              		.loc 13 22 3 is_stmt 1 view .LVU949
  22:Src/Engine/arpeggiatorEngine.h **** 		reset(&gate_clock, arpeggiator_->gate_mode());
 2396              		.loc 13 22 3 is_stmt 0 view .LVU950
 2397              	.LBE1698:
 2398              	.LBE1708:
 2399              	.LBE1715:
 2400              	.LBE1735:
 2401              	.LBE1753:
 2402              	.LBE1776:
 2403              	.LBE1808:
 2404              	.LBE1835:
 170:Src/Settings/arpeggiator.h **** 	}
 2405              		.loc 15 170 3 is_stmt 1 view .LVU951
 2406              	.LBB1836:
 2407              	.LBB1809:
 2408              	.LBB1777:
 2409              	.LBB1754:
 2410              	.LBB1736:
 2411              	.LBB1716:
 2412              	.LBB1709:
 2413              	.LBB1699:
  22:Src/Engine/arpeggiatorEngine.h **** 		reset(&gate_clock, arpeggiator_->gate_mode());
 2414              		.loc 13 22 8 is_stmt 0 view .LVU952
 2415 0654 2A46     		mov	r2, r5
 2416              	.LVL77:
  22:Src/Engine/arpeggiatorEngine.h **** 		reset(&gate_clock, arpeggiator_->gate_mode());
 2417              		.loc 13 22 8 view .LVU953
 2418 0656 FFF7FEFF 		bl	_ZN17ArpeggiatorEngine5resetEPNS_5ClockEh
 2419              	.LVL78:
  23:Src/Engine/arpeggiatorEngine.h **** 		reset(&velocity_clock, arpeggiator_->velocity_mode());
 2420              		.loc 13 23 3 is_stmt 1 view .LVU954
  23:Src/Engine/arpeggiatorEngine.h **** 		reset(&velocity_clock, arpeggiator_->velocity_mode());
 2421              		.loc 13 23 3 is_stmt 0 view .LVU955
 2422              	.LBE1699:
 2423              	.LBE1709:
 2424              	.LBE1716:
 2425              	.LBE1736:
 2426              	.LBE1754:
 2427              	.LBE1777:
 2428              	.LBE1809:
 2429              	.LBE1836:
 197:Src/Settings/arpeggiator.h **** 	}
 2430              		.loc 15 197 3 is_stmt 1 view .LVU956
ARM GAS  /var/folders/84/_x1cyy_j36g486tldtwl37280000gn/T//ccZ8X9jg.s 			page 70


 2431              	.LBB1837:
 2432              	.LBB1810:
 2433              	.LBB1778:
 2434              	.LBB1755:
 2435              	.LBB1737:
 2436              	.LBB1717:
 2437              	.LBB1710:
 2438              	.LBB1700:
  23:Src/Engine/arpeggiatorEngine.h **** 		reset(&velocity_clock, arpeggiator_->velocity_mode());
 2439              		.loc 13 23 8 is_stmt 0 view .LVU957
 2440 065a 616A     		ldr	r1, [r4, #36]
 2441 065c 0098     		ldr	r0, [sp]
 2442 065e CA79     		ldrb	r2, [r1, #7]	@ zero_extendqisi2
 2443 0660 04F11801 		add	r1, r4, #24
 2444 0664 FFF7FEFF 		bl	_ZN17ArpeggiatorEngine5resetEPNS_5ClockEh
 2445              	.LVL79:
  24:Src/Engine/arpeggiatorEngine.h **** 	}
 2446              		.loc 13 24 3 is_stmt 1 view .LVU958
  24:Src/Engine/arpeggiatorEngine.h **** 	}
 2447              		.loc 13 24 3 is_stmt 0 view .LVU959
 2448              	.LBE1700:
 2449              	.LBE1710:
 2450              	.LBE1717:
 2451              	.LBE1737:
 2452              	.LBE1755:
 2453              	.LBE1778:
 2454              	.LBE1810:
 2455              	.LBE1837:
 183:Src/Settings/arpeggiator.h **** 	}
 2456              		.loc 15 183 3 is_stmt 1 view .LVU960
 2457              	.LBB1838:
 2458              	.LBB1811:
 2459              	.LBB1779:
 2460              	.LBB1756:
 2461              	.LBB1738:
 2462              	.LBB1718:
 2463              	.LBB1711:
 2464              	.LBB1701:
  24:Src/Engine/arpeggiatorEngine.h **** 	}
 2465              		.loc 13 24 8 is_stmt 0 view .LVU961
 2466 0668 636A     		ldr	r3, [r4, #36]
 2467 066a 0098     		ldr	r0, [sp]
 2468 066c 1A7A     		ldrb	r2, [r3, #8]	@ zero_extendqisi2
 2469 066e 04F10C01 		add	r1, r4, #12
 2470              	.LBE1701:
 2471              	.LBE1711:
 2472              	.LBE1718:
 2473              	.LBE1738:
 2474              	.LBE1756:
 2475              	.LBE1779:
  17:Src/Engine/trackEngine.h **** 			track_state[i].init(i, outputEngine);
 2476              		.loc 17 17 3 view .LVU962
 2477 0672 0AF1010A 		add	r10, r10, #1
 2478              	.LVL80:
 2479              	.LBB1780:
 2480              	.LBB1757:
 2481              	.LBB1739:
ARM GAS  /var/folders/84/_x1cyy_j36g486tldtwl37280000gn/T//ccZ8X9jg.s 			page 71


 2482              	.LBB1719:
 2483              	.LBB1712:
 2484              	.LBB1702:
  24:Src/Engine/arpeggiatorEngine.h **** 	}
 2485              		.loc 13 24 8 view .LVU963
 2486 0676 FFF7FEFF 		bl	_ZN17ArpeggiatorEngine5resetEPNS_5ClockEh
 2487              	.LVL81:
  24:Src/Engine/arpeggiatorEngine.h **** 	}
 2488              		.loc 13 24 8 view .LVU964
 2489              	.LBE1702:
 2490              	.LBE1712:
 2491              	.LBE1719:
 2492              	.LBE1739:
 2493              	.LBE1757:
 2494              	.LBE1780:
  22:Src/Engine/trackEngine.h **** 			drum_track[i].init(i, &track_state[i]);
 2495              		.loc 17 22 4 is_stmt 1 view .LVU965
 2496              	.LBB1781:
 2497              	.LBI1781:
 2498              		.file 23 "Src/Engine/drumTrackEngine.h"
   1:Src/Engine/drumTrackEngine.h **** #ifndef DrumTrackEngine_h
   2:Src/Engine/drumTrackEngine.h **** #define DrumTrackEngine_h
   3:Src/Engine/drumTrackEngine.h **** 
   4:Src/Engine/drumTrackEngine.h **** #include "settings.h"
   5:Src/Engine/drumTrackEngine.h **** #include "trackState.h"
   6:Src/Engine/drumTrackEngine.h **** #include "rng.h"
   7:Src/Engine/drumTrackEngine.h **** 
   8:Src/Engine/drumTrackEngine.h **** template<const bool allow_randomization>
   9:Src/Engine/drumTrackEngine.h **** class DrumTrackEngine {
  10:Src/Engine/drumTrackEngine.h **** 
  11:Src/Engine/drumTrackEngine.h **** public:
  12:Src/Engine/drumTrackEngine.h **** 
  13:Src/Engine/drumTrackEngine.h **** 	void init(int track_index, TrackState *trackState) {
 2499              		.loc 23 13 7 view .LVU966
 2500              	.LBB1782:
  14:Src/Engine/drumTrackEngine.h **** 		track_index_ = track_index;
  15:Src/Engine/drumTrackEngine.h **** 		trackState_ = trackState;
  16:Src/Engine/drumTrackEngine.h **** 		repeats_ = &trackState->repeat;
  17:Src/Engine/drumTrackEngine.h **** 		drumTrack_ = &settings.song.track(track_index).drum;
 2501              		.loc 23 17 3 is_stmt 0 view .LVU967
 2502 067a 08F13000 		add	r0, r8, #48
 2503              	.LBE1782:
 2504              	.LBE1781:
 2505              	.LBB1786:
 2506              	.LBB1787:
 2507              		.file 24 "Src/Engine/curveTrackEngine.h"
   1:Src/Engine/curveTrackEngine.h **** #ifndef CurveTrackEngine_h
   2:Src/Engine/curveTrackEngine.h **** #define CurveTrackEngine_h
   3:Src/Engine/curveTrackEngine.h **** 
   4:Src/Engine/curveTrackEngine.h **** #include "settings.h"
   5:Src/Engine/curveTrackEngine.h **** #include "trackState.h"
   6:Src/Engine/curveTrackEngine.h **** #include "rng.h"
   7:Src/Engine/curveTrackEngine.h **** #include "dsp.h"
   8:Src/Engine/curveTrackEngine.h **** 
   9:Src/Engine/curveTrackEngine.h **** template<const bool allow_randomization>
  10:Src/Engine/curveTrackEngine.h **** class CurveTrackEngine {
  11:Src/Engine/curveTrackEngine.h **** 
ARM GAS  /var/folders/84/_x1cyy_j36g486tldtwl37280000gn/T//ccZ8X9jg.s 			page 72


  12:Src/Engine/curveTrackEngine.h **** public:
  13:Src/Engine/curveTrackEngine.h **** 
  14:Src/Engine/curveTrackEngine.h **** 	void init(int track_index, TrackState *trackState) {
  15:Src/Engine/curveTrackEngine.h **** 		track_index_ = track_index;
  16:Src/Engine/curveTrackEngine.h **** 		trackState_ = trackState;
  17:Src/Engine/curveTrackEngine.h **** 		curveTrack_ = &settings.song.track(track_index).curve;
 2508              		.loc 24 17 3 view .LVU968
 2509 067e 08F14002 		add	r2, r8, #64
 2510              	.LBE1787:
 2511              	.LBE1786:
 2512              	.LBB1790:
 2513              	.LBB1783:
  16:Src/Engine/drumTrackEngine.h **** 		drumTrack_ = &settings.song.track(track_index).drum;
 2514              		.loc 23 16 3 view .LVU969
 2515 0682 0199     		ldr	r1, [sp, #4]
  15:Src/Engine/drumTrackEngine.h **** 		repeats_ = &trackState->repeat;
 2516              		.loc 23 15 3 view .LVU970
 2517 0684 C7F80469 		str	r6, [r7, #2308]
 2518              	.LBE1783:
 2519              	.LBE1790:
  17:Src/Engine/trackEngine.h **** 			track_state[i].init(i, outputEngine);
 2520              		.loc 17 17 21 view .LVU971
 2521 0688 BAF1100F 		cmp	r10, #16
 2522              	.LBB1791:
 2523              	.LBB1784:
  16:Src/Engine/drumTrackEngine.h **** 		drumTrack_ = &settings.song.track(track_index).drum;
 2524              		.loc 23 16 3 view .LVU972
 2525 068c C7F80819 		str	r1, [r7, #2312]
 2526              	.LVL82:
  16:Src/Engine/drumTrackEngine.h **** 		drumTrack_ = &settings.song.track(track_index).drum;
 2527              		.loc 23 16 3 view .LVU973
 2528              	.LBE1784:
 2529              	.LBE1791:
 2530              	.LBE1811:
 2531              	.LBE1838:
 2532              		.loc 21 19 3 is_stmt 1 view .LVU974
 2533              	.LBB1839:
 2534              	.LBB1812:
 2535              	.LBB1792:
 2536              	.LBB1785:
  14:Src/Engine/drumTrackEngine.h **** 		trackState_ = trackState;
 2537              		.loc 23 14 3 is_stmt 0 view .LVU975
 2538 0690 87F80C99 		strb	r9, [r7, #2316]
 2539              		.loc 23 17 3 view .LVU976
 2540 0694 C7F80009 		str	r0, [r7, #2304]
 2541              	.LVL83:
 2542              		.loc 23 17 3 view .LVU977
 2543              	.LBE1785:
 2544              	.LBE1792:
  23:Src/Engine/trackEngine.h **** 			curve_track[i].init(i, &track_state[i]);
 2545              		.loc 17 23 4 is_stmt 1 view .LVU978
 2546              	.LBB1793:
 2547              	.LBI1786:
  14:Src/Engine/curveTrackEngine.h **** 		track_index_ = track_index;
 2548              		.loc 24 14 7 view .LVU979
 2549 0698 04F17804 		add	r4, r4, #120
 2550              	.LVL84:
ARM GAS  /var/folders/84/_x1cyy_j36g486tldtwl37280000gn/T//ccZ8X9jg.s 			page 73


 2551              	.LBB1788:
  16:Src/Engine/curveTrackEngine.h **** 		curveTrack_ = &settings.song.track(track_index).curve;
 2552              		.loc 24 16 3 is_stmt 0 view .LVU980
 2553 069c CBF80460 		str	r6, [fp, #4]
 2554              	.LVL85:
  16:Src/Engine/curveTrackEngine.h **** 		curveTrack_ = &settings.song.track(track_index).curve;
 2555              		.loc 24 16 3 view .LVU981
 2556              	.LBE1788:
 2557              	.LBE1793:
 2558              	.LBE1812:
 2559              	.LBE1839:
 2560              		.loc 21 19 3 is_stmt 1 view .LVU982
 2561              	.LBB1840:
 2562              	.LBB1813:
 2563              	.LBB1794:
 2564              	.LBB1789:
  15:Src/Engine/curveTrackEngine.h **** 		trackState_ = trackState;
 2565              		.loc 24 15 3 is_stmt 0 view .LVU983
 2566 06a0 8BF82090 		strb	r9, [fp, #32]
 2567 06a4 07F11807 		add	r7, r7, #24
 2568              		.loc 24 17 3 view .LVU984
 2569 06a8 4BF8382B 		str	r2, [fp], #56
 2570 06ac 06F1B806 		add	r6, r6, #184
 2571              	.LVL86:
 2572              		.loc 24 17 3 view .LVU985
 2573 06b0 08F5B878 		add	r8, r8, #368
 2574              	.LVL87:
 2575              		.loc 24 17 3 view .LVU986
 2576              	.LBE1789:
 2577              	.LBE1794:
  17:Src/Engine/trackEngine.h **** 			track_state[i].init(i, outputEngine);
 2578              		.loc 17 17 3 is_stmt 1 view .LVU987
  17:Src/Engine/trackEngine.h **** 			track_state[i].init(i, outputEngine);
 2579              		.loc 17 17 21 view .LVU988
 2580 06b4 82D1     		bne	.L9
 2581              	.LBE1813:
 2582              	.LBB1814:
 2583              	.LBB1815:
  24:Src/Engine/trackEngine.h **** 		}
  25:Src/Engine/trackEngine.h **** 
  26:Src/Engine/trackEngine.h **** 		reset();
  27:Src/Engine/trackEngine.h **** 	}
  28:Src/Engine/trackEngine.h **** 
  29:Src/Engine/trackEngine.h **** 
  30:Src/Engine/trackEngine.h **** 	TrackState &state(uint8_t index) {
  31:Src/Engine/trackEngine.h **** 		return track_state[index];
  32:Src/Engine/trackEngine.h **** 	}
  33:Src/Engine/trackEngine.h **** 
  34:Src/Engine/trackEngine.h **** 	void reset() {
  35:Src/Engine/trackEngine.h **** 		ticks = 0;
 2584              		.loc 17 35 9 is_stmt 0 view .LVU989
 2585 06b6 18EE106A 		vmov	r6, s16	@ int
 2586 06ba DDF80CB0 		ldr	fp, [sp, #12]
 2587              	.LBE1815:
 2588              	.LBE1814:
 2589              	.LBE1840:
  26:Src/Engine/trackEngine.h **** 	}
ARM GAS  /var/folders/84/_x1cyy_j36g486tldtwl37280000gn/T//ccZ8X9jg.s 			page 74


 2590              		.loc 17 26 3 is_stmt 1 view .LVU990
 2591              	.LVL88:
 2592              	.LBB1841:
 2593              	.LBB1820:
 2594              	.LBI1814:
  34:Src/Engine/trackEngine.h **** 		ticks = 0;
 2595              		.loc 17 34 7 view .LVU991
 2596              	.LBB1819:
 2597              		.loc 17 35 3 view .LVU992
 2598              		.loc 17 35 9 is_stmt 0 view .LVU993
 2599 06be 7560     		str	r5, [r6, #4]
 2600              	.LVL89:
  36:Src/Engine/trackEngine.h **** 		processed_ticks = 0;
 2601              		.loc 17 36 3 is_stmt 1 view .LVU994
  35:Src/Engine/trackEngine.h **** 		processed_ticks = 0;
 2602              		.loc 17 35 9 is_stmt 0 view .LVU995
 2603 06c0 44F2D847 		movw	r7, #17624
 2604              		.loc 17 36 19 view .LVU996
 2605 06c4 B560     		str	r5, [r6, #8]
  37:Src/Engine/trackEngine.h **** 		suspended = false;
 2606              		.loc 17 37 3 is_stmt 1 view .LVU997
 2607              	.LBB1816:
  38:Src/Engine/trackEngine.h **** 		audition.is_playing = false;
  39:Src/Engine/trackEngine.h **** 
  40:Src/Engine/trackEngine.h **** 		for (int i = 0; i < kMaxTracks; ++i) {
 2608              		.loc 17 40 12 is_stmt 0 view .LVU998
 2609 06c6 2C46     		mov	r4, r5
 2610              	.LVL90:
 2611              		.loc 17 40 12 view .LVU999
 2612              	.LBE1816:
  37:Src/Engine/trackEngine.h **** 		suspended = false;
 2613              		.loc 17 37 13 view .LVU1000
 2614 06c8 0BF80750 		strb	r5, [fp, r7]
  38:Src/Engine/trackEngine.h **** 		audition.is_playing = false;
 2615              		.loc 17 38 3 is_stmt 1 view .LVU1001
  38:Src/Engine/trackEngine.h **** 		audition.is_playing = false;
 2616              		.loc 17 38 23 is_stmt 0 view .LVU1002
 2617 06cc 7573     		strb	r5, [r6, #13]
 2618              		.loc 17 40 3 is_stmt 1 view .LVU1003
 2619              	.LVL91:
 2620              	.LBB1817:
 2621              		.loc 17 40 21 view .LVU1004
 2622              	.LBE1817:
  38:Src/Engine/trackEngine.h **** 		audition.is_playing = false;
 2623              		.loc 17 38 23 is_stmt 0 view .LVU1005
 2624 06ce 18EE105A 		vmov	r5, s16	@ int
 2625              	.LVL92:
 2626              	.L10:
 2627              	.LBB1818:
  41:Src/Engine/trackEngine.h **** 			reset(i);
 2628              		.loc 17 41 4 is_stmt 1 view .LVU1006
 2629              		.loc 17 41 9 is_stmt 0 view .LVU1007
 2630 06d2 E1B2     		uxtb	r1, r4
 2631 06d4 2846     		mov	r0, r5
  40:Src/Engine/trackEngine.h **** 			reset(i);
 2632              		.loc 17 40 3 view .LVU1008
 2633 06d6 0134     		adds	r4, r4, #1
ARM GAS  /var/folders/84/_x1cyy_j36g486tldtwl37280000gn/T//ccZ8X9jg.s 			page 75


 2634              	.LVL93:
 2635              		.loc 17 41 9 view .LVU1009
 2636 06d8 FFF7FEFF 		bl	_ZN11TrackEngine5resetEh
 2637              	.LVL94:
  40:Src/Engine/trackEngine.h **** 			reset(i);
 2638              		.loc 17 40 3 is_stmt 1 view .LVU1010
  40:Src/Engine/trackEngine.h **** 			reset(i);
 2639              		.loc 17 40 21 view .LVU1011
 2640 06dc 102C     		cmp	r4, #16
 2641 06de F8D1     		bne	.L10
 2642              	.LBE1818:
 2643              	.LBE1819:
 2644              	.LBE1820:
 2645              	.LBE1841:
  20:Src/Engine/engine.cpp **** }
 2646              		.loc 1 20 1 is_stmt 0 view .LVU1012
 2647 06e0 05B0     		add	sp, sp, #20
 2648              		.cfi_def_cfa_offset 44
 2649              	.LVL95:
 2650              		.loc 1 20 1 view .LVU1013
 2651              		@ sp needed
 2652 06e2 BDEC028B 		vldm	sp!, {d8}
 2653              		.cfi_restore 80
 2654              		.cfi_restore 81
 2655              		.cfi_def_cfa_offset 36
 2656 06e6 BDE8F08F 		pop	{r4, r5, r6, r7, r8, r9, r10, fp, pc}
 2657              	.LVL96:
 2658              	.L66:
 2659              		.loc 1 20 1 view .LVU1014
 2660 06ea 00BF     		.align	2
 2661              	.L65:
 2662 06ec CC190000 		.word	settings+6604
 2663 06f0 D8210000 		.word	settings+8664
 2664 06f4 8C000000 		.word	settings+140
 2665              		.cfi_endproc
 2666              	.LFE2900:
 2668              		.section	.text._ZN6Engine21send_midi_clock_startEv,"ax",%progbits
 2669              		.align	1
 2670              		.p2align 2,,3
 2671              		.global	_ZN6Engine21send_midi_clock_startEv
 2672              		.syntax unified
 2673              		.thumb
 2674              		.thumb_func
 2675              		.fpu fpv4-sp-d16
 2677              	_ZN6Engine21send_midi_clock_startEv:
 2678              	.LVL97:
 2679              	.LFB2901:
  21:Src/Engine/engine.cpp **** 
  22:Src/Engine/engine.cpp **** /* MidiEvent */
  23:Src/Engine/engine.cpp **** void Engine::send_midi_clock_start() {
 2680              		.loc 1 23 38 is_stmt 1 view -0
 2681              		.cfi_startproc
 2682              		@ args = 0, pretend = 0, frame = 0
 2683              		@ frame_needed = 0, uses_anonymous_args = 0
 2684              		@ link register save eliminated.
  24:Src/Engine/engine.cpp **** 	for (int i = 0; i < MidiPort::NUM_PORTS; ++i) {
 2685              		.loc 1 24 2 view .LVU1016
ARM GAS  /var/folders/84/_x1cyy_j36g486tldtwl37280000gn/T//ccZ8X9jg.s 			page 76


 2686              	.LBB1842:
 2687              		.loc 1 24 20 view .LVU1017
  25:Src/Engine/engine.cpp **** 		if (settings.midiOutput(i).send_clock()) {
 2688              		.loc 1 25 3 view .LVU1018
 2689              		.loc 1 25 3 is_stmt 0 view .LVU1019
 2690              	.LBE1842:
  31:Src/Settings/settings.h **** 	}
  32:Src/Settings/settings.h **** 
  33:Src/Settings/settings.h **** 	MidiOutput &midiOutput(int port) {
  34:Src/Settings/settings.h **** 		return midiOutput_[port];
 2691              		.loc 14 34 3 is_stmt 1 view .LVU1020
 2692              		.file 25 "Src/Settings/midiOutput.h"
   1:Src/Settings/midiOutput.h **** #ifndef MidiOutput_h
   2:Src/Settings/midiOutput.h **** #define MidiOutput_h
   3:Src/Settings/midiOutput.h **** 
   4:Src/Settings/midiOutput.h **** #include "midiPort.h"
   5:Src/Settings/midiOutput.h **** 
   6:Src/Settings/midiOutput.h **** class MidiOutput {
   7:Src/Settings/midiOutput.h **** 
   8:Src/Settings/midiOutput.h **** public:
   9:Src/Settings/midiOutput.h **** 
  10:Src/Settings/midiOutput.h **** 	void init() {
  11:Src/Settings/midiOutput.h **** 		set_send_clock(true);
  12:Src/Settings/midiOutput.h **** 		set_send_clock_continues(false);
  13:Src/Settings/midiOutput.h **** 	}
  14:Src/Settings/midiOutput.h **** 
  15:Src/Settings/midiOutput.h **** 	// send clock
  16:Src/Settings/midiOutput.h **** 	bool send_clock() {
  17:Src/Settings/midiOutput.h **** 		return send_clock_;
 2693              		.loc 25 17 3 view .LVU1021
 2694              	.LBB1863:
 2695              		.loc 1 25 40 is_stmt 0 view .LVU1022
 2696 0000 294B     		ldr	r3, .L89
 2697 0002 42F24C02 		movw	r2, #8268
 2698              	.LBE1863:
  23:Src/Engine/engine.cpp **** 	for (int i = 0; i < MidiPort::NUM_PORTS; ++i) {
 2699              		.loc 1 23 38 view .LVU1023
 2700 0006 10B4     		push	{r4}
 2701              		.cfi_def_cfa_offset 4
 2702              		.cfi_offset 4, -4
 2703              	.LBB1864:
 2704              		.loc 1 25 3 view .LVU1024
 2705 0008 995C     		ldrb	r1, [r3, r2]	@ zero_extendqisi2
 2706 000a 59B1     		cbz	r1, .L68
  26:Src/Engine/engine.cpp **** 			midiPort.send_clock_message(i, MidiEvent::CLOCK_START);
 2707              		.loc 1 26 4 is_stmt 1 view .LVU1025
 2708              	.LVL98:
 2709              	.LBB1843:
 2710              	.LBI1843:
  42:Src/Engine/midiPort.h **** 		}
  43:Src/Engine/midiPort.h **** 	}
  44:Src/Engine/midiPort.h **** 
  45:Src/Engine/midiPort.h **** 	MidiBuffer &buffer(uint8_t port) {
  46:Src/Engine/midiPort.h **** 		return buffer_[port];
  47:Src/Engine/midiPort.h **** 	}
  48:Src/Engine/midiPort.h **** 
  49:Src/Engine/midiPort.h **** 	void send_clock_message(uint8_t port, uint8_t message) {
ARM GAS  /var/folders/84/_x1cyy_j36g486tldtwl37280000gn/T//ccZ8X9jg.s 			page 77


 2711              		.loc 5 49 7 view .LVU1026
 2712              	.LBB1844:
  50:Src/Engine/midiPort.h **** 		buffer_[port].clock_out_que.write(message);
 2713              		.loc 5 50 3 view .LVU1027
 2714              	.LBB1845:
 2715              	.LBI1845:
  15:/Users/joostbooy/Desktop/Code/stm32/lib/utils/que.h **** 	}
  16:/Users/joostbooy/Desktop/Code/stm32/lib/utils/que.h **** 
  17:/Users/joostbooy/Desktop/Code/stm32/lib/utils/que.h **** 	inline bool writeable() {
  18:/Users/joostbooy/Desktop/Code/stm32/lib/utils/que.h **** 		return ((write_pos_ + 1) % kMaxSize) != read_pos_;
  19:/Users/joostbooy/Desktop/Code/stm32/lib/utils/que.h **** 	}
  20:/Users/joostbooy/Desktop/Code/stm32/lib/utils/que.h **** 
  21:/Users/joostbooy/Desktop/Code/stm32/lib/utils/que.h **** 	inline bool readable() {
  22:/Users/joostbooy/Desktop/Code/stm32/lib/utils/que.h **** 		return write_pos_ != read_pos_;
  23:/Users/joostbooy/Desktop/Code/stm32/lib/utils/que.h **** 	}
  24:/Users/joostbooy/Desktop/Code/stm32/lib/utils/que.h **** 
  25:/Users/joostbooy/Desktop/Code/stm32/lib/utils/que.h **** 	inline size_t size() {
  26:/Users/joostbooy/Desktop/Code/stm32/lib/utils/que.h **** 		return (write_pos_ - read_pos_) % kMaxSize;
  27:/Users/joostbooy/Desktop/Code/stm32/lib/utils/que.h **** 	}
  28:/Users/joostbooy/Desktop/Code/stm32/lib/utils/que.h **** 
  29:/Users/joostbooy/Desktop/Code/stm32/lib/utils/que.h **** 	inline size_t available_size() {
  30:/Users/joostbooy/Desktop/Code/stm32/lib/utils/que.h **** 		return kMaxSize - size();
  31:/Users/joostbooy/Desktop/Code/stm32/lib/utils/que.h **** 	}
  32:/Users/joostbooy/Desktop/Code/stm32/lib/utils/que.h **** 
  33:/Users/joostbooy/Desktop/Code/stm32/lib/utils/que.h **** 	inline void clear() {
  34:/Users/joostbooy/Desktop/Code/stm32/lib/utils/que.h **** 		write_pos_ = read_pos_;
  35:/Users/joostbooy/Desktop/Code/stm32/lib/utils/que.h **** 	}
  36:/Users/joostbooy/Desktop/Code/stm32/lib/utils/que.h **** 
  37:/Users/joostbooy/Desktop/Code/stm32/lib/utils/que.h **** 	inline void write(T value) {
 2716              		.loc 2 37 14 view .LVU1028
 2717              	.LBB1846:
  38:/Users/joostbooy/Desktop/Code/stm32/lib/utils/que.h **** 		size_t pos = write_pos_;
 2718              		.loc 2 38 10 is_stmt 0 view .LVU1029
 2719 000c D0F85C42 		ldr	r4, [r0, #604]
 2720              	.LVL99:
  39:/Users/joostbooy/Desktop/Code/stm32/lib/utils/que.h **** 		data[pos] = value;
 2721              		.loc 2 39 3 view .LVU1030
 2722 0010 0119     		adds	r1, r0, r4
  40:/Users/joostbooy/Desktop/Code/stm32/lib/utils/que.h **** 		write_pos_ = (pos + 1) % kMaxSize;
 2723              		.loc 2 40 21 view .LVU1031
 2724 0012 0134     		adds	r4, r4, #1
 2725              	.LVL100:
 2726              		.loc 2 40 26 view .LVU1032
 2727 0014 04F00702 		and	r2, r4, #7
  39:/Users/joostbooy/Desktop/Code/stm32/lib/utils/que.h **** 		data[pos] = value;
 2728              		.loc 2 39 3 view .LVU1033
 2729 0018 4FF0FA0C 		mov	ip, #250
 2730 001c 81F864C2 		strb	ip, [r1, #612]
 2731              		.loc 2 40 3 view .LVU1034
 2732 0020 C0F85C22 		str	r2, [r0, #604]
 2733              	.LVL101:
 2734              	.L68:
 2735              		.loc 2 40 3 view .LVU1035
 2736              	.LBE1846:
 2737              	.LBE1845:
 2738              	.LBE1844:
 2739              	.LBE1843:
ARM GAS  /var/folders/84/_x1cyy_j36g486tldtwl37280000gn/T//ccZ8X9jg.s 			page 78


  24:Src/Engine/engine.cpp **** 		if (settings.midiOutput(i).send_clock()) {
 2740              		.loc 1 24 2 is_stmt 1 view .LVU1036
  24:Src/Engine/engine.cpp **** 		if (settings.midiOutput(i).send_clock()) {
 2741              		.loc 1 24 20 view .LVU1037
  25:Src/Engine/engine.cpp **** 			midiPort.send_clock_message(i, MidiEvent::CLOCK_START);
 2742              		.loc 1 25 3 view .LVU1038
  25:Src/Engine/engine.cpp **** 			midiPort.send_clock_message(i, MidiEvent::CLOCK_START);
 2743              		.loc 1 25 3 is_stmt 0 view .LVU1039
 2744              	.LBE1864:
 2745              		.loc 14 34 3 is_stmt 1 view .LVU1040
 2746              		.loc 25 17 3 view .LVU1041
 2747              	.LBB1865:
  25:Src/Engine/engine.cpp **** 			midiPort.send_clock_message(i, MidiEvent::CLOCK_START);
 2748              		.loc 1 25 40 is_stmt 0 view .LVU1042
 2749 0024 42F24E04 		movw	r4, #8270
  25:Src/Engine/engine.cpp **** 			midiPort.send_clock_message(i, MidiEvent::CLOCK_START);
 2750              		.loc 1 25 3 view .LVU1043
 2751 0028 195D     		ldrb	r1, [r3, r4]	@ zero_extendqisi2
 2752 002a 59B1     		cbz	r1, .L69
 2753              		.loc 1 26 4 is_stmt 1 view .LVU1044
 2754              	.LVL102:
 2755              	.LBB1859:
  49:Src/Engine/midiPort.h **** 		buffer_[port].clock_out_que.write(message);
 2756              		.loc 5 49 7 view .LVU1045
 2757              	.LBB1855:
 2758              		.loc 5 50 3 view .LVU1046
 2759              	.LBB1851:
  37:/Users/joostbooy/Desktop/Code/stm32/lib/utils/que.h **** 		size_t pos = write_pos_;
 2760              		.loc 2 37 14 view .LVU1047
 2761              	.LBB1847:
  38:/Users/joostbooy/Desktop/Code/stm32/lib/utils/que.h **** 		data[pos] = value;
 2762              		.loc 2 38 10 is_stmt 0 view .LVU1048
 2763 002c D0F8D824 		ldr	r2, [r0, #1240]
 2764              	.LVL103:
  39:/Users/joostbooy/Desktop/Code/stm32/lib/utils/que.h **** 		write_pos_ = (pos + 1) % kMaxSize;
 2765              		.loc 2 39 3 view .LVU1049
 2766 0030 8118     		adds	r1, r0, r2
 2767              		.loc 2 40 21 view .LVU1050
 2768 0032 0132     		adds	r2, r2, #1
 2769              	.LVL104:
 2770              		.loc 2 40 26 view .LVU1051
 2771 0034 02F00702 		and	r2, r2, #7
 2772              	.LVL105:
  39:/Users/joostbooy/Desktop/Code/stm32/lib/utils/que.h **** 		write_pos_ = (pos + 1) % kMaxSize;
 2773              		.loc 2 39 3 view .LVU1052
 2774 0038 4FF0FA0C 		mov	ip, #250
 2775 003c 81F8E0C4 		strb	ip, [r1, #1248]
 2776              		.loc 2 40 3 view .LVU1053
 2777 0040 C0F8D824 		str	r2, [r0, #1240]
 2778              	.LVL106:
 2779              	.L69:
 2780              		.loc 2 40 3 view .LVU1054
 2781              	.LBE1847:
 2782              	.LBE1851:
 2783              	.LBE1855:
 2784              	.LBE1859:
  24:Src/Engine/engine.cpp **** 		if (settings.midiOutput(i).send_clock()) {
ARM GAS  /var/folders/84/_x1cyy_j36g486tldtwl37280000gn/T//ccZ8X9jg.s 			page 79


 2785              		.loc 1 24 2 is_stmt 1 view .LVU1055
  24:Src/Engine/engine.cpp **** 		if (settings.midiOutput(i).send_clock()) {
 2786              		.loc 1 24 20 view .LVU1056
  25:Src/Engine/engine.cpp **** 			midiPort.send_clock_message(i, MidiEvent::CLOCK_START);
 2787              		.loc 1 25 3 view .LVU1057
  25:Src/Engine/engine.cpp **** 			midiPort.send_clock_message(i, MidiEvent::CLOCK_START);
 2788              		.loc 1 25 3 is_stmt 0 view .LVU1058
 2789              	.LBE1865:
 2790              		.loc 14 34 3 is_stmt 1 view .LVU1059
 2791              		.loc 25 17 3 view .LVU1060
 2792              	.LBB1866:
  25:Src/Engine/engine.cpp **** 			midiPort.send_clock_message(i, MidiEvent::CLOCK_START);
 2793              		.loc 1 25 40 is_stmt 0 view .LVU1061
 2794 0044 42F25004 		movw	r4, #8272
  25:Src/Engine/engine.cpp **** 			midiPort.send_clock_message(i, MidiEvent::CLOCK_START);
 2795              		.loc 1 25 3 view .LVU1062
 2796 0048 195D     		ldrb	r1, [r3, r4]	@ zero_extendqisi2
 2797 004a 59B1     		cbz	r1, .L70
 2798              		.loc 1 26 4 is_stmt 1 view .LVU1063
 2799              	.LVL107:
 2800              	.LBB1860:
  49:Src/Engine/midiPort.h **** 		buffer_[port].clock_out_que.write(message);
 2801              		.loc 5 49 7 view .LVU1064
 2802              	.LBB1856:
 2803              		.loc 5 50 3 view .LVU1065
 2804              	.LBB1852:
  37:/Users/joostbooy/Desktop/Code/stm32/lib/utils/que.h **** 		size_t pos = write_pos_;
 2805              		.loc 2 37 14 view .LVU1066
 2806              	.LBB1848:
  38:/Users/joostbooy/Desktop/Code/stm32/lib/utils/que.h **** 		data[pos] = value;
 2807              		.loc 2 38 10 is_stmt 0 view .LVU1067
 2808 004c D0F85427 		ldr	r2, [r0, #1876]
 2809              	.LVL108:
  39:/Users/joostbooy/Desktop/Code/stm32/lib/utils/que.h **** 		write_pos_ = (pos + 1) % kMaxSize;
 2810              		.loc 2 39 3 view .LVU1068
 2811 0050 8118     		adds	r1, r0, r2
 2812              		.loc 2 40 21 view .LVU1069
 2813 0052 0132     		adds	r2, r2, #1
 2814              	.LVL109:
 2815              		.loc 2 40 26 view .LVU1070
 2816 0054 02F00702 		and	r2, r2, #7
 2817              	.LVL110:
  39:/Users/joostbooy/Desktop/Code/stm32/lib/utils/que.h **** 		write_pos_ = (pos + 1) % kMaxSize;
 2818              		.loc 2 39 3 view .LVU1071
 2819 0058 4FF0FA0C 		mov	ip, #250
 2820 005c 81F85CC7 		strb	ip, [r1, #1884]
 2821              		.loc 2 40 3 view .LVU1072
 2822 0060 C0F85427 		str	r2, [r0, #1876]
 2823              	.LVL111:
 2824              	.L70:
 2825              		.loc 2 40 3 view .LVU1073
 2826              	.LBE1848:
 2827              	.LBE1852:
 2828              	.LBE1856:
 2829              	.LBE1860:
  24:Src/Engine/engine.cpp **** 		if (settings.midiOutput(i).send_clock()) {
 2830              		.loc 1 24 2 is_stmt 1 view .LVU1074
ARM GAS  /var/folders/84/_x1cyy_j36g486tldtwl37280000gn/T//ccZ8X9jg.s 			page 80


  24:Src/Engine/engine.cpp **** 		if (settings.midiOutput(i).send_clock()) {
 2831              		.loc 1 24 20 view .LVU1075
  25:Src/Engine/engine.cpp **** 			midiPort.send_clock_message(i, MidiEvent::CLOCK_START);
 2832              		.loc 1 25 3 view .LVU1076
  25:Src/Engine/engine.cpp **** 			midiPort.send_clock_message(i, MidiEvent::CLOCK_START);
 2833              		.loc 1 25 3 is_stmt 0 view .LVU1077
 2834              	.LBE1866:
 2835              		.loc 14 34 3 is_stmt 1 view .LVU1078
 2836              		.loc 25 17 3 view .LVU1079
 2837              	.LBB1867:
  25:Src/Engine/engine.cpp **** 			midiPort.send_clock_message(i, MidiEvent::CLOCK_START);
 2838              		.loc 1 25 40 is_stmt 0 view .LVU1080
 2839 0064 42F25204 		movw	r4, #8274
  25:Src/Engine/engine.cpp **** 			midiPort.send_clock_message(i, MidiEvent::CLOCK_START);
 2840              		.loc 1 25 3 view .LVU1081
 2841 0068 195D     		ldrb	r1, [r3, r4]	@ zero_extendqisi2
 2842 006a 59B1     		cbz	r1, .L71
 2843              		.loc 1 26 4 is_stmt 1 view .LVU1082
 2844              	.LVL112:
 2845              	.LBB1861:
  49:Src/Engine/midiPort.h **** 		buffer_[port].clock_out_que.write(message);
 2846              		.loc 5 49 7 view .LVU1083
 2847              	.LBB1857:
 2848              		.loc 5 50 3 view .LVU1084
 2849              	.LBB1853:
  37:/Users/joostbooy/Desktop/Code/stm32/lib/utils/que.h **** 		size_t pos = write_pos_;
 2850              		.loc 2 37 14 view .LVU1085
 2851              	.LBB1849:
  38:/Users/joostbooy/Desktop/Code/stm32/lib/utils/que.h **** 		data[pos] = value;
 2852              		.loc 2 38 10 is_stmt 0 view .LVU1086
 2853 006c D0F8D029 		ldr	r2, [r0, #2512]
 2854              	.LVL113:
  39:/Users/joostbooy/Desktop/Code/stm32/lib/utils/que.h **** 		write_pos_ = (pos + 1) % kMaxSize;
 2855              		.loc 2 39 3 view .LVU1087
 2856 0070 8118     		adds	r1, r0, r2
 2857              		.loc 2 40 21 view .LVU1088
 2858 0072 0132     		adds	r2, r2, #1
 2859              	.LVL114:
 2860              		.loc 2 40 26 view .LVU1089
 2861 0074 02F00702 		and	r2, r2, #7
 2862              	.LVL115:
  39:/Users/joostbooy/Desktop/Code/stm32/lib/utils/que.h **** 		write_pos_ = (pos + 1) % kMaxSize;
 2863              		.loc 2 39 3 view .LVU1090
 2864 0078 4FF0FA0C 		mov	ip, #250
 2865 007c 81F8D8C9 		strb	ip, [r1, #2520]
 2866              		.loc 2 40 3 view .LVU1091
 2867 0080 C0F8D029 		str	r2, [r0, #2512]
 2868              	.LVL116:
 2869              	.L71:
 2870              		.loc 2 40 3 view .LVU1092
 2871              	.LBE1849:
 2872              	.LBE1853:
 2873              	.LBE1857:
 2874              	.LBE1861:
  24:Src/Engine/engine.cpp **** 		if (settings.midiOutput(i).send_clock()) {
 2875              		.loc 1 24 2 is_stmt 1 view .LVU1093
  24:Src/Engine/engine.cpp **** 		if (settings.midiOutput(i).send_clock()) {
ARM GAS  /var/folders/84/_x1cyy_j36g486tldtwl37280000gn/T//ccZ8X9jg.s 			page 81


 2876              		.loc 1 24 20 view .LVU1094
  25:Src/Engine/engine.cpp **** 			midiPort.send_clock_message(i, MidiEvent::CLOCK_START);
 2877              		.loc 1 25 3 view .LVU1095
  25:Src/Engine/engine.cpp **** 			midiPort.send_clock_message(i, MidiEvent::CLOCK_START);
 2878              		.loc 1 25 3 is_stmt 0 view .LVU1096
 2879              	.LBE1867:
 2880              		.loc 14 34 3 is_stmt 1 view .LVU1097
 2881              		.loc 25 17 3 view .LVU1098
 2882              	.LBB1868:
  25:Src/Engine/engine.cpp **** 			midiPort.send_clock_message(i, MidiEvent::CLOCK_START);
 2883              		.loc 1 25 40 is_stmt 0 view .LVU1099
 2884 0084 42F25404 		movw	r4, #8276
  25:Src/Engine/engine.cpp **** 			midiPort.send_clock_message(i, MidiEvent::CLOCK_START);
 2885              		.loc 1 25 3 view .LVU1100
 2886 0088 1B5D     		ldrb	r3, [r3, r4]	@ zero_extendqisi2
 2887 008a 53B1     		cbz	r3, .L67
 2888              		.loc 1 26 4 is_stmt 1 view .LVU1101
 2889              	.LVL117:
 2890              	.LBB1862:
  49:Src/Engine/midiPort.h **** 		buffer_[port].clock_out_que.write(message);
 2891              		.loc 5 49 7 view .LVU1102
 2892              	.LBB1858:
 2893              		.loc 5 50 3 view .LVU1103
 2894              	.LBB1854:
  37:/Users/joostbooy/Desktop/Code/stm32/lib/utils/que.h **** 		size_t pos = write_pos_;
 2895              		.loc 2 37 14 view .LVU1104
 2896              	.LBB1850:
  38:/Users/joostbooy/Desktop/Code/stm32/lib/utils/que.h **** 		data[pos] = value;
 2897              		.loc 2 38 10 is_stmt 0 view .LVU1105
 2898 008c D0F84C1C 		ldr	r1, [r0, #3148]
 2899              	.LVL118:
  39:/Users/joostbooy/Desktop/Code/stm32/lib/utils/que.h **** 		write_pos_ = (pos + 1) % kMaxSize;
 2900              		.loc 2 39 3 view .LVU1106
 2901 0090 4218     		adds	r2, r0, r1
 2902              		.loc 2 40 21 view .LVU1107
 2903 0092 0131     		adds	r1, r1, #1
 2904              	.LVL119:
 2905              		.loc 2 40 26 view .LVU1108
 2906 0094 01F00704 		and	r4, r1, #7
  39:/Users/joostbooy/Desktop/Code/stm32/lib/utils/que.h **** 		write_pos_ = (pos + 1) % kMaxSize;
 2907              		.loc 2 39 3 view .LVU1109
 2908 0098 FA23     		movs	r3, #250
 2909 009a 82F8543C 		strb	r3, [r2, #3156]
 2910              		.loc 2 40 3 view .LVU1110
 2911 009e C0F84C4C 		str	r4, [r0, #3148]
 2912              	.LVL120:
 2913              		.loc 2 40 3 view .LVU1111
 2914              	.LBE1850:
 2915              	.LBE1854:
 2916              	.LBE1858:
 2917              	.LBE1862:
  24:Src/Engine/engine.cpp **** 		if (settings.midiOutput(i).send_clock()) {
 2918              		.loc 1 24 2 is_stmt 1 view .LVU1112
  24:Src/Engine/engine.cpp **** 		if (settings.midiOutput(i).send_clock()) {
 2919              		.loc 1 24 20 view .LVU1113
 2920              	.L67:
  24:Src/Engine/engine.cpp **** 		if (settings.midiOutput(i).send_clock()) {
ARM GAS  /var/folders/84/_x1cyy_j36g486tldtwl37280000gn/T//ccZ8X9jg.s 			page 82


 2921              		.loc 1 24 20 is_stmt 0 view .LVU1114
 2922              	.LBE1868:
  27:Src/Engine/engine.cpp **** 		}
  28:Src/Engine/engine.cpp **** 	}
  29:Src/Engine/engine.cpp **** }
 2923              		.loc 1 29 1 view .LVU1115
 2924 00a2 5DF8044B 		ldr	r4, [sp], #4
 2925              		.cfi_restore 4
 2926              		.cfi_def_cfa_offset 0
 2927 00a6 7047     		bx	lr
 2928              	.L90:
 2929              		.align	2
 2930              	.L89:
 2931 00a8 00000000 		.word	settings
 2932              		.cfi_endproc
 2933              	.LFE2901:
 2935              		.section	.text._ZN6Engine20send_midi_clock_stopEv,"ax",%progbits
 2936              		.align	1
 2937              		.p2align 2,,3
 2938              		.global	_ZN6Engine20send_midi_clock_stopEv
 2939              		.syntax unified
 2940              		.thumb
 2941              		.thumb_func
 2942              		.fpu fpv4-sp-d16
 2944              	_ZN6Engine20send_midi_clock_stopEv:
 2945              	.LVL121:
 2946              	.LFB2902:
  30:Src/Engine/engine.cpp **** 
  31:Src/Engine/engine.cpp **** void Engine::send_midi_clock_stop() {
 2947              		.loc 1 31 37 is_stmt 1 view -0
 2948              		.cfi_startproc
 2949              		@ args = 0, pretend = 0, frame = 0
 2950              		@ frame_needed = 0, uses_anonymous_args = 0
 2951              		@ link register save eliminated.
  32:Src/Engine/engine.cpp **** 	for (int i = 0; i < MidiPort::NUM_PORTS; ++i) {
 2952              		.loc 1 32 2 view .LVU1117
 2953              	.LBB1869:
 2954              		.loc 1 32 20 view .LVU1118
  33:Src/Engine/engine.cpp **** 		if (settings.midiOutput(i).send_clock()) {
 2955              		.loc 1 33 3 view .LVU1119
 2956              		.loc 1 33 3 is_stmt 0 view .LVU1120
 2957              	.LBE1869:
 2958              		.loc 14 34 3 is_stmt 1 view .LVU1121
 2959              		.loc 25 17 3 view .LVU1122
 2960              	.LBB1890:
 2961              		.loc 1 33 40 is_stmt 0 view .LVU1123
 2962 0000 294B     		ldr	r3, .L113
 2963 0002 42F24C02 		movw	r2, #8268
 2964              	.LBE1890:
  31:Src/Engine/engine.cpp **** 	for (int i = 0; i < MidiPort::NUM_PORTS; ++i) {
 2965              		.loc 1 31 37 view .LVU1124
 2966 0006 10B4     		push	{r4}
 2967              		.cfi_def_cfa_offset 4
 2968              		.cfi_offset 4, -4
 2969              	.LBB1891:
 2970              		.loc 1 33 3 view .LVU1125
 2971 0008 995C     		ldrb	r1, [r3, r2]	@ zero_extendqisi2
ARM GAS  /var/folders/84/_x1cyy_j36g486tldtwl37280000gn/T//ccZ8X9jg.s 			page 83


 2972 000a 59B1     		cbz	r1, .L92
  34:Src/Engine/engine.cpp **** 			midiPort.send_clock_message(i, MidiEvent::CLOCK_STOP);
 2973              		.loc 1 34 4 is_stmt 1 view .LVU1126
 2974              	.LVL122:
 2975              	.LBB1870:
 2976              	.LBI1870:
  49:Src/Engine/midiPort.h **** 		buffer_[port].clock_out_que.write(message);
 2977              		.loc 5 49 7 view .LVU1127
 2978              	.LBB1871:
 2979              		.loc 5 50 3 view .LVU1128
 2980              	.LBB1872:
 2981              	.LBI1872:
  37:/Users/joostbooy/Desktop/Code/stm32/lib/utils/que.h **** 		size_t pos = write_pos_;
 2982              		.loc 2 37 14 view .LVU1129
 2983              	.LBB1873:
  38:/Users/joostbooy/Desktop/Code/stm32/lib/utils/que.h **** 		data[pos] = value;
 2984              		.loc 2 38 10 is_stmt 0 view .LVU1130
 2985 000c D0F85C42 		ldr	r4, [r0, #604]
 2986              	.LVL123:
  39:/Users/joostbooy/Desktop/Code/stm32/lib/utils/que.h **** 		write_pos_ = (pos + 1) % kMaxSize;
 2987              		.loc 2 39 3 view .LVU1131
 2988 0010 0119     		adds	r1, r0, r4
 2989              		.loc 2 40 21 view .LVU1132
 2990 0012 0134     		adds	r4, r4, #1
 2991              	.LVL124:
 2992              		.loc 2 40 26 view .LVU1133
 2993 0014 04F00702 		and	r2, r4, #7
  39:/Users/joostbooy/Desktop/Code/stm32/lib/utils/que.h **** 		write_pos_ = (pos + 1) % kMaxSize;
 2994              		.loc 2 39 3 view .LVU1134
 2995 0018 4FF0FC0C 		mov	ip, #252
 2996 001c 81F864C2 		strb	ip, [r1, #612]
 2997              		.loc 2 40 3 view .LVU1135
 2998 0020 C0F85C22 		str	r2, [r0, #604]
 2999              	.LVL125:
 3000              	.L92:
 3001              		.loc 2 40 3 view .LVU1136
 3002              	.LBE1873:
 3003              	.LBE1872:
 3004              	.LBE1871:
 3005              	.LBE1870:
  32:Src/Engine/engine.cpp **** 		if (settings.midiOutput(i).send_clock()) {
 3006              		.loc 1 32 2 is_stmt 1 view .LVU1137
  32:Src/Engine/engine.cpp **** 		if (settings.midiOutput(i).send_clock()) {
 3007              		.loc 1 32 20 view .LVU1138
  33:Src/Engine/engine.cpp **** 			midiPort.send_clock_message(i, MidiEvent::CLOCK_STOP);
 3008              		.loc 1 33 3 view .LVU1139
  33:Src/Engine/engine.cpp **** 			midiPort.send_clock_message(i, MidiEvent::CLOCK_STOP);
 3009              		.loc 1 33 3 is_stmt 0 view .LVU1140
 3010              	.LBE1891:
 3011              		.loc 14 34 3 is_stmt 1 view .LVU1141
 3012              		.loc 25 17 3 view .LVU1142
 3013              	.LBB1892:
  33:Src/Engine/engine.cpp **** 			midiPort.send_clock_message(i, MidiEvent::CLOCK_STOP);
 3014              		.loc 1 33 40 is_stmt 0 view .LVU1143
 3015 0024 42F24E04 		movw	r4, #8270
  33:Src/Engine/engine.cpp **** 			midiPort.send_clock_message(i, MidiEvent::CLOCK_STOP);
 3016              		.loc 1 33 3 view .LVU1144
ARM GAS  /var/folders/84/_x1cyy_j36g486tldtwl37280000gn/T//ccZ8X9jg.s 			page 84


 3017 0028 195D     		ldrb	r1, [r3, r4]	@ zero_extendqisi2
 3018 002a 59B1     		cbz	r1, .L93
 3019              		.loc 1 34 4 is_stmt 1 view .LVU1145
 3020              	.LVL126:
 3021              	.LBB1886:
  49:Src/Engine/midiPort.h **** 		buffer_[port].clock_out_que.write(message);
 3022              		.loc 5 49 7 view .LVU1146
 3023              	.LBB1882:
 3024              		.loc 5 50 3 view .LVU1147
 3025              	.LBB1878:
  37:/Users/joostbooy/Desktop/Code/stm32/lib/utils/que.h **** 		size_t pos = write_pos_;
 3026              		.loc 2 37 14 view .LVU1148
 3027              	.LBB1874:
  38:/Users/joostbooy/Desktop/Code/stm32/lib/utils/que.h **** 		data[pos] = value;
 3028              		.loc 2 38 10 is_stmt 0 view .LVU1149
 3029 002c D0F8D824 		ldr	r2, [r0, #1240]
 3030              	.LVL127:
  39:/Users/joostbooy/Desktop/Code/stm32/lib/utils/que.h **** 		write_pos_ = (pos + 1) % kMaxSize;
 3031              		.loc 2 39 3 view .LVU1150
 3032 0030 8118     		adds	r1, r0, r2
 3033              		.loc 2 40 21 view .LVU1151
 3034 0032 0132     		adds	r2, r2, #1
 3035              	.LVL128:
 3036              		.loc 2 40 26 view .LVU1152
 3037 0034 02F00702 		and	r2, r2, #7
 3038              	.LVL129:
  39:/Users/joostbooy/Desktop/Code/stm32/lib/utils/que.h **** 		write_pos_ = (pos + 1) % kMaxSize;
 3039              		.loc 2 39 3 view .LVU1153
 3040 0038 4FF0FC0C 		mov	ip, #252
 3041 003c 81F8E0C4 		strb	ip, [r1, #1248]
 3042              		.loc 2 40 3 view .LVU1154
 3043 0040 C0F8D824 		str	r2, [r0, #1240]
 3044              	.LVL130:
 3045              	.L93:
 3046              		.loc 2 40 3 view .LVU1155
 3047              	.LBE1874:
 3048              	.LBE1878:
 3049              	.LBE1882:
 3050              	.LBE1886:
  32:Src/Engine/engine.cpp **** 		if (settings.midiOutput(i).send_clock()) {
 3051              		.loc 1 32 2 is_stmt 1 view .LVU1156
  32:Src/Engine/engine.cpp **** 		if (settings.midiOutput(i).send_clock()) {
 3052              		.loc 1 32 20 view .LVU1157
  33:Src/Engine/engine.cpp **** 			midiPort.send_clock_message(i, MidiEvent::CLOCK_STOP);
 3053              		.loc 1 33 3 view .LVU1158
  33:Src/Engine/engine.cpp **** 			midiPort.send_clock_message(i, MidiEvent::CLOCK_STOP);
 3054              		.loc 1 33 3 is_stmt 0 view .LVU1159
 3055              	.LBE1892:
 3056              		.loc 14 34 3 is_stmt 1 view .LVU1160
 3057              		.loc 25 17 3 view .LVU1161
 3058              	.LBB1893:
  33:Src/Engine/engine.cpp **** 			midiPort.send_clock_message(i, MidiEvent::CLOCK_STOP);
 3059              		.loc 1 33 40 is_stmt 0 view .LVU1162
 3060 0044 42F25004 		movw	r4, #8272
  33:Src/Engine/engine.cpp **** 			midiPort.send_clock_message(i, MidiEvent::CLOCK_STOP);
 3061              		.loc 1 33 3 view .LVU1163
 3062 0048 195D     		ldrb	r1, [r3, r4]	@ zero_extendqisi2
ARM GAS  /var/folders/84/_x1cyy_j36g486tldtwl37280000gn/T//ccZ8X9jg.s 			page 85


 3063 004a 59B1     		cbz	r1, .L94
 3064              		.loc 1 34 4 is_stmt 1 view .LVU1164
 3065              	.LVL131:
 3066              	.LBB1887:
  49:Src/Engine/midiPort.h **** 		buffer_[port].clock_out_que.write(message);
 3067              		.loc 5 49 7 view .LVU1165
 3068              	.LBB1883:
 3069              		.loc 5 50 3 view .LVU1166
 3070              	.LBB1879:
  37:/Users/joostbooy/Desktop/Code/stm32/lib/utils/que.h **** 		size_t pos = write_pos_;
 3071              		.loc 2 37 14 view .LVU1167
 3072              	.LBB1875:
  38:/Users/joostbooy/Desktop/Code/stm32/lib/utils/que.h **** 		data[pos] = value;
 3073              		.loc 2 38 10 is_stmt 0 view .LVU1168
 3074 004c D0F85427 		ldr	r2, [r0, #1876]
 3075              	.LVL132:
  39:/Users/joostbooy/Desktop/Code/stm32/lib/utils/que.h **** 		write_pos_ = (pos + 1) % kMaxSize;
 3076              		.loc 2 39 3 view .LVU1169
 3077 0050 8118     		adds	r1, r0, r2
 3078              		.loc 2 40 21 view .LVU1170
 3079 0052 0132     		adds	r2, r2, #1
 3080              	.LVL133:
 3081              		.loc 2 40 26 view .LVU1171
 3082 0054 02F00702 		and	r2, r2, #7
 3083              	.LVL134:
  39:/Users/joostbooy/Desktop/Code/stm32/lib/utils/que.h **** 		write_pos_ = (pos + 1) % kMaxSize;
 3084              		.loc 2 39 3 view .LVU1172
 3085 0058 4FF0FC0C 		mov	ip, #252
 3086 005c 81F85CC7 		strb	ip, [r1, #1884]
 3087              		.loc 2 40 3 view .LVU1173
 3088 0060 C0F85427 		str	r2, [r0, #1876]
 3089              	.LVL135:
 3090              	.L94:
 3091              		.loc 2 40 3 view .LVU1174
 3092              	.LBE1875:
 3093              	.LBE1879:
 3094              	.LBE1883:
 3095              	.LBE1887:
  32:Src/Engine/engine.cpp **** 		if (settings.midiOutput(i).send_clock()) {
 3096              		.loc 1 32 2 is_stmt 1 view .LVU1175
  32:Src/Engine/engine.cpp **** 		if (settings.midiOutput(i).send_clock()) {
 3097              		.loc 1 32 20 view .LVU1176
  33:Src/Engine/engine.cpp **** 			midiPort.send_clock_message(i, MidiEvent::CLOCK_STOP);
 3098              		.loc 1 33 3 view .LVU1177
  33:Src/Engine/engine.cpp **** 			midiPort.send_clock_message(i, MidiEvent::CLOCK_STOP);
 3099              		.loc 1 33 3 is_stmt 0 view .LVU1178
 3100              	.LBE1893:
 3101              		.loc 14 34 3 is_stmt 1 view .LVU1179
 3102              		.loc 25 17 3 view .LVU1180
 3103              	.LBB1894:
  33:Src/Engine/engine.cpp **** 			midiPort.send_clock_message(i, MidiEvent::CLOCK_STOP);
 3104              		.loc 1 33 40 is_stmt 0 view .LVU1181
 3105 0064 42F25204 		movw	r4, #8274
  33:Src/Engine/engine.cpp **** 			midiPort.send_clock_message(i, MidiEvent::CLOCK_STOP);
 3106              		.loc 1 33 3 view .LVU1182
 3107 0068 195D     		ldrb	r1, [r3, r4]	@ zero_extendqisi2
 3108 006a 59B1     		cbz	r1, .L95
ARM GAS  /var/folders/84/_x1cyy_j36g486tldtwl37280000gn/T//ccZ8X9jg.s 			page 86


 3109              		.loc 1 34 4 is_stmt 1 view .LVU1183
 3110              	.LVL136:
 3111              	.LBB1888:
  49:Src/Engine/midiPort.h **** 		buffer_[port].clock_out_que.write(message);
 3112              		.loc 5 49 7 view .LVU1184
 3113              	.LBB1884:
 3114              		.loc 5 50 3 view .LVU1185
 3115              	.LBB1880:
  37:/Users/joostbooy/Desktop/Code/stm32/lib/utils/que.h **** 		size_t pos = write_pos_;
 3116              		.loc 2 37 14 view .LVU1186
 3117              	.LBB1876:
  38:/Users/joostbooy/Desktop/Code/stm32/lib/utils/que.h **** 		data[pos] = value;
 3118              		.loc 2 38 10 is_stmt 0 view .LVU1187
 3119 006c D0F8D029 		ldr	r2, [r0, #2512]
 3120              	.LVL137:
  39:/Users/joostbooy/Desktop/Code/stm32/lib/utils/que.h **** 		write_pos_ = (pos + 1) % kMaxSize;
 3121              		.loc 2 39 3 view .LVU1188
 3122 0070 8118     		adds	r1, r0, r2
 3123              		.loc 2 40 21 view .LVU1189
 3124 0072 0132     		adds	r2, r2, #1
 3125              	.LVL138:
 3126              		.loc 2 40 26 view .LVU1190
 3127 0074 02F00702 		and	r2, r2, #7
 3128              	.LVL139:
  39:/Users/joostbooy/Desktop/Code/stm32/lib/utils/que.h **** 		write_pos_ = (pos + 1) % kMaxSize;
 3129              		.loc 2 39 3 view .LVU1191
 3130 0078 4FF0FC0C 		mov	ip, #252
 3131 007c 81F8D8C9 		strb	ip, [r1, #2520]
 3132              		.loc 2 40 3 view .LVU1192
 3133 0080 C0F8D029 		str	r2, [r0, #2512]
 3134              	.LVL140:
 3135              	.L95:
 3136              		.loc 2 40 3 view .LVU1193
 3137              	.LBE1876:
 3138              	.LBE1880:
 3139              	.LBE1884:
 3140              	.LBE1888:
  32:Src/Engine/engine.cpp **** 		if (settings.midiOutput(i).send_clock()) {
 3141              		.loc 1 32 2 is_stmt 1 view .LVU1194
  32:Src/Engine/engine.cpp **** 		if (settings.midiOutput(i).send_clock()) {
 3142              		.loc 1 32 20 view .LVU1195
  33:Src/Engine/engine.cpp **** 			midiPort.send_clock_message(i, MidiEvent::CLOCK_STOP);
 3143              		.loc 1 33 3 view .LVU1196
  33:Src/Engine/engine.cpp **** 			midiPort.send_clock_message(i, MidiEvent::CLOCK_STOP);
 3144              		.loc 1 33 3 is_stmt 0 view .LVU1197
 3145              	.LBE1894:
 3146              		.loc 14 34 3 is_stmt 1 view .LVU1198
 3147              		.loc 25 17 3 view .LVU1199
 3148              	.LBB1895:
  33:Src/Engine/engine.cpp **** 			midiPort.send_clock_message(i, MidiEvent::CLOCK_STOP);
 3149              		.loc 1 33 40 is_stmt 0 view .LVU1200
 3150 0084 42F25404 		movw	r4, #8276
  33:Src/Engine/engine.cpp **** 			midiPort.send_clock_message(i, MidiEvent::CLOCK_STOP);
 3151              		.loc 1 33 3 view .LVU1201
 3152 0088 1B5D     		ldrb	r3, [r3, r4]	@ zero_extendqisi2
 3153 008a 53B1     		cbz	r3, .L91
 3154              		.loc 1 34 4 is_stmt 1 view .LVU1202
ARM GAS  /var/folders/84/_x1cyy_j36g486tldtwl37280000gn/T//ccZ8X9jg.s 			page 87


 3155              	.LVL141:
 3156              	.LBB1889:
  49:Src/Engine/midiPort.h **** 		buffer_[port].clock_out_que.write(message);
 3157              		.loc 5 49 7 view .LVU1203
 3158              	.LBB1885:
 3159              		.loc 5 50 3 view .LVU1204
 3160              	.LBB1881:
  37:/Users/joostbooy/Desktop/Code/stm32/lib/utils/que.h **** 		size_t pos = write_pos_;
 3161              		.loc 2 37 14 view .LVU1205
 3162              	.LBB1877:
  38:/Users/joostbooy/Desktop/Code/stm32/lib/utils/que.h **** 		data[pos] = value;
 3163              		.loc 2 38 10 is_stmt 0 view .LVU1206
 3164 008c D0F84C1C 		ldr	r1, [r0, #3148]
 3165              	.LVL142:
  39:/Users/joostbooy/Desktop/Code/stm32/lib/utils/que.h **** 		write_pos_ = (pos + 1) % kMaxSize;
 3166              		.loc 2 39 3 view .LVU1207
 3167 0090 4218     		adds	r2, r0, r1
 3168              		.loc 2 40 21 view .LVU1208
 3169 0092 0131     		adds	r1, r1, #1
 3170              	.LVL143:
 3171              		.loc 2 40 26 view .LVU1209
 3172 0094 01F00704 		and	r4, r1, #7
  39:/Users/joostbooy/Desktop/Code/stm32/lib/utils/que.h **** 		write_pos_ = (pos + 1) % kMaxSize;
 3173              		.loc 2 39 3 view .LVU1210
 3174 0098 FC23     		movs	r3, #252
 3175 009a 82F8543C 		strb	r3, [r2, #3156]
 3176              		.loc 2 40 3 view .LVU1211
 3177 009e C0F84C4C 		str	r4, [r0, #3148]
 3178              	.LVL144:
 3179              		.loc 2 40 3 view .LVU1212
 3180              	.LBE1877:
 3181              	.LBE1881:
 3182              	.LBE1885:
 3183              	.LBE1889:
  32:Src/Engine/engine.cpp **** 		if (settings.midiOutput(i).send_clock()) {
 3184              		.loc 1 32 2 is_stmt 1 view .LVU1213
  32:Src/Engine/engine.cpp **** 		if (settings.midiOutput(i).send_clock()) {
 3185              		.loc 1 32 20 view .LVU1214
 3186              	.L91:
  32:Src/Engine/engine.cpp **** 		if (settings.midiOutput(i).send_clock()) {
 3187              		.loc 1 32 20 is_stmt 0 view .LVU1215
 3188              	.LBE1895:
  35:Src/Engine/engine.cpp **** 		}
  36:Src/Engine/engine.cpp **** 	}
  37:Src/Engine/engine.cpp **** }
 3189              		.loc 1 37 1 view .LVU1216
 3190 00a2 5DF8044B 		ldr	r4, [sp], #4
 3191              		.cfi_restore 4
 3192              		.cfi_def_cfa_offset 0
 3193 00a6 7047     		bx	lr
 3194              	.L114:
 3195              		.align	2
 3196              	.L113:
 3197 00a8 00000000 		.word	settings
 3198              		.cfi_endproc
 3199              	.LFE2902:
 3201              		.section	.text._ZN6Engine24send_midi_clock_continueEv,"ax",%progbits
ARM GAS  /var/folders/84/_x1cyy_j36g486tldtwl37280000gn/T//ccZ8X9jg.s 			page 88


 3202              		.align	1
 3203              		.p2align 2,,3
 3204              		.global	_ZN6Engine24send_midi_clock_continueEv
 3205              		.syntax unified
 3206              		.thumb
 3207              		.thumb_func
 3208              		.fpu fpv4-sp-d16
 3210              	_ZN6Engine24send_midi_clock_continueEv:
 3211              	.LVL145:
 3212              	.LFB2903:
  38:Src/Engine/engine.cpp **** 
  39:Src/Engine/engine.cpp **** void Engine::send_midi_clock_continue() {
 3213              		.loc 1 39 41 is_stmt 1 view -0
 3214              		.cfi_startproc
 3215              		@ args = 0, pretend = 0, frame = 0
 3216              		@ frame_needed = 0, uses_anonymous_args = 0
 3217              		@ link register save eliminated.
  40:Src/Engine/engine.cpp **** 	for (int i = 0; i < MidiPort::NUM_PORTS; ++i) {
 3218              		.loc 1 40 2 view .LVU1218
 3219              	.LBB1896:
 3220              		.loc 1 40 20 view .LVU1219
  41:Src/Engine/engine.cpp **** 		if (settings.midiOutput(i).send_clock()) {
 3221              		.loc 1 41 3 view .LVU1220
 3222              		.loc 1 41 3 is_stmt 0 view .LVU1221
 3223              	.LBE1896:
 3224              		.loc 14 34 3 is_stmt 1 view .LVU1222
 3225              		.loc 25 17 3 view .LVU1223
 3226              	.LBB1917:
 3227              		.loc 1 41 40 is_stmt 0 view .LVU1224
 3228 0000 294B     		ldr	r3, .L137
 3229 0002 42F24C02 		movw	r2, #8268
 3230              	.LBE1917:
  39:Src/Engine/engine.cpp **** 	for (int i = 0; i < MidiPort::NUM_PORTS; ++i) {
 3231              		.loc 1 39 41 view .LVU1225
 3232 0006 10B4     		push	{r4}
 3233              		.cfi_def_cfa_offset 4
 3234              		.cfi_offset 4, -4
 3235              	.LBB1918:
 3236              		.loc 1 41 3 view .LVU1226
 3237 0008 995C     		ldrb	r1, [r3, r2]	@ zero_extendqisi2
 3238 000a 59B1     		cbz	r1, .L116
  42:Src/Engine/engine.cpp **** 			midiPort.send_clock_message(i, MidiEvent::CLOCK_CONTINUE);
 3239              		.loc 1 42 4 is_stmt 1 view .LVU1227
 3240              	.LVL146:
 3241              	.LBB1897:
 3242              	.LBI1897:
  49:Src/Engine/midiPort.h **** 		buffer_[port].clock_out_que.write(message);
 3243              		.loc 5 49 7 view .LVU1228
 3244              	.LBB1898:
 3245              		.loc 5 50 3 view .LVU1229
 3246              	.LBB1899:
 3247              	.LBI1899:
  37:/Users/joostbooy/Desktop/Code/stm32/lib/utils/que.h **** 		size_t pos = write_pos_;
 3248              		.loc 2 37 14 view .LVU1230
 3249              	.LBB1900:
  38:/Users/joostbooy/Desktop/Code/stm32/lib/utils/que.h **** 		data[pos] = value;
 3250              		.loc 2 38 10 is_stmt 0 view .LVU1231
ARM GAS  /var/folders/84/_x1cyy_j36g486tldtwl37280000gn/T//ccZ8X9jg.s 			page 89


 3251 000c D0F85C42 		ldr	r4, [r0, #604]
 3252              	.LVL147:
  39:/Users/joostbooy/Desktop/Code/stm32/lib/utils/que.h **** 		write_pos_ = (pos + 1) % kMaxSize;
 3253              		.loc 2 39 3 view .LVU1232
 3254 0010 0119     		adds	r1, r0, r4
 3255              		.loc 2 40 21 view .LVU1233
 3256 0012 0134     		adds	r4, r4, #1
 3257              	.LVL148:
 3258              		.loc 2 40 26 view .LVU1234
 3259 0014 04F00702 		and	r2, r4, #7
  39:/Users/joostbooy/Desktop/Code/stm32/lib/utils/que.h **** 		write_pos_ = (pos + 1) % kMaxSize;
 3260              		.loc 2 39 3 view .LVU1235
 3261 0018 4FF0FB0C 		mov	ip, #251
 3262 001c 81F864C2 		strb	ip, [r1, #612]
 3263              		.loc 2 40 3 view .LVU1236
 3264 0020 C0F85C22 		str	r2, [r0, #604]
 3265              	.LVL149:
 3266              	.L116:
 3267              		.loc 2 40 3 view .LVU1237
 3268              	.LBE1900:
 3269              	.LBE1899:
 3270              	.LBE1898:
 3271              	.LBE1897:
  40:Src/Engine/engine.cpp **** 		if (settings.midiOutput(i).send_clock()) {
 3272              		.loc 1 40 2 is_stmt 1 view .LVU1238
  40:Src/Engine/engine.cpp **** 		if (settings.midiOutput(i).send_clock()) {
 3273              		.loc 1 40 20 view .LVU1239
  41:Src/Engine/engine.cpp **** 			midiPort.send_clock_message(i, MidiEvent::CLOCK_CONTINUE);
 3274              		.loc 1 41 3 view .LVU1240
  41:Src/Engine/engine.cpp **** 			midiPort.send_clock_message(i, MidiEvent::CLOCK_CONTINUE);
 3275              		.loc 1 41 3 is_stmt 0 view .LVU1241
 3276              	.LBE1918:
 3277              		.loc 14 34 3 is_stmt 1 view .LVU1242
 3278              		.loc 25 17 3 view .LVU1243
 3279              	.LBB1919:
  41:Src/Engine/engine.cpp **** 			midiPort.send_clock_message(i, MidiEvent::CLOCK_CONTINUE);
 3280              		.loc 1 41 40 is_stmt 0 view .LVU1244
 3281 0024 42F24E04 		movw	r4, #8270
  41:Src/Engine/engine.cpp **** 			midiPort.send_clock_message(i, MidiEvent::CLOCK_CONTINUE);
 3282              		.loc 1 41 3 view .LVU1245
 3283 0028 195D     		ldrb	r1, [r3, r4]	@ zero_extendqisi2
 3284 002a 59B1     		cbz	r1, .L117
 3285              		.loc 1 42 4 is_stmt 1 view .LVU1246
 3286              	.LVL150:
 3287              	.LBB1913:
  49:Src/Engine/midiPort.h **** 		buffer_[port].clock_out_que.write(message);
 3288              		.loc 5 49 7 view .LVU1247
 3289              	.LBB1909:
 3290              		.loc 5 50 3 view .LVU1248
 3291              	.LBB1905:
  37:/Users/joostbooy/Desktop/Code/stm32/lib/utils/que.h **** 		size_t pos = write_pos_;
 3292              		.loc 2 37 14 view .LVU1249
 3293              	.LBB1901:
  38:/Users/joostbooy/Desktop/Code/stm32/lib/utils/que.h **** 		data[pos] = value;
 3294              		.loc 2 38 10 is_stmt 0 view .LVU1250
 3295 002c D0F8D824 		ldr	r2, [r0, #1240]
 3296              	.LVL151:
ARM GAS  /var/folders/84/_x1cyy_j36g486tldtwl37280000gn/T//ccZ8X9jg.s 			page 90


  39:/Users/joostbooy/Desktop/Code/stm32/lib/utils/que.h **** 		write_pos_ = (pos + 1) % kMaxSize;
 3297              		.loc 2 39 3 view .LVU1251
 3298 0030 8118     		adds	r1, r0, r2
 3299              		.loc 2 40 21 view .LVU1252
 3300 0032 0132     		adds	r2, r2, #1
 3301              	.LVL152:
 3302              		.loc 2 40 26 view .LVU1253
 3303 0034 02F00702 		and	r2, r2, #7
 3304              	.LVL153:
  39:/Users/joostbooy/Desktop/Code/stm32/lib/utils/que.h **** 		write_pos_ = (pos + 1) % kMaxSize;
 3305              		.loc 2 39 3 view .LVU1254
 3306 0038 4FF0FB0C 		mov	ip, #251
 3307 003c 81F8E0C4 		strb	ip, [r1, #1248]
 3308              		.loc 2 40 3 view .LVU1255
 3309 0040 C0F8D824 		str	r2, [r0, #1240]
 3310              	.LVL154:
 3311              	.L117:
 3312              		.loc 2 40 3 view .LVU1256
 3313              	.LBE1901:
 3314              	.LBE1905:
 3315              	.LBE1909:
 3316              	.LBE1913:
  40:Src/Engine/engine.cpp **** 		if (settings.midiOutput(i).send_clock()) {
 3317              		.loc 1 40 2 is_stmt 1 view .LVU1257
  40:Src/Engine/engine.cpp **** 		if (settings.midiOutput(i).send_clock()) {
 3318              		.loc 1 40 20 view .LVU1258
  41:Src/Engine/engine.cpp **** 			midiPort.send_clock_message(i, MidiEvent::CLOCK_CONTINUE);
 3319              		.loc 1 41 3 view .LVU1259
  41:Src/Engine/engine.cpp **** 			midiPort.send_clock_message(i, MidiEvent::CLOCK_CONTINUE);
 3320              		.loc 1 41 3 is_stmt 0 view .LVU1260
 3321              	.LBE1919:
 3322              		.loc 14 34 3 is_stmt 1 view .LVU1261
 3323              		.loc 25 17 3 view .LVU1262
 3324              	.LBB1920:
  41:Src/Engine/engine.cpp **** 			midiPort.send_clock_message(i, MidiEvent::CLOCK_CONTINUE);
 3325              		.loc 1 41 40 is_stmt 0 view .LVU1263
 3326 0044 42F25004 		movw	r4, #8272
