ARM GAS  /var/folders/84/_x1cyy_j36g486tldtwl37280000gn/T//ccPhpwIV.s 			page 1


   1              		.cpu cortex-m4
   2              		.eabi_attribute 27, 1
   3              		.eabi_attribute 28, 1
   4              		.eabi_attribute 20, 1
   5              		.eabi_attribute 21, 1
   6              		.eabi_attribute 23, 3
   7              		.eabi_attribute 24, 1
   8              		.eabi_attribute 25, 1
   9              		.eabi_attribute 26, 1
  10              		.eabi_attribute 30, 2
  11              		.eabi_attribute 34, 1
  12              		.eabi_attribute 18, 4
  13              		.file	"font.cpp"
  14              		.text
  15              	.Ltext0:
  16              		.cfi_sections	.debug_frame
  17              		.section	.text._ZN4Font8set_typeENS_4TypeE,"ax",%progbits
  18              		.align	1
  19              		.p2align 2,,3
  20              		.global	_ZN4Font8set_typeENS_4TypeE
  21              		.arch armv7e-m
  22              		.syntax unified
  23              		.thumb
  24              		.thumb_func
  25              		.fpu fpv4-sp-d16
  27              	_ZN4Font8set_typeENS_4TypeE:
  28              	.LVL0:
  29              	.LFB1980:
  30              		.file 1 "LookupTables/font.cpp"
   1:LookupTables/font.cpp **** #include "font.h"
   2:LookupTables/font.cpp **** 
   3:LookupTables/font.cpp **** //Font Generated by MikroElektronika GLCD Font Creator 1.2.0.0
   4:LookupTables/font.cpp **** //MikroElektronika 2011
   5:LookupTables/font.cpp **** //http://www.mikroe.com
   6:LookupTables/font.cpp **** 
   7:LookupTables/font.cpp **** Font font;
   8:LookupTables/font.cpp **** 
   9:LookupTables/font.cpp **** static const uint8_t font_6x6[] = {
  10:LookupTables/font.cpp **** 	0x03, 0x00, 0x00, 0x00, 0x00, 0x00, 0x00,  // Code for char
  11:LookupTables/font.cpp **** 	0x01, 0x2E, 0x00, 0x00, 0x00, 0x00, 0x00,  // Code for char !
  12:LookupTables/font.cpp **** 	0x03, 0x06, 0x00, 0x06, 0x00, 0x00, 0x00,  // Code for char "
  13:LookupTables/font.cpp **** 	0x05, 0x14, 0x3E, 0x14, 0x3E, 0x14, 0x00,  // Code for char #
  14:LookupTables/font.cpp **** 	0x05, 0x24, 0x2A, 0x3E, 0x2A, 0x12, 0x00,  // Code for char $
  15:LookupTables/font.cpp **** 	0x05, 0x22, 0x10, 0x08, 0x04, 0x22, 0x00,  // Code for char %
  16:LookupTables/font.cpp **** 	0x04, 0x14, 0x2A, 0x14, 0x20, 0x00, 0x00,  // Code for char &
  17:LookupTables/font.cpp **** 	0x01, 0x06, 0x00, 0x00, 0x00, 0x00, 0x00,  // Code for char '
  18:LookupTables/font.cpp **** 	0x02, 0x1C, 0x22, 0x00, 0x00, 0x00, 0x00,  // Code for char (
  19:LookupTables/font.cpp **** 	0x02, 0x22, 0x1C, 0x00, 0x00, 0x00, 0x00,  // Code for char )
  20:LookupTables/font.cpp **** 	0x03, 0x0A, 0x04, 0x0A, 0x00, 0x00, 0x00,  // Code for char *
  21:LookupTables/font.cpp **** 	0x03, 0x10, 0x38, 0x10, 0x00, 0x00, 0x00,  // Code for char +
  22:LookupTables/font.cpp **** 	0x02, 0x20, 0x10, 0x00, 0x00, 0x00, 0x00,  // Code for char ,
  23:LookupTables/font.cpp **** 	0x02, 0x10, 0x10, 0x00, 0x00, 0x00, 0x00,  // Code for char -
  24:LookupTables/font.cpp **** 	0x01, 0x20, 0x00, 0x00, 0x00, 0x00, 0x00,  // Code for char .
  25:LookupTables/font.cpp **** 	0x04, 0x20, 0x10, 0x08, 0x04, 0x00, 0x00,  // Code for char /
  26:LookupTables/font.cpp **** 	0x03, 0x3E, 0x22, 0x3E, 0x00, 0x00, 0x00,  // Code for char 0
  27:LookupTables/font.cpp **** 	0x02, 0x04, 0x3E, 0x00, 0x00, 0x00, 0x00,  // Code for char 1
  28:LookupTables/font.cpp **** 	0x03, 0x3A, 0x2A, 0x2E, 0x00, 0x00, 0x00,  // Code for char 2
ARM GAS  /var/folders/84/_x1cyy_j36g486tldtwl37280000gn/T//ccPhpwIV.s 			page 2


  29:LookupTables/font.cpp **** 	0x03, 0x22, 0x2A, 0x3E, 0x00, 0x00, 0x00,  // Code for char 3
  30:LookupTables/font.cpp **** 	0x03, 0x0E, 0x08, 0x3E, 0x00, 0x00, 0x00,  // Code for char 4
  31:LookupTables/font.cpp **** 	0x03, 0x2E, 0x2A, 0x3A, 0x00, 0x00, 0x00,  // Code for char 5
  32:LookupTables/font.cpp **** 	0x03, 0x3E, 0x2A, 0x3A, 0x00, 0x00, 0x00,  // Code for char 6
  33:LookupTables/font.cpp **** 	0x03, 0x02, 0x02, 0x3E, 0x00, 0x00, 0x00,  // Code for char 7
  34:LookupTables/font.cpp **** 	0x03, 0x3E, 0x2A, 0x3E, 0x00, 0x00, 0x00,  // Code for char 8
  35:LookupTables/font.cpp **** 	0x03, 0x2E, 0x2A, 0x3E, 0x00, 0x00, 0x00,  // Code for char 9
  36:LookupTables/font.cpp **** 	0x01, 0x14, 0x00, 0x00, 0x00, 0x00, 0x00,  // Code for char :
  37:LookupTables/font.cpp **** 	0x02, 0x20, 0x14, 0x00, 0x00, 0x00, 0x00,  // Code for char ;
  38:LookupTables/font.cpp **** 	0x02, 0x08, 0x14, 0x00, 0x00, 0x00, 0x00,  // Code for char <
  39:LookupTables/font.cpp **** 	0x02, 0x14, 0x14, 0x00, 0x00, 0x00, 0x00,  // Code for char =
  40:LookupTables/font.cpp **** 	0x02, 0x14, 0x08, 0x00, 0x00, 0x00, 0x00,  // Code for char >
  41:LookupTables/font.cpp **** 	0x03, 0x02, 0x2A, 0x04, 0x00, 0x00, 0x00,  // Code for char ?
  42:LookupTables/font.cpp **** 	0x04, 0x1C, 0x22, 0x2A, 0x24, 0x00, 0x00,  // Code for char @
  43:LookupTables/font.cpp **** 	0x03, 0x3C, 0x0A, 0x3C, 0x00, 0x00, 0x00,  // Code for char A
  44:LookupTables/font.cpp **** 	0x03, 0x3E, 0x2A, 0x14, 0x00, 0x00, 0x00,  // Code for char B
  45:LookupTables/font.cpp **** 	0x03, 0x1C, 0x22, 0x22, 0x00, 0x00, 0x00,  // Code for char C
  46:LookupTables/font.cpp **** 	0x03, 0x3E, 0x22, 0x1C, 0x00, 0x00, 0x00,  // Code for char D
  47:LookupTables/font.cpp **** 	0x03, 0x3E, 0x2A, 0x22, 0x00, 0x00, 0x00,  // Code for char E
  48:LookupTables/font.cpp **** 	0x03, 0x3E, 0x0A, 0x02, 0x00, 0x00, 0x00,  // Code for char F
  49:LookupTables/font.cpp **** 	0x03, 0x3E, 0x22, 0x3A, 0x00, 0x00, 0x00,  // Code for char G
  50:LookupTables/font.cpp **** 	0x03, 0x3E, 0x08, 0x3E, 0x00, 0x00, 0x00,  // Code for char H
  51:LookupTables/font.cpp **** 	0x01, 0x3E, 0x00, 0x00, 0x00, 0x00, 0x00,  // Code for char I
  52:LookupTables/font.cpp **** 	0x03, 0x20, 0x20, 0x1E, 0x00, 0x00, 0x00,  // Code for char J
  53:LookupTables/font.cpp **** 	0x03, 0x3E, 0x08, 0x36, 0x00, 0x00, 0x00,  // Code for char K
  54:LookupTables/font.cpp **** 	0x03, 0x3E, 0x20, 0x20, 0x00, 0x00, 0x00,  // Code for char L
  55:LookupTables/font.cpp **** 	0x05, 0x3E, 0x02, 0x3C, 0x02, 0x3E, 0x00,  // Code for char M
  56:LookupTables/font.cpp **** 	0x04, 0x3E, 0x04, 0x08, 0x3E, 0x00, 0x00,  // Code for char N
  57:LookupTables/font.cpp **** 	0x03, 0x1C, 0x22, 0x1C, 0x00, 0x00, 0x00,  // Code for char O
  58:LookupTables/font.cpp **** 	0x03, 0x3E, 0x0A, 0x0E, 0x00, 0x00, 0x00,  // Code for char P
  59:LookupTables/font.cpp **** 	0x03, 0x1E, 0x32, 0x1E, 0x00, 0x00, 0x00,  // Code for char Q
  60:LookupTables/font.cpp **** 	0x03, 0x3E, 0x12, 0x2E, 0x00, 0x00, 0x00,  // Code for char R
  61:LookupTables/font.cpp **** 	0x03, 0x2E, 0x2A, 0x3A, 0x00, 0x00, 0x00,  // Code for char S
  62:LookupTables/font.cpp **** 	0x03, 0x02, 0x3E, 0x02, 0x00, 0x00, 0x00,  // Code for char T
  63:LookupTables/font.cpp **** 	0x03, 0x3E, 0x20, 0x3E, 0x00, 0x00, 0x00,  // Code for char U
  64:LookupTables/font.cpp **** 	0x03, 0x1E, 0x20, 0x1E, 0x00, 0x00, 0x00,  // Code for char V
  65:LookupTables/font.cpp **** 	0x05, 0x3E, 0x20, 0x1E, 0x20, 0x3E, 0x00,  // Code for char W
  66:LookupTables/font.cpp **** 	0x03, 0x36, 0x08, 0x36, 0x00, 0x00, 0x00,  // Code for char X
  67:LookupTables/font.cpp **** 	0x03, 0x06, 0x38, 0x06, 0x00, 0x00, 0x00,  // Code for char Y
  68:LookupTables/font.cpp **** 	0x03, 0x32, 0x2A, 0x26, 0x00, 0x00, 0x00,  // Code for char Z
  69:LookupTables/font.cpp **** 	0x02, 0x3E, 0x22, 0x00, 0x00, 0x00, 0x00,  // Code for char [
  70:LookupTables/font.cpp **** 	0x03, 0x08, 0x10, 0x20, 0x00, 0x00, 0x00,  // Code for char BackSlash
  71:LookupTables/font.cpp **** 	0x02, 0x22, 0x3E, 0x00, 0x00, 0x00, 0x00,  // Code for char ]
  72:LookupTables/font.cpp **** 	0x03, 0x04, 0x02, 0x04, 0x00, 0x00, 0x00,  // Code for char ^
  73:LookupTables/font.cpp **** 	0x03, 0x20, 0x20, 0x20, 0x00, 0x00, 0x00,  // Code for char _
  74:LookupTables/font.cpp **** 	0x02, 0x02, 0x04, 0x00, 0x00, 0x00, 0x00,  // Code for char `
  75:LookupTables/font.cpp **** 	0x03, 0x10, 0x2A, 0x3C, 0x00, 0x00, 0x00,  // Code for char a
  76:LookupTables/font.cpp **** 	0x03, 0x3E, 0x28, 0x10, 0x00, 0x00, 0x00,  // Code for char b
  77:LookupTables/font.cpp **** 	0x02, 0x18, 0x24, 0x00, 0x00, 0x00, 0x00,  // Code for char c
  78:LookupTables/font.cpp **** 	0x03, 0x10, 0x28, 0x3E, 0x00, 0x00, 0x00,  // Code for char d
  79:LookupTables/font.cpp **** 	0x03, 0x1C, 0x2A, 0x2C, 0x00, 0x00, 0x00,  // Code for char e
  80:LookupTables/font.cpp **** 	0x03, 0x38, 0x14, 0x04, 0x00, 0x00, 0x00,  // Code for char f
  81:LookupTables/font.cpp **** 	0x03, 0x2C, 0x2A, 0x1C, 0x00, 0x00, 0x00,  // Code for char g
  82:LookupTables/font.cpp **** 	0x03, 0x3E, 0x08, 0x30, 0x00, 0x00, 0x00,  // Code for char h
  83:LookupTables/font.cpp **** 	0x01, 0x34, 0x00, 0x00, 0x00, 0x00, 0x00,  // Code for char i
  84:LookupTables/font.cpp **** 	0x02, 0x20, 0x1A, 0x00, 0x00, 0x00, 0x00,  // Code for char j
  85:LookupTables/font.cpp **** 	0x03, 0x3E, 0x08, 0x34, 0x00, 0x00, 0x00,  // Code for char k
ARM GAS  /var/folders/84/_x1cyy_j36g486tldtwl37280000gn/T//ccPhpwIV.s 			page 3


  86:LookupTables/font.cpp **** 	0x01, 0x3C, 0x00, 0x00, 0x00, 0x00, 0x00,  // Code for char l
  87:LookupTables/font.cpp **** 	0x05, 0x3C, 0x04, 0x38, 0x04, 0x38, 0x00,  // Code for char m
  88:LookupTables/font.cpp **** 	0x03, 0x3C, 0x04, 0x38, 0x00, 0x00, 0x00,  // Code for char n
  89:LookupTables/font.cpp **** 	0x03, 0x18, 0x24, 0x18, 0x00, 0x00, 0x00,  // Code for char o
  90:LookupTables/font.cpp **** 	0x03, 0x3C, 0x14, 0x1C, 0x00, 0x00, 0x00,  // Code for char p
  91:LookupTables/font.cpp **** 	0x03, 0x0C, 0x12, 0x2C, 0x00, 0x00, 0x00,  // Code for char q
  92:LookupTables/font.cpp **** 	0x04, 0x3C, 0x08, 0x04, 0x08, 0x00, 0x00,  // Code for char r
  93:LookupTables/font.cpp **** 	0x03, 0x28, 0x34, 0x14, 0x00, 0x00, 0x00,  // Code for char s
  94:LookupTables/font.cpp **** 	0x02, 0x1C, 0x28, 0x00, 0x00, 0x00, 0x00,  // Code for char t
  95:LookupTables/font.cpp **** 	0x03, 0x3C, 0x20, 0x3C, 0x00, 0x00, 0x00,  // Code for char u
  96:LookupTables/font.cpp **** 	0x03, 0x1C, 0x20, 0x1C, 0x00, 0x00, 0x00,  // Code for char v
  97:LookupTables/font.cpp **** 	0x05, 0x1C, 0x20, 0x1C, 0x20, 0x1C, 0x00,  // Code for char w
  98:LookupTables/font.cpp **** 	0x03, 0x28, 0x10, 0x28, 0x00, 0x00, 0x00,  // Code for char x
  99:LookupTables/font.cpp **** 	0x03, 0x0C, 0x30, 0x0C, 0x00, 0x00, 0x00,  // Code for char y
 100:LookupTables/font.cpp **** 	0x03, 0x24, 0x34, 0x2C, 0x00, 0x00, 0x00,  // Code for char z
 101:LookupTables/font.cpp **** 	0x03, 0x08, 0x36, 0x22, 0x00, 0x00, 0x00,  // Code for char {
 102:LookupTables/font.cpp **** 	0x01, 0x3E, 0x00, 0x00, 0x00, 0x00, 0x00,  // Code for char |
 103:LookupTables/font.cpp **** 	0x03, 0x22, 0x36, 0x08, 0x00, 0x00, 0x00,  // Code for char }
 104:LookupTables/font.cpp **** 	0x05, 0x08, 0x04, 0x04, 0x08, 0x04, 0x00,  // Code for char ~
 105:LookupTables/font.cpp **** 	0x01, 0x00, 0x00, 0x00, 0x00, 0x00, 0x00,   // Code for char 
 106:LookupTables/font.cpp **** 	//Extended characters
 107:LookupTables/font.cpp **** 	0x05, 0x38, 0x3E, 0x39, 0x3E, 0x38, 0x00,  // Code for lock
 108:LookupTables/font.cpp **** 	0x05, 0x3F, 0x21, 0x21, 0x23, 0x3E, 0x00,  // Code for file
 109:LookupTables/font.cpp **** 	0x05, 0x10, 0x28, 0x1F, 0x02, 0x04, 0x00,  // Code for note
 110:LookupTables/font.cpp **** 	0x03, 0x08, 0x1C, 0x3E, 0x00, 0x00, 0x00,  // Code for arrow left
 111:LookupTables/font.cpp **** 	0x03, 0x3E, 0x1C, 0x08, 0x00, 0x00, 0x00,  // Code for arrow right
 112:LookupTables/font.cpp **** 	0x06, 0x3E, 0x22, 0x3E, 0x3E, 0x3E, 0x3E,  // Code for switch off
 113:LookupTables/font.cpp **** 	0x06, 0x3E, 0x3E, 0x3E, 0x3E, 0x22, 0x3E,  // Code for switch on
 114:LookupTables/font.cpp **** 	0x05, 0x10, 0x20, 0x10, 0x08, 0x04, 0x00,  // Code for checkmark
 115:LookupTables/font.cpp **** 	0x03, 0x28, 0x10, 0x28, 0x00, 0x00, 0x00,  // Code for cross
 116:LookupTables/font.cpp **** 	0x05, 0x3E, 0x00, 0x3E, 0x1C, 0x08, 0x00,  // Code for play
 117:LookupTables/font.cpp **** 	0x06, 0x38, 0x26, 0x21, 0x29, 0x26, 0x39,  // Code for metronome
 118:LookupTables/font.cpp **** 	0x03, 0x3E, 0x00, 0x3E, 0x00, 0x00, 0x00,  // Code for pause
 119:LookupTables/font.cpp **** 	0x05, 0x3E, 0x3E, 0x3E, 0x3E, 0x3E, 0x00,  // Code for stop
 120:LookupTables/font.cpp **** 	0x06, 0x0C, 0x1E, 0x3F, 0x3F, 0x1E, 0x0C,  // Code for filled circle
 121:LookupTables/font.cpp **** 	0x06, 0x0C, 0x12, 0x21, 0x21, 0x12, 0x0C,  // Code for cirle
 122:LookupTables/font.cpp **** 	0x05, 0x0C, 0x02, 0x0C, 0x10, 0x0C, 0x00,  // Code for sinewave
 123:LookupTables/font.cpp **** 	0x06, 0x3E, 0x22, 0x22, 0x22, 0x14, 0x08,  // Code for label
 124:LookupTables/font.cpp **** 	0x05, 0x3C, 0x22, 0x21, 0x21, 0x3F, 0x00,  // Code for sd card ok
 125:LookupTables/font.cpp **** 	0x06, 0x3C, 0x22, 0x01, 0x29, 0x17, 0x28,  // Code for no sd card
 126:LookupTables/font.cpp **** 	0x05, 0x3F, 0x3F, 0x29, 0x3F, 0x3F, 0x00,  // Code for char error
 127:LookupTables/font.cpp **** };
 128:LookupTables/font.cpp **** 
 129:LookupTables/font.cpp **** static const uint8_t font_8x8[] = {
 130:LookupTables/font.cpp **** 	0x05, 0x00, 0x00, 0x00, 0x00, 0x00, 0x00, 0x00, 0x00,  // Code for char
 131:LookupTables/font.cpp **** 	0x02, 0xDF, 0xDF, 0x00, 0x00, 0x00, 0x00, 0x00, 0x00,  // Code for char !
 132:LookupTables/font.cpp **** 	0x03, 0x07, 0x00, 0x07, 0x00, 0x00, 0x00, 0x00, 0x00,  // Code for char "
 133:LookupTables/font.cpp **** 	0x07, 0x66, 0xFF, 0xFF, 0x66, 0xFF, 0xFF, 0x66, 0x00,  // Code for char #
 134:LookupTables/font.cpp **** 	0x06, 0x48, 0x54, 0x54, 0xFE, 0x54, 0x24, 0x00, 0x00,  // Code for char $
 135:LookupTables/font.cpp **** 	0x07, 0xC2, 0x65, 0x32, 0x18, 0x4C, 0xA6, 0x43, 0x00,  // Code for char %
 136:LookupTables/font.cpp **** 	0x07, 0x76, 0xFF, 0xDB, 0xDB, 0xFF, 0x66, 0xB0, 0x00,  // Code for char &
 137:LookupTables/font.cpp **** 	0x02, 0x07, 0x07, 0x00, 0x00, 0x00, 0x00, 0x00, 0x00,  // Code for char '
 138:LookupTables/font.cpp **** 	0x04, 0x3C, 0x7E, 0xC3, 0x81, 0x00, 0x00, 0x00, 0x00,  // Code for char (
 139:LookupTables/font.cpp **** 	0x04, 0x81, 0xC3, 0x7E, 0x3C, 0x00, 0x00, 0x00, 0x00,  // Code for char )
 140:LookupTables/font.cpp **** 	0x05, 0x11, 0x0A, 0x04, 0x0A, 0x11, 0x00, 0x00, 0x00,  // Code for char *
 141:LookupTables/font.cpp **** 	0x06, 0x18, 0x18, 0x7E, 0x7E, 0x18, 0x18, 0x00, 0x00,  // Code for char +
 142:LookupTables/font.cpp **** 	0x03, 0xC0, 0xF0, 0x70, 0x00, 0x00, 0x00, 0x00, 0x00,  // Code for char ,
ARM GAS  /var/folders/84/_x1cyy_j36g486tldtwl37280000gn/T//ccPhpwIV.s 			page 4


 143:LookupTables/font.cpp **** 	0x06, 0x18, 0x18, 0x18, 0x18, 0x18, 0x18, 0x00, 0x00,  // Code for char -
 144:LookupTables/font.cpp **** 	0x02, 0xC0, 0xC0, 0x00, 0x00, 0x00, 0x00, 0x00, 0x00,  // Code for char .
 145:LookupTables/font.cpp **** 	0x06, 0xC0, 0x60, 0x30, 0x18, 0x0C, 0x06, 0x00, 0x00,  // Code for char /
 146:LookupTables/font.cpp **** 	0x06, 0x7E, 0xFF, 0xC3, 0xC3, 0xFF, 0x7E, 0x00, 0x00,  // Code for char 0
 147:LookupTables/font.cpp **** 	0x06, 0xC4, 0xC6, 0xFF, 0xFF, 0xC0, 0xC0, 0x00, 0x00,  // Code for char 1
 148:LookupTables/font.cpp **** 	0x06, 0xE6, 0xF7, 0xF3, 0xDB, 0xDF, 0xCE, 0x00, 0x00,  // Code for char 2
 149:LookupTables/font.cpp **** 	0x06, 0x66, 0xE7, 0xDB, 0xDB, 0xFF, 0x76, 0x00, 0x00,  // Code for char 3
 150:LookupTables/font.cpp **** 	0x06, 0x3F, 0x3F, 0x30, 0x30, 0xFF, 0xFF, 0x00, 0x00,  // Code for char 4
 151:LookupTables/font.cpp **** 	0x06, 0xCF, 0xDF, 0xDB, 0xDB, 0xFB, 0x73, 0x00, 0x00,  // Code for char 5
 152:LookupTables/font.cpp **** 	0x06, 0x7E, 0xFF, 0xDB, 0xDB, 0xFB, 0x70, 0x00, 0x00,  // Code for char 6
 153:LookupTables/font.cpp **** 	0x06, 0x03, 0xE3, 0xF3, 0x1B, 0x0F, 0x07, 0x00, 0x00,  // Code for char 7
 154:LookupTables/font.cpp **** 	0x06, 0x76, 0xFF, 0xDB, 0xDB, 0xFF, 0x76, 0x00, 0x00,  // Code for char 8
 155:LookupTables/font.cpp **** 	0x06, 0xCE, 0xDF, 0xDB, 0xDB, 0xFF, 0x7E, 0x00, 0x00,  // Code for char 9
 156:LookupTables/font.cpp **** 	0x02, 0xC3, 0xC3, 0x00, 0x00, 0x00, 0x00, 0x00, 0x00,  // Code for char :
 157:LookupTables/font.cpp **** 	0x03, 0xC0, 0xE6, 0x66, 0x00, 0x00, 0x00, 0x00, 0x00,  // Code for char ;
 158:LookupTables/font.cpp **** 	0x04, 0x10, 0x38, 0x6C, 0x44, 0x00, 0x00, 0x00, 0x00,  // Code for char <
 159:LookupTables/font.cpp **** 	0x04, 0x66, 0x66, 0x66, 0x66, 0x00, 0x00, 0x00, 0x00,  // Code for char =
 160:LookupTables/font.cpp **** 	0x04, 0x44, 0x6C, 0x38, 0x10, 0x00, 0x00, 0x00, 0x00,  // Code for char >
 161:LookupTables/font.cpp **** 	0x06, 0x06, 0x07, 0xDB, 0xDF, 0x0F, 0x06, 0x00, 0x00,  // Code for char ?
 162:LookupTables/font.cpp **** 	0x07, 0x3C, 0x42, 0x99, 0xA5, 0xBD, 0xA1, 0x3E, 0x00,  // Code for char @
 163:LookupTables/font.cpp **** 	0x06, 0xFE, 0xFF, 0x33, 0x33, 0xFF, 0xFE, 0x00, 0x00,  // Code for char A
 164:LookupTables/font.cpp **** 	0x06, 0xFF, 0xFF, 0xDB, 0xDB, 0xFF, 0x76, 0x00, 0x00,  // Code for char B
 165:LookupTables/font.cpp **** 	0x06, 0x7E, 0xFF, 0xC3, 0xC3, 0xE7, 0x66, 0x00, 0x00,  // Code for char C
 166:LookupTables/font.cpp **** 	0x06, 0xFF, 0xFF, 0xC3, 0xC3, 0xFF, 0x7E, 0x00, 0x00,  // Code for char D
 167:LookupTables/font.cpp **** 	0x06, 0xFF, 0xFF, 0xDB, 0xDB, 0xC3, 0xC3, 0x00, 0x00,  // Code for char E
 168:LookupTables/font.cpp **** 	0x06, 0xFF, 0xFF, 0x1B, 0x1B, 0x1B, 0x03, 0x00, 0x00,  // Code for char F
 169:LookupTables/font.cpp **** 	0x06, 0x7E, 0xFF, 0xC3, 0xDB, 0xFB, 0xFB, 0x00, 0x00,  // Code for char G
 170:LookupTables/font.cpp **** 	0x06, 0xFF, 0xFF, 0x18, 0x18, 0xFF, 0xFF, 0x00, 0x00,  // Code for char H
 171:LookupTables/font.cpp **** 	0x06, 0xC3, 0xC3, 0xFF, 0xFF, 0xC3, 0xC3, 0x00, 0x00,  // Code for char I
 172:LookupTables/font.cpp **** 	0x06, 0xC0, 0xC0, 0xC0, 0xC0, 0xFF, 0x7F, 0x00, 0x00,  // Code for char J
 173:LookupTables/font.cpp **** 	0x06, 0xFF, 0xFF, 0x18, 0x18, 0xF7, 0xE3, 0x00, 0x00,  // Code for char K
 174:LookupTables/font.cpp **** 	0x06, 0xFF, 0xFF, 0xC0, 0xC0, 0xC0, 0xC0, 0x00, 0x00,  // Code for char L
 175:LookupTables/font.cpp **** 	0x07, 0xFF, 0xFF, 0x0C, 0x18, 0x0C, 0xFF, 0xFF, 0x00,  // Code for char M
 176:LookupTables/font.cpp **** 	0x06, 0xFF, 0xFF, 0x0C, 0x18, 0xFF, 0xFF, 0x00, 0x00,  // Code for char N
 177:LookupTables/font.cpp **** 	0x06, 0x7E, 0xFF, 0xC3, 0xC3, 0xFF, 0x7E, 0x00, 0x00,  // Code for char O
 178:LookupTables/font.cpp **** 	0x06, 0xFF, 0xFF, 0x33, 0x33, 0x3F, 0x1E, 0x00, 0x00,  // Code for char P
 179:LookupTables/font.cpp **** 	0x06, 0x7E, 0xFF, 0xC3, 0xE3, 0xFF, 0xDE, 0x00, 0x00,  // Code for char Q
 180:LookupTables/font.cpp **** 	0x06, 0xFF, 0xFF, 0x33, 0x33, 0xFF, 0xEE, 0x00, 0x00,  // Code for char R
 181:LookupTables/font.cpp **** 	0x06, 0xCE, 0xDF, 0xDB, 0xDB, 0xFB, 0x73, 0x00, 0x00,  // Code for char S
 182:LookupTables/font.cpp **** 	0x06, 0x03, 0x03, 0xFF, 0xFF, 0x03, 0x03, 0x00, 0x00,  // Code for char T
 183:LookupTables/font.cpp **** 	0x06, 0x7F, 0xFF, 0xC0, 0xC0, 0xFF, 0x7F, 0x00, 0x00,  // Code for char U
 184:LookupTables/font.cpp **** 	0x06, 0x3F, 0x7F, 0xC0, 0xC0, 0x7F, 0x3F, 0x00, 0x00,  // Code for char V
 185:LookupTables/font.cpp **** 	0x07, 0xFF, 0xFF, 0x60, 0x30, 0x60, 0xFF, 0xFF, 0x00,  // Code for char W
 186:LookupTables/font.cpp **** 	0x07, 0xC3, 0xE7, 0x3C, 0x18, 0x3C, 0xE7, 0xC3, 0x00,  // Code for char X
 187:LookupTables/font.cpp **** 	0x06, 0x0F, 0x1F, 0xF8, 0xF8, 0x1F, 0x0F, 0x00, 0x00,  // Code for char Y
 188:LookupTables/font.cpp **** 	0x06, 0xE3, 0xF3, 0xDB, 0xDB, 0xCF, 0xC7, 0x00, 0x00,  // Code for char Z
 189:LookupTables/font.cpp **** 	0x04, 0xFF, 0xFF, 0x81, 0x81, 0x00, 0x00, 0x00, 0x00,  // Code for char [
 190:LookupTables/font.cpp **** 	0x06, 0x06, 0x0C, 0x18, 0x30, 0x60, 0xC0, 0x00, 0x00,  // Code for char BackSlash
 191:LookupTables/font.cpp **** 	0x04, 0x81, 0x81, 0xFF, 0xFF, 0x00, 0x00, 0x00, 0x00,  // Code for char ]
 192:LookupTables/font.cpp **** 	0x05, 0x0C, 0x06, 0x03, 0x06, 0x0C, 0x00, 0x00, 0x00,  // Code for char ^
 193:LookupTables/font.cpp **** 	0x06, 0xC0, 0xC0, 0xC0, 0xC0, 0xC0, 0xC0, 0x00, 0x00,  // Code for char _
 194:LookupTables/font.cpp **** 	0x03, 0x03, 0x07, 0x06, 0x00, 0x00, 0x00, 0x00, 0x00,  // Code for char `
 195:LookupTables/font.cpp **** 	0x06, 0x40, 0xE8, 0xA8, 0xA8, 0xE8, 0xF0, 0x00, 0x00,  // Code for char a
 196:LookupTables/font.cpp **** 	0x06, 0xFC, 0xFC, 0x90, 0x90, 0xF0, 0x60, 0x00, 0x00,  // Code for char b
 197:LookupTables/font.cpp **** 	0x05, 0x70, 0xF8, 0x88, 0x88, 0x88, 0x00, 0x00, 0x00,  // Code for char c
 198:LookupTables/font.cpp **** 	0x06, 0x60, 0xF0, 0x90, 0x90, 0xFC, 0xFC, 0x00, 0x00,  // Code for char d
 199:LookupTables/font.cpp **** 	0x06, 0x70, 0xF8, 0xA8, 0xA8, 0xB8, 0x30, 0x00, 0x00,  // Code for char e
ARM GAS  /var/folders/84/_x1cyy_j36g486tldtwl37280000gn/T//ccPhpwIV.s 			page 5


 200:LookupTables/font.cpp **** 	0x05, 0x10, 0xF8, 0xFC, 0x14, 0x14, 0x00, 0x00, 0x00,  // Code for char f
 201:LookupTables/font.cpp **** 	0x06, 0x98, 0xBC, 0xA4, 0xA4, 0xFC, 0x7C, 0x00, 0x00,  // Code for char g
 202:LookupTables/font.cpp **** 	0x05, 0xFC, 0xFC, 0x10, 0xF0, 0xE0, 0x00, 0x00, 0x00,  // Code for char h
 203:LookupTables/font.cpp **** 	0x04, 0x90, 0xF4, 0xF4, 0x80, 0x00, 0x00, 0x00, 0x00,  // Code for char i
 204:LookupTables/font.cpp **** 	0x05, 0x80, 0x80, 0x80, 0xF4, 0x74, 0x00, 0x00, 0x00,  // Code for char j
 205:LookupTables/font.cpp **** 	0x06, 0xFC, 0xFC, 0x20, 0x70, 0xD8, 0x88, 0x00, 0x00,  // Code for char k
 206:LookupTables/font.cpp **** 	0x04, 0x84, 0xFC, 0xFC, 0x80, 0x00, 0x00, 0x00, 0x00,  // Code for char l
 207:LookupTables/font.cpp **** 	0x07, 0xF0, 0xF8, 0x38, 0x70, 0x38, 0xF8, 0xF0, 0x00,  // Code for char m
 208:LookupTables/font.cpp **** 	0x06, 0xFC, 0xFC, 0x04, 0x04, 0xFC, 0xF8, 0x00, 0x00,  // Code for char n
 209:LookupTables/font.cpp **** 	0x06, 0x78, 0xFC, 0x84, 0x84, 0xFC, 0x78, 0x00, 0x00,  // Code for char o
 210:LookupTables/font.cpp **** 	0x06, 0xFC, 0xFC, 0x24, 0x24, 0x3C, 0x18, 0x00, 0x00,  // Code for char p
 211:LookupTables/font.cpp **** 	0x06, 0x18, 0x3C, 0x24, 0x24, 0xFC, 0xFC, 0x00, 0x00,  // Code for char q
 212:LookupTables/font.cpp **** 	0x06, 0xFC, 0xFC, 0x04, 0x04, 0x0C, 0x08, 0x00, 0x00,  // Code for char r
 213:LookupTables/font.cpp **** 	0x07, 0x10, 0xB8, 0xA8, 0xA8, 0xA8, 0xE8, 0x40, 0x00,  // Code for char s
 214:LookupTables/font.cpp **** 	0x05, 0x08, 0x7C, 0xFC, 0x88, 0x88, 0x00, 0x00, 0x00,  // Code for char t
 215:LookupTables/font.cpp **** 	0x06, 0x78, 0xF8, 0x80, 0x80, 0xF8, 0xF8, 0x00, 0x00,  // Code for char u
 216:LookupTables/font.cpp **** 	0x06, 0x3C, 0x7C, 0xC0, 0xC0, 0x7C, 0x3C, 0x00, 0x00,  // Code for char v
 217:LookupTables/font.cpp **** 	0x07, 0x38, 0xF8, 0xE0, 0x70, 0xE0, 0xF8, 0x38, 0x00,  // Code for char w
 218:LookupTables/font.cpp **** 	0x06, 0x88, 0xD8, 0x70, 0x70, 0xD8, 0x88, 0x00, 0x00,  // Code for char x
 219:LookupTables/font.cpp **** 	0x06, 0x9C, 0xBC, 0xA0, 0xA0, 0xFC, 0x7C, 0x00, 0x00,  // Code for char y
 220:LookupTables/font.cpp **** 	0x06, 0x88, 0xC8, 0xE8, 0xB8, 0x98, 0x88, 0x00, 0x00,  // Code for char z
 221:LookupTables/font.cpp **** 	0x05, 0x18, 0x7E, 0xE7, 0x81, 0x81, 0x00, 0x00, 0x00,  // Code for char {
 222:LookupTables/font.cpp **** 	0x02, 0xFF, 0xFF, 0x00, 0x00, 0x00, 0x00, 0x00, 0x00,  // Code for char |
 223:LookupTables/font.cpp ****     0x05, 0x81, 0x81, 0xE7, 0x7E, 0x18, 0x00, 0x00, 0x00,  // Code for char }
 224:LookupTables/font.cpp ****     0x05, 0x60, 0x30, 0x30, 0x30, 0x18, 0x00, 0x00, 0x00,  // Code for char ~
 225:LookupTables/font.cpp **** };
 226:LookupTables/font.cpp **** 
 227:LookupTables/font.cpp ****  void Font::set_type(Font::Type id){
  31              		.loc 1 227 36 view -0
  32              		.cfi_startproc
  33              		@ args = 0, pretend = 0, frame = 0
  34              		@ frame_needed = 0, uses_anonymous_args = 0
  35              		@ link register save eliminated.
 228:LookupTables/font.cpp **** 	switch (id)
  36              		.loc 1 228 2 view .LVU1
  37 0000 59B1     		cbz	r1, .L2
  38 0002 0129     		cmp	r1, #1
  39 0004 08D1     		bne	.L6
 229:LookupTables/font.cpp **** 	{
 230:LookupTables/font.cpp **** 	case Font::SMALL:
 231:LookupTables/font.cpp **** 		font.data_ = &font_6x6[0];
 232:LookupTables/font.cpp **** 		font.height_ = 6;
 233:LookupTables/font.cpp **** 		font.table_width_ = 7;
 234:LookupTables/font.cpp **** 		font.first_char_ = ' ';
 235:LookupTables/font.cpp **** 		font.last_char_ = Font::NUM_OF_GLYPHS - 1;
 236:LookupTables/font.cpp **** 		break;
 237:LookupTables/font.cpp **** 	case Font::LARGE:
  40              		.loc 1 237 2 view .LVU2
 238:LookupTables/font.cpp **** 		font.data_ = &font_8x8[0];
  41              		.loc 1 238 3 view .LVU3
  42              		.loc 1 238 14 is_stmt 0 view .LVU4
  43 0006 094B     		ldr	r3, .L7
  44 0008 094A     		ldr	r2, .L7+4
 239:LookupTables/font.cpp **** 		font.height_ = 8;
  45              		.loc 1 239 16 view .LVU5
  46 000a 0A49     		ldr	r1, .L7+8
  47              	.LVL1:
ARM GAS  /var/folders/84/_x1cyy_j36g486tldtwl37280000gn/T//ccPhpwIV.s 			page 6


 238:LookupTables/font.cpp **** 		font.data_ = &font_8x8[0];
  48              		.loc 1 238 14 view .LVU6
  49 000c 9A60     		str	r2, [r3, #8]
  50              		.loc 1 239 3 is_stmt 1 view .LVU7
 240:LookupTables/font.cpp **** 		font.table_width_ = 9;
  51              		.loc 1 240 3 view .LVU8
 241:LookupTables/font.cpp **** 		font.first_char_ = ' ';
  52              		.loc 1 241 20 is_stmt 0 view .LVU9
  53 000e 47F62060 		movw	r0, #32288
  54              	.LVL2:
 239:LookupTables/font.cpp **** 		font.height_ = 8;
  55              		.loc 1 239 16 view .LVU10
  56 0012 5960     		str	r1, [r3, #4]
  57              		.loc 1 241 3 is_stmt 1 view .LVU11
 242:LookupTables/font.cpp **** 		font.last_char_ = '~';
  58              		.loc 1 242 3 view .LVU12
 241:LookupTables/font.cpp **** 		font.first_char_ = ' ';
  59              		.loc 1 241 20 is_stmt 0 view .LVU13
  60 0014 1880     		strh	r0, [r3]	@ movhi
 243:LookupTables/font.cpp **** 		break;
  61              		.loc 1 243 3 is_stmt 1 view .LVU14
 244:LookupTables/font.cpp **** 	default:
 245:LookupTables/font.cpp **** 		break;
 246:LookupTables/font.cpp **** 	}
 247:LookupTables/font.cpp **** }
  62              		.loc 1 247 1 is_stmt 0 view .LVU15
  63 0016 7047     		bx	lr
  64              	.LVL3:
  65              	.L6:
  66              		.loc 1 247 1 view .LVU16
  67 0018 7047     		bx	lr
  68              	.L2:
 230:LookupTables/font.cpp **** 		font.data_ = &font_6x6[0];
  69              		.loc 1 230 2 is_stmt 1 view .LVU17
 231:LookupTables/font.cpp **** 		font.height_ = 6;
  70              		.loc 1 231 3 view .LVU18
 231:LookupTables/font.cpp **** 		font.height_ = 6;
  71              		.loc 1 231 14 is_stmt 0 view .LVU19
  72 001a 044B     		ldr	r3, .L7
  73 001c 064A     		ldr	r2, .L7+12
 232:LookupTables/font.cpp **** 		font.table_width_ = 7;
  74              		.loc 1 232 16 view .LVU20
  75 001e 0749     		ldr	r1, .L7+16
  76              	.LVL4:
 231:LookupTables/font.cpp **** 		font.height_ = 6;
  77              		.loc 1 231 14 view .LVU21
  78 0020 9A60     		str	r2, [r3, #8]
 232:LookupTables/font.cpp **** 		font.table_width_ = 7;
  79              		.loc 1 232 3 is_stmt 1 view .LVU22
 233:LookupTables/font.cpp **** 		font.first_char_ = ' ';
  80              		.loc 1 233 3 view .LVU23
 234:LookupTables/font.cpp **** 		font.last_char_ = Font::NUM_OF_GLYPHS - 1;
  81              		.loc 1 234 20 is_stmt 0 view .LVU24
  82 0022 49F22030 		movw	r0, #37664
  83              	.LVL5:
 232:LookupTables/font.cpp **** 		font.table_width_ = 7;
  84              		.loc 1 232 16 view .LVU25
ARM GAS  /var/folders/84/_x1cyy_j36g486tldtwl37280000gn/T//ccPhpwIV.s 			page 7


  85 0026 5960     		str	r1, [r3, #4]
 234:LookupTables/font.cpp **** 		font.last_char_ = Font::NUM_OF_GLYPHS - 1;
  86              		.loc 1 234 3 is_stmt 1 view .LVU26
 235:LookupTables/font.cpp **** 		break;
  87              		.loc 1 235 3 view .LVU27
 234:LookupTables/font.cpp **** 		font.last_char_ = Font::NUM_OF_GLYPHS - 1;
  88              		.loc 1 234 20 is_stmt 0 view .LVU28
  89 0028 1880     		strh	r0, [r3]	@ movhi
 236:LookupTables/font.cpp **** 	case Font::LARGE:
  90              		.loc 1 236 3 is_stmt 1 view .LVU29
  91 002a 7047     		bx	lr
  92              	.L8:
  93              		.align	2
  94              	.L7:
  95 002c 00000000 		.word	.LANCHOR0
  96 0030 00000000 		.word	.LANCHOR2
  97 0034 08000900 		.word	589832
  98 0038 00000000 		.word	.LANCHOR1
  99 003c 06000700 		.word	458758
 100              		.cfi_endproc
 101              	.LFE1980:
 103              		.global	font
 104              		.section	.bss.font,"aw",%nobits
 105              		.align	2
 106              		.set	.LANCHOR0,. + 0
 109              	font:
 110 0000 00000000 		.space	12
 110      00000000 
 110      00000000 
 111              		.section	.rodata._ZL8font_6x6,"a"
 112              		.align	2
 113              		.set	.LANCHOR1,. + 0
 116              	_ZL8font_6x6:
 117 0000 03000000 		.ascii	"\003\000\000\000\000\000\000\001.\000\000\000\000\000"
 117      00000001 
 117      2E000000 
 117      0000
 118 000e 03060006 		.ascii	"\003\006\000\006\000\000\000\005\024>\024>\024\000\005"
 118      00000005 
 118      143E143E 
 118      140005
 119 001d 242A3E2A 		.ascii	"$*>*\022\000\005\"\020\010\004\"\000\004\024*\024 \000"
 119      12000522 
 119      10080422 
 119      0004142A 
 119      142000
 120 0030 00010600 		.ascii	"\000\001\006\000\000\000\000\000\002\034\"\000\000\000"
 120      00000000 
 120      021C2200 
 120      0000
 121 003e 0002221C 		.ascii	"\000\002\"\034\000\000\000\000\003\012\004\012\000\000"
 121      00000000 
 121      030A040A 
 121      0000
 122 004c 00031038 		.ascii	"\000\003\0208\020\000\000\000\002 \020\000\000\000\000"
 122      10000000 
 122      02201000 
ARM GAS  /var/folders/84/_x1cyy_j36g486tldtwl37280000gn/T//ccPhpwIV.s 			page 8


 122      000000
 123 005b 02101000 		.ascii	"\002\020\020\000\000\000\000\001 \000\000\000\000\000"
 123      00000001 
 123      20000000 
 123      0000
 124 0069 04201008 		.ascii	"\004 \020\010\004\000\000\003>\">\000\000\000\002\004"
 124      04000003 
 124      3E223E00 
 124      00000204 
 125 0079 3E000000 		.ascii	">\000\000\000\000\003:*.\000\000\000\003\"*>\000\000"
 125      00033A2A 
 125      2E000000 
 125      03222A3E 
 125      0000
 126 008b 00030E08 		.ascii	"\000\003\016\010>\000\000\000\003.*:\000\000\000\003"
 126      3E000000 
 126      032E2A3A 
 126      00000003 
 127 009b 3E2A3A00 		.ascii	">*:\000\000\000\003\002\002>\000\000\000\003>*>\000"
 127      00000302 
 127      023E0000 
 127      00033E2A 
 127      3E00
 128 00ad 0000032E 		.ascii	"\000\000\003.*>\000\000\000\001\024\000\000\000\000"
 128      2A3E0000 
 128      00011400 
 128      000000
 129 00bc 00022014 		.ascii	"\000\002 \024\000\000\000\000\002\010\024\000\000\000"
 129      00000000 
 129      02081400 
 129      0000
 130 00ca 00021414 		.ascii	"\000\002\024\024\000\000\000\000\002\024\010\000\000"
 130      00000000 
 130      02140800 
 130      00
 131 00d7 00000302 		.ascii	"\000\000\003\002*\004\000\000\000\004\034\"*$\000\000"
 131      2A040000 
 131      00041C22 
 131      2A240000 
 132 00e7 033C0A3C 		.ascii	"\003<\012<\000\000\000\003>*\024\000\000\000\003\034"
 132      00000003 
 132      3E2A1400 
 132      0000031C 
 133 00f7 22220000 		.ascii	"\"\"\000\000\000\003>\"\034\000\000\000\003>*\"\000"
 133      00033E22 
 133      1C000000 
 133      033E2A22 
 133      00
 134 0108 0000033E 		.ascii	"\000\000\003>\012\002\000\000\000\003>\":\000\000\000"
 134      0A020000 
 134      00033E22 
 134      3A000000 
 135 0118 033E083E 		.ascii	"\003>\010>\000\000\000\001>\000\000\000\000\000\003"
 135      00000001 
 135      3E000000 
 135      000003
 136 0127 20201E00 		.ascii	"  \036\000\000\000\003>\0106\000\000\000\003>  \000"
ARM GAS  /var/folders/84/_x1cyy_j36g486tldtwl37280000gn/T//ccPhpwIV.s 			page 9


 136      0000033E 
 136      08360000 
 136      00033E20 
 136      2000
 137 0139 0000053E 		.ascii	"\000\000\005>\002<\002>\000\004>\004\010>\000\000\003"
 137      023C023E 
 137      00043E04 
 137      083E0000 
 137      03
 138 014a 1C221C00 		.ascii	"\034\"\034\000\000\000\003>\012\016\000\000\000\003"
 138      0000033E 
 138      0A0E0000 
 138      0003
 139 0158 1E321E00 		.ascii	"\0362\036\000\000\000\003>\022.\000\000\000\003.*:\000"
 139      0000033E 
 139      122E0000 
 139      00032E2A 
 139      3A00
 140 016a 00000302 		.ascii	"\000\000\003\002>\002\000\000\000\003> >\000\000\000"
 140      3E020000 
 140      00033E20 
 140      3E000000 
 141 017a 031E201E 		.ascii	"\003\036 \036\000\000\000\005> \036 >\000\0036\0106"
 141      00000005 
 141      3E201E20 
 141      3E000336 
 141      0836
 142 018c 00000003 		.ascii	"\000\000\000\003\0068\006\000\000\000\0032*&\000\000"
 142      06380600 
 142      00000332 
 142      2A260000 
 143 019c 00023E22 		.ascii	"\000\002>\"\000\000\000\000\003\010\020 \000\000\000"
 143      00000000 
 143      03081020 
 143      000000
 144 01ab 02223E00 		.ascii	"\002\">\000\000\000\000\003\004\002\004\000\000\000"
 144      00000003 
 144      04020400 
 144      0000
 145 01b9 03202020 		.ascii	"\003   \000\000\000\002\002\004\000\000\000\000\003"
 145      00000002 
 145      02040000 
 145      000003
 146 01c8 102A3C00 		.ascii	"\020*<\000\000\000\003>(\020\000\000\000\002\030$\000"
 146      0000033E 
 146      28100000 
 146      00021824 
 146      00
 147 01d9 00000003 		.ascii	"\000\000\000\003\020(>\000\000\000\003\034*,\000\000"
 147      10283E00 
 147      0000031C 
 147      2A2C0000 
 148 01e9 00033814 		.ascii	"\000\0038\024\004\000\000\000\003,*\034\000\000\000"
 148      04000000 
 148      032C2A1C 
 148      000000
 149 01f8 033E0830 		.ascii	"\003>\0100\000\000\000\0014\000\000\000\000\000\002"
ARM GAS  /var/folders/84/_x1cyy_j36g486tldtwl37280000gn/T//ccPhpwIV.s 			page 10


 149      00000001 
 149      34000000 
 149      000002
 150 0207 201A0000 		.ascii	" \032\000\000\000\000\003>\0104\000\000\000\001<\000"
 150      0000033E 
 150      08340000 
 150      00013C00 
 151 0217 00000000 		.ascii	"\000\000\000\000\005<\0048\0048\000\003<\0048\000\000"
 151      053C0438 
 151      04380003 
 151      3C043800 
 151      00
 152 0228 00031824 		.ascii	"\000\003\030$\030\000\000\000\003<\024\034\000\000\000"
 152      18000000 
 152      033C141C 
 152      000000
 153 0237 030C122C 		.ascii	"\003\014\022,\000\000\000\004<\010\004\010\000\000\003"
 153      00000004 
 153      3C080408 
 153      000003
 154 0246 28341400 		.ascii	"(4\024\000\000\000\002\034(\000\000\000\000\003< <\000"
 154      0000021C 
 154      28000000 
 154      00033C20 
 154      3C00
 155 0258 0000031C 		.ascii	"\000\000\003\034 \034\000\000\000\005\034 \034 \034"
 155      201C0000 
 155      00051C20 
 155      1C201C
 156 0267 00032810 		.ascii	"\000\003(\020(\000\000\000\003\0140\014\000\000\000"
 156      28000000 
 156      030C300C 
 156      000000
 157 0276 0324342C 		.ascii	"\003$4,\000\000\000\003\0106\"\000\000\000\001>\000"
 157      00000003 
 157      08362200 
 157      0000013E 
 157      00
 158 0287 00000000 		.ascii	"\000\000\000\000\003\"6\010\000\000\000\005\010\004"
 158      03223608 
 158      00000005 
 158      0804
 159 0295 04080400 		.ascii	"\004\010\004\000\001\000\000\000\000\000\000\0058>9"
 159      01000000 
 159      00000005 
 159      383E39
 160 02a4 3E380005 		.ascii	">8\000\005?!!#>\000\005\020(\037\002\004\000\003\010"
 160      3F212123 
 160      3E000510 
 160      281F0204 
 160      000308
 161 02b7 1C3E0000 		.ascii	"\034>\000\000\000\003>\034\010\000\000\000\006>\">>"
 161      00033E1C 
 161      08000000 
 161      063E223E 
 161      3E
 162 02c8 3E3E063E 		.ascii	">>\006>>>>\">\005\020 \020\010\004\000\003(\020(\000"
ARM GAS  /var/folders/84/_x1cyy_j36g486tldtwl37280000gn/T//ccPhpwIV.s 			page 11


 162      3E3E3E22 
 162      3E051020 
 162      10080400 
 162      03281028 
 163 02dd 0000053E 		.ascii	"\000\000\005>\000>\034\010\000\0068&!)&9\003>\000>\000"
 163      003E1C08 
 163      00063826 
 163      21292639 
 163      033E003E 
 164 02f2 0000053E 		.ascii	"\000\000\005>>>>>\000\006\014\036??\036\014\006\014"
 164      3E3E3E3E 
 164      00060C1E 
 164      3F3F1E0C 
 164      060C
 165 0304 12212112 		.ascii	"\022!!\022\014\005\014\002\014\020\014\000\006>\"\""
 165      0C050C02 
 165      0C100C00 
 165      063E2222 
 166 0314 22140805 		.ascii	"\"\024\010\005<\"!!?\000\006<\"\001)\027(\005??)??\000"
 166      3C222121 
 166      3F00063C 
 166      22012917 
 166      28053F3F 
 167              		.section	.rodata._ZL8font_8x8,"a"
 168              		.align	2
 169              		.set	.LANCHOR2,. + 0
 172              	_ZL8font_8x8:
 173 0000 05000000 		.ascii	"\005\000\000\000\000\000\000\000\000\002\337\337\000"
 173      00000000 
 173      0002DFDF 
 173      00
 174 000d 00000000 		.ascii	"\000\000\000\000\000\003\007\000\007\000\000\000\000"
 174      00030700 
 174      07000000 
 174      00
 175 001a 000766FF 		.ascii	"\000\007f\377\377f\377\377f\000\006HTT\376T$\000\000"
 175      FF66FFFF 
 175      66000648 
 175      5454FE54 
 175      240000
 176 002d 07C26532 		.ascii	"\007\302e2\030L\246C\000\007v\377\333\333\377f\260\000"
 176      184CA643 
 176      000776FF 
 176      DBDBFF66 
 176      B000
 177 003f 02070700 		.ascii	"\002\007\007\000\000\000\000\000\000\004<~\303\201\000"
 177      00000000 
 177      00043C7E 
 177      C38100
 178 004e 00000004 		.ascii	"\000\000\000\004\201\303~<\000\000\000\000\005\021\012"
 178      81C37E3C 
 178      00000000 
 178      05110A
 179 005d 040A1100 		.ascii	"\004\012\021\000\000\000\006\030\030~~\030\030\000\000"
 179      00000618 
 179      187E7E18 
 179      180000
ARM GAS  /var/folders/84/_x1cyy_j36g486tldtwl37280000gn/T//ccPhpwIV.s 			page 12


 180 006c 03C0F070 		.ascii	"\003\300\360p\000\000\000\000\000\006\030\030\030\030"
 180      00000000 
 180      00061818 
 180      1818
 181 007a 18180000 		.ascii	"\030\030\000\000\002\300\300\000\000\000\000\000\000"
 181      02C0C000 
 181      00000000 
 181      00
 182 0087 06C06030 		.ascii	"\006\300`0\030\014\006\000\000\006~\377\303\303\377"
 182      180C0600 
 182      00067EFF 
 182      C3C3FF
 183 0096 7E000006 		.ascii	"~\000\000\006\304\306\377\377\300\300\000\000\006\346"
 183      C4C6FFFF 
 183      C0C00000 
 183      06E6
 184 00a4 F7F3DBDF 		.ascii	"\367\363\333\337\316\000\000\006f\347\333\333\377v\000"
 184      CE000006 
 184      66E7DBDB 
 184      FF7600
 185 00b3 00063F3F 		.ascii	"\000\006??00\377\377\000\000\006\317\337\333\333\373"
 185      3030FFFF 
 185      000006CF 
 185      DFDBDBFB 
 186 00c3 73000006 		.ascii	"s\000\000\006~\377\333\333\373p\000\000\006\003\343"
 186      7EFFDBDB 
 186      FB700000 
 186      0603E3
 187 00d2 F31B0F07 		.ascii	"\363\033\017\007\000\000\006v\377\333\333\377v\000\000"
 187      00000676 
 187      FFDBDBFF 
 187      760000
 188 00e1 06CEDFDB 		.ascii	"\006\316\337\333\333\377~\000\000\002\303\303\000\000"
 188      DBFF7E00 
 188      0002C3C3 
 188      0000
 189 00ef 00000000 		.ascii	"\000\000\000\000\003\300\346f\000\000\000\000\000\004"
 189      03C0E666 
 189      00000000 
 189      0004
 190 00fd 10386C44 		.ascii	"\0208lD\000\000\000\000\004ffff\000\000\000\000\004"
 190      00000000 
 190      04666666 
 190      66000000 
 190      0004
 191 010f 446C3810 		.ascii	"Dl8\020\000\000\000\000\006\006\007\333\337\017\006"
 191      00000000 
 191      060607DB 
 191      DF0F06
 192 011e 0000073C 		.ascii	"\000\000\007<B\231\245\275\241>\000\006\376\37733\377"
 192      4299A5BD 
 192      A13E0006 
 192      FEFF3333 
 192      FF
 193 012f FE000006 		.ascii	"\376\000\000\006\377\377\333\333\377v\000\000\006~\377"
 193      FFFFDBDB 
 193      FF760000 
ARM GAS  /var/folders/84/_x1cyy_j36g486tldtwl37280000gn/T//ccPhpwIV.s 			page 13


 193      067EFF
 194 013e C3C3E766 		.ascii	"\303\303\347f\000\000\006\377\377\303\303\377~\000\000"
 194      000006FF 
 194      FFC3C3FF 
 194      7E0000
 195 014d 06FFFFDB 		.ascii	"\006\377\377\333\333\303\303\000\000\006\377\377\033"
 195      DBC3C300 
 195      0006FFFF 
 195      1B
 196 015a 1B1B0300 		.ascii	"\033\033\003\000\000\006~\377\303\333\373\373\000\000"
 196      00067EFF 
 196      C3DBFBFB 
 196      0000
 197 0168 06FFFF18 		.ascii	"\006\377\377\030\030\377\377\000\000\006\303\303\377"
 197      18FFFF00 
 197      0006C3C3 
 197      FF
 198 0175 FFC3C300 		.ascii	"\377\303\303\000\000\006\300\300\300\300\377\177\000"
 198      0006C0C0 
 198      C0C0FF7F 
 198      00
 199 0182 0006FFFF 		.ascii	"\000\006\377\377\030\030\367\343\000\000\006\377\377"
 199      1818F7E3 
 199      000006FF 
 199      FF
 200 018f C0C0C0C0 		.ascii	"\300\300\300\300\000\000\007\377\377\014\030\014\377"
 200      000007FF 
 200      FF0C180C 
 200      FF
 201 019c FF0006FF 		.ascii	"\377\000\006\377\377\014\030\377\377\000\000\006~\377"
 201      FF0C18FF 
 201      FF000006 
 201      7EFF
 202 01aa C3C3FF7E 		.ascii	"\303\303\377~\000\000\006\377\37733?\036\000\000\006"
 202      000006FF 
 202      FF33333F 
 202      1E000006 
 203 01ba 7EFFC3E3 		.ascii	"~\377\303\343\377\336\000\000\006\377\37733\377\356"
 203      FFDE0000 
 203      06FFFF33 
 203      33FFEE
 204 01c9 000006CE 		.ascii	"\000\000\006\316\337\333\333\373s\000\000\006\003\003"
 204      DFDBDBFB 
 204      73000006 
 204      0303
 205 01d7 FFFF0303 		.ascii	"\377\377\003\003\000\000\006\177\377\300\300\377\177"
 205      0000067F 
 205      FFC0C0FF 
 205      7F
 206 01e4 0000063F 		.ascii	"\000\000\006?\177\300\300\177?\000\000\007\377\377`"
 206      7FC0C07F 
 206      3F000007 
 206      FFFF60
 207 01f3 3060FFFF 		.ascii	"0`\377\377\000\007\303\347<\030<\347\303\000\006\017"
 207      0007C3E7 
 207      3C183CE7 
 207      C300060F 
ARM GAS  /var/folders/84/_x1cyy_j36g486tldtwl37280000gn/T//ccPhpwIV.s 			page 14


 208 0203 1FF8F81F 		.ascii	"\037\370\370\037\017\000\000\006\343\363\333\333\317"
 208      0F000006 
 208      E3F3DBDB 
 208      CF
 209 0210 C7000004 		.ascii	"\307\000\000\004\377\377\201\201\000\000\000\000\006"
 209      FFFF8181 
 209      00000000 
 209      06
 210 021d 060C1830 		.ascii	"\006\014\0300`\300\000\000\004\201\201\377\377\000\000"
 210      60C00000 
 210      048181FF 
 210      FF0000
 211 022c 0000050C 		.ascii	"\000\000\005\014\006\003\006\014\000\000\000\006\300"
 211      0603060C 
 211      00000006 
 211      C0
 212 0239 C0C0C0C0 		.ascii	"\300\300\300\300\300\000\000\003\003\007\006\000\000"
 212      C0000003 
 212      03070600 
 212      00
 213 0246 00000006 		.ascii	"\000\000\000\006@\350\250\250\350\360\000\000\006\374"
 213      40E8A8A8 
 213      E8F00000 
 213      06FC
 214 0254 FC9090F0 		.ascii	"\374\220\220\360`\000\000\005p\370\210\210\210\000\000"
 214      60000005 
 214      70F88888 
 214      880000
 215 0263 000660F0 		.ascii	"\000\006`\360\220\220\374\374\000\000\006p\370\250\250"
 215      9090FCFC 
 215      00000670 
 215      F8A8A8
 216 0272 B8300000 		.ascii	"\2700\000\000\005\020\370\374\024\024\000\000\000\006"
 216      0510F8FC 
 216      14140000 
 216      0006
 217 0280 98BCA4A4 		.ascii	"\230\274\244\244\374|\000\000\005\374\374\020\360\340"
 217      FC7C0000 
 217      05FCFC10 
 217      F0E0
 218 028e 00000004 		.ascii	"\000\000\000\004\220\364\364\200\000\000\000\000\005"
 218      90F4F480 
 218      00000000 
 218      05
 219 029b 808080F4 		.ascii	"\200\200\200\364t\000\000\000\006\374\374 p\330\210"
 219      74000000 
 219      06FCFC20 
 219      70D888
 220 02aa 00000484 		.ascii	"\000\000\004\204\374\374\200\000\000\000\000\007\360"
 220      FCFC8000 
 220      00000007 
 220      F0
 221 02b7 F8387038 		.ascii	"\3708p8\370\360\000\006\374\374\004\004\374\370\000"
 221      F8F00006 
 221      FCFC0404 
 221      FCF800
 222 02c6 000678FC 		.ascii	"\000\006x\374\204\204\374x\000\000\006\374\374$$<\030"
ARM GAS  /var/folders/84/_x1cyy_j36g486tldtwl37280000gn/T//ccPhpwIV.s 			page 15


 222      8484FC78 
 222      000006FC 
 222      FC24243C 
 222      18
 223 02d7 00000618 		.ascii	"\000\000\006\030<$$\374\374\000\000\006\374\374\004"
 223      3C2424FC 
 223      FC000006 
 223      FCFC04
 224 02e6 040C0800 		.ascii	"\004\014\010\000\000\007\020\270\250\250\250\350@\000"
 224      000710B8 
 224      A8A8A8E8 
 224      4000
 225 02f4 05087CFC 		.ascii	"\005\010|\374\210\210\000\000\000\006x\370\200\200\370"
 225      88880000 
 225      000678F8 
 225      8080F8
 226 0303 F8000006 		.ascii	"\370\000\000\006<|\300\300|<\000\000\0078\370\340p\340"
 226      3C7CC0C0 
 226      7C3C0000 
 226      0738F8E0 
 226      70E0
 227 0315 F8380006 		.ascii	"\3708\000\006\210\330pp\330\210\000\000\006\234\274"
 227      88D87070 
 227      D8880000 
 227      069CBC
 228 0324 A0A0FC7C 		.ascii	"\240\240\374|\000\000\006\210\310\350\270\230\210\000"
 228      00000688 
 228      C8E8B898 
 228      8800
 229 0332 0005187E 		.ascii	"\000\005\030~\347\201\201\000\000\000\002\377\377\000"
 229      E7818100 
 229      000002FF 
 229      FF00
 230 0340 00000000 		.ascii	"\000\000\000\000\000\005\201\201\347~\030\000\000\000"
 230      00058181 
 230      E77E1800 
 230      0000
 231 034e 05603030 		.ascii	"\005`000\030\000\000\000"
 231      30180000 
 231      00
 232              		.text
 233              	.Letext0:
 234              		.file 2 "/usr/local/Caskroom/gcc-arm-embedded/9-2019-q4-major/gcc-arm-none-eabi-9-2019-q4-major/ar
 235              		.file 3 "/usr/local/Caskroom/gcc-arm-embedded/9-2019-q4-major/gcc-arm-none-eabi-9-2019-q4-major/ar
 236              		.file 4 "/usr/local/Caskroom/gcc-arm-embedded/9-2019-q4-major/gcc-arm-none-eabi-9-2019-q4-major/ar
 237              		.file 5 "/Users/joostbooy/STM32Cube/Repository/STM32Cube_FW_F4_V1.26.1/Drivers/CMSIS/Include/core_
 238              		.file 6 "/Users/joostbooy/STM32Cube/Repository/STM32Cube_FW_F4_V1.26.1/Drivers/CMSIS/Device/ST/STM
 239              		.file 7 "/usr/local/Caskroom/gcc-arm-embedded/9-2019-q4-major/gcc-arm-none-eabi-9-2019-q4-major/li
 240              		.file 8 "/Users/joostbooy/STM32Cube/Repository/STM32Cube_FW_F4_V1.26.1/Drivers/STM32F4xx_HAL_Drive
 241              		.file 9 "/usr/local/Caskroom/gcc-arm-embedded/9-2019-q4-major/gcc-arm-none-eabi-9-2019-q4-major/ar
 242              		.file 10 "/usr/local/Caskroom/gcc-arm-embedded/9-2019-q4-major/gcc-arm-none-eabi-9-2019-q4-major/a
 243              		.file 11 "/usr/local/Caskroom/gcc-arm-embedded/9-2019-q4-major/gcc-arm-none-eabi-9-2019-q4-major/a
 244              		.file 12 "/usr/local/Caskroom/gcc-arm-embedded/9-2019-q4-major/gcc-arm-none-eabi-9-2019-q4-major/a
 245              		.file 13 "/usr/local/Caskroom/gcc-arm-embedded/9-2019-q4-major/gcc-arm-none-eabi-9-2019-q4-major/a
 246              		.file 14 "/usr/local/Caskroom/gcc-arm-embedded/9-2019-q4-major/gcc-arm-none-eabi-9-2019-q4-major/a
 247              		.file 15 "/usr/local/Caskroom/gcc-arm-embedded/9-2019-q4-major/gcc-arm-none-eabi-9-2019-q4-major/a
 248              		.file 16 "/usr/local/Caskroom/gcc-arm-embedded/9-2019-q4-major/gcc-arm-none-eabi-9-2019-q4-major/a
ARM GAS  /var/folders/84/_x1cyy_j36g486tldtwl37280000gn/T//ccPhpwIV.s 			page 16


 249              		.file 17 "/usr/local/Caskroom/gcc-arm-embedded/9-2019-q4-major/gcc-arm-none-eabi-9-2019-q4-major/a
 250              		.file 18 "/usr/local/Caskroom/gcc-arm-embedded/9-2019-q4-major/gcc-arm-none-eabi-9-2019-q4-major/a
 251              		.file 19 "/usr/local/Caskroom/gcc-arm-embedded/9-2019-q4-major/gcc-arm-none-eabi-9-2019-q4-major/a
 252              		.file 20 "/usr/local/Caskroom/gcc-arm-embedded/9-2019-q4-major/gcc-arm-none-eabi-9-2019-q4-major/a
 253              		.file 21 "/usr/local/Caskroom/gcc-arm-embedded/9-2019-q4-major/gcc-arm-none-eabi-9-2019-q4-major/a
 254              		.file 22 "/usr/local/Caskroom/gcc-arm-embedded/9-2019-q4-major/gcc-arm-none-eabi-9-2019-q4-major/a
 255              		.file 23 "/usr/local/Caskroom/gcc-arm-embedded/9-2019-q4-major/gcc-arm-none-eabi-9-2019-q4-major/a
 256              		.file 24 "/usr/local/Caskroom/gcc-arm-embedded/9-2019-q4-major/gcc-arm-none-eabi-9-2019-q4-major/a
 257              		.file 25 "/usr/local/Caskroom/gcc-arm-embedded/9-2019-q4-major/gcc-arm-none-eabi-9-2019-q4-major/a
 258              		.file 26 "/usr/local/Caskroom/gcc-arm-embedded/9-2019-q4-major/gcc-arm-none-eabi-9-2019-q4-major/a
 259              		.file 27 "/usr/local/Caskroom/gcc-arm-embedded/9-2019-q4-major/gcc-arm-none-eabi-9-2019-q4-major/a
 260              		.file 28 "/usr/local/Caskroom/gcc-arm-embedded/9-2019-q4-major/gcc-arm-none-eabi-9-2019-q4-major/a
 261              		.file 29 "/usr/local/Caskroom/gcc-arm-embedded/9-2019-q4-major/gcc-arm-none-eabi-9-2019-q4-major/a
 262              		.file 30 "/usr/local/Caskroom/gcc-arm-embedded/9-2019-q4-major/gcc-arm-none-eabi-9-2019-q4-major/a
 263              		.file 31 "/usr/local/Caskroom/gcc-arm-embedded/9-2019-q4-major/gcc-arm-none-eabi-9-2019-q4-major/a
 264              		.file 32 "/usr/local/Caskroom/gcc-arm-embedded/9-2019-q4-major/gcc-arm-none-eabi-9-2019-q4-major/a
 265              		.file 33 "/usr/local/Caskroom/gcc-arm-embedded/9-2019-q4-major/gcc-arm-none-eabi-9-2019-q4-major/l
 266              		.file 34 "<built-in>"
 267              		.file 35 "/usr/local/Caskroom/gcc-arm-embedded/9-2019-q4-major/gcc-arm-none-eabi-9-2019-q4-major/a
 268              		.file 36 "/usr/local/Caskroom/gcc-arm-embedded/9-2019-q4-major/gcc-arm-none-eabi-9-2019-q4-major/a
 269              		.file 37 "/usr/local/Caskroom/gcc-arm-embedded/9-2019-q4-major/gcc-arm-none-eabi-9-2019-q4-major/a
 270              		.file 38 "/usr/local/Caskroom/gcc-arm-embedded/9-2019-q4-major/gcc-arm-none-eabi-9-2019-q4-major/a
 271              		.file 39 "/usr/local/Caskroom/gcc-arm-embedded/9-2019-q4-major/gcc-arm-none-eabi-9-2019-q4-major/a
 272              		.file 40 "/usr/local/Caskroom/gcc-arm-embedded/9-2019-q4-major/gcc-arm-none-eabi-9-2019-q4-major/a
 273              		.file 41 "/usr/local/Caskroom/gcc-arm-embedded/9-2019-q4-major/gcc-arm-none-eabi-9-2019-q4-major/a
 274              		.file 42 "/usr/local/Caskroom/gcc-arm-embedded/9-2019-q4-major/gcc-arm-none-eabi-9-2019-q4-major/a
 275              		.file 43 "/usr/local/Caskroom/gcc-arm-embedded/9-2019-q4-major/gcc-arm-none-eabi-9-2019-q4-major/a
 276              		.file 44 "LookupTables/font.h"
ARM GAS  /var/folders/84/_x1cyy_j36g486tldtwl37280000gn/T//ccPhpwIV.s 			page 17


DEFINED SYMBOLS
                            *ABS*:0000000000000000 font.cpp
/var/folders/84/_x1cyy_j36g486tldtwl37280000gn/T//ccPhpwIV.s:18     .text._ZN4Font8set_typeENS_4TypeE:0000000000000000 $t
/var/folders/84/_x1cyy_j36g486tldtwl37280000gn/T//ccPhpwIV.s:27     .text._ZN4Font8set_typeENS_4TypeE:0000000000000000 _ZN4Font8set_typeENS_4TypeE
/var/folders/84/_x1cyy_j36g486tldtwl37280000gn/T//ccPhpwIV.s:95     .text._ZN4Font8set_typeENS_4TypeE:000000000000002c $d
/var/folders/84/_x1cyy_j36g486tldtwl37280000gn/T//ccPhpwIV.s:109    .bss.font:0000000000000000 font
/var/folders/84/_x1cyy_j36g486tldtwl37280000gn/T//ccPhpwIV.s:105    .bss.font:0000000000000000 $d
/var/folders/84/_x1cyy_j36g486tldtwl37280000gn/T//ccPhpwIV.s:112    .rodata._ZL8font_6x6:0000000000000000 $d
/var/folders/84/_x1cyy_j36g486tldtwl37280000gn/T//ccPhpwIV.s:116    .rodata._ZL8font_6x6:0000000000000000 _ZL8font_6x6
/var/folders/84/_x1cyy_j36g486tldtwl37280000gn/T//ccPhpwIV.s:168    .rodata._ZL8font_8x8:0000000000000000 $d
/var/folders/84/_x1cyy_j36g486tldtwl37280000gn/T//ccPhpwIV.s:172    .rodata._ZL8font_8x8:0000000000000000 _ZL8font_8x8

NO UNDEFINED SYMBOLS
