ARM GAS  /var/folders/84/_x1cyy_j36g486tldtwl37280000gn/T//ccQg3xDo.s 			page 1


   1              		.cpu cortex-m4
   2              		.eabi_attribute 27, 1
   3              		.eabi_attribute 28, 1
   4              		.eabi_attribute 20, 1
   5              		.eabi_attribute 21, 1
   6              		.eabi_attribute 23, 3
   7              		.eabi_attribute 24, 1
   8              		.eabi_attribute 25, 1
   9              		.eabi_attribute 26, 1
  10              		.eabi_attribute 30, 2
  11              		.eabi_attribute 34, 1
  12              		.eabi_attribute 18, 4
  13              		.file	"main.cpp"
  14              		.text
  15              	.Ltext0:
  16              		.cfi_sections	.debug_frame
  17              		.section	.text._ZN4Song4initEv,"axG",%progbits,_ZN4Song4initEv,comdat
  18              		.align	1
  19              		.p2align 2,,3
  20              		.weak	_ZN4Song4initEv
  21              		.arch armv7e-m
  22              		.syntax unified
  23              		.thumb
  24              		.thumb_func
  25              		.fpu fpv4-sp-d16
  27              	_ZN4Song4initEv:
  28              	.LVL0:
  29              	.LFB2603:
  30              		.file 1 "Src/Settings/song.h"
   1:Src/Settings/song.h **** #ifndef Song_h
   2:Src/Settings/song.h **** #define Song_h
   3:Src/Settings/song.h **** 
   4:Src/Settings/song.h **** #include "stmf4lib.h"
   5:Src/Settings/song.h **** #include "track.h"
   6:Src/Settings/song.h **** #include "scale.h"
   7:Src/Settings/song.h **** #include "chord.h"
   8:Src/Settings/song.h **** #include "midiClock.h"
   9:Src/Settings/song.h **** #include "uiList.h"
  10:Src/Settings/song.h **** 
  11:Src/Settings/song.h **** class Song {
  12:Src/Settings/song.h **** 
  13:Src/Settings/song.h **** public:
  14:Src/Settings/song.h **** 
  15:Src/Settings/song.h **** 	Scale scale;
  16:Src/Settings/song.h **** 	MidiClock midiClock;
  17:Src/Settings/song.h **** 
  18:Src/Settings/song.h **** 	Track &track(int index) {
  19:Src/Settings/song.h **** 		return track_[index];
  20:Src/Settings/song.h **** 	}
  21:Src/Settings/song.h **** 
  22:Src/Settings/song.h **** 	void init() {
  31              		.loc 1 22 7 view -0
  32              		.cfi_startproc
  33              		@ args = 0, pretend = 0, frame = 144
  34              		@ frame_needed = 0, uses_anonymous_args = 0
  23:Src/Settings/song.h **** 		scale.init();
  35              		.loc 1 23 3 view .LVU1
ARM GAS  /var/folders/84/_x1cyy_j36g486tldtwl37280000gn/T//ccQg3xDo.s 			page 2


  22:Src/Settings/song.h **** 		scale.init();
  36              		.loc 1 22 7 is_stmt 0 view .LVU2
  37 0000 2DE9F04F 		push	{r4, r5, r6, r7, r8, r9, r10, fp, lr}
  38              		.cfi_def_cfa_offset 36
  39              		.cfi_offset 4, -36
  40              		.cfi_offset 5, -32
  41              		.cfi_offset 6, -28
  42              		.cfi_offset 7, -24
  43              		.cfi_offset 8, -20
  44              		.cfi_offset 9, -16
  45              		.cfi_offset 10, -12
  46              		.cfi_offset 11, -8
  47              		.cfi_offset 14, -4
  48 0004 2DED028B 		vpush.64	{d8}
  49              		.cfi_def_cfa_offset 44
  50              		.cfi_offset 80, -44
  51              		.cfi_offset 81, -40
  52 0008 8046     		mov	r8, r0
  53              	.LVL1:
  54              	.LBB1088:
  55              	.LBI1088:
  56              		.file 2 "Src/Settings/scale.h"
   1:Src/Settings/scale.h **** #ifndef Scale_h
   2:Src/Settings/scale.h **** #define Scale_h
   3:Src/Settings/scale.h **** 
   4:Src/Settings/scale.h **** #include "stack.h"
   5:Src/Settings/scale.h **** #include "uiText.h"
   6:Src/Settings/scale.h **** #include "lookUpTables.h"
   7:Src/Settings/scale.h **** #include "fileWriter.h"
   8:Src/Settings/scale.h **** #include "fileReader.h"
   9:Src/Settings/scale.h **** 
  10:Src/Settings/scale.h **** class Scale {
  11:Src/Settings/scale.h **** 
  12:Src/Settings/scale.h **** public:
  13:Src/Settings/scale.h **** 
  14:Src/Settings/scale.h **** 	enum Type {
  15:Src/Settings/scale.h **** 		MAJOR,
  16:Src/Settings/scale.h **** 		MINOR,
  17:Src/Settings/scale.h **** 		MIXOLYDIAN,
  18:Src/Settings/scale.h **** 		DORIAN,
  19:Src/Settings/scale.h **** 		PHRYGIAN,
  20:Src/Settings/scale.h **** 		LYDIAN,
  21:Src/Settings/scale.h **** 		AEOLYIAN,
  22:Src/Settings/scale.h **** 		LOCRIAN,
  23:Src/Settings/scale.h **** 
  24:Src/Settings/scale.h **** 		NUM_TYPES
  25:Src/Settings/scale.h **** 	};
  26:Src/Settings/scale.h **** 
  27:Src/Settings/scale.h **** 	static const char* type_text(uint8_t type) {
  28:Src/Settings/scale.h **** 		switch (type)
  29:Src/Settings/scale.h **** 		{
  30:Src/Settings/scale.h **** 		case MAJOR:			return "MAJOR";
  31:Src/Settings/scale.h **** 		case MINOR:			return "MINOR";
  32:Src/Settings/scale.h **** 		case MIXOLYDIAN:	return "MIXOLYDIAN";
  33:Src/Settings/scale.h **** 		case DORIAN:		return "DORIAN";
  34:Src/Settings/scale.h **** 		case PHRYGIAN:		return "PHRYGIAN";
  35:Src/Settings/scale.h **** 		case LYDIAN:		return "LYDIAN";
ARM GAS  /var/folders/84/_x1cyy_j36g486tldtwl37280000gn/T//ccQg3xDo.s 			page 3


  36:Src/Settings/scale.h **** 		case AEOLYIAN:		return "AEOLYIAN";
  37:Src/Settings/scale.h **** 		case LOCRIAN:		return "LOCRIAN";
  38:Src/Settings/scale.h **** 		default:			return nullptr;
  39:Src/Settings/scale.h **** 			break;
  40:Src/Settings/scale.h **** 		}
  41:Src/Settings/scale.h **** 	}
  42:Src/Settings/scale.h **** 
  43:Src/Settings/scale.h **** 	inline void init() {
  57              		.loc 2 43 14 is_stmt 1 view .LVU3
  58              	.LBE1088:
  44:Src/Settings/scale.h **** 		root_ = 0;
  59              		.loc 2 44 3 view .LVU4
  45:Src/Settings/scale.h **** 		set_type(MAJOR);
  60              		.loc 2 45 3 view .LVU5
  61              	.LBB1126:
  62              	.LBB1089:
  63              	.LBI1089:
  46:Src/Settings/scale.h **** 	}
  47:Src/Settings/scale.h **** 
  48:Src/Settings/scale.h **** 	// root
  49:Src/Settings/scale.h **** 	inline uint8_t root() {
  50:Src/Settings/scale.h **** 		return root_;
  51:Src/Settings/scale.h **** 	}
  52:Src/Settings/scale.h **** 
  53:Src/Settings/scale.h **** 	inline void set_root(int value) {
  54:Src/Settings/scale.h **** 		root_ = stmlib::clip(0, 11, value);
  55:Src/Settings/scale.h **** 		make_keymap();
  56:Src/Settings/scale.h **** 	}
  57:Src/Settings/scale.h **** 
  58:Src/Settings/scale.h **** 	const char* root_text() {
  59:Src/Settings/scale.h **** 		return UiText::note_text(root(), false);
  60:Src/Settings/scale.h **** 	}
  61:Src/Settings/scale.h **** 
  62:Src/Settings/scale.h **** 	// type
  63:Src/Settings/scale.h **** 	inline uint8_t type() {
  64:Src/Settings/scale.h **** 		return type_;
  65:Src/Settings/scale.h **** 	}
  66:Src/Settings/scale.h **** 
  67:Src/Settings/scale.h **** 	inline void set_type(int value) {
  64              		.loc 2 67 14 view .LVU6
  65              	.LBB1090:
  68:Src/Settings/scale.h **** 		type_ = stmlib::clip(0, NUM_TYPES - 1, value);
  66              		.loc 2 68 3 view .LVU7
  67              		.loc 2 68 3 is_stmt 0 view .LVU8
  68              	.LBE1090:
  69              	.LBE1089:
  70              	.LBE1126:
  71              		.file 3 "stm32/stmf4lib.h"
   1:stm32/stmf4lib.h **** #ifndef STM32F4Lib_h
   2:stm32/stmf4lib.h **** #define STM32F4Lib_h
   3:stm32/stmf4lib.h **** 
   4:stm32/stmf4lib.h **** #include "stm32f4xx.h"
   5:stm32/stmf4lib.h **** #include <functional>
   6:stm32/stmf4lib.h **** #include <stdlib.h>
   7:stm32/stmf4lib.h **** #include <stdint.h>
   8:stm32/stmf4lib.h **** #include <limits>
   9:stm32/stmf4lib.h **** #include <cstring>
ARM GAS  /var/folders/84/_x1cyy_j36g486tldtwl37280000gn/T//ccQg3xDo.s 			page 4


  10:stm32/stmf4lib.h **** #include <cmath>
  11:stm32/stmf4lib.h **** 
  12:stm32/stmf4lib.h **** //#include <assert.h>
  13:stm32/stmf4lib.h **** //#include <algorithm>
  14:stm32/stmf4lib.h **** 
  15:stm32/stmf4lib.h **** #define CCM_RAM __attribute__((section(".ccmram")))
  16:stm32/stmf4lib.h **** #define FORCE_INLINE __attribute__((always_inline))
  17:stm32/stmf4lib.h **** 
  18:stm32/stmf4lib.h **** class stmlib {
  19:stm32/stmf4lib.h **** 
  20:stm32/stmf4lib.h **** public:
  21:stm32/stmf4lib.h **** 
  22:stm32/stmf4lib.h **** 	static inline int clip_min(int min, int value) {
  23:stm32/stmf4lib.h **** 		return value > min ? value : min;
  24:stm32/stmf4lib.h **** 	}
  25:stm32/stmf4lib.h **** 
  26:stm32/stmf4lib.h **** 	static inline int clip_max(int max, int value) {
  27:stm32/stmf4lib.h **** 		return value < max ? value : max;
  28:stm32/stmf4lib.h **** 	}
  29:stm32/stmf4lib.h **** 
  30:stm32/stmf4lib.h **** 	static inline int clip(int min, int max, int value) {
  31:stm32/stmf4lib.h **** 		return value > max ? max : (value < min ? min : value);
  72              		.loc 3 31 3 is_stmt 1 view .LVU9
  73              	.LBB1127:
  74              	.LBB1123:
  75              	.LBB1120:
  69:Src/Settings/scale.h **** 
  70:Src/Settings/scale.h **** 		switch (type_)
  71:Src/Settings/scale.h **** 		{
  72:Src/Settings/scale.h **** 		case MAJOR:
  73:Src/Settings/scale.h **** 			lut_ptr = lut_scale_major;
  76              		.loc 2 73 12 is_stmt 0 view .LVU10
  77 000a AD4D     		ldr	r5, .L93
  74:Src/Settings/scale.h **** 			lut_map_ptr = lut_scale_major_map;
  78              		.loc 2 74 16 view .LVU11
  79 000c AD4B     		ldr	r3, .L93+4
  80 000e 8360     		str	r3, [r0, #8]
  68:Src/Settings/scale.h **** 
  81              		.loc 2 68 9 view .LVU12
  82 0010 0020     		movs	r0, #0
  83              	.LVL2:
  68:Src/Settings/scale.h **** 
  84              		.loc 2 68 9 view .LVU13
  85              	.LBE1120:
  86              	.LBE1123:
  87              	.LBE1127:
  22:Src/Settings/song.h **** 		scale.init();
  88              		.loc 1 22 7 view .LVU14
  89 0012 A5B0     		sub	sp, sp, #148
  90              		.cfi_def_cfa_offset 192
  91              	.LBB1128:
  92              	.LBB1124:
  93              	.LBB1121:
  68:Src/Settings/scale.h **** 
  94              		.loc 2 68 9 view .LVU15
  95 0014 A8F80000 		strh	r0, [r8]	@ movhi
  70:Src/Settings/scale.h **** 		{
ARM GAS  /var/folders/84/_x1cyy_j36g486tldtwl37280000gn/T//ccQg3xDo.s 			page 5


  96              		.loc 2 70 3 is_stmt 1 view .LVU16
  72:Src/Settings/scale.h **** 			lut_ptr = lut_scale_major;
  97              		.loc 2 72 3 view .LVU17
  73:Src/Settings/scale.h **** 			lut_map_ptr = lut_scale_major_map;
  98              		.loc 2 73 4 view .LVU18
  99              	.LBB1091:
 100              	.LBB1092:
 101              	.LBB1093:
 102              	.LBB1094:
 103              		.file 4 "/Users/joostbooy/Desktop/Code/stm32/lib/utils/stack.h"
   1:/Users/joostbooy/Desktop/Code/stm32/lib/utils/stack.h **** #ifndef Stack_h
   2:/Users/joostbooy/Desktop/Code/stm32/lib/utils/stack.h **** #define Stack_h
   3:/Users/joostbooy/Desktop/Code/stm32/lib/utils/stack.h **** 
   4:/Users/joostbooy/Desktop/Code/stm32/lib/utils/stack.h **** 
   5:/Users/joostbooy/Desktop/Code/stm32/lib/utils/stack.h **** template <typename T, const uint8_t kMaxSize>
   6:/Users/joostbooy/Desktop/Code/stm32/lib/utils/stack.h **** class Stack {
   7:/Users/joostbooy/Desktop/Code/stm32/lib/utils/stack.h **** 
   8:/Users/joostbooy/Desktop/Code/stm32/lib/utils/stack.h **** public:
   9:/Users/joostbooy/Desktop/Code/stm32/lib/utils/stack.h **** 
  10:/Users/joostbooy/Desktop/Code/stm32/lib/utils/stack.h ****     inline void clear(){
  11:/Users/joostbooy/Desktop/Code/stm32/lib/utils/stack.h ****         size_ = 0;
 104              		.loc 4 11 9 is_stmt 0 view .LVU19
 105 0018 88F80C00 		strb	r0, [r8, #12]
 106              	.LBE1094:
 107              	.LBE1093:
 108              	.LBE1092:
 109              	.LBE1091:
  73:Src/Settings/scale.h **** 			lut_map_ptr = lut_scale_major_map;
 110              		.loc 2 73 12 view .LVU20
 111 001c C8F80450 		str	r5, [r8, #4]
 112              		.loc 2 74 4 is_stmt 1 view .LVU21
  75:Src/Settings/scale.h **** 			break;
 113              		.loc 2 75 4 view .LVU22
  76:Src/Settings/scale.h **** 		case MINOR:
  77:Src/Settings/scale.h **** 			lut_ptr = lut_scale_minor;
  78:Src/Settings/scale.h **** 			lut_map_ptr = lut_scale_minor_map;
  79:Src/Settings/scale.h **** 			break;
  80:Src/Settings/scale.h **** 		case MIXOLYDIAN:
  81:Src/Settings/scale.h **** 			lut_ptr = lut_scale_mixolydian;
  82:Src/Settings/scale.h **** 			lut_map_ptr = lut_scale_mixolydian_map;
  83:Src/Settings/scale.h **** 			break;
  84:Src/Settings/scale.h **** 		case DORIAN:
  85:Src/Settings/scale.h **** 			lut_ptr = lut_scale_dorian;
  86:Src/Settings/scale.h **** 			lut_map_ptr = lut_scale_dorian_map;
  87:Src/Settings/scale.h **** 			break;
  88:Src/Settings/scale.h **** 		case PHRYGIAN:
  89:Src/Settings/scale.h **** 			lut_ptr = lut_scale_phrygian;
  90:Src/Settings/scale.h **** 			lut_map_ptr = lut_scale_phrygian_map;
  91:Src/Settings/scale.h **** 			break;
  92:Src/Settings/scale.h **** 		case LYDIAN:
  93:Src/Settings/scale.h **** 			lut_ptr = lut_scale_lydian;
  94:Src/Settings/scale.h **** 			lut_map_ptr = lut_scale_lydian_map;
  95:Src/Settings/scale.h **** 			break;
  96:Src/Settings/scale.h **** 		case AEOLYIAN:
  97:Src/Settings/scale.h **** 			lut_ptr = lut_scale_aeolyian;
  98:Src/Settings/scale.h **** 			lut_map_ptr = lut_scale_aeolyian_map;
  99:Src/Settings/scale.h **** 			break;
ARM GAS  /var/folders/84/_x1cyy_j36g486tldtwl37280000gn/T//ccQg3xDo.s 			page 6


 100:Src/Settings/scale.h **** 		case LOCRIAN:
 101:Src/Settings/scale.h **** 			lut_ptr = lut_scale_locrian;
 102:Src/Settings/scale.h **** 			lut_map_ptr = lut_scale_locrian_map;
 103:Src/Settings/scale.h **** 			break;
 104:Src/Settings/scale.h **** 		default:
 105:Src/Settings/scale.h **** 			break;
 106:Src/Settings/scale.h **** 		}
 107:Src/Settings/scale.h **** 		make_keymap();
 114              		.loc 2 107 3 view .LVU23
 115              	.LVL3:
 116              	.LBB1118:
 117              	.LBI1091:
 108:Src/Settings/scale.h **** 	}
 109:Src/Settings/scale.h **** 
 110:Src/Settings/scale.h **** 	const char* type_text() {
 111:Src/Settings/scale.h **** 		return type_text(type());
 112:Src/Settings/scale.h **** 	}
 113:Src/Settings/scale.h **** 
 114:Src/Settings/scale.h **** 	// methods
 115:Src/Settings/scale.h **** 	inline uint8_t read(uint8_t index) {
 116:Src/Settings/scale.h **** 		return lut_ptr[index] + root_;
 117:Src/Settings/scale.h **** 	}
 118:Src/Settings/scale.h **** 
 119:Src/Settings/scale.h **** 	inline uint8_t read_map(uint8_t note) {
 120:Src/Settings/scale.h **** 		uint8_t scale_note = lut_map_ptr[note] + root_;
 121:Src/Settings/scale.h **** 		return scale_note > highest_note ? highest_note : scale_note;
 122:Src/Settings/scale.h **** 	}
 123:Src/Settings/scale.h **** 
 124:Src/Settings/scale.h **** 	inline uint8_t snap_and_transpose(uint8_t note) {
 125:Src/Settings/scale.h **** 		uint8_t oct = 0;
 126:Src/Settings/scale.h **** 		while (note >= 12){
 127:Src/Settings/scale.h **** 			note -= 12;
 128:Src/Settings/scale.h **** 			oct += 12;
 129:Src/Settings/scale.h **** 		}
 130:Src/Settings/scale.h **** 
 131:Src/Settings/scale.h **** 		uint8_t quantised_note;
 132:Src/Settings/scale.h **** 		for (uint8_t i = 0; i < NOTES_IN_SCALE; ++i) {
 133:Src/Settings/scale.h **** 			quantised_note = keymap.read(i);
 134:Src/Settings/scale.h **** 			if (quantised_note >= note) {
 135:Src/Settings/scale.h **** 				break;
 136:Src/Settings/scale.h **** 			}
 137:Src/Settings/scale.h **** 		}
 138:Src/Settings/scale.h **** 		quantised_note += oct;
 139:Src/Settings/scale.h **** 
 140:Src/Settings/scale.h **** 		return quantised_note > highest_note ? highest_note : quantised_note;
 141:Src/Settings/scale.h **** 	}
 142:Src/Settings/scale.h **** 
 143:Src/Settings/scale.h **** 	inline bool in_scale(uint8_t note) {
 144:Src/Settings/scale.h **** 		return snap_and_transpose(note) == note;
 145:Src/Settings/scale.h **** 	}
 146:Src/Settings/scale.h **** 
 147:Src/Settings/scale.h **** 	// storage
 148:Src/Settings/scale.h **** 	void load(FileReader &fileReader) {
 149:Src/Settings/scale.h **** 		fileReader.read(root_);
 150:Src/Settings/scale.h **** 		fileReader.read(type_);
 151:Src/Settings/scale.h **** 		set_root(root_);
 152:Src/Settings/scale.h **** 		set_type(type_);
ARM GAS  /var/folders/84/_x1cyy_j36g486tldtwl37280000gn/T//ccQg3xDo.s 			page 7


 153:Src/Settings/scale.h **** 	}
 154:Src/Settings/scale.h **** 
 155:Src/Settings/scale.h **** 	void save(FileWriter &fileWriter) {
 156:Src/Settings/scale.h **** 		fileWriter.write(root_);
 157:Src/Settings/scale.h **** 		fileWriter.write(type_);
 158:Src/Settings/scale.h **** 	}
 159:Src/Settings/scale.h **** 
 160:Src/Settings/scale.h **** private:
 161:Src/Settings/scale.h **** 	uint8_t type_;
 162:Src/Settings/scale.h **** 	uint8_t root_;
 163:Src/Settings/scale.h **** 	uint8_t highest_note;
 164:Src/Settings/scale.h **** 	const uint8_t *lut_ptr;
 165:Src/Settings/scale.h **** 	const uint8_t *lut_map_ptr;
 166:Src/Settings/scale.h **** 
 167:Src/Settings/scale.h **** 	Stack<uint8_t, NOTES_IN_SCALE>keymap;
 168:Src/Settings/scale.h **** 
 169:Src/Settings/scale.h **** 	inline void make_keymap() {
 118              		.loc 2 169 14 view .LVU24
 119              	.LBB1116:
 170:Src/Settings/scale.h **** 		keymap.clear();
 120              		.loc 2 170 3 view .LVU25
 121              	.LBB1095:
 122              	.LBI1093:
  10:/Users/joostbooy/Desktop/Code/stm32/lib/utils/stack.h ****         size_ = 0;
 123              		.loc 4 10 17 view .LVU26
  10:/Users/joostbooy/Desktop/Code/stm32/lib/utils/stack.h ****         size_ = 0;
 124              		.loc 4 10 17 is_stmt 0 view .LVU27
 125              	.LBE1095:
 171:Src/Settings/scale.h **** 
 172:Src/Settings/scale.h **** 		for (uint8_t i = 0; i < NOTES_IN_SCALE; ++i) {
 126              		.loc 2 172 3 is_stmt 1 view .LVU28
 127              	.LBB1096:
 128              		.loc 2 172 25 view .LVU29
 129 0020 05F1FF39 		add	r9, r5, #-1
 130              	.LVL4:
 131              	.L6:
 132              	.LBB1097:
 173:Src/Settings/scale.h **** 			uint8_t note = read(i) % 12;
 133              		.loc 2 173 29 is_stmt 0 view .LVU30
 134 0024 19F8011F 		ldrb	r1, [r9, #1]!	@ zero_extendqisi2
 135 0028 A74A     		ldr	r2, .L93+8
 136 002a A2FB0124 		umull	r2, r4, r2, r1
 137 002e E608     		lsrs	r6, r4, #3
 138 0030 06EB4607 		add	r7, r6, r6, lsl #1
 139 0034 A1EB8705 		sub	r5, r1, r7, lsl #2
 140 0038 E9B2     		uxtb	r1, r5
 141 003a C7B2     		uxtb	r7, r0
 142              	.LVL5:
 143              		.loc 2 173 4 is_stmt 1 view .LVU31
 144              	.LBB1098:
 145              	.LBI1098:
 115:Src/Settings/scale.h **** 		return lut_ptr[index] + root_;
 146              		.loc 2 115 17 view .LVU32
 147              	.LBB1099:
 116:Src/Settings/scale.h **** 	}
 148              		.loc 2 116 3 view .LVU33
 116:Src/Settings/scale.h **** 	}
ARM GAS  /var/folders/84/_x1cyy_j36g486tldtwl37280000gn/T//ccQg3xDo.s 			page 8


 149              		.loc 2 116 3 is_stmt 0 view .LVU34
 150              	.LBE1099:
 151              	.LBE1098:
 174:Src/Settings/scale.h **** 			keymap.sort(note);
 152              		.loc 2 174 4 is_stmt 1 view .LVU35
 153              	.LBB1100:
 154              	.LBI1100:
  12:/Users/joostbooy/Desktop/Code/stm32/lib/utils/stack.h ****     }
  13:/Users/joostbooy/Desktop/Code/stm32/lib/utils/stack.h **** 
  14:/Users/joostbooy/Desktop/Code/stm32/lib/utils/stack.h ****     inline uint8_t size(){
  15:/Users/joostbooy/Desktop/Code/stm32/lib/utils/stack.h ****         return size_;
  16:/Users/joostbooy/Desktop/Code/stm32/lib/utils/stack.h ****     }
  17:/Users/joostbooy/Desktop/Code/stm32/lib/utils/stack.h **** 
  18:/Users/joostbooy/Desktop/Code/stm32/lib/utils/stack.h ****     inline bool readable(){
  19:/Users/joostbooy/Desktop/Code/stm32/lib/utils/stack.h ****         return size_ > 0;
  20:/Users/joostbooy/Desktop/Code/stm32/lib/utils/stack.h ****     }
  21:/Users/joostbooy/Desktop/Code/stm32/lib/utils/stack.h **** 
  22:/Users/joostbooy/Desktop/Code/stm32/lib/utils/stack.h ****     inline bool writeable(){
  23:/Users/joostbooy/Desktop/Code/stm32/lib/utils/stack.h ****         return size_ < kMaxSize;
  24:/Users/joostbooy/Desktop/Code/stm32/lib/utils/stack.h ****     }
  25:/Users/joostbooy/Desktop/Code/stm32/lib/utils/stack.h **** 
  26:/Users/joostbooy/Desktop/Code/stm32/lib/utils/stack.h **** 	inline uint8_t available() {
  27:/Users/joostbooy/Desktop/Code/stm32/lib/utils/stack.h **** 		return kMaxSize - size_;
  28:/Users/joostbooy/Desktop/Code/stm32/lib/utils/stack.h **** 	}
  29:/Users/joostbooy/Desktop/Code/stm32/lib/utils/stack.h **** 
  30:/Users/joostbooy/Desktop/Code/stm32/lib/utils/stack.h ****     //Reading
  31:/Users/joostbooy/Desktop/Code/stm32/lib/utils/stack.h ****     inline T pop(){
  32:/Users/joostbooy/Desktop/Code/stm32/lib/utils/stack.h ****         --size_;
  33:/Users/joostbooy/Desktop/Code/stm32/lib/utils/stack.h ****         return data[size_];
  34:/Users/joostbooy/Desktop/Code/stm32/lib/utils/stack.h ****     }
  35:/Users/joostbooy/Desktop/Code/stm32/lib/utils/stack.h **** 
  36:/Users/joostbooy/Desktop/Code/stm32/lib/utils/stack.h ****     inline T pull(){
  37:/Users/joostbooy/Desktop/Code/stm32/lib/utils/stack.h ****         T value = data[0];
  38:/Users/joostbooy/Desktop/Code/stm32/lib/utils/stack.h ****         remove_indexed(0);
  39:/Users/joostbooy/Desktop/Code/stm32/lib/utils/stack.h ****         return value;
  40:/Users/joostbooy/Desktop/Code/stm32/lib/utils/stack.h ****     }
  41:/Users/joostbooy/Desktop/Code/stm32/lib/utils/stack.h **** 
  42:/Users/joostbooy/Desktop/Code/stm32/lib/utils/stack.h **** 	// -1 if not found
  43:/Users/joostbooy/Desktop/Code/stm32/lib/utils/stack.h ****     inline int find(T value){
  44:/Users/joostbooy/Desktop/Code/stm32/lib/utils/stack.h ****         int idx = -1;
  45:/Users/joostbooy/Desktop/Code/stm32/lib/utils/stack.h ****         for (uint8_t i = 0; i < size_; ++i) {
  46:/Users/joostbooy/Desktop/Code/stm32/lib/utils/stack.h ****             if(data[i] == value){
  47:/Users/joostbooy/Desktop/Code/stm32/lib/utils/stack.h ****                 idx = i;
  48:/Users/joostbooy/Desktop/Code/stm32/lib/utils/stack.h ****                 break;
  49:/Users/joostbooy/Desktop/Code/stm32/lib/utils/stack.h ****             }
  50:/Users/joostbooy/Desktop/Code/stm32/lib/utils/stack.h ****         }
  51:/Users/joostbooy/Desktop/Code/stm32/lib/utils/stack.h ****         return idx;
  52:/Users/joostbooy/Desktop/Code/stm32/lib/utils/stack.h ****     }
  53:/Users/joostbooy/Desktop/Code/stm32/lib/utils/stack.h **** 
  54:/Users/joostbooy/Desktop/Code/stm32/lib/utils/stack.h ****     inline T read(uint8_t idx){
  55:/Users/joostbooy/Desktop/Code/stm32/lib/utils/stack.h ****         return data[idx];
  56:/Users/joostbooy/Desktop/Code/stm32/lib/utils/stack.h ****     }
  57:/Users/joostbooy/Desktop/Code/stm32/lib/utils/stack.h **** 
  58:/Users/joostbooy/Desktop/Code/stm32/lib/utils/stack.h **** 	inline T* pointer(){
  59:/Users/joostbooy/Desktop/Code/stm32/lib/utils/stack.h ****         return &data[0];
  60:/Users/joostbooy/Desktop/Code/stm32/lib/utils/stack.h ****     }
  61:/Users/joostbooy/Desktop/Code/stm32/lib/utils/stack.h **** 
ARM GAS  /var/folders/84/_x1cyy_j36g486tldtwl37280000gn/T//ccQg3xDo.s 			page 9


  62:/Users/joostbooy/Desktop/Code/stm32/lib/utils/stack.h ****     //Writing
  63:/Users/joostbooy/Desktop/Code/stm32/lib/utils/stack.h ****     inline void push(T value){
  64:/Users/joostbooy/Desktop/Code/stm32/lib/utils/stack.h ****         data[size_] = value;
  65:/Users/joostbooy/Desktop/Code/stm32/lib/utils/stack.h ****         ++size_;
  66:/Users/joostbooy/Desktop/Code/stm32/lib/utils/stack.h ****     }
  67:/Users/joostbooy/Desktop/Code/stm32/lib/utils/stack.h **** 
  68:/Users/joostbooy/Desktop/Code/stm32/lib/utils/stack.h ****     inline void replace(uint8_t idx, T value){
  69:/Users/joostbooy/Desktop/Code/stm32/lib/utils/stack.h ****         data[idx] = value;
  70:/Users/joostbooy/Desktop/Code/stm32/lib/utils/stack.h ****     }
  71:/Users/joostbooy/Desktop/Code/stm32/lib/utils/stack.h **** 
  72:/Users/joostbooy/Desktop/Code/stm32/lib/utils/stack.h **** 	inline bool remove_value(T value) {
  73:/Users/joostbooy/Desktop/Code/stm32/lib/utils/stack.h **** 		int idx = find(value);
  74:/Users/joostbooy/Desktop/Code/stm32/lib/utils/stack.h **** 		if (idx >= 0) {
  75:/Users/joostbooy/Desktop/Code/stm32/lib/utils/stack.h **** 			remove_indexed(idx);
  76:/Users/joostbooy/Desktop/Code/stm32/lib/utils/stack.h **** 		}
  77:/Users/joostbooy/Desktop/Code/stm32/lib/utils/stack.h **** 		return idx >= 0;
  78:/Users/joostbooy/Desktop/Code/stm32/lib/utils/stack.h **** 	}
  79:/Users/joostbooy/Desktop/Code/stm32/lib/utils/stack.h **** 
  80:/Users/joostbooy/Desktop/Code/stm32/lib/utils/stack.h ****     inline void remove_indexed(uint8_t idx){
  81:/Users/joostbooy/Desktop/Code/stm32/lib/utils/stack.h ****         for (int i = idx; i < size_; ++i) {
  82:/Users/joostbooy/Desktop/Code/stm32/lib/utils/stack.h ****             data[i] = data[i + 1];
  83:/Users/joostbooy/Desktop/Code/stm32/lib/utils/stack.h ****         }
  84:/Users/joostbooy/Desktop/Code/stm32/lib/utils/stack.h ****         --size_;
  85:/Users/joostbooy/Desktop/Code/stm32/lib/utils/stack.h ****     }
  86:/Users/joostbooy/Desktop/Code/stm32/lib/utils/stack.h **** 
  87:/Users/joostbooy/Desktop/Code/stm32/lib/utils/stack.h ****     inline void insert(uint8_t idx, T value){
  88:/Users/joostbooy/Desktop/Code/stm32/lib/utils/stack.h ****         for (int i = size_; i > idx; --i) {
  89:/Users/joostbooy/Desktop/Code/stm32/lib/utils/stack.h ****             data[i] = data[i - 1];
  90:/Users/joostbooy/Desktop/Code/stm32/lib/utils/stack.h ****         }
  91:/Users/joostbooy/Desktop/Code/stm32/lib/utils/stack.h ****         data[idx] = value;
  92:/Users/joostbooy/Desktop/Code/stm32/lib/utils/stack.h ****         ++size_;
  93:/Users/joostbooy/Desktop/Code/stm32/lib/utils/stack.h ****     }
  94:/Users/joostbooy/Desktop/Code/stm32/lib/utils/stack.h **** 
  95:/Users/joostbooy/Desktop/Code/stm32/lib/utils/stack.h ****     //Ascending order. Only sorts the inserted value
  96:/Users/joostbooy/Desktop/Code/stm32/lib/utils/stack.h ****     inline void sort(T value){
 155              		.loc 4 96 17 view .LVU36
 156              	.LBB1101:
  97:/Users/joostbooy/Desktop/Code/stm32/lib/utils/stack.h ****         uint8_t idx = size_;
  98:/Users/joostbooy/Desktop/Code/stm32/lib/utils/stack.h **** 
  99:/Users/joostbooy/Desktop/Code/stm32/lib/utils/stack.h ****         while((idx) && (data[idx - 1] >= value)) {
 157              		.loc 4 99 21 view .LVU37
 158 003c 0028     		cmp	r0, #0
 159 003e 00F03781 		beq	.L4
 160 0042 08F10D0A 		add	r10, r8, #13
 161 0046 8244     		add	r10, r10, r0
 162 0048 0346     		mov	r3, r0
 163 004a 04E0     		b	.L5
 164              	.LVL6:
 165              	.L90:
 166              		.loc 4 99 21 is_stmt 0 view .LVU38
 167 004c 013B     		subs	r3, r3, #1
 168              	.LVL7:
 100:/Users/joostbooy/Desktop/Code/stm32/lib/utils/stack.h ****             data[idx] = data[idx - 1];
 169              		.loc 4 100 13 view .LVU39
 170 004e 0AF80129 		strb	r2, [r10], #-1
  99:/Users/joostbooy/Desktop/Code/stm32/lib/utils/stack.h ****             data[idx] = data[idx - 1];
 171              		.loc 4 99 21 is_stmt 1 view .LVU40
ARM GAS  /var/folders/84/_x1cyy_j36g486tldtwl37280000gn/T//ccQg3xDo.s 			page 10


 172 0052 00F02D81 		beq	.L4
 173              	.L5:
 174              	.LVL8:
  99:/Users/joostbooy/Desktop/Code/stm32/lib/utils/stack.h ****             data[idx] = data[idx - 1];
 175              		.loc 4 99 29 is_stmt 0 view .LVU41
 176 0056 1AF8012C 		ldrb	r2, [r10, #-1]	@ zero_extendqisi2
  99:/Users/joostbooy/Desktop/Code/stm32/lib/utils/stack.h ****             data[idx] = data[idx - 1];
 177              		.loc 4 99 21 view .LVU42
 178 005a 9142     		cmp	r1, r2
  99:/Users/joostbooy/Desktop/Code/stm32/lib/utils/stack.h ****             data[idx] = data[idx - 1];
 179              		.loc 4 99 30 view .LVU43
 180 005c 9B46     		mov	fp, r3
  99:/Users/joostbooy/Desktop/Code/stm32/lib/utils/stack.h ****             data[idx] = data[idx - 1];
 181              		.loc 4 99 21 view .LVU44
 182 005e F5D9     		bls	.L90
 183              	.LVL9:
 184              	.L3:
 101:/Users/joostbooy/Desktop/Code/stm32/lib/utils/stack.h ****             --idx;
 102:/Users/joostbooy/Desktop/Code/stm32/lib/utils/stack.h ****         }
 103:/Users/joostbooy/Desktop/Code/stm32/lib/utils/stack.h **** 
 104:/Users/joostbooy/Desktop/Code/stm32/lib/utils/stack.h ****         data[idx] = value;
 185              		.loc 4 104 9 view .LVU45
 186 0060 C344     		add	fp, fp, r8
 187 0062 0130     		adds	r0, r0, #1
 105:/Users/joostbooy/Desktop/Code/stm32/lib/utils/stack.h ****         ++size_;
 188              		.loc 4 105 9 view .LVU46
 189 0064 7C1C     		adds	r4, r7, #1
 190              	.LBE1101:
 191              	.LBE1100:
 192              	.LBE1097:
 172:Src/Settings/scale.h **** 			uint8_t note = read(i) % 12;
 193              		.loc 2 172 25 view .LVU47
 194 0066 0728     		cmp	r0, #7
 195              	.LBB1106:
 196              	.LBB1104:
 197              	.LBB1102:
 104:/Users/joostbooy/Desktop/Code/stm32/lib/utils/stack.h ****         ++size_;
 198              		.loc 4 104 9 view .LVU48
 199 0068 8BF80D10 		strb	r1, [fp, #13]
 200              		.loc 4 105 9 view .LVU49
 201 006c 88F80C40 		strb	r4, [r8, #12]
 202              	.LBE1102:
 203              	.LBE1104:
 204              	.LBE1106:
 172:Src/Settings/scale.h **** 			uint8_t note = read(i) % 12;
 205              		.loc 2 172 3 is_stmt 1 view .LVU50
 172:Src/Settings/scale.h **** 			uint8_t note = read(i) % 12;
 206              		.loc 2 172 25 view .LVU51
 207 0070 D8D1     		bne	.L6
 208              	.LBE1096:
 175:Src/Settings/scale.h **** 		}
 176:Src/Settings/scale.h **** 
 177:Src/Settings/scale.h **** 		int8_t oct = 120;
 209              		.loc 2 177 3 view .LVU52
 210              	.LVL10:
 178:Src/Settings/scale.h **** 		highest_note = 0;
 211              		.loc 2 178 3 view .LVU53
ARM GAS  /var/folders/84/_x1cyy_j36g486tldtwl37280000gn/T//ccQg3xDo.s 			page 11


 212              		.loc 2 178 16 is_stmt 0 view .LVU54
 213 0072 0027     		movs	r7, #0
 214 0074 88F80270 		strb	r7, [r8, #2]
 179:Src/Settings/scale.h **** 
 180:Src/Settings/scale.h **** 		while (oct >= 0 && highest_note == 0) {
 215              		.loc 2 180 3 is_stmt 1 view .LVU55
 216              		.loc 2 180 19 view .LVU56
 177:Src/Settings/scale.h **** 		highest_note = 0;
 217              		.loc 2 177 10 is_stmt 0 view .LVU57
 218 0078 7821     		movs	r1, #120
 219              	.LVL11:
 220              	.L7:
 221              	.LBB1108:
 222              	.LBB1109:
 223              	.LBB1110:
 181:Src/Settings/scale.h **** 			for (int i = 0; i < NOTES_IN_SCALE; ++i) {
 182:Src/Settings/scale.h **** 				uint16_t note = keymap.read(i) + oct;
 224              		.loc 2 182 5 is_stmt 1 view .LVU58
 225              	.LBB1111:
 226              	.LBI1111:
  54:/Users/joostbooy/Desktop/Code/stm32/lib/utils/stack.h ****         return data[idx];
 227              		.loc 4 54 14 view .LVU59
  54:/Users/joostbooy/Desktop/Code/stm32/lib/utils/stack.h ****         return data[idx];
 228              		.loc 4 54 14 is_stmt 0 view .LVU60
 229              	.LBE1111:
 230              	.LBE1110:
 181:Src/Settings/scale.h **** 			for (int i = 0; i < NOTES_IN_SCALE; ++i) {
 231              		.loc 2 181 4 is_stmt 1 view .LVU61
 181:Src/Settings/scale.h **** 			for (int i = 0; i < NOTES_IN_SCALE; ++i) {
 232              		.loc 2 181 22 view .LVU62
 233              	.LBB1114:
 234              	.LBB1113:
 235              	.LBB1112:
  55:/Users/joostbooy/Desktop/Code/stm32/lib/utils/stack.h ****     }
 236              		.loc 4 55 24 is_stmt 0 view .LVU63
 237 007a 08EB070C 		add	ip, r8, r7
 238              	.LBE1112:
 239              	.LBE1113:
 240              		.loc 2 182 32 view .LVU64
 241 007e 0137     		adds	r7, r7, #1
 242              	.LVL12:
 243              		.loc 2 182 32 view .LVU65
 244 0080 9CF80D60 		ldrb	r6, [ip, #13]	@ zero_extendqisi2
 245              		.loc 2 182 36 view .LVU66
 246 0084 0E44     		add	r6, r6, r1
 247              	.LVL13:
 183:Src/Settings/scale.h **** 				if (note < 128 && note > highest_note) {
 248              		.loc 2 183 5 is_stmt 1 view .LVU67
 249 0086 7F2E     		cmp	r6, #127
 250              		.loc 2 183 20 is_stmt 0 view .LVU68
 251 0088 1FFA86FE 		uxth	lr, r6
 252              		.loc 2 183 5 view .LVU69
 253 008c 05DC     		bgt	.L9
 184:Src/Settings/scale.h **** 					highest_note = note;
 254              		.loc 2 184 6 is_stmt 1 view .LVU70
 183:Src/Settings/scale.h **** 				if (note < 128 && note > highest_note) {
 255              		.loc 2 183 20 is_stmt 0 view .LVU71
ARM GAS  /var/folders/84/_x1cyy_j36g486tldtwl37280000gn/T//ccQg3xDo.s 			page 12


 256 008e 98F80200 		ldrb	r0, [r8, #2]	@ zero_extendqisi2
 257 0092 7045     		cmp	r0, lr
 258              		.loc 2 184 19 view .LVU72
 259 0094 38BF     		it	cc
 260 0096 88F80260 		strbcc	r6, [r8, #2]
 261              	.L9:
 262              	.LBE1114:
 181:Src/Settings/scale.h **** 				uint16_t note = keymap.read(i) + oct;
 263              		.loc 2 181 22 view .LVU73
 264 009a 072F     		cmp	r7, #7
 265 009c EDD1     		bne	.L7
 266              	.LBE1109:
 185:Src/Settings/scale.h **** 				}
 186:Src/Settings/scale.h **** 			}
 187:Src/Settings/scale.h **** 			oct -= 12;
 267              		.loc 2 187 4 is_stmt 1 view .LVU74
 268              		.loc 2 187 8 is_stmt 0 view .LVU75
 269 009e A1F10C05 		sub	r5, r1, #12
 270 00a2 69B2     		sxtb	r1, r5
 271              	.LVL14:
 272              		.loc 2 187 8 view .LVU76
 273              	.LBE1108:
 180:Src/Settings/scale.h **** 			for (int i = 0; i < NOTES_IN_SCALE; ++i) {
 274              		.loc 2 180 3 is_stmt 1 view .LVU77
 180:Src/Settings/scale.h **** 			for (int i = 0; i < NOTES_IN_SCALE; ++i) {
 275              		.loc 2 180 19 view .LVU78
 276 00a4 0029     		cmp	r1, #0
 277 00a6 03DB     		blt	.L8
 278 00a8 98F80270 		ldrb	r7, [r8, #2]	@ zero_extendqisi2
 279              	.LVL15:
 180:Src/Settings/scale.h **** 			for (int i = 0; i < NOTES_IN_SCALE; ++i) {
 280              		.loc 2 180 19 is_stmt 0 view .LVU79
 281 00ac 002F     		cmp	r7, #0
 282 00ae E4D0     		beq	.L7
 283              	.L8:
 284              	.LVL16:
 180:Src/Settings/scale.h **** 			for (int i = 0; i < NOTES_IN_SCALE; ++i) {
 285              		.loc 2 180 19 view .LVU80
 286              	.LBE1116:
 287              	.LBE1118:
 288              	.LBE1121:
 289              	.LBE1124:
 290              	.LBE1128:
  24:Src/Settings/song.h **** 		midiClock.init();
 291              		.loc 1 24 3 is_stmt 1 view .LVU81
 292              	.LBB1129:
 293              	.LBI1129:
 294              		.file 5 "Src/Settings/midiClock.h"
   1:Src/Settings/midiClock.h **** #ifndef MidiClock_h
   2:Src/Settings/midiClock.h **** #define MidiClock_h
   3:Src/Settings/midiClock.h **** 
   4:Src/Settings/midiClock.h **** #include "uiText.h"
   5:Src/Settings/midiClock.h **** #include "midiPort.h"
   6:Src/Settings/midiClock.h **** #include "fileWriter.h"
   7:Src/Settings/midiClock.h **** #include "fileReader.h"
   8:Src/Settings/midiClock.h **** #include "lookupTables.h"
   9:Src/Settings/midiClock.h **** 
ARM GAS  /var/folders/84/_x1cyy_j36g486tldtwl37280000gn/T//ccQg3xDo.s 			page 13


  10:Src/Settings/midiClock.h **** class MidiClock {
  11:Src/Settings/midiClock.h **** 
  12:Src/Settings/midiClock.h **** public:
  13:Src/Settings/midiClock.h **** 
  14:Src/Settings/midiClock.h **** 	void init() {
 295              		.loc 5 14 7 view .LVU82
 296              	.LBB1130:
  15:Src/Settings/midiClock.h **** 		set_sync_port(INTERNAL);	// needs to be first
 297              		.loc 5 15 3 view .LVU83
 298              	.LBB1131:
 299              	.LBI1131:
  16:Src/Settings/midiClock.h **** 		set_bpm(120);
  17:Src/Settings/midiClock.h **** 		set_bpm_fractional(0);
  18:Src/Settings/midiClock.h **** 
  19:Src/Settings/midiClock.h **** 		ext_bpm_ = 120;
  20:Src/Settings/midiClock.h **** 
  21:Src/Settings/midiClock.h **** 		reset();
  22:Src/Settings/midiClock.h **** 	}
  23:Src/Settings/midiClock.h **** 
  24:Src/Settings/midiClock.h **** 	enum SyncPort {
  25:Src/Settings/midiClock.h **** 		EXTERNAL = MidiPort::NUM_PORTS - 1,
  26:Src/Settings/midiClock.h **** 		INTERNAL,
  27:Src/Settings/midiClock.h **** 
  28:Src/Settings/midiClock.h **** 		NUM_SYNC_PORTS
  29:Src/Settings/midiClock.h **** 	};
  30:Src/Settings/midiClock.h **** 
  31:Src/Settings/midiClock.h **** 	const char* sync_port_text(int value) {
  32:Src/Settings/midiClock.h **** 		if (value <= EXTERNAL) {
  33:Src/Settings/midiClock.h **** 			return MidiPort::port_text(value);
  34:Src/Settings/midiClock.h **** 		} else {
  35:Src/Settings/midiClock.h **** 			return "INTERNAL";
  36:Src/Settings/midiClock.h **** 		}
  37:Src/Settings/midiClock.h **** 	}
  38:Src/Settings/midiClock.h **** 
  39:Src/Settings/midiClock.h **** 	// bpm
  40:Src/Settings/midiClock.h **** 	uint16_t bpm() {
  41:Src/Settings/midiClock.h **** 		return bpm_;
  42:Src/Settings/midiClock.h **** 	}
  43:Src/Settings/midiClock.h **** 
  44:Src/Settings/midiClock.h **** 	void set_bpm(int value) {
  45:Src/Settings/midiClock.h **** 		if (sync_port() == INTERNAL) {
  46:Src/Settings/midiClock.h **** 			bpm_ = stmlib::clip(0, MAX_BPM - 1, value);
  47:Src/Settings/midiClock.h **** 			update_inc(bpm(), bpm_fractional());
  48:Src/Settings/midiClock.h **** 		}
  49:Src/Settings/midiClock.h **** 	}
  50:Src/Settings/midiClock.h **** 
  51:Src/Settings/midiClock.h **** 	// bpm fractional
  52:Src/Settings/midiClock.h **** 	uint16_t bpm_fractional() {
  53:Src/Settings/midiClock.h **** 		return bpm_fractional_;
  54:Src/Settings/midiClock.h **** 	}
  55:Src/Settings/midiClock.h **** 
  56:Src/Settings/midiClock.h **** 	void set_bpm_fractional(int value) {
  57:Src/Settings/midiClock.h **** 		if (sync_port() == INTERNAL) {
  58:Src/Settings/midiClock.h **** 			bpm_fractional_ = stmlib::clip(0, MAX_BPM_FRACTIONAL - 1, value);
  59:Src/Settings/midiClock.h **** 			update_inc(bpm(), bpm_fractional());
  60:Src/Settings/midiClock.h **** 		}
  61:Src/Settings/midiClock.h **** 	}
ARM GAS  /var/folders/84/_x1cyy_j36g486tldtwl37280000gn/T//ccQg3xDo.s 			page 14


  62:Src/Settings/midiClock.h **** 
  63:Src/Settings/midiClock.h **** 	const char* bpm_text() {
  64:Src/Settings/midiClock.h **** 		if (sync_port() == INTERNAL) {
  65:Src/Settings/midiClock.h **** 			return UiText::str.write(bpm(), ".", bpm_fractional());
  66:Src/Settings/midiClock.h **** 		}  else {
  67:Src/Settings/midiClock.h **** 			return UiText::str.write("EXT ", ext_bpm_, ".0");
  68:Src/Settings/midiClock.h **** 		}
  69:Src/Settings/midiClock.h **** 	}
  70:Src/Settings/midiClock.h **** 
  71:Src/Settings/midiClock.h **** 	// sync port
  72:Src/Settings/midiClock.h **** 	uint8_t sync_port() {
  73:Src/Settings/midiClock.h **** 		return sync_port_;
  74:Src/Settings/midiClock.h **** 	}
  75:Src/Settings/midiClock.h **** 
  76:Src/Settings/midiClock.h **** 	void set_sync_port(int value) {
 300              		.loc 5 76 7 view .LVU84
 301              	.LBB1132:
  77:Src/Settings/midiClock.h **** 		sync_port_ = stmlib::clip(0, NUM_SYNC_PORTS - 1, value);
 302              		.loc 5 77 3 view .LVU85
 303              		.loc 5 77 3 is_stmt 0 view .LVU86
 304              	.LBE1132:
 305              	.LBE1131:
 306              	.LBE1130:
 307              	.LBE1129:
 308              		.loc 3 31 3 is_stmt 1 view .LVU87
 309              	.LBB1201:
 310              	.LBB1193:
 311              	.LBB1134:
 312              	.LBB1135:
 313              	.LBB1136:
 314              	.LBB1137:
 315              	.LBB1138:
  78:Src/Settings/midiClock.h **** 	}
  79:Src/Settings/midiClock.h **** 
  80:Src/Settings/midiClock.h **** 	const char* sync_port_text() {
  81:Src/Settings/midiClock.h **** 		return sync_port_text(sync_port());
  82:Src/Settings/midiClock.h **** 	}
  83:Src/Settings/midiClock.h **** 
  84:Src/Settings/midiClock.h **** 
  85:Src/Settings/midiClock.h **** 	/***************
  86:Src/Settings/midiClock.h **** 	*	Methods
  87:Src/Settings/midiClock.h **** 	***************/
  88:Src/Settings/midiClock.h **** 
  89:Src/Settings/midiClock.h **** 	inline void reset() {
  90:Src/Settings/midiClock.h **** 		ticks = 0;
  91:Src/Settings/midiClock.h **** 		isr_ticks = 0;
  92:Src/Settings/midiClock.h **** 		isr_average = 0;
  93:Src/Settings/midiClock.h **** 		tempo_phase = 0;
  94:Src/Settings/midiClock.h **** 	}
  95:Src/Settings/midiClock.h **** 
  96:Src/Settings/midiClock.h **** 	inline bool tick() {
  97:Src/Settings/midiClock.h **** 		++isr_ticks;
  98:Src/Settings/midiClock.h **** 		tempo_phase += tempo_inc;
  99:Src/Settings/midiClock.h **** 		return tempo_phase < tempo_inc;
 100:Src/Settings/midiClock.h **** 	}
 101:Src/Settings/midiClock.h **** 
 102:Src/Settings/midiClock.h **** 	inline void sync_bpm() {
ARM GAS  /var/folders/84/_x1cyy_j36g486tldtwl37280000gn/T//ccQg3xDo.s 			page 15


 103:Src/Settings/midiClock.h **** 		isr_average += isr_ticks;
 104:Src/Settings/midiClock.h **** 
 105:Src/Settings/midiClock.h **** 		if (((++num_readings % 4) == 0) && isr_average > 0) {
 106:Src/Settings/midiClock.h **** 			ext_bpm_ = uint32_t(45000000UL * 60UL / 24UL / (kUpdatePeriod * (isr_average / 4)));
 107:Src/Settings/midiClock.h **** 			update_inc(ext_bpm_, 0);
 108:Src/Settings/midiClock.h **** 			isr_average = 0;
 109:Src/Settings/midiClock.h **** 		}
 110:Src/Settings/midiClock.h **** 
 111:Src/Settings/midiClock.h **** 		isr_ticks = 0;
 112:Src/Settings/midiClock.h **** 	}
 113:Src/Settings/midiClock.h **** 
 114:Src/Settings/midiClock.h **** 	void save(FileWriter &fileWriter) {
 115:Src/Settings/midiClock.h **** 		fileWriter.write(bpm_);
 116:Src/Settings/midiClock.h **** 		fileWriter.write(bpm_fractional_);
 117:Src/Settings/midiClock.h **** 		fileWriter.write(sync_port_);
 118:Src/Settings/midiClock.h **** 	}
 119:Src/Settings/midiClock.h **** 
 120:Src/Settings/midiClock.h **** 	void load(FileReader &fileReader) {
 121:Src/Settings/midiClock.h **** 		fileReader.read(bpm_);
 122:Src/Settings/midiClock.h **** 		fileReader.read(bpm_fractional_);
 123:Src/Settings/midiClock.h **** 		fileReader.read(sync_port_);
 124:Src/Settings/midiClock.h **** 		update_inc(bpm_, bpm_fractional_);
 125:Src/Settings/midiClock.h **** 	}
 126:Src/Settings/midiClock.h **** 
 127:Src/Settings/midiClock.h **** private:
 128:Src/Settings/midiClock.h **** 	uint16_t bpm_ = 120;
 129:Src/Settings/midiClock.h **** 	uint16_t bpm_fractional_ = 0;
 130:Src/Settings/midiClock.h **** 	uint8_t sync_port_;
 131:Src/Settings/midiClock.h **** 
 132:Src/Settings/midiClock.h **** 	volatile uint16_t ext_bpm_;
 133:Src/Settings/midiClock.h **** 	volatile uint32_t tempo_inc, tempo_phase, ticks, isr_ticks, isr_average;
 134:Src/Settings/midiClock.h **** 	volatile uint8_t num_readings = 0;
 135:Src/Settings/midiClock.h **** 	static const uint32_t kUpdatePeriod = 45000000UL / CLOCK_ISR_FREQ;
 136:Src/Settings/midiClock.h **** 
 137:Src/Settings/midiClock.h **** 	inline void update_inc(uint16_t bpm, uint8_t fractional) {
 138:Src/Settings/midiClock.h **** 		tempo_inc = lut_bpm_inc[bpm] + lut_bpm_fractional_inc[fractional];
 316              		.loc 5 138 67 is_stmt 0 view .LVU88
 317 00b0 864A     		ldr	r2, .L93+12
 318              		.loc 5 138 57 view .LVU89
 319 00b2 98F81690 		ldrb	r9, [r8, #22]	@ zero_extendqisi2
 320              		.loc 5 138 30 view .LVU90
 321 00b6 864E     		ldr	r6, .L93+16
 322              	.LBE1138:
 323              	.LBE1137:
 324              	.LBE1136:
 325              	.LBE1135:
 326              	.LBE1134:
 327              	.LBB1155:
 328              	.LBB1133:
  77:Src/Settings/midiClock.h **** 		sync_port_ = stmlib::clip(0, NUM_SYNC_PORTS - 1, value);
 329              		.loc 5 77 14 view .LVU91
 330 00b8 0524     		movs	r4, #5
 331 00ba 88F81840 		strb	r4, [r8, #24]
 332              	.LVL17:
  77:Src/Settings/midiClock.h **** 		sync_port_ = stmlib::clip(0, NUM_SYNC_PORTS - 1, value);
 333              		.loc 5 77 14 view .LVU92
 334              	.LBE1133:
ARM GAS  /var/folders/84/_x1cyy_j36g486tldtwl37280000gn/T//ccQg3xDo.s 			page 16


 335              	.LBE1155:
  16:Src/Settings/midiClock.h **** 		set_bpm_fractional(0);
 336              		.loc 5 16 3 is_stmt 1 view .LVU93
 337              	.LBB1156:
 338              	.LBI1134:
  44:Src/Settings/midiClock.h **** 		if (sync_port() == INTERNAL) {
 339              		.loc 5 44 7 view .LVU94
 340              	.LBE1156:
 341              	.LBE1193:
 342              	.LBE1201:
  45:Src/Settings/midiClock.h **** 			bpm_ = stmlib::clip(0, MAX_BPM - 1, value);
 343              		.loc 5 45 3 view .LVU95
  73:Src/Settings/midiClock.h **** 	}
 344              		.loc 5 73 3 view .LVU96
 345              	.LBB1202:
 346              	.LBB1194:
 347              	.LBB1157:
 348              	.LBB1150:
 349              	.LBI1135:
  44:Src/Settings/midiClock.h **** 		if (sync_port() == INTERNAL) {
 350              		.loc 5 44 7 view .LVU97
 351              	.LBB1145:
  46:Src/Settings/midiClock.h **** 			update_inc(bpm(), bpm_fractional());
 352              		.loc 5 46 4 view .LVU98
  46:Src/Settings/midiClock.h **** 			update_inc(bpm(), bpm_fractional());
 353              		.loc 5 46 4 is_stmt 0 view .LVU99
 354              	.LBE1145:
 355              	.LBE1150:
 356              	.LBE1157:
 357              	.LBE1194:
 358              	.LBE1202:
 359              		.loc 3 31 3 is_stmt 1 view .LVU100
 360              	.LBB1203:
 361              	.LBB1195:
 362              	.LBB1158:
 363              	.LBB1151:
 364              	.LBB1146:
 365              	.LBB1141:
 366              	.LBB1139:
 367              		.loc 5 138 32 is_stmt 0 view .LVU101
 368 00be 52F82930 		ldr	r3, [r2, r9, lsl #2]
 369 00c2 D6F8E001 		ldr	r0, [r6, #480]
 370 00c6 0344     		add	r3, r3, r0
 371              		.loc 5 138 13 view .LVU102
 372 00c8 C8F81C30 		str	r3, [r8, #28]
 373              	.LBE1139:
 374              	.LBE1141:
 375              	.LBE1146:
 376              	.LBE1151:
 377              	.LBE1158:
 378              	.LBB1159:
 379              	.LBB1160:
 380              	.LBB1161:
 381              	.LBB1162:
 382              	.LBB1163:
 383              		.loc 5 138 32 view .LVU103
 384 00cc 1168     		ldr	r1, [r2]
ARM GAS  /var/folders/84/_x1cyy_j36g486tldtwl37280000gn/T//ccQg3xDo.s 			page 17


 385 00ce D6F8E051 		ldr	r5, [r6, #480]
 386              	.LBE1163:
 387              	.LBE1162:
  58:Src/Settings/midiClock.h **** 			update_inc(bpm(), bpm_fractional());
 388              		.loc 5 58 20 view .LVU104
 389 00d2 0024     		movs	r4, #0
 390              	.LBB1167:
 391              	.LBB1164:
 392              		.loc 5 138 32 view .LVU105
 393 00d4 0D44     		add	r5, r5, r1
 394              	.LBE1164:
 395              	.LBE1167:
 396              	.LBE1161:
 397              	.LBE1160:
 398              	.LBE1159:
 399              	.LBB1180:
 400              	.LBB1152:
 401              	.LBB1147:
  46:Src/Settings/midiClock.h **** 			update_inc(bpm(), bpm_fractional());
 402              		.loc 5 46 9 view .LVU106
 403 00d6 7827     		movs	r7, #120
 404              	.LBE1147:
 405              	.LBE1152:
 406              	.LBE1180:
 407              	.LBB1181:
 408              	.LBB1175:
 409              	.LBB1170:
 410              	.LBB1168:
 411              	.LBB1165:
 412              		.loc 5 138 13 view .LVU107
 413 00d8 C8F81C50 		str	r5, [r8, #28]
 414              	.LBE1165:
 415              	.LBE1168:
 416              	.LBE1170:
 417              	.LBE1175:
 418              	.LBE1181:
 419              	.LBE1195:
 420              	.LBE1203:
  25:Src/Settings/song.h **** 		Chord::init(&scale);
 421              		.loc 1 25 14 view .LVU108
 422 00dc 4046     		mov	r0, r8
 423              	.LBB1204:
 424              	.LBB1196:
  19:Src/Settings/midiClock.h **** 
 425              		.loc 5 19 12 view .LVU109
 426 00de A8F81A70 		strh	r7, [r8, #26]	@ movhi
 427              	.LBB1182:
 428              	.LBB1176:
 429              	.LBB1171:
  58:Src/Settings/midiClock.h **** 			update_inc(bpm(), bpm_fractional());
 430              		.loc 5 58 20 view .LVU110
 431 00e2 A8F81640 		strh	r4, [r8, #22]	@ movhi
 432              	.LBE1171:
 433              	.LBE1176:
 434              	.LBE1182:
 435              	.LBB1183:
 436              	.LBB1184:
ARM GAS  /var/folders/84/_x1cyy_j36g486tldtwl37280000gn/T//ccQg3xDo.s 			page 18


  90:Src/Settings/midiClock.h **** 		isr_ticks = 0;
 437              		.loc 5 90 9 view .LVU111
 438 00e6 C8F82440 		str	r4, [r8, #36]
 439              	.LBE1184:
 440              	.LBE1183:
 441              	.LBB1186:
 442              	.LBB1153:
 443              	.LBB1148:
  46:Src/Settings/midiClock.h **** 			update_inc(bpm(), bpm_fractional());
 444              		.loc 5 46 9 view .LVU112
 445 00ea A8F81470 		strh	r7, [r8, #20]	@ movhi
  47:Src/Settings/midiClock.h **** 		}
 446              		.loc 5 47 4 is_stmt 1 view .LVU113
 447              	.LVL18:
  47:Src/Settings/midiClock.h **** 		}
 448              		.loc 5 47 4 is_stmt 0 view .LVU114
 449              	.LBE1148:
 450              	.LBE1153:
 451              	.LBE1186:
 452              	.LBE1196:
 453              	.LBE1204:
  41:Src/Settings/midiClock.h **** 	}
 454              		.loc 5 41 3 is_stmt 1 view .LVU115
 455              	.LBB1205:
 456              	.LBB1197:
 457              	.LBB1187:
 458              	.LBB1154:
 459              	.LBB1149:
 460              	.LBB1142:
 461              	.LBI1142:
  52:Src/Settings/midiClock.h **** 		return bpm_fractional_;
 462              		.loc 5 52 11 view .LVU116
 463              	.LBB1143:
  53:Src/Settings/midiClock.h **** 	}
 464              		.loc 5 53 3 view .LVU117
  53:Src/Settings/midiClock.h **** 	}
 465              		.loc 5 53 3 is_stmt 0 view .LVU118
 466              	.LBE1143:
 467              	.LBE1142:
 468              	.LBB1144:
 469              	.LBI1137:
 137:Src/Settings/midiClock.h **** 		tempo_inc = lut_bpm_inc[bpm] + lut_bpm_fractional_inc[fractional];
 470              		.loc 5 137 14 is_stmt 1 view .LVU119
 471              	.LBB1140:
 472              		.loc 5 138 3 view .LVU120
 473              		.loc 5 138 3 is_stmt 0 view .LVU121
 474              	.LBE1140:
 475              	.LBE1144:
 476              	.LBE1149:
 477              	.LBE1154:
 478              	.LBE1187:
  17:Src/Settings/midiClock.h **** 
 479              		.loc 5 17 3 is_stmt 1 view .LVU122
 480              	.LBB1188:
 481              	.LBI1159:
  56:Src/Settings/midiClock.h **** 		if (sync_port() == INTERNAL) {
 482              		.loc 5 56 7 view .LVU123
ARM GAS  /var/folders/84/_x1cyy_j36g486tldtwl37280000gn/T//ccQg3xDo.s 			page 19


 483              	.LBE1188:
 484              	.LBE1197:
 485              	.LBE1205:
  57:Src/Settings/midiClock.h **** 			bpm_fractional_ = stmlib::clip(0, MAX_BPM_FRACTIONAL - 1, value);
 486              		.loc 5 57 3 view .LVU124
  73:Src/Settings/midiClock.h **** 	}
 487              		.loc 5 73 3 view .LVU125
 488              	.LBB1206:
 489              	.LBB1198:
 490              	.LBB1189:
 491              	.LBB1177:
 492              	.LBI1160:
  56:Src/Settings/midiClock.h **** 		if (sync_port() == INTERNAL) {
 493              		.loc 5 56 7 view .LVU126
 494              	.LBB1172:
  58:Src/Settings/midiClock.h **** 			update_inc(bpm(), bpm_fractional());
 495              		.loc 5 58 4 view .LVU127
  58:Src/Settings/midiClock.h **** 			update_inc(bpm(), bpm_fractional());
 496              		.loc 5 58 4 is_stmt 0 view .LVU128
 497              	.LBE1172:
 498              	.LBE1177:
 499              	.LBE1189:
 500              	.LBE1198:
 501              	.LBE1206:
 502              		.loc 3 31 3 is_stmt 1 view .LVU129
 503              	.LBB1207:
 504              	.LBB1199:
 505              	.LBB1190:
 506              	.LBB1178:
 507              	.LBB1173:
  59:Src/Settings/midiClock.h **** 		}
 508              		.loc 5 59 4 view .LVU130
  59:Src/Settings/midiClock.h **** 		}
 509              		.loc 5 59 4 is_stmt 0 view .LVU131
 510              	.LBE1173:
 511              	.LBE1178:
 512              	.LBE1190:
 513              	.LBE1199:
 514              	.LBE1207:
  41:Src/Settings/midiClock.h **** 	}
 515              		.loc 5 41 3 is_stmt 1 view .LVU132
  53:Src/Settings/midiClock.h **** 	}
 516              		.loc 5 53 3 view .LVU133
 517              	.LBB1208:
 518              	.LBB1200:
 519              	.LBB1191:
 520              	.LBB1179:
 521              	.LBB1174:
 522              	.LBB1169:
 523              	.LBI1162:
 137:Src/Settings/midiClock.h **** 		tempo_inc = lut_bpm_inc[bpm] + lut_bpm_fractional_inc[fractional];
 524              		.loc 5 137 14 view .LVU134
 525              	.LBB1166:
 526              		.loc 5 138 3 view .LVU135
 527              		.loc 5 138 3 is_stmt 0 view .LVU136
 528              	.LBE1166:
 529              	.LBE1169:
ARM GAS  /var/folders/84/_x1cyy_j36g486tldtwl37280000gn/T//ccQg3xDo.s 			page 20


 530              	.LBE1174:
 531              	.LBE1179:
 532              	.LBE1191:
  19:Src/Settings/midiClock.h **** 
 533              		.loc 5 19 3 is_stmt 1 view .LVU137
  21:Src/Settings/midiClock.h **** 	}
 534              		.loc 5 21 3 view .LVU138
 535              	.LBB1192:
 536              	.LBI1183:
  89:Src/Settings/midiClock.h **** 		ticks = 0;
 537              		.loc 5 89 14 view .LVU139
 538              	.LBB1185:
  90:Src/Settings/midiClock.h **** 		isr_ticks = 0;
 539              		.loc 5 90 3 view .LVU140
  91:Src/Settings/midiClock.h **** 		isr_average = 0;
 540              		.loc 5 91 3 view .LVU141
  91:Src/Settings/midiClock.h **** 		isr_average = 0;
 541              		.loc 5 91 13 is_stmt 0 view .LVU142
 542 00ee C8F82840 		str	r4, [r8, #40]
  92:Src/Settings/midiClock.h **** 		tempo_phase = 0;
 543              		.loc 5 92 3 is_stmt 1 view .LVU143
  92:Src/Settings/midiClock.h **** 		tempo_phase = 0;
 544              		.loc 5 92 15 is_stmt 0 view .LVU144
 545 00f2 C8F82C40 		str	r4, [r8, #44]
  93:Src/Settings/midiClock.h **** 	}
 546              		.loc 5 93 3 is_stmt 1 view .LVU145
  93:Src/Settings/midiClock.h **** 	}
 547              		.loc 5 93 15 is_stmt 0 view .LVU146
 548 00f6 C8F82040 		str	r4, [r8, #32]
 549              	.LVL19:
  93:Src/Settings/midiClock.h **** 	}
 550              		.loc 5 93 15 view .LVU147
 551              	.LBE1185:
 552              	.LBE1192:
 553              	.LBE1200:
 554              	.LBE1208:
 555              		.loc 1 25 3 is_stmt 1 view .LVU148
 556              		.loc 1 25 14 is_stmt 0 view .LVU149
 557 00fa FFF7FEFF 		bl	_ZN5Chord4initEP5Scale
 558              	.LVL20:
  26:Src/Settings/song.h **** 		TrackData::init();
 559              		.loc 1 26 3 is_stmt 1 view .LVU150
 560              	.LBB1209:
  27:Src/Settings/song.h **** 
  28:Src/Settings/song.h **** 		set_name("NEW_SONG");
  29:Src/Settings/song.h **** 
  30:Src/Settings/song.h **** 		for (int i = 0; i < Track::NUM_TYPES; ++i) {
  31:Src/Settings/song.h **** 			clear_list(&track_type_list_[i]);
 561              		.loc 1 31 14 is_stmt 0 view .LVU151
 562 00fe 08F1340A 		add	r10, r8, #52
 563              	.LBE1209:
  26:Src/Settings/song.h **** 		TrackData::init();
 564              		.loc 1 26 18 view .LVU152
 565 0102 FFF7FEFF 		bl	_ZN9TrackData4initEv
 566              	.LVL21:
  28:Src/Settings/song.h **** 
 567              		.loc 1 28 3 is_stmt 1 view .LVU153
ARM GAS  /var/folders/84/_x1cyy_j36g486tldtwl37280000gn/T//ccQg3xDo.s 			page 21


 568              	.LBB1210:
 569              	.LBI1210:
  32:Src/Settings/song.h **** 		}
  33:Src/Settings/song.h **** 
  34:Src/Settings/song.h **** 		for (int i = 0; i < kMaxTracks; ++i) {
  35:Src/Settings/song.h **** 			track(i).init();
  36:Src/Settings/song.h **** 			track(i).set_index(i);
  37:Src/Settings/song.h **** 			create_track(i, Track::NOTE_TRACK);
  38:Src/Settings/song.h **** 		}
  39:Src/Settings/song.h **** 	}
  40:Src/Settings/song.h **** 
  41:Src/Settings/song.h **** 	// name
  42:Src/Settings/song.h **** 	const char* name() {
  43:Src/Settings/song.h **** 		return name_;
  44:Src/Settings/song.h **** 	}
  45:Src/Settings/song.h **** 
  46:Src/Settings/song.h **** 	constexpr uint8_t max_name_length() {
  47:Src/Settings/song.h **** 		return kMaxNameLength;
  48:Src/Settings/song.h **** 	}
  49:Src/Settings/song.h **** 
  50:Src/Settings/song.h **** 	void set_name(const char* new_name) {
 570              		.loc 1 50 7 view .LVU154
 571              	.LBE1210:
  51:Src/Settings/song.h **** 		StringUtils::copy(name_, const_cast<char*>(new_name), kMaxNameLength);
 572              		.loc 1 51 3 view .LVU155
 573              	.LBB1215:
 574              	.LBB1211:
 575              	.LBI1211:
 576              		.file 6 "/Users/joostbooy/Desktop/Code/stm32/lib/utils/stringUtils.h"
   1:/Users/joostbooy/Desktop/Code/stm32/lib/utils/stringUtils.h **** #ifndef StringUtils_h
   2:/Users/joostbooy/Desktop/Code/stm32/lib/utils/stringUtils.h **** #define StringUtils_h
   3:/Users/joostbooy/Desktop/Code/stm32/lib/utils/stringUtils.h **** 
   4:/Users/joostbooy/Desktop/Code/stm32/lib/utils/stringUtils.h **** class StringUtils {
   5:/Users/joostbooy/Desktop/Code/stm32/lib/utils/stringUtils.h **** 
   6:/Users/joostbooy/Desktop/Code/stm32/lib/utils/stringUtils.h **** public:
   7:/Users/joostbooy/Desktop/Code/stm32/lib/utils/stringUtils.h **** 
   8:/Users/joostbooy/Desktop/Code/stm32/lib/utils/stringUtils.h **** 	static int length(const char* text) {
   9:/Users/joostbooy/Desktop/Code/stm32/lib/utils/stringUtils.h **** 		int length_ = 0;
  10:/Users/joostbooy/Desktop/Code/stm32/lib/utils/stringUtils.h **** 		while (*text++ != '\0') {
  11:/Users/joostbooy/Desktop/Code/stm32/lib/utils/stringUtils.h **** 			++length_;
  12:/Users/joostbooy/Desktop/Code/stm32/lib/utils/stringUtils.h **** 		}
  13:/Users/joostbooy/Desktop/Code/stm32/lib/utils/stringUtils.h **** 		return length_;
  14:/Users/joostbooy/Desktop/Code/stm32/lib/utils/stringUtils.h **** 	}
  15:/Users/joostbooy/Desktop/Code/stm32/lib/utils/stringUtils.h **** 
  16:/Users/joostbooy/Desktop/Code/stm32/lib/utils/stringUtils.h **** 	static void copy(char* dest, char* src, int max_length) {
 577              		.loc 6 16 14 view .LVU156
 578              	.LBB1212:
  17:/Users/joostbooy/Desktop/Code/stm32/lib/utils/stringUtils.h **** 		while (--max_length > 0 && *src != '\0') {
 579              		.loc 6 17 3 view .LVU157
 580              		.loc 6 17 27 view .LVU158
  18:/Users/joostbooy/Desktop/Code/stm32/lib/utils/stringUtils.h **** 			*dest++ = *src++;
 581              		.loc 6 18 4 view .LVU159
 582              		.loc 6 18 12 is_stmt 0 view .LVU160
 583 0106 4E26     		movs	r6, #78
 584 0108 4FF0570C 		mov	ip, #87
 585 010c 5F22     		movs	r2, #95
 586 010e 4723     		movs	r3, #71
ARM GAS  /var/folders/84/_x1cyy_j36g486tldtwl37280000gn/T//ccQg3xDo.s 			page 22


 587 0110 4F20     		movs	r0, #79
 588 0112 4FF0450B 		mov	fp, #69
 589 0116 4FF05309 		mov	r9, #83
 590 011a 88F882C0 		strb	ip, [r8, #130]
 591 011e 88F88320 		strb	r2, [r8, #131]
 592 0122 88F88730 		strb	r3, [r8, #135]
  19:/Users/joostbooy/Desktop/Code/stm32/lib/utils/stringUtils.h **** 		}
  20:/Users/joostbooy/Desktop/Code/stm32/lib/utils/stringUtils.h **** 		*dest = '\0';
 593              		.loc 6 20 9 view .LVU161
 594 0126 88F88840 		strb	r4, [r8, #136]
  18:/Users/joostbooy/Desktop/Code/stm32/lib/utils/stringUtils.h **** 			*dest++ = *src++;
 595              		.loc 6 18 12 view .LVU162
 596 012a 88F88500 		strb	r0, [r8, #133]
 597              	.LBE1212:
 598              	.LBE1211:
 599              	.LBE1215:
 600              	.LBB1216:
  31:Src/Settings/song.h **** 		}
 601              		.loc 1 31 14 view .LVU163
 602 012e 5146     		mov	r1, r10
 603 0130 4046     		mov	r0, r8
 604              	.LBE1216:
 605              	.LBB1217:
 606              	.LBB1214:
 607              	.LBB1213:
  18:/Users/joostbooy/Desktop/Code/stm32/lib/utils/stringUtils.h **** 			*dest++ = *src++;
 608              		.loc 6 18 12 view .LVU164
 609 0132 88F88060 		strb	r6, [r8, #128]
  17:/Users/joostbooy/Desktop/Code/stm32/lib/utils/stringUtils.h **** 			*dest++ = *src++;
 610              		.loc 6 17 3 is_stmt 1 view .LVU165
  17:/Users/joostbooy/Desktop/Code/stm32/lib/utils/stringUtils.h **** 			*dest++ = *src++;
 611              		.loc 6 17 27 view .LVU166
 612              	.LVL22:
  18:/Users/joostbooy/Desktop/Code/stm32/lib/utils/stringUtils.h **** 		}
 613              		.loc 6 18 4 view .LVU167
  18:/Users/joostbooy/Desktop/Code/stm32/lib/utils/stringUtils.h **** 		}
 614              		.loc 6 18 12 is_stmt 0 view .LVU168
 615 0136 88F88660 		strb	r6, [r8, #134]
 616 013a 88F881B0 		strb	fp, [r8, #129]
  17:/Users/joostbooy/Desktop/Code/stm32/lib/utils/stringUtils.h **** 			*dest++ = *src++;
 617              		.loc 6 17 3 is_stmt 1 view .LVU169
  17:/Users/joostbooy/Desktop/Code/stm32/lib/utils/stringUtils.h **** 			*dest++ = *src++;
 618              		.loc 6 17 27 view .LVU170
 619              	.LVL23:
  18:/Users/joostbooy/Desktop/Code/stm32/lib/utils/stringUtils.h **** 		}
 620              		.loc 6 18 4 view .LVU171
  17:/Users/joostbooy/Desktop/Code/stm32/lib/utils/stringUtils.h **** 			*dest++ = *src++;
 621              		.loc 6 17 3 view .LVU172
  17:/Users/joostbooy/Desktop/Code/stm32/lib/utils/stringUtils.h **** 			*dest++ = *src++;
 622              		.loc 6 17 27 view .LVU173
  18:/Users/joostbooy/Desktop/Code/stm32/lib/utils/stringUtils.h **** 		}
 623              		.loc 6 18 4 view .LVU174
  17:/Users/joostbooy/Desktop/Code/stm32/lib/utils/stringUtils.h **** 			*dest++ = *src++;
 624              		.loc 6 17 3 view .LVU175
  17:/Users/joostbooy/Desktop/Code/stm32/lib/utils/stringUtils.h **** 			*dest++ = *src++;
 625              		.loc 6 17 27 view .LVU176
  18:/Users/joostbooy/Desktop/Code/stm32/lib/utils/stringUtils.h **** 		}
ARM GAS  /var/folders/84/_x1cyy_j36g486tldtwl37280000gn/T//ccQg3xDo.s 			page 23


 626              		.loc 6 18 4 view .LVU177
  18:/Users/joostbooy/Desktop/Code/stm32/lib/utils/stringUtils.h **** 		}
 627              		.loc 6 18 12 is_stmt 0 view .LVU178
 628 013e 88F88490 		strb	r9, [r8, #132]
  17:/Users/joostbooy/Desktop/Code/stm32/lib/utils/stringUtils.h **** 			*dest++ = *src++;
 629              		.loc 6 17 3 is_stmt 1 view .LVU179
  17:/Users/joostbooy/Desktop/Code/stm32/lib/utils/stringUtils.h **** 			*dest++ = *src++;
 630              		.loc 6 17 27 view .LVU180
 631              	.LVL24:
  18:/Users/joostbooy/Desktop/Code/stm32/lib/utils/stringUtils.h **** 		}
 632              		.loc 6 18 4 view .LVU181
  17:/Users/joostbooy/Desktop/Code/stm32/lib/utils/stringUtils.h **** 			*dest++ = *src++;
 633              		.loc 6 17 3 view .LVU182
  17:/Users/joostbooy/Desktop/Code/stm32/lib/utils/stringUtils.h **** 			*dest++ = *src++;
 634              		.loc 6 17 27 view .LVU183
  18:/Users/joostbooy/Desktop/Code/stm32/lib/utils/stringUtils.h **** 		}
 635              		.loc 6 18 4 view .LVU184
  17:/Users/joostbooy/Desktop/Code/stm32/lib/utils/stringUtils.h **** 			*dest++ = *src++;
 636              		.loc 6 17 3 view .LVU185
  17:/Users/joostbooy/Desktop/Code/stm32/lib/utils/stringUtils.h **** 			*dest++ = *src++;
 637              		.loc 6 17 27 view .LVU186
  18:/Users/joostbooy/Desktop/Code/stm32/lib/utils/stringUtils.h **** 		}
 638              		.loc 6 18 4 view .LVU187
  17:/Users/joostbooy/Desktop/Code/stm32/lib/utils/stringUtils.h **** 			*dest++ = *src++;
 639              		.loc 6 17 3 view .LVU188
  17:/Users/joostbooy/Desktop/Code/stm32/lib/utils/stringUtils.h **** 			*dest++ = *src++;
 640              		.loc 6 17 27 view .LVU189
 641              		.loc 6 20 3 view .LVU190
 642              		.loc 6 20 3 is_stmt 0 view .LVU191
 643              	.LBE1213:
 644              	.LBE1214:
 645              	.LBE1217:
  30:Src/Settings/song.h **** 			clear_list(&track_type_list_[i]);
 646              		.loc 1 30 3 is_stmt 1 view .LVU192
 647              	.LBB1218:
  30:Src/Settings/song.h **** 			clear_list(&track_type_list_[i]);
 648              		.loc 1 30 21 view .LVU193
  31:Src/Settings/song.h **** 		}
 649              		.loc 1 31 4 view .LVU194
  31:Src/Settings/song.h **** 		}
 650              		.loc 1 31 14 is_stmt 0 view .LVU195
 651 0142 FFF7FEFF 		bl	_ZN4Song10clear_listEPNS_4ListE
 652              	.LVL25:
  30:Src/Settings/song.h **** 			clear_list(&track_type_list_[i]);
 653              		.loc 1 30 3 is_stmt 1 view .LVU196
  30:Src/Settings/song.h **** 			clear_list(&track_type_list_[i]);
 654              		.loc 1 30 21 view .LVU197
  31:Src/Settings/song.h **** 		}
 655              		.loc 1 31 4 view .LVU198
  31:Src/Settings/song.h **** 		}
 656              		.loc 1 31 14 is_stmt 0 view .LVU199
 657 0146 08F14501 		add	r1, r8, #69
 658 014a 4046     		mov	r0, r8
 659 014c FFF7FEFF 		bl	_ZN4Song10clear_listEPNS_4ListE
 660              	.LVL26:
  30:Src/Settings/song.h **** 			clear_list(&track_type_list_[i]);
 661              		.loc 1 30 3 is_stmt 1 view .LVU200
ARM GAS  /var/folders/84/_x1cyy_j36g486tldtwl37280000gn/T//ccQg3xDo.s 			page 24


  30:Src/Settings/song.h **** 			clear_list(&track_type_list_[i]);
 662              		.loc 1 30 21 view .LVU201
  31:Src/Settings/song.h **** 		}
 663              		.loc 1 31 4 view .LVU202
  31:Src/Settings/song.h **** 		}
 664              		.loc 1 31 14 is_stmt 0 view .LVU203
 665 0150 08F15601 		add	r1, r8, #86
 666 0154 4046     		mov	r0, r8
 667 0156 FFF7FEFF 		bl	_ZN4Song10clear_listEPNS_4ListE
 668              	.LVL27:
  30:Src/Settings/song.h **** 			clear_list(&track_type_list_[i]);
 669              		.loc 1 30 3 is_stmt 1 view .LVU204
  30:Src/Settings/song.h **** 			clear_list(&track_type_list_[i]);
 670              		.loc 1 30 21 view .LVU205
  31:Src/Settings/song.h **** 		}
 671              		.loc 1 31 4 view .LVU206
  31:Src/Settings/song.h **** 		}
 672              		.loc 1 31 14 is_stmt 0 view .LVU207
 673 015a 08F16701 		add	r1, r8, #103
 674 015e 4046     		mov	r0, r8
 675              	.LBE1218:
 676              	.LBB1219:
  34:Src/Settings/song.h **** 			track(i).init();
 677              		.loc 1 34 12 view .LVU208
 678 0160 2546     		mov	r5, r4
 679              	.LBE1219:
 680              	.LBB2335:
  31:Src/Settings/song.h **** 		}
 681              		.loc 1 31 14 view .LVU209
 682 0162 FFF7FEFF 		bl	_ZN4Song10clear_listEPNS_4ListE
 683              	.LVL28:
  30:Src/Settings/song.h **** 			clear_list(&track_type_list_[i]);
 684              		.loc 1 30 3 is_stmt 1 view .LVU210
  30:Src/Settings/song.h **** 			clear_list(&track_type_list_[i]);
 685              		.loc 1 30 21 view .LVU211
  31:Src/Settings/song.h **** 		}
 686              		.loc 1 31 14 is_stmt 0 view .LVU212
 687 0166 08EE10AA 		vmov	s16, r10	@ int
 688 016a 08F1FA04 		add	r4, r8, #250
 689 016e 14E0     		b	.L31
 690              	.LVL29:
 691              	.L30:
  31:Src/Settings/song.h **** 		}
 692              		.loc 1 31 14 view .LVU213
 693              	.LBE2335:
 694              	.LBB2336:
 695              	.LBB1220:
 696              	.LBB1221:
 697              	.LBB1222:
 698              	.LBB1223:
 699              		.file 7 "Src/Settings/track.h"
   1:Src/Settings/track.h **** #ifndef Track_h
   2:Src/Settings/track.h **** #define Track_h
   3:Src/Settings/track.h **** 
   4:Src/Settings/track.h **** #include "stmf4lib.h"
   5:Src/Settings/track.h **** #include "trackData.h"
   6:Src/Settings/track.h **** #include "noteTrack.h"
ARM GAS  /var/folders/84/_x1cyy_j36g486tldtwl37280000gn/T//ccQg3xDo.s 			page 25


   7:Src/Settings/track.h **** #include "chordTrack.h"
   8:Src/Settings/track.h **** #include "drumTrack.h"
   9:Src/Settings/track.h **** #include "curveTrack.h"
  10:Src/Settings/track.h **** 
  11:Src/Settings/track.h **** class Track : public BaseTrack {
  12:Src/Settings/track.h **** 
  13:Src/Settings/track.h **** public:
  14:Src/Settings/track.h **** 
  15:Src/Settings/track.h **** 	NoteTrack note;
  16:Src/Settings/track.h **** 	ChordTrack chord;
  17:Src/Settings/track.h **** 	DrumTrack drum;
  18:Src/Settings/track.h **** 	CurveTrack curve;
  19:Src/Settings/track.h **** 
  20:Src/Settings/track.h **** 	void init() {
  21:Src/Settings/track.h **** 		note.init(&data);
  22:Src/Settings/track.h **** 		chord.init(&data);
  23:Src/Settings/track.h **** 		drum.init(&data);
  24:Src/Settings/track.h **** 		curve.init(&data);
  25:Src/Settings/track.h **** 
  26:Src/Settings/track.h **** 		BaseTrack::init(&data);
  27:Src/Settings/track.h **** 	}
  28:Src/Settings/track.h **** 
  29:Src/Settings/track.h **** 	void set_index(int index) {
  30:Src/Settings/track.h **** 		index_ = index;
  31:Src/Settings/track.h **** 	}
  32:Src/Settings/track.h **** 
  33:Src/Settings/track.h **** 	int index() {
  34:Src/Settings/track.h **** 		return index_;
  35:Src/Settings/track.h **** 	}
  36:Src/Settings/track.h **** 
  37:Src/Settings/track.h **** 	const char* name() {
  38:Src/Settings/track.h **** 		UiText::str.write("T", index_ + 1, "-", BaseTrack::type_text());
  39:Src/Settings/track.h **** 		if (*BaseTrack::label() != '\0') {
  40:Src/Settings/track.h **** 			UiText::str.append("-");
  41:Src/Settings/track.h **** 			UiText::str.append(BaseTrack::label());
  42:Src/Settings/track.h **** 		}
  43:Src/Settings/track.h **** 		return UiText::str.read();
  44:Src/Settings/track.h **** 	}
  45:Src/Settings/track.h **** 
  46:Src/Settings/track.h **** 	const char* name_small() {
  47:Src/Settings/track.h **** 		UiText::str.write("T", index_ + 1, "-", BaseTrack::label());
  48:Src/Settings/track.h **** 		UiText::str.truncate(6);
  49:Src/Settings/track.h **** 		return UiText::str.read();
  50:Src/Settings/track.h **** 	}
  51:Src/Settings/track.h **** 
  52:Src/Settings/track.h **** 	// Only call through song.create_track() or drumKit.create_track()
  53:Src/Settings/track.h **** 	void create(uint8_t track_type) {
  54:Src/Settings/track.h **** 		BaseTrack::set_type(track_type);
  55:Src/Settings/track.h **** 
  56:Src/Settings/track.h **** 		switch (track_type)
  57:Src/Settings/track.h **** 		{
  58:Src/Settings/track.h **** 		case BaseTrack::NOTE_TRACK:
  59:Src/Settings/track.h **** 			note.clear();
  60:Src/Settings/track.h **** 			break;
 700              		.loc 7 60 4 is_stmt 1 view .LVU214
 701              		.loc 7 60 4 is_stmt 0 view .LVU215
 702              	.LBE1223:
ARM GAS  /var/folders/84/_x1cyy_j36g486tldtwl37280000gn/T//ccQg3xDo.s 			page 26


 703              	.LBE1222:
  52:Src/Settings/song.h **** 	}
  53:Src/Settings/song.h **** 
  54:Src/Settings/song.h **** 	// patterns
  55:Src/Settings/song.h **** 	int available_patterns() {
  56:Src/Settings/song.h **** 		return TrackData::pattern_pool_.size_;
  57:Src/Settings/song.h **** 	}
  58:Src/Settings/song.h **** 
  59:Src/Settings/song.h **** 	int max_patterns() {
  60:Src/Settings/song.h **** 		return TrackData::kMaxPatterns;
  61:Src/Settings/song.h **** 	}
  62:Src/Settings/song.h **** 
  63:Src/Settings/song.h **** 	// tracks
  64:Src/Settings/song.h **** 	constexpr int max_tracks() {
  65:Src/Settings/song.h **** 		return kMaxTracks;
  66:Src/Settings/song.h **** 	}
  67:Src/Settings/song.h **** 
  68:Src/Settings/song.h **** 	bool create_track(uint8_t index, uint8_t type) {
  69:Src/Settings/song.h **** 		Track &t = track(index);
  70:Src/Settings/song.h **** 
  71:Src/Settings/song.h **** 		if (index < kMaxTracks) {
  72:Src/Settings/song.h **** 			// remove old type form list
  73:Src/Settings/song.h **** 			remove_from_list(&track_type_list_[t.type()], index);
  74:Src/Settings/song.h **** 
  75:Src/Settings/song.h **** 			t.create(type);
  76:Src/Settings/song.h **** 			set_track_mute(index, false);
 704              		.loc 1 76 4 is_stmt 1 view .LVU216
 705              	.LBB2036:
 706              	.LBI2036:
  77:Src/Settings/song.h **** 			set_track_solo(index, false);
  78:Src/Settings/song.h **** 
  79:Src/Settings/song.h **** 			add_to_list(&track_type_list_[type], index);
  80:Src/Settings/song.h **** 			return true;
  81:Src/Settings/song.h **** 		}
  82:Src/Settings/song.h **** 		return false;
  83:Src/Settings/song.h **** 	}
  84:Src/Settings/song.h **** 
  85:Src/Settings/song.h **** 	uint8_t num_tracks(uint8_t track_type) {
  86:Src/Settings/song.h **** 		return track_type_list_[track_type].size_;
  87:Src/Settings/song.h **** 	}
  88:Src/Settings/song.h **** 
  89:Src/Settings/song.h **** 	uint8_t read_track_list(uint8_t list_index, uint8_t track_type) {
  90:Src/Settings/song.h **** 		return track_type_list_[track_type].entry_[list_index];
  91:Src/Settings/song.h **** 	}
  92:Src/Settings/song.h **** 
  93:Src/Settings/song.h **** 	// mute & solo
  94:Src/Settings/song.h **** 	bool track_is_muted(uint8_t track_index) {
  95:Src/Settings/song.h **** 		return mute_flags & (1 << track_index);
  96:Src/Settings/song.h **** 	}
  97:Src/Settings/song.h **** 
  98:Src/Settings/song.h **** 	bool track_is_solod(uint8_t track_index) {
  99:Src/Settings/song.h **** 		return solo_flags & (1 << track_index);
 100:Src/Settings/song.h **** 	}
 101:Src/Settings/song.h **** 
 102:Src/Settings/song.h **** 	bool track_is_audible(uint8_t track_index) {
 103:Src/Settings/song.h **** 		if (solo_flags != 0) {
 104:Src/Settings/song.h **** 			return track_is_solod(track_index);
ARM GAS  /var/folders/84/_x1cyy_j36g486tldtwl37280000gn/T//ccQg3xDo.s 			page 27


 105:Src/Settings/song.h **** 		}
 106:Src/Settings/song.h **** 		return !track_is_muted(track_index);
 107:Src/Settings/song.h **** 	}
 108:Src/Settings/song.h **** 
 109:Src/Settings/song.h **** 	void set_track_mute(uint8_t track_index, bool state) {
 707              		.loc 1 109 7 view .LVU217
 708              	.LBB2037:
 110:Src/Settings/song.h **** 		uint32_t flags = mute_flags;
 709              		.loc 1 110 3 view .LVU218
 111:Src/Settings/song.h **** 		uint32_t mask = 1 << track_index;
 710              		.loc 1 111 3 view .LVU219
 112:Src/Settings/song.h **** 		mute_flags = state ? flags | mask : flags & ~mask;
 711              		.loc 1 112 3 view .LVU220
 712              	.LBE2037:
 713              	.LBE2036:
 714              	.LBB2039:
 715              	.LBB2040:
 113:Src/Settings/song.h **** 	}
 114:Src/Settings/song.h **** 
 115:Src/Settings/song.h **** 	void set_track_solo(uint8_t track_index, bool state) {
 116:Src/Settings/song.h **** 		uint32_t flags = solo_flags;
 117:Src/Settings/song.h **** 		uint32_t mask = 1 << track_index;
 118:Src/Settings/song.h **** 		solo_flags = state ? flags | mask : flags & ~mask;
 716              		.loc 1 118 22 is_stmt 0 view .LVU221
 717 0170 D8E91E6A 		ldrd	r6, r10, [r8, #120]
 718              	.LBE2040:
 719              	.LBE2039:
 720              	.LBB2042:
 721              	.LBB2038:
 111:Src/Settings/song.h **** 		mute_flags = state ? flags | mask : flags & ~mask;
 722              		.loc 1 111 21 view .LVU222
 723 0174 0127     		movs	r7, #1
 724 0176 AF40     		lsls	r7, r7, r5
 725              	.LVL30:
 112:Src/Settings/song.h **** 		mute_flags = state ? flags | mask : flags & ~mask;
 726              		.loc 1 112 22 view .LVU223
 727 0178 26EA0701 		bic	r1, r6, r7
 728              	.LBE2038:
 729              	.LBE2042:
 730              	.LBB2043:
 731              	.LBB2041:
 732              		.loc 1 118 22 view .LVU224
 733 017c 2AEA070B 		bic	fp, r10, r7
 734              		.loc 1 118 14 view .LVU225
 735 0180 C8E91E1B 		strd	r1, fp, [r8, #120]
 736              	.LVL31:
 737              		.loc 1 118 14 view .LVU226
 738              	.LBE2041:
 739              	.LBE2043:
  79:Src/Settings/song.h **** 			return true;
 740              		.loc 1 79 4 is_stmt 1 view .LVU227
 741              	.LBE1221:
 742              	.LBE1220:
  34:Src/Settings/song.h **** 			track(i).init();
 743              		.loc 1 34 3 is_stmt 0 view .LVU228
 744 0184 0135     		adds	r5, r5, #1
 745              	.LBB2167:
ARM GAS  /var/folders/84/_x1cyy_j36g486tldtwl37280000gn/T//ccQg3xDo.s 			page 28


 746              	.LBB2103:
  79:Src/Settings/song.h **** 			return true;
 747              		.loc 1 79 15 view .LVU229
 748 0186 18EE101A 		vmov	r1, s16	@ int
 749 018a 4046     		mov	r0, r8
 750 018c FFF7FEFF 		bl	_ZN4Song11add_to_listEPNS_4ListEh
 751              	.LVL32:
  80:Src/Settings/song.h **** 		}
 752              		.loc 1 80 4 is_stmt 1 view .LVU230
  80:Src/Settings/song.h **** 		}
 753              		.loc 1 80 4 is_stmt 0 view .LVU231
 754              	.LBE2103:
 755              	.LBE2167:
  34:Src/Settings/song.h **** 			track(i).init();
 756              		.loc 1 34 3 is_stmt 1 view .LVU232
  34:Src/Settings/song.h **** 			track(i).init();
 757              		.loc 1 34 21 view .LVU233
 758 0190 102D     		cmp	r5, #16
 759 0192 04F5B874 		add	r4, r4, #368
 760 0196 00F08E80 		beq	.L91
 761              	.LVL33:
 762              	.L31:
  35:Src/Settings/song.h **** 			track(i).set_index(i);
 763              		.loc 1 35 4 view .LVU234
  35:Src/Settings/song.h **** 			track(i).set_index(i);
 764              		.loc 1 35 4 is_stmt 0 view .LVU235
 765              	.LBE2336:
  19:Src/Settings/song.h **** 	}
 766              		.loc 1 19 3 is_stmt 1 view .LVU236
 767              	.LBB2337:
 768              	.LBB2168:
 769              	.LBI2168:
  20:Src/Settings/track.h **** 		note.init(&data);
 770              		.loc 7 20 7 view .LVU237
 771              	.LBE2168:
 772              	.LBE2337:
  21:Src/Settings/track.h **** 		chord.init(&data);
 773              		.loc 7 21 3 view .LVU238
 774              	.LBB2338:
 775              	.LBB2254:
 776              	.LBB2104:
  73:Src/Settings/song.h **** 
 777              		.loc 1 73 20 is_stmt 0 view .LVU239
 778 019a 14F81AEC 		ldrb	lr, [r4, #-26]	@ zero_extendqisi2
 779              	.LBE2104:
 780              	.LBE2254:
 781              	.LBB2255:
 782              	.LBB2169:
 783              	.LBB2170:
 784              	.LBB2171:
 785              		.file 8 "Src/Settings/baseTrack.h"
   1:Src/Settings/baseTrack.h **** #ifndef BaseTrack_h
   2:Src/Settings/baseTrack.h **** #define BaseTrack_h
   3:Src/Settings/baseTrack.h **** 
   4:Src/Settings/baseTrack.h **** #include "stmf4lib.h"
   5:Src/Settings/baseTrack.h **** #include "stringBuilder.h"
   6:Src/Settings/baseTrack.h **** #include "stringUtils.h"
ARM GAS  /var/folders/84/_x1cyy_j36g486tldtwl37280000gn/T//ccQg3xDo.s 			page 29


   7:Src/Settings/baseTrack.h **** #include "trackData.h"
   8:Src/Settings/baseTrack.h **** #include "pattern.h"
   9:Src/Settings/baseTrack.h **** #include "midiPort.h"
  10:Src/Settings/baseTrack.h **** #include "clockEngine.h"
  11:Src/Settings/baseTrack.h **** #include "positionEngine.h"
  12:Src/Settings/baseTrack.h **** #include "repeatEngine.h"
  13:Src/Settings/baseTrack.h **** #include "uiText.h"
  14:Src/Settings/baseTrack.h **** 
  15:Src/Settings/baseTrack.h **** #define ASSERT_STEP_ITEMS(count) static_assert(count < TrackData::kMaxStepItems, "To many step item
  16:Src/Settings/baseTrack.h **** 
  17:Src/Settings/baseTrack.h **** class BaseTrack {
  18:Src/Settings/baseTrack.h **** 
  19:Src/Settings/baseTrack.h **** public:
  20:Src/Settings/baseTrack.h **** 
  21:Src/Settings/baseTrack.h **** 	enum Type {
  22:Src/Settings/baseTrack.h **** 		NOTE_TRACK,
  23:Src/Settings/baseTrack.h **** 		CHORD_TRACK,
  24:Src/Settings/baseTrack.h **** 		DRUM_TRACK,
  25:Src/Settings/baseTrack.h **** 		CURVE_TRACK,
  26:Src/Settings/baseTrack.h **** 
  27:Src/Settings/baseTrack.h **** 		NUM_TYPES
  28:Src/Settings/baseTrack.h **** 	};
  29:Src/Settings/baseTrack.h **** 
  30:Src/Settings/baseTrack.h **** 	static const char* type_text(uint8_t type) {
  31:Src/Settings/baseTrack.h **** 		switch (type)
  32:Src/Settings/baseTrack.h **** 		{
  33:Src/Settings/baseTrack.h **** 		case NOTE_TRACK:	return "NOTE";
  34:Src/Settings/baseTrack.h **** 		case CHORD_TRACK:	return "CHORD";
  35:Src/Settings/baseTrack.h **** 		case DRUM_TRACK:	return "DRUM";
  36:Src/Settings/baseTrack.h **** 		case CURVE_TRACK:	return "CURVE";
  37:Src/Settings/baseTrack.h **** 		default:			return nullptr;
  38:Src/Settings/baseTrack.h **** 			break;
  39:Src/Settings/baseTrack.h **** 		}
  40:Src/Settings/baseTrack.h **** 	}
  41:Src/Settings/baseTrack.h **** 
  42:Src/Settings/baseTrack.h **** 	Pattern pattern;
  43:Src/Settings/baseTrack.h **** 
  44:Src/Settings/baseTrack.h **** 	void init(TrackData *data) {
  45:Src/Settings/baseTrack.h **** 		data_ = data;
  46:Src/Settings/baseTrack.h **** 
  47:Src/Settings/baseTrack.h **** 		pattern_list = &data_->pattern_list_;
  48:Src/Settings/baseTrack.h **** 		pattern_pool = &data_->pattern_pool_;
 786              		.loc 8 48 16 view .LVU240
 787 019e 4D48     		ldr	r0, .L93+20
 788 01a0 44F8520C 		str	r0, [r4, #-82]
 789              	.LBE2171:
 790              	.LBE2170:
 791              	.LBE2169:
 792              	.LBE2255:
 793              	.LBB2256:
 794              	.LBB2105:
  73:Src/Settings/song.h **** 
 795              		.loc 1 73 20 view .LVU241
 796 01a4 1121     		movs	r1, #17
 797              	.LBE2105:
 798              	.LBE2256:
 799              	.LBB2257:
ARM GAS  /var/folders/84/_x1cyy_j36g486tldtwl37280000gn/T//ccQg3xDo.s 			page 30


 800              	.LBB2186:
 801              	.LBB2181:
 802              	.LBB2176:
  49:Src/Settings/baseTrack.h **** 		pattern_list->size_ = 0;
 803              		.loc 8 49 23 view .LVU242
 804 01a6 0027     		movs	r7, #0
 805 01a8 A4F11A06 		sub	r6, r4, #26
 806              	.LVL34:
 807              		.loc 8 49 23 view .LVU243
 808              	.LBE2176:
 809              	.LBE2181:
 810              	.LBI2169:
 811              		.file 9 "Src/Settings/noteTrack.h"
   1:Src/Settings/noteTrack.h **** #ifndef NoteTrack_h
   2:Src/Settings/noteTrack.h **** #define NoteTrack_h
   3:Src/Settings/noteTrack.h **** 
   4:Src/Settings/noteTrack.h **** #include "baseTrack.h"
   5:Src/Settings/noteTrack.h **** #include "serialItem.h"
   6:Src/Settings/noteTrack.h **** #include "scale.h"
   7:Src/Settings/noteTrack.h **** #include "uiText.h"
   8:Src/Settings/noteTrack.h **** #include "fileReader.h"
   9:Src/Settings/noteTrack.h **** #include "fileWriter.h"
  10:Src/Settings/noteTrack.h **** 
  11:Src/Settings/noteTrack.h **** class NoteTrack : public BaseTrack {
  12:Src/Settings/noteTrack.h **** 
  13:Src/Settings/noteTrack.h **** public:
  14:Src/Settings/noteTrack.h **** 
  15:Src/Settings/noteTrack.h **** 	enum Item {
  16:Src/Settings/noteTrack.h **** 		USE_SCALE,
  17:Src/Settings/noteTrack.h **** 		NUM_TRACK_ITEMS
  18:Src/Settings/noteTrack.h **** 	};
  19:Src/Settings/noteTrack.h **** 
  20:Src/Settings/noteTrack.h **** 	enum StepItem {
  21:Src/Settings/noteTrack.h **** 		TRIGGER,
  22:Src/Settings/noteTrack.h **** 		NOTE,
  23:Src/Settings/noteTrack.h **** 		VELOCITY,
  24:Src/Settings/noteTrack.h **** 		GATE_LENGTH,
  25:Src/Settings/noteTrack.h **** 		NUM_REPEATS,
  26:Src/Settings/noteTrack.h **** 		REPEAT_SPREAD,
  27:Src/Settings/noteTrack.h **** 		REPEAT_VELOCITY,
  28:Src/Settings/noteTrack.h **** 		DELAY,
  29:Src/Settings/noteTrack.h **** 		PROBABILITY,
  30:Src/Settings/noteTrack.h **** 		NUM_STEP_ITEMS
  31:Src/Settings/noteTrack.h **** 	};
  32:Src/Settings/noteTrack.h **** 
  33:Src/Settings/noteTrack.h **** 	ASSERT_STEP_ITEMS(NUM_STEP_ITEMS);
  34:Src/Settings/noteTrack.h **** 
  35:Src/Settings/noteTrack.h **** 	// text
  36:Src/Settings/noteTrack.h **** 	static const char* step_item_text(StepItem item) {
  37:Src/Settings/noteTrack.h **** 		switch (item)
  38:Src/Settings/noteTrack.h **** 		{
  39:Src/Settings/noteTrack.h **** 		case TRIGGER:			return "TRIGGER";
  40:Src/Settings/noteTrack.h **** 		case NOTE:				return "NOTE";
  41:Src/Settings/noteTrack.h **** 		case VELOCITY:			return "VELOCITY";
  42:Src/Settings/noteTrack.h **** 		case GATE_LENGTH:		return "GATE LENGTH";
  43:Src/Settings/noteTrack.h **** 		case NUM_REPEATS:		return "REPEAT";
  44:Src/Settings/noteTrack.h **** 		case REPEAT_SPREAD:		return "REPEAT SPREAD";
ARM GAS  /var/folders/84/_x1cyy_j36g486tldtwl37280000gn/T//ccQg3xDo.s 			page 31


  45:Src/Settings/noteTrack.h **** 		case REPEAT_VELOCITY:	return "REPEAT VELOCITY";
  46:Src/Settings/noteTrack.h **** 		case DELAY:				return "DELAY";
  47:Src/Settings/noteTrack.h **** 		case PROBABILITY:		return "PROBABILITY";
  48:Src/Settings/noteTrack.h **** 		default:
  49:Src/Settings/noteTrack.h **** 			break;
  50:Src/Settings/noteTrack.h **** 		}
  51:Src/Settings/noteTrack.h **** 		return nullptr;
  52:Src/Settings/noteTrack.h **** 	}
  53:Src/Settings/noteTrack.h **** 
  54:Src/Settings/noteTrack.h **** 	static const char* step_value_text(StepItem item, int value) {
  55:Src/Settings/noteTrack.h **** 		switch (item)
  56:Src/Settings/noteTrack.h **** 		{
  57:Src/Settings/noteTrack.h **** 		case TRIGGER:			return UiText::bool_to_on_off(value);
  58:Src/Settings/noteTrack.h **** 		case NOTE:				return UiText::note_text(value);
  59:Src/Settings/noteTrack.h **** 		case VELOCITY:			return UiText::unsigned_int_to_text(value);
  60:Src/Settings/noteTrack.h **** 		case GATE_LENGTH:		return ClockEngine::gate_duration_text(value);
  61:Src/Settings/noteTrack.h **** 		case NUM_REPEATS:		return RepeatEngine::repeat_text(value);
  62:Src/Settings/noteTrack.h **** 		case REPEAT_SPREAD:		return RepeatEngine::spread_text(value);
  63:Src/Settings/noteTrack.h **** 		case REPEAT_VELOCITY:	return RepeatEngine::velocity_ramp_text(value);
  64:Src/Settings/noteTrack.h **** 		case DELAY:				return ClockEngine::gate_duration_text(value);
  65:Src/Settings/noteTrack.h **** 		case PROBABILITY:		return UiText::percentage_text(value, 7);
  66:Src/Settings/noteTrack.h **** 		default:
  67:Src/Settings/noteTrack.h **** 			break;
  68:Src/Settings/noteTrack.h **** 		}
  69:Src/Settings/noteTrack.h **** 		return nullptr;
  70:Src/Settings/noteTrack.h **** 	}
  71:Src/Settings/noteTrack.h **** 
  72:Src/Settings/noteTrack.h **** 	void init(TrackData *data) {
 812              		.loc 9 72 7 is_stmt 1 view .LVU244
 813              	.LBE2186:
 814              	.LBE2257:
 815              	.LBE2338:
  73:Src/Settings/noteTrack.h **** 		BaseTrack::init(data);
 816              		.loc 9 73 3 view .LVU245
 817              	.LBB2339:
 818              	.LBB2258:
 819              	.LBB2187:
 820              	.LBB2182:
 821              	.LBI2170:
  44:Src/Settings/baseTrack.h **** 		data_ = data;
 822              		.loc 8 44 7 view .LVU246
 823              	.LBB2177:
  45:Src/Settings/baseTrack.h **** 
 824              		.loc 8 45 3 view .LVU247
 825              	.LBE2177:
 826              	.LBE2182:
 827              	.LBE2187:
 828              	.LBE2258:
 829              	.LBB2259:
 830              	.LBB2106:
  73:Src/Settings/song.h **** 
 831              		.loc 1 73 20 is_stmt 0 view .LVU248
 832 01ac 01FB0E81 		mla	r1, r1, lr, r8
 833 01b0 EAB2     		uxtb	r2, r5
 834              	.LBE2106:
 835              	.LBE2259:
 836              	.LBB2260:
ARM GAS  /var/folders/84/_x1cyy_j36g486tldtwl37280000gn/T//ccQg3xDo.s 			page 32


 837              	.LBB2188:
 838              	.LBB2189:
 839              	.LBB2190:
  48:Src/Settings/baseTrack.h **** 		pattern_list->size_ = 0;
 840              		.loc 8 48 16 view .LVU249
 841 01b2 44F8420C 		str	r0, [r4, #-66]
 842              	.LBE2190:
 843              	.LBE2189:
 844              	.LBE2188:
 845              	.LBB2201:
 846              	.LBB2202:
 847              	.LBB2203:
 848 01b6 44F8320C 		str	r0, [r4, #-50]
 849              	.LBE2203:
 850              	.LBE2202:
 851              	.LBE2201:
 852              	.LBB2214:
 853              	.LBB2215:
 854              	.LBB2216:
 855 01ba 44F8220C 		str	r0, [r4, #-34]
 856              	.LBE2216:
 857              	.LBE2215:
 858              	.LBE2214:
 859              	.LBB2227:
 860              	.LBB2228:
 861 01be 44F8620C 		str	r0, [r4, #-98]
 862              	.LBE2228:
 863              	.LBE2227:
 864              	.LBE2260:
 865              	.LBB2261:
 866              	.LBB2107:
  73:Src/Settings/song.h **** 
 867              		.loc 1 73 20 view .LVU250
 868 01c2 3431     		adds	r1, r1, #52
 869              	.LBE2107:
 870              	.LBE2261:
 871              	.LBB2262:
 872              	.LBB2236:
 873              	.LBB2183:
 874              	.LBB2178:
  45:Src/Settings/baseTrack.h **** 
 875              		.loc 8 45 9 view .LVU251
 876 01c4 44F85A6C 		str	r6, [r4, #-90]
  47:Src/Settings/baseTrack.h **** 		pattern_pool = &data_->pattern_pool_;
 877              		.loc 8 47 3 is_stmt 1 view .LVU252
  48:Src/Settings/baseTrack.h **** 		pattern_list->size_ = 0;
 878              		.loc 8 48 3 view .LVU253
 879              		.loc 8 49 3 view .LVU254
 880              	.LBE2178:
 881              	.LBE2183:
 882              	.LBE2236:
 883              	.LBB2237:
 884              	.LBB2198:
 885              	.LBB2195:
  45:Src/Settings/baseTrack.h **** 
 886              		.loc 8 45 9 is_stmt 0 view .LVU255
 887 01c8 44F84A6C 		str	r6, [r4, #-74]
ARM GAS  /var/folders/84/_x1cyy_j36g486tldtwl37280000gn/T//ccQg3xDo.s 			page 33


 888              	.LBE2195:
 889              	.LBE2198:
 890              	.LBE2237:
 891              	.LBB2238:
 892              	.LBB2211:
 893              	.LBB2208:
 894 01cc 44F83A6C 		str	r6, [r4, #-58]
 895              	.LBE2208:
 896              	.LBE2211:
 897              	.LBE2238:
 898              	.LBB2239:
 899              	.LBB2224:
 900              	.LBB2221:
 901 01d0 44F82A6C 		str	r6, [r4, #-42]
 902              	.LBE2221:
 903              	.LBE2224:
 904              	.LBE2239:
 905              	.LBB2240:
 906              	.LBB2233:
 907 01d4 44F86A6C 		str	r6, [r4, #-106]
 908              	.LBE2233:
 909              	.LBE2240:
 910              	.LBE2262:
 911              	.LBB2263:
 912              	.LBB2108:
  73:Src/Settings/song.h **** 
 913              		.loc 1 73 20 view .LVU256
 914 01d8 4046     		mov	r0, r8
 915              	.LBE2108:
 916              	.LBE2263:
 917              	.LBB2264:
 918              	.LBB2241:
 919              	.LBB2184:
 920              	.LBB2179:
  47:Src/Settings/baseTrack.h **** 		pattern_pool = &data_->pattern_pool_;
 921              		.loc 8 47 16 view .LVU257
 922 01da 44F8564C 		str	r4, [r4, #-86]
 923              	.LBB2172:
 924              	.LBB2173:
 925              		.file 10 "Src/Settings/pattern.h"
   1:Src/Settings/pattern.h **** #ifndef Pattern_h
   2:Src/Settings/pattern.h **** #define Pattern_h
   3:Src/Settings/pattern.h **** 
   4:Src/Settings/pattern.h **** #include "trackData.h"
   5:Src/Settings/pattern.h **** #include "uiText.h"
   6:Src/Settings/pattern.h **** 
   7:Src/Settings/pattern.h **** // base pattern
   8:Src/Settings/pattern.h **** 
   9:Src/Settings/pattern.h **** class Pattern {
  10:Src/Settings/pattern.h **** 
  11:Src/Settings/pattern.h **** public:
  12:Src/Settings/pattern.h **** 
  13:Src/Settings/pattern.h **** 	void init(TrackData::List *list) {
  14:Src/Settings/pattern.h **** 		list_ = list;
 926              		.loc 10 14 9 view .LVU258
 927 01de 44F85E4C 		str	r4, [r4, #-94]
 928              	.LBE2173:
ARM GAS  /var/folders/84/_x1cyy_j36g486tldtwl37280000gn/T//ccQg3xDo.s 			page 34


 929              	.LBE2172:
 930              	.LBE2179:
 931              	.LBE2184:
 932              	.LBE2241:
 933              	.LBB2242:
 934              	.LBB2199:
 935              	.LBB2196:
  47:Src/Settings/baseTrack.h **** 		pattern_pool = &data_->pattern_pool_;
 936              		.loc 8 47 16 view .LVU259
 937 01e2 44F8464C 		str	r4, [r4, #-70]
 938              	.LBB2191:
 939              	.LBB2192:
 940              		.loc 10 14 9 view .LVU260
 941 01e6 44F84E4C 		str	r4, [r4, #-78]
 942              	.LBE2192:
 943              	.LBE2191:
 944              	.LBE2196:
 945              	.LBE2199:
 946              	.LBE2242:
 947              	.LBB2243:
 948              	.LBB2212:
 949              	.LBB2209:
  47:Src/Settings/baseTrack.h **** 		pattern_pool = &data_->pattern_pool_;
 950              		.loc 8 47 16 view .LVU261
 951 01ea 44F8364C 		str	r4, [r4, #-54]
 952              	.LBB2204:
 953              	.LBB2205:
 954              		.loc 10 14 9 view .LVU262
 955 01ee 44F83E4C 		str	r4, [r4, #-62]
 956              	.LBE2205:
 957              	.LBE2204:
 958              	.LBE2209:
 959              	.LBE2212:
 960              	.LBE2243:
 961              	.LBB2244:
 962              	.LBB2225:
 963              	.LBB2222:
  47:Src/Settings/baseTrack.h **** 		pattern_pool = &data_->pattern_pool_;
 964              		.loc 8 47 16 view .LVU263
 965 01f2 44F8264C 		str	r4, [r4, #-38]
 966              	.LBB2217:
 967              	.LBB2218:
 968              		.loc 10 14 9 view .LVU264
 969 01f6 44F82E4C 		str	r4, [r4, #-46]
 970              	.LBE2218:
 971              	.LBE2217:
 972              	.LBE2222:
 973              	.LBE2225:
 974              	.LBE2244:
 975              	.LBB2245:
 976              	.LBB2234:
  47:Src/Settings/baseTrack.h **** 		pattern_pool = &data_->pattern_pool_;
 977              		.loc 8 47 16 view .LVU265
 978 01fa 44F8664C 		str	r4, [r4, #-102]
 979              	.LBB2229:
 980              	.LBB2230:
 981              		.loc 10 14 9 view .LVU266
ARM GAS  /var/folders/84/_x1cyy_j36g486tldtwl37280000gn/T//ccQg3xDo.s 			page 35


 982 01fe 44F86E4C 		str	r4, [r4, #-110]
 983              	.LBE2230:
 984              	.LBE2229:
 985              	.LBE2234:
 986              	.LBE2245:
 987              	.LBE2264:
 988              	.LBB2265:
 989              	.LBB2266:
  30:Src/Settings/track.h **** 	}
 990              		.loc 7 30 10 view .LVU267
 991 0202 44F81E5C 		str	r5, [r4, #-30]
 992              	.LBE2266:
 993              	.LBE2265:
 994              	.LBB2268:
 995              	.LBB2246:
 996              	.LBB2185:
 997              	.LBB2180:
 998              		.loc 8 49 23 view .LVU268
 999 0206 84F8FF70 		strb	r7, [r4, #255]
  50:Src/Settings/baseTrack.h **** 
  51:Src/Settings/baseTrack.h **** 		pattern.init(pattern_list);
 1000              		.loc 8 51 3 is_stmt 1 view .LVU269
 1001              	.LVL35:
 1002              	.LBB2175:
 1003              	.LBI2172:
  13:Src/Settings/pattern.h **** 		list_ = list;
 1004              		.loc 10 13 7 view .LVU270
 1005              	.LBB2174:
 1006              		.loc 10 14 3 view .LVU271
 1007              		.loc 10 14 3 is_stmt 0 view .LVU272
 1008              	.LBE2174:
 1009              	.LBE2175:
 1010              	.LBE2180:
 1011              	.LBE2185:
 1012              	.LBE2246:
 1013              	.LBE2268:
 1014              	.LBE2339:
  22:Src/Settings/track.h **** 		drum.init(&data);
 1015              		.loc 7 22 3 is_stmt 1 view .LVU273
 1016              	.LBB2340:
 1017              	.LBB2269:
 1018              	.LBB2247:
 1019              	.LBI2188:
 1020              		.file 11 "Src/Settings/chordTrack.h"
   1:Src/Settings/chordTrack.h **** #ifndef ChordTrack_h
   2:Src/Settings/chordTrack.h **** #define ChordTrack_h
   3:Src/Settings/chordTrack.h **** 
   4:Src/Settings/chordTrack.h **** #include "baseTrack.h"
   5:Src/Settings/chordTrack.h **** #include "serialItem.h"
   6:Src/Settings/chordTrack.h **** #include "arpeggiator.h"
   7:Src/Settings/chordTrack.h **** #include "chord.h"
   8:Src/Settings/chordTrack.h **** 
   9:Src/Settings/chordTrack.h **** class ChordTrack : public BaseTrack {
  10:Src/Settings/chordTrack.h **** 
  11:Src/Settings/chordTrack.h **** public:
  12:Src/Settings/chordTrack.h **** 
  13:Src/Settings/chordTrack.h **** 	enum Item {
ARM GAS  /var/folders/84/_x1cyy_j36g486tldtwl37280000gn/T//ccQg3xDo.s 			page 36


  14:Src/Settings/chordTrack.h **** 		CHORD_OCT_OFFSET,
  15:Src/Settings/chordTrack.h **** 		NUM_TRACK_ITEMS
  16:Src/Settings/chordTrack.h **** 	};
  17:Src/Settings/chordTrack.h **** 
  18:Src/Settings/chordTrack.h **** 	enum StepItem {
  19:Src/Settings/chordTrack.h **** 		TRIGGER,
  20:Src/Settings/chordTrack.h **** 		PROBABILITY,
  21:Src/Settings/chordTrack.h **** 		CHORD_TYPE,
  22:Src/Settings/chordTrack.h **** 		CHORD_VARIATION,
  23:Src/Settings/chordTrack.h **** 		CHORD_INVERSION,
  24:Src/Settings/chordTrack.h **** 		CHORD_ROOT_SHIFT,
  25:Src/Settings/chordTrack.h **** 		VELOCITY,
  26:Src/Settings/chordTrack.h **** 		GATE_LENGTH,
  27:Src/Settings/chordTrack.h **** 		DELAY,
  28:Src/Settings/chordTrack.h **** 		ARP_SPEED,
  29:Src/Settings/chordTrack.h **** 		ARP_MODE,
  30:Src/Settings/chordTrack.h **** 		ARP_GATE,
  31:Src/Settings/chordTrack.h **** 		ARP_VELOCITY,
  32:Src/Settings/chordTrack.h **** 		ARP_TRIGGER,
  33:Src/Settings/chordTrack.h **** 		ARP_OFFSET,
  34:Src/Settings/chordTrack.h **** 		NUM_STEP_ITEMS
  35:Src/Settings/chordTrack.h **** 	};
  36:Src/Settings/chordTrack.h **** 
  37:Src/Settings/chordTrack.h **** 	ASSERT_STEP_ITEMS(NUM_STEP_ITEMS);
  38:Src/Settings/chordTrack.h **** 
  39:Src/Settings/chordTrack.h **** 	// text
  40:Src/Settings/chordTrack.h **** 	static const char* step_item_text(StepItem item) {
  41:Src/Settings/chordTrack.h **** 		switch (item)
  42:Src/Settings/chordTrack.h **** 		{
  43:Src/Settings/chordTrack.h **** 		case TRIGGER:			return "TRIGGER";
  44:Src/Settings/chordTrack.h **** 		case PROBABILITY:		return "PROBABILITY";
  45:Src/Settings/chordTrack.h **** 		case CHORD_TYPE:		return "CHORD TYPE";
  46:Src/Settings/chordTrack.h **** 		case CHORD_VARIATION:	return "CHORD VARIATION";
  47:Src/Settings/chordTrack.h **** 		case CHORD_INVERSION:	return "CHORD INVERSION";
  48:Src/Settings/chordTrack.h **** 		case CHORD_ROOT_SHIFT:	return "CHORD ROOT_SHIFT";
  49:Src/Settings/chordTrack.h **** 		case VELOCITY:			return "VELOCITY";
  50:Src/Settings/chordTrack.h **** 		case GATE_LENGTH:		return "GATE LENGTH";
  51:Src/Settings/chordTrack.h **** 		case DELAY:				return "DELAY";
  52:Src/Settings/chordTrack.h **** 		case ARP_SPEED:			return "ARP SPEED";
  53:Src/Settings/chordTrack.h **** 		case ARP_MODE:			return "ARP MODE";
  54:Src/Settings/chordTrack.h **** 		case ARP_GATE:			return "ARP GATE";
  55:Src/Settings/chordTrack.h **** 		case ARP_VELOCITY:		return "ARP VELOCITY";
  56:Src/Settings/chordTrack.h **** 		case ARP_TRIGGER:		return "ARP TRIGGER";
  57:Src/Settings/chordTrack.h **** 		case ARP_OFFSET:		return "ARP OFFSET";
  58:Src/Settings/chordTrack.h **** 		default:
  59:Src/Settings/chordTrack.h **** 			break;
  60:Src/Settings/chordTrack.h **** 		}
  61:Src/Settings/chordTrack.h **** 		return nullptr;
  62:Src/Settings/chordTrack.h **** 	}
  63:Src/Settings/chordTrack.h **** 
  64:Src/Settings/chordTrack.h **** 	static const char* step_value_text(StepItem item, int data) {
  65:Src/Settings/chordTrack.h **** 		switch (item)
  66:Src/Settings/chordTrack.h **** 		{
  67:Src/Settings/chordTrack.h **** 		case TRIGGER:			return UiText::bool_to_on_off(data);
  68:Src/Settings/chordTrack.h **** 		case PROBABILITY:		return UiText::percentage_text(data, 7);
  69:Src/Settings/chordTrack.h **** 		case CHORD_TYPE:		return Chord::name(data);
  70:Src/Settings/chordTrack.h **** 		case CHORD_VARIATION:	return Chord::variation_text(data);
ARM GAS  /var/folders/84/_x1cyy_j36g486tldtwl37280000gn/T//ccQg3xDo.s 			page 37


  71:Src/Settings/chordTrack.h **** 		case CHORD_INVERSION:	return Chord::inversion_text(data);
  72:Src/Settings/chordTrack.h **** 		case CHORD_ROOT_SHIFT:	return UiText::unsigned_int_to_text(data);
  73:Src/Settings/chordTrack.h **** 		case VELOCITY:			return UiText::unsigned_int_to_text(data);
  74:Src/Settings/chordTrack.h **** 		case GATE_LENGTH:		return ClockEngine::gate_duration_text(data);
  75:Src/Settings/chordTrack.h **** 		case DELAY:				return ClockEngine::gate_duration_text(data);
  76:Src/Settings/chordTrack.h **** 		case ARP_SPEED:			return ClockEngine::speed_text_small(data);
  77:Src/Settings/chordTrack.h **** 		case ARP_MODE:			return Arpeggiator::clock_mode_text_small(data);
  78:Src/Settings/chordTrack.h **** 		case ARP_GATE:			return Arpeggiator::clock_mode_text_small(data);
  79:Src/Settings/chordTrack.h **** 		case ARP_VELOCITY:		return Arpeggiator::clock_mode_text_small(data);
  80:Src/Settings/chordTrack.h **** 		case ARP_TRIGGER:		return Arpeggiator::trigger_mode_text(data);
  81:Src/Settings/chordTrack.h **** 		case ARP_OFFSET:		return UiText::unsigned_int_to_text(data);
  82:Src/Settings/chordTrack.h **** 		default:
  83:Src/Settings/chordTrack.h **** 			break;
  84:Src/Settings/chordTrack.h **** 		}
  85:Src/Settings/chordTrack.h **** 		return nullptr;
  86:Src/Settings/chordTrack.h **** 	}
  87:Src/Settings/chordTrack.h **** 
  88:Src/Settings/chordTrack.h **** 	void init(TrackData *data) {
 1021              		.loc 11 88 7 view .LVU274
 1022              	.LBE2247:
 1023              	.LBE2269:
 1024              	.LBE2340:
  89:Src/Settings/chordTrack.h **** 		BaseTrack::init(data);
 1025              		.loc 11 89 3 view .LVU275
 1026              	.LBB2341:
 1027              	.LBB2270:
 1028              	.LBB2248:
 1029              	.LBB2200:
 1030              	.LBI2189:
  44:Src/Settings/baseTrack.h **** 		data_ = data;
 1031              		.loc 8 44 7 view .LVU276
 1032              	.LBB2197:
  45:Src/Settings/baseTrack.h **** 
 1033              		.loc 8 45 3 view .LVU277
  47:Src/Settings/baseTrack.h **** 		pattern_pool = &data_->pattern_pool_;
 1034              		.loc 8 47 3 view .LVU278
  48:Src/Settings/baseTrack.h **** 		pattern_list->size_ = 0;
 1035              		.loc 8 48 3 view .LVU279
  49:Src/Settings/baseTrack.h **** 
 1036              		.loc 8 49 3 view .LVU280
 1037              		.loc 8 51 3 view .LVU281
 1038              	.LBB2194:
 1039              	.LBI2191:
  13:Src/Settings/pattern.h **** 		list_ = list;
 1040              		.loc 10 13 7 view .LVU282
 1041              	.LBB2193:
 1042              		.loc 10 14 3 view .LVU283
 1043              		.loc 10 14 3 is_stmt 0 view .LVU284
 1044              	.LBE2193:
 1045              	.LBE2194:
 1046              	.LBE2197:
 1047              	.LBE2200:
 1048              	.LBE2248:
 1049              	.LBE2270:
 1050              	.LBE2341:
  23:Src/Settings/track.h **** 		curve.init(&data);
 1051              		.loc 7 23 3 is_stmt 1 view .LVU285
ARM GAS  /var/folders/84/_x1cyy_j36g486tldtwl37280000gn/T//ccQg3xDo.s 			page 38


 1052              	.LBB2342:
 1053              	.LBB2271:
 1054              	.LBB2249:
 1055              	.LBI2201:
 1056              		.file 12 "Src/Settings/drumTrack.h"
   1:Src/Settings/drumTrack.h **** #ifndef DrumTrack_h
   2:Src/Settings/drumTrack.h **** #define DrumTrack_h
   3:Src/Settings/drumTrack.h **** 
   4:Src/Settings/drumTrack.h **** #include "baseTrack.h"
   5:Src/Settings/drumTrack.h **** #include "serialItem.h"
   6:Src/Settings/drumTrack.h **** 
   7:Src/Settings/drumTrack.h **** class DrumTrack : public BaseTrack {
   8:Src/Settings/drumTrack.h **** 
   9:Src/Settings/drumTrack.h **** public:
  10:Src/Settings/drumTrack.h **** 
  11:Src/Settings/drumTrack.h **** 	enum Item {
  12:Src/Settings/drumTrack.h **** 		DRUM_NOTE,
  13:Src/Settings/drumTrack.h **** 		NUM_TRACK_ITEMS
  14:Src/Settings/drumTrack.h **** 	};
  15:Src/Settings/drumTrack.h **** 
  16:Src/Settings/drumTrack.h **** 	enum StepItem {
  17:Src/Settings/drumTrack.h **** 		TRIGGER,
  18:Src/Settings/drumTrack.h **** 		PROBABILITY,
  19:Src/Settings/drumTrack.h **** 		VELOCITY,
  20:Src/Settings/drumTrack.h **** 		GATE_LENGTH,
  21:Src/Settings/drumTrack.h **** 		NUM_REPEATS,
  22:Src/Settings/drumTrack.h **** 		REPEAT_SPREAD,
  23:Src/Settings/drumTrack.h **** 		REPEAT_VELOCITY,
  24:Src/Settings/drumTrack.h **** 		DELAY,
  25:Src/Settings/drumTrack.h **** 		NUM_STEP_ITEMS
  26:Src/Settings/drumTrack.h **** 	};
  27:Src/Settings/drumTrack.h **** 
  28:Src/Settings/drumTrack.h **** 	ASSERT_STEP_ITEMS(NUM_STEP_ITEMS);
  29:Src/Settings/drumTrack.h **** 
  30:Src/Settings/drumTrack.h **** 	static const char* step_item_text(StepItem item) {
  31:Src/Settings/drumTrack.h **** 		switch (item)
  32:Src/Settings/drumTrack.h **** 		{
  33:Src/Settings/drumTrack.h **** 		case TRIGGER:			return "TRIGGER";
  34:Src/Settings/drumTrack.h **** 		case PROBABILITY:		return "PROBABILITY";
  35:Src/Settings/drumTrack.h **** 		case VELOCITY:			return "VELOCITY";
  36:Src/Settings/drumTrack.h **** 		case GATE_LENGTH:		return "GATE LENGTH";
  37:Src/Settings/drumTrack.h **** 		case NUM_REPEATS:		return "REPEATS";
  38:Src/Settings/drumTrack.h **** 		case REPEAT_SPREAD:		return "REPEAT SPREAD";
  39:Src/Settings/drumTrack.h **** 		case REPEAT_VELOCITY:	return "REPEAT VELOCITY";
  40:Src/Settings/drumTrack.h **** 		case DELAY:				return "DELAY";
  41:Src/Settings/drumTrack.h **** 		default:
  42:Src/Settings/drumTrack.h **** 			break;
  43:Src/Settings/drumTrack.h **** 		}
  44:Src/Settings/drumTrack.h **** 		return nullptr;
  45:Src/Settings/drumTrack.h **** 	}
  46:Src/Settings/drumTrack.h **** 
  47:Src/Settings/drumTrack.h **** 	static const char* step_value_text(StepItem item, int value) {
  48:Src/Settings/drumTrack.h **** 		switch (item)
  49:Src/Settings/drumTrack.h **** 		{
  50:Src/Settings/drumTrack.h **** 		case TRIGGER:			return UiText::bool_to_on_off(value);
  51:Src/Settings/drumTrack.h **** 		case PROBABILITY:		return UiText::percentage_text(value, 7);
  52:Src/Settings/drumTrack.h **** 		case VELOCITY:			return UiText::unsigned_int_to_text(value);
ARM GAS  /var/folders/84/_x1cyy_j36g486tldtwl37280000gn/T//ccQg3xDo.s 			page 39


  53:Src/Settings/drumTrack.h **** 		case GATE_LENGTH:		return ClockEngine::gate_duration_text(value);
  54:Src/Settings/drumTrack.h **** 		case NUM_REPEATS:		return RepeatEngine::repeat_text(value);
  55:Src/Settings/drumTrack.h **** 		case REPEAT_SPREAD:		return RepeatEngine::spread_text(value);
  56:Src/Settings/drumTrack.h **** 		case REPEAT_VELOCITY:	return RepeatEngine::velocity_ramp_text(value);
  57:Src/Settings/drumTrack.h **** 		case DELAY:				return ClockEngine::gate_duration_text(value);
  58:Src/Settings/drumTrack.h **** 		default:
  59:Src/Settings/drumTrack.h **** 			break;
  60:Src/Settings/drumTrack.h **** 		}
  61:Src/Settings/drumTrack.h **** 		return nullptr;
  62:Src/Settings/drumTrack.h **** 	}
  63:Src/Settings/drumTrack.h **** 
  64:Src/Settings/drumTrack.h **** 	void init(TrackData *data) {
 1057              		.loc 12 64 7 view .LVU286
 1058              	.LBE2249:
 1059              	.LBE2271:
 1060              	.LBE2342:
  65:Src/Settings/drumTrack.h **** 		BaseTrack::init(data);
 1061              		.loc 12 65 3 view .LVU287
 1062              	.LBB2343:
 1063              	.LBB2272:
 1064              	.LBB2250:
 1065              	.LBB2213:
 1066              	.LBI2202:
  44:Src/Settings/baseTrack.h **** 		data_ = data;
 1067              		.loc 8 44 7 view .LVU288
 1068              	.LBB2210:
  45:Src/Settings/baseTrack.h **** 
 1069              		.loc 8 45 3 view .LVU289
  47:Src/Settings/baseTrack.h **** 		pattern_pool = &data_->pattern_pool_;
 1070              		.loc 8 47 3 view .LVU290
  48:Src/Settings/baseTrack.h **** 		pattern_list->size_ = 0;
 1071              		.loc 8 48 3 view .LVU291
  49:Src/Settings/baseTrack.h **** 
 1072              		.loc 8 49 3 view .LVU292
 1073              		.loc 8 51 3 view .LVU293
 1074              	.LBB2207:
 1075              	.LBI2204:
  13:Src/Settings/pattern.h **** 		list_ = list;
 1076              		.loc 10 13 7 view .LVU294
 1077              	.LBB2206:
 1078              		.loc 10 14 3 view .LVU295
 1079              		.loc 10 14 3 is_stmt 0 view .LVU296
 1080              	.LBE2206:
 1081              	.LBE2207:
 1082              	.LBE2210:
 1083              	.LBE2213:
 1084              	.LBE2250:
 1085              	.LBE2272:
 1086              	.LBE2343:
  24:Src/Settings/track.h **** 
 1087              		.loc 7 24 3 is_stmt 1 view .LVU297
 1088              	.LBB2344:
 1089              	.LBB2273:
 1090              	.LBB2251:
 1091              	.LBI2214:
 1092              		.file 13 "Src/Settings/curveTrack.h"
   1:Src/Settings/curveTrack.h **** #ifndef CurveTrack_h
ARM GAS  /var/folders/84/_x1cyy_j36g486tldtwl37280000gn/T//ccQg3xDo.s 			page 40


   2:Src/Settings/curveTrack.h **** #define CurveTrack_h
   3:Src/Settings/curveTrack.h **** 
   4:Src/Settings/curveTrack.h **** #include "baseTrack.h"
   5:Src/Settings/curveTrack.h **** #include "serialItem.h"
   6:Src/Settings/curveTrack.h **** 
   7:Src/Settings/curveTrack.h **** class CurveTrack : public BaseTrack {
   8:Src/Settings/curveTrack.h **** 
   9:Src/Settings/curveTrack.h **** public:
  10:Src/Settings/curveTrack.h **** 
  11:Src/Settings/curveTrack.h **** 	enum Item {
  12:Src/Settings/curveTrack.h **** 		INIT_VALUE,
  13:Src/Settings/curveTrack.h **** 		CC_NUMBER,
  14:Src/Settings/curveTrack.h **** 		SEND_CC,
  15:Src/Settings/curveTrack.h **** 		SEND_BEND,
  16:Src/Settings/curveTrack.h **** 		NUM_TRACK_ITEMS
  17:Src/Settings/curveTrack.h **** 	};
  18:Src/Settings/curveTrack.h **** 
  19:Src/Settings/curveTrack.h **** 	enum StepItem {
  20:Src/Settings/curveTrack.h **** 		TRIGGER,
  21:Src/Settings/curveTrack.h **** 		PROBABILITY,
  22:Src/Settings/curveTrack.h **** 		CC_VALUE,
  23:Src/Settings/curveTrack.h **** 		SHAPE,
  24:Src/Settings/curveTrack.h **** 		SHIFT,
  25:Src/Settings/curveTrack.h **** 		NUM_STEP_ITEMS
  26:Src/Settings/curveTrack.h **** 	};
  27:Src/Settings/curveTrack.h **** 
  28:Src/Settings/curveTrack.h **** 	static const char* step_item_text(StepItem item) {
  29:Src/Settings/curveTrack.h **** 		switch (item)
  30:Src/Settings/curveTrack.h **** 		{
  31:Src/Settings/curveTrack.h **** 		case TRIGGER:		return "TRIGGER";
  32:Src/Settings/curveTrack.h **** 		case PROBABILITY:	return "PROBABILITY";
  33:Src/Settings/curveTrack.h **** 		case CC_VALUE:		return "CC VALUE";
  34:Src/Settings/curveTrack.h **** 		case SHAPE:			return "SHAPE";
  35:Src/Settings/curveTrack.h **** 		case SHIFT:			return "SHIFT";
  36:Src/Settings/curveTrack.h **** 		default:
  37:Src/Settings/curveTrack.h **** 			break;
  38:Src/Settings/curveTrack.h **** 		}
  39:Src/Settings/curveTrack.h **** 		return nullptr;
  40:Src/Settings/curveTrack.h **** 	}
  41:Src/Settings/curveTrack.h **** 
  42:Src/Settings/curveTrack.h **** 	static const char* step_value_text(StepItem item, int data) {
  43:Src/Settings/curveTrack.h **** 		switch (item)
  44:Src/Settings/curveTrack.h **** 		{
  45:Src/Settings/curveTrack.h **** 		case TRIGGER:		return UiText::bool_to_on_off(data);
  46:Src/Settings/curveTrack.h **** 		case PROBABILITY:	return UiText::percentage_text(data, 7);
  47:Src/Settings/curveTrack.h **** 		case CC_VALUE:		return UiText::unsigned_int_to_text(data);
  48:Src/Settings/curveTrack.h **** 		case SHAPE:			return UiText::percentage_text(data, 9);
  49:Src/Settings/curveTrack.h **** 		case SHIFT:			return UiText::signed_int_to_text(data - 4);
  50:Src/Settings/curveTrack.h **** 		default:
  51:Src/Settings/curveTrack.h **** 			break;
  52:Src/Settings/curveTrack.h **** 		}
  53:Src/Settings/curveTrack.h **** 		return nullptr;
  54:Src/Settings/curveTrack.h **** 	}
  55:Src/Settings/curveTrack.h **** 
  56:Src/Settings/curveTrack.h **** 	ASSERT_STEP_ITEMS(NUM_STEP_ITEMS);
  57:Src/Settings/curveTrack.h **** 
  58:Src/Settings/curveTrack.h **** 
ARM GAS  /var/folders/84/_x1cyy_j36g486tldtwl37280000gn/T//ccQg3xDo.s 			page 41


  59:Src/Settings/curveTrack.h **** 	void init(TrackData *data) {
 1093              		.loc 13 59 7 view .LVU298
 1094              	.LBE2251:
 1095              	.LBE2273:
 1096              	.LBE2344:
  60:Src/Settings/curveTrack.h **** 		BaseTrack::init(data);
 1097              		.loc 13 60 3 view .LVU299
 1098              	.LBB2345:
 1099              	.LBB2274:
 1100              	.LBB2252:
 1101              	.LBB2226:
 1102              	.LBI2215:
  44:Src/Settings/baseTrack.h **** 		data_ = data;
 1103              		.loc 8 44 7 view .LVU300
 1104              	.LBB2223:
  45:Src/Settings/baseTrack.h **** 
 1105              		.loc 8 45 3 view .LVU301
  47:Src/Settings/baseTrack.h **** 		pattern_pool = &data_->pattern_pool_;
 1106              		.loc 8 47 3 view .LVU302
  48:Src/Settings/baseTrack.h **** 		pattern_list->size_ = 0;
 1107              		.loc 8 48 3 view .LVU303
  49:Src/Settings/baseTrack.h **** 
 1108              		.loc 8 49 3 view .LVU304
 1109              		.loc 8 51 3 view .LVU305
 1110              	.LBB2220:
 1111              	.LBI2217:
  13:Src/Settings/pattern.h **** 		list_ = list;
 1112              		.loc 10 13 7 view .LVU306
 1113              	.LBB2219:
 1114              		.loc 10 14 3 view .LVU307
 1115              		.loc 10 14 3 is_stmt 0 view .LVU308
 1116              	.LBE2219:
 1117              	.LBE2220:
 1118              	.LBE2223:
 1119              	.LBE2226:
 1120              	.LBE2252:
 1121              	.LBE2274:
 1122              	.LBE2345:
  26:Src/Settings/track.h **** 	}
 1123              		.loc 7 26 3 is_stmt 1 view .LVU309
 1124              	.LBB2346:
 1125              	.LBB2275:
 1126              	.LBB2253:
 1127              	.LBI2227:
  44:Src/Settings/baseTrack.h **** 		data_ = data;
 1128              		.loc 8 44 7 view .LVU310
 1129              	.LBB2235:
  45:Src/Settings/baseTrack.h **** 
 1130              		.loc 8 45 3 view .LVU311
  47:Src/Settings/baseTrack.h **** 		pattern_pool = &data_->pattern_pool_;
 1131              		.loc 8 47 3 view .LVU312
  48:Src/Settings/baseTrack.h **** 		pattern_list->size_ = 0;
 1132              		.loc 8 48 3 view .LVU313
  49:Src/Settings/baseTrack.h **** 
 1133              		.loc 8 49 3 view .LVU314
 1134              		.loc 8 51 3 view .LVU315
 1135              	.LBB2232:
ARM GAS  /var/folders/84/_x1cyy_j36g486tldtwl37280000gn/T//ccQg3xDo.s 			page 42


 1136              	.LBI2229:
  13:Src/Settings/pattern.h **** 		list_ = list;
 1137              		.loc 10 13 7 view .LVU316
 1138              	.LBB2231:
 1139              		.loc 10 14 3 view .LVU317
 1140              		.loc 10 14 3 is_stmt 0 view .LVU318
 1141              	.LBE2231:
 1142              	.LBE2232:
 1143              	.LBE2235:
 1144              	.LBE2253:
 1145              	.LBE2275:
  36:Src/Settings/song.h **** 			create_track(i, Track::NOTE_TRACK);
 1146              		.loc 1 36 4 is_stmt 1 view .LVU319
  36:Src/Settings/song.h **** 			create_track(i, Track::NOTE_TRACK);
 1147              		.loc 1 36 4 is_stmt 0 view .LVU320
 1148              	.LBE2346:
  19:Src/Settings/song.h **** 	}
 1149              		.loc 1 19 3 is_stmt 1 view .LVU321
 1150              	.LBB2347:
 1151              	.LBB2276:
 1152              	.LBI2265:
  29:Src/Settings/track.h **** 		index_ = index;
 1153              		.loc 7 29 7 view .LVU322
 1154              	.LBB2267:
  30:Src/Settings/track.h **** 	}
 1155              		.loc 7 30 3 view .LVU323
  30:Src/Settings/track.h **** 	}
 1156              		.loc 7 30 3 is_stmt 0 view .LVU324
 1157              	.LBE2267:
 1158              	.LBE2276:
  37:Src/Settings/song.h **** 		}
 1159              		.loc 1 37 4 is_stmt 1 view .LVU325
 1160              	.LBB2277:
 1161              	.LBI1220:
  68:Src/Settings/song.h **** 		Track &t = track(index);
 1162              		.loc 1 68 7 view .LVU326
 1163              	.LBB2109:
  69:Src/Settings/song.h **** 
 1164              		.loc 1 69 3 view .LVU327
  69:Src/Settings/song.h **** 
 1165              		.loc 1 69 3 is_stmt 0 view .LVU328
 1166              	.LBE2109:
 1167              	.LBE2277:
 1168              	.LBE2347:
  19:Src/Settings/song.h **** 	}
 1169              		.loc 1 19 3 is_stmt 1 view .LVU329
 1170              	.LBB2348:
 1171              	.LBB2278:
 1172              	.LBB2110:
  71:Src/Settings/song.h **** 			// remove old type form list
 1173              		.loc 1 71 3 view .LVU330
  73:Src/Settings/song.h **** 
 1174              		.loc 1 73 4 view .LVU331
 1175              	.LBB2044:
 1176              	.LBI2044:
  52:Src/Settings/baseTrack.h **** 	}
  53:Src/Settings/baseTrack.h **** 
ARM GAS  /var/folders/84/_x1cyy_j36g486tldtwl37280000gn/T//ccQg3xDo.s 			page 43


  54:Src/Settings/baseTrack.h **** 	static constexpr uint8_t max_label_length() {
  55:Src/Settings/baseTrack.h **** 		return TrackData::kMaxLabelLength;
  56:Src/Settings/baseTrack.h **** 	}
  57:Src/Settings/baseTrack.h **** 
  58:Src/Settings/baseTrack.h **** 	static constexpr uint16_t max_patterns() {
  59:Src/Settings/baseTrack.h **** 		return TrackData::kMaxPatterns;
  60:Src/Settings/baseTrack.h **** 	}
  61:Src/Settings/baseTrack.h **** 
  62:Src/Settings/baseTrack.h **** 	static constexpr uint8_t max_steps_per_pattern() {
  63:Src/Settings/baseTrack.h **** 		return TrackData::kMaxStepsPerPattern;
  64:Src/Settings/baseTrack.h **** 	}
  65:Src/Settings/baseTrack.h **** 
  66:Src/Settings/baseTrack.h **** 	constexpr uint32_t* settings() {
  67:Src/Settings/baseTrack.h **** 		return &data_->serial_[0];
  68:Src/Settings/baseTrack.h **** 	}
  69:Src/Settings/baseTrack.h **** 
  70:Src/Settings/baseTrack.h **** 	// type
  71:Src/Settings/baseTrack.h **** 	uint8_t type() {
 1177              		.loc 8 71 10 view .LVU332
 1178              	.LBB2045:
  72:Src/Settings/baseTrack.h **** 		return data_->type_;
 1179              		.loc 8 72 3 view .LVU333
 1180              	.LBE2045:
 1181              	.LBE2044:
  73:Src/Settings/song.h **** 
 1182              		.loc 1 73 20 is_stmt 0 view .LVU334
 1183 020a 0092     		str	r2, [sp]
 1184 020c FFF7FEFF 		bl	_ZN4Song16remove_from_listEPNS_4ListEh
 1185              	.LVL36:
  75:Src/Settings/song.h **** 			set_track_mute(index, false);
 1186              		.loc 1 75 4 is_stmt 1 view .LVU335
 1187              	.LBB2046:
 1188              	.LBI1222:
  53:Src/Settings/track.h **** 		BaseTrack::set_type(track_type);
 1189              		.loc 7 53 7 view .LVU336
 1190              	.LBB1979:
  54:Src/Settings/track.h **** 
 1191              		.loc 7 54 3 view .LVU337
  54:Src/Settings/track.h **** 
 1192              		.loc 7 54 22 is_stmt 0 view .LVU338
 1193 0210 54F86A2C 		ldr	r2, [r4, #-106]
 1194              	.LVL37:
 1195              	.LBB1224:
 1196              	.LBI1224:
  73:Src/Settings/baseTrack.h **** 	}
  74:Src/Settings/baseTrack.h **** 
  75:Src/Settings/baseTrack.h **** 	void set_type(int value) {
 1197              		.loc 8 75 7 is_stmt 1 view .LVU339
 1198              	.LBB1225:
  76:Src/Settings/baseTrack.h **** 		data_->type_ = stmlib::clip(0, NUM_TYPES - 1, value);
 1199              		.loc 8 76 3 view .LVU340
 1200              		.loc 8 76 3 is_stmt 0 view .LVU341
 1201              	.LBE1225:
 1202              	.LBE1224:
 1203              	.LBE1979:
 1204              	.LBE2046:
 1205              	.LBE2110:
ARM GAS  /var/folders/84/_x1cyy_j36g486tldtwl37280000gn/T//ccQg3xDo.s 			page 44


 1206              	.LBE2278:
 1207              	.LBE2348:
 1208              		.loc 3 31 3 is_stmt 1 view .LVU342
 1209              	.LBB2349:
 1210              	.LBB2279:
 1211              	.LBB2111:
 1212              	.LBB2047:
 1213              	.LBB1980:
 1214              	.LBB1227:
 1215              	.LBB1226:
 1216              		.loc 8 76 16 is_stmt 0 view .LVU343
 1217 0214 1770     		strb	r7, [r2]
 1218              	.LVL38:
 1219              		.loc 8 76 16 view .LVU344
 1220              	.LBE1226:
 1221              	.LBE1227:
  56:Src/Settings/track.h **** 		{
 1222              		.loc 7 56 3 is_stmt 1 view .LVU345
  58:Src/Settings/track.h **** 			note.clear();
 1223              		.loc 7 58 3 view .LVU346
  59:Src/Settings/track.h **** 			break;
 1224              		.loc 7 59 4 view .LVU347
 1225              	.LBB1228:
 1226              	.LBB1229:
 1227              	.LBB1230:
  77:Src/Settings/baseTrack.h **** 	}
  78:Src/Settings/baseTrack.h **** 
  79:Src/Settings/baseTrack.h **** 	const char* type_text() {
  80:Src/Settings/baseTrack.h **** 		return type_text(type());
  81:Src/Settings/baseTrack.h **** 	}
  82:Src/Settings/baseTrack.h **** 
  83:Src/Settings/baseTrack.h **** 	// port
  84:Src/Settings/baseTrack.h **** 	uint8_t port() {
  85:Src/Settings/baseTrack.h **** 		return data_->port_;
  86:Src/Settings/baseTrack.h **** 	}
  87:Src/Settings/baseTrack.h **** 
  88:Src/Settings/baseTrack.h **** 	void set_port(int port) {
  89:Src/Settings/baseTrack.h **** 		data_->port_ = stmlib::clip(0, MidiPort::NUM_PORTS - 1, port);
  90:Src/Settings/baseTrack.h **** 	}
  91:Src/Settings/baseTrack.h **** 
  92:Src/Settings/baseTrack.h **** 	const char* port_text() {
  93:Src/Settings/baseTrack.h **** 		return MidiPort::port_text(port());
  94:Src/Settings/baseTrack.h **** 	}
  95:Src/Settings/baseTrack.h **** 
  96:Src/Settings/baseTrack.h **** 	// channel
  97:Src/Settings/baseTrack.h **** 	int channel() {
  98:Src/Settings/baseTrack.h **** 		return data_->channel_;
  99:Src/Settings/baseTrack.h **** 	}
 100:Src/Settings/baseTrack.h **** 
 101:Src/Settings/baseTrack.h **** 	void set_channel(int channel) {
 102:Src/Settings/baseTrack.h **** 		data_->channel_ = stmlib::clip(0, 15, channel);
 103:Src/Settings/baseTrack.h **** 	}
 104:Src/Settings/baseTrack.h **** 
 105:Src/Settings/baseTrack.h **** 	const char* channel_text() {
 106:Src/Settings/baseTrack.h **** 		return UiText::midi_channel_text(channel());
 107:Src/Settings/baseTrack.h **** 	}
 108:Src/Settings/baseTrack.h **** 
ARM GAS  /var/folders/84/_x1cyy_j36g486tldtwl37280000gn/T//ccQg3xDo.s 			page 45


 109:Src/Settings/baseTrack.h **** 	// clock mode
 110:Src/Settings/baseTrack.h **** 	uint8_t clock_mode() {
 111:Src/Settings/baseTrack.h **** 		return data_->clock_mode_;
 112:Src/Settings/baseTrack.h **** 	}
 113:Src/Settings/baseTrack.h **** 
 114:Src/Settings/baseTrack.h **** 	void set_clock_mode(int clock_mode) {
 115:Src/Settings/baseTrack.h **** 		data_->clock_mode_ = stmlib::clip(0, PositionEngine::NUM_MODES - 1, clock_mode);
 116:Src/Settings/baseTrack.h **** 	}
 117:Src/Settings/baseTrack.h **** 
 118:Src/Settings/baseTrack.h **** 	const char* clock_mode_text() {
 119:Src/Settings/baseTrack.h **** 		return PositionEngine::mode_text(clock_mode());
 120:Src/Settings/baseTrack.h **** 	}
 121:Src/Settings/baseTrack.h **** 
 122:Src/Settings/baseTrack.h **** 	// clock speed
 123:Src/Settings/baseTrack.h **** 	uint8_t clock_speed() {
 124:Src/Settings/baseTrack.h **** 		return data_->clock_speed_;
 125:Src/Settings/baseTrack.h **** 	}
 126:Src/Settings/baseTrack.h **** 
 127:Src/Settings/baseTrack.h **** 	void set_clock_speed(int clock_speed) {
 128:Src/Settings/baseTrack.h **** 		data_->clock_speed_ = stmlib::clip(0, ClockEngine::NUM_SIGNATURES - 1, clock_speed);
 129:Src/Settings/baseTrack.h **** 	}
 130:Src/Settings/baseTrack.h **** 
 131:Src/Settings/baseTrack.h **** 	const char* clock_speed_text() {
 132:Src/Settings/baseTrack.h **** 		return ClockEngine::speed_text(clock_speed());
 133:Src/Settings/baseTrack.h **** 	}
 134:Src/Settings/baseTrack.h **** 
 135:Src/Settings/baseTrack.h **** 	// delay
 136:Src/Settings/baseTrack.h **** 	uint8_t delay() {
 137:Src/Settings/baseTrack.h **** 		return data_->delay_;
 138:Src/Settings/baseTrack.h **** 	}
 139:Src/Settings/baseTrack.h **** 
 140:Src/Settings/baseTrack.h **** 	void set_delay(int delay) {
 141:Src/Settings/baseTrack.h **** 		data_->delay_ = stmlib::clip(0, 3, delay);
 142:Src/Settings/baseTrack.h **** 	}
 143:Src/Settings/baseTrack.h **** 
 144:Src/Settings/baseTrack.h **** 	const char* delay_text() {
 145:Src/Settings/baseTrack.h **** 		return ClockEngine::gate_duration_text(delay());
 146:Src/Settings/baseTrack.h **** 	}
 147:Src/Settings/baseTrack.h **** 
 148:Src/Settings/baseTrack.h **** 	// swing
 149:Src/Settings/baseTrack.h **** 	uint8_t swing() {
 150:Src/Settings/baseTrack.h **** 		return data_->swing_;
 151:Src/Settings/baseTrack.h **** 	}
 152:Src/Settings/baseTrack.h **** 
 153:Src/Settings/baseTrack.h **** 	void set_swing(int value) {
 154:Src/Settings/baseTrack.h **** 		data_->swing_ = stmlib::clip(1, 15, value);
 155:Src/Settings/baseTrack.h **** 	}
 156:Src/Settings/baseTrack.h **** 
 157:Src/Settings/baseTrack.h **** 	const char* swing_text() {
 158:Src/Settings/baseTrack.h **** 		return ClockEngine::swing_text(swing());
 159:Src/Settings/baseTrack.h **** 	}
 160:Src/Settings/baseTrack.h **** 
 161:Src/Settings/baseTrack.h **** 	// humanise
 162:Src/Settings/baseTrack.h **** 	uint8_t humanise() {
 163:Src/Settings/baseTrack.h **** 		return data_->humanise_;
 164:Src/Settings/baseTrack.h **** 	}
 165:Src/Settings/baseTrack.h **** 
ARM GAS  /var/folders/84/_x1cyy_j36g486tldtwl37280000gn/T//ccQg3xDo.s 			page 46


 166:Src/Settings/baseTrack.h **** 	void set_humanise(int value) {
 167:Src/Settings/baseTrack.h **** 		data_->humanise_ = stmlib::clip(0, 7, value);
 168:Src/Settings/baseTrack.h **** 	}
 169:Src/Settings/baseTrack.h **** 
 170:Src/Settings/baseTrack.h **** 	const char* humanise_text() {
 171:Src/Settings/baseTrack.h **** 		return UiText::percentage_text(humanise(), 7);
 172:Src/Settings/baseTrack.h **** 	}
 173:Src/Settings/baseTrack.h **** 
 174:Src/Settings/baseTrack.h **** 	// label
 175:Src/Settings/baseTrack.h **** 	const char* label() {
 176:Src/Settings/baseTrack.h **** 		return data_->label_;
 177:Src/Settings/baseTrack.h **** 	};
 178:Src/Settings/baseTrack.h **** 
 179:Src/Settings/baseTrack.h **** 	void set_label(const char* new_label) {
 180:Src/Settings/baseTrack.h **** 		StringUtils::copy(data_->label_, const_cast<char*>(new_label), max_label_length());
 181:Src/Settings/baseTrack.h **** 	}
 182:Src/Settings/baseTrack.h **** 
 183:Src/Settings/baseTrack.h **** 	// grouped steps
 184:Src/Settings/baseTrack.h **** 	uint16_t *grouped_steps() {
 185:Src/Settings/baseTrack.h **** 		return &data_->grouped_steps_;
 186:Src/Settings/baseTrack.h **** 	}
 187:Src/Settings/baseTrack.h **** 
 188:Src/Settings/baseTrack.h **** 	bool step_is_grouped(int step_index) {
 189:Src/Settings/baseTrack.h **** 		return *grouped_steps() & (1 << step_index);
 190:Src/Settings/baseTrack.h **** 	}
 191:Src/Settings/baseTrack.h **** 
 192:Src/Settings/baseTrack.h **** 	void toggle_grouped_step(int step_index) {
 193:Src/Settings/baseTrack.h **** 		uint16_t flags = *grouped_steps();
 194:Src/Settings/baseTrack.h **** 		*grouped_steps() = flags ^ (1 << step_index);
 195:Src/Settings/baseTrack.h **** 	}
 196:Src/Settings/baseTrack.h **** 
 197:Src/Settings/baseTrack.h **** 	/***************
 198:Src/Settings/baseTrack.h **** 	*	Methods
 199:Src/Settings/baseTrack.h **** 	***************/
 200:Src/Settings/baseTrack.h **** 
 201:Src/Settings/baseTrack.h **** 	void clear() {
 202:Src/Settings/baseTrack.h **** 		set_label("");
 1228              		.loc 8 202 12 is_stmt 0 view .LVU348
 1229 0216 54F85A3C 		ldr	r3, [r4, #-90]
 1230              	.LBB1231:
 1231              	.LBB1232:
 1232              	.LBB1233:
 1233              		.loc 6 20 9 view .LVU349
 1234 021a 9F74     		strb	r7, [r3, #18]
 1235              	.LBE1233:
 1236              	.LBE1232:
 1237              	.LBE1231:
 203:Src/Settings/baseTrack.h **** 		set_port(0);
 1238              		.loc 8 203 11 view .LVU350
 1239 021c 54F85A1C 		ldr	r1, [r4, #-90]
 1240              	.LBB1236:
 1241              	.LBB1237:
  89:Src/Settings/baseTrack.h **** 	}
 1242              		.loc 8 89 16 view .LVU351
 1243 0220 4F70     		strb	r7, [r1, #1]
 1244              	.LBE1237:
 1245              	.LBE1236:
ARM GAS  /var/folders/84/_x1cyy_j36g486tldtwl37280000gn/T//ccQg3xDo.s 			page 47


 204:Src/Settings/baseTrack.h **** 		set_channel(0);
 1246              		.loc 8 204 14 view .LVU352
 1247 0222 54F85A6C 		ldr	r6, [r4, #-90]
 1248              	.LBB1239:
 1249              	.LBB1240:
 102:Src/Settings/baseTrack.h **** 	}
 1250              		.loc 8 102 19 view .LVU353
 1251 0226 B770     		strb	r7, [r6, #2]
 1252              	.LBE1240:
 1253              	.LBE1239:
 205:Src/Settings/baseTrack.h **** 		set_delay(0);
 1254              		.loc 8 205 12 view .LVU354
 1255 0228 54F85A0C 		ldr	r0, [r4, #-90]
 1256              	.LBB1242:
 1257              	.LBB1243:
 141:Src/Settings/baseTrack.h **** 	}
 1258              		.loc 8 141 17 view .LVU355
 1259 022c 4771     		strb	r7, [r0, #5]
 1260              	.LBE1243:
 1261              	.LBE1242:
 206:Src/Settings/baseTrack.h **** 		set_swing(8);
 1262              		.loc 8 206 12 view .LVU356
 1263 022e 54F85A2C 		ldr	r2, [r4, #-90]
 1264              	.LBB1245:
 1265              	.LBB1246:
 154:Src/Settings/baseTrack.h **** 	}
 1266              		.loc 8 154 17 view .LVU357
 1267 0232 0823     		movs	r3, #8
 1268 0234 9371     		strb	r3, [r2, #6]
 1269              	.LBE1246:
 1270              	.LBE1245:
 207:Src/Settings/baseTrack.h **** 		set_humanise(0);
 1271              		.loc 8 207 15 view .LVU358
 1272 0236 54F85A1C 		ldr	r1, [r4, #-90]
 1273              	.LBB1248:
 1274              	.LBB1249:
 167:Src/Settings/baseTrack.h **** 	}
 1275              		.loc 8 167 20 view .LVU359
 1276 023a CF71     		strb	r7, [r1, #7]
 1277              	.LBE1249:
 1278              	.LBE1248:
 208:Src/Settings/baseTrack.h **** 		*grouped_steps() = 0xFFFF;
 1279              		.loc 8 208 17 view .LVU360
 1280 023c 54F85A2C 		ldr	r2, [r4, #-90]
 1281              	.LBB1251:
 1282              	.LBB1252:
 115:Src/Settings/baseTrack.h **** 	}
 1283              		.loc 8 115 22 view .LVU361
 1284 0240 D770     		strb	r7, [r2, #3]
 1285              	.LBE1252:
 1286              	.LBE1251:
 209:Src/Settings/baseTrack.h **** 		set_clock_mode(PositionEngine::FORWARD);
 210:Src/Settings/baseTrack.h **** 		set_clock_speed(ClockEngine::WHOLE_16TH);
 1287              		.loc 8 210 18 view .LVU362
 1288 0242 54F85A3C 		ldr	r3, [r4, #-90]
 208:Src/Settings/baseTrack.h **** 		set_clock_mode(PositionEngine::FORWARD);
 1289              		.loc 8 208 20 view .LVU363
ARM GAS  /var/folders/84/_x1cyy_j36g486tldtwl37280000gn/T//ccQg3xDo.s 			page 48


 1290 0246 4FF6FF7A 		movw	r10, #65535
 1291              	.LBB1254:
 1292              	.LBB1255:
 128:Src/Settings/baseTrack.h **** 	}
 1293              		.loc 8 128 23 view .LVU364
 1294 024a 0D26     		movs	r6, #13
 1295 024c A4F15E00 		sub	r0, r4, #94
 1296              	.LVL39:
 128:Src/Settings/baseTrack.h **** 	}
 1297              		.loc 8 128 23 view .LVU365
 1298              	.LBE1255:
 1299              	.LBE1254:
 1300              	.LBE1230:
 1301              	.LBE1229:
 1302              	.LBI1228:
  74:Src/Settings/noteTrack.h **** 	}
  75:Src/Settings/noteTrack.h **** 
  76:Src/Settings/noteTrack.h **** 	void clear() {
 1303              		.loc 9 76 7 is_stmt 1 view .LVU366
 1304              	.LBE1228:
 1305              	.LBE1980:
 1306              	.LBE2047:
 1307              	.LBE2111:
 1308              	.LBE2279:
 1309              	.LBE2349:
  77:Src/Settings/noteTrack.h **** 		BaseTrack::clear();
 1310              		.loc 9 77 3 view .LVU367
 1311              	.LBB2350:
 1312              	.LBB2280:
 1313              	.LBB2112:
 1314              	.LBB2048:
 1315              	.LBB1981:
 1316              	.LBB1924:
 1317              	.LBB1278:
 1318              	.LBI1229:
 201:Src/Settings/baseTrack.h **** 		set_label("");
 1319              		.loc 8 201 7 view .LVU368
 1320              	.LBB1268:
 202:Src/Settings/baseTrack.h **** 		set_port(0);
 1321              		.loc 8 202 3 view .LVU369
 1322              	.LBB1258:
 1323              	.LBI1231:
 179:Src/Settings/baseTrack.h **** 		StringUtils::copy(data_->label_, const_cast<char*>(new_label), max_label_length());
 1324              		.loc 8 179 7 view .LVU370
 179:Src/Settings/baseTrack.h **** 		StringUtils::copy(data_->label_, const_cast<char*>(new_label), max_label_length());
 1325              		.loc 8 179 7 is_stmt 0 view .LVU371
 1326              	.LBE1258:
 1327              	.LBE1268:
 1328              	.LBE1278:
 1329              	.LBE1924:
 1330              	.LBE1981:
 1331              	.LBE2048:
 1332              	.LBE2112:
 1333              	.LBE2280:
 1334              	.LBE2350:
 180:Src/Settings/baseTrack.h **** 	}
 1335              		.loc 8 180 3 is_stmt 1 view .LVU372
ARM GAS  /var/folders/84/_x1cyy_j36g486tldtwl37280000gn/T//ccQg3xDo.s 			page 49


 1336              	.LBB2351:
 1337              	.LBB2281:
 1338              	.LBB2113:
 1339              	.LBB2049:
 1340              	.LBB1982:
 1341              	.LBB1925:
 1342              	.LBB1279:
 1343              	.LBB1269:
 1344              	.LBB1259:
 1345              	.LBB1235:
 1346              	.LBI1232:
  16:/Users/joostbooy/Desktop/Code/stm32/lib/utils/stringUtils.h **** 		while (--max_length > 0 && *src != '\0') {
 1347              		.loc 6 16 14 view .LVU373
 1348              	.LBB1234:
  17:/Users/joostbooy/Desktop/Code/stm32/lib/utils/stringUtils.h **** 			*dest++ = *src++;
 1349              		.loc 6 17 3 view .LVU374
  17:/Users/joostbooy/Desktop/Code/stm32/lib/utils/stringUtils.h **** 			*dest++ = *src++;
 1350              		.loc 6 17 27 view .LVU375
 1351              		.loc 6 20 3 view .LVU376
 1352              		.loc 6 20 3 is_stmt 0 view .LVU377
 1353              	.LBE1234:
 1354              	.LBE1235:
 1355              	.LBE1259:
 203:Src/Settings/baseTrack.h **** 		set_channel(0);
 1356              		.loc 8 203 3 is_stmt 1 view .LVU378
 1357              	.LBB1260:
 1358              	.LBI1236:
  88:Src/Settings/baseTrack.h **** 		data_->port_ = stmlib::clip(0, MidiPort::NUM_PORTS - 1, port);
 1359              		.loc 8 88 7 view .LVU379
 1360              	.LBB1238:
  89:Src/Settings/baseTrack.h **** 	}
 1361              		.loc 8 89 3 view .LVU380
  89:Src/Settings/baseTrack.h **** 	}
 1362              		.loc 8 89 3 is_stmt 0 view .LVU381
 1363              	.LBE1238:
 1364              	.LBE1260:
 1365              	.LBE1269:
 1366              	.LBE1279:
 1367              	.LBE1925:
 1368              	.LBE1982:
 1369              	.LBE2049:
 1370              	.LBE2113:
 1371              	.LBE2281:
 1372              	.LBE2351:
 1373              		.loc 3 31 3 is_stmt 1 view .LVU382
 1374              	.LBB2352:
 1375              	.LBB2282:
 1376              	.LBB2114:
 1377              	.LBB2050:
 1378              	.LBB1983:
 1379              	.LBB1926:
 1380              	.LBB1280:
 1381              	.LBB1270:
 204:Src/Settings/baseTrack.h **** 		set_delay(0);
 1382              		.loc 8 204 3 view .LVU383
 1383              	.LBB1261:
 1384              	.LBI1239:
ARM GAS  /var/folders/84/_x1cyy_j36g486tldtwl37280000gn/T//ccQg3xDo.s 			page 50


 101:Src/Settings/baseTrack.h **** 		data_->channel_ = stmlib::clip(0, 15, channel);
 1385              		.loc 8 101 7 view .LVU384
 1386              	.LBB1241:
 102:Src/Settings/baseTrack.h **** 	}
 1387              		.loc 8 102 3 view .LVU385
 102:Src/Settings/baseTrack.h **** 	}
 1388              		.loc 8 102 3 is_stmt 0 view .LVU386
 1389              	.LBE1241:
 1390              	.LBE1261:
 1391              	.LBE1270:
 1392              	.LBE1280:
 1393              	.LBE1926:
 1394              	.LBE1983:
 1395              	.LBE2050:
 1396              	.LBE2114:
 1397              	.LBE2282:
 1398              	.LBE2352:
 1399              		.loc 3 31 3 is_stmt 1 view .LVU387
 1400              	.LBB2353:
 1401              	.LBB2283:
 1402              	.LBB2115:
 1403              	.LBB2051:
 1404              	.LBB1984:
 1405              	.LBB1927:
 1406              	.LBB1281:
 1407              	.LBB1271:
 205:Src/Settings/baseTrack.h **** 		set_swing(8);
 1408              		.loc 8 205 3 view .LVU388
 1409              	.LBB1262:
 1410              	.LBI1242:
 140:Src/Settings/baseTrack.h **** 		data_->delay_ = stmlib::clip(0, 3, delay);
 1411              		.loc 8 140 7 view .LVU389
 1412              	.LBB1244:
 141:Src/Settings/baseTrack.h **** 	}
 1413              		.loc 8 141 3 view .LVU390
 141:Src/Settings/baseTrack.h **** 	}
 1414              		.loc 8 141 3 is_stmt 0 view .LVU391
 1415              	.LBE1244:
 1416              	.LBE1262:
 1417              	.LBE1271:
 1418              	.LBE1281:
 1419              	.LBE1927:
 1420              	.LBE1984:
 1421              	.LBE2051:
 1422              	.LBE2115:
 1423              	.LBE2283:
 1424              	.LBE2353:
 1425              		.loc 3 31 3 is_stmt 1 view .LVU392
 1426              	.LBB2354:
 1427              	.LBB2284:
 1428              	.LBB2116:
 1429              	.LBB2052:
 1430              	.LBB1985:
 1431              	.LBB1928:
 1432              	.LBB1282:
 1433              	.LBB1272:
 206:Src/Settings/baseTrack.h **** 		set_humanise(0);
ARM GAS  /var/folders/84/_x1cyy_j36g486tldtwl37280000gn/T//ccQg3xDo.s 			page 51


 1434              		.loc 8 206 3 view .LVU393
 1435              	.LBB1263:
 1436              	.LBI1245:
 153:Src/Settings/baseTrack.h **** 		data_->swing_ = stmlib::clip(1, 15, value);
 1437              		.loc 8 153 7 view .LVU394
 1438              	.LBB1247:
 154:Src/Settings/baseTrack.h **** 	}
 1439              		.loc 8 154 3 view .LVU395
 154:Src/Settings/baseTrack.h **** 	}
 1440              		.loc 8 154 3 is_stmt 0 view .LVU396
 1441              	.LBE1247:
 1442              	.LBE1263:
 1443              	.LBE1272:
 1444              	.LBE1282:
 1445              	.LBE1928:
 1446              	.LBE1985:
 1447              	.LBE2052:
 1448              	.LBE2116:
 1449              	.LBE2284:
 1450              	.LBE2354:
 1451              		.loc 3 31 3 is_stmt 1 view .LVU397
 1452              	.LBB2355:
 1453              	.LBB2285:
 1454              	.LBB2117:
 1455              	.LBB2053:
 1456              	.LBB1986:
 1457              	.LBB1929:
 1458              	.LBB1283:
 1459              	.LBB1273:
 207:Src/Settings/baseTrack.h **** 		*grouped_steps() = 0xFFFF;
 1460              		.loc 8 207 3 view .LVU398
 1461              	.LBB1264:
 1462              	.LBI1248:
 166:Src/Settings/baseTrack.h **** 		data_->humanise_ = stmlib::clip(0, 7, value);
 1463              		.loc 8 166 7 view .LVU399
 1464              	.LBB1250:
 167:Src/Settings/baseTrack.h **** 	}
 1465              		.loc 8 167 3 view .LVU400
 167:Src/Settings/baseTrack.h **** 	}
 1466              		.loc 8 167 3 is_stmt 0 view .LVU401
 1467              	.LBE1250:
 1468              	.LBE1264:
 1469              	.LBE1273:
 1470              	.LBE1283:
 1471              	.LBE1929:
 1472              	.LBE1986:
 1473              	.LBE2053:
 1474              	.LBE2117:
 1475              	.LBE2285:
 1476              	.LBE2355:
 1477              		.loc 3 31 3 is_stmt 1 view .LVU402
 1478              	.LBB2356:
 1479              	.LBB2286:
 1480              	.LBB2118:
 1481              	.LBB2054:
 1482              	.LBB1987:
 1483              	.LBB1930:
ARM GAS  /var/folders/84/_x1cyy_j36g486tldtwl37280000gn/T//ccQg3xDo.s 			page 52


 1484              	.LBB1284:
 1485              	.LBB1274:
 208:Src/Settings/baseTrack.h **** 		set_clock_mode(PositionEngine::FORWARD);
 1486              		.loc 8 208 3 view .LVU403
 208:Src/Settings/baseTrack.h **** 		set_clock_mode(PositionEngine::FORWARD);
 1487              		.loc 8 208 3 is_stmt 0 view .LVU404
 1488              	.LBE1274:
 1489              	.LBE1284:
 1490              	.LBE1930:
 1491              	.LBE1987:
 1492              	.LBE2054:
 1493              	.LBE2118:
 1494              	.LBE2286:
 1495              	.LBE2356:
 185:Src/Settings/baseTrack.h **** 	}
 1496              		.loc 8 185 3 is_stmt 1 view .LVU405
 1497              	.LBB2357:
 1498              	.LBB2287:
 1499              	.LBB2119:
 1500              	.LBB2055:
 1501              	.LBB1988:
 1502              	.LBB1931:
 1503              	.LBB1285:
 1504              	.LBB1275:
 208:Src/Settings/baseTrack.h **** 		set_clock_mode(PositionEngine::FORWARD);
 1505              		.loc 8 208 20 is_stmt 0 view .LVU406
 1506 0250 A2F810A0 		strh	r10, [r2, #16]	@ movhi
 209:Src/Settings/baseTrack.h **** 		set_clock_speed(ClockEngine::WHOLE_16TH);
 1507              		.loc 8 209 3 is_stmt 1 view .LVU407
 1508              	.LVL40:
 1509              	.LBB1265:
 1510              	.LBI1251:
 114:Src/Settings/baseTrack.h **** 		data_->clock_mode_ = stmlib::clip(0, PositionEngine::NUM_MODES - 1, clock_mode);
 1511              		.loc 8 114 7 view .LVU408
 1512              	.LBB1253:
 115:Src/Settings/baseTrack.h **** 	}
 1513              		.loc 8 115 3 view .LVU409
 115:Src/Settings/baseTrack.h **** 	}
 1514              		.loc 8 115 3 is_stmt 0 view .LVU410
 1515              	.LBE1253:
 1516              	.LBE1265:
 1517              	.LBE1275:
 1518              	.LBE1285:
 1519              	.LBE1931:
 1520              	.LBE1988:
 1521              	.LBE2055:
 1522              	.LBE2119:
 1523              	.LBE2287:
 1524              	.LBE2357:
 1525              		.loc 3 31 3 is_stmt 1 view .LVU411
 1526              	.LBB2358:
 1527              	.LBB2288:
 1528              	.LBB2120:
 1529              	.LBB2056:
 1530              	.LBB1989:
 1531              	.LBB1932:
 1532              	.LBB1286:
ARM GAS  /var/folders/84/_x1cyy_j36g486tldtwl37280000gn/T//ccQg3xDo.s 			page 53


 1533              	.LBB1276:
 1534              		.loc 8 210 3 view .LVU412
 1535              	.LBB1266:
 1536              	.LBI1254:
 127:Src/Settings/baseTrack.h **** 		data_->clock_speed_ = stmlib::clip(0, ClockEngine::NUM_SIGNATURES - 1, clock_speed);
 1537              		.loc 8 127 7 view .LVU413
 1538              	.LBB1256:
 128:Src/Settings/baseTrack.h **** 	}
 1539              		.loc 8 128 3 view .LVU414
 128:Src/Settings/baseTrack.h **** 	}
 1540              		.loc 8 128 3 is_stmt 0 view .LVU415
 1541              	.LBE1256:
 1542              	.LBE1266:
 1543              	.LBE1276:
 1544              	.LBE1286:
 1545              	.LBE1932:
 1546              	.LBE1989:
 1547              	.LBE2056:
 1548              	.LBE2120:
 1549              	.LBE2288:
 1550              	.LBE2358:
 1551              		.loc 3 31 3 is_stmt 1 view .LVU416
 1552              	.LBB2359:
 1553              	.LBB2289:
 1554              	.LBB2121:
 1555              	.LBB2057:
 1556              	.LBB1990:
 1557              	.LBB1933:
 1558              	.LBB1287:
 1559              	.LBB1277:
 1560              	.LBB1267:
 1561              	.LBB1257:
 128:Src/Settings/baseTrack.h **** 	}
 1562              		.loc 8 128 23 is_stmt 0 view .LVU417
 1563 0254 1E71     		strb	r6, [r3, #4]
 1564              	.LVL41:
 128:Src/Settings/baseTrack.h **** 	}
 1565              		.loc 8 128 23 view .LVU418
 1566              	.LBE1257:
 1567              	.LBE1267:
 211:Src/Settings/baseTrack.h **** 		clear_pattern_list();
 1568              		.loc 8 211 3 is_stmt 1 view .LVU419
 1569              		.loc 8 211 21 is_stmt 0 view .LVU420
 1570 0256 0190     		str	r0, [sp, #4]
 1571 0258 FFF7FEFF 		bl	_ZN9BaseTrack18clear_pattern_listEv
 1572              	.LVL42:
 1573              		.loc 8 211 21 view .LVU421
 1574              	.LBE1277:
 1575              	.LBE1287:
 1576              	.LBE1933:
 1577              	.LBE1990:
 1578              	.LBE2057:
 1579              	.LBE2121:
 1580              	.LBE2289:
 1581              	.LBE2359:
  78:Src/Settings/noteTrack.h **** 		NoteTrack::add_pattern();
 1582              		.loc 9 78 3 is_stmt 1 view .LVU422
ARM GAS  /var/folders/84/_x1cyy_j36g486tldtwl37280000gn/T//ccQg3xDo.s 			page 54


 1583              	.LBB2360:
 1584              	.LBB2290:
 1585              	.LBB2122:
 1586              	.LBB2058:
 1587              	.LBB1991:
 1588              	.LBB1934:
 1589              	.LBB1288:
 1590              	.LBI1288:
  79:Src/Settings/noteTrack.h **** 		for (int i = 0; i < NUM_TRACK_ITEMS; ++i) {
  80:Src/Settings/noteTrack.h **** 			Item item = Item(i);
  81:Src/Settings/noteTrack.h **** 			write(item, track_item_[item].init_value());
  82:Src/Settings/noteTrack.h **** 		}
  83:Src/Settings/noteTrack.h **** 	}
  84:Src/Settings/noteTrack.h **** 
  85:Src/Settings/noteTrack.h **** 	SerialItem &item(StepItem item) {
  86:Src/Settings/noteTrack.h **** 		return step_item_[item];
  87:Src/Settings/noteTrack.h **** 	}
  88:Src/Settings/noteTrack.h **** 
  89:Src/Settings/noteTrack.h **** 	SerialItem &item(Item item) {
  90:Src/Settings/noteTrack.h **** 		return track_item_[item];
  91:Src/Settings/noteTrack.h **** 	}
  92:Src/Settings/noteTrack.h **** 
  93:Src/Settings/noteTrack.h **** 	// edit
  94:Src/Settings/noteTrack.h **** 	void edit(Item item, int enc_state, bool shifted) {
  95:Src/Settings/noteTrack.h **** 		int value = read(item);
  96:Src/Settings/noteTrack.h **** 		int inc_ = track_item_[item].inc(enc_state, shifted);
  97:Src/Settings/noteTrack.h **** 		write(item, value + inc_);
  98:Src/Settings/noteTrack.h **** 	}
  99:Src/Settings/noteTrack.h **** 
 100:Src/Settings/noteTrack.h **** 	void edit_random_min(int pattern, StepItem item, int enc_state, bool shifted) {
 101:Src/Settings/noteTrack.h **** 		int value = read_random_min(pattern, item);
 102:Src/Settings/noteTrack.h **** 		int inc_ = step_item_[item].inc(enc_state, shifted);
 103:Src/Settings/noteTrack.h **** 		write_random_min(pattern, item, value + inc_);
 104:Src/Settings/noteTrack.h **** 	}
 105:Src/Settings/noteTrack.h **** 
 106:Src/Settings/noteTrack.h **** 	void edit_random_max(int pattern, StepItem item, int enc_state, bool shifted) {
 107:Src/Settings/noteTrack.h **** 		int value = read_random_max(pattern, item);
 108:Src/Settings/noteTrack.h **** 		int inc_ = step_item_[item].inc(enc_state, shifted);
 109:Src/Settings/noteTrack.h **** 		write_random_max(pattern, item, value + inc_);
 110:Src/Settings/noteTrack.h **** 	}
 111:Src/Settings/noteTrack.h **** 
 112:Src/Settings/noteTrack.h **** 	void edit_step(int pattern, int step, StepItem item, int enc_state, bool shifted) {
 113:Src/Settings/noteTrack.h **** 		int value = read_step(pattern, step, item);
 114:Src/Settings/noteTrack.h **** 		int inc_ = step_item_[item].inc(enc_state, shifted);
 115:Src/Settings/noteTrack.h **** 		write_step(pattern, step, item, value + inc_);
 116:Src/Settings/noteTrack.h **** 	}
 117:Src/Settings/noteTrack.h **** 
 118:Src/Settings/noteTrack.h **** 	// reading
 119:Src/Settings/noteTrack.h **** 	int read(Item item) {
 120:Src/Settings/noteTrack.h **** 		return track_item_[item].read(BaseTrack::settings());
 121:Src/Settings/noteTrack.h **** 	}
 122:Src/Settings/noteTrack.h **** 
 123:Src/Settings/noteTrack.h **** 	int read_step(int pattern_index, int step_index, StepItem item) {
 124:Src/Settings/noteTrack.h **** 		return step_item_[item].read(BaseTrack::pattern.step(pattern_index, step_index));
 125:Src/Settings/noteTrack.h **** 	}
 126:Src/Settings/noteTrack.h **** 
 127:Src/Settings/noteTrack.h **** 	int read_random_min(int pattern_index, StepItem item) {
ARM GAS  /var/folders/84/_x1cyy_j36g486tldtwl37280000gn/T//ccQg3xDo.s 			page 55


 128:Src/Settings/noteTrack.h **** 		return step_item_[item].read(BaseTrack::pattern.random_min(pattern_index));
 129:Src/Settings/noteTrack.h **** 	}
 130:Src/Settings/noteTrack.h **** 
 131:Src/Settings/noteTrack.h **** 	int read_random_max(int pattern_index, StepItem item) {
 132:Src/Settings/noteTrack.h **** 		return step_item_[item].read(BaseTrack::pattern.random_max(pattern_index));
 133:Src/Settings/noteTrack.h **** 	}
 134:Src/Settings/noteTrack.h **** 
 135:Src/Settings/noteTrack.h **** 
 136:Src/Settings/noteTrack.h **** 	// writing
 137:Src/Settings/noteTrack.h **** 	void write(Item item, int value) {
 138:Src/Settings/noteTrack.h **** 		track_item_[item].write(BaseTrack::settings(), value);
 139:Src/Settings/noteTrack.h **** 	}
 140:Src/Settings/noteTrack.h **** 
 141:Src/Settings/noteTrack.h **** 	void write_random_min(int pattern_index, StepItem item, int value) {
 142:Src/Settings/noteTrack.h **** 		step_item_[item].write(BaseTrack::pattern.random_min(pattern_index), value);
 143:Src/Settings/noteTrack.h **** 	}
 144:Src/Settings/noteTrack.h **** 
 145:Src/Settings/noteTrack.h **** 	void write_random_max(int pattern_index, StepItem item, int value) {
 146:Src/Settings/noteTrack.h **** 		step_item_[item].write(BaseTrack::pattern.random_max(pattern_index), value);
 147:Src/Settings/noteTrack.h **** 	}
 148:Src/Settings/noteTrack.h **** 
 149:Src/Settings/noteTrack.h **** 	void write_step(int pattern_index, int step_index, StepItem item, int value) {
 150:Src/Settings/noteTrack.h **** 		step_item_[item].write(BaseTrack::pattern.step(pattern_index, step_index), value);
 151:Src/Settings/noteTrack.h **** 	}
 152:Src/Settings/noteTrack.h **** 
 153:Src/Settings/noteTrack.h **** 
 154:Src/Settings/noteTrack.h **** 	// patterns
 155:Src/Settings/noteTrack.h **** 	bool add_pattern() {
 1591              		.loc 9 155 7 view .LVU423
 1592              	.LBB1289:
 156:Src/Settings/noteTrack.h **** 		int pattern_index = BaseTrack::add_pattern();
 1593              		.loc 9 156 3 view .LVU424
 1594              	.LBB1290:
 1595              	.LBI1290:
 212:Src/Settings/baseTrack.h **** 	}
 213:Src/Settings/baseTrack.h **** 
 214:Src/Settings/baseTrack.h **** 	// patterns
 215:Src/Settings/baseTrack.h **** 	inline uint8_t available_patterns() {
 216:Src/Settings/baseTrack.h **** 		return pattern_pool->size_;
 217:Src/Settings/baseTrack.h **** 	}
 218:Src/Settings/baseTrack.h **** 
 219:Src/Settings/baseTrack.h **** 	inline uint8_t num_patterns() {
 220:Src/Settings/baseTrack.h **** 		return pattern_list->size_;
 221:Src/Settings/baseTrack.h **** 	}
 222:Src/Settings/baseTrack.h **** 
 223:Src/Settings/baseTrack.h **** 	int add_pattern() {
 1596              		.loc 8 223 6 view .LVU425
 1597              	.LBB1291:
 224:Src/Settings/baseTrack.h **** 		if (available_patterns() > 0) {
 1598              		.loc 8 224 3 view .LVU426
 1599              	.LBB1292:
 1600              	.LBI1292:
 215:Src/Settings/baseTrack.h **** 		return pattern_pool->size_;
 1601              		.loc 8 215 17 view .LVU427
 1602              	.LBB1293:
 216:Src/Settings/baseTrack.h **** 	}
 1603              		.loc 8 216 3 view .LVU428
ARM GAS  /var/folders/84/_x1cyy_j36g486tldtwl37280000gn/T//ccQg3xDo.s 			page 56


 216:Src/Settings/baseTrack.h **** 	}
 1604              		.loc 8 216 24 is_stmt 0 view .LVU429
 1605 025c 54F8520C 		ldr	r0, [r4, #-82]
 1606              	.LBE1293:
 1607              	.LBE1292:
 1608              		.loc 8 224 3 view .LVU430
 1609 0260 009A     		ldr	r2, [sp]
 1610 0262 90F8FF10 		ldrb	r1, [r0, #255]	@ zero_extendqisi2
 1611 0266 31B1     		cbz	r1, .L13
 225:Src/Settings/baseTrack.h **** 			return append_pattern_list();
 1612              		.loc 8 225 4 is_stmt 1 view .LVU431
 1613              		.loc 8 225 30 is_stmt 0 view .LVU432
 1614 0268 0198     		ldr	r0, [sp, #4]
 1615 026a FFF7FEFF 		bl	_ZN9BaseTrack19append_pattern_listEv
 1616              	.LVL43:
 1617              		.loc 8 225 30 view .LVU433
 1618              	.LBE1291:
 1619              	.LBE1290:
 157:Src/Settings/noteTrack.h **** 		if (pattern_index >= 0) {
 1620              		.loc 9 157 3 is_stmt 1 view .LVU434
 1621 026e 021E     		subs	r2, r0, #0
 1622 0270 1892     		str	r2, [sp, #96]
 1623 0272 009A     		ldr	r2, [sp]
 1624 0274 32DA     		bge	.L92
 1625              	.LVL44:
 1626              	.L13:
 1627              		.loc 9 157 3 is_stmt 0 view .LVU435
 1628              	.LBE1289:
 1629              	.LBE1288:
 1630              	.LBB1859:
  79:Src/Settings/noteTrack.h **** 			Item item = Item(i);
 1631              		.loc 9 79 21 is_stmt 1 view .LVU436
 1632              	.LBB1860:
  80:Src/Settings/noteTrack.h **** 			write(item, track_item_[item].init_value());
 1633              		.loc 9 80 4 view .LVU437
  81:Src/Settings/noteTrack.h **** 		}
 1634              		.loc 9 81 4 view .LVU438
  81:Src/Settings/noteTrack.h **** 		}
 1635              		.loc 9 81 9 is_stmt 0 view .LVU439
 1636 0276 1848     		ldr	r0, .L93+24
 1637              	.LBB1861:
 1638              	.LBB1862:
 1639              	.LBB1863:
 1640              	.LBB1864:
  67:Src/Settings/baseTrack.h **** 	}
 1641              		.loc 8 67 27 view .LVU440
 1642 0278 54F85A7C 		ldr	r7, [r4, #-90]
 1643              	.LBE1864:
 1644              	.LBE1863:
 1645              	.LBE1862:
 1646              	.LBE1861:
  81:Src/Settings/noteTrack.h **** 		}
 1647              		.loc 9 81 9 view .LVU441
 1648 027c C168     		ldr	r1, [r0, #12]
 1649              	.LVL45:
  81:Src/Settings/noteTrack.h **** 		}
 1650              		.loc 9 81 9 view .LVU442
ARM GAS  /var/folders/84/_x1cyy_j36g486tldtwl37280000gn/T//ccQg3xDo.s 			page 57


 1651              	.LBE1860:
 1652              	.LBE1859:
 1653              	.LBE1934:
 1654              	.LBE1991:
 1655              	.LBE2058:
 1656              	.LBE2122:
 1657              	.LBE2290:
 1658              	.LBE2360:
 1659              		.file 14 "Src/Settings/serialItem.h"
   1:Src/Settings/serialItem.h **** #ifndef SerialItem_h
   2:Src/Settings/serialItem.h **** #define SerialItem_h
   3:Src/Settings/serialItem.h **** 
   4:Src/Settings/serialItem.h **** #include "serial.h"
   5:Src/Settings/serialItem.h **** 
   6:Src/Settings/serialItem.h **** class SerialItem {
   7:Src/Settings/serialItem.h **** 
   8:Src/Settings/serialItem.h **** public:
   9:Src/Settings/serialItem.h **** 	const int min_;
  10:Src/Settings/serialItem.h **** 	const int max_;
  11:Src/Settings/serialItem.h **** 	const int inc_shifted_;
  12:Src/Settings/serialItem.h **** 	const int init_value_;
  13:Src/Settings/serialItem.h **** 	SerialMask &mask_;
  14:Src/Settings/serialItem.h **** 	Serial serial;
  15:Src/Settings/serialItem.h **** 
  16:Src/Settings/serialItem.h **** 	constexpr int min() const { return min_; }
  17:Src/Settings/serialItem.h **** 	constexpr int max() const { return max_; }
  18:Src/Settings/serialItem.h **** 	constexpr int init_value() const { return init_value_; }
 1660              		.loc 14 18 37 is_stmt 1 view .LVU443
 1661              	.LBB2361:
 1662              	.LBB2291:
 1663              	.LBB2123:
 1664              	.LBB2059:
 1665              	.LBB1992:
 1666              	.LBB1935:
 1667              	.LBB1880:
 1668              	.LBB1879:
 1669              	.LBB1878:
 1670              	.LBI1861:
 137:Src/Settings/noteTrack.h **** 		track_item_[item].write(BaseTrack::settings(), value);
 1671              		.loc 9 137 7 view .LVU444
 1672              	.LBB1877:
 138:Src/Settings/noteTrack.h **** 	}
 1673              		.loc 9 138 3 view .LVU445
 1674              	.LBB1867:
 1675              	.LBI1863:
  66:Src/Settings/baseTrack.h **** 		return &data_->serial_[0];
 1676              		.loc 8 66 22 view .LVU446
 1677              	.LBB1865:
  67:Src/Settings/baseTrack.h **** 	}
 1678              		.loc 8 67 3 view .LVU447
 1679              	.LBE1865:
 1680              	.LBE1867:
 1681              	.LBB1868:
 1682              	.LBB1869:
  19:Src/Settings/serialItem.h **** 
  20:Src/Settings/serialItem.h **** 	inline int inc(int inc_, bool shifted) {
  21:Src/Settings/serialItem.h **** 		return shifted ? inc_ * inc_shifted_ : inc_;
ARM GAS  /var/folders/84/_x1cyy_j36g486tldtwl37280000gn/T//ccQg3xDo.s 			page 58


  22:Src/Settings/serialItem.h **** 	}
  23:Src/Settings/serialItem.h **** 
  24:Src/Settings/serialItem.h **** 	inline int read(uint32_t *ptr) {
  25:Src/Settings/serialItem.h **** 		return serial.read(mask_, ptr);
  26:Src/Settings/serialItem.h **** 	}
  27:Src/Settings/serialItem.h **** 
  28:Src/Settings/serialItem.h **** 	inline void write(uint32_t *ptr, int value) {
  29:Src/Settings/serialItem.h **** 		if (value >= min_ && value <= max_) {
 1683              		.loc 14 29 3 is_stmt 0 view .LVU448
 1684 027e 0668     		ldr	r6, [r0]
 1685 0280 B142     		cmp	r1, r6
 1686              	.LBE1869:
 1687              	.LBE1868:
 1688              	.LBB1875:
 1689              	.LBB1866:
  67:Src/Settings/baseTrack.h **** 	}
 1690              		.loc 8 67 27 view .LVU449
 1691 0282 07F10807 		add	r7, r7, #8
 1692              	.LVL46:
  67:Src/Settings/baseTrack.h **** 	}
 1693              		.loc 8 67 27 view .LVU450
 1694              	.LBE1866:
 1695              	.LBE1875:
 1696              	.LBB1876:
 1697              	.LBI1868:
  28:Src/Settings/serialItem.h **** 		if (value >= min_ && value <= max_) {
 1698              		.loc 14 28 14 is_stmt 1 view .LVU451
 1699              	.LBB1874:
 1700              		.loc 14 29 3 view .LVU452
 1701 0286 FFF673AF 		blt	.L30
 1702              		.loc 14 29 21 is_stmt 0 view .LVU453
 1703 028a 4368     		ldr	r3, [r0, #4]
 1704 028c 9942     		cmp	r1, r3
 1705 028e 3FF76FAF 		bgt	.L30
 1706              	.LVL47:
 1707              	.LBB1870:
 1708              	.LBI1870:
  28:Src/Settings/serialItem.h **** 		if (value >= min_ && value <= max_) {
 1709              		.loc 14 28 14 is_stmt 1 view .LVU454
 1710              	.LBB1871:
  30:Src/Settings/serialItem.h **** 			serial.write(mask_, ptr, value);
 1711              		.loc 14 30 4 view .LVU455
 1712              		.loc 14 30 16 is_stmt 0 view .LVU456
 1713 0292 0069     		ldr	r0, [r0, #16]
 1714              	.LVL48:
 1715              	.LBB1872:
 1716              	.LBI1872:
 1717              		.file 15 "Src/Settings/serial.h"
   1:Src/Settings/serial.h **** #ifndef Serial_h
   2:Src/Settings/serial.h **** #define Serial_h
   3:Src/Settings/serial.h **** 
   4:Src/Settings/serial.h **** #include "stmf4lib.h"
   5:Src/Settings/serial.h **** 
   6:Src/Settings/serial.h **** struct SerialMask {
   7:Src/Settings/serial.h **** 	const uint8_t reg;		// 32 bits per register
   8:Src/Settings/serial.h **** 	const uint8_t bits;		// max 32
   9:Src/Settings/serial.h **** 	const uint8_t shifts;	// prev bits + prev shifts
ARM GAS  /var/folders/84/_x1cyy_j36g486tldtwl37280000gn/T//ccQg3xDo.s 			page 59


  10:Src/Settings/serial.h **** 	const uint32_t value = ((1 << bits) - 1) << shifts;
  11:Src/Settings/serial.h **** };
  12:Src/Settings/serial.h **** 
  13:Src/Settings/serial.h **** class Serial {
  14:Src/Settings/serial.h **** 
  15:Src/Settings/serial.h **** public:
  16:Src/Settings/serial.h **** 
  17:Src/Settings/serial.h **** 	inline uint32_t read(SerialMask &mask, uint32_t *ptr) {
  18:Src/Settings/serial.h **** 		uint32_t data = ptr[mask.reg];
  19:Src/Settings/serial.h **** 		return (data & mask.value) >> mask.shifts;
  20:Src/Settings/serial.h **** 	}
  21:Src/Settings/serial.h **** 
  22:Src/Settings/serial.h **** 	inline void write(SerialMask &mask, uint32_t *ptr, int value) {
 1718              		.loc 15 22 14 is_stmt 1 view .LVU457
 1719              	.LBB1873:
  23:Src/Settings/serial.h **** 		uint32_t data = ptr[mask.reg];
 1720              		.loc 15 23 3 view .LVU458
 1721              		.loc 15 23 31 is_stmt 0 view .LVU459
 1722 0294 90F80090 		ldrb	r9, [r0]	@ zero_extendqisi2
 1723              	.LVL49:
  24:Src/Settings/serial.h **** 		ptr[mask.reg] = (data & ~mask.value) | (value << mask.shifts);
 1724              		.loc 15 24 3 is_stmt 1 view .LVU460
 1725              		.loc 15 24 57 is_stmt 0 view .LVU461
 1726 0298 8678     		ldrb	r6, [r0, #2]	@ zero_extendqisi2
 1727              		.loc 15 24 27 view .LVU462
 1728 029a D0F804C0 		ldr	ip, [r0, #4]
 1729              		.loc 15 24 25 view .LVU463
 1730 029e 57F82930 		ldr	r3, [r7, r9, lsl #2]
 1731              		.loc 15 24 49 view .LVU464
 1732 02a2 B140     		lsls	r1, r1, r6
 1733              	.LVL50:
 1734              		.loc 15 24 25 view .LVU465
 1735 02a4 23EA0C00 		bic	r0, r3, ip
 1736              	.LVL51:
 1737              		.loc 15 24 40 view .LVU466
 1738 02a8 0843     		orrs	r0, r0, r1
 1739              		.loc 15 24 17 view .LVU467
 1740 02aa 47F82900 		str	r0, [r7, r9, lsl #2]
 1741              	.LVL52:
 1742              		.loc 15 24 17 view .LVU468
 1743              	.LBE1873:
 1744              	.LBE1872:
 1745              	.LBE1871:
 1746              	.LBE1870:
 1747              	.LBE1874:
 1748              	.LBE1876:
 1749              	.LBE1877:
 1750              	.LBE1878:
 1751              	.LBE1879:
  79:Src/Settings/noteTrack.h **** 			Item item = Item(i);
 1752              		.loc 9 79 21 is_stmt 1 view .LVU469
 1753 02ae 5FE7     		b	.L30
 1754              	.LVL53:
 1755              	.L4:
  79:Src/Settings/noteTrack.h **** 			Item item = Item(i);
 1756              		.loc 9 79 21 is_stmt 0 view .LVU470
 1757              	.LBE1880:
ARM GAS  /var/folders/84/_x1cyy_j36g486tldtwl37280000gn/T//ccQg3xDo.s 			page 60


 1758              	.LBE1935:
 1759              	.LBE1992:
 1760              	.LBE2059:
 1761              	.LBE2123:
 1762              	.LBE2291:
 1763              	.LBE2361:
 1764              	.LBB2362:
 1765              	.LBB1125:
 1766              	.LBB1122:
 1767              	.LBB1119:
 1768              	.LBB1117:
 1769              	.LBB1115:
 1770              	.LBB1107:
 1771              	.LBB1105:
 1772              	.LBB1103:
  99:/Users/joostbooy/Desktop/Code/stm32/lib/utils/stack.h ****             data[idx] = data[idx - 1];
 1773              		.loc 4 99 21 view .LVU471
 1774 02b0 4FF0000B 		mov	fp, #0
 1775 02b4 D4E6     		b	.L3
 1776              	.LVL54:
 1777              	.L91:
  99:/Users/joostbooy/Desktop/Code/stm32/lib/utils/stack.h ****             data[idx] = data[idx - 1];
 1778              		.loc 4 99 21 view .LVU472
 1779              	.LBE1103:
 1780              	.LBE1105:
 1781              	.LBE1107:
 1782              	.LBE1115:
 1783              	.LBE1117:
 1784              	.LBE1119:
 1785              	.LBE1122:
 1786              	.LBE1125:
 1787              	.LBE2362:
  39:Src/Settings/song.h **** 
 1788              		.loc 1 39 2 view .LVU473
 1789 02b6 25B0     		add	sp, sp, #148
 1790              		.cfi_remember_state
 1791              		.cfi_def_cfa_offset 44
 1792              		@ sp needed
 1793 02b8 BDEC028B 		vldm	sp!, {d8}
 1794              		.cfi_restore 80
 1795              		.cfi_restore 81
 1796              		.cfi_def_cfa_offset 36
 1797              	.LVL55:
  39:Src/Settings/song.h **** 
 1798              		.loc 1 39 2 view .LVU474
 1799 02bc BDE8F08F 		pop	{r4, r5, r6, r7, r8, r9, r10, fp, pc}
 1800              	.LVL56:
 1801              	.L94:
  39:Src/Settings/song.h **** 
 1802              		.loc 1 39 2 view .LVU475
 1803              		.align	2
 1804              	.L93:
 1805 02c0 00000000 		.word	lut_scale_major
 1806 02c4 00000000 		.word	lut_scale_major_map
 1807 02c8 ABAAAAAA 		.word	-1431655765
 1808 02cc 00000000 		.word	lut_bpm_fractional_inc
 1809 02d0 00000000 		.word	lut_bpm_inc
ARM GAS  /var/folders/84/_x1cyy_j36g486tldtwl37280000gn/T//ccQg3xDo.s 			page 61


 1810 02d4 00000000 		.word	_ZN9TrackData13pattern_pool_E
 1811 02d8 00000000 		.word	_ZN9NoteTrack11track_item_E
 1812              	.LVL57:
 1813              	.L92:
 1814              		.cfi_restore_state
 1815              	.LBB2363:
 1816              	.LBB2292:
 1817              	.LBB2124:
 1818              	.LBB2060:
 1819              	.LBB1993:
 1820              	.LBB1936:
 1821              	.LBB1881:
 1822              	.LBB1816:
 1823              	.LBB1294:
 1824              	.LBB1295:
 1825              	.LBB1296:
  15:Src/Settings/pattern.h **** 	}
  16:Src/Settings/pattern.h **** 
  17:Src/Settings/pattern.h **** 	constexpr TrackData::Pattern &data(uint8_t index) {
  18:Src/Settings/pattern.h **** 		return TrackData::pattern_[list_->entry_[index]];
  19:Src/Settings/pattern.h **** 	}
  20:Src/Settings/pattern.h **** 
  21:Src/Settings/pattern.h **** 	constexpr uint32_t* step(uint8_t index, uint8_t step_index) {
  22:Src/Settings/pattern.h **** 		return &data(index).step_[step_index].serial_[0];
  23:Src/Settings/pattern.h **** 	}
  24:Src/Settings/pattern.h **** 
  25:Src/Settings/pattern.h **** 	constexpr uint32_t* random_min(uint8_t index) {
  26:Src/Settings/pattern.h **** 		return &data(index).random_min_.serial_[0];
  27:Src/Settings/pattern.h **** 	}
  28:Src/Settings/pattern.h **** 
  29:Src/Settings/pattern.h **** 	constexpr uint32_t* random_max(uint8_t index) {
  30:Src/Settings/pattern.h **** 		return &data(index).random_max_.serial_[0];
  31:Src/Settings/pattern.h **** 	}
  32:Src/Settings/pattern.h **** 
  33:Src/Settings/pattern.h **** 	constexpr uint16_t* random_mask(uint8_t index, int step_item) {
  34:Src/Settings/pattern.h **** 		return &data(index).random_mask_[step_item];
  35:Src/Settings/pattern.h **** 	}
  36:Src/Settings/pattern.h **** 
  37:Src/Settings/pattern.h **** 	const char* label(uint8_t index) {
  38:Src/Settings/pattern.h **** 		return data(index).label_;
  39:Src/Settings/pattern.h **** 	};
  40:Src/Settings/pattern.h **** 
  41:Src/Settings/pattern.h **** 	void set_label(uint8_t index, const char* new_label) {
  42:Src/Settings/pattern.h **** 		StringUtils::copy(data(index).label_, const_cast<char*>(new_label), TrackData::kMaxLabelLength);
  43:Src/Settings/pattern.h **** 	}
  44:Src/Settings/pattern.h **** 
  45:Src/Settings/pattern.h **** 	// Methods
  46:Src/Settings/pattern.h **** 	const char* name(uint8_t index) {
  47:Src/Settings/pattern.h **** 		return UiText::str.write("P", index + 1, "-", label(index));
  48:Src/Settings/pattern.h **** 	}
  49:Src/Settings/pattern.h **** 
  50:Src/Settings/pattern.h **** 	void clear(int index) {
  51:Src/Settings/pattern.h **** 		for (int i = 0; i < TrackData::kMaxStepItems; ++i) {
  52:Src/Settings/pattern.h **** 			*random_mask(index, i) = 0;
 1826              		.loc 10 52 4 is_stmt 1 view .LVU476
 1827              	.LBB1297:
 1828              	.LBI1297:
ARM GAS  /var/folders/84/_x1cyy_j36g486tldtwl37280000gn/T//ccQg3xDo.s 			page 62


  33:Src/Settings/pattern.h **** 		return &data(index).random_mask_[step_item];
 1829              		.loc 10 33 22 view .LVU477
 1830              	.LBB1298:
  34:Src/Settings/pattern.h **** 	}
 1831              		.loc 10 34 3 view .LVU478
 1832              	.LBB1299:
 1833              	.LBI1299:
  17:Src/Settings/pattern.h **** 		return TrackData::pattern_[list_->entry_[index]];
 1834              		.loc 10 17 32 view .LVU479
 1835              	.LBB1300:
  18:Src/Settings/pattern.h **** 	}
 1836              		.loc 10 18 3 view .LVU480
  18:Src/Settings/pattern.h **** 	}
 1837              		.loc 10 18 3 is_stmt 0 view .LVU481
 1838              	.LBE1300:
 1839              	.LBE1299:
  34:Src/Settings/pattern.h **** 	}
 1840              		.loc 10 34 21 view .LVU482
 1841 02dc 54F85EBC 		ldr	fp, [r4, #-94]
 1842 02e0 9DF86060 		ldrb	r6, [sp, #96]	@ zero_extendqisi2
 1843              	.LBE1298:
 1844              	.LBE1297:
 1845              		.loc 10 52 27 view .LVU483
 1846 02e4 CB4B     		ldr	r3, .L95
 1847              	.LBB1349:
 1848              	.LBB1333:
 1849              	.LBB1317:
 1850              	.LBB1301:
  18:Src/Settings/pattern.h **** 	}
 1851              		.loc 10 18 49 view .LVU484
 1852 02e6 1BF80600 		ldrb	r0, [fp, r6]	@ zero_extendqisi2
 1853              	.LVL58:
  18:Src/Settings/pattern.h **** 	}
 1854              		.loc 10 18 49 view .LVU485
 1855 02ea 0396     		str	r6, [sp, #12]
 1856              	.LBE1301:
 1857              	.LBE1317:
 1858              	.LBE1333:
 1859              	.LBE1349:
 1860              		.loc 10 52 27 view .LVU486
 1861 02ec 4FF0B809 		mov	r9, #184
 1862 02f0 09FB003C 		mla	ip, r9, r0, r3
 1863 02f4 ACF89870 		strh	r7, [ip, #152]	@ movhi
  51:Src/Settings/pattern.h **** 			*random_mask(index, i) = 0;
 1864              		.loc 10 51 3 is_stmt 1 view .LVU487
 1865              	.LVL59:
  51:Src/Settings/pattern.h **** 			*random_mask(index, i) = 0;
 1866              		.loc 10 51 21 view .LVU488
 1867              		.loc 10 52 4 view .LVU489
 1868              	.LBB1350:
  33:Src/Settings/pattern.h **** 		return &data(index).random_mask_[step_item];
 1869              		.loc 10 33 22 view .LVU490
 1870              	.LBB1334:
  34:Src/Settings/pattern.h **** 	}
 1871              		.loc 10 34 3 view .LVU491
 1872              	.LBB1318:
  17:Src/Settings/pattern.h **** 		return TrackData::pattern_[list_->entry_[index]];
ARM GAS  /var/folders/84/_x1cyy_j36g486tldtwl37280000gn/T//ccQg3xDo.s 			page 63


 1873              		.loc 10 17 32 view .LVU492
 1874              	.LBB1302:
  18:Src/Settings/pattern.h **** 	}
 1875              		.loc 10 18 3 view .LVU493
  18:Src/Settings/pattern.h **** 	}
 1876              		.loc 10 18 49 is_stmt 0 view .LVU494
 1877 02f8 1BF80610 		ldrb	r1, [fp, r6]	@ zero_extendqisi2
 1878              	.LBE1302:
 1879              	.LBE1318:
 1880              	.LBE1334:
 1881              	.LBE1350:
 1882              		.loc 10 52 27 view .LVU495
 1883 02fc 09FB013E 		mla	lr, r9, r1, r3
 1884 0300 AEF89A70 		strh	r7, [lr, #154]	@ movhi
  51:Src/Settings/pattern.h **** 			*random_mask(index, i) = 0;
 1885              		.loc 10 51 3 is_stmt 1 view .LVU496
 1886              	.LVL60:
  51:Src/Settings/pattern.h **** 			*random_mask(index, i) = 0;
 1887              		.loc 10 51 21 view .LVU497
 1888              		.loc 10 52 4 view .LVU498
 1889              	.LBB1351:
  33:Src/Settings/pattern.h **** 		return &data(index).random_mask_[step_item];
 1890              		.loc 10 33 22 view .LVU499
 1891              	.LBB1335:
  34:Src/Settings/pattern.h **** 	}
 1892              		.loc 10 34 3 view .LVU500
 1893              	.LBB1319:
  17:Src/Settings/pattern.h **** 		return TrackData::pattern_[list_->entry_[index]];
 1894              		.loc 10 17 32 view .LVU501
 1895              	.LBB1303:
  18:Src/Settings/pattern.h **** 	}
 1896              		.loc 10 18 3 view .LVU502
  18:Src/Settings/pattern.h **** 	}
 1897              		.loc 10 18 49 is_stmt 0 view .LVU503
 1898 0304 1BF80600 		ldrb	r0, [fp, r6]	@ zero_extendqisi2
 1899              	.LBE1303:
 1900              	.LBE1319:
 1901              	.LBE1335:
 1902              	.LBE1351:
 1903              		.loc 10 52 27 view .LVU504
 1904 0308 09FB003C 		mla	ip, r9, r0, r3
 1905 030c ACF89C70 		strh	r7, [ip, #156]	@ movhi
  51:Src/Settings/pattern.h **** 			*random_mask(index, i) = 0;
 1906              		.loc 10 51 3 is_stmt 1 view .LVU505
 1907              	.LVL61:
  51:Src/Settings/pattern.h **** 			*random_mask(index, i) = 0;
 1908              		.loc 10 51 21 view .LVU506
 1909              		.loc 10 52 4 view .LVU507
 1910              	.LBB1352:
  33:Src/Settings/pattern.h **** 		return &data(index).random_mask_[step_item];
 1911              		.loc 10 33 22 view .LVU508
 1912              	.LBB1336:
  34:Src/Settings/pattern.h **** 	}
 1913              		.loc 10 34 3 view .LVU509
 1914              	.LBB1320:
  17:Src/Settings/pattern.h **** 		return TrackData::pattern_[list_->entry_[index]];
 1915              		.loc 10 17 32 view .LVU510
ARM GAS  /var/folders/84/_x1cyy_j36g486tldtwl37280000gn/T//ccQg3xDo.s 			page 64


 1916              	.LBB1304:
  18:Src/Settings/pattern.h **** 	}
 1917              		.loc 10 18 3 view .LVU511
  18:Src/Settings/pattern.h **** 	}
 1918              		.loc 10 18 49 is_stmt 0 view .LVU512
 1919 0310 1BF80610 		ldrb	r1, [fp, r6]	@ zero_extendqisi2
 1920              	.LBE1304:
 1921              	.LBE1320:
 1922              	.LBE1336:
 1923              	.LBE1352:
 1924              		.loc 10 52 27 view .LVU513
 1925 0314 09FB013E 		mla	lr, r9, r1, r3
 1926 0318 AEF89E70 		strh	r7, [lr, #158]	@ movhi
  51:Src/Settings/pattern.h **** 			*random_mask(index, i) = 0;
 1927              		.loc 10 51 3 is_stmt 1 view .LVU514
 1928              	.LVL62:
  51:Src/Settings/pattern.h **** 			*random_mask(index, i) = 0;
 1929              		.loc 10 51 21 view .LVU515
 1930              		.loc 10 52 4 view .LVU516
 1931              	.LBB1353:
  33:Src/Settings/pattern.h **** 		return &data(index).random_mask_[step_item];
 1932              		.loc 10 33 22 view .LVU517
 1933              	.LBB1337:
  34:Src/Settings/pattern.h **** 	}
 1934              		.loc 10 34 3 view .LVU518
 1935              	.LBB1321:
  17:Src/Settings/pattern.h **** 		return TrackData::pattern_[list_->entry_[index]];
 1936              		.loc 10 17 32 view .LVU519
 1937              	.LBB1305:
  18:Src/Settings/pattern.h **** 	}
 1938              		.loc 10 18 3 view .LVU520
  18:Src/Settings/pattern.h **** 	}
 1939              		.loc 10 18 49 is_stmt 0 view .LVU521
 1940 031c 1BF80600 		ldrb	r0, [fp, r6]	@ zero_extendqisi2
 1941              	.LBE1305:
 1942              	.LBE1321:
 1943              	.LBE1337:
 1944              	.LBE1353:
 1945              		.loc 10 52 27 view .LVU522
 1946 0320 09FB003C 		mla	ip, r9, r0, r3
 1947 0324 ACF8A070 		strh	r7, [ip, #160]	@ movhi
  51:Src/Settings/pattern.h **** 			*random_mask(index, i) = 0;
 1948              		.loc 10 51 3 is_stmt 1 view .LVU523
 1949              	.LVL63:
  51:Src/Settings/pattern.h **** 			*random_mask(index, i) = 0;
 1950              		.loc 10 51 21 view .LVU524
 1951              		.loc 10 52 4 view .LVU525
 1952              	.LBB1354:
  33:Src/Settings/pattern.h **** 		return &data(index).random_mask_[step_item];
 1953              		.loc 10 33 22 view .LVU526
 1954              	.LBB1338:
  34:Src/Settings/pattern.h **** 	}
 1955              		.loc 10 34 3 view .LVU527
 1956              	.LBB1322:
  17:Src/Settings/pattern.h **** 		return TrackData::pattern_[list_->entry_[index]];
 1957              		.loc 10 17 32 view .LVU528
 1958              	.LBB1306:
ARM GAS  /var/folders/84/_x1cyy_j36g486tldtwl37280000gn/T//ccQg3xDo.s 			page 65


  18:Src/Settings/pattern.h **** 	}
 1959              		.loc 10 18 3 view .LVU529
  18:Src/Settings/pattern.h **** 	}
 1960              		.loc 10 18 49 is_stmt 0 view .LVU530
 1961 0328 1BF80610 		ldrb	r1, [fp, r6]	@ zero_extendqisi2
 1962              	.LBE1306:
 1963              	.LBE1322:
 1964              	.LBE1338:
 1965              	.LBE1354:
 1966              		.loc 10 52 27 view .LVU531
 1967 032c 09FB013E 		mla	lr, r9, r1, r3
 1968 0330 AEF8A270 		strh	r7, [lr, #162]	@ movhi
  51:Src/Settings/pattern.h **** 			*random_mask(index, i) = 0;
 1969              		.loc 10 51 3 is_stmt 1 view .LVU532
 1970              	.LVL64:
  51:Src/Settings/pattern.h **** 			*random_mask(index, i) = 0;
 1971              		.loc 10 51 21 view .LVU533
 1972              		.loc 10 52 4 view .LVU534
 1973              	.LBB1355:
  33:Src/Settings/pattern.h **** 		return &data(index).random_mask_[step_item];
 1974              		.loc 10 33 22 view .LVU535
 1975              	.LBB1339:
  34:Src/Settings/pattern.h **** 	}
 1976              		.loc 10 34 3 view .LVU536
 1977              	.LBB1323:
  17:Src/Settings/pattern.h **** 		return TrackData::pattern_[list_->entry_[index]];
 1978              		.loc 10 17 32 view .LVU537
 1979              	.LBB1307:
  18:Src/Settings/pattern.h **** 	}
 1980              		.loc 10 18 3 view .LVU538
  18:Src/Settings/pattern.h **** 	}
 1981              		.loc 10 18 49 is_stmt 0 view .LVU539
 1982 0334 1BF80600 		ldrb	r0, [fp, r6]	@ zero_extendqisi2
 1983              	.LBE1307:
 1984              	.LBE1323:
 1985              	.LBE1339:
 1986              	.LBE1355:
 1987              		.loc 10 52 27 view .LVU540
 1988 0338 09FB003C 		mla	ip, r9, r0, r3
 1989 033c ACF8A470 		strh	r7, [ip, #164]	@ movhi
  51:Src/Settings/pattern.h **** 			*random_mask(index, i) = 0;
 1990              		.loc 10 51 3 is_stmt 1 view .LVU541
 1991              	.LVL65:
  51:Src/Settings/pattern.h **** 			*random_mask(index, i) = 0;
 1992              		.loc 10 51 21 view .LVU542
 1993              		.loc 10 52 4 view .LVU543
 1994              	.LBB1356:
  33:Src/Settings/pattern.h **** 		return &data(index).random_mask_[step_item];
 1995              		.loc 10 33 22 view .LVU544
 1996              	.LBB1340:
  34:Src/Settings/pattern.h **** 	}
 1997              		.loc 10 34 3 view .LVU545
 1998              	.LBB1324:
  17:Src/Settings/pattern.h **** 		return TrackData::pattern_[list_->entry_[index]];
 1999              		.loc 10 17 32 view .LVU546
 2000              	.LBB1308:
  18:Src/Settings/pattern.h **** 	}
ARM GAS  /var/folders/84/_x1cyy_j36g486tldtwl37280000gn/T//ccQg3xDo.s 			page 66


 2001              		.loc 10 18 3 view .LVU547
  18:Src/Settings/pattern.h **** 	}
 2002              		.loc 10 18 49 is_stmt 0 view .LVU548
 2003 0340 1BF80610 		ldrb	r1, [fp, r6]	@ zero_extendqisi2
 2004              	.LBE1308:
 2005              	.LBE1324:
 2006              	.LBE1340:
 2007              	.LBE1356:
 2008              		.loc 10 52 27 view .LVU549
 2009 0344 09FB013E 		mla	lr, r9, r1, r3
 2010 0348 AEF8A670 		strh	r7, [lr, #166]	@ movhi
  51:Src/Settings/pattern.h **** 			*random_mask(index, i) = 0;
 2011              		.loc 10 51 3 is_stmt 1 view .LVU550
 2012              	.LVL66:
  51:Src/Settings/pattern.h **** 			*random_mask(index, i) = 0;
 2013              		.loc 10 51 21 view .LVU551
 2014              		.loc 10 52 4 view .LVU552
 2015              	.LBB1357:
  33:Src/Settings/pattern.h **** 		return &data(index).random_mask_[step_item];
 2016              		.loc 10 33 22 view .LVU553
 2017              	.LBB1341:
  34:Src/Settings/pattern.h **** 	}
 2018              		.loc 10 34 3 view .LVU554
 2019              	.LBB1325:
  17:Src/Settings/pattern.h **** 		return TrackData::pattern_[list_->entry_[index]];
 2020              		.loc 10 17 32 view .LVU555
 2021              	.LBB1309:
  18:Src/Settings/pattern.h **** 	}
 2022              		.loc 10 18 3 view .LVU556
  18:Src/Settings/pattern.h **** 	}
 2023              		.loc 10 18 49 is_stmt 0 view .LVU557
 2024 034c 1BF80600 		ldrb	r0, [fp, r6]	@ zero_extendqisi2
 2025              	.LBE1309:
 2026              	.LBE1325:
 2027              	.LBE1341:
 2028              	.LBE1357:
 2029              		.loc 10 52 27 view .LVU558
 2030 0350 09FB003C 		mla	ip, r9, r0, r3
 2031 0354 ACF8A870 		strh	r7, [ip, #168]	@ movhi
  51:Src/Settings/pattern.h **** 			*random_mask(index, i) = 0;
 2032              		.loc 10 51 3 is_stmt 1 view .LVU559
 2033              	.LVL67:
  51:Src/Settings/pattern.h **** 			*random_mask(index, i) = 0;
 2034              		.loc 10 51 21 view .LVU560
 2035              		.loc 10 52 4 view .LVU561
 2036              	.LBB1358:
  33:Src/Settings/pattern.h **** 		return &data(index).random_mask_[step_item];
 2037              		.loc 10 33 22 view .LVU562
 2038              	.LBB1342:
  34:Src/Settings/pattern.h **** 	}
 2039              		.loc 10 34 3 view .LVU563
 2040              	.LBB1326:
  17:Src/Settings/pattern.h **** 		return TrackData::pattern_[list_->entry_[index]];
 2041              		.loc 10 17 32 view .LVU564
 2042              	.LBB1310:
  18:Src/Settings/pattern.h **** 	}
 2043              		.loc 10 18 3 view .LVU565
ARM GAS  /var/folders/84/_x1cyy_j36g486tldtwl37280000gn/T//ccQg3xDo.s 			page 67


  18:Src/Settings/pattern.h **** 	}
 2044              		.loc 10 18 49 is_stmt 0 view .LVU566
 2045 0358 1BF80610 		ldrb	r1, [fp, r6]	@ zero_extendqisi2
 2046              	.LBE1310:
 2047              	.LBE1326:
 2048              	.LBE1342:
 2049              	.LBE1358:
 2050              		.loc 10 52 27 view .LVU567
 2051 035c 09FB013E 		mla	lr, r9, r1, r3
 2052 0360 AEF8AA70 		strh	r7, [lr, #170]	@ movhi
  51:Src/Settings/pattern.h **** 			*random_mask(index, i) = 0;
 2053              		.loc 10 51 3 is_stmt 1 view .LVU568
 2054              	.LVL68:
  51:Src/Settings/pattern.h **** 			*random_mask(index, i) = 0;
 2055              		.loc 10 51 21 view .LVU569
 2056              		.loc 10 52 4 view .LVU570
 2057              	.LBB1359:
  33:Src/Settings/pattern.h **** 		return &data(index).random_mask_[step_item];
 2058              		.loc 10 33 22 view .LVU571
 2059              	.LBB1343:
  34:Src/Settings/pattern.h **** 	}
 2060              		.loc 10 34 3 view .LVU572
 2061              	.LBB1327:
  17:Src/Settings/pattern.h **** 		return TrackData::pattern_[list_->entry_[index]];
 2062              		.loc 10 17 32 view .LVU573
 2063              	.LBB1311:
  18:Src/Settings/pattern.h **** 	}
 2064              		.loc 10 18 3 view .LVU574
  18:Src/Settings/pattern.h **** 	}
 2065              		.loc 10 18 49 is_stmt 0 view .LVU575
 2066 0364 1BF80600 		ldrb	r0, [fp, r6]	@ zero_extendqisi2
 2067              	.LBE1311:
 2068              	.LBE1327:
 2069              	.LBE1343:
 2070              	.LBE1359:
 2071              		.loc 10 52 27 view .LVU576
 2072 0368 09FB003C 		mla	ip, r9, r0, r3
 2073 036c ACF8AC70 		strh	r7, [ip, #172]	@ movhi
  51:Src/Settings/pattern.h **** 			*random_mask(index, i) = 0;
 2074              		.loc 10 51 3 is_stmt 1 view .LVU577
 2075              	.LVL69:
  51:Src/Settings/pattern.h **** 			*random_mask(index, i) = 0;
 2076              		.loc 10 51 21 view .LVU578
 2077              		.loc 10 52 4 view .LVU579
 2078              	.LBB1360:
  33:Src/Settings/pattern.h **** 		return &data(index).random_mask_[step_item];
 2079              		.loc 10 33 22 view .LVU580
 2080              	.LBB1344:
  34:Src/Settings/pattern.h **** 	}
 2081              		.loc 10 34 3 view .LVU581
 2082              	.LBB1328:
  17:Src/Settings/pattern.h **** 		return TrackData::pattern_[list_->entry_[index]];
 2083              		.loc 10 17 32 view .LVU582
 2084              	.LBB1312:
  18:Src/Settings/pattern.h **** 	}
 2085              		.loc 10 18 3 view .LVU583
  18:Src/Settings/pattern.h **** 	}
ARM GAS  /var/folders/84/_x1cyy_j36g486tldtwl37280000gn/T//ccQg3xDo.s 			page 68


 2086              		.loc 10 18 49 is_stmt 0 view .LVU584
 2087 0370 1BF80610 		ldrb	r1, [fp, r6]	@ zero_extendqisi2
 2088              	.LBE1312:
 2089              	.LBE1328:
 2090              	.LBE1344:
 2091              	.LBE1360:
 2092              		.loc 10 52 27 view .LVU585
 2093 0374 09FB013E 		mla	lr, r9, r1, r3
 2094 0378 AEF8AE70 		strh	r7, [lr, #174]	@ movhi
  51:Src/Settings/pattern.h **** 			*random_mask(index, i) = 0;
 2095              		.loc 10 51 3 is_stmt 1 view .LVU586
 2096              	.LVL70:
  51:Src/Settings/pattern.h **** 			*random_mask(index, i) = 0;
 2097              		.loc 10 51 21 view .LVU587
 2098              		.loc 10 52 4 view .LVU588
 2099              	.LBB1361:
  33:Src/Settings/pattern.h **** 		return &data(index).random_mask_[step_item];
 2100              		.loc 10 33 22 view .LVU589
 2101              	.LBB1345:
  34:Src/Settings/pattern.h **** 	}
 2102              		.loc 10 34 3 view .LVU590
 2103              	.LBB1329:
  17:Src/Settings/pattern.h **** 		return TrackData::pattern_[list_->entry_[index]];
 2104              		.loc 10 17 32 view .LVU591
 2105              	.LBB1313:
  18:Src/Settings/pattern.h **** 	}
 2106              		.loc 10 18 3 view .LVU592
  18:Src/Settings/pattern.h **** 	}
 2107              		.loc 10 18 49 is_stmt 0 view .LVU593
 2108 037c 1BF80600 		ldrb	r0, [fp, r6]	@ zero_extendqisi2
 2109              	.LBE1313:
 2110              	.LBE1329:
 2111              	.LBE1345:
 2112              	.LBE1361:
 2113              		.loc 10 52 27 view .LVU594
 2114 0380 09FB003C 		mla	ip, r9, r0, r3
 2115 0384 ACF8B070 		strh	r7, [ip, #176]	@ movhi
  51:Src/Settings/pattern.h **** 			*random_mask(index, i) = 0;
 2116              		.loc 10 51 3 is_stmt 1 view .LVU595
 2117              	.LVL71:
  51:Src/Settings/pattern.h **** 			*random_mask(index, i) = 0;
 2118              		.loc 10 51 21 view .LVU596
 2119              		.loc 10 52 4 view .LVU597
 2120              	.LBB1362:
  33:Src/Settings/pattern.h **** 		return &data(index).random_mask_[step_item];
 2121              		.loc 10 33 22 view .LVU598
 2122              	.LBB1346:
  34:Src/Settings/pattern.h **** 	}
 2123              		.loc 10 34 3 view .LVU599
 2124              	.LBB1330:
  17:Src/Settings/pattern.h **** 		return TrackData::pattern_[list_->entry_[index]];
 2125              		.loc 10 17 32 view .LVU600
 2126              	.LBB1314:
  18:Src/Settings/pattern.h **** 	}
 2127              		.loc 10 18 3 view .LVU601
  18:Src/Settings/pattern.h **** 	}
 2128              		.loc 10 18 49 is_stmt 0 view .LVU602
ARM GAS  /var/folders/84/_x1cyy_j36g486tldtwl37280000gn/T//ccQg3xDo.s 			page 69


 2129 0388 1BF80610 		ldrb	r1, [fp, r6]	@ zero_extendqisi2
 2130              	.LBE1314:
 2131              	.LBE1330:
 2132              	.LBE1346:
 2133              	.LBE1362:
 2134              		.loc 10 52 27 view .LVU603
 2135 038c 09FB013E 		mla	lr, r9, r1, r3
 2136 0390 AEF8B270 		strh	r7, [lr, #178]	@ movhi
  51:Src/Settings/pattern.h **** 			*random_mask(index, i) = 0;
 2137              		.loc 10 51 3 is_stmt 1 view .LVU604
 2138              	.LVL72:
  51:Src/Settings/pattern.h **** 			*random_mask(index, i) = 0;
 2139              		.loc 10 51 21 view .LVU605
 2140              		.loc 10 52 4 view .LVU606
 2141              	.LBB1363:
  33:Src/Settings/pattern.h **** 		return &data(index).random_mask_[step_item];
 2142              		.loc 10 33 22 view .LVU607
 2143              	.LBB1347:
  34:Src/Settings/pattern.h **** 	}
 2144              		.loc 10 34 3 view .LVU608
 2145              	.LBB1331:
  17:Src/Settings/pattern.h **** 		return TrackData::pattern_[list_->entry_[index]];
 2146              		.loc 10 17 32 view .LVU609
 2147              	.LBB1315:
  18:Src/Settings/pattern.h **** 	}
 2148              		.loc 10 18 3 view .LVU610
  18:Src/Settings/pattern.h **** 	}
 2149              		.loc 10 18 49 is_stmt 0 view .LVU611
 2150 0394 1BF80600 		ldrb	r0, [fp, r6]	@ zero_extendqisi2
 2151              	.LBE1315:
 2152              	.LBE1331:
 2153              	.LBE1347:
 2154              	.LBE1363:
 2155              		.loc 10 52 27 view .LVU612
 2156 0398 09FB003C 		mla	ip, r9, r0, r3
 2157 039c ACF8B470 		strh	r7, [ip, #180]	@ movhi
  51:Src/Settings/pattern.h **** 			*random_mask(index, i) = 0;
 2158              		.loc 10 51 3 is_stmt 1 view .LVU613
 2159              	.LVL73:
  51:Src/Settings/pattern.h **** 			*random_mask(index, i) = 0;
 2160              		.loc 10 51 21 view .LVU614
 2161              		.loc 10 52 4 view .LVU615
 2162              	.LBB1364:
  33:Src/Settings/pattern.h **** 		return &data(index).random_mask_[step_item];
 2163              		.loc 10 33 22 view .LVU616
 2164              	.LBB1348:
  34:Src/Settings/pattern.h **** 	}
 2165              		.loc 10 34 3 view .LVU617
 2166              	.LBB1332:
  17:Src/Settings/pattern.h **** 		return TrackData::pattern_[list_->entry_[index]];
 2167              		.loc 10 17 32 view .LVU618
 2168              	.LBB1316:
  18:Src/Settings/pattern.h **** 	}
 2169              		.loc 10 18 3 view .LVU619
  18:Src/Settings/pattern.h **** 	}
 2170              		.loc 10 18 49 is_stmt 0 view .LVU620
 2171 03a0 1BF80610 		ldrb	r1, [fp, r6]	@ zero_extendqisi2
ARM GAS  /var/folders/84/_x1cyy_j36g486tldtwl37280000gn/T//ccQg3xDo.s 			page 70


 2172 03a4 0195     		str	r5, [sp, #4]
 2173              	.LVL74:
  18:Src/Settings/pattern.h **** 	}
 2174              		.loc 10 18 49 view .LVU621
 2175              	.LBE1316:
 2176              	.LBE1332:
 2177              	.LBE1348:
 2178              	.LBE1364:
 2179              		.loc 10 52 27 view .LVU622
 2180 03a6 09FB013E 		mla	lr, r9, r1, r3
 2181 03aa 9B49     		ldr	r1, .L95+4
 2182 03ac AEF8B670 		strh	r7, [lr, #182]	@ movhi
  51:Src/Settings/pattern.h **** 			*random_mask(index, i) = 0;
 2183              		.loc 10 51 3 is_stmt 1 view .LVU623
 2184              	.LVL75:
  51:Src/Settings/pattern.h **** 			*random_mask(index, i) = 0;
 2185              		.loc 10 51 21 view .LVU624
  51:Src/Settings/pattern.h **** 			*random_mask(index, i) = 0;
 2186              		.loc 10 51 21 is_stmt 0 view .LVU625
 2187              	.LBE1296:
 2188              	.LBE1295:
 2189              	.LBE1294:
 2190              	.LBE1816:
 2191              	.LBE1881:
 2192              	.LBE1936:
 2193              	.LBE1993:
 2194              	.LBE2060:
 2195              	.LBE2124:
 2196              	.LBE2292:
 2197              	.LBE2363:
 158:Src/Settings/noteTrack.h **** 			clear_pattern(pattern_index);
 159:Src/Settings/noteTrack.h **** 			BaseTrack::pattern.set_label(pattern_index, BaseTrack::generate_pattern_label());
 160:Src/Settings/noteTrack.h **** 			return true;
 161:Src/Settings/noteTrack.h **** 		}
 162:Src/Settings/noteTrack.h **** 		return false;
 163:Src/Settings/noteTrack.h **** 	}
 164:Src/Settings/noteTrack.h **** 
 165:Src/Settings/noteTrack.h **** 	void clear_pattern(int pattern_index) {
 166:Src/Settings/noteTrack.h **** 		BaseTrack::pattern.clear(pattern_index);
 167:Src/Settings/noteTrack.h **** 		clear_random(pattern_index);
 2198              		.loc 9 167 3 is_stmt 1 view .LVU626
 2199              	.LBB2364:
 2200              	.LBB2293:
 2201              	.LBB2125:
 2202              	.LBB2061:
 2203              	.LBB1994:
 2204              	.LBB1937:
 2205              	.LBB1882:
 2206              	.LBB1817:
 2207              	.LBB1756:
 2208              	.LBB1365:
 2209              	.LBI1365:
 168:Src/Settings/noteTrack.h **** 		for (int i = 0; i < BaseTrack::max_steps_per_pattern(); ++i) {
 169:Src/Settings/noteTrack.h **** 			clear_step(pattern_index, i);
 170:Src/Settings/noteTrack.h **** 		}
 171:Src/Settings/noteTrack.h **** 	}
 172:Src/Settings/noteTrack.h **** 
ARM GAS  /var/folders/84/_x1cyy_j36g486tldtwl37280000gn/T//ccQg3xDo.s 			page 71


 173:Src/Settings/noteTrack.h **** private:
 174:Src/Settings/noteTrack.h **** 	static SerialMask step_mask_[NUM_STEP_ITEMS];
 175:Src/Settings/noteTrack.h **** 	static SerialItem step_item_[NUM_STEP_ITEMS];
 176:Src/Settings/noteTrack.h **** 	static SerialMask track_mask_[NUM_TRACK_ITEMS];
 177:Src/Settings/noteTrack.h **** 	static SerialItem track_item_[NUM_TRACK_ITEMS];
 178:Src/Settings/noteTrack.h **** 
 179:Src/Settings/noteTrack.h **** 	void clear_step(int8_t pattern_index, int step_index) {
 180:Src/Settings/noteTrack.h **** 		for (int i = 0; i < NUM_STEP_ITEMS; ++i) {
 181:Src/Settings/noteTrack.h **** 			write_step(pattern_index, step_index, StepItem(i), step_item_[i].init_value());
 182:Src/Settings/noteTrack.h **** 		}
 183:Src/Settings/noteTrack.h **** 	}
 184:Src/Settings/noteTrack.h **** 
 185:Src/Settings/noteTrack.h **** 	void clear_random(uint8_t pattern_index) {
 2210              		.loc 9 185 7 view .LVU627
 2211              	.LBB1366:
 186:Src/Settings/noteTrack.h **** 		*BaseTrack::pattern.random_mask(pattern_index, TRIGGER) = 0xFFFF;
 2212              		.loc 9 186 3 view .LVU628
 2213              	.LBB1367:
 2214              	.LBI1367:
  33:Src/Settings/pattern.h **** 		return &data(index).random_mask_[step_item];
 2215              		.loc 10 33 22 view .LVU629
 2216              	.LBE1367:
 2217              	.LBE1366:
 2218              	.LBE1365:
 2219              	.LBE1756:
 2220              	.LBE1817:
 2221              	.LBE1882:
 2222              	.LBE1937:
 2223              	.LBE1994:
 2224              	.LBE2061:
 2225              	.LBE2125:
 2226              	.LBE2293:
 2227              	.LBE2364:
  34:Src/Settings/pattern.h **** 	}
 2228              		.loc 10 34 3 view .LVU630
 2229              	.LBB2365:
 2230              	.LBB2294:
 2231              	.LBB2126:
 2232              	.LBB2062:
 2233              	.LBB1995:
 2234              	.LBB1938:
 2235              	.LBB1883:
 2236              	.LBB1818:
 2237              	.LBB1757:
 2238              	.LBB1461:
 2239              	.LBB1448:
 2240              	.LBB1370:
 2241              	.LBB1368:
 2242              	.LBI1368:
  17:Src/Settings/pattern.h **** 		return TrackData::pattern_[list_->entry_[index]];
 2243              		.loc 10 17 32 view .LVU631
 2244              	.LBB1369:
  18:Src/Settings/pattern.h **** 	}
 2245              		.loc 10 18 3 view .LVU632
  18:Src/Settings/pattern.h **** 	}
 2246              		.loc 10 18 49 is_stmt 0 view .LVU633
 2247 03b0 1BF80660 		ldrb	r6, [fp, r6]	@ zero_extendqisi2
ARM GAS  /var/folders/84/_x1cyy_j36g486tldtwl37280000gn/T//ccQg3xDo.s 			page 72


 2248              	.LBE1369:
 2249              	.LBE1368:
 2250              	.LBE1370:
 2251              		.loc 9 186 59 view .LVU634
 2252 03b4 09FB0639 		mla	r9, r9, r6, r3
 2253 03b8 039E     		ldr	r6, [sp, #12]
 2254 03ba A9F898A0 		strh	r10, [r9, #152]	@ movhi
 187:Src/Settings/noteTrack.h **** 		for (int i = 0; i < NUM_STEP_ITEMS; ++i) {
 2255              		.loc 9 187 3 is_stmt 1 view .LVU635
 2256              	.LVL76:
 2257              	.LBB1371:
 2258              		.loc 9 187 21 view .LVU636
 2259 03be A646     		mov	lr, r4
 2260              	.LVL77:
 2261              	.L17:
 188:Src/Settings/noteTrack.h **** 			write_random_min(pattern_index, StepItem(i), step_item_[i].min());
 2262              		.loc 9 188 4 view .LVU637
 2263 03c0 1BF80640 		ldrb	r4, [fp, r6]	@ zero_extendqisi2
 2264              	.LBB1372:
 2265              	.LBB1373:
 2266              	.LBB1374:
  29:Src/Settings/serialItem.h **** 			serial.write(mask_, ptr, value);
 2267              		.loc 14 29 33 is_stmt 0 view .LVU638
 2268 03c4 D1E90007 		ldrd	r0, r7, [r1]
 2269 03c8 04EB4405 		add	r5, r4, r4, lsl #1
 2270 03cc C4EBC504 		rsb	r4, r4, r5, lsl #3
  29:Src/Settings/serialItem.h **** 			serial.write(mask_, ptr, value);
 2271              		.loc 14 29 21 view .LVU639
 2272 03d0 B842     		cmp	r0, r7
 2273 03d2 4FEAC404 		lsl	r4, r4, #3
 2274              	.LVL78:
  29:Src/Settings/serialItem.h **** 			serial.write(mask_, ptr, value);
 2275              		.loc 14 29 21 view .LVU640
 2276              	.LBE1374:
 2277              	.LBI1373:
  28:Src/Settings/serialItem.h **** 		if (value >= min_ && value <= max_) {
 2278              		.loc 14 28 14 is_stmt 1 view .LVU641
 2279              	.LBB1387:
  29:Src/Settings/serialItem.h **** 			serial.write(mask_, ptr, value);
 2280              		.loc 14 29 3 view .LVU642
  29:Src/Settings/serialItem.h **** 			serial.write(mask_, ptr, value);
 2281              		.loc 14 29 21 is_stmt 0 view .LVU643
 2282 03d6 18DC     		bgt	.L15
 2283              	.LVL79:
 2284              	.LBB1375:
 2285              	.LBI1375:
  28:Src/Settings/serialItem.h **** 		if (value >= min_ && value <= max_) {
 2286              		.loc 14 28 14 is_stmt 1 view .LVU644
 2287              	.LBB1376:
 2288              		.loc 14 30 4 view .LVU645
 2289              		.loc 14 30 16 is_stmt 0 view .LVU646
 2290 03d8 0D69     		ldr	r5, [r1, #16]
 2291              	.LVL80:
 2292              	.LBB1377:
 2293              	.LBI1377:
  22:Src/Settings/serial.h **** 		uint32_t data = ptr[mask.reg];
 2294              		.loc 15 22 14 is_stmt 1 view .LVU647
ARM GAS  /var/folders/84/_x1cyy_j36g486tldtwl37280000gn/T//ccQg3xDo.s 			page 73


 2295              	.LBB1378:
  23:Src/Settings/serial.h **** 		ptr[mask.reg] = (data & ~mask.value) | (value << mask.shifts);
 2296              		.loc 15 23 3 view .LVU648
  23:Src/Settings/serial.h **** 		ptr[mask.reg] = (data & ~mask.value) | (value << mask.shifts);
 2297              		.loc 15 23 31 is_stmt 0 view .LVU649
 2298 03da 95F800A0 		ldrb	r10, [r5]	@ zero_extendqisi2
 2299              		.loc 15 24 57 view .LVU650
 2300 03de 95F80290 		ldrb	r9, [r5, #2]	@ zero_extendqisi2
 2301              		.loc 15 24 27 view .LVU651
 2302 03e2 D5F804C0 		ldr	ip, [r5, #4]
  23:Src/Settings/serial.h **** 		ptr[mask.reg] = (data & ~mask.value) | (value << mask.shifts);
 2303              		.loc 15 23 31 view .LVU652
 2304 03e6 8834     		adds	r4, r4, #136
 2305              	.LVL81:
  23:Src/Settings/serial.h **** 		ptr[mask.reg] = (data & ~mask.value) | (value << mask.shifts);
 2306              		.loc 15 23 31 view .LVU653
 2307 03e8 04EB8A04 		add	r4, r4, r10, lsl #2
 2308              	.LVL82:
 2309              		.loc 15 24 3 is_stmt 1 view .LVU654
 2310              		.loc 15 24 49 is_stmt 0 view .LVU655
 2311 03ec 00FA09FA 		lsl	r10, r0, r9
 2312              		.loc 15 24 25 view .LVU656
 2313 03f0 1D59     		ldr	r5, [r3, r4]
 2314 03f2 25EA0C0C 		bic	ip, r5, ip
 2315              		.loc 15 24 40 view .LVU657
 2316 03f6 4CEA0A05 		orr	r5, ip, r10
 2317              		.loc 15 24 17 view .LVU658
 2318 03fa 1D51     		str	r5, [r3, r4]
 2319              	.LVL83:
 2320              		.loc 15 24 17 view .LVU659
 2321 03fc 1BF80690 		ldrb	r9, [fp, r6]	@ zero_extendqisi2
 2322 0400 09EB4904 		add	r4, r9, r9, lsl #1
 2323 0404 C9EBC405 		rsb	r5, r9, r4, lsl #3
 2324 0408 EC00     		lsls	r4, r5, #3
 2325              	.L15:
 2326              		.loc 15 24 17 view .LVU660
 2327              	.LBE1378:
 2328              	.LBE1377:
 2329              	.LBE1376:
 2330              	.LBE1375:
 2331              	.LBE1387:
 2332              	.LBE1373:
 2333              	.LBE1372:
 189:Src/Settings/noteTrack.h **** 			write_random_max(pattern_index, StepItem(i), step_item_[i].max());
 2334              		.loc 9 189 4 is_stmt 1 view .LVU661
 2335              		.loc 9 189 20 is_stmt 0 view .LVU662
 2336 040a 4D68     		ldr	r5, [r1, #4]
 2337              	.LVL84:
 2338              		.loc 9 189 20 view .LVU663
 2339              	.LBE1371:
 2340              	.LBE1448:
 2341              	.LBE1461:
 2342              	.LBE1757:
 2343              	.LBE1818:
 2344              	.LBE1883:
 2345              	.LBE1938:
 2346              	.LBE1995:
ARM GAS  /var/folders/84/_x1cyy_j36g486tldtwl37280000gn/T//ccQg3xDo.s 			page 74


 2347              	.LBE2062:
 2348              	.LBE2126:
 2349              	.LBE2294:
 2350              	.LBE2365:
  17:Src/Settings/serialItem.h **** 	constexpr int init_value() const { return init_value_; }
 2351              		.loc 14 17 30 is_stmt 1 view .LVU664
 2352              	.LBB2366:
 2353              	.LBB2295:
 2354              	.LBB2127:
 2355              	.LBB2063:
 2356              	.LBB1996:
 2357              	.LBB1939:
 2358              	.LBB1884:
 2359              	.LBB1819:
 2360              	.LBB1758:
 2361              	.LBB1462:
 2362              	.LBB1449:
 2363              	.LBB1436:
 2364              	.LBB1404:
 2365              	.LBI1404:
 145:Src/Settings/noteTrack.h **** 		step_item_[item].write(BaseTrack::pattern.random_max(pattern_index), value);
 2366              		.loc 9 145 7 view .LVU665
 2367              	.LBE1404:
 2368              	.LBE1436:
 2369              	.LBE1449:
 2370              	.LBE1462:
 2371              	.LBE1758:
 2372              	.LBE1819:
 2373              	.LBE1884:
 2374              	.LBE1939:
 2375              	.LBE1996:
 2376              	.LBE2063:
 2377              	.LBE2127:
 2378              	.LBE2295:
 2379              	.LBE2366:
 146:Src/Settings/noteTrack.h **** 	}
 2380              		.loc 9 146 3 view .LVU666
  30:Src/Settings/pattern.h **** 	}
 2381              		.loc 10 30 3 view .LVU667
  18:Src/Settings/pattern.h **** 	}
 2382              		.loc 10 18 3 view .LVU668
 2383              	.LBB2367:
 2384              	.LBB2296:
 2385              	.LBB2128:
 2386              	.LBB2064:
 2387              	.LBB1997:
 2388              	.LBB1940:
 2389              	.LBB1885:
 2390              	.LBB1820:
 2391              	.LBB1759:
 2392              	.LBB1463:
 2393              	.LBB1450:
 2394              	.LBB1437:
 2395              	.LBB1423:
 2396              	.LBB1405:
 2397              	.LBI1405:
  28:Src/Settings/serialItem.h **** 		if (value >= min_ && value <= max_) {
ARM GAS  /var/folders/84/_x1cyy_j36g486tldtwl37280000gn/T//ccQg3xDo.s 			page 75


 2398              		.loc 14 28 14 view .LVU669
 2399              	.LBB1406:
  29:Src/Settings/serialItem.h **** 			serial.write(mask_, ptr, value);
 2400              		.loc 14 29 3 view .LVU670
 2401 040c A842     		cmp	r0, r5
 2402 040e 13DC     		bgt	.L16
  29:Src/Settings/serialItem.h **** 			serial.write(mask_, ptr, value);
 2403              		.loc 14 29 21 is_stmt 0 view .LVU671
 2404 0410 BD42     		cmp	r5, r7
 2405 0412 11DC     		bgt	.L16
 2406              	.LVL85:
 2407              	.LBB1407:
 2408              	.LBI1407:
  28:Src/Settings/serialItem.h **** 		if (value >= min_ && value <= max_) {
 2409              		.loc 14 28 14 is_stmt 1 view .LVU672
 2410              	.LBB1408:
 2411              		.loc 14 30 4 view .LVU673
 2412              		.loc 14 30 16 is_stmt 0 view .LVU674
 2413 0414 0869     		ldr	r0, [r1, #16]
 2414              	.LVL86:
 2415              	.LBB1409:
 2416              	.LBI1409:
  22:Src/Settings/serial.h **** 		uint32_t data = ptr[mask.reg];
 2417              		.loc 15 22 14 is_stmt 1 view .LVU675
 2418              	.LBB1410:
  23:Src/Settings/serial.h **** 		ptr[mask.reg] = (data & ~mask.value) | (value << mask.shifts);
 2419              		.loc 15 23 3 view .LVU676
  23:Src/Settings/serial.h **** 		ptr[mask.reg] = (data & ~mask.value) | (value << mask.shifts);
 2420              		.loc 15 23 31 is_stmt 0 view .LVU677
 2421 0416 90F800A0 		ldrb	r10, [r0]	@ zero_extendqisi2
 2422              		.loc 15 24 57 view .LVU678
 2423 041a 8778     		ldrb	r7, [r0, #2]	@ zero_extendqisi2
 2424              		.loc 15 24 27 view .LVU679
 2425 041c D0F804C0 		ldr	ip, [r0, #4]
  23:Src/Settings/serial.h **** 		ptr[mask.reg] = (data & ~mask.value) | (value << mask.shifts);
 2426              		.loc 15 23 31 view .LVU680
 2427 0420 9034     		adds	r4, r4, #144
 2428 0422 04EB8A09 		add	r9, r4, r10, lsl #2
 2429              	.LVL87:
 2430              		.loc 15 24 3 is_stmt 1 view .LVU681
 2431              		.loc 15 24 49 is_stmt 0 view .LVU682
 2432 0426 05FA07F4 		lsl	r4, r5, r7
 2433              		.loc 15 24 25 view .LVU683
 2434 042a 53F80950 		ldr	r5, [r3, r9]
 2435 042e 25EA0C00 		bic	r0, r5, ip
 2436              		.loc 15 24 40 view .LVU684
 2437 0432 0443     		orrs	r4, r4, r0
 2438              		.loc 15 24 17 view .LVU685
 2439 0434 43F80940 		str	r4, [r3, r9]
 2440              	.LVL88:
 2441              	.L16:
 2442              		.loc 15 24 17 view .LVU686
 2443              	.LBE1410:
 2444              	.LBE1409:
 2445              	.LBE1408:
 2446              	.LBE1407:
 2447              	.LBE1406:
ARM GAS  /var/folders/84/_x1cyy_j36g486tldtwl37280000gn/T//ccQg3xDo.s 			page 76


 2448              	.LBE1405:
 2449              	.LBE1423:
 187:Src/Settings/noteTrack.h **** 			write_random_min(pattern_index, StepItem(i), step_item_[i].min());
 2450              		.loc 9 187 3 is_stmt 1 view .LVU687
 187:Src/Settings/noteTrack.h **** 			write_random_min(pattern_index, StepItem(i), step_item_[i].min());
 2451              		.loc 9 187 21 view .LVU688
 188:Src/Settings/noteTrack.h **** 			write_random_max(pattern_index, StepItem(i), step_item_[i].max());
 2452              		.loc 9 188 20 is_stmt 0 view .LVU689
 2453 0438 8D69     		ldr	r5, [r1, #24]
 2454 043a 1BF806A0 		ldrb	r10, [fp, r6]	@ zero_extendqisi2
 2455              	.LBB1424:
 2456              	.LBB1392:
 2457              	.LBB1388:
  29:Src/Settings/serialItem.h **** 			serial.write(mask_, ptr, value);
 2458              		.loc 14 29 33 view .LVU690
 2459 043e CF69     		ldr	r7, [r1, #28]
 2460 0440 0AEB4A04 		add	r4, r10, r10, lsl #1
 2461 0444 CAEBC400 		rsb	r0, r10, r4, lsl #3
  29:Src/Settings/serialItem.h **** 			serial.write(mask_, ptr, value);
 2462              		.loc 14 29 21 view .LVU691
 2463 0448 BD42     		cmp	r5, r7
 2464 044a 01F11801 		add	r1, r1, #24
 2465              	.LBE1388:
 2466              	.LBE1392:
 2467              	.LBE1424:
 188:Src/Settings/noteTrack.h **** 			write_random_max(pattern_index, StepItem(i), step_item_[i].max());
 2468              		.loc 9 188 4 is_stmt 1 view .LVU692
 2469              	.LVL89:
 188:Src/Settings/noteTrack.h **** 			write_random_max(pattern_index, StepItem(i), step_item_[i].max());
 2470              		.loc 9 188 4 is_stmt 0 view .LVU693
 2471              	.LBE1437:
 2472              	.LBE1450:
 2473              	.LBE1463:
 2474              	.LBE1759:
 2475              	.LBE1820:
 2476              	.LBE1885:
 2477              	.LBE1940:
 2478              	.LBE1997:
 2479              	.LBE2064:
 2480              	.LBE2128:
 2481              	.LBE2296:
 2482              	.LBE2367:
  16:Src/Settings/serialItem.h **** 	constexpr int max() const { return max_; }
 2483              		.loc 14 16 30 is_stmt 1 view .LVU694
 2484              	.LBB2368:
 2485              	.LBB2297:
 2486              	.LBB2129:
 2487              	.LBB2065:
 2488              	.LBB1998:
 2489              	.LBB1941:
 2490              	.LBB1886:
 2491              	.LBB1821:
 2492              	.LBB1760:
 2493              	.LBB1464:
 2494              	.LBB1451:
 2495              	.LBB1438:
 2496              	.LBB1425:
ARM GAS  /var/folders/84/_x1cyy_j36g486tldtwl37280000gn/T//ccQg3xDo.s 			page 77


 2497              	.LBI1372:
 141:Src/Settings/noteTrack.h **** 		step_item_[item].write(BaseTrack::pattern.random_min(pattern_index), value);
 2498              		.loc 9 141 7 view .LVU695
 2499              	.LBE1425:
 2500              	.LBE1438:
 2501              	.LBE1451:
 2502              	.LBE1464:
 2503              	.LBE1760:
 2504              	.LBE1821:
 2505              	.LBE1886:
 2506              	.LBE1941:
 2507              	.LBE1998:
 2508              	.LBE2065:
 2509              	.LBE2129:
 2510              	.LBE2297:
 2511              	.LBE2368:
 142:Src/Settings/noteTrack.h **** 	}
 2512              		.loc 9 142 3 view .LVU696
 2513              	.LBB2369:
 2514              	.LBB2298:
 2515              	.LBB2130:
 2516              	.LBB2066:
 2517              	.LBB1999:
 2518              	.LBB1942:
 2519              	.LBB1887:
 2520              	.LBB1822:
 2521              	.LBB1761:
 2522              	.LBB1465:
 2523              	.LBB1452:
 2524              	.LBB1439:
 2525              	.LBB1426:
 2526              	.LBB1393:
 2527              	.LBI1393:
  25:Src/Settings/pattern.h **** 		return &data(index).random_min_.serial_[0];
 2528              		.loc 10 25 22 view .LVU697
 2529              	.LBE1393:
 2530              	.LBE1426:
 2531              	.LBE1439:
 2532              	.LBE1452:
 2533              	.LBE1465:
 2534              	.LBE1761:
 2535              	.LBE1822:
 2536              	.LBE1887:
 2537              	.LBE1942:
 2538              	.LBE1999:
 2539              	.LBE2066:
 2540              	.LBE2130:
 2541              	.LBE2298:
 2542              	.LBE2369:
  26:Src/Settings/pattern.h **** 	}
 2543              		.loc 10 26 3 view .LVU698
 2544              	.LBB2370:
 2545              	.LBB2299:
 2546              	.LBB2131:
 2547              	.LBB2067:
 2548              	.LBB2000:
 2549              	.LBB1943:
ARM GAS  /var/folders/84/_x1cyy_j36g486tldtwl37280000gn/T//ccQg3xDo.s 			page 78


 2550              	.LBB1888:
 2551              	.LBB1823:
 2552              	.LBB1762:
 2553              	.LBB1466:
 2554              	.LBB1453:
 2555              	.LBB1440:
 2556              	.LBB1427:
 2557              	.LBB1398:
 2558              	.LBB1394:
 2559              	.LBI1394:
  17:Src/Settings/pattern.h **** 		return TrackData::pattern_[list_->entry_[index]];
 2560              		.loc 10 17 32 view .LVU699
 2561              	.LBB1395:
  18:Src/Settings/pattern.h **** 	}
 2562              		.loc 10 18 3 view .LVU700
  18:Src/Settings/pattern.h **** 	}
 2563              		.loc 10 18 3 is_stmt 0 view .LVU701
 2564 044e 4FEAC004 		lsl	r4, r0, #3
 2565              	.LVL90:
  18:Src/Settings/pattern.h **** 	}
 2566              		.loc 10 18 3 view .LVU702
 2567              	.LBE1395:
 2568              	.LBE1394:
 2569              	.LBE1398:
 2570              	.LBB1399:
  28:Src/Settings/serialItem.h **** 		if (value >= min_ && value <= max_) {
 2571              		.loc 14 28 14 is_stmt 1 view .LVU703
 2572              	.LBB1389:
  29:Src/Settings/serialItem.h **** 			serial.write(mask_, ptr, value);
 2573              		.loc 14 29 3 view .LVU704
  29:Src/Settings/serialItem.h **** 			serial.write(mask_, ptr, value);
 2574              		.loc 14 29 21 is_stmt 0 view .LVU705
 2575 0452 19DC     		bgt	.L64
 2576              	.LBB1385:
  28:Src/Settings/serialItem.h **** 		if (value >= min_ && value <= max_) {
 2577              		.loc 14 28 14 is_stmt 1 view .LVU706
 2578              	.LBB1383:
 2579              		.loc 14 30 4 view .LVU707
 2580              		.loc 14 30 16 is_stmt 0 view .LVU708
 2581 0454 D1F810A0 		ldr	r10, [r1, #16]
 2582              	.LBB1381:
  22:Src/Settings/serial.h **** 		uint32_t data = ptr[mask.reg];
 2583              		.loc 15 22 14 is_stmt 1 view .LVU709
 2584              	.LBB1379:
  23:Src/Settings/serial.h **** 		ptr[mask.reg] = (data & ~mask.value) | (value << mask.shifts);
 2585              		.loc 15 23 3 view .LVU710
  23:Src/Settings/serial.h **** 		ptr[mask.reg] = (data & ~mask.value) | (value << mask.shifts);
 2586              		.loc 15 23 31 is_stmt 0 view .LVU711
 2587 0458 9AF80000 		ldrb	r0, [r10]	@ zero_extendqisi2
 2588              		.loc 15 24 27 view .LVU712
 2589 045c DAF80490 		ldr	r9, [r10, #4]
 2590              		.loc 15 24 57 view .LVU713
 2591 0460 9AF802A0 		ldrb	r10, [r10, #2]	@ zero_extendqisi2
  23:Src/Settings/serial.h **** 		ptr[mask.reg] = (data & ~mask.value) | (value << mask.shifts);
 2592              		.loc 15 23 31 view .LVU714
 2593 0464 8834     		adds	r4, r4, #136
 2594 0466 04EB8000 		add	r0, r4, r0, lsl #2
ARM GAS  /var/folders/84/_x1cyy_j36g486tldtwl37280000gn/T//ccQg3xDo.s 			page 79


 2595              		.loc 15 24 3 is_stmt 1 view .LVU715
 2596              		.loc 15 24 49 is_stmt 0 view .LVU716
 2597 046a 05FA0AFC 		lsl	ip, r5, r10
 2598              		.loc 15 24 25 view .LVU717
 2599 046e 1C58     		ldr	r4, [r3, r0]
 2600 0470 24EA0909 		bic	r9, r4, r9
 2601              		.loc 15 24 40 view .LVU718
 2602 0474 49EA0C04 		orr	r4, r9, ip
 2603              		.loc 15 24 17 view .LVU719
 2604 0478 1C50     		str	r4, [r3, r0]
 2605              		.loc 15 24 17 view .LVU720
 2606 047a 1BF806A0 		ldrb	r10, [fp, r6]	@ zero_extendqisi2
 2607 047e 0AEB4A00 		add	r0, r10, r10, lsl #1
 2608 0482 CAEBC004 		rsb	r4, r10, r0, lsl #3
 2609 0486 E400     		lsls	r4, r4, #3
 2610              	.L64:
 2611              	.LVL91:
 2612              		.loc 15 24 17 view .LVU721
 2613              	.LBE1379:
 2614              	.LBE1381:
 2615              	.LBE1383:
 2616              	.LBE1385:
 2617              	.LBE1389:
 2618              	.LBE1399:
 2619              	.LBE1427:
 2620              		.loc 9 189 4 is_stmt 1 view .LVU722
 2621              		.loc 9 189 20 is_stmt 0 view .LVU723
 2622 0488 D1F804C0 		ldr	ip, [r1, #4]
 2623              		.loc 9 189 20 view .LVU724
 2624              	.LBE1440:
 2625              	.LBE1453:
 2626              	.LBE1466:
 2627              	.LBE1762:
 2628              	.LBE1823:
 2629              	.LBE1888:
 2630              	.LBE1943:
 2631              	.LBE2000:
 2632              	.LBE2067:
 2633              	.LBE2131:
 2634              	.LBE2299:
 2635              	.LBE2370:
  17:Src/Settings/serialItem.h **** 	constexpr int init_value() const { return init_value_; }
 2636              		.loc 14 17 30 is_stmt 1 view .LVU725
 2637              	.LVL92:
 2638              	.LBB2371:
 2639              	.LBB2300:
 2640              	.LBB2132:
 2641              	.LBB2068:
 2642              	.LBB2001:
 2643              	.LBB1944:
 2644              	.LBB1889:
 2645              	.LBB1824:
 2646              	.LBB1763:
 2647              	.LBB1467:
 2648              	.LBB1454:
 2649              	.LBB1441:
 2650              	.LBB1428:
ARM GAS  /var/folders/84/_x1cyy_j36g486tldtwl37280000gn/T//ccQg3xDo.s 			page 80


 145:Src/Settings/noteTrack.h **** 		step_item_[item].write(BaseTrack::pattern.random_max(pattern_index), value);
 2651              		.loc 9 145 7 view .LVU726
 2652              	.LBE1428:
 2653              	.LBE1441:
 2654              	.LBE1454:
 2655              	.LBE1467:
 2656              	.LBE1763:
 2657              	.LBE1824:
 2658              	.LBE1889:
 2659              	.LBE1944:
 2660              	.LBE2001:
 2661              	.LBE2068:
 2662              	.LBE2132:
 2663              	.LBE2300:
 2664              	.LBE2371:
 146:Src/Settings/noteTrack.h **** 	}
 2665              		.loc 9 146 3 view .LVU727
  30:Src/Settings/pattern.h **** 	}
 2666              		.loc 10 30 3 view .LVU728
  18:Src/Settings/pattern.h **** 	}
 2667              		.loc 10 18 3 view .LVU729
 2668              	.LBB2372:
 2669              	.LBB2301:
 2670              	.LBB2133:
 2671              	.LBB2069:
 2672              	.LBB2002:
 2673              	.LBB1945:
 2674              	.LBB1890:
 2675              	.LBB1825:
 2676              	.LBB1764:
 2677              	.LBB1468:
 2678              	.LBB1455:
 2679              	.LBB1442:
 2680              	.LBB1429:
 2681              	.LBB1421:
  28:Src/Settings/serialItem.h **** 		if (value >= min_ && value <= max_) {
 2682              		.loc 14 28 14 view .LVU730
 2683              	.LBB1419:
  29:Src/Settings/serialItem.h **** 			serial.write(mask_, ptr, value);
 2684              		.loc 14 29 3 view .LVU731
 2685 048c 6545     		cmp	r5, ip
 2686 048e 16DC     		bgt	.L65
  29:Src/Settings/serialItem.h **** 			serial.write(mask_, ptr, value);
 2687              		.loc 14 29 21 is_stmt 0 view .LVU732
 2688 0490 BC45     		cmp	ip, r7
 2689 0492 14DC     		bgt	.L65
 2690              	.LBB1417:
  28:Src/Settings/serialItem.h **** 		if (value >= min_ && value <= max_) {
 2691              		.loc 14 28 14 is_stmt 1 view .LVU733
 2692              	.LBB1415:
 2693              		.loc 14 30 4 view .LVU734
 2694              		.loc 14 30 16 is_stmt 0 view .LVU735
 2695 0494 D1F81090 		ldr	r9, [r1, #16]
 2696              	.LBB1413:
  22:Src/Settings/serial.h **** 		uint32_t data = ptr[mask.reg];
 2697              		.loc 15 22 14 is_stmt 1 view .LVU736
 2698              	.LBB1411:
ARM GAS  /var/folders/84/_x1cyy_j36g486tldtwl37280000gn/T//ccQg3xDo.s 			page 81


  23:Src/Settings/serial.h **** 		ptr[mask.reg] = (data & ~mask.value) | (value << mask.shifts);
 2699              		.loc 15 23 3 view .LVU737
  23:Src/Settings/serial.h **** 		ptr[mask.reg] = (data & ~mask.value) | (value << mask.shifts);
 2700              		.loc 15 23 31 is_stmt 0 view .LVU738
 2701 0498 99F80050 		ldrb	r5, [r9]	@ zero_extendqisi2
 2702              		.loc 15 24 57 view .LVU739
 2703 049c 99F80200 		ldrb	r0, [r9, #2]	@ zero_extendqisi2
 2704              		.loc 15 24 27 view .LVU740
 2705 04a0 D9F80470 		ldr	r7, [r9, #4]
  23:Src/Settings/serial.h **** 		ptr[mask.reg] = (data & ~mask.value) | (value << mask.shifts);
 2706              		.loc 15 23 31 view .LVU741
 2707 04a4 9034     		adds	r4, r4, #144
 2708 04a6 04EB850A 		add	r10, r4, r5, lsl #2
 2709              		.loc 15 24 3 is_stmt 1 view .LVU742
 2710              		.loc 15 24 49 is_stmt 0 view .LVU743
 2711 04aa 0CFA00F5 		lsl	r5, ip, r0
 2712              		.loc 15 24 25 view .LVU744
 2713 04ae 53F80A40 		ldr	r4, [r3, r10]
 2714 04b2 24EA0707 		bic	r7, r4, r7
 2715              		.loc 15 24 40 view .LVU745
 2716 04b6 47EA0500 		orr	r0, r7, r5
 2717              		.loc 15 24 17 view .LVU746
 2718 04ba 43F80A00 		str	r0, [r3, r10]
 2719              	.L65:
 2720              	.LVL93:
 2721              		.loc 15 24 17 view .LVU747
 2722              	.LBE1411:
 2723              	.LBE1413:
 2724              	.LBE1415:
 2725              	.LBE1417:
 2726              	.LBE1419:
 2727              	.LBE1421:
 2728              	.LBE1429:
 187:Src/Settings/noteTrack.h **** 			write_random_min(pattern_index, StepItem(i), step_item_[i].min());
 2729              		.loc 9 187 3 is_stmt 1 view .LVU748
 187:Src/Settings/noteTrack.h **** 			write_random_min(pattern_index, StepItem(i), step_item_[i].min());
 2730              		.loc 9 187 21 view .LVU749
 2731 04be 1BF806A0 		ldrb	r10, [fp, r6]	@ zero_extendqisi2
 188:Src/Settings/noteTrack.h **** 			write_random_max(pattern_index, StepItem(i), step_item_[i].max());
 2732              		.loc 9 188 20 is_stmt 0 view .LVU750
 2733 04c2 8C69     		ldr	r4, [r1, #24]
 2734              	.LBB1430:
 2735              	.LBB1400:
 2736              	.LBB1390:
  29:Src/Settings/serialItem.h **** 			serial.write(mask_, ptr, value);
 2737              		.loc 14 29 33 view .LVU751
 2738 04c4 D1F81CC0 		ldr	ip, [r1, #28]
 2739 04c8 0AEB4A05 		add	r5, r10, r10, lsl #1
 2740 04cc CAEBC500 		rsb	r0, r10, r5, lsl #3
  29:Src/Settings/serialItem.h **** 			serial.write(mask_, ptr, value);
 2741              		.loc 14 29 21 view .LVU752
 2742 04d0 6445     		cmp	r4, ip
 2743 04d2 01F11807 		add	r7, r1, #24
 2744              	.LBE1390:
 2745              	.LBE1400:
 2746              	.LBE1430:
 188:Src/Settings/noteTrack.h **** 			write_random_max(pattern_index, StepItem(i), step_item_[i].max());
ARM GAS  /var/folders/84/_x1cyy_j36g486tldtwl37280000gn/T//ccQg3xDo.s 			page 82


 2747              		.loc 9 188 4 is_stmt 1 view .LVU753
 188:Src/Settings/noteTrack.h **** 			write_random_max(pattern_index, StepItem(i), step_item_[i].max());
 2748              		.loc 9 188 4 is_stmt 0 view .LVU754
 2749              	.LBE1442:
 2750              	.LBE1455:
 2751              	.LBE1468:
 2752              	.LBE1764:
 2753              	.LBE1825:
 2754              	.LBE1890:
 2755              	.LBE1945:
 2756              	.LBE2002:
 2757              	.LBE2069:
 2758              	.LBE2133:
 2759              	.LBE2301:
 2760              	.LBE2372:
  16:Src/Settings/serialItem.h **** 	constexpr int max() const { return max_; }
 2761              		.loc 14 16 30 is_stmt 1 view .LVU755
 2762              	.LVL94:
 2763              	.LBB2373:
 2764              	.LBB2302:
 2765              	.LBB2134:
 2766              	.LBB2070:
 2767              	.LBB2003:
 2768              	.LBB1946:
 2769              	.LBB1891:
 2770              	.LBB1826:
 2771              	.LBB1765:
 2772              	.LBB1469:
 2773              	.LBB1456:
 2774              	.LBB1443:
 2775              	.LBB1431:
 141:Src/Settings/noteTrack.h **** 		step_item_[item].write(BaseTrack::pattern.random_min(pattern_index), value);
 2776              		.loc 9 141 7 view .LVU756
 2777              	.LBE1431:
 2778              	.LBE1443:
 2779              	.LBE1456:
 2780              	.LBE1469:
 2781              	.LBE1765:
 2782              	.LBE1826:
 2783              	.LBE1891:
 2784              	.LBE1946:
 2785              	.LBE2003:
 2786              	.LBE2070:
 2787              	.LBE2134:
 2788              	.LBE2302:
 2789              	.LBE2373:
 142:Src/Settings/noteTrack.h **** 	}
 2790              		.loc 9 142 3 view .LVU757
 2791              	.LBB2374:
 2792              	.LBB2303:
 2793              	.LBB2135:
 2794              	.LBB2071:
 2795              	.LBB2004:
 2796              	.LBB1947:
 2797              	.LBB1892:
 2798              	.LBB1827:
 2799              	.LBB1766:
ARM GAS  /var/folders/84/_x1cyy_j36g486tldtwl37280000gn/T//ccQg3xDo.s 			page 83


 2800              	.LBB1470:
 2801              	.LBB1457:
 2802              	.LBB1444:
 2803              	.LBB1432:
 2804              	.LBB1401:
  25:Src/Settings/pattern.h **** 		return &data(index).random_min_.serial_[0];
 2805              		.loc 10 25 22 view .LVU758
 2806              	.LBE1401:
 2807              	.LBE1432:
 2808              	.LBE1444:
 2809              	.LBE1457:
 2810              	.LBE1470:
 2811              	.LBE1766:
 2812              	.LBE1827:
 2813              	.LBE1892:
 2814              	.LBE1947:
 2815              	.LBE2004:
 2816              	.LBE2071:
 2817              	.LBE2135:
 2818              	.LBE2303:
 2819              	.LBE2374:
  26:Src/Settings/pattern.h **** 	}
 2820              		.loc 10 26 3 view .LVU759
 2821              	.LBB2375:
 2822              	.LBB2304:
 2823              	.LBB2136:
 2824              	.LBB2072:
 2825              	.LBB2005:
 2826              	.LBB1948:
 2827              	.LBB1893:
 2828              	.LBB1828:
 2829              	.LBB1767:
 2830              	.LBB1471:
 2831              	.LBB1458:
 2832              	.LBB1445:
 2833              	.LBB1433:
 2834              	.LBB1402:
 2835              	.LBB1397:
  17:Src/Settings/pattern.h **** 		return TrackData::pattern_[list_->entry_[index]];
 2836              		.loc 10 17 32 view .LVU760
 2837              	.LBB1396:
  18:Src/Settings/pattern.h **** 	}
 2838              		.loc 10 18 3 view .LVU761
  18:Src/Settings/pattern.h **** 	}
 2839              		.loc 10 18 3 is_stmt 0 view .LVU762
 2840 04d6 4FEAC005 		lsl	r5, r0, #3
 2841              	.LVL95:
  18:Src/Settings/pattern.h **** 	}
 2842              		.loc 10 18 3 view .LVU763
 2843              	.LBE1396:
 2844              	.LBE1397:
 2845              	.LBE1402:
 2846              	.LBB1403:
  28:Src/Settings/serialItem.h **** 		if (value >= min_ && value <= max_) {
 2847              		.loc 14 28 14 is_stmt 1 view .LVU764
 2848              	.LBB1391:
  29:Src/Settings/serialItem.h **** 			serial.write(mask_, ptr, value);
ARM GAS  /var/folders/84/_x1cyy_j36g486tldtwl37280000gn/T//ccQg3xDo.s 			page 84


 2849              		.loc 14 29 3 view .LVU765
  29:Src/Settings/serialItem.h **** 			serial.write(mask_, ptr, value);
 2850              		.loc 14 29 21 is_stmt 0 view .LVU766
 2851 04da 1DDC     		bgt	.L67
 2852              	.LBB1386:
  28:Src/Settings/serialItem.h **** 		if (value >= min_ && value <= max_) {
 2853              		.loc 14 28 14 is_stmt 1 view .LVU767
 2854              	.LBB1384:
 2855              		.loc 14 30 4 view .LVU768
 2856              		.loc 14 30 16 is_stmt 0 view .LVU769
 2857 04dc D7F810A0 		ldr	r10, [r7, #16]
 2858              	.LBB1382:
  22:Src/Settings/serial.h **** 		uint32_t data = ptr[mask.reg];
 2859              		.loc 15 22 14 is_stmt 1 view .LVU770
 2860              	.LBB1380:
  23:Src/Settings/serial.h **** 		ptr[mask.reg] = (data & ~mask.value) | (value << mask.shifts);
 2861              		.loc 15 23 3 view .LVU771
  23:Src/Settings/serial.h **** 		ptr[mask.reg] = (data & ~mask.value) | (value << mask.shifts);
 2862              		.loc 15 23 31 is_stmt 0 view .LVU772
 2863 04e0 9AF80090 		ldrb	r9, [r10]	@ zero_extendqisi2
 2864              		.loc 15 24 27 view .LVU773
 2865 04e4 DAF80400 		ldr	r0, [r10, #4]
 2866 04e8 0090     		str	r0, [sp]
  23:Src/Settings/serial.h **** 		ptr[mask.reg] = (data & ~mask.value) | (value << mask.shifts);
 2867              		.loc 15 23 31 view .LVU774
 2868 04ea 8835     		adds	r5, r5, #136
 2869 04ec 05EB8905 		add	r5, r5, r9, lsl #2
 2870              		.loc 15 24 3 is_stmt 1 view .LVU775
 2871              		.loc 15 24 57 is_stmt 0 view .LVU776
 2872 04f0 9AF80200 		ldrb	r0, [r10, #2]	@ zero_extendqisi2
 2873              		.loc 15 24 49 view .LVU777
 2874 04f4 04FA00FA 		lsl	r10, r4, r0
 2875              		.loc 15 24 25 view .LVU778
 2876 04f8 5859     		ldr	r0, [r3, r5]
 2877 04fa 8146     		mov	r9, r0
 2878 04fc 0098     		ldr	r0, [sp]
 2879 04fe 29EA0000 		bic	r0, r9, r0
 2880              		.loc 15 24 40 view .LVU779
 2881 0502 40EA0A0A 		orr	r10, r0, r10
 2882              		.loc 15 24 17 view .LVU780
 2883 0506 43F805A0 		str	r10, [r3, r5]
 2884              		.loc 15 24 17 view .LVU781
 2885 050a 1BF80650 		ldrb	r5, [fp, r6]	@ zero_extendqisi2
 2886 050e 05EB4500 		add	r0, r5, r5, lsl #1
 2887 0512 C5EBC005 		rsb	r5, r5, r0, lsl #3
 2888 0516 ED00     		lsls	r5, r5, #3
 2889              	.L67:
 2890              	.LVL96:
 2891              		.loc 15 24 17 view .LVU782
 2892              	.LBE1380:
 2893              	.LBE1382:
 2894              	.LBE1384:
 2895              	.LBE1386:
 2896              	.LBE1391:
 2897              	.LBE1403:
 2898              	.LBE1433:
 2899              		.loc 9 189 4 is_stmt 1 view .LVU783
ARM GAS  /var/folders/84/_x1cyy_j36g486tldtwl37280000gn/T//ccQg3xDo.s 			page 85


 2900              		.loc 9 189 20 is_stmt 0 view .LVU784
 2901 0518 D7F80490 		ldr	r9, [r7, #4]
 2902              		.loc 9 189 20 view .LVU785
 2903              	.LBE1445:
 2904              	.LBE1458:
 2905              	.LBE1471:
 2906              	.LBE1767:
 2907              	.LBE1828:
 2908              	.LBE1893:
 2909              	.LBE1948:
 2910              	.LBE2005:
 2911              	.LBE2072:
 2912              	.LBE2136:
 2913              	.LBE2304:
 2914              	.LBE2375:
  17:Src/Settings/serialItem.h **** 	constexpr int init_value() const { return init_value_; }
 2915              		.loc 14 17 30 is_stmt 1 view .LVU786
 2916              	.LVL97:
 2917              	.LBB2376:
 2918              	.LBB2305:
 2919              	.LBB2137:
 2920              	.LBB2073:
 2921              	.LBB2006:
 2922              	.LBB1949:
 2923              	.LBB1894:
 2924              	.LBB1829:
 2925              	.LBB1768:
 2926              	.LBB1472:
 2927              	.LBB1459:
 2928              	.LBB1446:
 2929              	.LBB1434:
 145:Src/Settings/noteTrack.h **** 		step_item_[item].write(BaseTrack::pattern.random_max(pattern_index), value);
 2930              		.loc 9 145 7 view .LVU787
 2931              	.LBE1434:
 2932              	.LBE1446:
 2933              	.LBE1459:
 2934              	.LBE1472:
 2935              	.LBE1768:
 2936              	.LBE1829:
 2937              	.LBE1894:
 2938              	.LBE1949:
 2939              	.LBE2006:
 2940              	.LBE2073:
 2941              	.LBE2137:
 2942              	.LBE2305:
 2943              	.LBE2376:
 146:Src/Settings/noteTrack.h **** 	}
 2944              		.loc 9 146 3 view .LVU788
  30:Src/Settings/pattern.h **** 	}
 2945              		.loc 10 30 3 view .LVU789
  18:Src/Settings/pattern.h **** 	}
 2946              		.loc 10 18 3 view .LVU790
 2947              	.LBB2377:
 2948              	.LBB2306:
 2949              	.LBB2138:
 2950              	.LBB2074:
 2951              	.LBB2007:
ARM GAS  /var/folders/84/_x1cyy_j36g486tldtwl37280000gn/T//ccQg3xDo.s 			page 86


 2952              	.LBB1950:
 2953              	.LBB1895:
 2954              	.LBB1830:
 2955              	.LBB1769:
 2956              	.LBB1473:
 2957              	.LBB1460:
 2958              	.LBB1447:
 2959              	.LBB1435:
 2960              	.LBB1422:
  28:Src/Settings/serialItem.h **** 		if (value >= min_ && value <= max_) {
 2961              		.loc 14 28 14 view .LVU791
 2962              	.LBB1420:
  29:Src/Settings/serialItem.h **** 			serial.write(mask_, ptr, value);
 2963              		.loc 14 29 3 view .LVU792
 2964 051c 4C45     		cmp	r4, r9
 2965 051e 12DC     		bgt	.L68
  29:Src/Settings/serialItem.h **** 			serial.write(mask_, ptr, value);
 2966              		.loc 14 29 21 is_stmt 0 view .LVU793
 2967 0520 E145     		cmp	r9, ip
 2968 0522 10DC     		bgt	.L68
 2969              	.LBB1418:
  28:Src/Settings/serialItem.h **** 		if (value >= min_ && value <= max_) {
 2970              		.loc 14 28 14 is_stmt 1 view .LVU794
 2971              	.LBB1416:
 2972              		.loc 14 30 4 view .LVU795
 2973              		.loc 14 30 16 is_stmt 0 view .LVU796
 2974 0524 3C69     		ldr	r4, [r7, #16]
 2975              	.LBB1414:
  22:Src/Settings/serial.h **** 		uint32_t data = ptr[mask.reg];
 2976              		.loc 15 22 14 is_stmt 1 view .LVU797
 2977              	.LBB1412:
  23:Src/Settings/serial.h **** 		ptr[mask.reg] = (data & ~mask.value) | (value << mask.shifts);
 2978              		.loc 15 23 3 view .LVU798
  23:Src/Settings/serial.h **** 		ptr[mask.reg] = (data & ~mask.value) | (value << mask.shifts);
 2979              		.loc 15 23 31 is_stmt 0 view .LVU799
 2980 0526 2778     		ldrb	r7, [r4]	@ zero_extendqisi2
 2981              		.loc 15 24 27 view .LVU800
 2982 0528 D4F804C0 		ldr	ip, [r4, #4]
 2983              		.loc 15 24 57 view .LVU801
 2984 052c A078     		ldrb	r0, [r4, #2]	@ zero_extendqisi2
  23:Src/Settings/serial.h **** 		ptr[mask.reg] = (data & ~mask.value) | (value << mask.shifts);
 2985              		.loc 15 23 31 view .LVU802
 2986 052e 9035     		adds	r5, r5, #144
 2987 0530 05EB870A 		add	r10, r5, r7, lsl #2
 2988              		.loc 15 24 3 is_stmt 1 view .LVU803
 2989              		.loc 15 24 49 is_stmt 0 view .LVU804
 2990 0534 09FA00F5 		lsl	r5, r9, r0
 2991              		.loc 15 24 25 view .LVU805
 2992 0538 53F80A40 		ldr	r4, [r3, r10]
 2993 053c 24EA0C07 		bic	r7, r4, ip
 2994              		.loc 15 24 40 view .LVU806
 2995 0540 3D43     		orrs	r5, r5, r7
 2996              		.loc 15 24 17 view .LVU807
 2997 0542 43F80A50 		str	r5, [r3, r10]
 2998              	.L68:
 2999              	.LVL98:
 3000              		.loc 15 24 17 view .LVU808
ARM GAS  /var/folders/84/_x1cyy_j36g486tldtwl37280000gn/T//ccQg3xDo.s 			page 87


 3001              	.LBE1412:
 3002              	.LBE1414:
 3003              	.LBE1416:
 3004              	.LBE1418:
 3005              	.LBE1420:
 3006              	.LBE1422:
 3007              	.LBE1435:
 187:Src/Settings/noteTrack.h **** 			write_random_min(pattern_index, StepItem(i), step_item_[i].min());
 3008              		.loc 9 187 3 is_stmt 1 view .LVU809
 187:Src/Settings/noteTrack.h **** 			write_random_min(pattern_index, StepItem(i), step_item_[i].min());
 3009              		.loc 9 187 21 view .LVU810
 187:Src/Settings/noteTrack.h **** 			write_random_min(pattern_index, StepItem(i), step_item_[i].min());
 3010              		.loc 9 187 21 is_stmt 0 view .LVU811
 3011 0546 3548     		ldr	r0, .L95+8
 3012 0548 3031     		adds	r1, r1, #48
 3013              	.LVL99:
 187:Src/Settings/noteTrack.h **** 			write_random_min(pattern_index, StepItem(i), step_item_[i].min());
 3014              		.loc 9 187 21 view .LVU812
 3015 054a 8842     		cmp	r0, r1
 3016 054c 7FF438AF 		bne	.L17
 3017              	.LBE1447:
 3018              	.LBE1460:
 3019              	.LBE1473:
 3020              	.LBB1474:
 3021              	.LBB1475:
 3022              	.LBB1476:
 181:Src/Settings/noteTrack.h **** 		}
 3023              		.loc 9 181 14 view .LVU813
 3024 0550 3148     		ldr	r0, .L95+4
 3025 0552 019D     		ldr	r5, [sp, #4]
 3026 0554 C168     		ldr	r1, [r0, #12]
 3027              	.LVL100:
 3028              	.LBB1477:
 3029              	.LBB1478:
 3030              	.LBB1479:
  29:Src/Settings/serialItem.h **** 			serial.write(mask_, ptr, value);
 3031              		.loc 14 29 33 view .LVU814
 3032 0556 4768     		ldr	r7, [r0, #4]
 3033              	.LBE1479:
 3034              	.LBE1478:
 3035              	.LBE1477:
 181:Src/Settings/noteTrack.h **** 		}
 3036              		.loc 9 181 14 view .LVU815
 3037 0558 0091     		str	r1, [sp]
 3038              	.LBB1626:
 3039              	.LBB1569:
 3040              	.LBB1548:
  29:Src/Settings/serialItem.h **** 			serial.write(mask_, ptr, value);
 3041              		.loc 14 29 33 view .LVU816
 3042 055a 0F97     		str	r7, [sp, #60]
 3043              	.LBB1480:
 3044              	.LBB1481:
 3045              		.loc 14 30 16 view .LVU817
 3046 055c 0169     		ldr	r1, [r0, #16]
 3047              	.LBE1481:
 3048              	.LBE1480:
  29:Src/Settings/serialItem.h **** 			serial.write(mask_, ptr, value);
ARM GAS  /var/folders/84/_x1cyy_j36g486tldtwl37280000gn/T//ccQg3xDo.s 			page 88


 3049              		.loc 14 29 16 view .LVU818
 3050 055e 8769     		ldr	r7, [r0, #24]
 3051              	.LBB1524:
 3052              	.LBB1500:
 3053              		.loc 14 30 16 view .LVU819
 3054 0560 1991     		str	r1, [sp, #100]
 3055              	.LBE1500:
 3056              	.LBE1524:
  29:Src/Settings/serialItem.h **** 			serial.write(mask_, ptr, value);
 3057              		.loc 14 29 16 view .LVU820
 3058 0562 0797     		str	r7, [sp, #28]
  29:Src/Settings/serialItem.h **** 			serial.write(mask_, ptr, value);
 3059              		.loc 14 29 33 view .LVU821
 3060 0564 C169     		ldr	r1, [r0, #28]
  29:Src/Settings/serialItem.h **** 			serial.write(mask_, ptr, value);
 3061              		.loc 14 29 16 view .LVU822
 3062 0566 076B     		ldr	r7, [r0, #48]
 3063 0568 0668     		ldr	r6, [r0]
  29:Src/Settings/serialItem.h **** 			serial.write(mask_, ptr, value);
 3064              		.loc 14 29 33 view .LVU823
 3065 056a 1191     		str	r1, [sp, #68]
  29:Src/Settings/serialItem.h **** 			serial.write(mask_, ptr, value);
 3066              		.loc 14 29 16 view .LVU824
 3067 056c 0897     		str	r7, [sp, #32]
  29:Src/Settings/serialItem.h **** 			serial.write(mask_, ptr, value);
 3068              		.loc 14 29 33 view .LVU825
 3069 056e 416B     		ldr	r1, [r0, #52]
 3070              	.LBB1525:
 3071              	.LBB1501:
 3072              		.loc 14 30 16 view .LVU826
 3073 0570 076C     		ldr	r7, [r0, #64]
 3074              	.LBE1501:
 3075              	.LBE1525:
  29:Src/Settings/serialItem.h **** 			serial.write(mask_, ptr, value);
 3076              		.loc 14 29 16 view .LVU827
 3077 0572 0496     		str	r6, [sp, #16]
  29:Src/Settings/serialItem.h **** 			serial.write(mask_, ptr, value);
 3078              		.loc 14 29 33 view .LVU828
 3079 0574 1291     		str	r1, [sp, #72]
 3080              	.LBE1548:
 3081              	.LBE1569:
 3082              	.LBE1626:
 181:Src/Settings/noteTrack.h **** 		}
 3083              		.loc 9 181 14 view .LVU829
 3084 0576 466A     		ldr	r6, [r0, #36]
 3085 0578 416D     		ldr	r1, [r0, #84]
 3086              	.LBB1627:
 3087              	.LBB1570:
 3088              	.LBB1549:
 3089              	.LBB1526:
 3090              	.LBB1502:
 3091              		.loc 14 30 16 view .LVU830
 3092 057a 1B97     		str	r7, [sp, #108]
 3093              	.LBE1502:
 3094              	.LBE1526:
  29:Src/Settings/serialItem.h **** 			serial.write(mask_, ptr, value);
 3095              		.loc 14 29 16 view .LVU831
ARM GAS  /var/folders/84/_x1cyy_j36g486tldtwl37280000gn/T//ccQg3xDo.s 			page 89


 3096 057c 876C     		ldr	r7, [r0, #72]
 3097              	.LBE1549:
 3098              	.LBE1570:
 3099              	.LBE1627:
 181:Src/Settings/noteTrack.h **** 		}
 3100              		.loc 9 181 14 view .LVU832
 3101 057e 0696     		str	r6, [sp, #24]
 3102 0580 2191     		str	r1, [sp, #132]
 3103              	.LBB1628:
 3104              	.LBB1571:
 3105              	.LBB1550:
 3106              	.LBB1527:
 3107              	.LBB1503:
 3108              		.loc 14 30 16 view .LVU833
 3109 0582 866A     		ldr	r6, [r0, #40]
 3110              	.LBE1503:
 3111              	.LBE1527:
  29:Src/Settings/serialItem.h **** 			serial.write(mask_, ptr, value);
 3112              		.loc 14 29 33 view .LVU834
 3113 0584 C16C     		ldr	r1, [r0, #76]
  29:Src/Settings/serialItem.h **** 			serial.write(mask_, ptr, value);
 3114              		.loc 14 29 16 view .LVU835
 3115 0586 0997     		str	r7, [sp, #36]
 3116              	.LBB1528:
 3117              	.LBB1504:
 3118              		.loc 14 30 16 view .LVU836
 3119 0588 876D     		ldr	r7, [r0, #88]
 3120 058a 0E96     		str	r6, [sp, #56]
 3121 058c 1C97     		str	r7, [sp, #112]
 3122              	.LBE1504:
 3123              	.LBE1528:
 3124              	.LBE1550:
 3125              	.LBE1571:
 3126              	.LBE1628:
 181:Src/Settings/noteTrack.h **** 		}
 3127              		.loc 9 181 14 view .LVU837
 3128 058e C66B     		ldr	r6, [r0, #60]
 3129              	.LBB1629:
 3130              	.LBB1572:
 3131              	.LBB1551:
  29:Src/Settings/serialItem.h **** 			serial.write(mask_, ptr, value);
 3132              		.loc 14 29 33 view .LVU838
 3133 0590 1391     		str	r1, [sp, #76]
 3134              	.LBE1551:
 3135              	.LBE1572:
 3136              	.LBE1629:
 181:Src/Settings/noteTrack.h **** 		}
 3137              		.loc 9 181 14 view .LVU839
 3138 0592 C16E     		ldr	r1, [r0, #108]
 3139 0594 0191     		str	r1, [sp, #4]
 3140              	.LVL101:
 3141              	.LBB1630:
 3142              	.LBB1573:
 3143              	.LBB1552:
  29:Src/Settings/serialItem.h **** 			serial.write(mask_, ptr, value);
 3144              		.loc 14 29 16 view .LVU840
 3145 0596 076E     		ldr	r7, [r0, #96]
ARM GAS  /var/folders/84/_x1cyy_j36g486tldtwl37280000gn/T//ccQg3xDo.s 			page 90


  29:Src/Settings/serialItem.h **** 			serial.write(mask_, ptr, value);
 3146              		.loc 14 29 33 view .LVU841
 3147 0598 416E     		ldr	r1, [r0, #100]
  29:Src/Settings/serialItem.h **** 			serial.write(mask_, ptr, value);
 3148              		.loc 14 29 16 view .LVU842
 3149 059a 0A97     		str	r7, [sp, #40]
  29:Src/Settings/serialItem.h **** 			serial.write(mask_, ptr, value);
 3150              		.loc 14 29 33 view .LVU843
 3151 059c 1491     		str	r1, [sp, #80]
 3152              	.LBB1529:
 3153              	.LBB1505:
 3154              		.loc 14 30 16 view .LVU844
 3155 059e 076F     		ldr	r7, [r0, #112]
 3156              	.LBE1505:
 3157              	.LBE1529:
 3158              	.LBE1552:
 3159              	.LBE1573:
 3160              	.LBE1630:
 181:Src/Settings/noteTrack.h **** 		}
 3161              		.loc 9 181 14 view .LVU845
 3162 05a0 D0F88410 		ldr	r1, [r0, #132]
 3163              	.LBB1631:
 3164              	.LBB1574:
 3165              	.LBB1553:
 3166              	.LBB1530:
 3167              	.LBB1506:
 3168              		.loc 14 30 16 view .LVU846
 3169 05a4 1D97     		str	r7, [sp, #116]
 3170              	.LBE1506:
 3171              	.LBE1530:
 3172              	.LBE1553:
 3173              	.LBE1574:
 3174              	.LBE1631:
 181:Src/Settings/noteTrack.h **** 		}
 3175              		.loc 9 181 14 view .LVU847
 3176 05a6 0291     		str	r1, [sp, #8]
 3177              	.LBB1632:
 3178              	.LBB1575:
 3179              	.LBB1554:
  29:Src/Settings/serialItem.h **** 			serial.write(mask_, ptr, value);
 3180              		.loc 14 29 16 view .LVU848
 3181 05a8 876F     		ldr	r7, [r0, #120]
  29:Src/Settings/serialItem.h **** 			serial.write(mask_, ptr, value);
 3182              		.loc 14 29 33 view .LVU849
 3183 05aa C16F     		ldr	r1, [r0, #124]
  29:Src/Settings/serialItem.h **** 			serial.write(mask_, ptr, value);
 3184              		.loc 14 29 16 view .LVU850
 3185 05ac 0B97     		str	r7, [sp, #44]
  29:Src/Settings/serialItem.h **** 			serial.write(mask_, ptr, value);
 3186              		.loc 14 29 33 view .LVU851
 3187 05ae 1591     		str	r1, [sp, #84]
 3188              	.LBB1531:
 3189              	.LBB1507:
 3190              		.loc 14 30 16 view .LVU852
 3191 05b0 D0F88870 		ldr	r7, [r0, #136]
 3192              	.LBE1507:
 3193              	.LBE1531:
ARM GAS  /var/folders/84/_x1cyy_j36g486tldtwl37280000gn/T//ccQg3xDo.s 			page 91


  29:Src/Settings/serialItem.h **** 			serial.write(mask_, ptr, value);
 3194              		.loc 14 29 16 view .LVU853
 3195 05b4 D0F89010 		ldr	r1, [r0, #144]
 3196              	.LBB1532:
 3197              	.LBB1508:
 3198              		.loc 14 30 16 view .LVU854
 3199 05b8 1E97     		str	r7, [sp, #120]
 3200              	.LBE1508:
 3201              	.LBE1532:
  29:Src/Settings/serialItem.h **** 			serial.write(mask_, ptr, value);
 3202              		.loc 14 29 16 view .LVU855
 3203 05ba 0C91     		str	r1, [sp, #48]
  29:Src/Settings/serialItem.h **** 			serial.write(mask_, ptr, value);
 3204              		.loc 14 29 33 view .LVU856
 3205 05bc D0F89470 		ldr	r7, [r0, #148]
 3206              	.LBB1533:
 3207              	.LBB1509:
 3208              		.loc 14 30 16 view .LVU857
 3209 05c0 D0F8A010 		ldr	r1, [r0, #160]
 3210              	.LBE1509:
 3211              	.LBE1533:
  29:Src/Settings/serialItem.h **** 			serial.write(mask_, ptr, value);
 3212              		.loc 14 29 33 view .LVU858
 3213 05c4 1697     		str	r7, [sp, #88]
 3214              	.LBB1534:
 3215              	.LBB1510:
 3216              		.loc 14 30 16 view .LVU859
 3217 05c6 1F91     		str	r1, [sp, #124]
 3218              	.LBE1510:
 3219              	.LBE1534:
  29:Src/Settings/serialItem.h **** 			serial.write(mask_, ptr, value);
 3220              		.loc 14 29 16 view .LVU860
 3221 05c8 D0F8A870 		ldr	r7, [r0, #168]
  29:Src/Settings/serialItem.h **** 			serial.write(mask_, ptr, value);
 3222              		.loc 14 29 33 view .LVU861
 3223 05cc D0F8AC10 		ldr	r1, [r0, #172]
  29:Src/Settings/serialItem.h **** 			serial.write(mask_, ptr, value);
 3224              		.loc 14 29 16 view .LVU862
 3225 05d0 0D97     		str	r7, [sp, #52]
  29:Src/Settings/serialItem.h **** 			serial.write(mask_, ptr, value);
 3226              		.loc 14 29 33 view .LVU863
 3227 05d2 1791     		str	r1, [sp, #92]
 3228              	.LBB1535:
 3229              	.LBB1511:
 3230              		.loc 14 30 16 view .LVU864
 3231 05d4 D0F8B870 		ldr	r7, [r0, #184]
 3232              	.LBE1511:
 3233              	.LBE1535:
  29:Src/Settings/serialItem.h **** 			serial.write(mask_, ptr, value);
 3234              		.loc 14 29 16 view .LVU865
 3235 05d8 D0F8C010 		ldr	r1, [r0, #192]
 3236              	.LBE1554:
 3237              	.LBE1575:
 3238              	.LBE1632:
 181:Src/Settings/noteTrack.h **** 		}
 3239              		.loc 9 181 14 view .LVU866
 3240 05dc D0F8B4C0 		ldr	ip, [r0, #180]
ARM GAS  /var/folders/84/_x1cyy_j36g486tldtwl37280000gn/T//ccQg3xDo.s 			page 92


 3241              	.LBB1633:
 3242              	.LBB1576:
 3243              	.LBB1555:
 3244              	.LBB1536:
 3245              	.LBB1512:
 3246              		.loc 14 30 16 view .LVU867
 3247 05e0 2097     		str	r7, [sp, #128]
 3248 05e2 7446     		mov	r4, lr
 3249              	.LBE1512:
 3250              	.LBE1536:
 3251              	.LBE1555:
 3252              	.LBE1576:
 3253              	.LBE1633:
 181:Src/Settings/noteTrack.h **** 		}
 3254              		.loc 9 181 14 view .LVU868
 3255 05e4 D0F8CC70 		ldr	r7, [r0, #204]
 3256 05e8 D0F89CE0 		ldr	lr, [r0, #156]
 3257              	.LVL102:
 3258              	.LBB1634:
 3259              	.LBB1577:
 3260              	.LBB1556:
  29:Src/Settings/serialItem.h **** 			serial.write(mask_, ptr, value);
 3261              		.loc 14 29 16 view .LVU869
 3262 05ec 0591     		str	r1, [sp, #20]
 3263              	.LBE1556:
 3264              	.LBE1577:
 3265              	.LBE1634:
 3266              	.LBE1476:
 3267              	.LBE1475:
 168:Src/Settings/noteTrack.h **** 			clear_step(pattern_index, i);
 3268              		.loc 9 168 12 view .LVU870
 3269 05ee 07EE902A 		vmov	s15, r2	@ int
 3270              	.LBB1696:
 3271              	.LBB1665:
 3272              	.LBB1635:
 3273              	.LBB1578:
 3274              	.LBB1557:
  29:Src/Settings/serialItem.h **** 			serial.write(mask_, ptr, value);
 3275              		.loc 14 29 33 view .LVU871
 3276 05f2 D0F8C410 		ldr	r1, [r0, #196]
 3277              	.LBE1557:
 3278              	.LBE1578:
 3279              	.LBE1635:
 3280              	.LBE1665:
 3281              	.LBE1696:
 168:Src/Settings/noteTrack.h **** 			clear_step(pattern_index, i);
 3282              		.loc 9 168 12 view .LVU872
 3283 05f6 CDF88C80 		str	r8, [sp, #140]
 3284              	.LBB1697:
 3285              	.LBB1666:
 3286              	.LBB1636:
 3287              	.LBB1579:
 3288              	.LBB1558:
 3289              	.LBB1537:
 3290              	.LBB1513:
 3291              		.loc 14 30 16 view .LVU873
 3292 05fa D0F8D000 		ldr	r0, [r0, #208]
ARM GAS  /var/folders/84/_x1cyy_j36g486tldtwl37280000gn/T//ccQg3xDo.s 			page 93


 3293              	.LBE1513:
 3294              	.LBE1537:
 3295              	.LBE1558:
 3296              	.LBE1579:
 3297              	.LBE1636:
 3298              	.LBE1666:
 3299              	.LBE1697:
 168:Src/Settings/noteTrack.h **** 			clear_step(pattern_index, i);
 3300              		.loc 9 168 12 view .LVU874
 3301 05fe DDF88480 		ldr	r8, [sp, #132]
 3302              	.LVL103:
 3303              	.LBB1698:
 3304              	.LBB1667:
 3305              	.LBB1637:
 3306              	.LBB1580:
 3307              	.LBB1559:
  29:Src/Settings/serialItem.h **** 			serial.write(mask_, ptr, value);
 3308              		.loc 14 29 33 view .LVU875
 3309 0602 1091     		str	r1, [sp, #64]
 3310              	.LBB1538:
 3311              	.LBB1514:
 3312              		.loc 14 30 16 view .LVU876
 3313 0604 1A90     		str	r0, [sp, #104]
 3314              	.LBE1514:
 3315              	.LBE1538:
 3316              	.LBE1559:
 3317              	.LBE1580:
 3318              	.LBE1637:
 3319              	.LBE1667:
 3320              	.LBE1698:
 168:Src/Settings/noteTrack.h **** 			clear_step(pattern_index, i);
 3321              		.loc 9 168 12 view .LVU877
 3322 0606 0021     		movs	r1, #0
 3323 0608 9DF86000 		ldrb	r0, [sp, #96]	@ zero_extendqisi2
 3324 060c 2294     		str	r4, [sp, #136]
 3325 060e 1895     		str	r5, [sp, #96]
 3326              	.LVL104:
 168:Src/Settings/noteTrack.h **** 			clear_step(pattern_index, i);
 3327              		.loc 9 168 12 view .LVU878
 3328 0610 B146     		mov	r9, r6
 3329 0612 05E0     		b	.L96
 3330              	.L97:
 3331              		.align	2
 3332              	.L95:
 3333 0614 00000000 		.word	_ZN9TrackData8pattern_E
 3334 0618 00000000 		.word	_ZN9NoteTrack10step_item_E
 3335 061c D8000000 		.word	_ZN9NoteTrack10step_item_E+216
 3336              	.L96:
 3337              	.LVL105:
 3338              	.L27:
 169:Src/Settings/noteTrack.h **** 		}
 3339              		.loc 9 169 4 is_stmt 1 view .LVU879
 3340              	.LBB1699:
 3341              	.LBI1475:
 179:Src/Settings/noteTrack.h **** 		for (int i = 0; i < NUM_STEP_ITEMS; ++i) {
 3342              		.loc 9 179 7 view .LVU880
 3343              	.LBE1699:
ARM GAS  /var/folders/84/_x1cyy_j36g486tldtwl37280000gn/T//ccQg3xDo.s 			page 94


 3344              	.LBE1474:
 3345              	.LBE1769:
 3346              	.LBE1830:
 3347              	.LBE1895:
 3348              	.LBE1950:
 3349              	.LBE2007:
 3350              	.LBE2074:
 3351              	.LBE2138:
 3352              	.LBE2306:
 3353              	.LBE2377:
 180:Src/Settings/noteTrack.h **** 			write_step(pattern_index, step_index, StepItem(i), step_item_[i].init_value());
 3354              		.loc 9 180 3 view .LVU881
 3355              	.LBB2378:
 3356              	.LBB2307:
 3357              	.LBB2139:
 3358              	.LBB2075:
 3359              	.LBB2008:
 3360              	.LBB1951:
 3361              	.LBB1896:
 3362              	.LBB1831:
 3363              	.LBB1770:
 3364              	.LBB1728:
 3365              	.LBB1700:
 3366              	.LBB1668:
 180:Src/Settings/noteTrack.h **** 			write_step(pattern_index, step_index, StepItem(i), step_item_[i].init_value());
 3367              		.loc 9 180 21 view .LVU882
 181:Src/Settings/noteTrack.h **** 		}
 3368              		.loc 9 181 4 view .LVU883
 181:Src/Settings/noteTrack.h **** 		}
 3369              		.loc 9 181 4 is_stmt 0 view .LVU884
 3370              	.LBE1668:
 3371              	.LBE1700:
 3372              	.LBE1728:
 3373              	.LBE1770:
 3374              	.LBE1831:
 3375              	.LBE1896:
 3376              	.LBE1951:
 3377              	.LBE2008:
 3378              	.LBE2075:
 3379              	.LBE2139:
 3380              	.LBE2307:
 3381              	.LBE2378:
  18:Src/Settings/serialItem.h **** 
 3382              		.loc 14 18 37 is_stmt 1 view .LVU885
 3383              	.LBB2379:
 3384              	.LBB2308:
 3385              	.LBB2140:
 3386              	.LBB2076:
 3387              	.LBB2009:
 3388              	.LBB1952:
 3389              	.LBB1897:
 3390              	.LBB1832:
 3391              	.LBB1771:
 3392              	.LBB1729:
 3393              	.LBB1701:
 3394              	.LBB1669:
 3395              	.LBB1638:
ARM GAS  /var/folders/84/_x1cyy_j36g486tldtwl37280000gn/T//ccQg3xDo.s 			page 95


 3396              	.LBI1477:
 149:Src/Settings/noteTrack.h **** 		step_item_[item].write(BaseTrack::pattern.step(pattern_index, step_index), value);
 3397              		.loc 9 149 7 view .LVU886
 3398              	.LBE1638:
 3399              	.LBE1669:
 3400              	.LBE1701:
 3401              	.LBE1729:
 3402              	.LBE1771:
 3403              	.LBE1832:
 3404              	.LBE1897:
 3405              	.LBE1952:
 3406              	.LBE2009:
 3407              	.LBE2076:
 3408              	.LBE2140:
 3409              	.LBE2308:
 3410              	.LBE2379:
 150:Src/Settings/noteTrack.h **** 	}
 3411              		.loc 9 150 3 view .LVU887
 3412              	.LBB2380:
 3413              	.LBB2309:
 3414              	.LBB2141:
 3415              	.LBB2077:
 3416              	.LBB2010:
 3417              	.LBB1953:
 3418              	.LBB1898:
 3419              	.LBB1833:
 3420              	.LBB1772:
 3421              	.LBB1730:
 3422              	.LBB1702:
 3423              	.LBB1670:
 3424              	.LBB1639:
 3425              	.LBB1581:
