ARM GAS  /var/folders/84/_x1cyy_j36g486tldtwl37280000gn/T//cc1fFi6K.s 			page 1


   1              		.cpu cortex-m4
   2              		.eabi_attribute 27, 1
   3              		.eabi_attribute 28, 1
   4              		.eabi_attribute 20, 1
   5              		.eabi_attribute 21, 1
   6              		.eabi_attribute 23, 3
   7              		.eabi_attribute 24, 1
   8              		.eabi_attribute 25, 1
   9              		.eabi_attribute 26, 1
  10              		.eabi_attribute 30, 2
  11              		.eabi_attribute 34, 1
  12              		.eabi_attribute 18, 4
  13              		.file	"micros.cpp"
  14              		.text
  15              	.Ltext0:
  16              		.cfi_sections	.debug_frame
  17              		.section	.text._ZN6Micros4initEv,"ax",%progbits
  18              		.align	1
  19              		.p2align 2,,3
  20              		.global	_ZN6Micros4initEv
  21              		.arch armv7e-m
  22              		.syntax unified
  23              		.thumb
  24              		.thumb_func
  25              		.fpu fpv4-sp-d16
  27              	_ZN6Micros4initEv:
  28              	.LVL0:
  29              	.LFB1976:
  30              		.file 1 "Drivers/micros.cpp"
   1:Drivers/micros.cpp **** #include "micros.h"
   2:Drivers/micros.cpp **** 
   3:Drivers/micros.cpp **** Micros micros;
   4:Drivers/micros.cpp **** 
   5:Drivers/micros.cpp **** void Micros::init() {
  31              		.loc 1 5 21 view -0
  32              		.cfi_startproc
  33              		@ args = 0, pretend = 0, frame = 72
  34              		@ frame_needed = 0, uses_anonymous_args = 0
   6:Drivers/micros.cpp **** 	TIM_HandleTypeDef TimHandle;
  35              		.loc 1 6 2 view .LVU1
   7:Drivers/micros.cpp **** 
   8:Drivers/micros.cpp **** 	TimHandle.Instance = TIM5;
  36              		.loc 1 8 2 view .LVU2
   5:Drivers/micros.cpp **** 	TIM_HandleTypeDef TimHandle;
  37              		.loc 1 5 21 is_stmt 0 view .LVU3
  38 0000 10B5     		push	{r4, lr}
  39              		.cfi_def_cfa_offset 8
  40              		.cfi_offset 4, -8
  41              		.cfi_offset 14, -4
  42 0002 92B0     		sub	sp, sp, #72
  43              		.cfi_def_cfa_offset 80
   9:Drivers/micros.cpp **** 	TimHandle.Init.Prescaler = (F_CPU / 1000000 / 4) - 1;
  10:Drivers/micros.cpp **** 	TimHandle.Init.CounterMode = TIM_COUNTERMODE_UP;
  44              		.loc 1 10 29 view .LVU4
  45 0004 4FF0000C 		mov	ip, #0
   8:Drivers/micros.cpp **** 	TimHandle.Init.Prescaler = (F_CPU / 1000000 / 4) - 1;
  46              		.loc 1 8 21 view .LVU5
ARM GAS  /var/folders/84/_x1cyy_j36g486tldtwl37280000gn/T//cc1fFi6K.s 			page 2


  47 0008 094B     		ldr	r3, .L4
  48 000a 0093     		str	r3, [sp]
   9:Drivers/micros.cpp **** 	TimHandle.Init.Prescaler = (F_CPU / 1000000 / 4) - 1;
  49              		.loc 1 9 2 is_stmt 1 view .LVU6
  11:Drivers/micros.cpp **** 	TimHandle.Init.Period = 0xFFFFFFFF;
  50              		.loc 1 11 24 is_stmt 0 view .LVU7
  51 000c 4FF0FF31 		mov	r1, #-1
  12:Drivers/micros.cpp **** 	TimHandle.Init.ClockDivision = TIM_CLOCKDIVISION_DIV1;
  13:Drivers/micros.cpp **** 	TimHandle.Init.AutoReloadPreload = TIM_AUTORELOAD_PRELOAD_ENABLE;
  52              		.loc 1 13 35 view .LVU8
  53 0010 8022     		movs	r2, #128
  14:Drivers/micros.cpp **** 
  15:Drivers/micros.cpp **** 	HAL_TIM_Base_Init(&TimHandle);
  54              		.loc 1 15 19 view .LVU9
  55 0012 6846     		mov	r0, sp
  56              	.LVL1:
   9:Drivers/micros.cpp **** 	TimHandle.Init.CounterMode = TIM_COUNTERMODE_UP;
  57              		.loc 1 9 27 view .LVU10
  58 0014 2924     		movs	r4, #41
  10:Drivers/micros.cpp **** 	TimHandle.Init.Period = 0xFFFFFFFF;
  59              		.loc 1 10 29 view .LVU11
  60 0016 CDE9014C 		strd	r4, ip, [sp, #4]
  11:Drivers/micros.cpp **** 	TimHandle.Init.ClockDivision = TIM_CLOCKDIVISION_DIV1;
  61              		.loc 1 11 2 is_stmt 1 view .LVU12
  11:Drivers/micros.cpp **** 	TimHandle.Init.ClockDivision = TIM_CLOCKDIVISION_DIV1;
  62              		.loc 1 11 24 is_stmt 0 view .LVU13
  63 001a CDE9031C 		strd	r1, ip, [sp, #12]
  12:Drivers/micros.cpp **** 	TimHandle.Init.AutoReloadPreload = TIM_AUTORELOAD_PRELOAD_ENABLE;
  64              		.loc 1 12 2 is_stmt 1 view .LVU14
  13:Drivers/micros.cpp **** 
  65              		.loc 1 13 2 view .LVU15
  13:Drivers/micros.cpp **** 
  66              		.loc 1 13 35 is_stmt 0 view .LVU16
  67 001e 0692     		str	r2, [sp, #24]
  68              		.loc 1 15 2 is_stmt 1 view .LVU17
  69              		.loc 1 15 19 is_stmt 0 view .LVU18
  70 0020 FFF7FEFF 		bl	HAL_TIM_Base_Init
  71              	.LVL2:
  16:Drivers/micros.cpp **** 	HAL_TIM_Base_Start(&TimHandle);
  72              		.loc 1 16 2 is_stmt 1 view .LVU19
  73              		.loc 1 16 20 is_stmt 0 view .LVU20
  74 0024 6846     		mov	r0, sp
  75 0026 FFF7FEFF 		bl	HAL_TIM_Base_Start
  76              	.LVL3:
  17:Drivers/micros.cpp **** }
  77              		.loc 1 17 1 view .LVU21
  78 002a 12B0     		add	sp, sp, #72
  79              		.cfi_def_cfa_offset 8
  80              		@ sp needed
  81 002c 10BD     		pop	{r4, pc}
  82              	.L5:
  83 002e 00BF     		.align	2
  84              	.L4:
  85 0030 000C0040 		.word	1073744896
  86              		.cfi_endproc
  87              	.LFE1976:
  89              		.global	micros
ARM GAS  /var/folders/84/_x1cyy_j36g486tldtwl37280000gn/T//cc1fFi6K.s 			page 3


  90              		.section	.bss.micros,"aw",%nobits
  91              		.align	2
  94              	micros:
  95 0000 00       		.space	1
  96              		.text
  97              	.Letext0:
  98              		.file 2 "/usr/local/Caskroom/gcc-arm-embedded/9-2019-q4-major/gcc-arm-none-eabi-9-2019-q4-major/ar
  99              		.file 3 "/usr/local/Caskroom/gcc-arm-embedded/9-2019-q4-major/gcc-arm-none-eabi-9-2019-q4-major/ar
 100              		.file 4 "/usr/local/Caskroom/gcc-arm-embedded/9-2019-q4-major/gcc-arm-none-eabi-9-2019-q4-major/ar
 101              		.file 5 "/Users/joostbooy/STM32Cube/Repository/STM32Cube_FW_F4_V1.26.1/Drivers/CMSIS/Include/core_
 102              		.file 6 "/Users/joostbooy/STM32Cube/Repository/STM32Cube_FW_F4_V1.26.1/Drivers/CMSIS/Device/ST/STM
 103              		.file 7 "/Users/joostbooy/STM32Cube/Repository/STM32Cube_FW_F4_V1.26.1/Drivers/CMSIS/Device/ST/STM
 104              		.file 8 "/usr/local/Caskroom/gcc-arm-embedded/9-2019-q4-major/gcc-arm-none-eabi-9-2019-q4-major/li
 105              		.file 9 "/Users/joostbooy/STM32Cube/Repository/STM32Cube_FW_F4_V1.26.1/Drivers/STM32F4xx_HAL_Drive
 106              		.file 10 "/Users/joostbooy/STM32Cube/Repository/STM32Cube_FW_F4_V1.26.1/Drivers/STM32F4xx_HAL_Driv
 107              		.file 11 "/Users/joostbooy/STM32Cube/Repository/STM32Cube_FW_F4_V1.26.1/Drivers/STM32F4xx_HAL_Driv
 108              		.file 12 "/Users/joostbooy/STM32Cube/Repository/STM32Cube_FW_F4_V1.26.1/Drivers/STM32F4xx_HAL_Driv
 109              		.file 13 "/usr/local/Caskroom/gcc-arm-embedded/9-2019-q4-major/gcc-arm-none-eabi-9-2019-q4-major/a
 110              		.file 14 "/usr/local/Caskroom/gcc-arm-embedded/9-2019-q4-major/gcc-arm-none-eabi-9-2019-q4-major/a
 111              		.file 15 "/usr/local/Caskroom/gcc-arm-embedded/9-2019-q4-major/gcc-arm-none-eabi-9-2019-q4-major/a
 112              		.file 16 "/usr/local/Caskroom/gcc-arm-embedded/9-2019-q4-major/gcc-arm-none-eabi-9-2019-q4-major/a
 113              		.file 17 "/usr/local/Caskroom/gcc-arm-embedded/9-2019-q4-major/gcc-arm-none-eabi-9-2019-q4-major/a
 114              		.file 18 "/usr/local/Caskroom/gcc-arm-embedded/9-2019-q4-major/gcc-arm-none-eabi-9-2019-q4-major/a
 115              		.file 19 "/usr/local/Caskroom/gcc-arm-embedded/9-2019-q4-major/gcc-arm-none-eabi-9-2019-q4-major/a
 116              		.file 20 "/usr/local/Caskroom/gcc-arm-embedded/9-2019-q4-major/gcc-arm-none-eabi-9-2019-q4-major/a
 117              		.file 21 "/usr/local/Caskroom/gcc-arm-embedded/9-2019-q4-major/gcc-arm-none-eabi-9-2019-q4-major/a
 118              		.file 22 "/usr/local/Caskroom/gcc-arm-embedded/9-2019-q4-major/gcc-arm-none-eabi-9-2019-q4-major/a
 119              		.file 23 "/usr/local/Caskroom/gcc-arm-embedded/9-2019-q4-major/gcc-arm-none-eabi-9-2019-q4-major/a
 120              		.file 24 "/usr/local/Caskroom/gcc-arm-embedded/9-2019-q4-major/gcc-arm-none-eabi-9-2019-q4-major/a
 121              		.file 25 "/usr/local/Caskroom/gcc-arm-embedded/9-2019-q4-major/gcc-arm-none-eabi-9-2019-q4-major/a
 122              		.file 26 "/usr/local/Caskroom/gcc-arm-embedded/9-2019-q4-major/gcc-arm-none-eabi-9-2019-q4-major/a
 123              		.file 27 "/usr/local/Caskroom/gcc-arm-embedded/9-2019-q4-major/gcc-arm-none-eabi-9-2019-q4-major/a
 124              		.file 28 "/usr/local/Caskroom/gcc-arm-embedded/9-2019-q4-major/gcc-arm-none-eabi-9-2019-q4-major/a
 125              		.file 29 "/usr/local/Caskroom/gcc-arm-embedded/9-2019-q4-major/gcc-arm-none-eabi-9-2019-q4-major/a
 126              		.file 30 "/usr/local/Caskroom/gcc-arm-embedded/9-2019-q4-major/gcc-arm-none-eabi-9-2019-q4-major/a
 127              		.file 31 "/usr/local/Caskroom/gcc-arm-embedded/9-2019-q4-major/gcc-arm-none-eabi-9-2019-q4-major/a
 128              		.file 32 "/usr/local/Caskroom/gcc-arm-embedded/9-2019-q4-major/gcc-arm-none-eabi-9-2019-q4-major/a
 129              		.file 33 "/usr/local/Caskroom/gcc-arm-embedded/9-2019-q4-major/gcc-arm-none-eabi-9-2019-q4-major/a
 130              		.file 34 "/usr/local/Caskroom/gcc-arm-embedded/9-2019-q4-major/gcc-arm-none-eabi-9-2019-q4-major/a
 131              		.file 35 "/usr/local/Caskroom/gcc-arm-embedded/9-2019-q4-major/gcc-arm-none-eabi-9-2019-q4-major/a
 132              		.file 36 "/usr/local/Caskroom/gcc-arm-embedded/9-2019-q4-major/gcc-arm-none-eabi-9-2019-q4-major/a
 133              		.file 37 "/usr/local/Caskroom/gcc-arm-embedded/9-2019-q4-major/gcc-arm-none-eabi-9-2019-q4-major/l
 134              		.file 38 "<built-in>"
 135              		.file 39 "/usr/local/Caskroom/gcc-arm-embedded/9-2019-q4-major/gcc-arm-none-eabi-9-2019-q4-major/a
 136              		.file 40 "/usr/local/Caskroom/gcc-arm-embedded/9-2019-q4-major/gcc-arm-none-eabi-9-2019-q4-major/a
 137              		.file 41 "/usr/local/Caskroom/gcc-arm-embedded/9-2019-q4-major/gcc-arm-none-eabi-9-2019-q4-major/a
 138              		.file 42 "/usr/local/Caskroom/gcc-arm-embedded/9-2019-q4-major/gcc-arm-none-eabi-9-2019-q4-major/a
 139              		.file 43 "/usr/local/Caskroom/gcc-arm-embedded/9-2019-q4-major/gcc-arm-none-eabi-9-2019-q4-major/a
 140              		.file 44 "/usr/local/Caskroom/gcc-arm-embedded/9-2019-q4-major/gcc-arm-none-eabi-9-2019-q4-major/a
 141              		.file 45 "/usr/local/Caskroom/gcc-arm-embedded/9-2019-q4-major/gcc-arm-none-eabi-9-2019-q4-major/a
 142              		.file 46 "/usr/local/Caskroom/gcc-arm-embedded/9-2019-q4-major/gcc-arm-none-eabi-9-2019-q4-major/a
 143              		.file 47 "/usr/local/Caskroom/gcc-arm-embedded/9-2019-q4-major/gcc-arm-none-eabi-9-2019-q4-major/a
 144              		.file 48 "Drivers/micros.h"
ARM GAS  /var/folders/84/_x1cyy_j36g486tldtwl37280000gn/T//cc1fFi6K.s 			page 4

