ARM GAS  /var/folders/84/_x1cyy_j36g486tldtwl37280000gn/T//ccHWsz3h.s 			page 1


   1              		.cpu cortex-m4
   2              		.eabi_attribute 27, 1
   3              		.eabi_attribute 28, 1
   4              		.eabi_attribute 20, 1
   5              		.eabi_attribute 21, 1
   6              		.eabi_attribute 23, 3
   7              		.eabi_attribute 24, 1
   8              		.eabi_attribute 25, 1
   9              		.eabi_attribute 26, 1
  10              		.eabi_attribute 30, 2
  11              		.eabi_attribute 34, 1
  12              		.eabi_attribute 18, 4
  13              		.file	"midi_device.c"
  14              		.text
  15              	.Ltext0:
  16              		.cfi_sections	.debug_frame
  17              		.section	.text._prep_out_transaction,"ax",%progbits
  18              		.align	1
  19              		.p2align 2,,3
  20              		.arch armv7e-m
  21              		.syntax unified
  22              		.thumb
  23              		.thumb_func
  24              		.fpu fpv4-sp-d16
  26              	_prep_out_transaction:
  27              	.LVL0:
  28              	.LFB72:
  29              		.file 1 "/Users/joostbooy/Desktop/Code/stm32/lib/tinyusb/src/class/midi/midi_device.c"
   1:/Users/joostbooy/Desktop/Code/stm32/lib/tinyusb/src/class/midi/midi_device.c **** /*
   2:/Users/joostbooy/Desktop/Code/stm32/lib/tinyusb/src/class/midi/midi_device.c ****  * The MIT License (MIT)
   3:/Users/joostbooy/Desktop/Code/stm32/lib/tinyusb/src/class/midi/midi_device.c ****  *
   4:/Users/joostbooy/Desktop/Code/stm32/lib/tinyusb/src/class/midi/midi_device.c ****  * Copyright (c) 2019 Ha Thach (tinyusb.org)
   5:/Users/joostbooy/Desktop/Code/stm32/lib/tinyusb/src/class/midi/midi_device.c ****  *
   6:/Users/joostbooy/Desktop/Code/stm32/lib/tinyusb/src/class/midi/midi_device.c ****  * Permission is hereby granted, free of charge, to any person obtaining a copy
   7:/Users/joostbooy/Desktop/Code/stm32/lib/tinyusb/src/class/midi/midi_device.c ****  * of this software and associated documentation files (the "Software"), to deal
   8:/Users/joostbooy/Desktop/Code/stm32/lib/tinyusb/src/class/midi/midi_device.c ****  * in the Software without restriction, including without limitation the rights
   9:/Users/joostbooy/Desktop/Code/stm32/lib/tinyusb/src/class/midi/midi_device.c ****  * to use, copy, modify, merge, publish, distribute, sublicense, and/or sell
  10:/Users/joostbooy/Desktop/Code/stm32/lib/tinyusb/src/class/midi/midi_device.c ****  * copies of the Software, and to permit persons to whom the Software is
  11:/Users/joostbooy/Desktop/Code/stm32/lib/tinyusb/src/class/midi/midi_device.c ****  * furnished to do so, subject to the following conditions:
  12:/Users/joostbooy/Desktop/Code/stm32/lib/tinyusb/src/class/midi/midi_device.c ****  *
  13:/Users/joostbooy/Desktop/Code/stm32/lib/tinyusb/src/class/midi/midi_device.c ****  * The above copyright notice and this permission notice shall be included in
  14:/Users/joostbooy/Desktop/Code/stm32/lib/tinyusb/src/class/midi/midi_device.c ****  * all copies or substantial portions of the Software.
  15:/Users/joostbooy/Desktop/Code/stm32/lib/tinyusb/src/class/midi/midi_device.c ****  *
  16:/Users/joostbooy/Desktop/Code/stm32/lib/tinyusb/src/class/midi/midi_device.c ****  * THE SOFTWARE IS PROVIDED "AS IS", WITHOUT WARRANTY OF ANY KIND, EXPRESS OR
  17:/Users/joostbooy/Desktop/Code/stm32/lib/tinyusb/src/class/midi/midi_device.c ****  * IMPLIED, INCLUDING BUT NOT LIMITED TO THE WARRANTIES OF MERCHANTABILITY,
  18:/Users/joostbooy/Desktop/Code/stm32/lib/tinyusb/src/class/midi/midi_device.c ****  * FITNESS FOR A PARTICULAR PURPOSE AND NONINFRINGEMENT. IN NO EVENT SHALL THE
  19:/Users/joostbooy/Desktop/Code/stm32/lib/tinyusb/src/class/midi/midi_device.c ****  * AUTHORS OR COPYRIGHT HOLDERS BE LIABLE FOR ANY CLAIM, DAMAGES OR OTHER
  20:/Users/joostbooy/Desktop/Code/stm32/lib/tinyusb/src/class/midi/midi_device.c ****  * LIABILITY, WHETHER IN AN ACTION OF CONTRACT, TORT OR OTHERWISE, ARISING FROM,
  21:/Users/joostbooy/Desktop/Code/stm32/lib/tinyusb/src/class/midi/midi_device.c ****  * OUT OF OR IN CONNECTION WITH THE SOFTWARE OR THE USE OR OTHER DEALINGS IN
  22:/Users/joostbooy/Desktop/Code/stm32/lib/tinyusb/src/class/midi/midi_device.c ****  * THE SOFTWARE.
  23:/Users/joostbooy/Desktop/Code/stm32/lib/tinyusb/src/class/midi/midi_device.c ****  *
  24:/Users/joostbooy/Desktop/Code/stm32/lib/tinyusb/src/class/midi/midi_device.c ****  * This file is part of the TinyUSB stack.
  25:/Users/joostbooy/Desktop/Code/stm32/lib/tinyusb/src/class/midi/midi_device.c ****  */
  26:/Users/joostbooy/Desktop/Code/stm32/lib/tinyusb/src/class/midi/midi_device.c **** 
  27:/Users/joostbooy/Desktop/Code/stm32/lib/tinyusb/src/class/midi/midi_device.c **** #include "tusb_option.h"
  28:/Users/joostbooy/Desktop/Code/stm32/lib/tinyusb/src/class/midi/midi_device.c **** 
  29:/Users/joostbooy/Desktop/Code/stm32/lib/tinyusb/src/class/midi/midi_device.c **** #if (CFG_TUD_ENABLED && CFG_TUD_MIDI)
ARM GAS  /var/folders/84/_x1cyy_j36g486tldtwl37280000gn/T//ccHWsz3h.s 			page 2


  30:/Users/joostbooy/Desktop/Code/stm32/lib/tinyusb/src/class/midi/midi_device.c **** 
  31:/Users/joostbooy/Desktop/Code/stm32/lib/tinyusb/src/class/midi/midi_device.c **** //--------------------------------------------------------------------+
  32:/Users/joostbooy/Desktop/Code/stm32/lib/tinyusb/src/class/midi/midi_device.c **** // INCLUDE
  33:/Users/joostbooy/Desktop/Code/stm32/lib/tinyusb/src/class/midi/midi_device.c **** //--------------------------------------------------------------------+
  34:/Users/joostbooy/Desktop/Code/stm32/lib/tinyusb/src/class/midi/midi_device.c **** #include "device/usbd.h"
  35:/Users/joostbooy/Desktop/Code/stm32/lib/tinyusb/src/class/midi/midi_device.c **** #include "device/usbd_pvt.h"
  36:/Users/joostbooy/Desktop/Code/stm32/lib/tinyusb/src/class/midi/midi_device.c **** 
  37:/Users/joostbooy/Desktop/Code/stm32/lib/tinyusb/src/class/midi/midi_device.c **** #include "midi_device.h"
  38:/Users/joostbooy/Desktop/Code/stm32/lib/tinyusb/src/class/midi/midi_device.c **** 
  39:/Users/joostbooy/Desktop/Code/stm32/lib/tinyusb/src/class/midi/midi_device.c **** //--------------------------------------------------------------------+
  40:/Users/joostbooy/Desktop/Code/stm32/lib/tinyusb/src/class/midi/midi_device.c **** // MACRO CONSTANT TYPEDEF
  41:/Users/joostbooy/Desktop/Code/stm32/lib/tinyusb/src/class/midi/midi_device.c **** //--------------------------------------------------------------------+
  42:/Users/joostbooy/Desktop/Code/stm32/lib/tinyusb/src/class/midi/midi_device.c **** 
  43:/Users/joostbooy/Desktop/Code/stm32/lib/tinyusb/src/class/midi/midi_device.c **** typedef struct
  44:/Users/joostbooy/Desktop/Code/stm32/lib/tinyusb/src/class/midi/midi_device.c **** {
  45:/Users/joostbooy/Desktop/Code/stm32/lib/tinyusb/src/class/midi/midi_device.c ****   uint8_t buffer[4];
  46:/Users/joostbooy/Desktop/Code/stm32/lib/tinyusb/src/class/midi/midi_device.c ****   uint8_t index;
  47:/Users/joostbooy/Desktop/Code/stm32/lib/tinyusb/src/class/midi/midi_device.c ****   uint8_t total;
  48:/Users/joostbooy/Desktop/Code/stm32/lib/tinyusb/src/class/midi/midi_device.c **** }midid_stream_t;
  49:/Users/joostbooy/Desktop/Code/stm32/lib/tinyusb/src/class/midi/midi_device.c **** 
  50:/Users/joostbooy/Desktop/Code/stm32/lib/tinyusb/src/class/midi/midi_device.c **** typedef struct
  51:/Users/joostbooy/Desktop/Code/stm32/lib/tinyusb/src/class/midi/midi_device.c **** {
  52:/Users/joostbooy/Desktop/Code/stm32/lib/tinyusb/src/class/midi/midi_device.c ****   uint8_t itf_num;
  53:/Users/joostbooy/Desktop/Code/stm32/lib/tinyusb/src/class/midi/midi_device.c ****   uint8_t ep_in;
  54:/Users/joostbooy/Desktop/Code/stm32/lib/tinyusb/src/class/midi/midi_device.c ****   uint8_t ep_out;
  55:/Users/joostbooy/Desktop/Code/stm32/lib/tinyusb/src/class/midi/midi_device.c **** 
  56:/Users/joostbooy/Desktop/Code/stm32/lib/tinyusb/src/class/midi/midi_device.c ****   // For Stream read()/write() API
  57:/Users/joostbooy/Desktop/Code/stm32/lib/tinyusb/src/class/midi/midi_device.c ****   // Messages are always 4 bytes long, queue them for reading and writing so the
  58:/Users/joostbooy/Desktop/Code/stm32/lib/tinyusb/src/class/midi/midi_device.c ****   // callers can use the Stream interface with single-byte read/write calls.
  59:/Users/joostbooy/Desktop/Code/stm32/lib/tinyusb/src/class/midi/midi_device.c ****   midid_stream_t stream_write;
  60:/Users/joostbooy/Desktop/Code/stm32/lib/tinyusb/src/class/midi/midi_device.c ****   midid_stream_t stream_read;
  61:/Users/joostbooy/Desktop/Code/stm32/lib/tinyusb/src/class/midi/midi_device.c **** 
  62:/Users/joostbooy/Desktop/Code/stm32/lib/tinyusb/src/class/midi/midi_device.c ****   /*------------- From this point, data is not cleared by bus reset -------------*/
  63:/Users/joostbooy/Desktop/Code/stm32/lib/tinyusb/src/class/midi/midi_device.c ****   // FIFO
  64:/Users/joostbooy/Desktop/Code/stm32/lib/tinyusb/src/class/midi/midi_device.c ****   tu_fifo_t rx_ff;
  65:/Users/joostbooy/Desktop/Code/stm32/lib/tinyusb/src/class/midi/midi_device.c ****   tu_fifo_t tx_ff;
  66:/Users/joostbooy/Desktop/Code/stm32/lib/tinyusb/src/class/midi/midi_device.c ****   uint8_t rx_ff_buf[CFG_TUD_MIDI_RX_BUFSIZE];
  67:/Users/joostbooy/Desktop/Code/stm32/lib/tinyusb/src/class/midi/midi_device.c ****   uint8_t tx_ff_buf[CFG_TUD_MIDI_TX_BUFSIZE];
  68:/Users/joostbooy/Desktop/Code/stm32/lib/tinyusb/src/class/midi/midi_device.c **** 
  69:/Users/joostbooy/Desktop/Code/stm32/lib/tinyusb/src/class/midi/midi_device.c ****   #if CFG_FIFO_MUTEX
  70:/Users/joostbooy/Desktop/Code/stm32/lib/tinyusb/src/class/midi/midi_device.c ****   osal_mutex_def_t rx_ff_mutex;
  71:/Users/joostbooy/Desktop/Code/stm32/lib/tinyusb/src/class/midi/midi_device.c ****   osal_mutex_def_t tx_ff_mutex;
  72:/Users/joostbooy/Desktop/Code/stm32/lib/tinyusb/src/class/midi/midi_device.c ****   #endif
  73:/Users/joostbooy/Desktop/Code/stm32/lib/tinyusb/src/class/midi/midi_device.c **** 
  74:/Users/joostbooy/Desktop/Code/stm32/lib/tinyusb/src/class/midi/midi_device.c ****   // Endpoint Transfer buffer
  75:/Users/joostbooy/Desktop/Code/stm32/lib/tinyusb/src/class/midi/midi_device.c ****   CFG_TUSB_MEM_ALIGN uint8_t epout_buf[CFG_TUD_MIDI_EP_BUFSIZE];
  76:/Users/joostbooy/Desktop/Code/stm32/lib/tinyusb/src/class/midi/midi_device.c ****   CFG_TUSB_MEM_ALIGN uint8_t epin_buf[CFG_TUD_MIDI_EP_BUFSIZE];
  77:/Users/joostbooy/Desktop/Code/stm32/lib/tinyusb/src/class/midi/midi_device.c **** 
  78:/Users/joostbooy/Desktop/Code/stm32/lib/tinyusb/src/class/midi/midi_device.c **** } midid_interface_t;
  79:/Users/joostbooy/Desktop/Code/stm32/lib/tinyusb/src/class/midi/midi_device.c **** 
  80:/Users/joostbooy/Desktop/Code/stm32/lib/tinyusb/src/class/midi/midi_device.c **** #define ITF_MEM_RESET_SIZE   offsetof(midid_interface_t, rx_ff)
  81:/Users/joostbooy/Desktop/Code/stm32/lib/tinyusb/src/class/midi/midi_device.c **** 
  82:/Users/joostbooy/Desktop/Code/stm32/lib/tinyusb/src/class/midi/midi_device.c **** //--------------------------------------------------------------------+
  83:/Users/joostbooy/Desktop/Code/stm32/lib/tinyusb/src/class/midi/midi_device.c **** // INTERNAL OBJECT & FUNCTION DECLARATION
  84:/Users/joostbooy/Desktop/Code/stm32/lib/tinyusb/src/class/midi/midi_device.c **** //--------------------------------------------------------------------+
  85:/Users/joostbooy/Desktop/Code/stm32/lib/tinyusb/src/class/midi/midi_device.c **** CFG_TUD_MEM_SECTION midid_interface_t _midid_itf[CFG_TUD_MIDI];
  86:/Users/joostbooy/Desktop/Code/stm32/lib/tinyusb/src/class/midi/midi_device.c **** 
ARM GAS  /var/folders/84/_x1cyy_j36g486tldtwl37280000gn/T//ccHWsz3h.s 			page 3


  87:/Users/joostbooy/Desktop/Code/stm32/lib/tinyusb/src/class/midi/midi_device.c **** bool tud_midi_n_mounted (uint8_t itf)
  88:/Users/joostbooy/Desktop/Code/stm32/lib/tinyusb/src/class/midi/midi_device.c **** {
  89:/Users/joostbooy/Desktop/Code/stm32/lib/tinyusb/src/class/midi/midi_device.c ****   midid_interface_t* midi = &_midid_itf[itf];
  90:/Users/joostbooy/Desktop/Code/stm32/lib/tinyusb/src/class/midi/midi_device.c ****   return midi->ep_in && midi->ep_out;
  91:/Users/joostbooy/Desktop/Code/stm32/lib/tinyusb/src/class/midi/midi_device.c **** }
  92:/Users/joostbooy/Desktop/Code/stm32/lib/tinyusb/src/class/midi/midi_device.c **** 
  93:/Users/joostbooy/Desktop/Code/stm32/lib/tinyusb/src/class/midi/midi_device.c **** static void _prep_out_transaction (midid_interface_t* p_midi)
  94:/Users/joostbooy/Desktop/Code/stm32/lib/tinyusb/src/class/midi/midi_device.c **** {
  30              		.loc 1 94 1 view -0
  31              		.cfi_startproc
  32              		@ args = 0, pretend = 0, frame = 0
  33              		@ frame_needed = 0, uses_anonymous_args = 0
  95:/Users/joostbooy/Desktop/Code/stm32/lib/tinyusb/src/class/midi/midi_device.c ****   uint8_t const rhport = 0;
  34              		.loc 1 95 3 view .LVU1
  96:/Users/joostbooy/Desktop/Code/stm32/lib/tinyusb/src/class/midi/midi_device.c ****   uint16_t available = tu_fifo_remaining(&p_midi->rx_ff);
  35              		.loc 1 96 3 view .LVU2
  94:/Users/joostbooy/Desktop/Code/stm32/lib/tinyusb/src/class/midi/midi_device.c ****   uint8_t const rhport = 0;
  36              		.loc 1 94 1 is_stmt 0 view .LVU3
  37 0000 70B5     		push	{r4, r5, r6, lr}
  38              		.cfi_def_cfa_offset 16
  39              		.cfi_offset 4, -16
  40              		.cfi_offset 5, -12
  41              		.cfi_offset 6, -8
  42              		.cfi_offset 14, -4
  43              		.loc 1 96 24 view .LVU4
  44 0002 00F11005 		add	r5, r0, #16
  94:/Users/joostbooy/Desktop/Code/stm32/lib/tinyusb/src/class/midi/midi_device.c ****   uint8_t const rhport = 0;
  45              		.loc 1 94 1 view .LVU5
  46 0006 0446     		mov	r4, r0
  47              		.loc 1 96 24 view .LVU6
  48 0008 2846     		mov	r0, r5
  49              	.LVL1:
  50              		.loc 1 96 24 view .LVU7
  51 000a FFF7FEFF 		bl	tu_fifo_remaining
  52              	.LVL2:
  97:/Users/joostbooy/Desktop/Code/stm32/lib/tinyusb/src/class/midi/midi_device.c **** 
  98:/Users/joostbooy/Desktop/Code/stm32/lib/tinyusb/src/class/midi/midi_device.c ****   // Prepare for incoming data but only allow what we can store in the ring buffer.
  99:/Users/joostbooy/Desktop/Code/stm32/lib/tinyusb/src/class/midi/midi_device.c ****   // TODO Actually we can still carry out the transfer, keeping count of received bytes
 100:/Users/joostbooy/Desktop/Code/stm32/lib/tinyusb/src/class/midi/midi_device.c ****   // and slowly move it to the FIFO when read().
 101:/Users/joostbooy/Desktop/Code/stm32/lib/tinyusb/src/class/midi/midi_device.c ****   // This pre-check reduces endpoint claiming
 102:/Users/joostbooy/Desktop/Code/stm32/lib/tinyusb/src/class/midi/midi_device.c ****   TU_VERIFY(available >= sizeof(p_midi->epout_buf), );
  53              		.loc 1 102 3 is_stmt 1 view .LVU8
  54              		.loc 1 102 3 view .LVU9
  55 000e 3F28     		cmp	r0, #63
  56 0010 00D8     		bhi	.L11
  57              	.LVL3:
  58              	.L1:
 103:/Users/joostbooy/Desktop/Code/stm32/lib/tinyusb/src/class/midi/midi_device.c **** 
 104:/Users/joostbooy/Desktop/Code/stm32/lib/tinyusb/src/class/midi/midi_device.c ****   // claim endpoint
 105:/Users/joostbooy/Desktop/Code/stm32/lib/tinyusb/src/class/midi/midi_device.c ****   TU_VERIFY(usbd_edpt_claim(rhport, p_midi->ep_out), );
 106:/Users/joostbooy/Desktop/Code/stm32/lib/tinyusb/src/class/midi/midi_device.c **** 
 107:/Users/joostbooy/Desktop/Code/stm32/lib/tinyusb/src/class/midi/midi_device.c ****   // fifo can be changed before endpoint is claimed
 108:/Users/joostbooy/Desktop/Code/stm32/lib/tinyusb/src/class/midi/midi_device.c ****   available = tu_fifo_remaining(&p_midi->rx_ff);
 109:/Users/joostbooy/Desktop/Code/stm32/lib/tinyusb/src/class/midi/midi_device.c **** 
 110:/Users/joostbooy/Desktop/Code/stm32/lib/tinyusb/src/class/midi/midi_device.c ****   if ( available >= sizeof(p_midi->epout_buf) )  {
 111:/Users/joostbooy/Desktop/Code/stm32/lib/tinyusb/src/class/midi/midi_device.c ****     usbd_edpt_xfer(rhport, p_midi->ep_out, p_midi->epout_buf, sizeof(p_midi->epout_buf));
 112:/Users/joostbooy/Desktop/Code/stm32/lib/tinyusb/src/class/midi/midi_device.c ****   }else
ARM GAS  /var/folders/84/_x1cyy_j36g486tldtwl37280000gn/T//ccHWsz3h.s 			page 4


 113:/Users/joostbooy/Desktop/Code/stm32/lib/tinyusb/src/class/midi/midi_device.c ****   {
 114:/Users/joostbooy/Desktop/Code/stm32/lib/tinyusb/src/class/midi/midi_device.c ****     // Release endpoint since we don't make any transfer
 115:/Users/joostbooy/Desktop/Code/stm32/lib/tinyusb/src/class/midi/midi_device.c ****     usbd_edpt_release(rhport, p_midi->ep_out);
 116:/Users/joostbooy/Desktop/Code/stm32/lib/tinyusb/src/class/midi/midi_device.c ****   }
 117:/Users/joostbooy/Desktop/Code/stm32/lib/tinyusb/src/class/midi/midi_device.c **** }
  59              		.loc 1 117 1 is_stmt 0 view .LVU10
  60 0012 70BD     		pop	{r4, r5, r6, pc}
  61              	.LVL4:
  62              	.L11:
 102:/Users/joostbooy/Desktop/Code/stm32/lib/tinyusb/src/class/midi/midi_device.c **** 
  63              		.loc 1 102 3 is_stmt 1 discriminator 2 view .LVU11
 105:/Users/joostbooy/Desktop/Code/stm32/lib/tinyusb/src/class/midi/midi_device.c **** 
  64              		.loc 1 105 3 discriminator 2 view .LVU12
 105:/Users/joostbooy/Desktop/Code/stm32/lib/tinyusb/src/class/midi/midi_device.c **** 
  65              		.loc 1 105 3 discriminator 2 view .LVU13
  66 0014 A178     		ldrb	r1, [r4, #2]	@ zero_extendqisi2
  67 0016 0020     		movs	r0, #0
  68              	.LVL5:
 105:/Users/joostbooy/Desktop/Code/stm32/lib/tinyusb/src/class/midi/midi_device.c **** 
  69              		.loc 1 105 3 is_stmt 0 discriminator 2 view .LVU14
  70 0018 FFF7FEFF 		bl	usbd_edpt_claim
  71              	.LVL6:
  72 001c 0028     		cmp	r0, #0
  73 001e F8D0     		beq	.L1
 105:/Users/joostbooy/Desktop/Code/stm32/lib/tinyusb/src/class/midi/midi_device.c **** 
  74              		.loc 1 105 3 is_stmt 1 discriminator 2 view .LVU15
 108:/Users/joostbooy/Desktop/Code/stm32/lib/tinyusb/src/class/midi/midi_device.c **** 
  75              		.loc 1 108 3 discriminator 2 view .LVU16
 108:/Users/joostbooy/Desktop/Code/stm32/lib/tinyusb/src/class/midi/midi_device.c **** 
  76              		.loc 1 108 15 is_stmt 0 discriminator 2 view .LVU17
  77 0020 2846     		mov	r0, r5
  78 0022 FFF7FEFF 		bl	tu_fifo_remaining
  79              	.LVL7:
 110:/Users/joostbooy/Desktop/Code/stm32/lib/tinyusb/src/class/midi/midi_device.c ****     usbd_edpt_xfer(rhport, p_midi->ep_out, p_midi->epout_buf, sizeof(p_midi->epout_buf));
  80              		.loc 1 110 3 is_stmt 1 discriminator 2 view .LVU18
 110:/Users/joostbooy/Desktop/Code/stm32/lib/tinyusb/src/class/midi/midi_device.c ****     usbd_edpt_xfer(rhport, p_midi->ep_out, p_midi->epout_buf, sizeof(p_midi->epout_buf));
  81              		.loc 1 110 6 is_stmt 0 discriminator 2 view .LVU19
  82 0026 3F28     		cmp	r0, #63
  83 0028 08D9     		bls	.L5
  84              	.LVL8:
  85              	.LBB43:
  86              	.LBI43:
  93:/Users/joostbooy/Desktop/Code/stm32/lib/tinyusb/src/class/midi/midi_device.c **** {
  87              		.loc 1 93 13 is_stmt 1 view .LVU20
  88              	.LBB44:
 111:/Users/joostbooy/Desktop/Code/stm32/lib/tinyusb/src/class/midi/midi_device.c ****   }else
  89              		.loc 1 111 5 view .LVU21
  90 002a A178     		ldrb	r1, [r4, #2]	@ zero_extendqisi2
  91 002c 04F1A802 		add	r2, r4, #168
  92 0030 4023     		movs	r3, #64
  93              	.LBE44:
  94              	.LBE43:
  95              		.loc 1 117 1 is_stmt 0 view .LVU22
  96 0032 BDE87040 		pop	{r4, r5, r6, lr}
  97              		.cfi_remember_state
  98              		.cfi_restore 14
  99              		.cfi_restore 6
ARM GAS  /var/folders/84/_x1cyy_j36g486tldtwl37280000gn/T//ccHWsz3h.s 			page 5


 100              		.cfi_restore 5
 101              		.cfi_restore 4
 102              		.cfi_def_cfa_offset 0
 103              	.LVL9:
 104              	.LBB46:
 105              	.LBB45:
 111:/Users/joostbooy/Desktop/Code/stm32/lib/tinyusb/src/class/midi/midi_device.c ****   }else
 106              		.loc 1 111 5 view .LVU23
 107 0036 0020     		movs	r0, #0
 108              	.LVL10:
 111:/Users/joostbooy/Desktop/Code/stm32/lib/tinyusb/src/class/midi/midi_device.c ****   }else
 109              		.loc 1 111 5 view .LVU24
 110 0038 FFF7FEBF 		b	usbd_edpt_xfer
 111              	.LVL11:
 112              	.L5:
 113              		.cfi_restore_state
 111:/Users/joostbooy/Desktop/Code/stm32/lib/tinyusb/src/class/midi/midi_device.c ****   }else
 114              		.loc 1 111 5 view .LVU25
 115              	.LBE45:
 116              	.LBE46:
 115:/Users/joostbooy/Desktop/Code/stm32/lib/tinyusb/src/class/midi/midi_device.c ****   }
 117              		.loc 1 115 5 is_stmt 1 view .LVU26
 118 003c A178     		ldrb	r1, [r4, #2]	@ zero_extendqisi2
 119 003e 0020     		movs	r0, #0
 120              	.LVL12:
 121              		.loc 1 117 1 is_stmt 0 view .LVU27
 122 0040 BDE87040 		pop	{r4, r5, r6, lr}
 123              		.cfi_restore 14
 124              		.cfi_restore 6
 125              		.cfi_restore 5
 126              		.cfi_restore 4
 127              		.cfi_def_cfa_offset 0
 128              	.LVL13:
 115:/Users/joostbooy/Desktop/Code/stm32/lib/tinyusb/src/class/midi/midi_device.c ****   }
 129              		.loc 1 115 5 view .LVU28
 130 0044 FFF7FEBF 		b	usbd_edpt_release
 131              	.LVL14:
 132              		.cfi_endproc
 133              	.LFE72:
 135              		.section	.text.write_flush,"ax",%progbits
 136              		.align	1
 137              		.p2align 2,,3
 138              		.syntax unified
 139              		.thumb
 140              		.thumb_func
 141              		.fpu fpv4-sp-d16
 143              	write_flush:
 144              	.LVL15:
 145              	.LFB76:
 118:/Users/joostbooy/Desktop/Code/stm32/lib/tinyusb/src/class/midi/midi_device.c **** 
 119:/Users/joostbooy/Desktop/Code/stm32/lib/tinyusb/src/class/midi/midi_device.c **** //--------------------------------------------------------------------+
 120:/Users/joostbooy/Desktop/Code/stm32/lib/tinyusb/src/class/midi/midi_device.c **** // READ API
 121:/Users/joostbooy/Desktop/Code/stm32/lib/tinyusb/src/class/midi/midi_device.c **** //--------------------------------------------------------------------+
 122:/Users/joostbooy/Desktop/Code/stm32/lib/tinyusb/src/class/midi/midi_device.c **** uint32_t tud_midi_n_available(uint8_t itf, uint8_t cable_num)
 123:/Users/joostbooy/Desktop/Code/stm32/lib/tinyusb/src/class/midi/midi_device.c **** {
 124:/Users/joostbooy/Desktop/Code/stm32/lib/tinyusb/src/class/midi/midi_device.c ****   (void) cable_num;
 125:/Users/joostbooy/Desktop/Code/stm32/lib/tinyusb/src/class/midi/midi_device.c **** 
ARM GAS  /var/folders/84/_x1cyy_j36g486tldtwl37280000gn/T//ccHWsz3h.s 			page 6


 126:/Users/joostbooy/Desktop/Code/stm32/lib/tinyusb/src/class/midi/midi_device.c ****   midid_interface_t* midi = &_midid_itf[itf];
 127:/Users/joostbooy/Desktop/Code/stm32/lib/tinyusb/src/class/midi/midi_device.c ****   midid_stream_t const* stream = &midi->stream_read;
 128:/Users/joostbooy/Desktop/Code/stm32/lib/tinyusb/src/class/midi/midi_device.c **** 
 129:/Users/joostbooy/Desktop/Code/stm32/lib/tinyusb/src/class/midi/midi_device.c ****   // when using with packet API stream total & index are both zero
 130:/Users/joostbooy/Desktop/Code/stm32/lib/tinyusb/src/class/midi/midi_device.c ****   return tu_fifo_count(&midi->rx_ff) + (uint8_t) (stream->total - stream->index);
 131:/Users/joostbooy/Desktop/Code/stm32/lib/tinyusb/src/class/midi/midi_device.c **** }
 132:/Users/joostbooy/Desktop/Code/stm32/lib/tinyusb/src/class/midi/midi_device.c **** 
 133:/Users/joostbooy/Desktop/Code/stm32/lib/tinyusb/src/class/midi/midi_device.c **** uint32_t tud_midi_n_stream_read(uint8_t itf, uint8_t cable_num, void* buffer, uint32_t bufsize)
 134:/Users/joostbooy/Desktop/Code/stm32/lib/tinyusb/src/class/midi/midi_device.c **** {
 135:/Users/joostbooy/Desktop/Code/stm32/lib/tinyusb/src/class/midi/midi_device.c ****   (void) cable_num;
 136:/Users/joostbooy/Desktop/Code/stm32/lib/tinyusb/src/class/midi/midi_device.c ****   TU_VERIFY(bufsize, 0);
 137:/Users/joostbooy/Desktop/Code/stm32/lib/tinyusb/src/class/midi/midi_device.c **** 
 138:/Users/joostbooy/Desktop/Code/stm32/lib/tinyusb/src/class/midi/midi_device.c ****   uint8_t* buf8 = (uint8_t*) buffer;
 139:/Users/joostbooy/Desktop/Code/stm32/lib/tinyusb/src/class/midi/midi_device.c **** 
 140:/Users/joostbooy/Desktop/Code/stm32/lib/tinyusb/src/class/midi/midi_device.c ****   midid_interface_t* midi = &_midid_itf[itf];
 141:/Users/joostbooy/Desktop/Code/stm32/lib/tinyusb/src/class/midi/midi_device.c ****   midid_stream_t* stream = &midi->stream_read;
 142:/Users/joostbooy/Desktop/Code/stm32/lib/tinyusb/src/class/midi/midi_device.c **** 
 143:/Users/joostbooy/Desktop/Code/stm32/lib/tinyusb/src/class/midi/midi_device.c ****   uint32_t total_read = 0;
 144:/Users/joostbooy/Desktop/Code/stm32/lib/tinyusb/src/class/midi/midi_device.c ****   while( bufsize )
 145:/Users/joostbooy/Desktop/Code/stm32/lib/tinyusb/src/class/midi/midi_device.c ****   {
 146:/Users/joostbooy/Desktop/Code/stm32/lib/tinyusb/src/class/midi/midi_device.c ****     // Get new packet from fifo, then set packet expected bytes
 147:/Users/joostbooy/Desktop/Code/stm32/lib/tinyusb/src/class/midi/midi_device.c ****     if ( stream->total == 0 )
 148:/Users/joostbooy/Desktop/Code/stm32/lib/tinyusb/src/class/midi/midi_device.c ****     {
 149:/Users/joostbooy/Desktop/Code/stm32/lib/tinyusb/src/class/midi/midi_device.c ****       // return if there is no more data from fifo
 150:/Users/joostbooy/Desktop/Code/stm32/lib/tinyusb/src/class/midi/midi_device.c ****       if ( !tud_midi_n_packet_read(itf, stream->buffer) ) return total_read;
 151:/Users/joostbooy/Desktop/Code/stm32/lib/tinyusb/src/class/midi/midi_device.c **** 
 152:/Users/joostbooy/Desktop/Code/stm32/lib/tinyusb/src/class/midi/midi_device.c ****       uint8_t const code_index = stream->buffer[0] & 0x0f;
 153:/Users/joostbooy/Desktop/Code/stm32/lib/tinyusb/src/class/midi/midi_device.c **** 
 154:/Users/joostbooy/Desktop/Code/stm32/lib/tinyusb/src/class/midi/midi_device.c ****       // MIDI 1.0 Table 4-1: Code Index Number Classifications
 155:/Users/joostbooy/Desktop/Code/stm32/lib/tinyusb/src/class/midi/midi_device.c ****       switch(code_index)
 156:/Users/joostbooy/Desktop/Code/stm32/lib/tinyusb/src/class/midi/midi_device.c ****       {
 157:/Users/joostbooy/Desktop/Code/stm32/lib/tinyusb/src/class/midi/midi_device.c ****         case MIDI_CIN_MISC:
 158:/Users/joostbooy/Desktop/Code/stm32/lib/tinyusb/src/class/midi/midi_device.c ****         case MIDI_CIN_CABLE_EVENT:
 159:/Users/joostbooy/Desktop/Code/stm32/lib/tinyusb/src/class/midi/midi_device.c ****           // These are reserved and unused, possibly issue somewhere, skip this packet
 160:/Users/joostbooy/Desktop/Code/stm32/lib/tinyusb/src/class/midi/midi_device.c ****           return 0;
 161:/Users/joostbooy/Desktop/Code/stm32/lib/tinyusb/src/class/midi/midi_device.c ****         break;
 162:/Users/joostbooy/Desktop/Code/stm32/lib/tinyusb/src/class/midi/midi_device.c **** 
 163:/Users/joostbooy/Desktop/Code/stm32/lib/tinyusb/src/class/midi/midi_device.c ****         case MIDI_CIN_SYSEX_END_1BYTE:
 164:/Users/joostbooy/Desktop/Code/stm32/lib/tinyusb/src/class/midi/midi_device.c ****         case MIDI_CIN_1BYTE_DATA:
 165:/Users/joostbooy/Desktop/Code/stm32/lib/tinyusb/src/class/midi/midi_device.c ****           stream->total = 1;
 166:/Users/joostbooy/Desktop/Code/stm32/lib/tinyusb/src/class/midi/midi_device.c ****         break;
 167:/Users/joostbooy/Desktop/Code/stm32/lib/tinyusb/src/class/midi/midi_device.c **** 
 168:/Users/joostbooy/Desktop/Code/stm32/lib/tinyusb/src/class/midi/midi_device.c ****         case MIDI_CIN_SYSCOM_2BYTE     :
 169:/Users/joostbooy/Desktop/Code/stm32/lib/tinyusb/src/class/midi/midi_device.c ****         case MIDI_CIN_SYSEX_END_2BYTE  :
 170:/Users/joostbooy/Desktop/Code/stm32/lib/tinyusb/src/class/midi/midi_device.c ****         case MIDI_CIN_PROGRAM_CHANGE   :
 171:/Users/joostbooy/Desktop/Code/stm32/lib/tinyusb/src/class/midi/midi_device.c ****         case MIDI_CIN_CHANNEL_PRESSURE :
 172:/Users/joostbooy/Desktop/Code/stm32/lib/tinyusb/src/class/midi/midi_device.c ****           stream->total = 2;
 173:/Users/joostbooy/Desktop/Code/stm32/lib/tinyusb/src/class/midi/midi_device.c ****         break;
 174:/Users/joostbooy/Desktop/Code/stm32/lib/tinyusb/src/class/midi/midi_device.c **** 
 175:/Users/joostbooy/Desktop/Code/stm32/lib/tinyusb/src/class/midi/midi_device.c ****         default:
 176:/Users/joostbooy/Desktop/Code/stm32/lib/tinyusb/src/class/midi/midi_device.c ****           stream->total = 3;
 177:/Users/joostbooy/Desktop/Code/stm32/lib/tinyusb/src/class/midi/midi_device.c ****         break;
 178:/Users/joostbooy/Desktop/Code/stm32/lib/tinyusb/src/class/midi/midi_device.c ****       }
 179:/Users/joostbooy/Desktop/Code/stm32/lib/tinyusb/src/class/midi/midi_device.c ****     }
 180:/Users/joostbooy/Desktop/Code/stm32/lib/tinyusb/src/class/midi/midi_device.c **** 
 181:/Users/joostbooy/Desktop/Code/stm32/lib/tinyusb/src/class/midi/midi_device.c ****     // Copy data up to bufsize
 182:/Users/joostbooy/Desktop/Code/stm32/lib/tinyusb/src/class/midi/midi_device.c ****     uint8_t const count = (uint8_t) tu_min32(stream->total - stream->index, bufsize);
ARM GAS  /var/folders/84/_x1cyy_j36g486tldtwl37280000gn/T//ccHWsz3h.s 			page 7


 183:/Users/joostbooy/Desktop/Code/stm32/lib/tinyusb/src/class/midi/midi_device.c **** 
 184:/Users/joostbooy/Desktop/Code/stm32/lib/tinyusb/src/class/midi/midi_device.c ****     // Skip the header (1st byte) in the buffer
 185:/Users/joostbooy/Desktop/Code/stm32/lib/tinyusb/src/class/midi/midi_device.c ****     TU_VERIFY(0 == tu_memcpy_s(buf8, bufsize, stream->buffer + 1 + stream->index, count));
 186:/Users/joostbooy/Desktop/Code/stm32/lib/tinyusb/src/class/midi/midi_device.c **** 
 187:/Users/joostbooy/Desktop/Code/stm32/lib/tinyusb/src/class/midi/midi_device.c ****     total_read += count;
 188:/Users/joostbooy/Desktop/Code/stm32/lib/tinyusb/src/class/midi/midi_device.c ****     stream->index += count;
 189:/Users/joostbooy/Desktop/Code/stm32/lib/tinyusb/src/class/midi/midi_device.c ****     buf8 += count;
 190:/Users/joostbooy/Desktop/Code/stm32/lib/tinyusb/src/class/midi/midi_device.c ****     bufsize -= count;
 191:/Users/joostbooy/Desktop/Code/stm32/lib/tinyusb/src/class/midi/midi_device.c **** 
 192:/Users/joostbooy/Desktop/Code/stm32/lib/tinyusb/src/class/midi/midi_device.c ****     // complete current event packet, reset stream
 193:/Users/joostbooy/Desktop/Code/stm32/lib/tinyusb/src/class/midi/midi_device.c ****     if ( stream->total == stream->index )
 194:/Users/joostbooy/Desktop/Code/stm32/lib/tinyusb/src/class/midi/midi_device.c ****     {
 195:/Users/joostbooy/Desktop/Code/stm32/lib/tinyusb/src/class/midi/midi_device.c ****       stream->index = 0;
 196:/Users/joostbooy/Desktop/Code/stm32/lib/tinyusb/src/class/midi/midi_device.c ****       stream->total = 0;
 197:/Users/joostbooy/Desktop/Code/stm32/lib/tinyusb/src/class/midi/midi_device.c ****     }
 198:/Users/joostbooy/Desktop/Code/stm32/lib/tinyusb/src/class/midi/midi_device.c ****   }
 199:/Users/joostbooy/Desktop/Code/stm32/lib/tinyusb/src/class/midi/midi_device.c **** 
 200:/Users/joostbooy/Desktop/Code/stm32/lib/tinyusb/src/class/midi/midi_device.c ****   return total_read;
 201:/Users/joostbooy/Desktop/Code/stm32/lib/tinyusb/src/class/midi/midi_device.c **** }
 202:/Users/joostbooy/Desktop/Code/stm32/lib/tinyusb/src/class/midi/midi_device.c **** 
 203:/Users/joostbooy/Desktop/Code/stm32/lib/tinyusb/src/class/midi/midi_device.c **** bool tud_midi_n_packet_read (uint8_t itf, uint8_t packet[4])
 204:/Users/joostbooy/Desktop/Code/stm32/lib/tinyusb/src/class/midi/midi_device.c **** {
 205:/Users/joostbooy/Desktop/Code/stm32/lib/tinyusb/src/class/midi/midi_device.c ****   midid_interface_t* midi = &_midid_itf[itf];
 206:/Users/joostbooy/Desktop/Code/stm32/lib/tinyusb/src/class/midi/midi_device.c ****   TU_VERIFY(midi->ep_out);
 207:/Users/joostbooy/Desktop/Code/stm32/lib/tinyusb/src/class/midi/midi_device.c **** 
 208:/Users/joostbooy/Desktop/Code/stm32/lib/tinyusb/src/class/midi/midi_device.c ****   uint32_t const num_read = tu_fifo_read_n(&midi->rx_ff, packet, 4);
 209:/Users/joostbooy/Desktop/Code/stm32/lib/tinyusb/src/class/midi/midi_device.c ****   _prep_out_transaction(midi);
 210:/Users/joostbooy/Desktop/Code/stm32/lib/tinyusb/src/class/midi/midi_device.c ****   return (num_read == 4);
 211:/Users/joostbooy/Desktop/Code/stm32/lib/tinyusb/src/class/midi/midi_device.c **** }
 212:/Users/joostbooy/Desktop/Code/stm32/lib/tinyusb/src/class/midi/midi_device.c **** 
 213:/Users/joostbooy/Desktop/Code/stm32/lib/tinyusb/src/class/midi/midi_device.c **** //--------------------------------------------------------------------+
 214:/Users/joostbooy/Desktop/Code/stm32/lib/tinyusb/src/class/midi/midi_device.c **** // WRITE API
 215:/Users/joostbooy/Desktop/Code/stm32/lib/tinyusb/src/class/midi/midi_device.c **** //--------------------------------------------------------------------+
 216:/Users/joostbooy/Desktop/Code/stm32/lib/tinyusb/src/class/midi/midi_device.c **** 
 217:/Users/joostbooy/Desktop/Code/stm32/lib/tinyusb/src/class/midi/midi_device.c **** static uint32_t write_flush(midid_interface_t* midi)
 218:/Users/joostbooy/Desktop/Code/stm32/lib/tinyusb/src/class/midi/midi_device.c **** {
 146              		.loc 1 218 1 is_stmt 1 view -0
 147              		.cfi_startproc
 148              		@ args = 0, pretend = 0, frame = 0
 149              		@ frame_needed = 0, uses_anonymous_args = 0
 219:/Users/joostbooy/Desktop/Code/stm32/lib/tinyusb/src/class/midi/midi_device.c ****   // No data to send
 220:/Users/joostbooy/Desktop/Code/stm32/lib/tinyusb/src/class/midi/midi_device.c ****   if ( !tu_fifo_count(&midi->tx_ff) ) return 0;
 150              		.loc 1 220 3 view .LVU30
 218:/Users/joostbooy/Desktop/Code/stm32/lib/tinyusb/src/class/midi/midi_device.c ****   // No data to send
 151              		.loc 1 218 1 is_stmt 0 view .LVU31
 152 0000 70B5     		push	{r4, r5, r6, lr}
 153              		.cfi_def_cfa_offset 16
 154              		.cfi_offset 4, -16
 155              		.cfi_offset 5, -12
 156              		.cfi_offset 6, -8
 157              		.cfi_offset 14, -4
 158              		.loc 1 220 9 view .LVU32
 159 0002 00F11C05 		add	r5, r0, #28
 218:/Users/joostbooy/Desktop/Code/stm32/lib/tinyusb/src/class/midi/midi_device.c ****   // No data to send
 160              		.loc 1 218 1 view .LVU33
 161 0006 0446     		mov	r4, r0
 162              		.loc 1 220 9 view .LVU34
ARM GAS  /var/folders/84/_x1cyy_j36g486tldtwl37280000gn/T//ccHWsz3h.s 			page 8


 163 0008 2846     		mov	r0, r5
 164              	.LVL16:
 165              		.loc 1 220 9 view .LVU35
 166 000a FFF7FEFF 		bl	tu_fifo_count
 167              	.LVL17:
 168              		.loc 1 220 6 view .LVU36
 169 000e 08B9     		cbnz	r0, .L13
 170              	.L15:
 171              		.loc 1 220 46 view .LVU37
 172 0010 0020     		movs	r0, #0
 221:/Users/joostbooy/Desktop/Code/stm32/lib/tinyusb/src/class/midi/midi_device.c **** 
 222:/Users/joostbooy/Desktop/Code/stm32/lib/tinyusb/src/class/midi/midi_device.c ****   uint8_t const rhport = 0;
 223:/Users/joostbooy/Desktop/Code/stm32/lib/tinyusb/src/class/midi/midi_device.c **** 
 224:/Users/joostbooy/Desktop/Code/stm32/lib/tinyusb/src/class/midi/midi_device.c ****   // skip if previous transfer not complete
 225:/Users/joostbooy/Desktop/Code/stm32/lib/tinyusb/src/class/midi/midi_device.c ****   TU_VERIFY( usbd_edpt_claim(rhport, midi->ep_in), 0 );
 226:/Users/joostbooy/Desktop/Code/stm32/lib/tinyusb/src/class/midi/midi_device.c **** 
 227:/Users/joostbooy/Desktop/Code/stm32/lib/tinyusb/src/class/midi/midi_device.c ****   uint16_t count = tu_fifo_read_n(&midi->tx_ff, midi->epin_buf, CFG_TUD_MIDI_EP_BUFSIZE);
 228:/Users/joostbooy/Desktop/Code/stm32/lib/tinyusb/src/class/midi/midi_device.c **** 
 229:/Users/joostbooy/Desktop/Code/stm32/lib/tinyusb/src/class/midi/midi_device.c ****   if (count)
 230:/Users/joostbooy/Desktop/Code/stm32/lib/tinyusb/src/class/midi/midi_device.c ****   {
 231:/Users/joostbooy/Desktop/Code/stm32/lib/tinyusb/src/class/midi/midi_device.c ****     TU_ASSERT( usbd_edpt_xfer(rhport, midi->ep_in, midi->epin_buf, count), 0 );
 232:/Users/joostbooy/Desktop/Code/stm32/lib/tinyusb/src/class/midi/midi_device.c ****     return count;
 233:/Users/joostbooy/Desktop/Code/stm32/lib/tinyusb/src/class/midi/midi_device.c ****   }else
 234:/Users/joostbooy/Desktop/Code/stm32/lib/tinyusb/src/class/midi/midi_device.c ****   {
 235:/Users/joostbooy/Desktop/Code/stm32/lib/tinyusb/src/class/midi/midi_device.c ****     // Release endpoint since we don't make any transfer
 236:/Users/joostbooy/Desktop/Code/stm32/lib/tinyusb/src/class/midi/midi_device.c ****     usbd_edpt_release(rhport, midi->ep_in);
 237:/Users/joostbooy/Desktop/Code/stm32/lib/tinyusb/src/class/midi/midi_device.c ****     return 0;
 238:/Users/joostbooy/Desktop/Code/stm32/lib/tinyusb/src/class/midi/midi_device.c ****   }
 239:/Users/joostbooy/Desktop/Code/stm32/lib/tinyusb/src/class/midi/midi_device.c **** }
 173              		.loc 1 239 1 view .LVU38
 174 0012 70BD     		pop	{r4, r5, r6, pc}
 175              	.LVL18:
 176              	.L13:
 222:/Users/joostbooy/Desktop/Code/stm32/lib/tinyusb/src/class/midi/midi_device.c **** 
 177              		.loc 1 222 3 is_stmt 1 view .LVU39
 225:/Users/joostbooy/Desktop/Code/stm32/lib/tinyusb/src/class/midi/midi_device.c **** 
 178              		.loc 1 225 3 view .LVU40
 225:/Users/joostbooy/Desktop/Code/stm32/lib/tinyusb/src/class/midi/midi_device.c **** 
 179              		.loc 1 225 3 view .LVU41
 180 0014 6178     		ldrb	r1, [r4, #1]	@ zero_extendqisi2
 181 0016 0020     		movs	r0, #0
 182 0018 FFF7FEFF 		bl	usbd_edpt_claim
 183              	.LVL19:
 184 001c 0028     		cmp	r0, #0
 185 001e F7D0     		beq	.L15
 225:/Users/joostbooy/Desktop/Code/stm32/lib/tinyusb/src/class/midi/midi_device.c **** 
 186              		.loc 1 225 3 discriminator 2 view .LVU42
 227:/Users/joostbooy/Desktop/Code/stm32/lib/tinyusb/src/class/midi/midi_device.c **** 
 187              		.loc 1 227 3 discriminator 2 view .LVU43
 227:/Users/joostbooy/Desktop/Code/stm32/lib/tinyusb/src/class/midi/midi_device.c **** 
 188              		.loc 1 227 53 is_stmt 0 discriminator 2 view .LVU44
 189 0020 04F1E806 		add	r6, r4, #232
 227:/Users/joostbooy/Desktop/Code/stm32/lib/tinyusb/src/class/midi/midi_device.c **** 
 190              		.loc 1 227 20 discriminator 2 view .LVU45
 191 0024 2846     		mov	r0, r5
 192 0026 3146     		mov	r1, r6
 193 0028 4022     		movs	r2, #64
ARM GAS  /var/folders/84/_x1cyy_j36g486tldtwl37280000gn/T//ccHWsz3h.s 			page 9


 194 002a FFF7FEFF 		bl	tu_fifo_read_n
 195              	.LVL20:
 229:/Users/joostbooy/Desktop/Code/stm32/lib/tinyusb/src/class/midi/midi_device.c ****   {
 196              		.loc 1 229 3 is_stmt 1 discriminator 2 view .LVU46
 229:/Users/joostbooy/Desktop/Code/stm32/lib/tinyusb/src/class/midi/midi_device.c ****   {
 197              		.loc 1 229 6 is_stmt 0 discriminator 2 view .LVU47
 198 002e 0546     		mov	r5, r0
 199 0030 60B1     		cbz	r0, .L16
 231:/Users/joostbooy/Desktop/Code/stm32/lib/tinyusb/src/class/midi/midi_device.c ****     return count;
 200              		.loc 1 231 5 is_stmt 1 view .LVU48
 231:/Users/joostbooy/Desktop/Code/stm32/lib/tinyusb/src/class/midi/midi_device.c ****     return count;
 201              		.loc 1 231 5 view .LVU49
 202 0032 0346     		mov	r3, r0
 203 0034 6178     		ldrb	r1, [r4, #1]	@ zero_extendqisi2
 204 0036 3246     		mov	r2, r6
 205 0038 0020     		movs	r0, #0
 206              	.LVL21:
 231:/Users/joostbooy/Desktop/Code/stm32/lib/tinyusb/src/class/midi/midi_device.c ****     return count;
 207              		.loc 1 231 5 is_stmt 0 view .LVU50
 208 003a FFF7FEFF 		bl	usbd_edpt_xfer
 209              	.LVL22:
 210 003e 40B9     		cbnz	r0, .L25
 211              	.LBB50:
 212              	.LBI50:
 217:/Users/joostbooy/Desktop/Code/stm32/lib/tinyusb/src/class/midi/midi_device.c **** {
 213              		.loc 1 217 17 is_stmt 1 view .LVU51
 214              	.LVL23:
 215              	.LBB51:
 231:/Users/joostbooy/Desktop/Code/stm32/lib/tinyusb/src/class/midi/midi_device.c ****     return count;
 216              		.loc 1 231 5 view .LVU52
 231:/Users/joostbooy/Desktop/Code/stm32/lib/tinyusb/src/class/midi/midi_device.c ****     return count;
 217              		.loc 1 231 5 view .LVU53
 231:/Users/joostbooy/Desktop/Code/stm32/lib/tinyusb/src/class/midi/midi_device.c ****     return count;
 218              		.loc 1 231 5 view .LVU54
 231:/Users/joostbooy/Desktop/Code/stm32/lib/tinyusb/src/class/midi/midi_device.c ****     return count;
 219              		.loc 1 231 5 view .LVU55
 220              	.LBB52:
 231:/Users/joostbooy/Desktop/Code/stm32/lib/tinyusb/src/class/midi/midi_device.c ****     return count;
 221              		.loc 1 231 5 view .LVU56
 231:/Users/joostbooy/Desktop/Code/stm32/lib/tinyusb/src/class/midi/midi_device.c ****     return count;
 222              		.loc 1 231 5 view .LVU57
 223 0040 054B     		ldr	r3, .L26
 224 0042 1968     		ldr	r1, [r3]
 225 0044 CB07     		lsls	r3, r1, #31
 226 0046 E3D5     		bpl	.L15
 231:/Users/joostbooy/Desktop/Code/stm32/lib/tinyusb/src/class/midi/midi_device.c ****     return count;
 227              		.loc 1 231 5 view .LVU58
 228              		.syntax unified
 229              	@ 231 "/Users/joostbooy/Desktop/Code/stm32/lib/tinyusb/src/class/midi/midi_device.c" 1
 230 0048 00BE     		BKPT #0
 231              	
 232              	@ 0 "" 2
 233              		.thumb
 234              		.syntax unified
 235              	.LBE52:
 236              	.LBE51:
 237              	.LBE50:
ARM GAS  /var/folders/84/_x1cyy_j36g486tldtwl37280000gn/T//ccHWsz3h.s 			page 10


 238              		.loc 1 239 1 is_stmt 0 view .LVU59
 239 004a 70BD     		pop	{r4, r5, r6, pc}
 240              	.LVL24:
 241              	.L16:
 236:/Users/joostbooy/Desktop/Code/stm32/lib/tinyusb/src/class/midi/midi_device.c ****     return 0;
 242              		.loc 1 236 5 is_stmt 1 view .LVU60
 243 004c 6178     		ldrb	r1, [r4, #1]	@ zero_extendqisi2
 244 004e FFF7FEFF 		bl	usbd_edpt_release
 245              	.LVL25:
 246              	.L25:
 237:/Users/joostbooy/Desktop/Code/stm32/lib/tinyusb/src/class/midi/midi_device.c ****   }
 247              		.loc 1 237 5 view .LVU61
 237:/Users/joostbooy/Desktop/Code/stm32/lib/tinyusb/src/class/midi/midi_device.c ****   }
 248              		.loc 1 237 12 is_stmt 0 view .LVU62
 249 0052 2846     		mov	r0, r5
 250              		.loc 1 239 1 view .LVU63
 251 0054 70BD     		pop	{r4, r5, r6, pc}
 252              	.LVL26:
 253              	.L27:
 254              		.loc 1 239 1 view .LVU64
 255 0056 00BF     		.align	2
 256              	.L26:
 257 0058 F0ED00E0 		.word	-536810000
 258              		.cfi_endproc
 259              	.LFE76:
 261              		.section	.text.tud_midi_n_mounted,"ax",%progbits
 262              		.align	1
 263              		.p2align 2,,3
 264              		.global	tud_midi_n_mounted
 265              		.syntax unified
 266              		.thumb
 267              		.thumb_func
 268              		.fpu fpv4-sp-d16
 270              	tud_midi_n_mounted:
 271              	.LVL27:
 272              	.LFB71:
  88:/Users/joostbooy/Desktop/Code/stm32/lib/tinyusb/src/class/midi/midi_device.c ****   midid_interface_t* midi = &_midid_itf[itf];
 273              		.loc 1 88 1 is_stmt 1 view -0
 274              		.cfi_startproc
 275              		@ args = 0, pretend = 0, frame = 0
 276              		@ frame_needed = 0, uses_anonymous_args = 0
 277              		@ link register save eliminated.
  89:/Users/joostbooy/Desktop/Code/stm32/lib/tinyusb/src/class/midi/midi_device.c ****   return midi->ep_in && midi->ep_out;
 278              		.loc 1 89 3 view .LVU66
  90:/Users/joostbooy/Desktop/Code/stm32/lib/tinyusb/src/class/midi/midi_device.c **** }
 279              		.loc 1 90 14 is_stmt 0 view .LVU67
 280 0000 054B     		ldr	r3, .L31
 281              	.LVL28:
  90:/Users/joostbooy/Desktop/Code/stm32/lib/tinyusb/src/class/midi/midi_device.c **** }
 282              		.loc 1 90 3 is_stmt 1 view .LVU68
  90:/Users/joostbooy/Desktop/Code/stm32/lib/tinyusb/src/class/midi/midi_device.c **** }
 283              		.loc 1 90 14 is_stmt 0 view .LVU69
 284 0002 4FF49472 		mov	r2, #296
 285 0006 02FB0031 		mla	r1, r2, r0, r3
 286              	.LVL29:
  90:/Users/joostbooy/Desktop/Code/stm32/lib/tinyusb/src/class/midi/midi_device.c **** }
 287              		.loc 1 90 22 view .LVU70
ARM GAS  /var/folders/84/_x1cyy_j36g486tldtwl37280000gn/T//ccHWsz3h.s 			page 11


 288 000a 4878     		ldrb	r0, [r1, #1]	@ zero_extendqisi2
 289              	.LVL30:
  90:/Users/joostbooy/Desktop/Code/stm32/lib/tinyusb/src/class/midi/midi_device.c **** }
 290              		.loc 1 90 22 view .LVU71
 291 000c 18B1     		cbz	r0, .L29
  90:/Users/joostbooy/Desktop/Code/stm32/lib/tinyusb/src/class/midi/midi_device.c **** }
 292              		.loc 1 90 22 discriminator 1 view .LVU72
 293 000e 8878     		ldrb	r0, [r1, #2]	@ zero_extendqisi2
 294 0010 0038     		subs	r0, r0, #0
 295 0012 18BF     		it	ne
 296 0014 0120     		movne	r0, #1
 297              	.L29:
  91:/Users/joostbooy/Desktop/Code/stm32/lib/tinyusb/src/class/midi/midi_device.c **** 
 298              		.loc 1 91 1 discriminator 6 view .LVU73
 299 0016 7047     		bx	lr
 300              	.L32:
 301              		.align	2
 302              	.L31:
 303 0018 00000000 		.word	_midid_itf
 304              		.cfi_endproc
 305              	.LFE71:
 307              		.section	.text.tud_midi_n_available,"ax",%progbits
 308              		.align	1
 309              		.p2align 2,,3
 310              		.global	tud_midi_n_available
 311              		.syntax unified
 312              		.thumb
 313              		.thumb_func
 314              		.fpu fpv4-sp-d16
 316              	tud_midi_n_available:
 317              	.LVL31:
 318              	.LFB73:
 123:/Users/joostbooy/Desktop/Code/stm32/lib/tinyusb/src/class/midi/midi_device.c ****   (void) cable_num;
 319              		.loc 1 123 1 is_stmt 1 view -0
 320              		.cfi_startproc
 321              		@ args = 0, pretend = 0, frame = 0
 322              		@ frame_needed = 0, uses_anonymous_args = 0
 124:/Users/joostbooy/Desktop/Code/stm32/lib/tinyusb/src/class/midi/midi_device.c **** 
 323              		.loc 1 124 3 view .LVU75
 126:/Users/joostbooy/Desktop/Code/stm32/lib/tinyusb/src/class/midi/midi_device.c ****   midid_stream_t const* stream = &midi->stream_read;
 324              		.loc 1 126 3 view .LVU76
 127:/Users/joostbooy/Desktop/Code/stm32/lib/tinyusb/src/class/midi/midi_device.c **** 
 325              		.loc 1 127 3 view .LVU77
 130:/Users/joostbooy/Desktop/Code/stm32/lib/tinyusb/src/class/midi/midi_device.c **** }
 326              		.loc 1 130 3 view .LVU78
 123:/Users/joostbooy/Desktop/Code/stm32/lib/tinyusb/src/class/midi/midi_device.c ****   (void) cable_num;
 327              		.loc 1 123 1 is_stmt 0 view .LVU79
 328 0000 38B5     		push	{r3, r4, r5, lr}
 329              		.cfi_def_cfa_offset 16
 330              		.cfi_offset 3, -16
 331              		.cfi_offset 4, -12
 332              		.cfi_offset 5, -8
 333              		.cfi_offset 14, -4
 130:/Users/joostbooy/Desktop/Code/stm32/lib/tinyusb/src/class/midi/midi_device.c **** }
 334              		.loc 1 130 10 view .LVU80
 335 0002 4FF49473 		mov	r3, #296
 336 0006 03FB00F5 		mul	r5, r3, r0
ARM GAS  /var/folders/84/_x1cyy_j36g486tldtwl37280000gn/T//ccHWsz3h.s 			page 12


 337 000a 064C     		ldr	r4, .L35
 338 000c 05F11000 		add	r0, r5, #16
 339              	.LVL32:
 130:/Users/joostbooy/Desktop/Code/stm32/lib/tinyusb/src/class/midi/midi_device.c **** }
 340              		.loc 1 130 10 view .LVU81
 341 0010 2044     		add	r0, r0, r4
 130:/Users/joostbooy/Desktop/Code/stm32/lib/tinyusb/src/class/midi/midi_device.c **** }
 342              		.loc 1 130 57 view .LVU82
 343 0012 2C44     		add	r4, r4, r5
 344              	.LVL33:
 130:/Users/joostbooy/Desktop/Code/stm32/lib/tinyusb/src/class/midi/midi_device.c **** }
 345              		.loc 1 130 10 view .LVU83
 346 0014 FFF7FEFF 		bl	tu_fifo_count
 347              	.LVL34:
 130:/Users/joostbooy/Desktop/Code/stm32/lib/tinyusb/src/class/midi/midi_device.c **** }
 348              		.loc 1 130 40 view .LVU84
 349 0018 A17B     		ldrb	r1, [r4, #14]	@ zero_extendqisi2
 350 001a 627B     		ldrb	r2, [r4, #13]	@ zero_extendqisi2
 351 001c 8B1A     		subs	r3, r1, r2
 131:/Users/joostbooy/Desktop/Code/stm32/lib/tinyusb/src/class/midi/midi_device.c **** 
 352              		.loc 1 131 1 view .LVU85
 353 001e 50FA83F0 		uxtab	r0, r0, r3
 354 0022 38BD     		pop	{r3, r4, r5, pc}
 355              	.LVL35:
 356              	.L36:
 131:/Users/joostbooy/Desktop/Code/stm32/lib/tinyusb/src/class/midi/midi_device.c **** 
 357              		.loc 1 131 1 view .LVU86
 358              		.align	2
 359              	.L35:
 360 0024 00000000 		.word	_midid_itf
 361              		.cfi_endproc
 362              	.LFE73:
 364              		.section	.text.tud_midi_n_packet_read,"ax",%progbits
 365              		.align	1
 366              		.p2align 2,,3
 367              		.global	tud_midi_n_packet_read
 368              		.syntax unified
 369              		.thumb
 370              		.thumb_func
 371              		.fpu fpv4-sp-d16
 373              	tud_midi_n_packet_read:
 374              	.LVL36:
 375              	.LFB75:
 204:/Users/joostbooy/Desktop/Code/stm32/lib/tinyusb/src/class/midi/midi_device.c ****   midid_interface_t* midi = &_midid_itf[itf];
 376              		.loc 1 204 1 is_stmt 1 view -0
 377              		.cfi_startproc
 378              		@ args = 0, pretend = 0, frame = 0
 379              		@ frame_needed = 0, uses_anonymous_args = 0
 205:/Users/joostbooy/Desktop/Code/stm32/lib/tinyusb/src/class/midi/midi_device.c ****   TU_VERIFY(midi->ep_out);
 380              		.loc 1 205 3 view .LVU88
 206:/Users/joostbooy/Desktop/Code/stm32/lib/tinyusb/src/class/midi/midi_device.c **** 
 381              		.loc 1 206 3 view .LVU89
 206:/Users/joostbooy/Desktop/Code/stm32/lib/tinyusb/src/class/midi/midi_device.c **** 
 382              		.loc 1 206 3 view .LVU90
 204:/Users/joostbooy/Desktop/Code/stm32/lib/tinyusb/src/class/midi/midi_device.c ****   midid_interface_t* midi = &_midid_itf[itf];
 383              		.loc 1 204 1 is_stmt 0 view .LVU91
 384 0000 38B5     		push	{r3, r4, r5, lr}
ARM GAS  /var/folders/84/_x1cyy_j36g486tldtwl37280000gn/T//ccHWsz3h.s 			page 13


 385              		.cfi_def_cfa_offset 16
 386              		.cfi_offset 3, -16
 387              		.cfi_offset 4, -12
 388              		.cfi_offset 5, -8
 389              		.cfi_offset 14, -4
 206:/Users/joostbooy/Desktop/Code/stm32/lib/tinyusb/src/class/midi/midi_device.c **** 
 390              		.loc 1 206 3 view .LVU92
 391 0002 4FF49472 		mov	r2, #296
 392 0006 0B4C     		ldr	r4, .L42
 393 0008 02FB00F3 		mul	r3, r2, r0
 394 000c E518     		adds	r5, r4, r3
 395 000e A878     		ldrb	r0, [r5, #2]	@ zero_extendqisi2
 396              	.LVL37:
 206:/Users/joostbooy/Desktop/Code/stm32/lib/tinyusb/src/class/midi/midi_device.c **** 
 397              		.loc 1 206 3 view .LVU93
 398 0010 00B9     		cbnz	r0, .L41
 211:/Users/joostbooy/Desktop/Code/stm32/lib/tinyusb/src/class/midi/midi_device.c **** 
 399              		.loc 1 211 1 view .LVU94
 400 0012 38BD     		pop	{r3, r4, r5, pc}
 401              	.L41:
 206:/Users/joostbooy/Desktop/Code/stm32/lib/tinyusb/src/class/midi/midi_device.c **** 
 402              		.loc 1 206 3 is_stmt 1 discriminator 2 view .LVU95
 208:/Users/joostbooy/Desktop/Code/stm32/lib/tinyusb/src/class/midi/midi_device.c ****   _prep_out_transaction(midi);
 403              		.loc 1 208 3 discriminator 2 view .LVU96
 208:/Users/joostbooy/Desktop/Code/stm32/lib/tinyusb/src/class/midi/midi_device.c ****   _prep_out_transaction(midi);
 404              		.loc 1 208 29 is_stmt 0 discriminator 2 view .LVU97
 405 0014 1033     		adds	r3, r3, #16
 406 0016 E018     		adds	r0, r4, r3
 407 0018 0422     		movs	r2, #4
 408 001a FFF7FEFF 		bl	tu_fifo_read_n
 409              	.LVL38:
 208:/Users/joostbooy/Desktop/Code/stm32/lib/tinyusb/src/class/midi/midi_device.c ****   _prep_out_transaction(midi);
 410              		.loc 1 208 29 discriminator 2 view .LVU98
 411 001e 0446     		mov	r4, r0
 412              	.LVL39:
 209:/Users/joostbooy/Desktop/Code/stm32/lib/tinyusb/src/class/midi/midi_device.c ****   return (num_read == 4);
 413              		.loc 1 209 3 is_stmt 1 discriminator 2 view .LVU99
 414 0020 2846     		mov	r0, r5
 415 0022 FFF7FEFF 		bl	_prep_out_transaction
 416              	.LVL40:
 210:/Users/joostbooy/Desktop/Code/stm32/lib/tinyusb/src/class/midi/midi_device.c **** }
 417              		.loc 1 210 3 discriminator 2 view .LVU100
 210:/Users/joostbooy/Desktop/Code/stm32/lib/tinyusb/src/class/midi/midi_device.c **** }
 418              		.loc 1 210 20 is_stmt 0 discriminator 2 view .LVU101
 419 0026 A4F10400 		sub	r0, r4, #4
 420 002a B0FA80F1 		clz	r1, r0
 421 002e 4809     		lsrs	r0, r1, #5
 211:/Users/joostbooy/Desktop/Code/stm32/lib/tinyusb/src/class/midi/midi_device.c **** 
 422              		.loc 1 211 1 discriminator 2 view .LVU102
 423 0030 38BD     		pop	{r3, r4, r5, pc}
 424              	.LVL41:
 425              	.L43:
 211:/Users/joostbooy/Desktop/Code/stm32/lib/tinyusb/src/class/midi/midi_device.c **** 
 426              		.loc 1 211 1 discriminator 2 view .LVU103
 427 0032 00BF     		.align	2
 428              	.L42:
 429 0034 00000000 		.word	_midid_itf
ARM GAS  /var/folders/84/_x1cyy_j36g486tldtwl37280000gn/T//ccHWsz3h.s 			page 14


 430              		.cfi_endproc
 431              	.LFE75:
 433              		.section	.text.tud_midi_n_stream_read,"ax",%progbits
 434              		.align	1
 435              		.p2align 2,,3
 436              		.global	tud_midi_n_stream_read
 437              		.syntax unified
 438              		.thumb
 439              		.thumb_func
 440              		.fpu fpv4-sp-d16
 442              	tud_midi_n_stream_read:
 443              	.LVL42:
 444              	.LFB74:
 134:/Users/joostbooy/Desktop/Code/stm32/lib/tinyusb/src/class/midi/midi_device.c ****   (void) cable_num;
 445              		.loc 1 134 1 is_stmt 1 view -0
 446              		.cfi_startproc
 447              		@ args = 0, pretend = 0, frame = 0
 448              		@ frame_needed = 0, uses_anonymous_args = 0
 135:/Users/joostbooy/Desktop/Code/stm32/lib/tinyusb/src/class/midi/midi_device.c ****   TU_VERIFY(bufsize, 0);
 449              		.loc 1 135 3 view .LVU105
 136:/Users/joostbooy/Desktop/Code/stm32/lib/tinyusb/src/class/midi/midi_device.c **** 
 450              		.loc 1 136 3 view .LVU106
 136:/Users/joostbooy/Desktop/Code/stm32/lib/tinyusb/src/class/midi/midi_device.c **** 
 451              		.loc 1 136 3 view .LVU107
 134:/Users/joostbooy/Desktop/Code/stm32/lib/tinyusb/src/class/midi/midi_device.c ****   (void) cable_num;
 452              		.loc 1 134 1 is_stmt 0 view .LVU108
 453 0000 2DE9F84F 		push	{r3, r4, r5, r6, r7, r8, r9, r10, fp, lr}
 454              		.cfi_def_cfa_offset 40
 455              		.cfi_offset 3, -40
 456              		.cfi_offset 4, -36
 457              		.cfi_offset 5, -32
 458              		.cfi_offset 6, -28
 459              		.cfi_offset 7, -24
 460              		.cfi_offset 8, -20
 461              		.cfi_offset 9, -16
 462              		.cfi_offset 10, -12
 463              		.cfi_offset 11, -8
 464              		.cfi_offset 14, -4
 136:/Users/joostbooy/Desktop/Code/stm32/lib/tinyusb/src/class/midi/midi_device.c **** 
 465              		.loc 1 136 3 view .LVU109
 466 0004 002B     		cmp	r3, #0
 467 0006 59D0     		beq	.L56
 468 0008 8246     		mov	r10, r0
 469              	.LBB53:
 470              	.LBB54:
 150:/Users/joostbooy/Desktop/Code/stm32/lib/tinyusb/src/class/midi/midi_device.c **** 
 471              		.loc 1 150 47 discriminator 2 view .LVU110
 472 000a 4FF49470 		mov	r0, #296
 473              	.LVL43:
 150:/Users/joostbooy/Desktop/Code/stm32/lib/tinyusb/src/class/midi/midi_device.c **** 
 474              		.loc 1 150 47 discriminator 2 view .LVU111
 475 000e 3A4F     		ldr	r7, .L64
 476 0010 00FB0AF9 		mul	r9, r0, r10
 477 0014 09F10909 		add	r9, r9, #9
 478 0018 1646     		mov	r6, r2
 479 001a 1D46     		mov	r5, r3
 480              	.LBE54:
ARM GAS  /var/folders/84/_x1cyy_j36g486tldtwl37280000gn/T//ccHWsz3h.s 			page 15


 481              	.LBE53:
 136:/Users/joostbooy/Desktop/Code/stm32/lib/tinyusb/src/class/midi/midi_device.c **** 
 482              		.loc 1 136 3 is_stmt 1 discriminator 2 view .LVU112
 138:/Users/joostbooy/Desktop/Code/stm32/lib/tinyusb/src/class/midi/midi_device.c **** 
 483              		.loc 1 138 3 discriminator 2 view .LVU113
 484              	.LVL44:
 140:/Users/joostbooy/Desktop/Code/stm32/lib/tinyusb/src/class/midi/midi_device.c ****   midid_stream_t* stream = &midi->stream_read;
 485              		.loc 1 140 3 discriminator 2 view .LVU114
 141:/Users/joostbooy/Desktop/Code/stm32/lib/tinyusb/src/class/midi/midi_device.c **** 
 486              		.loc 1 141 3 discriminator 2 view .LVU115
 143:/Users/joostbooy/Desktop/Code/stm32/lib/tinyusb/src/class/midi/midi_device.c ****   while( bufsize )
 487              		.loc 1 143 3 discriminator 2 view .LVU116
 144:/Users/joostbooy/Desktop/Code/stm32/lib/tinyusb/src/class/midi/midi_device.c ****   {
 488              		.loc 1 144 3 discriminator 2 view .LVU117
 144:/Users/joostbooy/Desktop/Code/stm32/lib/tinyusb/src/class/midi/midi_device.c ****   {
 489              		.loc 1 144 8 discriminator 2 view .LVU118
 490              	.LBB66:
 491              	.LBB55:
 150:/Users/joostbooy/Desktop/Code/stm32/lib/tinyusb/src/class/midi/midi_device.c **** 
 492              		.loc 1 150 47 is_stmt 0 discriminator 2 view .LVU119
 493 001c B944     		add	r9, r9, r7
 494              	.LBE55:
 495              	.LBE66:
 143:/Users/joostbooy/Desktop/Code/stm32/lib/tinyusb/src/class/midi/midi_device.c ****   while( bufsize )
 496              		.loc 1 143 12 discriminator 2 view .LVU120
 497 001e 4FF00008 		mov	r8, #0
 498              	.LVL45:
 499              	.L55:
 500              	.LBB67:
 147:/Users/joostbooy/Desktop/Code/stm32/lib/tinyusb/src/class/midi/midi_device.c ****     {
 501              		.loc 1 147 5 is_stmt 1 view .LVU121
 147:/Users/joostbooy/Desktop/Code/stm32/lib/tinyusb/src/class/midi/midi_device.c ****     {
 502              		.loc 1 147 16 is_stmt 0 view .LVU122
 503 0022 4FF49471 		mov	r1, #296
 504 0026 01FB0A7B 		mla	fp, r1, r10, r7
 505 002a 9BF80E30 		ldrb	r3, [fp, #14]	@ zero_extendqisi2
 147:/Users/joostbooy/Desktop/Code/stm32/lib/tinyusb/src/class/midi/midi_device.c ****     {
 506              		.loc 1 147 8 view .LVU123
 507 002e 7BB3     		cbz	r3, .L62
 508              	.L48:
 182:/Users/joostbooy/Desktop/Code/stm32/lib/tinyusb/src/class/midi/midi_device.c **** 
 509              		.loc 1 182 5 is_stmt 1 view .LVU124
 182:/Users/joostbooy/Desktop/Code/stm32/lib/tinyusb/src/class/midi/midi_device.c **** 
 510              		.loc 1 182 68 is_stmt 0 view .LVU125
 511 0030 4FF49474 		mov	r4, #296
 512 0034 04FB0A7B 		mla	fp, r4, r10, r7
 513 0038 9BF80D10 		ldrb	r1, [fp, #13]	@ zero_extendqisi2
 514              	.LVL46:
 515              	.LBB56:
 516              	.LBI56:
 517              		.file 2 "/Users/joostbooy/Desktop/Code/stm32/lib/tinyusb/src/common/tusb_common.h"
   1:/Users/joostbooy/Desktop/Code/stm32/lib/tinyusb/src/common/tusb_common.h **** /*
   2:/Users/joostbooy/Desktop/Code/stm32/lib/tinyusb/src/common/tusb_common.h ****  * The MIT License (MIT)
   3:/Users/joostbooy/Desktop/Code/stm32/lib/tinyusb/src/common/tusb_common.h ****  *
   4:/Users/joostbooy/Desktop/Code/stm32/lib/tinyusb/src/common/tusb_common.h ****  * Copyright (c) 2019 Ha Thach (tinyusb.org)
   5:/Users/joostbooy/Desktop/Code/stm32/lib/tinyusb/src/common/tusb_common.h ****  *
   6:/Users/joostbooy/Desktop/Code/stm32/lib/tinyusb/src/common/tusb_common.h ****  * Permission is hereby granted, free of charge, to any person obtaining a copy
ARM GAS  /var/folders/84/_x1cyy_j36g486tldtwl37280000gn/T//ccHWsz3h.s 			page 16


   7:/Users/joostbooy/Desktop/Code/stm32/lib/tinyusb/src/common/tusb_common.h ****  * of this software and associated documentation files (the "Software"), to deal
   8:/Users/joostbooy/Desktop/Code/stm32/lib/tinyusb/src/common/tusb_common.h ****  * in the Software without restriction, including without limitation the rights
   9:/Users/joostbooy/Desktop/Code/stm32/lib/tinyusb/src/common/tusb_common.h ****  * to use, copy, modify, merge, publish, distribute, sublicense, and/or sell
  10:/Users/joostbooy/Desktop/Code/stm32/lib/tinyusb/src/common/tusb_common.h ****  * copies of the Software, and to permit persons to whom the Software is
  11:/Users/joostbooy/Desktop/Code/stm32/lib/tinyusb/src/common/tusb_common.h ****  * furnished to do so, subject to the following conditions:
  12:/Users/joostbooy/Desktop/Code/stm32/lib/tinyusb/src/common/tusb_common.h ****  *
  13:/Users/joostbooy/Desktop/Code/stm32/lib/tinyusb/src/common/tusb_common.h ****  * The above copyright notice and this permission notice shall be included in
  14:/Users/joostbooy/Desktop/Code/stm32/lib/tinyusb/src/common/tusb_common.h ****  * all copies or substantial portions of the Software.
  15:/Users/joostbooy/Desktop/Code/stm32/lib/tinyusb/src/common/tusb_common.h ****  *
  16:/Users/joostbooy/Desktop/Code/stm32/lib/tinyusb/src/common/tusb_common.h ****  * THE SOFTWARE IS PROVIDED "AS IS", WITHOUT WARRANTY OF ANY KIND, EXPRESS OR
  17:/Users/joostbooy/Desktop/Code/stm32/lib/tinyusb/src/common/tusb_common.h ****  * IMPLIED, INCLUDING BUT NOT LIMITED TO THE WARRANTIES OF MERCHANTABILITY,
  18:/Users/joostbooy/Desktop/Code/stm32/lib/tinyusb/src/common/tusb_common.h ****  * FITNESS FOR A PARTICULAR PURPOSE AND NONINFRINGEMENT. IN NO EVENT SHALL THE
  19:/Users/joostbooy/Desktop/Code/stm32/lib/tinyusb/src/common/tusb_common.h ****  * AUTHORS OR COPYRIGHT HOLDERS BE LIABLE FOR ANY CLAIM, DAMAGES OR OTHER
  20:/Users/joostbooy/Desktop/Code/stm32/lib/tinyusb/src/common/tusb_common.h ****  * LIABILITY, WHETHER IN AN ACTION OF CONTRACT, TORT OR OTHERWISE, ARISING FROM,
  21:/Users/joostbooy/Desktop/Code/stm32/lib/tinyusb/src/common/tusb_common.h ****  * OUT OF OR IN CONNECTION WITH THE SOFTWARE OR THE USE OR OTHER DEALINGS IN
  22:/Users/joostbooy/Desktop/Code/stm32/lib/tinyusb/src/common/tusb_common.h ****  * THE SOFTWARE.
  23:/Users/joostbooy/Desktop/Code/stm32/lib/tinyusb/src/common/tusb_common.h ****  *
  24:/Users/joostbooy/Desktop/Code/stm32/lib/tinyusb/src/common/tusb_common.h ****  * This file is part of the TinyUSB stack.
  25:/Users/joostbooy/Desktop/Code/stm32/lib/tinyusb/src/common/tusb_common.h ****  */
  26:/Users/joostbooy/Desktop/Code/stm32/lib/tinyusb/src/common/tusb_common.h **** 
  27:/Users/joostbooy/Desktop/Code/stm32/lib/tinyusb/src/common/tusb_common.h **** #ifndef _TUSB_COMMON_H_
  28:/Users/joostbooy/Desktop/Code/stm32/lib/tinyusb/src/common/tusb_common.h **** #define _TUSB_COMMON_H_
  29:/Users/joostbooy/Desktop/Code/stm32/lib/tinyusb/src/common/tusb_common.h **** 
  30:/Users/joostbooy/Desktop/Code/stm32/lib/tinyusb/src/common/tusb_common.h **** #ifdef __cplusplus
  31:/Users/joostbooy/Desktop/Code/stm32/lib/tinyusb/src/common/tusb_common.h ****  extern "C" {
  32:/Users/joostbooy/Desktop/Code/stm32/lib/tinyusb/src/common/tusb_common.h **** #endif
  33:/Users/joostbooy/Desktop/Code/stm32/lib/tinyusb/src/common/tusb_common.h **** 
  34:/Users/joostbooy/Desktop/Code/stm32/lib/tinyusb/src/common/tusb_common.h **** //--------------------------------------------------------------------+
  35:/Users/joostbooy/Desktop/Code/stm32/lib/tinyusb/src/common/tusb_common.h **** // Macros Helper
  36:/Users/joostbooy/Desktop/Code/stm32/lib/tinyusb/src/common/tusb_common.h **** //--------------------------------------------------------------------+
  37:/Users/joostbooy/Desktop/Code/stm32/lib/tinyusb/src/common/tusb_common.h **** #define TU_ARRAY_SIZE(_arr)   ( sizeof(_arr) / sizeof(_arr[0]) )
  38:/Users/joostbooy/Desktop/Code/stm32/lib/tinyusb/src/common/tusb_common.h **** #define TU_MIN(_x, _y)        ( ( (_x) < (_y) ) ? (_x) : (_y) )
  39:/Users/joostbooy/Desktop/Code/stm32/lib/tinyusb/src/common/tusb_common.h **** #define TU_MAX(_x, _y)        ( ( (_x) > (_y) ) ? (_x) : (_y) )
  40:/Users/joostbooy/Desktop/Code/stm32/lib/tinyusb/src/common/tusb_common.h **** 
  41:/Users/joostbooy/Desktop/Code/stm32/lib/tinyusb/src/common/tusb_common.h **** #define TU_U16(_high, _low)   ((uint16_t) (((_high) << 8) | (_low)))
  42:/Users/joostbooy/Desktop/Code/stm32/lib/tinyusb/src/common/tusb_common.h **** #define TU_U16_HIGH(_u16)     ((uint8_t) (((_u16) >> 8) & 0x00ff))
  43:/Users/joostbooy/Desktop/Code/stm32/lib/tinyusb/src/common/tusb_common.h **** #define TU_U16_LOW(_u16)      ((uint8_t) ((_u16)       & 0x00ff))
  44:/Users/joostbooy/Desktop/Code/stm32/lib/tinyusb/src/common/tusb_common.h **** #define U16_TO_U8S_BE(_u16)   TU_U16_HIGH(_u16), TU_U16_LOW(_u16)
  45:/Users/joostbooy/Desktop/Code/stm32/lib/tinyusb/src/common/tusb_common.h **** #define U16_TO_U8S_LE(_u16)   TU_U16_LOW(_u16), TU_U16_HIGH(_u16)
  46:/Users/joostbooy/Desktop/Code/stm32/lib/tinyusb/src/common/tusb_common.h **** 
  47:/Users/joostbooy/Desktop/Code/stm32/lib/tinyusb/src/common/tusb_common.h **** #define TU_U32_BYTE3(_u32)    ((uint8_t) ((((uint32_t) _u32) >> 24) & 0x000000ff)) // MSB
  48:/Users/joostbooy/Desktop/Code/stm32/lib/tinyusb/src/common/tusb_common.h **** #define TU_U32_BYTE2(_u32)    ((uint8_t) ((((uint32_t) _u32) >> 16) & 0x000000ff))
  49:/Users/joostbooy/Desktop/Code/stm32/lib/tinyusb/src/common/tusb_common.h **** #define TU_U32_BYTE1(_u32)    ((uint8_t) ((((uint32_t) _u32) >>  8) & 0x000000ff))
  50:/Users/joostbooy/Desktop/Code/stm32/lib/tinyusb/src/common/tusb_common.h **** #define TU_U32_BYTE0(_u32)    ((uint8_t) (((uint32_t)  _u32)        & 0x000000ff)) // LSB
  51:/Users/joostbooy/Desktop/Code/stm32/lib/tinyusb/src/common/tusb_common.h **** 
  52:/Users/joostbooy/Desktop/Code/stm32/lib/tinyusb/src/common/tusb_common.h **** #define U32_TO_U8S_BE(_u32)   TU_U32_BYTE3(_u32), TU_U32_BYTE2(_u32), TU_U32_BYTE1(_u32), TU_U32_BY
  53:/Users/joostbooy/Desktop/Code/stm32/lib/tinyusb/src/common/tusb_common.h **** #define U32_TO_U8S_LE(_u32)   TU_U32_BYTE0(_u32), TU_U32_BYTE1(_u32), TU_U32_BYTE2(_u32), TU_U32_BY
  54:/Users/joostbooy/Desktop/Code/stm32/lib/tinyusb/src/common/tusb_common.h **** 
  55:/Users/joostbooy/Desktop/Code/stm32/lib/tinyusb/src/common/tusb_common.h **** #define TU_BIT(n)             (1UL << (n))
  56:/Users/joostbooy/Desktop/Code/stm32/lib/tinyusb/src/common/tusb_common.h **** 
  57:/Users/joostbooy/Desktop/Code/stm32/lib/tinyusb/src/common/tusb_common.h **** // Generate a mask with bit from high (31) to low (0) set, e.g TU_GENMASK(3, 0) = 0b1111
  58:/Users/joostbooy/Desktop/Code/stm32/lib/tinyusb/src/common/tusb_common.h **** #define TU_GENMASK(h, l)      ( (UINT32_MAX << (l)) & (UINT32_MAX >> (31 - (h))) )
  59:/Users/joostbooy/Desktop/Code/stm32/lib/tinyusb/src/common/tusb_common.h **** 
  60:/Users/joostbooy/Desktop/Code/stm32/lib/tinyusb/src/common/tusb_common.h **** //--------------------------------------------------------------------+
  61:/Users/joostbooy/Desktop/Code/stm32/lib/tinyusb/src/common/tusb_common.h **** // Includes
  62:/Users/joostbooy/Desktop/Code/stm32/lib/tinyusb/src/common/tusb_common.h **** //--------------------------------------------------------------------+
  63:/Users/joostbooy/Desktop/Code/stm32/lib/tinyusb/src/common/tusb_common.h **** 
ARM GAS  /var/folders/84/_x1cyy_j36g486tldtwl37280000gn/T//ccHWsz3h.s 			page 17


  64:/Users/joostbooy/Desktop/Code/stm32/lib/tinyusb/src/common/tusb_common.h **** // Standard Headers
  65:/Users/joostbooy/Desktop/Code/stm32/lib/tinyusb/src/common/tusb_common.h **** #include <stdbool.h>
  66:/Users/joostbooy/Desktop/Code/stm32/lib/tinyusb/src/common/tusb_common.h **** #include <stdint.h>
  67:/Users/joostbooy/Desktop/Code/stm32/lib/tinyusb/src/common/tusb_common.h **** #include <stddef.h>
  68:/Users/joostbooy/Desktop/Code/stm32/lib/tinyusb/src/common/tusb_common.h **** #include <string.h>
  69:/Users/joostbooy/Desktop/Code/stm32/lib/tinyusb/src/common/tusb_common.h **** #include <stdio.h>
  70:/Users/joostbooy/Desktop/Code/stm32/lib/tinyusb/src/common/tusb_common.h **** 
  71:/Users/joostbooy/Desktop/Code/stm32/lib/tinyusb/src/common/tusb_common.h **** // Tinyusb Common Headers
  72:/Users/joostbooy/Desktop/Code/stm32/lib/tinyusb/src/common/tusb_common.h **** #include "tusb_option.h"
  73:/Users/joostbooy/Desktop/Code/stm32/lib/tinyusb/src/common/tusb_common.h **** #include "tusb_compiler.h"
  74:/Users/joostbooy/Desktop/Code/stm32/lib/tinyusb/src/common/tusb_common.h **** #include "tusb_verify.h"
  75:/Users/joostbooy/Desktop/Code/stm32/lib/tinyusb/src/common/tusb_common.h **** #include "tusb_types.h"
  76:/Users/joostbooy/Desktop/Code/stm32/lib/tinyusb/src/common/tusb_common.h **** #include "tusb_debug.h"
  77:/Users/joostbooy/Desktop/Code/stm32/lib/tinyusb/src/common/tusb_common.h **** 
  78:/Users/joostbooy/Desktop/Code/stm32/lib/tinyusb/src/common/tusb_common.h **** //--------------------------------------------------------------------+
  79:/Users/joostbooy/Desktop/Code/stm32/lib/tinyusb/src/common/tusb_common.h **** // Optional API implemented by application if needed
  80:/Users/joostbooy/Desktop/Code/stm32/lib/tinyusb/src/common/tusb_common.h **** // TODO move to a more ovious place/file
  81:/Users/joostbooy/Desktop/Code/stm32/lib/tinyusb/src/common/tusb_common.h **** //--------------------------------------------------------------------+
  82:/Users/joostbooy/Desktop/Code/stm32/lib/tinyusb/src/common/tusb_common.h **** 
  83:/Users/joostbooy/Desktop/Code/stm32/lib/tinyusb/src/common/tusb_common.h **** // flush data cache
  84:/Users/joostbooy/Desktop/Code/stm32/lib/tinyusb/src/common/tusb_common.h **** TU_ATTR_WEAK extern void tusb_app_dcache_flush(uintptr_t addr, uint32_t data_size);
  85:/Users/joostbooy/Desktop/Code/stm32/lib/tinyusb/src/common/tusb_common.h **** 
  86:/Users/joostbooy/Desktop/Code/stm32/lib/tinyusb/src/common/tusb_common.h **** // invalidate data cache
  87:/Users/joostbooy/Desktop/Code/stm32/lib/tinyusb/src/common/tusb_common.h **** TU_ATTR_WEAK extern void tusb_app_dcache_invalidate(uintptr_t addr, uint32_t data_size);
  88:/Users/joostbooy/Desktop/Code/stm32/lib/tinyusb/src/common/tusb_common.h **** 
  89:/Users/joostbooy/Desktop/Code/stm32/lib/tinyusb/src/common/tusb_common.h **** // Optional physical <-> virtual address translation
  90:/Users/joostbooy/Desktop/Code/stm32/lib/tinyusb/src/common/tusb_common.h **** TU_ATTR_WEAK extern void* tusb_app_virt_to_phys(void *virt_addr);
  91:/Users/joostbooy/Desktop/Code/stm32/lib/tinyusb/src/common/tusb_common.h **** TU_ATTR_WEAK extern void* tusb_app_phys_to_virt(void *phys_addr);
  92:/Users/joostbooy/Desktop/Code/stm32/lib/tinyusb/src/common/tusb_common.h **** 
  93:/Users/joostbooy/Desktop/Code/stm32/lib/tinyusb/src/common/tusb_common.h **** //--------------------------------------------------------------------+
  94:/Users/joostbooy/Desktop/Code/stm32/lib/tinyusb/src/common/tusb_common.h **** // Internal Inline Functions
  95:/Users/joostbooy/Desktop/Code/stm32/lib/tinyusb/src/common/tusb_common.h **** //--------------------------------------------------------------------+
  96:/Users/joostbooy/Desktop/Code/stm32/lib/tinyusb/src/common/tusb_common.h **** 
  97:/Users/joostbooy/Desktop/Code/stm32/lib/tinyusb/src/common/tusb_common.h **** //------------- Mem -------------//
  98:/Users/joostbooy/Desktop/Code/stm32/lib/tinyusb/src/common/tusb_common.h **** #define tu_memclr(buffer, size)  memset((buffer), 0, (size))
  99:/Users/joostbooy/Desktop/Code/stm32/lib/tinyusb/src/common/tusb_common.h **** #define tu_varclr(_var)          tu_memclr(_var, sizeof(*(_var)))
 100:/Users/joostbooy/Desktop/Code/stm32/lib/tinyusb/src/common/tusb_common.h **** 
 101:/Users/joostbooy/Desktop/Code/stm32/lib/tinyusb/src/common/tusb_common.h **** // This is a backport of memset_s from c11
 102:/Users/joostbooy/Desktop/Code/stm32/lib/tinyusb/src/common/tusb_common.h **** TU_ATTR_ALWAYS_INLINE static inline int tu_memset_s(void *dest, size_t destsz, int ch, size_t count
 103:/Users/joostbooy/Desktop/Code/stm32/lib/tinyusb/src/common/tusb_common.h ****   // TODO may check if desst and src is not NULL
 104:/Users/joostbooy/Desktop/Code/stm32/lib/tinyusb/src/common/tusb_common.h ****   if ( count > destsz ) {
 105:/Users/joostbooy/Desktop/Code/stm32/lib/tinyusb/src/common/tusb_common.h ****     return -1;
 106:/Users/joostbooy/Desktop/Code/stm32/lib/tinyusb/src/common/tusb_common.h ****   }
 107:/Users/joostbooy/Desktop/Code/stm32/lib/tinyusb/src/common/tusb_common.h ****   memset(dest, ch, count);
 108:/Users/joostbooy/Desktop/Code/stm32/lib/tinyusb/src/common/tusb_common.h ****   return 0;
 109:/Users/joostbooy/Desktop/Code/stm32/lib/tinyusb/src/common/tusb_common.h **** }
 110:/Users/joostbooy/Desktop/Code/stm32/lib/tinyusb/src/common/tusb_common.h **** 
 111:/Users/joostbooy/Desktop/Code/stm32/lib/tinyusb/src/common/tusb_common.h **** // This is a backport of memcpy_s from c11
 112:/Users/joostbooy/Desktop/Code/stm32/lib/tinyusb/src/common/tusb_common.h **** TU_ATTR_ALWAYS_INLINE static inline int tu_memcpy_s(void *dest, size_t destsz, const void *src, siz
 113:/Users/joostbooy/Desktop/Code/stm32/lib/tinyusb/src/common/tusb_common.h ****   // TODO may check if desst and src is not NULL
 114:/Users/joostbooy/Desktop/Code/stm32/lib/tinyusb/src/common/tusb_common.h ****   if ( count > destsz ) {
 115:/Users/joostbooy/Desktop/Code/stm32/lib/tinyusb/src/common/tusb_common.h ****     return -1;
 116:/Users/joostbooy/Desktop/Code/stm32/lib/tinyusb/src/common/tusb_common.h ****   }
 117:/Users/joostbooy/Desktop/Code/stm32/lib/tinyusb/src/common/tusb_common.h ****   memcpy(dest, src, count);
 118:/Users/joostbooy/Desktop/Code/stm32/lib/tinyusb/src/common/tusb_common.h ****   return 0;
 119:/Users/joostbooy/Desktop/Code/stm32/lib/tinyusb/src/common/tusb_common.h **** }
 120:/Users/joostbooy/Desktop/Code/stm32/lib/tinyusb/src/common/tusb_common.h **** 
ARM GAS  /var/folders/84/_x1cyy_j36g486tldtwl37280000gn/T//ccHWsz3h.s 			page 18


 121:/Users/joostbooy/Desktop/Code/stm32/lib/tinyusb/src/common/tusb_common.h **** 
 122:/Users/joostbooy/Desktop/Code/stm32/lib/tinyusb/src/common/tusb_common.h **** //------------- Bytes -------------//
 123:/Users/joostbooy/Desktop/Code/stm32/lib/tinyusb/src/common/tusb_common.h **** TU_ATTR_ALWAYS_INLINE static inline uint32_t tu_u32(uint8_t b3, uint8_t b2, uint8_t b1, uint8_t b0)
 124:/Users/joostbooy/Desktop/Code/stm32/lib/tinyusb/src/common/tusb_common.h ****   return ( ((uint32_t) b3) << 24) | ( ((uint32_t) b2) << 16) | ( ((uint32_t) b1) << 8) | b0;
 125:/Users/joostbooy/Desktop/Code/stm32/lib/tinyusb/src/common/tusb_common.h **** }
 126:/Users/joostbooy/Desktop/Code/stm32/lib/tinyusb/src/common/tusb_common.h **** 
 127:/Users/joostbooy/Desktop/Code/stm32/lib/tinyusb/src/common/tusb_common.h **** TU_ATTR_ALWAYS_INLINE static inline uint16_t tu_u16(uint8_t high, uint8_t low) {
 128:/Users/joostbooy/Desktop/Code/stm32/lib/tinyusb/src/common/tusb_common.h ****   return (uint16_t) ((((uint16_t) high) << 8) | low);
 129:/Users/joostbooy/Desktop/Code/stm32/lib/tinyusb/src/common/tusb_common.h **** }
 130:/Users/joostbooy/Desktop/Code/stm32/lib/tinyusb/src/common/tusb_common.h **** 
 131:/Users/joostbooy/Desktop/Code/stm32/lib/tinyusb/src/common/tusb_common.h **** TU_ATTR_ALWAYS_INLINE static inline uint8_t tu_u32_byte3(uint32_t ui32) { return TU_U32_BYTE3(ui32)
 132:/Users/joostbooy/Desktop/Code/stm32/lib/tinyusb/src/common/tusb_common.h **** TU_ATTR_ALWAYS_INLINE static inline uint8_t tu_u32_byte2(uint32_t ui32) { return TU_U32_BYTE2(ui32)
 133:/Users/joostbooy/Desktop/Code/stm32/lib/tinyusb/src/common/tusb_common.h **** TU_ATTR_ALWAYS_INLINE static inline uint8_t tu_u32_byte1(uint32_t ui32) { return TU_U32_BYTE1(ui32)
 134:/Users/joostbooy/Desktop/Code/stm32/lib/tinyusb/src/common/tusb_common.h **** TU_ATTR_ALWAYS_INLINE static inline uint8_t tu_u32_byte0(uint32_t ui32) { return TU_U32_BYTE0(ui32)
 135:/Users/joostbooy/Desktop/Code/stm32/lib/tinyusb/src/common/tusb_common.h **** 
 136:/Users/joostbooy/Desktop/Code/stm32/lib/tinyusb/src/common/tusb_common.h **** TU_ATTR_ALWAYS_INLINE static inline uint16_t tu_u32_high16(uint32_t ui32) { return (uint16_t) (ui32
 137:/Users/joostbooy/Desktop/Code/stm32/lib/tinyusb/src/common/tusb_common.h **** TU_ATTR_ALWAYS_INLINE static inline uint16_t tu_u32_low16 (uint32_t ui32) { return (uint16_t) (ui32
 138:/Users/joostbooy/Desktop/Code/stm32/lib/tinyusb/src/common/tusb_common.h **** 
 139:/Users/joostbooy/Desktop/Code/stm32/lib/tinyusb/src/common/tusb_common.h **** TU_ATTR_ALWAYS_INLINE static inline uint8_t tu_u16_high(uint16_t ui16) { return TU_U16_HIGH(ui16); 
 140:/Users/joostbooy/Desktop/Code/stm32/lib/tinyusb/src/common/tusb_common.h **** TU_ATTR_ALWAYS_INLINE static inline uint8_t tu_u16_low (uint16_t ui16) { return TU_U16_LOW(ui16); }
 141:/Users/joostbooy/Desktop/Code/stm32/lib/tinyusb/src/common/tusb_common.h **** 
 142:/Users/joostbooy/Desktop/Code/stm32/lib/tinyusb/src/common/tusb_common.h **** //------------- Bits -------------//
 143:/Users/joostbooy/Desktop/Code/stm32/lib/tinyusb/src/common/tusb_common.h **** TU_ATTR_ALWAYS_INLINE static inline uint32_t tu_bit_set  (uint32_t value, uint8_t pos) { return val
 144:/Users/joostbooy/Desktop/Code/stm32/lib/tinyusb/src/common/tusb_common.h **** TU_ATTR_ALWAYS_INLINE static inline uint32_t tu_bit_clear(uint32_t value, uint8_t pos) { return val
 145:/Users/joostbooy/Desktop/Code/stm32/lib/tinyusb/src/common/tusb_common.h **** TU_ATTR_ALWAYS_INLINE static inline bool     tu_bit_test (uint32_t value, uint8_t pos) { return (va
 146:/Users/joostbooy/Desktop/Code/stm32/lib/tinyusb/src/common/tusb_common.h **** 
 147:/Users/joostbooy/Desktop/Code/stm32/lib/tinyusb/src/common/tusb_common.h **** //------------- Min -------------//
 148:/Users/joostbooy/Desktop/Code/stm32/lib/tinyusb/src/common/tusb_common.h **** TU_ATTR_ALWAYS_INLINE static inline uint8_t  tu_min8  (uint8_t  x, uint8_t y ) { return (x < y) ? x
 149:/Users/joostbooy/Desktop/Code/stm32/lib/tinyusb/src/common/tusb_common.h **** TU_ATTR_ALWAYS_INLINE static inline uint16_t tu_min16 (uint16_t x, uint16_t y) { return (x < y) ? x
 150:/Users/joostbooy/Desktop/Code/stm32/lib/tinyusb/src/common/tusb_common.h **** TU_ATTR_ALWAYS_INLINE static inline uint32_t tu_min32 (uint32_t x, uint32_t y) { return (x < y) ? x
 518              		.loc 2 150 46 is_stmt 1 view .LVU126
 519              	.LBB57:
 520              		.loc 2 150 82 view .LVU127
 521              	.LBE57:
 522              	.LBE56:
 182:/Users/joostbooy/Desktop/Code/stm32/lib/tinyusb/src/class/midi/midi_device.c **** 
 523              		.loc 1 182 60 is_stmt 0 view .LVU128
 524 003c 5A1A     		subs	r2, r3, r1
 525              	.LBB59:
 526              	.LBB58:
 527              		.loc 2 150 101 view .LVU129
 528 003e AA42     		cmp	r2, r5
 529 0040 28BF     		it	cs
 530 0042 2A46     		movcs	r2, r5
 531              	.LVL47:
 532              		.loc 2 150 101 view .LVU130
 533              	.LBE58:
 534              	.LBE59:
 182:/Users/joostbooy/Desktop/Code/stm32/lib/tinyusb/src/class/midi/midi_device.c **** 
 535              		.loc 1 182 19 view .LVU131
 536 0044 D4B2     		uxtb	r4, r2
 537              	.LVL48:
 185:/Users/joostbooy/Desktop/Code/stm32/lib/tinyusb/src/class/midi/midi_device.c **** 
 538              		.loc 1 185 5 is_stmt 1 view .LVU132
 185:/Users/joostbooy/Desktop/Code/stm32/lib/tinyusb/src/class/midi/midi_device.c **** 
 539              		.loc 1 185 5 view .LVU133
 540 0046 0131     		adds	r1, r1, #1
ARM GAS  /var/folders/84/_x1cyy_j36g486tldtwl37280000gn/T//ccHWsz3h.s 			page 19


 541              	.LBB60:
 542              	.LBB61:
 114:/Users/joostbooy/Desktop/Code/stm32/lib/tinyusb/src/common/tusb_common.h ****     return -1;
 543              		.loc 2 114 6 is_stmt 0 view .LVU134
 544 0048 AC42     		cmp	r4, r5
 545              	.LBE61:
 546              	.LBE60:
 185:/Users/joostbooy/Desktop/Code/stm32/lib/tinyusb/src/class/midi/midi_device.c **** 
 547              		.loc 1 185 5 view .LVU135
 548 004a 4944     		add	r1, r1, r9
 549              	.LVL49:
 550              	.LBB63:
 551              	.LBI60:
 112:/Users/joostbooy/Desktop/Code/stm32/lib/tinyusb/src/common/tusb_common.h ****   // TODO may check if desst and src is not NULL
 552              		.loc 2 112 41 is_stmt 1 view .LVU136
 553              	.LBB62:
 114:/Users/joostbooy/Desktop/Code/stm32/lib/tinyusb/src/common/tusb_common.h ****     return -1;
 554              		.loc 2 114 3 view .LVU137
 114:/Users/joostbooy/Desktop/Code/stm32/lib/tinyusb/src/common/tusb_common.h ****     return -1;
 555              		.loc 2 114 6 is_stmt 0 view .LVU138
 556 004c 36D8     		bhi	.L56
 117:/Users/joostbooy/Desktop/Code/stm32/lib/tinyusb/src/common/tusb_common.h ****   return 0;
 557              		.loc 2 117 3 is_stmt 1 view .LVU139
 558 004e 3046     		mov	r0, r6
 559 0050 2246     		mov	r2, r4
 560 0052 FFF7FEFF 		bl	memcpy
 561              	.LVL50:
 118:/Users/joostbooy/Desktop/Code/stm32/lib/tinyusb/src/common/tusb_common.h **** }
 562              		.loc 2 118 3 view .LVU140
 118:/Users/joostbooy/Desktop/Code/stm32/lib/tinyusb/src/common/tusb_common.h **** }
 563              		.loc 2 118 3 is_stmt 0 view .LVU141
 564              	.LBE62:
 565              	.LBE63:
 185:/Users/joostbooy/Desktop/Code/stm32/lib/tinyusb/src/class/midi/midi_device.c **** 
 566              		.loc 1 185 5 is_stmt 1 view .LVU142
 187:/Users/joostbooy/Desktop/Code/stm32/lib/tinyusb/src/class/midi/midi_device.c ****     stream->index += count;
 567              		.loc 1 187 5 view .LVU143
 188:/Users/joostbooy/Desktop/Code/stm32/lib/tinyusb/src/class/midi/midi_device.c ****     buf8 += count;
 568              		.loc 1 188 19 is_stmt 0 view .LVU144
 569 0056 9BF80DC0 		ldrb	ip, [fp, #13]	@ zero_extendqisi2
 193:/Users/joostbooy/Desktop/Code/stm32/lib/tinyusb/src/class/midi/midi_device.c ****     {
 570              		.loc 1 193 8 view .LVU145
 571 005a 9BF80E00 		ldrb	r0, [fp, #14]	@ zero_extendqisi2
 188:/Users/joostbooy/Desktop/Code/stm32/lib/tinyusb/src/class/midi/midi_device.c ****     buf8 += count;
 572              		.loc 1 188 19 view .LVU146
 573 005e A444     		add	ip, ip, r4
 574 0060 5FFA8CF1 		uxtb	r1, ip
 193:/Users/joostbooy/Desktop/Code/stm32/lib/tinyusb/src/class/midi/midi_device.c ****     {
 575              		.loc 1 193 8 view .LVU147
 576 0064 8842     		cmp	r0, r1
 187:/Users/joostbooy/Desktop/Code/stm32/lib/tinyusb/src/class/midi/midi_device.c ****     stream->index += count;
 577              		.loc 1 187 16 view .LVU148
 578 0066 A044     		add	r8, r8, r4
 579              	.LVL51:
 188:/Users/joostbooy/Desktop/Code/stm32/lib/tinyusb/src/class/midi/midi_device.c ****     buf8 += count;
 580              		.loc 1 188 5 is_stmt 1 view .LVU149
 190:/Users/joostbooy/Desktop/Code/stm32/lib/tinyusb/src/class/midi/midi_device.c **** 
ARM GAS  /var/folders/84/_x1cyy_j36g486tldtwl37280000gn/T//ccHWsz3h.s 			page 20


 581              		.loc 1 190 13 is_stmt 0 view .LVU150
 582 0068 A5EB0405 		sub	r5, r5, r4
 583              	.LVL52:
 189:/Users/joostbooy/Desktop/Code/stm32/lib/tinyusb/src/class/midi/midi_device.c ****     bufsize -= count;
 584              		.loc 1 189 10 view .LVU151
 585 006c 2644     		add	r6, r6, r4
 586              	.LVL53:
 188:/Users/joostbooy/Desktop/Code/stm32/lib/tinyusb/src/class/midi/midi_device.c ****     buf8 += count;
 587              		.loc 1 188 19 view .LVU152
 588 006e 8BF80D10 		strb	r1, [fp, #13]
 189:/Users/joostbooy/Desktop/Code/stm32/lib/tinyusb/src/class/midi/midi_device.c ****     bufsize -= count;
 589              		.loc 1 189 5 is_stmt 1 view .LVU153
 590              	.LVL54:
 190:/Users/joostbooy/Desktop/Code/stm32/lib/tinyusb/src/class/midi/midi_device.c **** 
 591              		.loc 1 190 5 view .LVU154
 193:/Users/joostbooy/Desktop/Code/stm32/lib/tinyusb/src/class/midi/midi_device.c ****     {
 592              		.loc 1 193 5 view .LVU155
 193:/Users/joostbooy/Desktop/Code/stm32/lib/tinyusb/src/class/midi/midi_device.c ****     {
 593              		.loc 1 193 8 is_stmt 0 view .LVU156
 594 0072 04D0     		beq	.L63
 193:/Users/joostbooy/Desktop/Code/stm32/lib/tinyusb/src/class/midi/midi_device.c ****     {
 595              		.loc 1 193 8 view .LVU157
 596              	.LBE67:
 144:/Users/joostbooy/Desktop/Code/stm32/lib/tinyusb/src/class/midi/midi_device.c ****   {
 597              		.loc 1 144 8 is_stmt 1 view .LVU158
 598 0074 002D     		cmp	r5, #0
 599 0076 D4D1     		bne	.L55
 600              	.LVL55:
 601              	.L44:
 201:/Users/joostbooy/Desktop/Code/stm32/lib/tinyusb/src/class/midi/midi_device.c **** 
 602              		.loc 1 201 1 is_stmt 0 view .LVU159
 603 0078 4046     		mov	r0, r8
 604 007a BDE8F88F 		pop	{r3, r4, r5, r6, r7, r8, r9, r10, fp, pc}
 605              	.LVL56:
 606              	.L63:
 607              	.LBB68:
 195:/Users/joostbooy/Desktop/Code/stm32/lib/tinyusb/src/class/midi/midi_device.c ****       stream->total = 0;
 608              		.loc 1 195 7 is_stmt 1 view .LVU160
 195:/Users/joostbooy/Desktop/Code/stm32/lib/tinyusb/src/class/midi/midi_device.c ****       stream->total = 0;
 609              		.loc 1 195 21 is_stmt 0 view .LVU161
 610 007e 4FF0000E 		mov	lr, #0
 611 0082 8BF80DE0 		strb	lr, [fp, #13]
 196:/Users/joostbooy/Desktop/Code/stm32/lib/tinyusb/src/class/midi/midi_device.c ****     }
 612              		.loc 1 196 7 is_stmt 1 view .LVU162
 196:/Users/joostbooy/Desktop/Code/stm32/lib/tinyusb/src/class/midi/midi_device.c ****     }
 613              		.loc 1 196 21 is_stmt 0 view .LVU163
 614 0086 8BF80EE0 		strb	lr, [fp, #14]
 196:/Users/joostbooy/Desktop/Code/stm32/lib/tinyusb/src/class/midi/midi_device.c ****     }
 615              		.loc 1 196 21 view .LVU164
 616              	.LBE68:
 144:/Users/joostbooy/Desktop/Code/stm32/lib/tinyusb/src/class/midi/midi_device.c ****   {
 617              		.loc 1 144 8 is_stmt 1 view .LVU165
 618 008a 002D     		cmp	r5, #0
 619 008c C9D1     		bne	.L55
 620 008e F3E7     		b	.L44
 621              	.LVL57:
 622              	.L62:
ARM GAS  /var/folders/84/_x1cyy_j36g486tldtwl37280000gn/T//ccHWsz3h.s 			page 21


 623              	.LBB69:
 624              	.LBB64:
 150:/Users/joostbooy/Desktop/Code/stm32/lib/tinyusb/src/class/midi/midi_device.c **** 
 625              		.loc 1 150 7 view .LVU166
 150:/Users/joostbooy/Desktop/Code/stm32/lib/tinyusb/src/class/midi/midi_device.c **** 
 626              		.loc 1 150 13 is_stmt 0 view .LVU167
 627 0090 4946     		mov	r1, r9
 628 0092 5046     		mov	r0, r10
 629 0094 FFF7FEFF 		bl	tud_midi_n_packet_read
 630              	.LVL58:
 150:/Users/joostbooy/Desktop/Code/stm32/lib/tinyusb/src/class/midi/midi_device.c **** 
 631              		.loc 1 150 10 view .LVU168
 632 0098 0028     		cmp	r0, #0
 633 009a EDD0     		beq	.L44
 152:/Users/joostbooy/Desktop/Code/stm32/lib/tinyusb/src/class/midi/midi_device.c **** 
 634              		.loc 1 152 7 is_stmt 1 view .LVU169
 155:/Users/joostbooy/Desktop/Code/stm32/lib/tinyusb/src/class/midi/midi_device.c ****       {
 635              		.loc 1 155 7 view .LVU170
 152:/Users/joostbooy/Desktop/Code/stm32/lib/tinyusb/src/class/midi/midi_device.c **** 
 636              		.loc 1 152 21 is_stmt 0 view .LVU171
 637 009c 9BF80930 		ldrb	r3, [fp, #9]	@ zero_extendqisi2
 638 00a0 03F00F04 		and	r4, r3, #15
 639 00a4 0F2C     		cmp	r4, #15
 640 00a6 16D8     		bhi	.L49
 641 00a8 DFE804F0 		tbb	[pc, r4]
 642              	.L51:
 643 00ac 08       		.byte	(.L56-.L51)/2
 644 00ad 08       		.byte	(.L56-.L51)/2
 645 00ae 0D       		.byte	(.L52-.L51)/2
 646 00af 15       		.byte	(.L49-.L51)/2
 647 00b0 15       		.byte	(.L49-.L51)/2
 648 00b1 1D       		.byte	(.L50-.L51)/2
 649 00b2 0D       		.byte	(.L52-.L51)/2
 650 00b3 15       		.byte	(.L49-.L51)/2
 651 00b4 15       		.byte	(.L49-.L51)/2
 652 00b5 15       		.byte	(.L49-.L51)/2
 653 00b6 15       		.byte	(.L49-.L51)/2
 654 00b7 15       		.byte	(.L49-.L51)/2
 655 00b8 0D       		.byte	(.L52-.L51)/2
 656 00b9 0D       		.byte	(.L52-.L51)/2
 657 00ba 15       		.byte	(.L49-.L51)/2
 658 00bb 1D       		.byte	(.L50-.L51)/2
 659              	.LVL59:
 660              		.p2align 1
 661              	.L56:
 152:/Users/joostbooy/Desktop/Code/stm32/lib/tinyusb/src/class/midi/midi_device.c **** 
 662              		.loc 1 152 21 view .LVU172
 663 00bc 4FF00008 		mov	r8, #0
 664              	.LBE64:
 665              	.LBE69:
 201:/Users/joostbooy/Desktop/Code/stm32/lib/tinyusb/src/class/midi/midi_device.c **** 
 666              		.loc 1 201 1 view .LVU173
 667 00c0 4046     		mov	r0, r8
 668 00c2 BDE8F88F 		pop	{r3, r4, r5, r6, r7, r8, r9, r10, fp, pc}
 669              	.LVL60:
 670              	.L52:
 671              	.LBB70:
ARM GAS  /var/folders/84/_x1cyy_j36g486tldtwl37280000gn/T//ccHWsz3h.s 			page 22


 672              	.LBB65:
 172:/Users/joostbooy/Desktop/Code/stm32/lib/tinyusb/src/class/midi/midi_device.c ****         break;
 673              		.loc 1 172 11 is_stmt 1 view .LVU174
 172:/Users/joostbooy/Desktop/Code/stm32/lib/tinyusb/src/class/midi/midi_device.c ****         break;
 674              		.loc 1 172 25 is_stmt 0 view .LVU175
 675 00c6 4FF49470 		mov	r0, #296
 676 00ca 00FB0A7E 		mla	lr, r0, r10, r7
 677 00ce 0223     		movs	r3, #2
 678 00d0 8EF80E30 		strb	r3, [lr, #14]
 173:/Users/joostbooy/Desktop/Code/stm32/lib/tinyusb/src/class/midi/midi_device.c **** 
 679              		.loc 1 173 9 is_stmt 1 view .LVU176
 680 00d4 ACE7     		b	.L48
 681              	.L49:
 176:/Users/joostbooy/Desktop/Code/stm32/lib/tinyusb/src/class/midi/midi_device.c ****         break;
 682              		.loc 1 176 11 view .LVU177
 176:/Users/joostbooy/Desktop/Code/stm32/lib/tinyusb/src/class/midi/midi_device.c ****         break;
 683              		.loc 1 176 25 is_stmt 0 view .LVU178
 684 00d6 4FF49471 		mov	r1, #296
 685 00da 01FB0A7B 		mla	fp, r1, r10, r7
 686 00de 0323     		movs	r3, #3
 687 00e0 8BF80E30 		strb	r3, [fp, #14]
 177:/Users/joostbooy/Desktop/Code/stm32/lib/tinyusb/src/class/midi/midi_device.c ****       }
 688              		.loc 1 177 9 is_stmt 1 view .LVU179
 689 00e4 A4E7     		b	.L48
 690              	.L50:
 161:/Users/joostbooy/Desktop/Code/stm32/lib/tinyusb/src/class/midi/midi_device.c **** 
 691              		.loc 1 161 9 view .LVU180
 165:/Users/joostbooy/Desktop/Code/stm32/lib/tinyusb/src/class/midi/midi_device.c ****         break;
 692              		.loc 1 165 11 view .LVU181
 165:/Users/joostbooy/Desktop/Code/stm32/lib/tinyusb/src/class/midi/midi_device.c ****         break;
 693              		.loc 1 165 25 is_stmt 0 view .LVU182
 694 00e6 4FF49472 		mov	r2, #296
 695 00ea 02FB0A7C 		mla	ip, r2, r10, r7
 696 00ee 0123     		movs	r3, #1
 697 00f0 8CF80E30 		strb	r3, [ip, #14]
 166:/Users/joostbooy/Desktop/Code/stm32/lib/tinyusb/src/class/midi/midi_device.c **** 
 698              		.loc 1 166 9 is_stmt 1 view .LVU183
 699 00f4 9CE7     		b	.L48
 700              	.L65:
 701 00f6 00BF     		.align	2
 702              	.L64:
 703 00f8 00000000 		.word	_midid_itf
 704              	.LBE65:
 705              	.LBE70:
 706              		.cfi_endproc
 707              	.LFE74:
 709              		.section	.text.tud_midi_n_stream_write,"ax",%progbits
 710              		.align	1
 711              		.p2align 2,,3
 712              		.global	tud_midi_n_stream_write
 713              		.syntax unified
 714              		.thumb
 715              		.thumb_func
 716              		.fpu fpv4-sp-d16
 718              	tud_midi_n_stream_write:
 719              	.LVL61:
 720              	.LFB77:
ARM GAS  /var/folders/84/_x1cyy_j36g486tldtwl37280000gn/T//ccHWsz3h.s 			page 23


 240:/Users/joostbooy/Desktop/Code/stm32/lib/tinyusb/src/class/midi/midi_device.c **** 
 241:/Users/joostbooy/Desktop/Code/stm32/lib/tinyusb/src/class/midi/midi_device.c **** uint32_t tud_midi_n_stream_write(uint8_t itf, uint8_t cable_num, uint8_t const* buffer, uint32_t bu
 242:/Users/joostbooy/Desktop/Code/stm32/lib/tinyusb/src/class/midi/midi_device.c **** {
 721              		.loc 1 242 1 view -0
 722              		.cfi_startproc
 723              		@ args = 0, pretend = 0, frame = 16
 724              		@ frame_needed = 0, uses_anonymous_args = 0
 243:/Users/joostbooy/Desktop/Code/stm32/lib/tinyusb/src/class/midi/midi_device.c ****   midid_interface_t* midi = &_midid_itf[itf];
 725              		.loc 1 243 3 view .LVU185
 242:/Users/joostbooy/Desktop/Code/stm32/lib/tinyusb/src/class/midi/midi_device.c ****   midid_interface_t* midi = &_midid_itf[itf];
 726              		.loc 1 242 1 is_stmt 0 view .LVU186
 727 0000 2DE9F04F 		push	{r4, r5, r6, r7, r8, r9, r10, fp, lr}
 728              		.cfi_def_cfa_offset 36
 729              		.cfi_offset 4, -36
 730              		.cfi_offset 5, -32
 731              		.cfi_offset 6, -28
 732              		.cfi_offset 7, -24
 733              		.cfi_offset 8, -20
 734              		.cfi_offset 9, -16
 735              		.cfi_offset 10, -12
 736              		.cfi_offset 11, -8
 737              		.cfi_offset 14, -4
 244:/Users/joostbooy/Desktop/Code/stm32/lib/tinyusb/src/class/midi/midi_device.c ****   TU_VERIFY(midi->ep_in, 0);
 738              		.loc 1 244 3 view .LVU187
 739 0004 804D     		ldr	r5, .L113
 740 0006 4FF49476 		mov	r6, #296
 741 000a 06FB00F9 		mul	r9, r6, r0
 242:/Users/joostbooy/Desktop/Code/stm32/lib/tinyusb/src/class/midi/midi_device.c ****   midid_interface_t* midi = &_midid_itf[itf];
 742              		.loc 1 242 1 view .LVU188
 743 000e 0446     		mov	r4, r0
 744              	.LVL62:
 745              		.loc 1 244 3 is_stmt 1 view .LVU189
 746              		.loc 1 244 3 view .LVU190
 747 0010 05EB0900 		add	r0, r5, r9
 748              	.LVL63:
 242:/Users/joostbooy/Desktop/Code/stm32/lib/tinyusb/src/class/midi/midi_device.c ****   midid_interface_t* midi = &_midid_itf[itf];
 749              		.loc 1 242 1 is_stmt 0 view .LVU191
 750 0014 85B0     		sub	sp, sp, #20
 751              		.cfi_def_cfa_offset 56
 752              		.loc 1 244 3 view .LVU192
 753 0016 4778     		ldrb	r7, [r0, #1]	@ zero_extendqisi2
 754 0018 002F     		cmp	r7, #0
 755 001a 00F0BE80 		beq	.L93
 756              	.LVL64:
 757              	.LBB71:
 758              	.LBB72:
 245:/Users/joostbooy/Desktop/Code/stm32/lib/tinyusb/src/class/midi/midi_device.c **** 
 246:/Users/joostbooy/Desktop/Code/stm32/lib/tinyusb/src/class/midi/midi_device.c ****   midid_stream_t* stream = &midi->stream_write;
 247:/Users/joostbooy/Desktop/Code/stm32/lib/tinyusb/src/class/midi/midi_device.c **** 
 248:/Users/joostbooy/Desktop/Code/stm32/lib/tinyusb/src/class/midi/midi_device.c ****   uint32_t i = 0;
 249:/Users/joostbooy/Desktop/Code/stm32/lib/tinyusb/src/class/midi/midi_device.c ****   while ( (i < bufsize) && (tu_fifo_remaining(&midi->tx_ff) >= 4) )
 250:/Users/joostbooy/Desktop/Code/stm32/lib/tinyusb/src/class/midi/midi_device.c ****   {
 251:/Users/joostbooy/Desktop/Code/stm32/lib/tinyusb/src/class/midi/midi_device.c ****     uint8_t const data = buffer[i];
 252:/Users/joostbooy/Desktop/Code/stm32/lib/tinyusb/src/class/midi/midi_device.c ****     i++;
 253:/Users/joostbooy/Desktop/Code/stm32/lib/tinyusb/src/class/midi/midi_device.c **** 
 254:/Users/joostbooy/Desktop/Code/stm32/lib/tinyusb/src/class/midi/midi_device.c ****     if ( stream->index == 0 )
 255:/Users/joostbooy/Desktop/Code/stm32/lib/tinyusb/src/class/midi/midi_device.c ****     {
ARM GAS  /var/folders/84/_x1cyy_j36g486tldtwl37280000gn/T//ccHWsz3h.s 			page 24


 256:/Users/joostbooy/Desktop/Code/stm32/lib/tinyusb/src/class/midi/midi_device.c ****       //------------- New event packet -------------//
 257:/Users/joostbooy/Desktop/Code/stm32/lib/tinyusb/src/class/midi/midi_device.c **** 
 258:/Users/joostbooy/Desktop/Code/stm32/lib/tinyusb/src/class/midi/midi_device.c ****       uint8_t const msg = data >> 4;
 259:/Users/joostbooy/Desktop/Code/stm32/lib/tinyusb/src/class/midi/midi_device.c **** 
 260:/Users/joostbooy/Desktop/Code/stm32/lib/tinyusb/src/class/midi/midi_device.c ****       stream->index = 2;
 261:/Users/joostbooy/Desktop/Code/stm32/lib/tinyusb/src/class/midi/midi_device.c ****       stream->buffer[1] = data;
 262:/Users/joostbooy/Desktop/Code/stm32/lib/tinyusb/src/class/midi/midi_device.c **** 
 263:/Users/joostbooy/Desktop/Code/stm32/lib/tinyusb/src/class/midi/midi_device.c ****       // Check to see if we're still in a SysEx transmit.
 264:/Users/joostbooy/Desktop/Code/stm32/lib/tinyusb/src/class/midi/midi_device.c ****       if ( ((stream->buffer[0]) & 0xF) == MIDI_CIN_SYSEX_START )
 265:/Users/joostbooy/Desktop/Code/stm32/lib/tinyusb/src/class/midi/midi_device.c ****       {
 266:/Users/joostbooy/Desktop/Code/stm32/lib/tinyusb/src/class/midi/midi_device.c ****         if ( data == MIDI_STATUS_SYSEX_END )
 267:/Users/joostbooy/Desktop/Code/stm32/lib/tinyusb/src/class/midi/midi_device.c ****         {
 268:/Users/joostbooy/Desktop/Code/stm32/lib/tinyusb/src/class/midi/midi_device.c ****           stream->buffer[0] = (uint8_t) ((cable_num << 4) | MIDI_CIN_SYSEX_END_1BYTE);
 269:/Users/joostbooy/Desktop/Code/stm32/lib/tinyusb/src/class/midi/midi_device.c ****           stream->total = 2;
 270:/Users/joostbooy/Desktop/Code/stm32/lib/tinyusb/src/class/midi/midi_device.c ****         }
 271:/Users/joostbooy/Desktop/Code/stm32/lib/tinyusb/src/class/midi/midi_device.c ****         else
 272:/Users/joostbooy/Desktop/Code/stm32/lib/tinyusb/src/class/midi/midi_device.c ****         {
 273:/Users/joostbooy/Desktop/Code/stm32/lib/tinyusb/src/class/midi/midi_device.c ****           stream->total = 4;
 274:/Users/joostbooy/Desktop/Code/stm32/lib/tinyusb/src/class/midi/midi_device.c ****         }
 275:/Users/joostbooy/Desktop/Code/stm32/lib/tinyusb/src/class/midi/midi_device.c ****       }
 276:/Users/joostbooy/Desktop/Code/stm32/lib/tinyusb/src/class/midi/midi_device.c ****       else if ( (msg >= 0x8 && msg <= 0xB) || msg == 0xE )
 277:/Users/joostbooy/Desktop/Code/stm32/lib/tinyusb/src/class/midi/midi_device.c ****       {
 278:/Users/joostbooy/Desktop/Code/stm32/lib/tinyusb/src/class/midi/midi_device.c ****         // Channel Voice Messages
 279:/Users/joostbooy/Desktop/Code/stm32/lib/tinyusb/src/class/midi/midi_device.c ****         stream->buffer[0] = (uint8_t) ((cable_num << 4) | msg);
 280:/Users/joostbooy/Desktop/Code/stm32/lib/tinyusb/src/class/midi/midi_device.c ****         stream->total = 4;
 281:/Users/joostbooy/Desktop/Code/stm32/lib/tinyusb/src/class/midi/midi_device.c ****       }
 282:/Users/joostbooy/Desktop/Code/stm32/lib/tinyusb/src/class/midi/midi_device.c ****       else if ( msg == 0xC || msg == 0xD)
 283:/Users/joostbooy/Desktop/Code/stm32/lib/tinyusb/src/class/midi/midi_device.c ****       {
 284:/Users/joostbooy/Desktop/Code/stm32/lib/tinyusb/src/class/midi/midi_device.c ****         // Channel Voice Messages, two-byte variants (Program Change and Channel Pressure)
 285:/Users/joostbooy/Desktop/Code/stm32/lib/tinyusb/src/class/midi/midi_device.c ****         stream->buffer[0] = (uint8_t) ((cable_num << 4) | msg);
 286:/Users/joostbooy/Desktop/Code/stm32/lib/tinyusb/src/class/midi/midi_device.c ****         stream->total = 3;
 287:/Users/joostbooy/Desktop/Code/stm32/lib/tinyusb/src/class/midi/midi_device.c ****       }
 288:/Users/joostbooy/Desktop/Code/stm32/lib/tinyusb/src/class/midi/midi_device.c ****       else if ( msg == 0xf )
 289:/Users/joostbooy/Desktop/Code/stm32/lib/tinyusb/src/class/midi/midi_device.c ****       {
 290:/Users/joostbooy/Desktop/Code/stm32/lib/tinyusb/src/class/midi/midi_device.c ****         // System message
 291:/Users/joostbooy/Desktop/Code/stm32/lib/tinyusb/src/class/midi/midi_device.c ****         if ( data == MIDI_STATUS_SYSEX_START )
 292:/Users/joostbooy/Desktop/Code/stm32/lib/tinyusb/src/class/midi/midi_device.c ****         {
 293:/Users/joostbooy/Desktop/Code/stm32/lib/tinyusb/src/class/midi/midi_device.c ****           stream->buffer[0] = MIDI_CIN_SYSEX_START;
 294:/Users/joostbooy/Desktop/Code/stm32/lib/tinyusb/src/class/midi/midi_device.c ****           stream->total = 4;
 295:/Users/joostbooy/Desktop/Code/stm32/lib/tinyusb/src/class/midi/midi_device.c ****         }
 296:/Users/joostbooy/Desktop/Code/stm32/lib/tinyusb/src/class/midi/midi_device.c ****         else if ( data == MIDI_STATUS_SYSCOM_TIME_CODE_QUARTER_FRAME || data == MIDI_STATUS_SYSCOM_
 297:/Users/joostbooy/Desktop/Code/stm32/lib/tinyusb/src/class/midi/midi_device.c ****         {
 298:/Users/joostbooy/Desktop/Code/stm32/lib/tinyusb/src/class/midi/midi_device.c ****           stream->buffer[0] = MIDI_CIN_SYSCOM_2BYTE;
 299:/Users/joostbooy/Desktop/Code/stm32/lib/tinyusb/src/class/midi/midi_device.c ****           stream->total = 3;
 300:/Users/joostbooy/Desktop/Code/stm32/lib/tinyusb/src/class/midi/midi_device.c ****         }
 301:/Users/joostbooy/Desktop/Code/stm32/lib/tinyusb/src/class/midi/midi_device.c ****         else if ( data == MIDI_STATUS_SYSCOM_SONG_POSITION_POINTER )
 302:/Users/joostbooy/Desktop/Code/stm32/lib/tinyusb/src/class/midi/midi_device.c ****         {
 303:/Users/joostbooy/Desktop/Code/stm32/lib/tinyusb/src/class/midi/midi_device.c ****           stream->buffer[0] = MIDI_CIN_SYSCOM_3BYTE;
 304:/Users/joostbooy/Desktop/Code/stm32/lib/tinyusb/src/class/midi/midi_device.c ****           stream->total = 4;
 305:/Users/joostbooy/Desktop/Code/stm32/lib/tinyusb/src/class/midi/midi_device.c ****         }
 306:/Users/joostbooy/Desktop/Code/stm32/lib/tinyusb/src/class/midi/midi_device.c ****         else
 307:/Users/joostbooy/Desktop/Code/stm32/lib/tinyusb/src/class/midi/midi_device.c ****         {
 308:/Users/joostbooy/Desktop/Code/stm32/lib/tinyusb/src/class/midi/midi_device.c ****           stream->buffer[0] = MIDI_CIN_SYSEX_END_1BYTE;
 309:/Users/joostbooy/Desktop/Code/stm32/lib/tinyusb/src/class/midi/midi_device.c ****           stream->total = 2;
 310:/Users/joostbooy/Desktop/Code/stm32/lib/tinyusb/src/class/midi/midi_device.c ****         }
 311:/Users/joostbooy/Desktop/Code/stm32/lib/tinyusb/src/class/midi/midi_device.c ****         stream->buffer[0] |= (uint8_t)(cable_num << 4);
 312:/Users/joostbooy/Desktop/Code/stm32/lib/tinyusb/src/class/midi/midi_device.c ****       }
ARM GAS  /var/folders/84/_x1cyy_j36g486tldtwl37280000gn/T//ccHWsz3h.s 			page 25


 313:/Users/joostbooy/Desktop/Code/stm32/lib/tinyusb/src/class/midi/midi_device.c ****       else
 314:/Users/joostbooy/Desktop/Code/stm32/lib/tinyusb/src/class/midi/midi_device.c ****       {
 315:/Users/joostbooy/Desktop/Code/stm32/lib/tinyusb/src/class/midi/midi_device.c ****         // Pack individual bytes if we don't support packing them into words.
 316:/Users/joostbooy/Desktop/Code/stm32/lib/tinyusb/src/class/midi/midi_device.c ****         stream->buffer[0] = (uint8_t) (cable_num << 4 | 0xf);
 317:/Users/joostbooy/Desktop/Code/stm32/lib/tinyusb/src/class/midi/midi_device.c ****         stream->buffer[2] = 0;
 318:/Users/joostbooy/Desktop/Code/stm32/lib/tinyusb/src/class/midi/midi_device.c ****         stream->buffer[3] = 0;
 319:/Users/joostbooy/Desktop/Code/stm32/lib/tinyusb/src/class/midi/midi_device.c ****         stream->index = 2;
 320:/Users/joostbooy/Desktop/Code/stm32/lib/tinyusb/src/class/midi/midi_device.c ****         stream->total = 2;
 321:/Users/joostbooy/Desktop/Code/stm32/lib/tinyusb/src/class/midi/midi_device.c ****       }
 322:/Users/joostbooy/Desktop/Code/stm32/lib/tinyusb/src/class/midi/midi_device.c ****     }
 323:/Users/joostbooy/Desktop/Code/stm32/lib/tinyusb/src/class/midi/midi_device.c ****     else
 324:/Users/joostbooy/Desktop/Code/stm32/lib/tinyusb/src/class/midi/midi_device.c ****     {
 325:/Users/joostbooy/Desktop/Code/stm32/lib/tinyusb/src/class/midi/midi_device.c ****       //------------- On-going (buffering) packet -------------//
 326:/Users/joostbooy/Desktop/Code/stm32/lib/tinyusb/src/class/midi/midi_device.c **** 
 327:/Users/joostbooy/Desktop/Code/stm32/lib/tinyusb/src/class/midi/midi_device.c ****       TU_ASSERT(stream->index < 4, i);
 328:/Users/joostbooy/Desktop/Code/stm32/lib/tinyusb/src/class/midi/midi_device.c ****       stream->buffer[stream->index] = data;
 329:/Users/joostbooy/Desktop/Code/stm32/lib/tinyusb/src/class/midi/midi_device.c ****       stream->index++;
 330:/Users/joostbooy/Desktop/Code/stm32/lib/tinyusb/src/class/midi/midi_device.c **** 
 331:/Users/joostbooy/Desktop/Code/stm32/lib/tinyusb/src/class/midi/midi_device.c ****       // See if this byte ends a SysEx.
 332:/Users/joostbooy/Desktop/Code/stm32/lib/tinyusb/src/class/midi/midi_device.c ****       if ( (stream->buffer[0] & 0xF) == MIDI_CIN_SYSEX_START && data == MIDI_STATUS_SYSEX_END )
 333:/Users/joostbooy/Desktop/Code/stm32/lib/tinyusb/src/class/midi/midi_device.c ****       {
 334:/Users/joostbooy/Desktop/Code/stm32/lib/tinyusb/src/class/midi/midi_device.c ****         stream->buffer[0] = (uint8_t) ((cable_num << 4) | (MIDI_CIN_SYSEX_START + (stream->index - 
 335:/Users/joostbooy/Desktop/Code/stm32/lib/tinyusb/src/class/midi/midi_device.c ****         stream->total = stream->index;
 336:/Users/joostbooy/Desktop/Code/stm32/lib/tinyusb/src/class/midi/midi_device.c ****       }
 337:/Users/joostbooy/Desktop/Code/stm32/lib/tinyusb/src/class/midi/midi_device.c ****     }
 338:/Users/joostbooy/Desktop/Code/stm32/lib/tinyusb/src/class/midi/midi_device.c **** 
 339:/Users/joostbooy/Desktop/Code/stm32/lib/tinyusb/src/class/midi/midi_device.c ****     // Send out packet
 340:/Users/joostbooy/Desktop/Code/stm32/lib/tinyusb/src/class/midi/midi_device.c ****     if ( stream->index == stream->total )
 341:/Users/joostbooy/Desktop/Code/stm32/lib/tinyusb/src/class/midi/midi_device.c ****     {
 342:/Users/joostbooy/Desktop/Code/stm32/lib/tinyusb/src/class/midi/midi_device.c ****       // zeroes unused bytes
 343:/Users/joostbooy/Desktop/Code/stm32/lib/tinyusb/src/class/midi/midi_device.c ****       for(uint8_t idx = stream->total; idx < 4; idx++) stream->buffer[idx] = 0;
 344:/Users/joostbooy/Desktop/Code/stm32/lib/tinyusb/src/class/midi/midi_device.c **** 
 345:/Users/joostbooy/Desktop/Code/stm32/lib/tinyusb/src/class/midi/midi_device.c ****       uint16_t const count = tu_fifo_write_n(&midi->tx_ff, stream->buffer, 4);
 346:/Users/joostbooy/Desktop/Code/stm32/lib/tinyusb/src/class/midi/midi_device.c **** 
 347:/Users/joostbooy/Desktop/Code/stm32/lib/tinyusb/src/class/midi/midi_device.c ****       // complete current event packet, reset stream
 348:/Users/joostbooy/Desktop/Code/stm32/lib/tinyusb/src/class/midi/midi_device.c ****       stream->index = stream->total = 0;
 349:/Users/joostbooy/Desktop/Code/stm32/lib/tinyusb/src/class/midi/midi_device.c **** 
 350:/Users/joostbooy/Desktop/Code/stm32/lib/tinyusb/src/class/midi/midi_device.c ****       // FIFO overflown, since we already check fifo remaining. It is probably race condition
 351:/Users/joostbooy/Desktop/Code/stm32/lib/tinyusb/src/class/midi/midi_device.c ****       TU_ASSERT(count == 4, i);
 759              		.loc 1 351 7 is_stmt 1 view .LVU193
 760              	.LBE72:
 761              	.LBE71:
 249:/Users/joostbooy/Desktop/Code/stm32/lib/tinyusb/src/class/midi/midi_device.c ****   {
 762              		.loc 1 249 9 view .LVU194
 763 001e 9846     		mov	r8, r3
 764 0020 002B     		cmp	r3, #0
 765 0022 00F0EE80 		beq	.L94
 766              	.LBB96:
 334:/Users/joostbooy/Desktop/Code/stm32/lib/tinyusb/src/class/midi/midi_device.c ****         stream->total = stream->index;
 767              		.loc 1 334 51 is_stmt 0 view .LVU195
 768 0026 0901     		lsls	r1, r1, #4
 769              	.LVL65:
 334:/Users/joostbooy/Desktop/Code/stm32/lib/tinyusb/src/class/midi/midi_device.c ****         stream->total = stream->index;
 770              		.loc 1 334 57 view .LVU196
 771 0028 4FFA81FA 		sxtb	r10, r1
 772              	.LBB78:
 345:/Users/joostbooy/Desktop/Code/stm32/lib/tinyusb/src/class/midi/midi_device.c **** 
ARM GAS  /var/folders/84/_x1cyy_j36g486tldtwl37280000gn/T//ccHWsz3h.s 			page 26


 773              		.loc 1 345 66 view .LVU197
 774 002c 09F10300 		add	r0, r9, #3
 775              	.LBE78:
 776              	.LBB79:
 316:/Users/joostbooy/Desktop/Code/stm32/lib/tinyusb/src/class/midi/midi_device.c ****         stream->buffer[2] = 0;
 777              		.loc 1 316 55 view .LVU198
 778 0030 4AF00F0C 		orr	ip, r10, #15
 268:/Users/joostbooy/Desktop/Code/stm32/lib/tinyusb/src/class/midi/midi_device.c ****           stream->total = 2;
 779              		.loc 1 268 59 view .LVU199
 780 0034 4AF00503 		orr	r3, r10, #5
 781              	.LVL66:
 268:/Users/joostbooy/Desktop/Code/stm32/lib/tinyusb/src/class/midi/midi_device.c ****           stream->total = 2;
 782              		.loc 1 268 59 view .LVU200
 783              	.LBE79:
 784              	.LBE96:
 249:/Users/joostbooy/Desktop/Code/stm32/lib/tinyusb/src/class/midi/midi_device.c ****   {
 785              		.loc 1 249 29 view .LVU201
 786 0038 09F11C07 		add	r7, r9, #28
 787 003c 561E     		subs	r6, r2, #1
 788              	.LBB97:
 789              	.LBB80:
 268:/Users/joostbooy/Desktop/Code/stm32/lib/tinyusb/src/class/midi/midi_device.c ****           stream->total = 2;
 790              		.loc 1 268 31 view .LVU202
 791 003e DBB2     		uxtb	r3, r3
 311:/Users/joostbooy/Desktop/Code/stm32/lib/tinyusb/src/class/midi/midi_device.c ****       }
 792              		.loc 1 311 30 view .LVU203
 793 0040 CAB2     		uxtb	r2, r1
 794              	.LVL67:
 311:/Users/joostbooy/Desktop/Code/stm32/lib/tinyusb/src/class/midi/midi_device.c ****       }
 795              		.loc 1 311 30 view .LVU204
 796              	.LBE80:
 797              	.LBB81:
 345:/Users/joostbooy/Desktop/Code/stm32/lib/tinyusb/src/class/midi/midi_device.c **** 
 798              		.loc 1 345 66 view .LVU205
 799 0042 05EB000E 		add	lr, r5, r0
 800              	.LBE81:
 801              	.LBB82:
 316:/Users/joostbooy/Desktop/Code/stm32/lib/tinyusb/src/class/midi/midi_device.c ****         stream->buffer[2] = 0;
 802              		.loc 1 316 29 view .LVU206
 803 0046 5FFA8CF1 		uxtb	r1, ip
 804 004a CDF80490 		str	r9, [sp, #4]
 311:/Users/joostbooy/Desktop/Code/stm32/lib/tinyusb/src/class/midi/midi_device.c ****       }
 805              		.loc 1 311 30 view .LVU207
 806 004e 0392     		str	r2, [sp, #12]
 316:/Users/joostbooy/Desktop/Code/stm32/lib/tinyusb/src/class/midi/midi_device.c ****         stream->buffer[2] = 0;
 807              		.loc 1 316 29 view .LVU208
 808 0050 0291     		str	r1, [sp, #8]
 268:/Users/joostbooy/Desktop/Code/stm32/lib/tinyusb/src/class/midi/midi_device.c ****           stream->total = 2;
 809              		.loc 1 268 31 view .LVU209
 810 0052 0093     		str	r3, [sp]
 811              	.LBE82:
 812              	.LBE97:
 249:/Users/joostbooy/Desktop/Code/stm32/lib/tinyusb/src/class/midi/midi_device.c ****   {
 813              		.loc 1 249 29 view .LVU210
 814 0054 2F44     		add	r7, r7, r5
 248:/Users/joostbooy/Desktop/Code/stm32/lib/tinyusb/src/class/midi/midi_device.c ****   while ( (i < bufsize) && (tu_fifo_remaining(&midi->tx_ff) >= 4) )
 815              		.loc 1 248 12 view .LVU211
ARM GAS  /var/folders/84/_x1cyy_j36g486tldtwl37280000gn/T//ccHWsz3h.s 			page 27


 816 0056 4FF0000B 		mov	fp, #0
 817 005a F146     		mov	r9, lr
 818              	.LVL68:
 819              	.L69:
 249:/Users/joostbooy/Desktop/Code/stm32/lib/tinyusb/src/class/midi/midi_device.c ****   {
 820              		.loc 1 249 29 discriminator 1 view .LVU212
 821 005c 3846     		mov	r0, r7
 822 005e FFF7FEFF 		bl	tu_fifo_remaining
 823              	.LVL69:
 249:/Users/joostbooy/Desktop/Code/stm32/lib/tinyusb/src/class/midi/midi_device.c ****   {
 824              		.loc 1 249 25 discriminator 1 view .LVU213
 825 0062 0328     		cmp	r0, #3
 826 0064 3ED9     		bls	.L103
 827              	.LBB98:
 251:/Users/joostbooy/Desktop/Code/stm32/lib/tinyusb/src/class/midi/midi_device.c ****     i++;
 828              		.loc 1 251 5 is_stmt 1 view .LVU214
 254:/Users/joostbooy/Desktop/Code/stm32/lib/tinyusb/src/class/midi/midi_device.c ****     {
 829              		.loc 1 254 16 is_stmt 0 view .LVU215
 830 0066 4FF49470 		mov	r0, #296
 831 006a 00FB0452 		mla	r2, r0, r4, r5
 251:/Users/joostbooy/Desktop/Code/stm32/lib/tinyusb/src/class/midi/midi_device.c ****     i++;
 832              		.loc 1 251 19 view .LVU216
 833 006e 16F8013F 		ldrb	r3, [r6, #1]!	@ zero_extendqisi2
 834              	.LVL70:
 252:/Users/joostbooy/Desktop/Code/stm32/lib/tinyusb/src/class/midi/midi_device.c **** 
 835              		.loc 1 252 5 is_stmt 1 view .LVU217
 254:/Users/joostbooy/Desktop/Code/stm32/lib/tinyusb/src/class/midi/midi_device.c ****     {
 836              		.loc 1 254 16 is_stmt 0 view .LVU218
 837 0072 D179     		ldrb	r1, [r2, #7]	@ zero_extendqisi2
 252:/Users/joostbooy/Desktop/Code/stm32/lib/tinyusb/src/class/midi/midi_device.c **** 
 838              		.loc 1 252 6 view .LVU219
 839 0074 0BF1010B 		add	fp, fp, #1
 840              	.LVL71:
 254:/Users/joostbooy/Desktop/Code/stm32/lib/tinyusb/src/class/midi/midi_device.c ****     {
 841              		.loc 1 254 5 is_stmt 1 view .LVU220
 254:/Users/joostbooy/Desktop/Code/stm32/lib/tinyusb/src/class/midi/midi_device.c ****     {
 842              		.loc 1 254 8 is_stmt 0 view .LVU221
 843 0078 D9B9     		cbnz	r1, .L70
 844              	.LBB83:
 258:/Users/joostbooy/Desktop/Code/stm32/lib/tinyusb/src/class/midi/midi_device.c **** 
 845              		.loc 1 258 7 is_stmt 1 view .LVU222
 846              	.LVL72:
 260:/Users/joostbooy/Desktop/Code/stm32/lib/tinyusb/src/class/midi/midi_device.c ****       stream->buffer[1] = data;
 847              		.loc 1 260 7 view .LVU223
 264:/Users/joostbooy/Desktop/Code/stm32/lib/tinyusb/src/class/midi/midi_device.c ****       {
 848              		.loc 1 264 10 is_stmt 0 view .LVU224
 849 007a D078     		ldrb	r0, [r2, #3]	@ zero_extendqisi2
 261:/Users/joostbooy/Desktop/Code/stm32/lib/tinyusb/src/class/midi/midi_device.c **** 
 850              		.loc 1 261 25 view .LVU225
 851 007c 1371     		strb	r3, [r2, #4]
 264:/Users/joostbooy/Desktop/Code/stm32/lib/tinyusb/src/class/midi/midi_device.c ****       {
 852              		.loc 1 264 10 view .LVU226
 853 007e 00F00F01 		and	r1, r0, #15
 854 0082 0429     		cmp	r1, #4
 260:/Users/joostbooy/Desktop/Code/stm32/lib/tinyusb/src/class/midi/midi_device.c ****       stream->buffer[1] = data;
 855              		.loc 1 260 21 view .LVU227
 856 0084 4FF00200 		mov	r0, #2
ARM GAS  /var/folders/84/_x1cyy_j36g486tldtwl37280000gn/T//ccHWsz3h.s 			page 28


 857 0088 D071     		strb	r0, [r2, #7]
 261:/Users/joostbooy/Desktop/Code/stm32/lib/tinyusb/src/class/midi/midi_device.c **** 
 858              		.loc 1 261 7 is_stmt 1 view .LVU228
 264:/Users/joostbooy/Desktop/Code/stm32/lib/tinyusb/src/class/midi/midi_device.c ****       {
 859              		.loc 1 264 7 view .LVU229
 264:/Users/joostbooy/Desktop/Code/stm32/lib/tinyusb/src/class/midi/midi_device.c ****       {
 860              		.loc 1 264 10 is_stmt 0 view .LVU230
 861 008a 41D0     		beq	.L106
 258:/Users/joostbooy/Desktop/Code/stm32/lib/tinyusb/src/class/midi/midi_device.c **** 
 862              		.loc 1 258 21 view .LVU231
 863 008c 1909     		lsrs	r1, r3, #4
 276:/Users/joostbooy/Desktop/Code/stm32/lib/tinyusb/src/class/midi/midi_device.c ****       {
 864              		.loc 1 276 12 is_stmt 1 view .LVU232
 276:/Users/joostbooy/Desktop/Code/stm32/lib/tinyusb/src/class/midi/midi_device.c ****       {
 865              		.loc 1 276 15 is_stmt 0 view .LVU233
 866 008e A1F1080E 		sub	lr, r1, #8
 867 0092 BEF1030F 		cmp	lr, #3
 868 0096 2FD9     		bls	.L75
 276:/Users/joostbooy/Desktop/Code/stm32/lib/tinyusb/src/class/midi/midi_device.c ****       {
 869              		.loc 1 276 44 discriminator 1 view .LVU234
 870 0098 0E29     		cmp	r1, #14
 871 009a 2DD0     		beq	.L75
 282:/Users/joostbooy/Desktop/Code/stm32/lib/tinyusb/src/class/midi/midi_device.c ****       {
 872              		.loc 1 282 12 is_stmt 1 view .LVU235
 282:/Users/joostbooy/Desktop/Code/stm32/lib/tinyusb/src/class/midi/midi_device.c ****       {
 873              		.loc 1 282 15 is_stmt 0 view .LVU236
 874 009c A1F10C0C 		sub	ip, r1, #12
 875 00a0 BCF1010F 		cmp	ip, #1
 876 00a4 73D9     		bls	.L107
 288:/Users/joostbooy/Desktop/Code/stm32/lib/tinyusb/src/class/midi/midi_device.c ****       {
 877              		.loc 1 288 12 is_stmt 1 view .LVU237
 288:/Users/joostbooy/Desktop/Code/stm32/lib/tinyusb/src/class/midi/midi_device.c ****       {
 878              		.loc 1 288 15 is_stmt 0 view .LVU238
 879 00a6 0F29     		cmp	r1, #15
 880 00a8 7CD0     		beq	.L108
 316:/Users/joostbooy/Desktop/Code/stm32/lib/tinyusb/src/class/midi/midi_device.c ****         stream->buffer[2] = 0;
 881              		.loc 1 316 9 is_stmt 1 view .LVU239
 316:/Users/joostbooy/Desktop/Code/stm32/lib/tinyusb/src/class/midi/midi_device.c ****         stream->buffer[2] = 0;
 882              		.loc 1 316 27 is_stmt 0 view .LVU240
 883 00aa 029B     		ldr	r3, [sp, #8]
 884              	.LVL73:
 316:/Users/joostbooy/Desktop/Code/stm32/lib/tinyusb/src/class/midi/midi_device.c ****         stream->buffer[2] = 0;
 885              		.loc 1 316 27 view .LVU241
 886 00ac D370     		strb	r3, [r2, #3]
 317:/Users/joostbooy/Desktop/Code/stm32/lib/tinyusb/src/class/midi/midi_device.c ****         stream->buffer[3] = 0;
 887              		.loc 1 317 9 is_stmt 1 view .LVU242
 318:/Users/joostbooy/Desktop/Code/stm32/lib/tinyusb/src/class/midi/midi_device.c ****         stream->index = 2;
 888              		.loc 1 318 9 view .LVU243
 319:/Users/joostbooy/Desktop/Code/stm32/lib/tinyusb/src/class/midi/midi_device.c ****         stream->total = 2;
 889              		.loc 1 319 9 view .LVU244
 320:/Users/joostbooy/Desktop/Code/stm32/lib/tinyusb/src/class/midi/midi_device.c ****       }
 890              		.loc 1 320 9 view .LVU245
 320:/Users/joostbooy/Desktop/Code/stm32/lib/tinyusb/src/class/midi/midi_device.c ****       }
 891              		.loc 1 320 23 is_stmt 0 view .LVU246
 892 00ae 1072     		strb	r0, [r2, #8]
 893              	.LBE83:
 340:/Users/joostbooy/Desktop/Code/stm32/lib/tinyusb/src/class/midi/midi_device.c ****     {
ARM GAS  /var/folders/84/_x1cyy_j36g486tldtwl37280000gn/T//ccHWsz3h.s 			page 29


 894              		.loc 1 340 5 is_stmt 1 view .LVU247
 895              	.LVL74:
 896              	.LBB84:
 897              	.LBB73:
 343:/Users/joostbooy/Desktop/Code/stm32/lib/tinyusb/src/class/midi/midi_device.c **** 
 898              		.loc 1 343 40 view .LVU248
 899 00b0 49E0     		b	.L73
 900              	.LVL75:
 901              	.L70:
 343:/Users/joostbooy/Desktop/Code/stm32/lib/tinyusb/src/class/midi/midi_device.c **** 
 902              		.loc 1 343 40 is_stmt 0 view .LVU249
 903              	.LBE73:
 904              	.LBE84:
 327:/Users/joostbooy/Desktop/Code/stm32/lib/tinyusb/src/class/midi/midi_device.c ****       stream->buffer[stream->index] = data;
 905              		.loc 1 327 7 is_stmt 1 view .LVU250
 327:/Users/joostbooy/Desktop/Code/stm32/lib/tinyusb/src/class/midi/midi_device.c ****       stream->buffer[stream->index] = data;
 906              		.loc 1 327 7 view .LVU251
 907 00b2 0329     		cmp	r1, #3
 908 00b4 65D8     		bhi	.L88
 327:/Users/joostbooy/Desktop/Code/stm32/lib/tinyusb/src/class/midi/midi_device.c ****       stream->buffer[stream->index] = data;
 909              		.loc 1 327 7 discriminator 2 view .LVU252
 328:/Users/joostbooy/Desktop/Code/stm32/lib/tinyusb/src/class/midi/midi_device.c ****       stream->index++;
 910              		.loc 1 328 7 discriminator 2 view .LVU253
 328:/Users/joostbooy/Desktop/Code/stm32/lib/tinyusb/src/class/midi/midi_device.c ****       stream->index++;
 911              		.loc 1 328 37 is_stmt 0 discriminator 2 view .LVU254
 912 00b6 02EB010C 		add	ip, r2, r1
 329:/Users/joostbooy/Desktop/Code/stm32/lib/tinyusb/src/class/midi/midi_device.c **** 
 913              		.loc 1 329 20 discriminator 2 view .LVU255
 914 00ba 481C     		adds	r0, r1, #1
 328:/Users/joostbooy/Desktop/Code/stm32/lib/tinyusb/src/class/midi/midi_device.c ****       stream->index++;
 915              		.loc 1 328 37 discriminator 2 view .LVU256
 916 00bc 8CF80330 		strb	r3, [ip, #3]
 329:/Users/joostbooy/Desktop/Code/stm32/lib/tinyusb/src/class/midi/midi_device.c **** 
 917              		.loc 1 329 7 is_stmt 1 discriminator 2 view .LVU257
 332:/Users/joostbooy/Desktop/Code/stm32/lib/tinyusb/src/class/midi/midi_device.c ****       {
 918              		.loc 1 332 10 is_stmt 0 discriminator 2 view .LVU258
 919 00c0 92F803E0 		ldrb	lr, [r2, #3]	@ zero_extendqisi2
 920 00c4 0EF00F0C 		and	ip, lr, #15
 329:/Users/joostbooy/Desktop/Code/stm32/lib/tinyusb/src/class/midi/midi_device.c **** 
 921              		.loc 1 329 20 discriminator 2 view .LVU259
 922 00c8 C0B2     		uxtb	r0, r0
 332:/Users/joostbooy/Desktop/Code/stm32/lib/tinyusb/src/class/midi/midi_device.c ****       {
 923              		.loc 1 332 10 discriminator 2 view .LVU260
 924 00ca BCF1040F 		cmp	ip, #4
 329:/Users/joostbooy/Desktop/Code/stm32/lib/tinyusb/src/class/midi/midi_device.c **** 
 925              		.loc 1 329 20 discriminator 2 view .LVU261
 926 00ce D071     		strb	r0, [r2, #7]
 332:/Users/joostbooy/Desktop/Code/stm32/lib/tinyusb/src/class/midi/midi_device.c ****       {
 927              		.loc 1 332 7 is_stmt 1 discriminator 2 view .LVU262
 332:/Users/joostbooy/Desktop/Code/stm32/lib/tinyusb/src/class/midi/midi_device.c ****       {
 928              		.loc 1 332 10 is_stmt 0 discriminator 2 view .LVU263
 929 00d0 22D0     		beq	.L109
 930              	.L85:
 340:/Users/joostbooy/Desktop/Code/stm32/lib/tinyusb/src/class/midi/midi_device.c ****     {
 931              		.loc 1 340 5 is_stmt 1 view .LVU264
 340:/Users/joostbooy/Desktop/Code/stm32/lib/tinyusb/src/class/midi/midi_device.c ****     {
 932              		.loc 1 340 33 is_stmt 0 view .LVU265
ARM GAS  /var/folders/84/_x1cyy_j36g486tldtwl37280000gn/T//ccHWsz3h.s 			page 30


 933 00d2 4FF49472 		mov	r2, #296
 934 00d6 02FB0451 		mla	r1, r2, r4, r5
 340:/Users/joostbooy/Desktop/Code/stm32/lib/tinyusb/src/class/midi/midi_device.c ****     {
 935              		.loc 1 340 8 view .LVU266
 936 00da 0B7A     		ldrb	r3, [r1, #8]	@ zero_extendqisi2
 937              	.LVL76:
 340:/Users/joostbooy/Desktop/Code/stm32/lib/tinyusb/src/class/midi/midi_device.c ****     {
 938              		.loc 1 340 8 view .LVU267
 939 00dc 8342     		cmp	r3, r0
 940 00de 22D0     		beq	.L86
 941              	.L74:
 340:/Users/joostbooy/Desktop/Code/stm32/lib/tinyusb/src/class/midi/midi_device.c ****     {
 942              		.loc 1 340 5 is_stmt 1 view .LVU268
 943              	.LBB85:
 944              		.loc 1 351 7 view .LVU269
 945              	.LBE85:
 946              	.LBE98:
 249:/Users/joostbooy/Desktop/Code/stm32/lib/tinyusb/src/class/midi/midi_device.c ****   {
 947              		.loc 1 249 9 view .LVU270
 948 00e0 D845     		cmp	r8, fp
 949 00e2 BBD1     		bne	.L69
 950              	.L103:
 249:/Users/joostbooy/Desktop/Code/stm32/lib/tinyusb/src/class/midi/midi_device.c ****   {
 951              		.loc 1 249 9 is_stmt 0 view .LVU271
 952 00e4 DDF80490 		ldr	r9, [sp, #4]
 953              	.LVL77:
 954              	.L68:
 352:/Users/joostbooy/Desktop/Code/stm32/lib/tinyusb/src/class/midi/midi_device.c ****     }
 353:/Users/joostbooy/Desktop/Code/stm32/lib/tinyusb/src/class/midi/midi_device.c ****   }
 354:/Users/joostbooy/Desktop/Code/stm32/lib/tinyusb/src/class/midi/midi_device.c **** 
 355:/Users/joostbooy/Desktop/Code/stm32/lib/tinyusb/src/class/midi/midi_device.c ****   write_flush(midi);
 955              		.loc 1 355 3 is_stmt 1 view .LVU272
 956 00e8 05EB0900 		add	r0, r5, r9
 957 00ec FFF7FEFF 		bl	write_flush
 958              	.LVL78:
 356:/Users/joostbooy/Desktop/Code/stm32/lib/tinyusb/src/class/midi/midi_device.c **** 
 357:/Users/joostbooy/Desktop/Code/stm32/lib/tinyusb/src/class/midi/midi_device.c ****   return i;
 959              		.loc 1 357 3 view .LVU273
 960              	.L66:
 358:/Users/joostbooy/Desktop/Code/stm32/lib/tinyusb/src/class/midi/midi_device.c **** }
 961              		.loc 1 358 1 is_stmt 0 view .LVU274
 962 00f0 5846     		mov	r0, fp
 963 00f2 05B0     		add	sp, sp, #20
 964              		.cfi_remember_state
 965              		.cfi_def_cfa_offset 36
 966              		@ sp needed
 967 00f4 BDE8F08F 		pop	{r4, r5, r6, r7, r8, r9, r10, fp, pc}
 968              	.LVL79:
 969              	.L75:
 970              		.cfi_restore_state
 971              	.LBB99:
 972              	.LBB86:
 279:/Users/joostbooy/Desktop/Code/stm32/lib/tinyusb/src/class/midi/midi_device.c ****         stream->total = 4;
 973              		.loc 1 279 9 is_stmt 1 view .LVU275
 279:/Users/joostbooy/Desktop/Code/stm32/lib/tinyusb/src/class/midi/midi_device.c ****         stream->total = 4;
 974              		.loc 1 279 27 is_stmt 0 view .LVU276
 975 00f8 4FF4947E 		mov	lr, #296
ARM GAS  /var/folders/84/_x1cyy_j36g486tldtwl37280000gn/T//ccHWsz3h.s 			page 31


 976 00fc 0EFB045C 		mla	ip, lr, r4, r5
 279:/Users/joostbooy/Desktop/Code/stm32/lib/tinyusb/src/class/midi/midi_device.c ****         stream->total = 4;
 977              		.loc 1 279 57 view .LVU277
 978 0100 4AEA0102 		orr	r2, r10, r1
 280:/Users/joostbooy/Desktop/Code/stm32/lib/tinyusb/src/class/midi/midi_device.c ****       }
 979              		.loc 1 280 23 view .LVU278
 980 0104 0421     		movs	r1, #4
 279:/Users/joostbooy/Desktop/Code/stm32/lib/tinyusb/src/class/midi/midi_device.c ****         stream->total = 4;
 981              		.loc 1 279 27 view .LVU279
 982 0106 8CF80320 		strb	r2, [ip, #3]
 280:/Users/joostbooy/Desktop/Code/stm32/lib/tinyusb/src/class/midi/midi_device.c ****       }
 983              		.loc 1 280 9 is_stmt 1 view .LVU280
 280:/Users/joostbooy/Desktop/Code/stm32/lib/tinyusb/src/class/midi/midi_device.c ****       }
 984              		.loc 1 280 23 is_stmt 0 view .LVU281
 985 010a 8CF80810 		strb	r1, [ip, #8]
 986 010e E7E7     		b	.L74
 987              	.L106:
 266:/Users/joostbooy/Desktop/Code/stm32/lib/tinyusb/src/class/midi/midi_device.c ****         {
 988              		.loc 1 266 9 is_stmt 1 view .LVU282
 266:/Users/joostbooy/Desktop/Code/stm32/lib/tinyusb/src/class/midi/midi_device.c ****         {
 989              		.loc 1 266 12 is_stmt 0 view .LVU283
 990 0110 F72B     		cmp	r3, #247
 991 0112 15D0     		beq	.L110
 273:/Users/joostbooy/Desktop/Code/stm32/lib/tinyusb/src/class/midi/midi_device.c ****         }
 992              		.loc 1 273 11 is_stmt 1 view .LVU284
 273:/Users/joostbooy/Desktop/Code/stm32/lib/tinyusb/src/class/midi/midi_device.c ****         }
 993              		.loc 1 273 25 is_stmt 0 view .LVU285
 994 0114 1172     		strb	r1, [r2, #8]
 995 0116 E3E7     		b	.L74
 996              	.LVL80:
 997              	.L109:
 273:/Users/joostbooy/Desktop/Code/stm32/lib/tinyusb/src/class/midi/midi_device.c ****         }
 998              		.loc 1 273 25 view .LVU286
 999              	.LBE86:
 332:/Users/joostbooy/Desktop/Code/stm32/lib/tinyusb/src/class/midi/midi_device.c ****       {
 1000              		.loc 1 332 62 discriminator 1 view .LVU287
 1001 0118 F72B     		cmp	r3, #247
 1002 011a DAD1     		bne	.L85
 334:/Users/joostbooy/Desktop/Code/stm32/lib/tinyusb/src/class/midi/midi_device.c ****         stream->total = stream->index;
 1003              		.loc 1 334 9 is_stmt 1 view .LVU288
 334:/Users/joostbooy/Desktop/Code/stm32/lib/tinyusb/src/class/midi/midi_device.c ****         stream->total = stream->index;
 1004              		.loc 1 334 81 is_stmt 0 view .LVU289
 1005 011c 0431     		adds	r1, r1, #4
 334:/Users/joostbooy/Desktop/Code/stm32/lib/tinyusb/src/class/midi/midi_device.c ****         stream->total = stream->index;
 1006              		.loc 1 334 57 view .LVU290
 1007 011e 4AEA0101 		orr	r1, r10, r1
 334:/Users/joostbooy/Desktop/Code/stm32/lib/tinyusb/src/class/midi/midi_device.c ****         stream->total = stream->index;
 1008              		.loc 1 334 27 view .LVU291
 1009 0122 D170     		strb	r1, [r2, #3]
 335:/Users/joostbooy/Desktop/Code/stm32/lib/tinyusb/src/class/midi/midi_device.c ****       }
 1010              		.loc 1 335 9 is_stmt 1 view .LVU292
 335:/Users/joostbooy/Desktop/Code/stm32/lib/tinyusb/src/class/midi/midi_device.c ****       }
 1011              		.loc 1 335 23 is_stmt 0 view .LVU293
 1012 0124 1072     		strb	r0, [r2, #8]
 340:/Users/joostbooy/Desktop/Code/stm32/lib/tinyusb/src/class/midi/midi_device.c ****     {
 1013              		.loc 1 340 5 is_stmt 1 view .LVU294
 1014              	.LVL81:
ARM GAS  /var/folders/84/_x1cyy_j36g486tldtwl37280000gn/T//ccHWsz3h.s 			page 32


 1015              	.L86:
 1016              	.LBB87:
 1017              	.LBB74:
 343:/Users/joostbooy/Desktop/Code/stm32/lib/tinyusb/src/class/midi/midi_device.c **** 
 1018              		.loc 1 343 40 view .LVU295
 343:/Users/joostbooy/Desktop/Code/stm32/lib/tinyusb/src/class/midi/midi_device.c **** 
 1019              		.loc 1 343 7 is_stmt 0 view .LVU296
 1020 0126 0428     		cmp	r0, #4
 1021 0128 1BD0     		beq	.L90
 343:/Users/joostbooy/Desktop/Code/stm32/lib/tinyusb/src/class/midi/midi_device.c **** 
 1022              		.loc 1 343 56 is_stmt 1 view .LVU297
 343:/Users/joostbooy/Desktop/Code/stm32/lib/tinyusb/src/class/midi/midi_device.c **** 
 1023              		.loc 1 343 76 is_stmt 0 view .LVU298
 1024 012a 4FF4947E 		mov	lr, #296
 1025 012e 0EFB045C 		mla	ip, lr, r4, r5
 1026 0132 8444     		add	ip, ip, r0
 1027 0134 0022     		movs	r2, #0
 343:/Users/joostbooy/Desktop/Code/stm32/lib/tinyusb/src/class/midi/midi_device.c **** 
 1028              		.loc 1 343 7 view .LVU299
 1029 0136 0228     		cmp	r0, #2
 343:/Users/joostbooy/Desktop/Code/stm32/lib/tinyusb/src/class/midi/midi_device.c **** 
 1030              		.loc 1 343 76 view .LVU300
 1031 0138 8CF80320 		strb	r2, [ip, #3]
 343:/Users/joostbooy/Desktop/Code/stm32/lib/tinyusb/src/class/midi/midi_device.c **** 
 1032              		.loc 1 343 49 is_stmt 1 view .LVU301
 1033              	.LVL82:
 343:/Users/joostbooy/Desktop/Code/stm32/lib/tinyusb/src/class/midi/midi_device.c **** 
 1034              		.loc 1 343 40 view .LVU302
 343:/Users/joostbooy/Desktop/Code/stm32/lib/tinyusb/src/class/midi/midi_device.c **** 
 1035              		.loc 1 343 7 is_stmt 0 view .LVU303
 1036 013c 11D1     		bne	.L90
 1037 013e 09E0     		b	.L92
 1038              	.LVL83:
 1039              	.L110:
 343:/Users/joostbooy/Desktop/Code/stm32/lib/tinyusb/src/class/midi/midi_device.c **** 
 1040              		.loc 1 343 7 view .LVU304
 1041              	.LBE74:
 1042              	.LBE87:
 1043              	.LBB88:
 268:/Users/joostbooy/Desktop/Code/stm32/lib/tinyusb/src/class/midi/midi_device.c ****           stream->total = 2;
 1044              		.loc 1 268 11 is_stmt 1 view .LVU305
 268:/Users/joostbooy/Desktop/Code/stm32/lib/tinyusb/src/class/midi/midi_device.c ****           stream->total = 2;
 1045              		.loc 1 268 29 is_stmt 0 view .LVU306
 1046 0140 009B     		ldr	r3, [sp]
 1047              	.LVL84:
 268:/Users/joostbooy/Desktop/Code/stm32/lib/tinyusb/src/class/midi/midi_device.c ****           stream->total = 2;
 1048              		.loc 1 268 29 view .LVU307
 1049 0142 D370     		strb	r3, [r2, #3]
 269:/Users/joostbooy/Desktop/Code/stm32/lib/tinyusb/src/class/midi/midi_device.c ****         }
 1050              		.loc 1 269 11 is_stmt 1 view .LVU308
 269:/Users/joostbooy/Desktop/Code/stm32/lib/tinyusb/src/class/midi/midi_device.c ****         }
 1051              		.loc 1 269 25 is_stmt 0 view .LVU309
 1052 0144 1072     		strb	r0, [r2, #8]
 1053              	.LBE88:
 340:/Users/joostbooy/Desktop/Code/stm32/lib/tinyusb/src/class/midi/midi_device.c ****     {
 1054              		.loc 1 340 5 is_stmt 1 view .LVU310
 1055              	.LVL85:
ARM GAS  /var/folders/84/_x1cyy_j36g486tldtwl37280000gn/T//ccHWsz3h.s 			page 33


 1056              	.LBB89:
 1057              	.LBB75:
 343:/Users/joostbooy/Desktop/Code/stm32/lib/tinyusb/src/class/midi/midi_device.c **** 
 1058              		.loc 1 343 40 view .LVU311
 1059              	.L73:
 343:/Users/joostbooy/Desktop/Code/stm32/lib/tinyusb/src/class/midi/midi_device.c **** 
 1060              		.loc 1 343 56 view .LVU312
 343:/Users/joostbooy/Desktop/Code/stm32/lib/tinyusb/src/class/midi/midi_device.c **** 
 1061              		.loc 1 343 76 is_stmt 0 view .LVU313
 1062 0146 4FF49470 		mov	r0, #296
 1063 014a 00FB045E 		mla	lr, r0, r4, r5
 1064 014e 0022     		movs	r2, #0
 1065              	.LVL86:
 343:/Users/joostbooy/Desktop/Code/stm32/lib/tinyusb/src/class/midi/midi_device.c **** 
 1066              		.loc 1 343 76 view .LVU314
 1067 0150 8EF80520 		strb	r2, [lr, #5]
 1068              	.LVL87:
 343:/Users/joostbooy/Desktop/Code/stm32/lib/tinyusb/src/class/midi/midi_device.c **** 
 1069              		.loc 1 343 49 is_stmt 1 view .LVU315
 343:/Users/joostbooy/Desktop/Code/stm32/lib/tinyusb/src/class/midi/midi_device.c **** 
 1070              		.loc 1 343 40 view .LVU316
 1071              	.L92:
 343:/Users/joostbooy/Desktop/Code/stm32/lib/tinyusb/src/class/midi/midi_device.c **** 
 1072              		.loc 1 343 56 view .LVU317
 343:/Users/joostbooy/Desktop/Code/stm32/lib/tinyusb/src/class/midi/midi_device.c **** 
 1073              		.loc 1 343 76 is_stmt 0 view .LVU318
 1074 0154 4FF49471 		mov	r1, #296
 1075 0158 01FB045C 		mla	ip, r1, r4, r5
 1076 015c 0023     		movs	r3, #0
 1077 015e 8CF80630 		strb	r3, [ip, #6]
 343:/Users/joostbooy/Desktop/Code/stm32/lib/tinyusb/src/class/midi/midi_device.c **** 
 1078              		.loc 1 343 49 is_stmt 1 view .LVU319
 1079              	.LVL88:
 343:/Users/joostbooy/Desktop/Code/stm32/lib/tinyusb/src/class/midi/midi_device.c **** 
 1080              		.loc 1 343 40 view .LVU320
 1081              	.L90:
 343:/Users/joostbooy/Desktop/Code/stm32/lib/tinyusb/src/class/midi/midi_device.c **** 
 1082              		.loc 1 343 40 is_stmt 0 view .LVU321
 1083              	.LBE75:
 345:/Users/joostbooy/Desktop/Code/stm32/lib/tinyusb/src/class/midi/midi_device.c **** 
 1084              		.loc 1 345 7 is_stmt 1 view .LVU322
 345:/Users/joostbooy/Desktop/Code/stm32/lib/tinyusb/src/class/midi/midi_device.c **** 
 1085              		.loc 1 345 30 is_stmt 0 view .LVU323
 1086 0162 0422     		movs	r2, #4
 1087 0164 4946     		mov	r1, r9
 1088 0166 3846     		mov	r0, r7
 1089 0168 FFF7FEFF 		bl	tu_fifo_write_n
 1090              	.LVL89:
 348:/Users/joostbooy/Desktop/Code/stm32/lib/tinyusb/src/class/midi/midi_device.c **** 
 1091              		.loc 1 348 7 is_stmt 1 view .LVU324
 348:/Users/joostbooy/Desktop/Code/stm32/lib/tinyusb/src/class/midi/midi_device.c **** 
 1092              		.loc 1 348 37 is_stmt 0 view .LVU325
 1093 016c 4FF49472 		mov	r2, #296
 1094 0170 02FB045C 		mla	ip, r2, r4, r5
 1095 0174 0021     		movs	r1, #0
 351:/Users/joostbooy/Desktop/Code/stm32/lib/tinyusb/src/class/midi/midi_device.c ****     }
 1096              		.loc 1 351 7 view .LVU326
ARM GAS  /var/folders/84/_x1cyy_j36g486tldtwl37280000gn/T//ccHWsz3h.s 			page 34


 1097 0176 0428     		cmp	r0, #4
 348:/Users/joostbooy/Desktop/Code/stm32/lib/tinyusb/src/class/midi/midi_device.c **** 
 1098              		.loc 1 348 37 view .LVU327
 1099 0178 8CF80810 		strb	r1, [ip, #8]
 348:/Users/joostbooy/Desktop/Code/stm32/lib/tinyusb/src/class/midi/midi_device.c **** 
 1100              		.loc 1 348 21 view .LVU328
 1101 017c 8CF80710 		strb	r1, [ip, #7]
 351:/Users/joostbooy/Desktop/Code/stm32/lib/tinyusb/src/class/midi/midi_device.c ****     }
 1102              		.loc 1 351 7 is_stmt 1 view .LVU329
 351:/Users/joostbooy/Desktop/Code/stm32/lib/tinyusb/src/class/midi/midi_device.c ****     }
 1103              		.loc 1 351 7 view .LVU330
 1104 0180 AED0     		beq	.L74
 1105              	.LVL90:
 1106              	.L88:
 351:/Users/joostbooy/Desktop/Code/stm32/lib/tinyusb/src/class/midi/midi_device.c ****     }
 1107              		.loc 1 351 7 discriminator 1 view .LVU331
 351:/Users/joostbooy/Desktop/Code/stm32/lib/tinyusb/src/class/midi/midi_device.c ****     }
 1108              		.loc 1 351 7 discriminator 1 view .LVU332
 351:/Users/joostbooy/Desktop/Code/stm32/lib/tinyusb/src/class/midi/midi_device.c ****     }
 1109              		.loc 1 351 7 discriminator 1 view .LVU333
 351:/Users/joostbooy/Desktop/Code/stm32/lib/tinyusb/src/class/midi/midi_device.c ****     }
 1110              		.loc 1 351 7 discriminator 1 view .LVU334
 1111              	.LBB76:
 351:/Users/joostbooy/Desktop/Code/stm32/lib/tinyusb/src/class/midi/midi_device.c ****     }
 1112              		.loc 1 351 7 discriminator 1 view .LVU335
 351:/Users/joostbooy/Desktop/Code/stm32/lib/tinyusb/src/class/midi/midi_device.c ****     }
 1113              		.loc 1 351 7 discriminator 1 view .LVU336
 1114 0182 224C     		ldr	r4, .L113+4
 1115              	.LVL91:
 351:/Users/joostbooy/Desktop/Code/stm32/lib/tinyusb/src/class/midi/midi_device.c ****     }
 1116              		.loc 1 351 7 is_stmt 0 discriminator 1 view .LVU337
 1117 0184 2568     		ldr	r5, [r4]
 1118 0186 EB07     		lsls	r3, r5, #31
 1119 0188 B2D5     		bpl	.L66
 351:/Users/joostbooy/Desktop/Code/stm32/lib/tinyusb/src/class/midi/midi_device.c ****     }
 1120              		.loc 1 351 7 is_stmt 1 discriminator 3 view .LVU338
 1121              		.syntax unified
 1122              	@ 351 "/Users/joostbooy/Desktop/Code/stm32/lib/tinyusb/src/class/midi/midi_device.c" 1
 1123 018a 00BE     		BKPT #0
 1124              	
 1125              	@ 0 "" 2
 1126              		.thumb
 1127              		.syntax unified
 1128 018c B0E7     		b	.L66
 1129              	.LVL92:
 1130              	.L107:
 351:/Users/joostbooy/Desktop/Code/stm32/lib/tinyusb/src/class/midi/midi_device.c ****     }
 1131              		.loc 1 351 7 is_stmt 0 discriminator 3 view .LVU339
 1132              	.LBE76:
 1133              	.LBE89:
 1134              	.LBB90:
 285:/Users/joostbooy/Desktop/Code/stm32/lib/tinyusb/src/class/midi/midi_device.c ****         stream->total = 3;
 1135              		.loc 1 285 9 is_stmt 1 view .LVU340
 285:/Users/joostbooy/Desktop/Code/stm32/lib/tinyusb/src/class/midi/midi_device.c ****         stream->total = 3;
 1136              		.loc 1 285 57 is_stmt 0 view .LVU341
 1137 018e 4AEA0103 		orr	r3, r10, r1
 1138              	.LVL93:
ARM GAS  /var/folders/84/_x1cyy_j36g486tldtwl37280000gn/T//ccHWsz3h.s 			page 35


 286:/Users/joostbooy/Desktop/Code/stm32/lib/tinyusb/src/class/midi/midi_device.c ****       }
 1139              		.loc 1 286 23 view .LVU342
 1140 0192 0320     		movs	r0, #3
 285:/Users/joostbooy/Desktop/Code/stm32/lib/tinyusb/src/class/midi/midi_device.c ****         stream->total = 3;
 1141              		.loc 1 285 27 view .LVU343
 1142 0194 D370     		strb	r3, [r2, #3]
 286:/Users/joostbooy/Desktop/Code/stm32/lib/tinyusb/src/class/midi/midi_device.c ****       }
 1143              		.loc 1 286 9 is_stmt 1 view .LVU344
 286:/Users/joostbooy/Desktop/Code/stm32/lib/tinyusb/src/class/midi/midi_device.c ****       }
 1144              		.loc 1 286 23 is_stmt 0 view .LVU345
 1145 0196 1072     		strb	r0, [r2, #8]
 1146 0198 A2E7     		b	.L74
 1147              	.LVL94:
 1148              	.L93:
 286:/Users/joostbooy/Desktop/Code/stm32/lib/tinyusb/src/class/midi/midi_device.c ****       }
 1149              		.loc 1 286 23 view .LVU346
 1150              	.LBE90:
 1151              	.LBE99:
 244:/Users/joostbooy/Desktop/Code/stm32/lib/tinyusb/src/class/midi/midi_device.c **** 
 1152              		.loc 1 244 3 view .LVU347
 1153 019a BB46     		mov	fp, r7
 1154              		.loc 1 358 1 view .LVU348
 1155 019c 5846     		mov	r0, fp
 1156 019e 05B0     		add	sp, sp, #20
 1157              		.cfi_remember_state
 1158              		.cfi_def_cfa_offset 36
 1159              		@ sp needed
 1160 01a0 BDE8F08F 		pop	{r4, r5, r6, r7, r8, r9, r10, fp, pc}
 1161              	.LVL95:
 1162              	.L108:
 1163              		.cfi_restore_state
 1164              	.LBB100:
 1165              	.LBB91:
 291:/Users/joostbooy/Desktop/Code/stm32/lib/tinyusb/src/class/midi/midi_device.c ****         {
 1166              		.loc 1 291 9 is_stmt 1 view .LVU349
 291:/Users/joostbooy/Desktop/Code/stm32/lib/tinyusb/src/class/midi/midi_device.c ****         {
 1167              		.loc 1 291 12 is_stmt 0 view .LVU350
 1168 01a4 F02B     		cmp	r3, #240
 1169 01a6 28D0     		beq	.L111
 296:/Users/joostbooy/Desktop/Code/stm32/lib/tinyusb/src/class/midi/midi_device.c ****         {
 1170              		.loc 1 296 14 is_stmt 1 view .LVU351
 296:/Users/joostbooy/Desktop/Code/stm32/lib/tinyusb/src/class/midi/midi_device.c ****         {
 1171              		.loc 1 296 17 is_stmt 0 view .LVU352
 1172 01a8 03F0FD01 		and	r1, r3, #253
 1173 01ac F129     		cmp	r1, #241
 1174 01ae 20D0     		beq	.L112
 301:/Users/joostbooy/Desktop/Code/stm32/lib/tinyusb/src/class/midi/midi_device.c ****         {
 1175              		.loc 1 301 14 is_stmt 1 view .LVU353
 303:/Users/joostbooy/Desktop/Code/stm32/lib/tinyusb/src/class/midi/midi_device.c ****           stream->total = 4;
 1176              		.loc 1 303 11 view .LVU354
 308:/Users/joostbooy/Desktop/Code/stm32/lib/tinyusb/src/class/midi/midi_device.c ****           stream->total = 2;
 1177              		.loc 1 308 11 view .LVU355
 303:/Users/joostbooy/Desktop/Code/stm32/lib/tinyusb/src/class/midi/midi_device.c ****           stream->total = 4;
 1178              		.loc 1 303 29 is_stmt 0 view .LVU356
 1179 01b0 4FF49472 		mov	r2, #296
 301:/Users/joostbooy/Desktop/Code/stm32/lib/tinyusb/src/class/midi/midi_device.c ****         {
 1180              		.loc 1 301 17 view .LVU357
ARM GAS  /var/folders/84/_x1cyy_j36g486tldtwl37280000gn/T//ccHWsz3h.s 			page 36


 1181 01b4 F22B     		cmp	r3, #242
 303:/Users/joostbooy/Desktop/Code/stm32/lib/tinyusb/src/class/midi/midi_device.c ****           stream->total = 4;
 1182              		.loc 1 303 29 view .LVU358
 1183 01b6 02FB045E 		mla	lr, r2, r4, r5
 1184 01ba 07BF     		ittee	eq
 1185 01bc 0320     		moveq	r0, #3
 304:/Users/joostbooy/Desktop/Code/stm32/lib/tinyusb/src/class/midi/midi_device.c ****         }
 1186              		.loc 1 304 25 view .LVU359
 1187 01be 0421     		moveq	r1, #4
 308:/Users/joostbooy/Desktop/Code/stm32/lib/tinyusb/src/class/midi/midi_device.c ****           stream->total = 2;
 1188              		.loc 1 308 29 view .LVU360
 1189 01c0 0520     		movne	r0, #5
 309:/Users/joostbooy/Desktop/Code/stm32/lib/tinyusb/src/class/midi/midi_device.c ****         }
 1190              		.loc 1 309 25 view .LVU361
 1191 01c2 0221     		movne	r1, #2
 308:/Users/joostbooy/Desktop/Code/stm32/lib/tinyusb/src/class/midi/midi_device.c ****           stream->total = 2;
 1192              		.loc 1 308 29 view .LVU362
 1193 01c4 8EF80300 		strb	r0, [lr, #3]
 309:/Users/joostbooy/Desktop/Code/stm32/lib/tinyusb/src/class/midi/midi_device.c ****         }
 1194              		.loc 1 309 11 is_stmt 1 view .LVU363
 309:/Users/joostbooy/Desktop/Code/stm32/lib/tinyusb/src/class/midi/midi_device.c ****         }
 1195              		.loc 1 309 25 is_stmt 0 view .LVU364
 1196 01c8 8EF80810 		strb	r1, [lr, #8]
 1197              	.LVL96:
 1198              	.L80:
 311:/Users/joostbooy/Desktop/Code/stm32/lib/tinyusb/src/class/midi/midi_device.c ****       }
 1199              		.loc 1 311 9 is_stmt 1 view .LVU365
 311:/Users/joostbooy/Desktop/Code/stm32/lib/tinyusb/src/class/midi/midi_device.c ****       }
 1200              		.loc 1 311 27 is_stmt 0 view .LVU366
 1201 01cc 4FF49471 		mov	r1, #296
 1202 01d0 01FB045C 		mla	ip, r1, r4, r5
 1203 01d4 039B     		ldr	r3, [sp, #12]
 1204 01d6 9CF80320 		ldrb	r2, [ip, #3]	@ zero_extendqisi2
 1205              	.LBE91:
 340:/Users/joostbooy/Desktop/Code/stm32/lib/tinyusb/src/class/midi/midi_device.c ****     {
 1206              		.loc 1 340 8 view .LVU367
 1207 01da 9CF80800 		ldrb	r0, [ip, #8]	@ zero_extendqisi2
 1208              	.LBB92:
 311:/Users/joostbooy/Desktop/Code/stm32/lib/tinyusb/src/class/midi/midi_device.c ****       }
 1209              		.loc 1 311 27 view .LVU368
 1210 01de 1A43     		orrs	r2, r2, r3
 1211              	.LBE92:
 340:/Users/joostbooy/Desktop/Code/stm32/lib/tinyusb/src/class/midi/midi_device.c ****     {
 1212              		.loc 1 340 8 view .LVU369
 1213 01e0 0228     		cmp	r0, #2
 1214              	.LBB93:
 311:/Users/joostbooy/Desktop/Code/stm32/lib/tinyusb/src/class/midi/midi_device.c ****       }
 1215              		.loc 1 311 27 view .LVU370
 1216 01e2 8CF80320 		strb	r2, [ip, #3]
 1217              	.LBE93:
 340:/Users/joostbooy/Desktop/Code/stm32/lib/tinyusb/src/class/midi/midi_device.c ****     {
 1218              		.loc 1 340 5 is_stmt 1 view .LVU371
 340:/Users/joostbooy/Desktop/Code/stm32/lib/tinyusb/src/class/midi/midi_device.c ****     {
 1219              		.loc 1 340 8 is_stmt 0 view .LVU372
 1220 01e6 7FF47BAF 		bne	.L74
 1221              	.LVL97:
 1222              	.LBB94:
ARM GAS  /var/folders/84/_x1cyy_j36g486tldtwl37280000gn/T//ccHWsz3h.s 			page 37


 1223              	.LBB77:
 343:/Users/joostbooy/Desktop/Code/stm32/lib/tinyusb/src/class/midi/midi_device.c **** 
 1224              		.loc 1 343 40 is_stmt 1 view .LVU373
 343:/Users/joostbooy/Desktop/Code/stm32/lib/tinyusb/src/class/midi/midi_device.c **** 
 1225              		.loc 1 343 56 view .LVU374
 343:/Users/joostbooy/Desktop/Code/stm32/lib/tinyusb/src/class/midi/midi_device.c **** 
 1226              		.loc 1 343 76 is_stmt 0 view .LVU375
 1227 01ea 0021     		movs	r1, #0
 1228 01ec 8CF80510 		strb	r1, [ip, #5]
 343:/Users/joostbooy/Desktop/Code/stm32/lib/tinyusb/src/class/midi/midi_device.c **** 
 1229              		.loc 1 343 49 is_stmt 1 view .LVU376
 1230              	.LVL98:
 343:/Users/joostbooy/Desktop/Code/stm32/lib/tinyusb/src/class/midi/midi_device.c **** 
 1231              		.loc 1 343 40 view .LVU377
 1232 01f0 B0E7     		b	.L92
 1233              	.LVL99:
 1234              	.L112:
 343:/Users/joostbooy/Desktop/Code/stm32/lib/tinyusb/src/class/midi/midi_device.c **** 
 1235              		.loc 1 343 40 is_stmt 0 view .LVU378
 1236              	.LBE77:
 1237              	.LBE94:
 1238              	.LBB95:
 298:/Users/joostbooy/Desktop/Code/stm32/lib/tinyusb/src/class/midi/midi_device.c ****           stream->total = 3;
 1239              		.loc 1 298 11 is_stmt 1 view .LVU379
 299:/Users/joostbooy/Desktop/Code/stm32/lib/tinyusb/src/class/midi/midi_device.c ****         }
 1240              		.loc 1 299 25 is_stmt 0 view .LVU380
 1241 01f2 0323     		movs	r3, #3
 1242              	.LVL100:
 298:/Users/joostbooy/Desktop/Code/stm32/lib/tinyusb/src/class/midi/midi_device.c ****           stream->total = 3;
 1243              		.loc 1 298 29 view .LVU381
 1244 01f4 D070     		strb	r0, [r2, #3]
 299:/Users/joostbooy/Desktop/Code/stm32/lib/tinyusb/src/class/midi/midi_device.c ****         }
 1245              		.loc 1 299 11 is_stmt 1 view .LVU382
 299:/Users/joostbooy/Desktop/Code/stm32/lib/tinyusb/src/class/midi/midi_device.c ****         }
 1246              		.loc 1 299 25 is_stmt 0 view .LVU383
 1247 01f6 1372     		strb	r3, [r2, #8]
 1248 01f8 E8E7     		b	.L80
 1249              	.LVL101:
 1250              	.L111:
 293:/Users/joostbooy/Desktop/Code/stm32/lib/tinyusb/src/class/midi/midi_device.c ****           stream->total = 4;
 1251              		.loc 1 293 11 is_stmt 1 view .LVU384
 293:/Users/joostbooy/Desktop/Code/stm32/lib/tinyusb/src/class/midi/midi_device.c ****           stream->total = 4;
 1252              		.loc 1 293 29 is_stmt 0 view .LVU385
 1253 01fa 0420     		movs	r0, #4
 1254 01fc D070     		strb	r0, [r2, #3]
 294:/Users/joostbooy/Desktop/Code/stm32/lib/tinyusb/src/class/midi/midi_device.c ****         }
 1255              		.loc 1 294 11 is_stmt 1 view .LVU386
 294:/Users/joostbooy/Desktop/Code/stm32/lib/tinyusb/src/class/midi/midi_device.c ****         }
 1256              		.loc 1 294 25 is_stmt 0 view .LVU387
 1257 01fe 1072     		strb	r0, [r2, #8]
 1258 0200 E4E7     		b	.L80
 1259              	.LVL102:
 1260              	.L94:
 294:/Users/joostbooy/Desktop/Code/stm32/lib/tinyusb/src/class/midi/midi_device.c ****         }
 1261              		.loc 1 294 25 view .LVU388
 1262              	.LBE95:
 1263              	.LBE100:
ARM GAS  /var/folders/84/_x1cyy_j36g486tldtwl37280000gn/T//ccHWsz3h.s 			page 38


 248:/Users/joostbooy/Desktop/Code/stm32/lib/tinyusb/src/class/midi/midi_device.c ****   while ( (i < bufsize) && (tu_fifo_remaining(&midi->tx_ff) >= 4) )
 1264              		.loc 1 248 12 view .LVU389
 1265 0202 9B46     		mov	fp, r3
 1266 0204 70E7     		b	.L68
 1267              	.L114:
 1268 0206 00BF     		.align	2
 1269              	.L113:
 1270 0208 00000000 		.word	_midid_itf
 1271 020c F0ED00E0 		.word	-536810000
 1272              		.cfi_endproc
 1273              	.LFE77:
 1275              		.section	.text.tud_midi_n_packet_write,"ax",%progbits
 1276              		.align	1
 1277              		.p2align 2,,3
 1278              		.global	tud_midi_n_packet_write
 1279              		.syntax unified
 1280              		.thumb
 1281              		.thumb_func
 1282              		.fpu fpv4-sp-d16
 1284              	tud_midi_n_packet_write:
 1285              	.LVL103:
 1286              	.LFB78:
 359:/Users/joostbooy/Desktop/Code/stm32/lib/tinyusb/src/class/midi/midi_device.c **** 
 360:/Users/joostbooy/Desktop/Code/stm32/lib/tinyusb/src/class/midi/midi_device.c **** bool tud_midi_n_packet_write (uint8_t itf, uint8_t const packet[4])
 361:/Users/joostbooy/Desktop/Code/stm32/lib/tinyusb/src/class/midi/midi_device.c **** {
 1287              		.loc 1 361 1 is_stmt 1 view -0
 1288              		.cfi_startproc
 1289              		@ args = 0, pretend = 0, frame = 0
 1290              		@ frame_needed = 0, uses_anonymous_args = 0
 362:/Users/joostbooy/Desktop/Code/stm32/lib/tinyusb/src/class/midi/midi_device.c ****   midid_interface_t* midi = &_midid_itf[itf];
 1291              		.loc 1 362 3 view .LVU391
 363:/Users/joostbooy/Desktop/Code/stm32/lib/tinyusb/src/class/midi/midi_device.c ****   TU_VERIFY(midi->ep_in);
 1292              		.loc 1 363 3 view .LVU392
 1293              		.loc 1 363 3 view .LVU393
 361:/Users/joostbooy/Desktop/Code/stm32/lib/tinyusb/src/class/midi/midi_device.c ****   midid_interface_t* midi = &_midid_itf[itf];
 1294              		.loc 1 361 1 is_stmt 0 view .LVU394
 1295 0000 70B5     		push	{r4, r5, r6, lr}
 1296              		.cfi_def_cfa_offset 16
 1297              		.cfi_offset 4, -16
 1298              		.cfi_offset 5, -12
 1299              		.cfi_offset 6, -8
 1300              		.cfi_offset 14, -4
 1301              		.loc 1 363 3 view .LVU395
 1302 0002 4FF49473 		mov	r3, #296
 1303 0006 0D4C     		ldr	r4, .L120
 1304 0008 03FB00F0 		mul	r0, r3, r0
 1305              	.LVL104:
 1306              		.loc 1 363 3 view .LVU396
 1307 000c 2618     		adds	r6, r4, r0
 1308 000e 7278     		ldrb	r2, [r6, #1]	@ zero_extendqisi2
 1309 0010 0AB9     		cbnz	r2, .L116
 1310              	.LVL105:
 1311              	.L118:
 1312              		.loc 1 363 3 view .LVU397
 1313 0012 0020     		movs	r0, #0
 364:/Users/joostbooy/Desktop/Code/stm32/lib/tinyusb/src/class/midi/midi_device.c **** 
 365:/Users/joostbooy/Desktop/Code/stm32/lib/tinyusb/src/class/midi/midi_device.c ****   if (tu_fifo_remaining(&midi->tx_ff) < 4) return false;
ARM GAS  /var/folders/84/_x1cyy_j36g486tldtwl37280000gn/T//ccHWsz3h.s 			page 39


 366:/Users/joostbooy/Desktop/Code/stm32/lib/tinyusb/src/class/midi/midi_device.c **** 
 367:/Users/joostbooy/Desktop/Code/stm32/lib/tinyusb/src/class/midi/midi_device.c ****   tu_fifo_write_n(&midi->tx_ff, packet, 4);
 368:/Users/joostbooy/Desktop/Code/stm32/lib/tinyusb/src/class/midi/midi_device.c ****   write_flush(midi);
 369:/Users/joostbooy/Desktop/Code/stm32/lib/tinyusb/src/class/midi/midi_device.c **** 
 370:/Users/joostbooy/Desktop/Code/stm32/lib/tinyusb/src/class/midi/midi_device.c ****   return true;
 371:/Users/joostbooy/Desktop/Code/stm32/lib/tinyusb/src/class/midi/midi_device.c **** }
 1314              		.loc 1 371 1 view .LVU398
 1315 0014 70BD     		pop	{r4, r5, r6, pc}
 1316              	.LVL106:
 1317              	.L116:
 363:/Users/joostbooy/Desktop/Code/stm32/lib/tinyusb/src/class/midi/midi_device.c **** 
 1318              		.loc 1 363 3 is_stmt 1 discriminator 2 view .LVU399
 365:/Users/joostbooy/Desktop/Code/stm32/lib/tinyusb/src/class/midi/midi_device.c **** 
 1319              		.loc 1 365 3 discriminator 2 view .LVU400
 365:/Users/joostbooy/Desktop/Code/stm32/lib/tinyusb/src/class/midi/midi_device.c **** 
 1320              		.loc 1 365 7 is_stmt 0 discriminator 2 view .LVU401
 1321 0016 1C30     		adds	r0, r0, #28
 1322 0018 0444     		add	r4, r4, r0
 1323 001a 2046     		mov	r0, r4
 1324 001c 0D46     		mov	r5, r1
 1325 001e FFF7FEFF 		bl	tu_fifo_remaining
 1326              	.LVL107:
 365:/Users/joostbooy/Desktop/Code/stm32/lib/tinyusb/src/class/midi/midi_device.c **** 
 1327              		.loc 1 365 6 discriminator 2 view .LVU402
 1328 0022 0328     		cmp	r0, #3
 1329 0024 F5D9     		bls	.L118
 367:/Users/joostbooy/Desktop/Code/stm32/lib/tinyusb/src/class/midi/midi_device.c ****   write_flush(midi);
 1330              		.loc 1 367 3 is_stmt 1 view .LVU403
 1331 0026 2946     		mov	r1, r5
 1332 0028 0422     		movs	r2, #4
 1333 002a 2046     		mov	r0, r4
 1334 002c FFF7FEFF 		bl	tu_fifo_write_n
 1335              	.LVL108:
 368:/Users/joostbooy/Desktop/Code/stm32/lib/tinyusb/src/class/midi/midi_device.c **** 
 1336              		.loc 1 368 3 view .LVU404
 1337 0030 3046     		mov	r0, r6
 1338 0032 FFF7FEFF 		bl	write_flush
 1339              	.LVL109:
 370:/Users/joostbooy/Desktop/Code/stm32/lib/tinyusb/src/class/midi/midi_device.c **** }
 1340              		.loc 1 370 3 view .LVU405
 370:/Users/joostbooy/Desktop/Code/stm32/lib/tinyusb/src/class/midi/midi_device.c **** }
 1341              		.loc 1 370 10 is_stmt 0 view .LVU406
 1342 0036 0120     		movs	r0, #1
 1343              		.loc 1 371 1 view .LVU407
 1344 0038 70BD     		pop	{r4, r5, r6, pc}
 1345              	.LVL110:
 1346              	.L121:
 1347              		.loc 1 371 1 view .LVU408
 1348 003a 00BF     		.align	2
 1349              	.L120:
 1350 003c 00000000 		.word	_midid_itf
 1351              		.cfi_endproc
 1352              	.LFE78:
 1354              		.section	.text.midid_init,"ax",%progbits
 1355              		.align	1
 1356              		.p2align 2,,3
 1357              		.global	midid_init
ARM GAS  /var/folders/84/_x1cyy_j36g486tldtwl37280000gn/T//ccHWsz3h.s 			page 40


 1358              		.syntax unified
 1359              		.thumb
 1360              		.thumb_func
 1361              		.fpu fpv4-sp-d16
 1363              	midid_init:
 1364              	.LFB79:
 372:/Users/joostbooy/Desktop/Code/stm32/lib/tinyusb/src/class/midi/midi_device.c **** 
 373:/Users/joostbooy/Desktop/Code/stm32/lib/tinyusb/src/class/midi/midi_device.c **** //--------------------------------------------------------------------+
 374:/Users/joostbooy/Desktop/Code/stm32/lib/tinyusb/src/class/midi/midi_device.c **** // USBD Driver API
 375:/Users/joostbooy/Desktop/Code/stm32/lib/tinyusb/src/class/midi/midi_device.c **** //--------------------------------------------------------------------+
 376:/Users/joostbooy/Desktop/Code/stm32/lib/tinyusb/src/class/midi/midi_device.c **** void midid_init(void)
 377:/Users/joostbooy/Desktop/Code/stm32/lib/tinyusb/src/class/midi/midi_device.c **** {
 1365              		.loc 1 377 1 is_stmt 1 view -0
 1366              		.cfi_startproc
 1367              		@ args = 0, pretend = 0, frame = 0
 1368              		@ frame_needed = 0, uses_anonymous_args = 0
 378:/Users/joostbooy/Desktop/Code/stm32/lib/tinyusb/src/class/midi/midi_device.c ****   tu_memclr(_midid_itf, sizeof(_midid_itf));
 1369              		.loc 1 378 3 view .LVU410
 377:/Users/joostbooy/Desktop/Code/stm32/lib/tinyusb/src/class/midi/midi_device.c ****   tu_memclr(_midid_itf, sizeof(_midid_itf));
 1370              		.loc 1 377 1 is_stmt 0 view .LVU411
 1371 0000 30B5     		push	{r4, r5, lr}
 1372              		.cfi_def_cfa_offset 12
 1373              		.cfi_offset 4, -12
 1374              		.cfi_offset 5, -8
 1375              		.cfi_offset 14, -4
 1376              		.loc 1 378 3 view .LVU412
 1377 0002 0E4C     		ldr	r4, .L124
 377:/Users/joostbooy/Desktop/Code/stm32/lib/tinyusb/src/class/midi/midi_device.c ****   tu_memclr(_midid_itf, sizeof(_midid_itf));
 1378              		.loc 1 377 1 view .LVU413
 1379 0004 83B0     		sub	sp, sp, #12
 1380              		.cfi_def_cfa_offset 24
 1381              		.loc 1 378 3 view .LVU414
 1382 0006 0021     		movs	r1, #0
 1383              	.LBB101:
 1384              	.LBB102:
 379:/Users/joostbooy/Desktop/Code/stm32/lib/tinyusb/src/class/midi/midi_device.c **** 
 380:/Users/joostbooy/Desktop/Code/stm32/lib/tinyusb/src/class/midi/midi_device.c ****   for(uint8_t i=0; i<CFG_TUD_MIDI; i++)
 381:/Users/joostbooy/Desktop/Code/stm32/lib/tinyusb/src/class/midi/midi_device.c ****   {
 382:/Users/joostbooy/Desktop/Code/stm32/lib/tinyusb/src/class/midi/midi_device.c ****     midid_interface_t* midi = &_midid_itf[i];
 383:/Users/joostbooy/Desktop/Code/stm32/lib/tinyusb/src/class/midi/midi_device.c **** 
 384:/Users/joostbooy/Desktop/Code/stm32/lib/tinyusb/src/class/midi/midi_device.c ****     // config fifo
 385:/Users/joostbooy/Desktop/Code/stm32/lib/tinyusb/src/class/midi/midi_device.c ****     tu_fifo_config(&midi->rx_ff, midi->rx_ff_buf, CFG_TUD_MIDI_RX_BUFSIZE, 1, false); // true, true
 1385              		.loc 1 385 5 view .LVU415
 1386 0008 0D46     		mov	r5, r1
 1387              	.LBE102:
 1388              	.LBE101:
 378:/Users/joostbooy/Desktop/Code/stm32/lib/tinyusb/src/class/midi/midi_device.c **** 
 1389              		.loc 1 378 3 view .LVU416
 1390 000a 4FF49472 		mov	r2, #296
 1391 000e 2046     		mov	r0, r4
 1392 0010 FFF7FEFF 		bl	memset
 1393              	.LVL111:
 380:/Users/joostbooy/Desktop/Code/stm32/lib/tinyusb/src/class/midi/midi_device.c ****   {
 1394              		.loc 1 380 3 is_stmt 1 view .LVU417
 1395              	.LBB104:
 380:/Users/joostbooy/Desktop/Code/stm32/lib/tinyusb/src/class/midi/midi_device.c ****   {
 1396              		.loc 1 380 7 view .LVU418
ARM GAS  /var/folders/84/_x1cyy_j36g486tldtwl37280000gn/T//ccHWsz3h.s 			page 41


 380:/Users/joostbooy/Desktop/Code/stm32/lib/tinyusb/src/class/midi/midi_device.c ****   {
 1397              		.loc 1 380 20 view .LVU419
 1398              	.LBB103:
 382:/Users/joostbooy/Desktop/Code/stm32/lib/tinyusb/src/class/midi/midi_device.c **** 
 1399              		.loc 1 382 5 view .LVU420
 1400              		.loc 1 385 5 view .LVU421
 1401 0014 04F12801 		add	r1, r4, #40
 1402 0018 04F11000 		add	r0, r4, #16
 1403 001c 0095     		str	r5, [sp]
 1404 001e 0123     		movs	r3, #1
 1405 0020 4022     		movs	r2, #64
 1406 0022 FFF7FEFF 		bl	tu_fifo_config
 1407              	.LVL112:
 386:/Users/joostbooy/Desktop/Code/stm32/lib/tinyusb/src/class/midi/midi_device.c ****     tu_fifo_config(&midi->tx_ff, midi->tx_ff_buf, CFG_TUD_MIDI_TX_BUFSIZE, 1, false); // OBVS.
 1408              		.loc 1 386 5 view .LVU422
 1409 0026 0095     		str	r5, [sp]
 1410 0028 04F16801 		add	r1, r4, #104
 1411 002c 04F11C00 		add	r0, r4, #28
 1412 0030 0123     		movs	r3, #1
 1413 0032 4022     		movs	r2, #64
 1414 0034 FFF7FEFF 		bl	tu_fifo_config
 1415              	.LVL113:
 1416              	.LBE103:
 380:/Users/joostbooy/Desktop/Code/stm32/lib/tinyusb/src/class/midi/midi_device.c ****   {
 1417              		.loc 1 380 36 view .LVU423
 380:/Users/joostbooy/Desktop/Code/stm32/lib/tinyusb/src/class/midi/midi_device.c ****   {
 1418              		.loc 1 380 20 view .LVU424
 1419              	.LBE104:
 387:/Users/joostbooy/Desktop/Code/stm32/lib/tinyusb/src/class/midi/midi_device.c **** 
 388:/Users/joostbooy/Desktop/Code/stm32/lib/tinyusb/src/class/midi/midi_device.c ****     #if CFG_FIFO_MUTEX
 389:/Users/joostbooy/Desktop/Code/stm32/lib/tinyusb/src/class/midi/midi_device.c ****     tu_fifo_config_mutex(&midi->rx_ff, NULL, osal_mutex_create(&midi->rx_ff_mutex));
 390:/Users/joostbooy/Desktop/Code/stm32/lib/tinyusb/src/class/midi/midi_device.c ****     tu_fifo_config_mutex(&midi->tx_ff, osal_mutex_create(&midi->tx_ff_mutex), NULL);
 391:/Users/joostbooy/Desktop/Code/stm32/lib/tinyusb/src/class/midi/midi_device.c ****     #endif
 392:/Users/joostbooy/Desktop/Code/stm32/lib/tinyusb/src/class/midi/midi_device.c ****   }
 393:/Users/joostbooy/Desktop/Code/stm32/lib/tinyusb/src/class/midi/midi_device.c **** }
 1420              		.loc 1 393 1 is_stmt 0 view .LVU425
 1421 0038 03B0     		add	sp, sp, #12
 1422              		.cfi_def_cfa_offset 12
 1423              		@ sp needed
 1424 003a 30BD     		pop	{r4, r5, pc}
 1425              	.L125:
 1426              		.align	2
 1427              	.L124:
 1428 003c 00000000 		.word	_midid_itf
 1429              		.cfi_endproc
 1430              	.LFE79:
 1432              		.section	.text.midid_reset,"ax",%progbits
 1433              		.align	1
 1434              		.p2align 2,,3
 1435              		.global	midid_reset
 1436              		.syntax unified
 1437              		.thumb
 1438              		.thumb_func
 1439              		.fpu fpv4-sp-d16
 1441              	midid_reset:
 1442              	.LVL114:
 1443              	.LFB80:
ARM GAS  /var/folders/84/_x1cyy_j36g486tldtwl37280000gn/T//ccHWsz3h.s 			page 42


 394:/Users/joostbooy/Desktop/Code/stm32/lib/tinyusb/src/class/midi/midi_device.c **** 
 395:/Users/joostbooy/Desktop/Code/stm32/lib/tinyusb/src/class/midi/midi_device.c **** void midid_reset(uint8_t rhport)
 396:/Users/joostbooy/Desktop/Code/stm32/lib/tinyusb/src/class/midi/midi_device.c **** {
 1444              		.loc 1 396 1 is_stmt 1 view -0
 1445              		.cfi_startproc
 1446              		@ args = 0, pretend = 0, frame = 0
 1447              		@ frame_needed = 0, uses_anonymous_args = 0
 397:/Users/joostbooy/Desktop/Code/stm32/lib/tinyusb/src/class/midi/midi_device.c ****   (void) rhport;
 1448              		.loc 1 397 3 view .LVU427
 398:/Users/joostbooy/Desktop/Code/stm32/lib/tinyusb/src/class/midi/midi_device.c **** 
 399:/Users/joostbooy/Desktop/Code/stm32/lib/tinyusb/src/class/midi/midi_device.c ****   for(uint8_t i=0; i<CFG_TUD_MIDI; i++)
 1449              		.loc 1 399 3 view .LVU428
 1450              	.LBB105:
 1451              		.loc 1 399 7 view .LVU429
 1452              		.loc 1 399 20 view .LVU430
 1453              	.LBB106:
 400:/Users/joostbooy/Desktop/Code/stm32/lib/tinyusb/src/class/midi/midi_device.c ****   {
 401:/Users/joostbooy/Desktop/Code/stm32/lib/tinyusb/src/class/midi/midi_device.c ****     midid_interface_t* midi = &_midid_itf[i];
 1454              		.loc 1 401 5 view .LVU431
 402:/Users/joostbooy/Desktop/Code/stm32/lib/tinyusb/src/class/midi/midi_device.c ****     tu_memclr(midi, ITF_MEM_RESET_SIZE);
 1455              		.loc 1 402 5 view .LVU432
 1456              	.LBE106:
 1457              	.LBE105:
 396:/Users/joostbooy/Desktop/Code/stm32/lib/tinyusb/src/class/midi/midi_device.c ****   (void) rhport;
 1458              		.loc 1 396 1 is_stmt 0 view .LVU433
 1459 0000 10B5     		push	{r4, lr}
 1460              		.cfi_def_cfa_offset 8
 1461              		.cfi_offset 4, -8
 1462              		.cfi_offset 14, -4
 1463              	.LBB109:
 1464              	.LBB107:
 1465              		.loc 1 402 5 view .LVU434
 1466 0002 084C     		ldr	r4, .L128
 1467 0004 0023     		movs	r3, #0
 403:/Users/joostbooy/Desktop/Code/stm32/lib/tinyusb/src/class/midi/midi_device.c ****     tu_fifo_clear(&midi->rx_ff);
 1468              		.loc 1 403 5 view .LVU435
 1469 0006 04F11000 		add	r0, r4, #16
 1470              	.LVL115:
 402:/Users/joostbooy/Desktop/Code/stm32/lib/tinyusb/src/class/midi/midi_device.c ****     tu_memclr(midi, ITF_MEM_RESET_SIZE);
 1471              		.loc 1 402 5 view .LVU436
 1472 000a C4E90033 		strd	r3, r3, [r4]
 1473 000e C4E90233 		strd	r3, r3, [r4, #8]
 1474              		.loc 1 403 5 is_stmt 1 view .LVU437
 1475 0012 FFF7FEFF 		bl	tu_fifo_clear
 1476              	.LVL116:
 404:/Users/joostbooy/Desktop/Code/stm32/lib/tinyusb/src/class/midi/midi_device.c ****     tu_fifo_clear(&midi->tx_ff);
 1477              		.loc 1 404 5 view .LVU438
 1478 0016 04F11C00 		add	r0, r4, #28
 1479              	.LBE107:
 1480              	.LBE109:
 405:/Users/joostbooy/Desktop/Code/stm32/lib/tinyusb/src/class/midi/midi_device.c ****   }
 406:/Users/joostbooy/Desktop/Code/stm32/lib/tinyusb/src/class/midi/midi_device.c **** }
 1481              		.loc 1 406 1 is_stmt 0 view .LVU439
 1482 001a BDE81040 		pop	{r4, lr}
 1483              		.cfi_restore 14
 1484              		.cfi_restore 4
 1485              		.cfi_def_cfa_offset 0
ARM GAS  /var/folders/84/_x1cyy_j36g486tldtwl37280000gn/T//ccHWsz3h.s 			page 43


 1486              	.LBB110:
 1487              	.LBB108:
 404:/Users/joostbooy/Desktop/Code/stm32/lib/tinyusb/src/class/midi/midi_device.c ****     tu_fifo_clear(&midi->tx_ff);
 1488              		.loc 1 404 5 view .LVU440
 1489 001e FFF7FEBF 		b	tu_fifo_clear
 1490              	.LVL117:
 1491              	.L129:
 1492 0022 00BF     		.align	2
 1493              	.L128:
 1494 0024 00000000 		.word	_midid_itf
 1495              	.LBE108:
 1496              	.LBE110:
 1497              		.cfi_endproc
 1498              	.LFE80:
 1500              		.section	.text.midid_open,"ax",%progbits
 1501              		.align	1
 1502              		.p2align 2,,3
 1503              		.global	midid_open
 1504              		.syntax unified
 1505              		.thumb
 1506              		.thumb_func
 1507              		.fpu fpv4-sp-d16
 1509              	midid_open:
 1510              	.LVL118:
 1511              	.LFB81:
 407:/Users/joostbooy/Desktop/Code/stm32/lib/tinyusb/src/class/midi/midi_device.c **** 
 408:/Users/joostbooy/Desktop/Code/stm32/lib/tinyusb/src/class/midi/midi_device.c **** uint16_t midid_open(uint8_t rhport, tusb_desc_interface_t const * desc_itf, uint16_t max_len)
 409:/Users/joostbooy/Desktop/Code/stm32/lib/tinyusb/src/class/midi/midi_device.c **** {
 1512              		.loc 1 409 1 is_stmt 1 view -0
 1513              		.cfi_startproc
 1514              		@ args = 0, pretend = 0, frame = 8
 1515              		@ frame_needed = 0, uses_anonymous_args = 0
 410:/Users/joostbooy/Desktop/Code/stm32/lib/tinyusb/src/class/midi/midi_device.c ****   // 1st Interface is Audio Control v1
 411:/Users/joostbooy/Desktop/Code/stm32/lib/tinyusb/src/class/midi/midi_device.c ****   TU_VERIFY(TUSB_CLASS_AUDIO               == desc_itf->bInterfaceClass    &&
 1516              		.loc 1 411 3 view .LVU442
 1517              		.loc 1 411 3 view .LVU443
 409:/Users/joostbooy/Desktop/Code/stm32/lib/tinyusb/src/class/midi/midi_device.c ****   // 1st Interface is Audio Control v1
 1518              		.loc 1 409 1 is_stmt 0 view .LVU444
 1519 0000 2DE9F043 		push	{r4, r5, r6, r7, r8, r9, lr}
 1520              		.cfi_def_cfa_offset 28
 1521              		.cfi_offset 4, -28
 1522              		.cfi_offset 5, -24
 1523              		.cfi_offset 6, -20
 1524              		.cfi_offset 7, -16
 1525              		.cfi_offset 8, -12
 1526              		.cfi_offset 9, -8
 1527              		.cfi_offset 14, -4
 1528              		.loc 1 411 3 view .LVU445
 1529 0004 4B79     		ldrb	r3, [r1, #5]	@ zero_extendqisi2
 1530 0006 012B     		cmp	r3, #1
 409:/Users/joostbooy/Desktop/Code/stm32/lib/tinyusb/src/class/midi/midi_device.c ****   // 1st Interface is Audio Control v1
 1531              		.loc 1 409 1 view .LVU446
 1532 0008 83B0     		sub	sp, sp, #12
 1533              		.cfi_def_cfa_offset 40
 1534              		.loc 1 411 3 view .LVU447
 1535 000a 02D1     		bne	.L133
 1536              		.loc 1 411 3 discriminator 2 view .LVU448
ARM GAS  /var/folders/84/_x1cyy_j36g486tldtwl37280000gn/T//ccHWsz3h.s 			page 44


 1537 000c 8C79     		ldrb	r4, [r1, #6]	@ zero_extendqisi2
 1538 000e 012C     		cmp	r4, #1
 1539 0010 04D0     		beq	.L158
 1540              	.LVL119:
 1541              	.L133:
 1542              		.loc 1 411 3 view .LVU449
 1543 0012 0025     		movs	r5, #0
 1544              	.L154:
 412:/Users/joostbooy/Desktop/Code/stm32/lib/tinyusb/src/class/midi/midi_device.c ****             AUDIO_SUBCLASS_CONTROL         == desc_itf->bInterfaceSubClass &&
 413:/Users/joostbooy/Desktop/Code/stm32/lib/tinyusb/src/class/midi/midi_device.c ****             AUDIO_FUNC_PROTOCOL_CODE_UNDEF == desc_itf->bInterfaceProtocol, 0);
 414:/Users/joostbooy/Desktop/Code/stm32/lib/tinyusb/src/class/midi/midi_device.c **** 
 415:/Users/joostbooy/Desktop/Code/stm32/lib/tinyusb/src/class/midi/midi_device.c ****   uint16_t drv_len = tu_desc_len(desc_itf);
 416:/Users/joostbooy/Desktop/Code/stm32/lib/tinyusb/src/class/midi/midi_device.c ****   uint8_t const * p_desc = tu_desc_next(desc_itf);
 417:/Users/joostbooy/Desktop/Code/stm32/lib/tinyusb/src/class/midi/midi_device.c **** 
 418:/Users/joostbooy/Desktop/Code/stm32/lib/tinyusb/src/class/midi/midi_device.c ****   // Skip Class Specific descriptors
 419:/Users/joostbooy/Desktop/Code/stm32/lib/tinyusb/src/class/midi/midi_device.c ****   while ( TUSB_DESC_CS_INTERFACE == tu_desc_type(p_desc) && drv_len <= max_len )
 420:/Users/joostbooy/Desktop/Code/stm32/lib/tinyusb/src/class/midi/midi_device.c ****   {
 421:/Users/joostbooy/Desktop/Code/stm32/lib/tinyusb/src/class/midi/midi_device.c ****     drv_len += tu_desc_len(p_desc);
 422:/Users/joostbooy/Desktop/Code/stm32/lib/tinyusb/src/class/midi/midi_device.c ****     p_desc   = tu_desc_next(p_desc);
 423:/Users/joostbooy/Desktop/Code/stm32/lib/tinyusb/src/class/midi/midi_device.c ****   }
 424:/Users/joostbooy/Desktop/Code/stm32/lib/tinyusb/src/class/midi/midi_device.c **** 
 425:/Users/joostbooy/Desktop/Code/stm32/lib/tinyusb/src/class/midi/midi_device.c ****   // 2nd Interface is MIDI Streaming
 426:/Users/joostbooy/Desktop/Code/stm32/lib/tinyusb/src/class/midi/midi_device.c ****   TU_VERIFY(TUSB_DESC_INTERFACE == tu_desc_type(p_desc), 0);
 427:/Users/joostbooy/Desktop/Code/stm32/lib/tinyusb/src/class/midi/midi_device.c ****   tusb_desc_interface_t const * desc_midi = (tusb_desc_interface_t const *) p_desc;
 428:/Users/joostbooy/Desktop/Code/stm32/lib/tinyusb/src/class/midi/midi_device.c **** 
 429:/Users/joostbooy/Desktop/Code/stm32/lib/tinyusb/src/class/midi/midi_device.c ****   TU_VERIFY(TUSB_CLASS_AUDIO               == desc_midi->bInterfaceClass    &&
 430:/Users/joostbooy/Desktop/Code/stm32/lib/tinyusb/src/class/midi/midi_device.c ****             AUDIO_SUBCLASS_MIDI_STREAMING  == desc_midi->bInterfaceSubClass &&
 431:/Users/joostbooy/Desktop/Code/stm32/lib/tinyusb/src/class/midi/midi_device.c ****             AUDIO_FUNC_PROTOCOL_CODE_UNDEF == desc_midi->bInterfaceProtocol, 0);
 432:/Users/joostbooy/Desktop/Code/stm32/lib/tinyusb/src/class/midi/midi_device.c **** 
 433:/Users/joostbooy/Desktop/Code/stm32/lib/tinyusb/src/class/midi/midi_device.c ****   // Find available interface
 434:/Users/joostbooy/Desktop/Code/stm32/lib/tinyusb/src/class/midi/midi_device.c ****   midid_interface_t * p_midi = NULL;
 435:/Users/joostbooy/Desktop/Code/stm32/lib/tinyusb/src/class/midi/midi_device.c ****   for(uint8_t i=0; i<CFG_TUD_MIDI; i++)
 436:/Users/joostbooy/Desktop/Code/stm32/lib/tinyusb/src/class/midi/midi_device.c ****   {
 437:/Users/joostbooy/Desktop/Code/stm32/lib/tinyusb/src/class/midi/midi_device.c ****     if ( _midid_itf[i].ep_in == 0 && _midid_itf[i].ep_out == 0 )
 438:/Users/joostbooy/Desktop/Code/stm32/lib/tinyusb/src/class/midi/midi_device.c ****     {
 439:/Users/joostbooy/Desktop/Code/stm32/lib/tinyusb/src/class/midi/midi_device.c ****       p_midi = &_midid_itf[i];
 440:/Users/joostbooy/Desktop/Code/stm32/lib/tinyusb/src/class/midi/midi_device.c ****       break;
 441:/Users/joostbooy/Desktop/Code/stm32/lib/tinyusb/src/class/midi/midi_device.c ****     }
 442:/Users/joostbooy/Desktop/Code/stm32/lib/tinyusb/src/class/midi/midi_device.c ****   }
 443:/Users/joostbooy/Desktop/Code/stm32/lib/tinyusb/src/class/midi/midi_device.c ****   TU_ASSERT(p_midi);
 444:/Users/joostbooy/Desktop/Code/stm32/lib/tinyusb/src/class/midi/midi_device.c **** 
 445:/Users/joostbooy/Desktop/Code/stm32/lib/tinyusb/src/class/midi/midi_device.c ****   p_midi->itf_num = desc_midi->bInterfaceNumber;
 446:/Users/joostbooy/Desktop/Code/stm32/lib/tinyusb/src/class/midi/midi_device.c ****   (void) p_midi->itf_num;
 447:/Users/joostbooy/Desktop/Code/stm32/lib/tinyusb/src/class/midi/midi_device.c **** 
 448:/Users/joostbooy/Desktop/Code/stm32/lib/tinyusb/src/class/midi/midi_device.c ****   // next descriptor
 449:/Users/joostbooy/Desktop/Code/stm32/lib/tinyusb/src/class/midi/midi_device.c ****   drv_len += tu_desc_len(p_desc);
 450:/Users/joostbooy/Desktop/Code/stm32/lib/tinyusb/src/class/midi/midi_device.c ****   p_desc   = tu_desc_next(p_desc);
 451:/Users/joostbooy/Desktop/Code/stm32/lib/tinyusb/src/class/midi/midi_device.c **** 
 452:/Users/joostbooy/Desktop/Code/stm32/lib/tinyusb/src/class/midi/midi_device.c ****   // Find and open endpoint descriptors
 453:/Users/joostbooy/Desktop/Code/stm32/lib/tinyusb/src/class/midi/midi_device.c ****   uint8_t found_endpoints = 0;
 454:/Users/joostbooy/Desktop/Code/stm32/lib/tinyusb/src/class/midi/midi_device.c ****   while ( (found_endpoints < desc_midi->bNumEndpoints) && (drv_len <= max_len)  )
 455:/Users/joostbooy/Desktop/Code/stm32/lib/tinyusb/src/class/midi/midi_device.c ****   {
 456:/Users/joostbooy/Desktop/Code/stm32/lib/tinyusb/src/class/midi/midi_device.c ****     if ( TUSB_DESC_ENDPOINT == tu_desc_type(p_desc) )
 457:/Users/joostbooy/Desktop/Code/stm32/lib/tinyusb/src/class/midi/midi_device.c ****     {
 458:/Users/joostbooy/Desktop/Code/stm32/lib/tinyusb/src/class/midi/midi_device.c ****       TU_ASSERT(usbd_edpt_open(rhport, (tusb_desc_endpoint_t const *) p_desc), 0);
 459:/Users/joostbooy/Desktop/Code/stm32/lib/tinyusb/src/class/midi/midi_device.c ****       uint8_t ep_addr = ((tusb_desc_endpoint_t const *) p_desc)->bEndpointAddress;
 460:/Users/joostbooy/Desktop/Code/stm32/lib/tinyusb/src/class/midi/midi_device.c **** 
ARM GAS  /var/folders/84/_x1cyy_j36g486tldtwl37280000gn/T//ccHWsz3h.s 			page 45


 461:/Users/joostbooy/Desktop/Code/stm32/lib/tinyusb/src/class/midi/midi_device.c ****       if (tu_edpt_dir(ep_addr) == TUSB_DIR_IN)
 462:/Users/joostbooy/Desktop/Code/stm32/lib/tinyusb/src/class/midi/midi_device.c ****       {
 463:/Users/joostbooy/Desktop/Code/stm32/lib/tinyusb/src/class/midi/midi_device.c ****         p_midi->ep_in = ep_addr;
 464:/Users/joostbooy/Desktop/Code/stm32/lib/tinyusb/src/class/midi/midi_device.c ****       } else {
 465:/Users/joostbooy/Desktop/Code/stm32/lib/tinyusb/src/class/midi/midi_device.c ****         p_midi->ep_out = ep_addr;
 466:/Users/joostbooy/Desktop/Code/stm32/lib/tinyusb/src/class/midi/midi_device.c ****       }
 467:/Users/joostbooy/Desktop/Code/stm32/lib/tinyusb/src/class/midi/midi_device.c **** 
 468:/Users/joostbooy/Desktop/Code/stm32/lib/tinyusb/src/class/midi/midi_device.c ****       // Class Specific MIDI Stream endpoint descriptor
 469:/Users/joostbooy/Desktop/Code/stm32/lib/tinyusb/src/class/midi/midi_device.c ****       drv_len += tu_desc_len(p_desc);
 470:/Users/joostbooy/Desktop/Code/stm32/lib/tinyusb/src/class/midi/midi_device.c ****       p_desc   = tu_desc_next(p_desc);
 471:/Users/joostbooy/Desktop/Code/stm32/lib/tinyusb/src/class/midi/midi_device.c **** 
 472:/Users/joostbooy/Desktop/Code/stm32/lib/tinyusb/src/class/midi/midi_device.c ****       found_endpoints += 1;
 473:/Users/joostbooy/Desktop/Code/stm32/lib/tinyusb/src/class/midi/midi_device.c ****     }
 474:/Users/joostbooy/Desktop/Code/stm32/lib/tinyusb/src/class/midi/midi_device.c **** 
 475:/Users/joostbooy/Desktop/Code/stm32/lib/tinyusb/src/class/midi/midi_device.c ****     drv_len += tu_desc_len(p_desc);
 476:/Users/joostbooy/Desktop/Code/stm32/lib/tinyusb/src/class/midi/midi_device.c ****     p_desc   = tu_desc_next(p_desc);
 477:/Users/joostbooy/Desktop/Code/stm32/lib/tinyusb/src/class/midi/midi_device.c ****   }
 478:/Users/joostbooy/Desktop/Code/stm32/lib/tinyusb/src/class/midi/midi_device.c **** 
 479:/Users/joostbooy/Desktop/Code/stm32/lib/tinyusb/src/class/midi/midi_device.c ****   // Prepare for incoming data
 480:/Users/joostbooy/Desktop/Code/stm32/lib/tinyusb/src/class/midi/midi_device.c ****   _prep_out_transaction(p_midi);
 481:/Users/joostbooy/Desktop/Code/stm32/lib/tinyusb/src/class/midi/midi_device.c **** 
 482:/Users/joostbooy/Desktop/Code/stm32/lib/tinyusb/src/class/midi/midi_device.c ****   return drv_len;
 483:/Users/joostbooy/Desktop/Code/stm32/lib/tinyusb/src/class/midi/midi_device.c **** }
 1545              		.loc 1 483 1 view .LVU450
 1546 0014 2846     		mov	r0, r5
 1547 0016 03B0     		add	sp, sp, #12
 1548              		.cfi_remember_state
 1549              		.cfi_def_cfa_offset 28
 1550              		@ sp needed
 1551 0018 BDE8F083 		pop	{r4, r5, r6, r7, r8, r9, pc}
 1552              	.LVL120:
 1553              	.L158:
 1554              		.cfi_restore_state
 411:/Users/joostbooy/Desktop/Code/stm32/lib/tinyusb/src/class/midi/midi_device.c ****             AUDIO_SUBCLASS_CONTROL         == desc_itf->bInterfaceSubClass &&
 1555              		.loc 1 411 3 discriminator 4 view .LVU451
 1556 001c CD79     		ldrb	r5, [r1, #7]	@ zero_extendqisi2
 1557 001e 002D     		cmp	r5, #0
 1558 0020 F7D1     		bne	.L133
 1559 0022 0646     		mov	r6, r0
 411:/Users/joostbooy/Desktop/Code/stm32/lib/tinyusb/src/class/midi/midi_device.c ****             AUDIO_SUBCLASS_CONTROL         == desc_itf->bInterfaceSubClass &&
 1560              		.loc 1 411 3 is_stmt 1 view .LVU452
 415:/Users/joostbooy/Desktop/Code/stm32/lib/tinyusb/src/class/midi/midi_device.c ****   uint8_t const * p_desc = tu_desc_next(desc_itf);
 1561              		.loc 1 415 3 view .LVU453
 1562              	.LVL121:
 1563              	.LBB111:
 1564              	.LBI111:
 1565              		.file 3 "/Users/joostbooy/Desktop/Code/stm32/lib/tinyusb/src/common/tusb_types.h"
   1:/Users/joostbooy/Desktop/Code/stm32/lib/tinyusb/src/common/tusb_types.h **** /*
   2:/Users/joostbooy/Desktop/Code/stm32/lib/tinyusb/src/common/tusb_types.h ****  * The MIT License (MIT)
   3:/Users/joostbooy/Desktop/Code/stm32/lib/tinyusb/src/common/tusb_types.h ****  *
   4:/Users/joostbooy/Desktop/Code/stm32/lib/tinyusb/src/common/tusb_types.h ****  * Copyright (c) 2019 Ha Thach (tinyusb.org)
   5:/Users/joostbooy/Desktop/Code/stm32/lib/tinyusb/src/common/tusb_types.h ****  *
   6:/Users/joostbooy/Desktop/Code/stm32/lib/tinyusb/src/common/tusb_types.h ****  * Permission is hereby granted, free of charge, to any person obtaining a copy
   7:/Users/joostbooy/Desktop/Code/stm32/lib/tinyusb/src/common/tusb_types.h ****  * of this software and associated documentation files (the "Software"), to deal
   8:/Users/joostbooy/Desktop/Code/stm32/lib/tinyusb/src/common/tusb_types.h ****  * in the Software without restriction, including without limitation the rights
   9:/Users/joostbooy/Desktop/Code/stm32/lib/tinyusb/src/common/tusb_types.h ****  * to use, copy, modify, merge, publish, distribute, sublicense, and/or sell
  10:/Users/joostbooy/Desktop/Code/stm32/lib/tinyusb/src/common/tusb_types.h ****  * copies of the Software, and to permit persons to whom the Software is
ARM GAS  /var/folders/84/_x1cyy_j36g486tldtwl37280000gn/T//ccHWsz3h.s 			page 46


  11:/Users/joostbooy/Desktop/Code/stm32/lib/tinyusb/src/common/tusb_types.h ****  * furnished to do so, subject to the following conditions:
  12:/Users/joostbooy/Desktop/Code/stm32/lib/tinyusb/src/common/tusb_types.h ****  *
  13:/Users/joostbooy/Desktop/Code/stm32/lib/tinyusb/src/common/tusb_types.h ****  * The above copyright notice and this permission notice shall be included in
  14:/Users/joostbooy/Desktop/Code/stm32/lib/tinyusb/src/common/tusb_types.h ****  * all copies or substantial portions of the Software.
  15:/Users/joostbooy/Desktop/Code/stm32/lib/tinyusb/src/common/tusb_types.h ****  *
  16:/Users/joostbooy/Desktop/Code/stm32/lib/tinyusb/src/common/tusb_types.h ****  * THE SOFTWARE IS PROVIDED "AS IS", WITHOUT WARRANTY OF ANY KIND, EXPRESS OR
  17:/Users/joostbooy/Desktop/Code/stm32/lib/tinyusb/src/common/tusb_types.h ****  * IMPLIED, INCLUDING BUT NOT LIMITED TO THE WARRANTIES OF MERCHANTABILITY,
  18:/Users/joostbooy/Desktop/Code/stm32/lib/tinyusb/src/common/tusb_types.h ****  * FITNESS FOR A PARTICULAR PURPOSE AND NONINFRINGEMENT. IN NO EVENT SHALL THE
  19:/Users/joostbooy/Desktop/Code/stm32/lib/tinyusb/src/common/tusb_types.h ****  * AUTHORS OR COPYRIGHT HOLDERS BE LIABLE FOR ANY CLAIM, DAMAGES OR OTHER
  20:/Users/joostbooy/Desktop/Code/stm32/lib/tinyusb/src/common/tusb_types.h ****  * LIABILITY, WHETHER IN AN ACTION OF CONTRACT, TORT OR OTHERWISE, ARISING FROM,
  21:/Users/joostbooy/Desktop/Code/stm32/lib/tinyusb/src/common/tusb_types.h ****  * OUT OF OR IN CONNECTION WITH THE SOFTWARE OR THE USE OR OTHER DEALINGS IN
  22:/Users/joostbooy/Desktop/Code/stm32/lib/tinyusb/src/common/tusb_types.h ****  * THE SOFTWARE.
  23:/Users/joostbooy/Desktop/Code/stm32/lib/tinyusb/src/common/tusb_types.h ****  *
  24:/Users/joostbooy/Desktop/Code/stm32/lib/tinyusb/src/common/tusb_types.h ****  * This file is part of the TinyUSB stack.
  25:/Users/joostbooy/Desktop/Code/stm32/lib/tinyusb/src/common/tusb_types.h ****  */
  26:/Users/joostbooy/Desktop/Code/stm32/lib/tinyusb/src/common/tusb_types.h **** 
  27:/Users/joostbooy/Desktop/Code/stm32/lib/tinyusb/src/common/tusb_types.h **** /** \ingroup group_usb_definitions
  28:/Users/joostbooy/Desktop/Code/stm32/lib/tinyusb/src/common/tusb_types.h ****  *  \defgroup USBDef_Type USB Types
  29:/Users/joostbooy/Desktop/Code/stm32/lib/tinyusb/src/common/tusb_types.h ****  *  @{ */
  30:/Users/joostbooy/Desktop/Code/stm32/lib/tinyusb/src/common/tusb_types.h **** 
  31:/Users/joostbooy/Desktop/Code/stm32/lib/tinyusb/src/common/tusb_types.h **** #ifndef _TUSB_TYPES_H_
  32:/Users/joostbooy/Desktop/Code/stm32/lib/tinyusb/src/common/tusb_types.h **** #define _TUSB_TYPES_H_
  33:/Users/joostbooy/Desktop/Code/stm32/lib/tinyusb/src/common/tusb_types.h **** 
  34:/Users/joostbooy/Desktop/Code/stm32/lib/tinyusb/src/common/tusb_types.h **** #include <stdbool.h>
  35:/Users/joostbooy/Desktop/Code/stm32/lib/tinyusb/src/common/tusb_types.h **** #include <stdint.h>
  36:/Users/joostbooy/Desktop/Code/stm32/lib/tinyusb/src/common/tusb_types.h **** #include "tusb_compiler.h"
  37:/Users/joostbooy/Desktop/Code/stm32/lib/tinyusb/src/common/tusb_types.h **** 
  38:/Users/joostbooy/Desktop/Code/stm32/lib/tinyusb/src/common/tusb_types.h **** #ifdef __cplusplus
  39:/Users/joostbooy/Desktop/Code/stm32/lib/tinyusb/src/common/tusb_types.h ****  extern "C" {
  40:/Users/joostbooy/Desktop/Code/stm32/lib/tinyusb/src/common/tusb_types.h **** #endif
  41:/Users/joostbooy/Desktop/Code/stm32/lib/tinyusb/src/common/tusb_types.h **** 
  42:/Users/joostbooy/Desktop/Code/stm32/lib/tinyusb/src/common/tusb_types.h **** /*------------------------------------------------------------------*/
  43:/Users/joostbooy/Desktop/Code/stm32/lib/tinyusb/src/common/tusb_types.h **** /* CONSTANTS
  44:/Users/joostbooy/Desktop/Code/stm32/lib/tinyusb/src/common/tusb_types.h ****  *------------------------------------------------------------------*/
  45:/Users/joostbooy/Desktop/Code/stm32/lib/tinyusb/src/common/tusb_types.h **** 
  46:/Users/joostbooy/Desktop/Code/stm32/lib/tinyusb/src/common/tusb_types.h **** /// defined base on EHCI specs value for Endpoint Speed
  47:/Users/joostbooy/Desktop/Code/stm32/lib/tinyusb/src/common/tusb_types.h **** typedef enum
  48:/Users/joostbooy/Desktop/Code/stm32/lib/tinyusb/src/common/tusb_types.h **** {
  49:/Users/joostbooy/Desktop/Code/stm32/lib/tinyusb/src/common/tusb_types.h ****   TUSB_SPEED_FULL = 0,
  50:/Users/joostbooy/Desktop/Code/stm32/lib/tinyusb/src/common/tusb_types.h ****   TUSB_SPEED_LOW  = 1,
  51:/Users/joostbooy/Desktop/Code/stm32/lib/tinyusb/src/common/tusb_types.h ****   TUSB_SPEED_HIGH = 2,
  52:/Users/joostbooy/Desktop/Code/stm32/lib/tinyusb/src/common/tusb_types.h ****   TUSB_SPEED_INVALID = 0xff,
  53:/Users/joostbooy/Desktop/Code/stm32/lib/tinyusb/src/common/tusb_types.h **** }tusb_speed_t;
  54:/Users/joostbooy/Desktop/Code/stm32/lib/tinyusb/src/common/tusb_types.h **** 
  55:/Users/joostbooy/Desktop/Code/stm32/lib/tinyusb/src/common/tusb_types.h **** /// defined base on USB Specs Endpoint's bmAttributes
  56:/Users/joostbooy/Desktop/Code/stm32/lib/tinyusb/src/common/tusb_types.h **** typedef enum
  57:/Users/joostbooy/Desktop/Code/stm32/lib/tinyusb/src/common/tusb_types.h **** {
  58:/Users/joostbooy/Desktop/Code/stm32/lib/tinyusb/src/common/tusb_types.h ****   TUSB_XFER_CONTROL = 0 ,
  59:/Users/joostbooy/Desktop/Code/stm32/lib/tinyusb/src/common/tusb_types.h ****   TUSB_XFER_ISOCHRONOUS ,
  60:/Users/joostbooy/Desktop/Code/stm32/lib/tinyusb/src/common/tusb_types.h ****   TUSB_XFER_BULK        ,
  61:/Users/joostbooy/Desktop/Code/stm32/lib/tinyusb/src/common/tusb_types.h ****   TUSB_XFER_INTERRUPT
  62:/Users/joostbooy/Desktop/Code/stm32/lib/tinyusb/src/common/tusb_types.h **** }tusb_xfer_type_t;
  63:/Users/joostbooy/Desktop/Code/stm32/lib/tinyusb/src/common/tusb_types.h **** 
  64:/Users/joostbooy/Desktop/Code/stm32/lib/tinyusb/src/common/tusb_types.h **** typedef enum
  65:/Users/joostbooy/Desktop/Code/stm32/lib/tinyusb/src/common/tusb_types.h **** {
  66:/Users/joostbooy/Desktop/Code/stm32/lib/tinyusb/src/common/tusb_types.h ****   TUSB_DIR_OUT = 0,
  67:/Users/joostbooy/Desktop/Code/stm32/lib/tinyusb/src/common/tusb_types.h ****   TUSB_DIR_IN  = 1,
ARM GAS  /var/folders/84/_x1cyy_j36g486tldtwl37280000gn/T//ccHWsz3h.s 			page 47


  68:/Users/joostbooy/Desktop/Code/stm32/lib/tinyusb/src/common/tusb_types.h **** 
  69:/Users/joostbooy/Desktop/Code/stm32/lib/tinyusb/src/common/tusb_types.h ****   TUSB_DIR_IN_MASK = 0x80
  70:/Users/joostbooy/Desktop/Code/stm32/lib/tinyusb/src/common/tusb_types.h **** }tusb_dir_t;
  71:/Users/joostbooy/Desktop/Code/stm32/lib/tinyusb/src/common/tusb_types.h **** 
  72:/Users/joostbooy/Desktop/Code/stm32/lib/tinyusb/src/common/tusb_types.h **** enum
  73:/Users/joostbooy/Desktop/Code/stm32/lib/tinyusb/src/common/tusb_types.h **** {
  74:/Users/joostbooy/Desktop/Code/stm32/lib/tinyusb/src/common/tusb_types.h ****   TUSB_EPSIZE_BULK_FS = 64,
  75:/Users/joostbooy/Desktop/Code/stm32/lib/tinyusb/src/common/tusb_types.h ****   TUSB_EPSIZE_BULK_HS= 512,
  76:/Users/joostbooy/Desktop/Code/stm32/lib/tinyusb/src/common/tusb_types.h **** 
  77:/Users/joostbooy/Desktop/Code/stm32/lib/tinyusb/src/common/tusb_types.h ****   TUSB_EPSIZE_ISO_FS_MAX = 1023,
  78:/Users/joostbooy/Desktop/Code/stm32/lib/tinyusb/src/common/tusb_types.h ****   TUSB_EPSIZE_ISO_HS_MAX = 1024,
  79:/Users/joostbooy/Desktop/Code/stm32/lib/tinyusb/src/common/tusb_types.h **** };
  80:/Users/joostbooy/Desktop/Code/stm32/lib/tinyusb/src/common/tusb_types.h **** 
  81:/Users/joostbooy/Desktop/Code/stm32/lib/tinyusb/src/common/tusb_types.h **** /// Isochronous End Point Attributes
  82:/Users/joostbooy/Desktop/Code/stm32/lib/tinyusb/src/common/tusb_types.h **** typedef enum
  83:/Users/joostbooy/Desktop/Code/stm32/lib/tinyusb/src/common/tusb_types.h **** {
  84:/Users/joostbooy/Desktop/Code/stm32/lib/tinyusb/src/common/tusb_types.h ****   TUSB_ISO_EP_ATT_NO_SYNC         = 0x00,
  85:/Users/joostbooy/Desktop/Code/stm32/lib/tinyusb/src/common/tusb_types.h ****   TUSB_ISO_EP_ATT_ASYNCHRONOUS    = 0x04,
  86:/Users/joostbooy/Desktop/Code/stm32/lib/tinyusb/src/common/tusb_types.h ****   TUSB_ISO_EP_ATT_ADAPTIVE        = 0x08,
  87:/Users/joostbooy/Desktop/Code/stm32/lib/tinyusb/src/common/tusb_types.h ****   TUSB_ISO_EP_ATT_SYNCHRONOUS     = 0x0C,
  88:/Users/joostbooy/Desktop/Code/stm32/lib/tinyusb/src/common/tusb_types.h ****   TUSB_ISO_EP_ATT_DATA            = 0x00, ///< Data End Point
  89:/Users/joostbooy/Desktop/Code/stm32/lib/tinyusb/src/common/tusb_types.h ****   TUSB_ISO_EP_ATT_EXPLICIT_FB     = 0x10, ///< Feedback End Point
  90:/Users/joostbooy/Desktop/Code/stm32/lib/tinyusb/src/common/tusb_types.h ****   TUSB_ISO_EP_ATT_IMPLICIT_FB     = 0x20, ///< Data endpoint that also serves as an implicit feedba
  91:/Users/joostbooy/Desktop/Code/stm32/lib/tinyusb/src/common/tusb_types.h **** }tusb_iso_ep_attribute_t;
  92:/Users/joostbooy/Desktop/Code/stm32/lib/tinyusb/src/common/tusb_types.h **** 
  93:/Users/joostbooy/Desktop/Code/stm32/lib/tinyusb/src/common/tusb_types.h **** /// USB Descriptor Types
  94:/Users/joostbooy/Desktop/Code/stm32/lib/tinyusb/src/common/tusb_types.h **** typedef enum
  95:/Users/joostbooy/Desktop/Code/stm32/lib/tinyusb/src/common/tusb_types.h **** {
  96:/Users/joostbooy/Desktop/Code/stm32/lib/tinyusb/src/common/tusb_types.h ****   TUSB_DESC_DEVICE                = 0x01,
  97:/Users/joostbooy/Desktop/Code/stm32/lib/tinyusb/src/common/tusb_types.h ****   TUSB_DESC_CONFIGURATION         = 0x02,
  98:/Users/joostbooy/Desktop/Code/stm32/lib/tinyusb/src/common/tusb_types.h ****   TUSB_DESC_STRING                = 0x03,
  99:/Users/joostbooy/Desktop/Code/stm32/lib/tinyusb/src/common/tusb_types.h ****   TUSB_DESC_INTERFACE             = 0x04,
 100:/Users/joostbooy/Desktop/Code/stm32/lib/tinyusb/src/common/tusb_types.h ****   TUSB_DESC_ENDPOINT              = 0x05,
 101:/Users/joostbooy/Desktop/Code/stm32/lib/tinyusb/src/common/tusb_types.h ****   TUSB_DESC_DEVICE_QUALIFIER      = 0x06,
 102:/Users/joostbooy/Desktop/Code/stm32/lib/tinyusb/src/common/tusb_types.h ****   TUSB_DESC_OTHER_SPEED_CONFIG    = 0x07,
 103:/Users/joostbooy/Desktop/Code/stm32/lib/tinyusb/src/common/tusb_types.h ****   TUSB_DESC_INTERFACE_POWER       = 0x08,
 104:/Users/joostbooy/Desktop/Code/stm32/lib/tinyusb/src/common/tusb_types.h ****   TUSB_DESC_OTG                   = 0x09,
 105:/Users/joostbooy/Desktop/Code/stm32/lib/tinyusb/src/common/tusb_types.h ****   TUSB_DESC_DEBUG                 = 0x0A,
 106:/Users/joostbooy/Desktop/Code/stm32/lib/tinyusb/src/common/tusb_types.h ****   TUSB_DESC_INTERFACE_ASSOCIATION = 0x0B,
 107:/Users/joostbooy/Desktop/Code/stm32/lib/tinyusb/src/common/tusb_types.h **** 
 108:/Users/joostbooy/Desktop/Code/stm32/lib/tinyusb/src/common/tusb_types.h ****   TUSB_DESC_BOS                   = 0x0F,
 109:/Users/joostbooy/Desktop/Code/stm32/lib/tinyusb/src/common/tusb_types.h ****   TUSB_DESC_DEVICE_CAPABILITY     = 0x10,
 110:/Users/joostbooy/Desktop/Code/stm32/lib/tinyusb/src/common/tusb_types.h **** 
 111:/Users/joostbooy/Desktop/Code/stm32/lib/tinyusb/src/common/tusb_types.h ****   TUSB_DESC_FUNCTIONAL            = 0x21,
 112:/Users/joostbooy/Desktop/Code/stm32/lib/tinyusb/src/common/tusb_types.h **** 
 113:/Users/joostbooy/Desktop/Code/stm32/lib/tinyusb/src/common/tusb_types.h ****   // Class Specific Descriptor
 114:/Users/joostbooy/Desktop/Code/stm32/lib/tinyusb/src/common/tusb_types.h ****   TUSB_DESC_CS_DEVICE             = 0x21,
 115:/Users/joostbooy/Desktop/Code/stm32/lib/tinyusb/src/common/tusb_types.h ****   TUSB_DESC_CS_CONFIGURATION      = 0x22,
 116:/Users/joostbooy/Desktop/Code/stm32/lib/tinyusb/src/common/tusb_types.h ****   TUSB_DESC_CS_STRING             = 0x23,
 117:/Users/joostbooy/Desktop/Code/stm32/lib/tinyusb/src/common/tusb_types.h ****   TUSB_DESC_CS_INTERFACE          = 0x24,
 118:/Users/joostbooy/Desktop/Code/stm32/lib/tinyusb/src/common/tusb_types.h ****   TUSB_DESC_CS_ENDPOINT           = 0x25,
 119:/Users/joostbooy/Desktop/Code/stm32/lib/tinyusb/src/common/tusb_types.h **** 
 120:/Users/joostbooy/Desktop/Code/stm32/lib/tinyusb/src/common/tusb_types.h ****   TUSB_DESC_SUPERSPEED_ENDPOINT_COMPANION     = 0x30,
 121:/Users/joostbooy/Desktop/Code/stm32/lib/tinyusb/src/common/tusb_types.h ****   TUSB_DESC_SUPERSPEED_ISO_ENDPOINT_COMPANION = 0x31
 122:/Users/joostbooy/Desktop/Code/stm32/lib/tinyusb/src/common/tusb_types.h **** }tusb_desc_type_t;
 123:/Users/joostbooy/Desktop/Code/stm32/lib/tinyusb/src/common/tusb_types.h **** 
 124:/Users/joostbooy/Desktop/Code/stm32/lib/tinyusb/src/common/tusb_types.h **** typedef enum
ARM GAS  /var/folders/84/_x1cyy_j36g486tldtwl37280000gn/T//ccHWsz3h.s 			page 48


 125:/Users/joostbooy/Desktop/Code/stm32/lib/tinyusb/src/common/tusb_types.h **** {
 126:/Users/joostbooy/Desktop/Code/stm32/lib/tinyusb/src/common/tusb_types.h ****   TUSB_REQ_GET_STATUS        = 0  ,
 127:/Users/joostbooy/Desktop/Code/stm32/lib/tinyusb/src/common/tusb_types.h ****   TUSB_REQ_CLEAR_FEATURE     = 1  ,
 128:/Users/joostbooy/Desktop/Code/stm32/lib/tinyusb/src/common/tusb_types.h ****   TUSB_REQ_RESERVED          = 2  ,
 129:/Users/joostbooy/Desktop/Code/stm32/lib/tinyusb/src/common/tusb_types.h ****   TUSB_REQ_SET_FEATURE       = 3  ,
 130:/Users/joostbooy/Desktop/Code/stm32/lib/tinyusb/src/common/tusb_types.h ****   TUSB_REQ_RESERVED2         = 4  ,
 131:/Users/joostbooy/Desktop/Code/stm32/lib/tinyusb/src/common/tusb_types.h ****   TUSB_REQ_SET_ADDRESS       = 5  ,
 132:/Users/joostbooy/Desktop/Code/stm32/lib/tinyusb/src/common/tusb_types.h ****   TUSB_REQ_GET_DESCRIPTOR    = 6  ,
 133:/Users/joostbooy/Desktop/Code/stm32/lib/tinyusb/src/common/tusb_types.h ****   TUSB_REQ_SET_DESCRIPTOR    = 7  ,
 134:/Users/joostbooy/Desktop/Code/stm32/lib/tinyusb/src/common/tusb_types.h ****   TUSB_REQ_GET_CONFIGURATION = 8  ,
 135:/Users/joostbooy/Desktop/Code/stm32/lib/tinyusb/src/common/tusb_types.h ****   TUSB_REQ_SET_CONFIGURATION = 9  ,
 136:/Users/joostbooy/Desktop/Code/stm32/lib/tinyusb/src/common/tusb_types.h ****   TUSB_REQ_GET_INTERFACE     = 10 ,
 137:/Users/joostbooy/Desktop/Code/stm32/lib/tinyusb/src/common/tusb_types.h ****   TUSB_REQ_SET_INTERFACE     = 11 ,
 138:/Users/joostbooy/Desktop/Code/stm32/lib/tinyusb/src/common/tusb_types.h ****   TUSB_REQ_SYNCH_FRAME       = 12
 139:/Users/joostbooy/Desktop/Code/stm32/lib/tinyusb/src/common/tusb_types.h **** }tusb_request_code_t;
 140:/Users/joostbooy/Desktop/Code/stm32/lib/tinyusb/src/common/tusb_types.h **** 
 141:/Users/joostbooy/Desktop/Code/stm32/lib/tinyusb/src/common/tusb_types.h **** typedef enum
 142:/Users/joostbooy/Desktop/Code/stm32/lib/tinyusb/src/common/tusb_types.h **** {
 143:/Users/joostbooy/Desktop/Code/stm32/lib/tinyusb/src/common/tusb_types.h ****   TUSB_REQ_FEATURE_EDPT_HALT     = 0,
 144:/Users/joostbooy/Desktop/Code/stm32/lib/tinyusb/src/common/tusb_types.h ****   TUSB_REQ_FEATURE_REMOTE_WAKEUP = 1,
 145:/Users/joostbooy/Desktop/Code/stm32/lib/tinyusb/src/common/tusb_types.h ****   TUSB_REQ_FEATURE_TEST_MODE     = 2
 146:/Users/joostbooy/Desktop/Code/stm32/lib/tinyusb/src/common/tusb_types.h **** }tusb_request_feature_selector_t;
 147:/Users/joostbooy/Desktop/Code/stm32/lib/tinyusb/src/common/tusb_types.h **** 
 148:/Users/joostbooy/Desktop/Code/stm32/lib/tinyusb/src/common/tusb_types.h **** typedef enum
 149:/Users/joostbooy/Desktop/Code/stm32/lib/tinyusb/src/common/tusb_types.h **** {
 150:/Users/joostbooy/Desktop/Code/stm32/lib/tinyusb/src/common/tusb_types.h ****   TUSB_REQ_TYPE_STANDARD = 0,
 151:/Users/joostbooy/Desktop/Code/stm32/lib/tinyusb/src/common/tusb_types.h ****   TUSB_REQ_TYPE_CLASS,
 152:/Users/joostbooy/Desktop/Code/stm32/lib/tinyusb/src/common/tusb_types.h ****   TUSB_REQ_TYPE_VENDOR,
 153:/Users/joostbooy/Desktop/Code/stm32/lib/tinyusb/src/common/tusb_types.h ****   TUSB_REQ_TYPE_INVALID
 154:/Users/joostbooy/Desktop/Code/stm32/lib/tinyusb/src/common/tusb_types.h **** } tusb_request_type_t;
 155:/Users/joostbooy/Desktop/Code/stm32/lib/tinyusb/src/common/tusb_types.h **** 
 156:/Users/joostbooy/Desktop/Code/stm32/lib/tinyusb/src/common/tusb_types.h **** typedef enum
 157:/Users/joostbooy/Desktop/Code/stm32/lib/tinyusb/src/common/tusb_types.h **** {
 158:/Users/joostbooy/Desktop/Code/stm32/lib/tinyusb/src/common/tusb_types.h ****   TUSB_REQ_RCPT_DEVICE =0,
 159:/Users/joostbooy/Desktop/Code/stm32/lib/tinyusb/src/common/tusb_types.h ****   TUSB_REQ_RCPT_INTERFACE,
 160:/Users/joostbooy/Desktop/Code/stm32/lib/tinyusb/src/common/tusb_types.h ****   TUSB_REQ_RCPT_ENDPOINT,
 161:/Users/joostbooy/Desktop/Code/stm32/lib/tinyusb/src/common/tusb_types.h ****   TUSB_REQ_RCPT_OTHER
 162:/Users/joostbooy/Desktop/Code/stm32/lib/tinyusb/src/common/tusb_types.h **** } tusb_request_recipient_t;
 163:/Users/joostbooy/Desktop/Code/stm32/lib/tinyusb/src/common/tusb_types.h **** 
 164:/Users/joostbooy/Desktop/Code/stm32/lib/tinyusb/src/common/tusb_types.h **** // https://www.usb.org/defined-class-codes
 165:/Users/joostbooy/Desktop/Code/stm32/lib/tinyusb/src/common/tusb_types.h **** typedef enum
 166:/Users/joostbooy/Desktop/Code/stm32/lib/tinyusb/src/common/tusb_types.h **** {
 167:/Users/joostbooy/Desktop/Code/stm32/lib/tinyusb/src/common/tusb_types.h ****   TUSB_CLASS_UNSPECIFIED          = 0    ,
 168:/Users/joostbooy/Desktop/Code/stm32/lib/tinyusb/src/common/tusb_types.h ****   TUSB_CLASS_AUDIO                = 1    ,
 169:/Users/joostbooy/Desktop/Code/stm32/lib/tinyusb/src/common/tusb_types.h ****   TUSB_CLASS_CDC                  = 2    ,
 170:/Users/joostbooy/Desktop/Code/stm32/lib/tinyusb/src/common/tusb_types.h ****   TUSB_CLASS_HID                  = 3    ,
 171:/Users/joostbooy/Desktop/Code/stm32/lib/tinyusb/src/common/tusb_types.h ****   TUSB_CLASS_RESERVED_4           = 4    ,
 172:/Users/joostbooy/Desktop/Code/stm32/lib/tinyusb/src/common/tusb_types.h ****   TUSB_CLASS_PHYSICAL             = 5    ,
 173:/Users/joostbooy/Desktop/Code/stm32/lib/tinyusb/src/common/tusb_types.h ****   TUSB_CLASS_IMAGE                = 6    ,
 174:/Users/joostbooy/Desktop/Code/stm32/lib/tinyusb/src/common/tusb_types.h ****   TUSB_CLASS_PRINTER              = 7    ,
 175:/Users/joostbooy/Desktop/Code/stm32/lib/tinyusb/src/common/tusb_types.h ****   TUSB_CLASS_MSC                  = 8    ,
 176:/Users/joostbooy/Desktop/Code/stm32/lib/tinyusb/src/common/tusb_types.h ****   TUSB_CLASS_HUB                  = 9    ,
 177:/Users/joostbooy/Desktop/Code/stm32/lib/tinyusb/src/common/tusb_types.h ****   TUSB_CLASS_CDC_DATA             = 10   ,
 178:/Users/joostbooy/Desktop/Code/stm32/lib/tinyusb/src/common/tusb_types.h ****   TUSB_CLASS_SMART_CARD           = 11   ,
 179:/Users/joostbooy/Desktop/Code/stm32/lib/tinyusb/src/common/tusb_types.h ****   TUSB_CLASS_RESERVED_12          = 12   ,
 180:/Users/joostbooy/Desktop/Code/stm32/lib/tinyusb/src/common/tusb_types.h ****   TUSB_CLASS_CONTENT_SECURITY     = 13   ,
 181:/Users/joostbooy/Desktop/Code/stm32/lib/tinyusb/src/common/tusb_types.h ****   TUSB_CLASS_VIDEO                = 14   ,
ARM GAS  /var/folders/84/_x1cyy_j36g486tldtwl37280000gn/T//ccHWsz3h.s 			page 49


 182:/Users/joostbooy/Desktop/Code/stm32/lib/tinyusb/src/common/tusb_types.h ****   TUSB_CLASS_PERSONAL_HEALTHCARE  = 15   ,
 183:/Users/joostbooy/Desktop/Code/stm32/lib/tinyusb/src/common/tusb_types.h ****   TUSB_CLASS_AUDIO_VIDEO          = 16   ,
 184:/Users/joostbooy/Desktop/Code/stm32/lib/tinyusb/src/common/tusb_types.h **** 
 185:/Users/joostbooy/Desktop/Code/stm32/lib/tinyusb/src/common/tusb_types.h ****   TUSB_CLASS_DIAGNOSTIC           = 0xDC ,
 186:/Users/joostbooy/Desktop/Code/stm32/lib/tinyusb/src/common/tusb_types.h ****   TUSB_CLASS_WIRELESS_CONTROLLER  = 0xE0 ,
 187:/Users/joostbooy/Desktop/Code/stm32/lib/tinyusb/src/common/tusb_types.h ****   TUSB_CLASS_MISC                 = 0xEF ,
 188:/Users/joostbooy/Desktop/Code/stm32/lib/tinyusb/src/common/tusb_types.h ****   TUSB_CLASS_APPLICATION_SPECIFIC = 0xFE ,
 189:/Users/joostbooy/Desktop/Code/stm32/lib/tinyusb/src/common/tusb_types.h ****   TUSB_CLASS_VENDOR_SPECIFIC      = 0xFF
 190:/Users/joostbooy/Desktop/Code/stm32/lib/tinyusb/src/common/tusb_types.h **** }tusb_class_code_t;
 191:/Users/joostbooy/Desktop/Code/stm32/lib/tinyusb/src/common/tusb_types.h **** 
 192:/Users/joostbooy/Desktop/Code/stm32/lib/tinyusb/src/common/tusb_types.h **** typedef enum
 193:/Users/joostbooy/Desktop/Code/stm32/lib/tinyusb/src/common/tusb_types.h **** {
 194:/Users/joostbooy/Desktop/Code/stm32/lib/tinyusb/src/common/tusb_types.h ****   MISC_SUBCLASS_COMMON = 2
 195:/Users/joostbooy/Desktop/Code/stm32/lib/tinyusb/src/common/tusb_types.h **** }misc_subclass_type_t;
 196:/Users/joostbooy/Desktop/Code/stm32/lib/tinyusb/src/common/tusb_types.h **** 
 197:/Users/joostbooy/Desktop/Code/stm32/lib/tinyusb/src/common/tusb_types.h **** typedef enum
 198:/Users/joostbooy/Desktop/Code/stm32/lib/tinyusb/src/common/tusb_types.h **** {
 199:/Users/joostbooy/Desktop/Code/stm32/lib/tinyusb/src/common/tusb_types.h ****   MISC_PROTOCOL_IAD = 1
 200:/Users/joostbooy/Desktop/Code/stm32/lib/tinyusb/src/common/tusb_types.h **** }misc_protocol_type_t;
 201:/Users/joostbooy/Desktop/Code/stm32/lib/tinyusb/src/common/tusb_types.h **** 
 202:/Users/joostbooy/Desktop/Code/stm32/lib/tinyusb/src/common/tusb_types.h **** typedef enum
 203:/Users/joostbooy/Desktop/Code/stm32/lib/tinyusb/src/common/tusb_types.h **** {
 204:/Users/joostbooy/Desktop/Code/stm32/lib/tinyusb/src/common/tusb_types.h ****   APP_SUBCLASS_USBTMC = 0x03,
 205:/Users/joostbooy/Desktop/Code/stm32/lib/tinyusb/src/common/tusb_types.h ****   APP_SUBCLASS_DFU_RUNTIME = 0x01
 206:/Users/joostbooy/Desktop/Code/stm32/lib/tinyusb/src/common/tusb_types.h **** } app_subclass_type_t;
 207:/Users/joostbooy/Desktop/Code/stm32/lib/tinyusb/src/common/tusb_types.h **** 
 208:/Users/joostbooy/Desktop/Code/stm32/lib/tinyusb/src/common/tusb_types.h **** typedef enum
 209:/Users/joostbooy/Desktop/Code/stm32/lib/tinyusb/src/common/tusb_types.h **** {
 210:/Users/joostbooy/Desktop/Code/stm32/lib/tinyusb/src/common/tusb_types.h ****   DEVICE_CAPABILITY_WIRELESS_USB               = 0x01,
 211:/Users/joostbooy/Desktop/Code/stm32/lib/tinyusb/src/common/tusb_types.h ****   DEVICE_CAPABILITY_USB20_EXTENSION            = 0x02,
 212:/Users/joostbooy/Desktop/Code/stm32/lib/tinyusb/src/common/tusb_types.h ****   DEVICE_CAPABILITY_SUPERSPEED_USB             = 0x03,
 213:/Users/joostbooy/Desktop/Code/stm32/lib/tinyusb/src/common/tusb_types.h ****   DEVICE_CAPABILITY_CONTAINER_id               = 0x04,
 214:/Users/joostbooy/Desktop/Code/stm32/lib/tinyusb/src/common/tusb_types.h ****   DEVICE_CAPABILITY_PLATFORM                   = 0x05,
 215:/Users/joostbooy/Desktop/Code/stm32/lib/tinyusb/src/common/tusb_types.h ****   DEVICE_CAPABILITY_POWER_DELIVERY             = 0x06,
 216:/Users/joostbooy/Desktop/Code/stm32/lib/tinyusb/src/common/tusb_types.h ****   DEVICE_CAPABILITY_BATTERY_INFO               = 0x07,
 217:/Users/joostbooy/Desktop/Code/stm32/lib/tinyusb/src/common/tusb_types.h ****   DEVICE_CAPABILITY_PD_CONSUMER_PORT           = 0x08,
 218:/Users/joostbooy/Desktop/Code/stm32/lib/tinyusb/src/common/tusb_types.h ****   DEVICE_CAPABILITY_PD_PROVIDER_PORT           = 0x09,
 219:/Users/joostbooy/Desktop/Code/stm32/lib/tinyusb/src/common/tusb_types.h ****   DEVICE_CAPABILITY_SUPERSPEED_PLUS            = 0x0A,
 220:/Users/joostbooy/Desktop/Code/stm32/lib/tinyusb/src/common/tusb_types.h ****   DEVICE_CAPABILITY_PRECESION_TIME_MEASUREMENT = 0x0B,
 221:/Users/joostbooy/Desktop/Code/stm32/lib/tinyusb/src/common/tusb_types.h ****   DEVICE_CAPABILITY_WIRELESS_USB_EXT           = 0x0C,
 222:/Users/joostbooy/Desktop/Code/stm32/lib/tinyusb/src/common/tusb_types.h ****   DEVICE_CAPABILITY_BILLBOARD                  = 0x0D,
 223:/Users/joostbooy/Desktop/Code/stm32/lib/tinyusb/src/common/tusb_types.h ****   DEVICE_CAPABILITY_AUTHENTICATION             = 0x0E,
 224:/Users/joostbooy/Desktop/Code/stm32/lib/tinyusb/src/common/tusb_types.h ****   DEVICE_CAPABILITY_BILLBOARD_EX               = 0x0F,
 225:/Users/joostbooy/Desktop/Code/stm32/lib/tinyusb/src/common/tusb_types.h ****   DEVICE_CAPABILITY_CONFIGURATION_SUMMARY      = 0x10
 226:/Users/joostbooy/Desktop/Code/stm32/lib/tinyusb/src/common/tusb_types.h **** }device_capability_type_t;
 227:/Users/joostbooy/Desktop/Code/stm32/lib/tinyusb/src/common/tusb_types.h **** 
 228:/Users/joostbooy/Desktop/Code/stm32/lib/tinyusb/src/common/tusb_types.h **** enum {
 229:/Users/joostbooy/Desktop/Code/stm32/lib/tinyusb/src/common/tusb_types.h ****   TUSB_DESC_CONFIG_ATT_REMOTE_WAKEUP = TU_BIT(5),
 230:/Users/joostbooy/Desktop/Code/stm32/lib/tinyusb/src/common/tusb_types.h ****   TUSB_DESC_CONFIG_ATT_SELF_POWERED  = TU_BIT(6),
 231:/Users/joostbooy/Desktop/Code/stm32/lib/tinyusb/src/common/tusb_types.h **** };
 232:/Users/joostbooy/Desktop/Code/stm32/lib/tinyusb/src/common/tusb_types.h **** 
 233:/Users/joostbooy/Desktop/Code/stm32/lib/tinyusb/src/common/tusb_types.h **** #define TUSB_DESC_CONFIG_POWER_MA(x)  ((x)/2)
 234:/Users/joostbooy/Desktop/Code/stm32/lib/tinyusb/src/common/tusb_types.h **** 
 235:/Users/joostbooy/Desktop/Code/stm32/lib/tinyusb/src/common/tusb_types.h **** //--------------------------------------------------------------------+
 236:/Users/joostbooy/Desktop/Code/stm32/lib/tinyusb/src/common/tusb_types.h **** //
 237:/Users/joostbooy/Desktop/Code/stm32/lib/tinyusb/src/common/tusb_types.h **** //--------------------------------------------------------------------+
 238:/Users/joostbooy/Desktop/Code/stm32/lib/tinyusb/src/common/tusb_types.h **** typedef enum
ARM GAS  /var/folders/84/_x1cyy_j36g486tldtwl37280000gn/T//ccHWsz3h.s 			page 50


 239:/Users/joostbooy/Desktop/Code/stm32/lib/tinyusb/src/common/tusb_types.h **** {
 240:/Users/joostbooy/Desktop/Code/stm32/lib/tinyusb/src/common/tusb_types.h ****   XFER_RESULT_SUCCESS = 0,
 241:/Users/joostbooy/Desktop/Code/stm32/lib/tinyusb/src/common/tusb_types.h ****   XFER_RESULT_FAILED,
 242:/Users/joostbooy/Desktop/Code/stm32/lib/tinyusb/src/common/tusb_types.h ****   XFER_RESULT_STALLED,
 243:/Users/joostbooy/Desktop/Code/stm32/lib/tinyusb/src/common/tusb_types.h ****   XFER_RESULT_TIMEOUT,
 244:/Users/joostbooy/Desktop/Code/stm32/lib/tinyusb/src/common/tusb_types.h ****   XFER_RESULT_INVALID
 245:/Users/joostbooy/Desktop/Code/stm32/lib/tinyusb/src/common/tusb_types.h **** }xfer_result_t;
 246:/Users/joostbooy/Desktop/Code/stm32/lib/tinyusb/src/common/tusb_types.h **** 
 247:/Users/joostbooy/Desktop/Code/stm32/lib/tinyusb/src/common/tusb_types.h **** enum // TODO remove
 248:/Users/joostbooy/Desktop/Code/stm32/lib/tinyusb/src/common/tusb_types.h **** {
 249:/Users/joostbooy/Desktop/Code/stm32/lib/tinyusb/src/common/tusb_types.h ****   DESC_OFFSET_LEN  = 0,
 250:/Users/joostbooy/Desktop/Code/stm32/lib/tinyusb/src/common/tusb_types.h ****   DESC_OFFSET_TYPE = 1
 251:/Users/joostbooy/Desktop/Code/stm32/lib/tinyusb/src/common/tusb_types.h **** };
 252:/Users/joostbooy/Desktop/Code/stm32/lib/tinyusb/src/common/tusb_types.h **** 
 253:/Users/joostbooy/Desktop/Code/stm32/lib/tinyusb/src/common/tusb_types.h **** enum
 254:/Users/joostbooy/Desktop/Code/stm32/lib/tinyusb/src/common/tusb_types.h **** {
 255:/Users/joostbooy/Desktop/Code/stm32/lib/tinyusb/src/common/tusb_types.h ****   INTERFACE_INVALID_NUMBER = 0xff
 256:/Users/joostbooy/Desktop/Code/stm32/lib/tinyusb/src/common/tusb_types.h **** };
 257:/Users/joostbooy/Desktop/Code/stm32/lib/tinyusb/src/common/tusb_types.h **** 
 258:/Users/joostbooy/Desktop/Code/stm32/lib/tinyusb/src/common/tusb_types.h **** typedef enum
 259:/Users/joostbooy/Desktop/Code/stm32/lib/tinyusb/src/common/tusb_types.h **** {
 260:/Users/joostbooy/Desktop/Code/stm32/lib/tinyusb/src/common/tusb_types.h ****   MS_OS_20_SET_HEADER_DESCRIPTOR       = 0x00,
 261:/Users/joostbooy/Desktop/Code/stm32/lib/tinyusb/src/common/tusb_types.h ****   MS_OS_20_SUBSET_HEADER_CONFIGURATION = 0x01,
 262:/Users/joostbooy/Desktop/Code/stm32/lib/tinyusb/src/common/tusb_types.h ****   MS_OS_20_SUBSET_HEADER_FUNCTION      = 0x02,
 263:/Users/joostbooy/Desktop/Code/stm32/lib/tinyusb/src/common/tusb_types.h ****   MS_OS_20_FEATURE_COMPATBLE_ID        = 0x03,
 264:/Users/joostbooy/Desktop/Code/stm32/lib/tinyusb/src/common/tusb_types.h ****   MS_OS_20_FEATURE_REG_PROPERTY        = 0x04,
 265:/Users/joostbooy/Desktop/Code/stm32/lib/tinyusb/src/common/tusb_types.h ****   MS_OS_20_FEATURE_MIN_RESUME_TIME     = 0x05,
 266:/Users/joostbooy/Desktop/Code/stm32/lib/tinyusb/src/common/tusb_types.h ****   MS_OS_20_FEATURE_MODEL_ID            = 0x06,
 267:/Users/joostbooy/Desktop/Code/stm32/lib/tinyusb/src/common/tusb_types.h ****   MS_OS_20_FEATURE_CCGP_DEVICE         = 0x07,
 268:/Users/joostbooy/Desktop/Code/stm32/lib/tinyusb/src/common/tusb_types.h ****   MS_OS_20_FEATURE_VENDOR_REVISION     = 0x08
 269:/Users/joostbooy/Desktop/Code/stm32/lib/tinyusb/src/common/tusb_types.h **** } microsoft_os_20_type_t;
 270:/Users/joostbooy/Desktop/Code/stm32/lib/tinyusb/src/common/tusb_types.h **** 
 271:/Users/joostbooy/Desktop/Code/stm32/lib/tinyusb/src/common/tusb_types.h **** enum
 272:/Users/joostbooy/Desktop/Code/stm32/lib/tinyusb/src/common/tusb_types.h **** {
 273:/Users/joostbooy/Desktop/Code/stm32/lib/tinyusb/src/common/tusb_types.h ****   CONTROL_STAGE_IDLE,
 274:/Users/joostbooy/Desktop/Code/stm32/lib/tinyusb/src/common/tusb_types.h ****   CONTROL_STAGE_SETUP,
 275:/Users/joostbooy/Desktop/Code/stm32/lib/tinyusb/src/common/tusb_types.h ****   CONTROL_STAGE_DATA,
 276:/Users/joostbooy/Desktop/Code/stm32/lib/tinyusb/src/common/tusb_types.h ****   CONTROL_STAGE_ACK
 277:/Users/joostbooy/Desktop/Code/stm32/lib/tinyusb/src/common/tusb_types.h **** };
 278:/Users/joostbooy/Desktop/Code/stm32/lib/tinyusb/src/common/tusb_types.h **** 
 279:/Users/joostbooy/Desktop/Code/stm32/lib/tinyusb/src/common/tusb_types.h **** enum
 280:/Users/joostbooy/Desktop/Code/stm32/lib/tinyusb/src/common/tusb_types.h **** {
 281:/Users/joostbooy/Desktop/Code/stm32/lib/tinyusb/src/common/tusb_types.h ****   TUSB_INDEX_INVALID_8 = 0xFFu
 282:/Users/joostbooy/Desktop/Code/stm32/lib/tinyusb/src/common/tusb_types.h **** };
 283:/Users/joostbooy/Desktop/Code/stm32/lib/tinyusb/src/common/tusb_types.h **** 
 284:/Users/joostbooy/Desktop/Code/stm32/lib/tinyusb/src/common/tusb_types.h **** //--------------------------------------------------------------------+
 285:/Users/joostbooy/Desktop/Code/stm32/lib/tinyusb/src/common/tusb_types.h **** // USB Descriptors
 286:/Users/joostbooy/Desktop/Code/stm32/lib/tinyusb/src/common/tusb_types.h **** //--------------------------------------------------------------------+
 287:/Users/joostbooy/Desktop/Code/stm32/lib/tinyusb/src/common/tusb_types.h **** 
 288:/Users/joostbooy/Desktop/Code/stm32/lib/tinyusb/src/common/tusb_types.h **** // Start of all packed definitions for compiler without per-type packed
 289:/Users/joostbooy/Desktop/Code/stm32/lib/tinyusb/src/common/tusb_types.h **** TU_ATTR_PACKED_BEGIN
 290:/Users/joostbooy/Desktop/Code/stm32/lib/tinyusb/src/common/tusb_types.h **** TU_ATTR_BIT_FIELD_ORDER_BEGIN
 291:/Users/joostbooy/Desktop/Code/stm32/lib/tinyusb/src/common/tusb_types.h **** 
 292:/Users/joostbooy/Desktop/Code/stm32/lib/tinyusb/src/common/tusb_types.h **** /// USB Device Descriptor
 293:/Users/joostbooy/Desktop/Code/stm32/lib/tinyusb/src/common/tusb_types.h **** typedef struct TU_ATTR_PACKED
 294:/Users/joostbooy/Desktop/Code/stm32/lib/tinyusb/src/common/tusb_types.h **** {
 295:/Users/joostbooy/Desktop/Code/stm32/lib/tinyusb/src/common/tusb_types.h ****   uint8_t  bLength            ; ///< Size of this descriptor in bytes.
ARM GAS  /var/folders/84/_x1cyy_j36g486tldtwl37280000gn/T//ccHWsz3h.s 			page 51


 296:/Users/joostbooy/Desktop/Code/stm32/lib/tinyusb/src/common/tusb_types.h ****   uint8_t  bDescriptorType    ; ///< DEVICE Descriptor Type.
 297:/Users/joostbooy/Desktop/Code/stm32/lib/tinyusb/src/common/tusb_types.h ****   uint16_t bcdUSB             ; ///< BUSB Specification Release Number in Binary-Coded Decimal (i.e
 298:/Users/joostbooy/Desktop/Code/stm32/lib/tinyusb/src/common/tusb_types.h **** 
 299:/Users/joostbooy/Desktop/Code/stm32/lib/tinyusb/src/common/tusb_types.h ****   uint8_t  bDeviceClass       ; ///< Class code (assigned by the USB-IF). \li If this field is rese
 300:/Users/joostbooy/Desktop/Code/stm32/lib/tinyusb/src/common/tusb_types.h ****   uint8_t  bDeviceSubClass    ; ///< Subclass code (assigned by the USB-IF). These codes are qualif
 301:/Users/joostbooy/Desktop/Code/stm32/lib/tinyusb/src/common/tusb_types.h ****   uint8_t  bDeviceProtocol    ; ///< Protocol code (assigned by the USB-IF). These codes are qualif
 302:/Users/joostbooy/Desktop/Code/stm32/lib/tinyusb/src/common/tusb_types.h ****   uint8_t  bMaxPacketSize0    ; ///< Maximum packet size for endpoint zero (only 8, 16, 32, or 64 a
 303:/Users/joostbooy/Desktop/Code/stm32/lib/tinyusb/src/common/tusb_types.h **** 
 304:/Users/joostbooy/Desktop/Code/stm32/lib/tinyusb/src/common/tusb_types.h ****   uint16_t idVendor           ; ///< Vendor ID (assigned by the USB-IF).
 305:/Users/joostbooy/Desktop/Code/stm32/lib/tinyusb/src/common/tusb_types.h ****   uint16_t idProduct          ; ///< Product ID (assigned by the manufacturer).
 306:/Users/joostbooy/Desktop/Code/stm32/lib/tinyusb/src/common/tusb_types.h ****   uint16_t bcdDevice          ; ///< Device release number in binary-coded decimal.
 307:/Users/joostbooy/Desktop/Code/stm32/lib/tinyusb/src/common/tusb_types.h ****   uint8_t  iManufacturer      ; ///< Index of string descriptor describing manufacturer.
 308:/Users/joostbooy/Desktop/Code/stm32/lib/tinyusb/src/common/tusb_types.h ****   uint8_t  iProduct           ; ///< Index of string descriptor describing product.
 309:/Users/joostbooy/Desktop/Code/stm32/lib/tinyusb/src/common/tusb_types.h ****   uint8_t  iSerialNumber      ; ///< Index of string descriptor describing the device's serial numb
 310:/Users/joostbooy/Desktop/Code/stm32/lib/tinyusb/src/common/tusb_types.h **** 
 311:/Users/joostbooy/Desktop/Code/stm32/lib/tinyusb/src/common/tusb_types.h ****   uint8_t  bNumConfigurations ; ///< Number of possible configurations.
 312:/Users/joostbooy/Desktop/Code/stm32/lib/tinyusb/src/common/tusb_types.h **** } tusb_desc_device_t;
 313:/Users/joostbooy/Desktop/Code/stm32/lib/tinyusb/src/common/tusb_types.h **** 
 314:/Users/joostbooy/Desktop/Code/stm32/lib/tinyusb/src/common/tusb_types.h **** TU_VERIFY_STATIC( sizeof(tusb_desc_device_t) == 18, "size is not correct");
 315:/Users/joostbooy/Desktop/Code/stm32/lib/tinyusb/src/common/tusb_types.h **** 
 316:/Users/joostbooy/Desktop/Code/stm32/lib/tinyusb/src/common/tusb_types.h **** // USB Binary Device Object Store (BOS) Descriptor
 317:/Users/joostbooy/Desktop/Code/stm32/lib/tinyusb/src/common/tusb_types.h **** typedef struct TU_ATTR_PACKED
 318:/Users/joostbooy/Desktop/Code/stm32/lib/tinyusb/src/common/tusb_types.h **** {
 319:/Users/joostbooy/Desktop/Code/stm32/lib/tinyusb/src/common/tusb_types.h ****   uint8_t  bLength         ; ///< Size of this descriptor in bytes
 320:/Users/joostbooy/Desktop/Code/stm32/lib/tinyusb/src/common/tusb_types.h ****   uint8_t  bDescriptorType ; ///< CONFIGURATION Descriptor Type
 321:/Users/joostbooy/Desktop/Code/stm32/lib/tinyusb/src/common/tusb_types.h ****   uint16_t wTotalLength    ; ///< Total length of data returned for this descriptor
 322:/Users/joostbooy/Desktop/Code/stm32/lib/tinyusb/src/common/tusb_types.h ****   uint8_t  bNumDeviceCaps  ; ///< Number of device capability descriptors in the BOS
 323:/Users/joostbooy/Desktop/Code/stm32/lib/tinyusb/src/common/tusb_types.h **** } tusb_desc_bos_t;
 324:/Users/joostbooy/Desktop/Code/stm32/lib/tinyusb/src/common/tusb_types.h **** 
 325:/Users/joostbooy/Desktop/Code/stm32/lib/tinyusb/src/common/tusb_types.h **** TU_VERIFY_STATIC( sizeof(tusb_desc_bos_t) == 5, "size is not correct");
 326:/Users/joostbooy/Desktop/Code/stm32/lib/tinyusb/src/common/tusb_types.h **** 
 327:/Users/joostbooy/Desktop/Code/stm32/lib/tinyusb/src/common/tusb_types.h **** /// USB Configuration Descriptor
 328:/Users/joostbooy/Desktop/Code/stm32/lib/tinyusb/src/common/tusb_types.h **** typedef struct TU_ATTR_PACKED
 329:/Users/joostbooy/Desktop/Code/stm32/lib/tinyusb/src/common/tusb_types.h **** {
 330:/Users/joostbooy/Desktop/Code/stm32/lib/tinyusb/src/common/tusb_types.h ****   uint8_t  bLength             ; ///< Size of this descriptor in bytes
 331:/Users/joostbooy/Desktop/Code/stm32/lib/tinyusb/src/common/tusb_types.h ****   uint8_t  bDescriptorType     ; ///< CONFIGURATION Descriptor Type
 332:/Users/joostbooy/Desktop/Code/stm32/lib/tinyusb/src/common/tusb_types.h ****   uint16_t wTotalLength        ; ///< Total length of data returned for this configuration. Include
 333:/Users/joostbooy/Desktop/Code/stm32/lib/tinyusb/src/common/tusb_types.h **** 
 334:/Users/joostbooy/Desktop/Code/stm32/lib/tinyusb/src/common/tusb_types.h ****   uint8_t  bNumInterfaces      ; ///< Number of interfaces supported by this configuration
 335:/Users/joostbooy/Desktop/Code/stm32/lib/tinyusb/src/common/tusb_types.h ****   uint8_t  bConfigurationValue ; ///< Value to use as an argument to the SetConfiguration() request
 336:/Users/joostbooy/Desktop/Code/stm32/lib/tinyusb/src/common/tusb_types.h ****   uint8_t  iConfiguration      ; ///< Index of string descriptor describing this configuration
 337:/Users/joostbooy/Desktop/Code/stm32/lib/tinyusb/src/common/tusb_types.h ****   uint8_t  bmAttributes        ; ///< Configuration characteristics \n D7: Reserved (set to one)\n 
 338:/Users/joostbooy/Desktop/Code/stm32/lib/tinyusb/src/common/tusb_types.h ****   uint8_t  bMaxPower           ; ///< Maximum power consumption of the USB device from the bus in t
 339:/Users/joostbooy/Desktop/Code/stm32/lib/tinyusb/src/common/tusb_types.h **** } tusb_desc_configuration_t;
 340:/Users/joostbooy/Desktop/Code/stm32/lib/tinyusb/src/common/tusb_types.h **** 
 341:/Users/joostbooy/Desktop/Code/stm32/lib/tinyusb/src/common/tusb_types.h **** TU_VERIFY_STATIC( sizeof(tusb_desc_configuration_t) == 9, "size is not correct");
 342:/Users/joostbooy/Desktop/Code/stm32/lib/tinyusb/src/common/tusb_types.h **** 
 343:/Users/joostbooy/Desktop/Code/stm32/lib/tinyusb/src/common/tusb_types.h **** /// USB Interface Descriptor
 344:/Users/joostbooy/Desktop/Code/stm32/lib/tinyusb/src/common/tusb_types.h **** typedef struct TU_ATTR_PACKED
 345:/Users/joostbooy/Desktop/Code/stm32/lib/tinyusb/src/common/tusb_types.h **** {
 346:/Users/joostbooy/Desktop/Code/stm32/lib/tinyusb/src/common/tusb_types.h ****   uint8_t  bLength            ; ///< Size of this descriptor in bytes
 347:/Users/joostbooy/Desktop/Code/stm32/lib/tinyusb/src/common/tusb_types.h ****   uint8_t  bDescriptorType    ; ///< INTERFACE Descriptor Type
 348:/Users/joostbooy/Desktop/Code/stm32/lib/tinyusb/src/common/tusb_types.h **** 
 349:/Users/joostbooy/Desktop/Code/stm32/lib/tinyusb/src/common/tusb_types.h ****   uint8_t  bInterfaceNumber   ; ///< Number of this interface. Zero-based value identifying the ind
 350:/Users/joostbooy/Desktop/Code/stm32/lib/tinyusb/src/common/tusb_types.h ****   uint8_t  bAlternateSetting  ; ///< Value used to select this alternate setting for the interface 
 351:/Users/joostbooy/Desktop/Code/stm32/lib/tinyusb/src/common/tusb_types.h ****   uint8_t  bNumEndpoints      ; ///< Number of endpoints used by this interface (excluding endpoint
 352:/Users/joostbooy/Desktop/Code/stm32/lib/tinyusb/src/common/tusb_types.h ****   uint8_t  bInterfaceClass    ; ///< Class code (assigned by the USB-IF). \li A value of zero is re
ARM GAS  /var/folders/84/_x1cyy_j36g486tldtwl37280000gn/T//ccHWsz3h.s 			page 52


 353:/Users/joostbooy/Desktop/Code/stm32/lib/tinyusb/src/common/tusb_types.h ****   uint8_t  bInterfaceSubClass ; ///< Subclass code (assigned by the USB-IF). \n These codes are qua
 354:/Users/joostbooy/Desktop/Code/stm32/lib/tinyusb/src/common/tusb_types.h ****   uint8_t  bInterfaceProtocol ; ///< Protocol code (assigned by the USB). \n These codes are qualif
 355:/Users/joostbooy/Desktop/Code/stm32/lib/tinyusb/src/common/tusb_types.h ****   uint8_t  iInterface         ; ///< Index of string descriptor describing this interface
 356:/Users/joostbooy/Desktop/Code/stm32/lib/tinyusb/src/common/tusb_types.h **** } tusb_desc_interface_t;
 357:/Users/joostbooy/Desktop/Code/stm32/lib/tinyusb/src/common/tusb_types.h **** 
 358:/Users/joostbooy/Desktop/Code/stm32/lib/tinyusb/src/common/tusb_types.h **** TU_VERIFY_STATIC( sizeof(tusb_desc_interface_t) == 9, "size is not correct");
 359:/Users/joostbooy/Desktop/Code/stm32/lib/tinyusb/src/common/tusb_types.h **** 
 360:/Users/joostbooy/Desktop/Code/stm32/lib/tinyusb/src/common/tusb_types.h **** /// USB Endpoint Descriptor
 361:/Users/joostbooy/Desktop/Code/stm32/lib/tinyusb/src/common/tusb_types.h **** typedef struct TU_ATTR_PACKED
 362:/Users/joostbooy/Desktop/Code/stm32/lib/tinyusb/src/common/tusb_types.h **** {
 363:/Users/joostbooy/Desktop/Code/stm32/lib/tinyusb/src/common/tusb_types.h ****   uint8_t  bLength          ; // Size of this descriptor in bytes
 364:/Users/joostbooy/Desktop/Code/stm32/lib/tinyusb/src/common/tusb_types.h ****   uint8_t  bDescriptorType  ; // ENDPOINT Descriptor Type
 365:/Users/joostbooy/Desktop/Code/stm32/lib/tinyusb/src/common/tusb_types.h **** 
 366:/Users/joostbooy/Desktop/Code/stm32/lib/tinyusb/src/common/tusb_types.h ****   uint8_t  bEndpointAddress ; // The address of the endpoint
 367:/Users/joostbooy/Desktop/Code/stm32/lib/tinyusb/src/common/tusb_types.h **** 
 368:/Users/joostbooy/Desktop/Code/stm32/lib/tinyusb/src/common/tusb_types.h ****   struct TU_ATTR_PACKED {
 369:/Users/joostbooy/Desktop/Code/stm32/lib/tinyusb/src/common/tusb_types.h ****     uint8_t xfer  : 2;        // Control, ISO, Bulk, Interrupt
 370:/Users/joostbooy/Desktop/Code/stm32/lib/tinyusb/src/common/tusb_types.h ****     uint8_t sync  : 2;        // None, Asynchronous, Adaptive, Synchronous
 371:/Users/joostbooy/Desktop/Code/stm32/lib/tinyusb/src/common/tusb_types.h ****     uint8_t usage : 2;        // Data, Feedback, Implicit feedback
 372:/Users/joostbooy/Desktop/Code/stm32/lib/tinyusb/src/common/tusb_types.h ****     uint8_t       : 2;
 373:/Users/joostbooy/Desktop/Code/stm32/lib/tinyusb/src/common/tusb_types.h ****   } bmAttributes;
 374:/Users/joostbooy/Desktop/Code/stm32/lib/tinyusb/src/common/tusb_types.h **** 
 375:/Users/joostbooy/Desktop/Code/stm32/lib/tinyusb/src/common/tusb_types.h ****   uint16_t wMaxPacketSize   ; // Bit 10..0 : max packet size, bit 12..11 additional transaction per
 376:/Users/joostbooy/Desktop/Code/stm32/lib/tinyusb/src/common/tusb_types.h ****   uint8_t  bInterval        ; // Polling interval, in frames or microframes depending on the operat
 377:/Users/joostbooy/Desktop/Code/stm32/lib/tinyusb/src/common/tusb_types.h **** } tusb_desc_endpoint_t;
 378:/Users/joostbooy/Desktop/Code/stm32/lib/tinyusb/src/common/tusb_types.h **** 
 379:/Users/joostbooy/Desktop/Code/stm32/lib/tinyusb/src/common/tusb_types.h **** TU_VERIFY_STATIC( sizeof(tusb_desc_endpoint_t) == 7, "size is not correct");
 380:/Users/joostbooy/Desktop/Code/stm32/lib/tinyusb/src/common/tusb_types.h **** 
 381:/Users/joostbooy/Desktop/Code/stm32/lib/tinyusb/src/common/tusb_types.h **** /// USB Other Speed Configuration Descriptor
 382:/Users/joostbooy/Desktop/Code/stm32/lib/tinyusb/src/common/tusb_types.h **** typedef struct TU_ATTR_PACKED
 383:/Users/joostbooy/Desktop/Code/stm32/lib/tinyusb/src/common/tusb_types.h **** {
 384:/Users/joostbooy/Desktop/Code/stm32/lib/tinyusb/src/common/tusb_types.h ****   uint8_t  bLength             ; ///< Size of descriptor
 385:/Users/joostbooy/Desktop/Code/stm32/lib/tinyusb/src/common/tusb_types.h ****   uint8_t  bDescriptorType     ; ///< Other_speed_Configuration Type
 386:/Users/joostbooy/Desktop/Code/stm32/lib/tinyusb/src/common/tusb_types.h ****   uint16_t wTotalLength        ; ///< Total length of data returned
 387:/Users/joostbooy/Desktop/Code/stm32/lib/tinyusb/src/common/tusb_types.h **** 
 388:/Users/joostbooy/Desktop/Code/stm32/lib/tinyusb/src/common/tusb_types.h ****   uint8_t  bNumInterfaces      ; ///< Number of interfaces supported by this speed configuration
 389:/Users/joostbooy/Desktop/Code/stm32/lib/tinyusb/src/common/tusb_types.h ****   uint8_t  bConfigurationValue ; ///< Value to use to select configuration
 390:/Users/joostbooy/Desktop/Code/stm32/lib/tinyusb/src/common/tusb_types.h ****   uint8_t  iConfiguration      ; ///< Index of string descriptor
 391:/Users/joostbooy/Desktop/Code/stm32/lib/tinyusb/src/common/tusb_types.h ****   uint8_t  bmAttributes        ; ///< Same as Configuration descriptor
 392:/Users/joostbooy/Desktop/Code/stm32/lib/tinyusb/src/common/tusb_types.h ****   uint8_t  bMaxPower           ; ///< Same as Configuration descriptor
 393:/Users/joostbooy/Desktop/Code/stm32/lib/tinyusb/src/common/tusb_types.h **** } tusb_desc_other_speed_t;
 394:/Users/joostbooy/Desktop/Code/stm32/lib/tinyusb/src/common/tusb_types.h **** 
 395:/Users/joostbooy/Desktop/Code/stm32/lib/tinyusb/src/common/tusb_types.h **** /// USB Device Qualifier Descriptor
 396:/Users/joostbooy/Desktop/Code/stm32/lib/tinyusb/src/common/tusb_types.h **** typedef struct TU_ATTR_PACKED
 397:/Users/joostbooy/Desktop/Code/stm32/lib/tinyusb/src/common/tusb_types.h **** {
 398:/Users/joostbooy/Desktop/Code/stm32/lib/tinyusb/src/common/tusb_types.h ****   uint8_t  bLength            ; ///< Size of descriptor
 399:/Users/joostbooy/Desktop/Code/stm32/lib/tinyusb/src/common/tusb_types.h ****   uint8_t  bDescriptorType    ; ///< Device Qualifier Type
 400:/Users/joostbooy/Desktop/Code/stm32/lib/tinyusb/src/common/tusb_types.h ****   uint16_t bcdUSB             ; ///< USB specification version number (e.g., 0200H for V2.00)
 401:/Users/joostbooy/Desktop/Code/stm32/lib/tinyusb/src/common/tusb_types.h **** 
 402:/Users/joostbooy/Desktop/Code/stm32/lib/tinyusb/src/common/tusb_types.h ****   uint8_t  bDeviceClass       ; ///< Class Code
 403:/Users/joostbooy/Desktop/Code/stm32/lib/tinyusb/src/common/tusb_types.h ****   uint8_t  bDeviceSubClass    ; ///< SubClass Code
 404:/Users/joostbooy/Desktop/Code/stm32/lib/tinyusb/src/common/tusb_types.h ****   uint8_t  bDeviceProtocol    ; ///< Protocol Code
 405:/Users/joostbooy/Desktop/Code/stm32/lib/tinyusb/src/common/tusb_types.h **** 
 406:/Users/joostbooy/Desktop/Code/stm32/lib/tinyusb/src/common/tusb_types.h ****   uint8_t  bMaxPacketSize0    ; ///< Maximum packet size for other speed
 407:/Users/joostbooy/Desktop/Code/stm32/lib/tinyusb/src/common/tusb_types.h ****   uint8_t  bNumConfigurations ; ///< Number of Other-speed Configurations
 408:/Users/joostbooy/Desktop/Code/stm32/lib/tinyusb/src/common/tusb_types.h ****   uint8_t  bReserved          ; ///< Reserved for future use, must be zero
 409:/Users/joostbooy/Desktop/Code/stm32/lib/tinyusb/src/common/tusb_types.h **** } tusb_desc_device_qualifier_t;
ARM GAS  /var/folders/84/_x1cyy_j36g486tldtwl37280000gn/T//ccHWsz3h.s 			page 53


 410:/Users/joostbooy/Desktop/Code/stm32/lib/tinyusb/src/common/tusb_types.h **** 
 411:/Users/joostbooy/Desktop/Code/stm32/lib/tinyusb/src/common/tusb_types.h **** TU_VERIFY_STATIC( sizeof(tusb_desc_device_qualifier_t) == 10, "size is not correct");
 412:/Users/joostbooy/Desktop/Code/stm32/lib/tinyusb/src/common/tusb_types.h **** 
 413:/Users/joostbooy/Desktop/Code/stm32/lib/tinyusb/src/common/tusb_types.h **** /// USB Interface Association Descriptor (IAD ECN)
 414:/Users/joostbooy/Desktop/Code/stm32/lib/tinyusb/src/common/tusb_types.h **** typedef struct TU_ATTR_PACKED
 415:/Users/joostbooy/Desktop/Code/stm32/lib/tinyusb/src/common/tusb_types.h **** {
 416:/Users/joostbooy/Desktop/Code/stm32/lib/tinyusb/src/common/tusb_types.h ****   uint8_t bLength           ; ///< Size of descriptor
 417:/Users/joostbooy/Desktop/Code/stm32/lib/tinyusb/src/common/tusb_types.h ****   uint8_t bDescriptorType   ; ///< Other_speed_Configuration Type
 418:/Users/joostbooy/Desktop/Code/stm32/lib/tinyusb/src/common/tusb_types.h **** 
 419:/Users/joostbooy/Desktop/Code/stm32/lib/tinyusb/src/common/tusb_types.h ****   uint8_t bFirstInterface   ; ///< Index of the first associated interface.
 420:/Users/joostbooy/Desktop/Code/stm32/lib/tinyusb/src/common/tusb_types.h ****   uint8_t bInterfaceCount   ; ///< Total number of associated interfaces.
 421:/Users/joostbooy/Desktop/Code/stm32/lib/tinyusb/src/common/tusb_types.h **** 
 422:/Users/joostbooy/Desktop/Code/stm32/lib/tinyusb/src/common/tusb_types.h ****   uint8_t bFunctionClass    ; ///< Interface class ID.
 423:/Users/joostbooy/Desktop/Code/stm32/lib/tinyusb/src/common/tusb_types.h ****   uint8_t bFunctionSubClass ; ///< Interface subclass ID.
 424:/Users/joostbooy/Desktop/Code/stm32/lib/tinyusb/src/common/tusb_types.h ****   uint8_t bFunctionProtocol ; ///< Interface protocol ID.
 425:/Users/joostbooy/Desktop/Code/stm32/lib/tinyusb/src/common/tusb_types.h **** 
 426:/Users/joostbooy/Desktop/Code/stm32/lib/tinyusb/src/common/tusb_types.h ****   uint8_t iFunction         ; ///< Index of the string descriptor describing the interface associat
 427:/Users/joostbooy/Desktop/Code/stm32/lib/tinyusb/src/common/tusb_types.h **** } tusb_desc_interface_assoc_t;
 428:/Users/joostbooy/Desktop/Code/stm32/lib/tinyusb/src/common/tusb_types.h **** 
 429:/Users/joostbooy/Desktop/Code/stm32/lib/tinyusb/src/common/tusb_types.h **** // USB String Descriptor
 430:/Users/joostbooy/Desktop/Code/stm32/lib/tinyusb/src/common/tusb_types.h **** typedef struct TU_ATTR_PACKED
 431:/Users/joostbooy/Desktop/Code/stm32/lib/tinyusb/src/common/tusb_types.h **** {
 432:/Users/joostbooy/Desktop/Code/stm32/lib/tinyusb/src/common/tusb_types.h ****   uint8_t  bLength         ; ///< Size of this descriptor in bytes
 433:/Users/joostbooy/Desktop/Code/stm32/lib/tinyusb/src/common/tusb_types.h ****   uint8_t  bDescriptorType ; ///< Descriptor Type
 434:/Users/joostbooy/Desktop/Code/stm32/lib/tinyusb/src/common/tusb_types.h ****   uint16_t unicode_string[];
 435:/Users/joostbooy/Desktop/Code/stm32/lib/tinyusb/src/common/tusb_types.h **** } tusb_desc_string_t;
 436:/Users/joostbooy/Desktop/Code/stm32/lib/tinyusb/src/common/tusb_types.h **** 
 437:/Users/joostbooy/Desktop/Code/stm32/lib/tinyusb/src/common/tusb_types.h **** // USB Binary Device Object Store (BOS)
 438:/Users/joostbooy/Desktop/Code/stm32/lib/tinyusb/src/common/tusb_types.h **** typedef struct TU_ATTR_PACKED
 439:/Users/joostbooy/Desktop/Code/stm32/lib/tinyusb/src/common/tusb_types.h **** {
 440:/Users/joostbooy/Desktop/Code/stm32/lib/tinyusb/src/common/tusb_types.h ****   uint8_t bLength;
 441:/Users/joostbooy/Desktop/Code/stm32/lib/tinyusb/src/common/tusb_types.h ****   uint8_t bDescriptorType ;
 442:/Users/joostbooy/Desktop/Code/stm32/lib/tinyusb/src/common/tusb_types.h ****   uint8_t bDevCapabilityType;
 443:/Users/joostbooy/Desktop/Code/stm32/lib/tinyusb/src/common/tusb_types.h ****   uint8_t bReserved;
 444:/Users/joostbooy/Desktop/Code/stm32/lib/tinyusb/src/common/tusb_types.h ****   uint8_t PlatformCapabilityUUID[16];
 445:/Users/joostbooy/Desktop/Code/stm32/lib/tinyusb/src/common/tusb_types.h ****   uint8_t CapabilityData[];
 446:/Users/joostbooy/Desktop/Code/stm32/lib/tinyusb/src/common/tusb_types.h **** } tusb_desc_bos_platform_t;
 447:/Users/joostbooy/Desktop/Code/stm32/lib/tinyusb/src/common/tusb_types.h **** 
 448:/Users/joostbooy/Desktop/Code/stm32/lib/tinyusb/src/common/tusb_types.h **** // USB WebuSB URL Descriptor
 449:/Users/joostbooy/Desktop/Code/stm32/lib/tinyusb/src/common/tusb_types.h **** typedef struct TU_ATTR_PACKED
 450:/Users/joostbooy/Desktop/Code/stm32/lib/tinyusb/src/common/tusb_types.h **** {
 451:/Users/joostbooy/Desktop/Code/stm32/lib/tinyusb/src/common/tusb_types.h ****   uint8_t bLength;
 452:/Users/joostbooy/Desktop/Code/stm32/lib/tinyusb/src/common/tusb_types.h ****   uint8_t bDescriptorType;
 453:/Users/joostbooy/Desktop/Code/stm32/lib/tinyusb/src/common/tusb_types.h ****   uint8_t bScheme;
 454:/Users/joostbooy/Desktop/Code/stm32/lib/tinyusb/src/common/tusb_types.h ****   char    url[];
 455:/Users/joostbooy/Desktop/Code/stm32/lib/tinyusb/src/common/tusb_types.h **** } tusb_desc_webusb_url_t;
 456:/Users/joostbooy/Desktop/Code/stm32/lib/tinyusb/src/common/tusb_types.h **** 
 457:/Users/joostbooy/Desktop/Code/stm32/lib/tinyusb/src/common/tusb_types.h **** // DFU Functional Descriptor
 458:/Users/joostbooy/Desktop/Code/stm32/lib/tinyusb/src/common/tusb_types.h **** typedef struct TU_ATTR_PACKED
 459:/Users/joostbooy/Desktop/Code/stm32/lib/tinyusb/src/common/tusb_types.h **** {
 460:/Users/joostbooy/Desktop/Code/stm32/lib/tinyusb/src/common/tusb_types.h ****   uint8_t  bLength;
 461:/Users/joostbooy/Desktop/Code/stm32/lib/tinyusb/src/common/tusb_types.h ****   uint8_t  bDescriptorType;
 462:/Users/joostbooy/Desktop/Code/stm32/lib/tinyusb/src/common/tusb_types.h **** 
 463:/Users/joostbooy/Desktop/Code/stm32/lib/tinyusb/src/common/tusb_types.h ****   union {
 464:/Users/joostbooy/Desktop/Code/stm32/lib/tinyusb/src/common/tusb_types.h ****     struct TU_ATTR_PACKED {
 465:/Users/joostbooy/Desktop/Code/stm32/lib/tinyusb/src/common/tusb_types.h ****       uint8_t bitCanDnload             : 1;
 466:/Users/joostbooy/Desktop/Code/stm32/lib/tinyusb/src/common/tusb_types.h ****       uint8_t bitCanUpload             : 1;
ARM GAS  /var/folders/84/_x1cyy_j36g486tldtwl37280000gn/T//ccHWsz3h.s 			page 54


 467:/Users/joostbooy/Desktop/Code/stm32/lib/tinyusb/src/common/tusb_types.h ****       uint8_t bitManifestationTolerant : 1;
 468:/Users/joostbooy/Desktop/Code/stm32/lib/tinyusb/src/common/tusb_types.h ****       uint8_t bitWillDetach            : 1;
 469:/Users/joostbooy/Desktop/Code/stm32/lib/tinyusb/src/common/tusb_types.h ****       uint8_t reserved                 : 4;
 470:/Users/joostbooy/Desktop/Code/stm32/lib/tinyusb/src/common/tusb_types.h ****     } bmAttributes;
 471:/Users/joostbooy/Desktop/Code/stm32/lib/tinyusb/src/common/tusb_types.h **** 
 472:/Users/joostbooy/Desktop/Code/stm32/lib/tinyusb/src/common/tusb_types.h ****     uint8_t bAttributes;
 473:/Users/joostbooy/Desktop/Code/stm32/lib/tinyusb/src/common/tusb_types.h ****   };
 474:/Users/joostbooy/Desktop/Code/stm32/lib/tinyusb/src/common/tusb_types.h **** 
 475:/Users/joostbooy/Desktop/Code/stm32/lib/tinyusb/src/common/tusb_types.h ****   uint16_t wDetachTimeOut;
 476:/Users/joostbooy/Desktop/Code/stm32/lib/tinyusb/src/common/tusb_types.h ****   uint16_t wTransferSize;
 477:/Users/joostbooy/Desktop/Code/stm32/lib/tinyusb/src/common/tusb_types.h ****   uint16_t bcdDFUVersion;
 478:/Users/joostbooy/Desktop/Code/stm32/lib/tinyusb/src/common/tusb_types.h **** } tusb_desc_dfu_functional_t;
 479:/Users/joostbooy/Desktop/Code/stm32/lib/tinyusb/src/common/tusb_types.h **** 
 480:/Users/joostbooy/Desktop/Code/stm32/lib/tinyusb/src/common/tusb_types.h **** //--------------------------------------------------------------------+
 481:/Users/joostbooy/Desktop/Code/stm32/lib/tinyusb/src/common/tusb_types.h **** //
 482:/Users/joostbooy/Desktop/Code/stm32/lib/tinyusb/src/common/tusb_types.h **** //--------------------------------------------------------------------+
 483:/Users/joostbooy/Desktop/Code/stm32/lib/tinyusb/src/common/tusb_types.h **** 
 484:/Users/joostbooy/Desktop/Code/stm32/lib/tinyusb/src/common/tusb_types.h **** typedef struct TU_ATTR_PACKED{
 485:/Users/joostbooy/Desktop/Code/stm32/lib/tinyusb/src/common/tusb_types.h ****   union {
 486:/Users/joostbooy/Desktop/Code/stm32/lib/tinyusb/src/common/tusb_types.h ****     struct TU_ATTR_PACKED {
 487:/Users/joostbooy/Desktop/Code/stm32/lib/tinyusb/src/common/tusb_types.h ****       uint8_t recipient :  5; ///< Recipient type tusb_request_recipient_t.
 488:/Users/joostbooy/Desktop/Code/stm32/lib/tinyusb/src/common/tusb_types.h ****       uint8_t type      :  2; ///< Request type tusb_request_type_t.
 489:/Users/joostbooy/Desktop/Code/stm32/lib/tinyusb/src/common/tusb_types.h ****       uint8_t direction :  1; ///< Direction type. tusb_dir_t
 490:/Users/joostbooy/Desktop/Code/stm32/lib/tinyusb/src/common/tusb_types.h ****     } bmRequestType_bit;
 491:/Users/joostbooy/Desktop/Code/stm32/lib/tinyusb/src/common/tusb_types.h **** 
 492:/Users/joostbooy/Desktop/Code/stm32/lib/tinyusb/src/common/tusb_types.h ****     uint8_t bmRequestType;
 493:/Users/joostbooy/Desktop/Code/stm32/lib/tinyusb/src/common/tusb_types.h ****   };
 494:/Users/joostbooy/Desktop/Code/stm32/lib/tinyusb/src/common/tusb_types.h **** 
 495:/Users/joostbooy/Desktop/Code/stm32/lib/tinyusb/src/common/tusb_types.h ****   uint8_t  bRequest;
 496:/Users/joostbooy/Desktop/Code/stm32/lib/tinyusb/src/common/tusb_types.h ****   uint16_t wValue;
 497:/Users/joostbooy/Desktop/Code/stm32/lib/tinyusb/src/common/tusb_types.h ****   uint16_t wIndex;
 498:/Users/joostbooy/Desktop/Code/stm32/lib/tinyusb/src/common/tusb_types.h ****   uint16_t wLength;
 499:/Users/joostbooy/Desktop/Code/stm32/lib/tinyusb/src/common/tusb_types.h **** } tusb_control_request_t;
 500:/Users/joostbooy/Desktop/Code/stm32/lib/tinyusb/src/common/tusb_types.h **** 
 501:/Users/joostbooy/Desktop/Code/stm32/lib/tinyusb/src/common/tusb_types.h **** TU_VERIFY_STATIC( sizeof(tusb_control_request_t) == 8, "size is not correct");
 502:/Users/joostbooy/Desktop/Code/stm32/lib/tinyusb/src/common/tusb_types.h **** 
 503:/Users/joostbooy/Desktop/Code/stm32/lib/tinyusb/src/common/tusb_types.h **** 
 504:/Users/joostbooy/Desktop/Code/stm32/lib/tinyusb/src/common/tusb_types.h **** TU_ATTR_PACKED_END  // End of all packed definitions
 505:/Users/joostbooy/Desktop/Code/stm32/lib/tinyusb/src/common/tusb_types.h **** TU_ATTR_BIT_FIELD_ORDER_END
 506:/Users/joostbooy/Desktop/Code/stm32/lib/tinyusb/src/common/tusb_types.h **** 
 507:/Users/joostbooy/Desktop/Code/stm32/lib/tinyusb/src/common/tusb_types.h **** //--------------------------------------------------------------------+
 508:/Users/joostbooy/Desktop/Code/stm32/lib/tinyusb/src/common/tusb_types.h **** // Endpoint helper
 509:/Users/joostbooy/Desktop/Code/stm32/lib/tinyusb/src/common/tusb_types.h **** //--------------------------------------------------------------------+
 510:/Users/joostbooy/Desktop/Code/stm32/lib/tinyusb/src/common/tusb_types.h **** 
 511:/Users/joostbooy/Desktop/Code/stm32/lib/tinyusb/src/common/tusb_types.h **** // Get direction from Endpoint address
 512:/Users/joostbooy/Desktop/Code/stm32/lib/tinyusb/src/common/tusb_types.h **** TU_ATTR_ALWAYS_INLINE static inline tusb_dir_t tu_edpt_dir(uint8_t addr)
 513:/Users/joostbooy/Desktop/Code/stm32/lib/tinyusb/src/common/tusb_types.h **** {
 514:/Users/joostbooy/Desktop/Code/stm32/lib/tinyusb/src/common/tusb_types.h ****   return (addr & TUSB_DIR_IN_MASK) ? TUSB_DIR_IN : TUSB_DIR_OUT;
 515:/Users/joostbooy/Desktop/Code/stm32/lib/tinyusb/src/common/tusb_types.h **** }
 516:/Users/joostbooy/Desktop/Code/stm32/lib/tinyusb/src/common/tusb_types.h **** 
 517:/Users/joostbooy/Desktop/Code/stm32/lib/tinyusb/src/common/tusb_types.h **** // Get Endpoint number from address
 518:/Users/joostbooy/Desktop/Code/stm32/lib/tinyusb/src/common/tusb_types.h **** TU_ATTR_ALWAYS_INLINE static inline uint8_t tu_edpt_number(uint8_t addr)
 519:/Users/joostbooy/Desktop/Code/stm32/lib/tinyusb/src/common/tusb_types.h **** {
 520:/Users/joostbooy/Desktop/Code/stm32/lib/tinyusb/src/common/tusb_types.h ****   return (uint8_t)(addr & (~TUSB_DIR_IN_MASK));
 521:/Users/joostbooy/Desktop/Code/stm32/lib/tinyusb/src/common/tusb_types.h **** }
 522:/Users/joostbooy/Desktop/Code/stm32/lib/tinyusb/src/common/tusb_types.h **** 
 523:/Users/joostbooy/Desktop/Code/stm32/lib/tinyusb/src/common/tusb_types.h **** TU_ATTR_ALWAYS_INLINE static inline uint8_t tu_edpt_addr(uint8_t num, uint8_t dir)
ARM GAS  /var/folders/84/_x1cyy_j36g486tldtwl37280000gn/T//ccHWsz3h.s 			page 55


 524:/Users/joostbooy/Desktop/Code/stm32/lib/tinyusb/src/common/tusb_types.h **** {
 525:/Users/joostbooy/Desktop/Code/stm32/lib/tinyusb/src/common/tusb_types.h ****   return (uint8_t)(num | (dir ? TUSB_DIR_IN_MASK : 0));
 526:/Users/joostbooy/Desktop/Code/stm32/lib/tinyusb/src/common/tusb_types.h **** }
 527:/Users/joostbooy/Desktop/Code/stm32/lib/tinyusb/src/common/tusb_types.h **** 
 528:/Users/joostbooy/Desktop/Code/stm32/lib/tinyusb/src/common/tusb_types.h **** TU_ATTR_ALWAYS_INLINE static inline uint16_t tu_edpt_packet_size(tusb_desc_endpoint_t const* desc_e
 529:/Users/joostbooy/Desktop/Code/stm32/lib/tinyusb/src/common/tusb_types.h **** {
 530:/Users/joostbooy/Desktop/Code/stm32/lib/tinyusb/src/common/tusb_types.h ****   return tu_le16toh(desc_ep->wMaxPacketSize) & TU_GENMASK(10, 0);
 531:/Users/joostbooy/Desktop/Code/stm32/lib/tinyusb/src/common/tusb_types.h **** }
 532:/Users/joostbooy/Desktop/Code/stm32/lib/tinyusb/src/common/tusb_types.h **** 
 533:/Users/joostbooy/Desktop/Code/stm32/lib/tinyusb/src/common/tusb_types.h **** #if CFG_TUSB_DEBUG
 534:/Users/joostbooy/Desktop/Code/stm32/lib/tinyusb/src/common/tusb_types.h **** TU_ATTR_ALWAYS_INLINE static inline const char *tu_edpt_dir_str(tusb_dir_t dir)
 535:/Users/joostbooy/Desktop/Code/stm32/lib/tinyusb/src/common/tusb_types.h **** {
 536:/Users/joostbooy/Desktop/Code/stm32/lib/tinyusb/src/common/tusb_types.h ****   tu_static const char *str[] = {"out", "in"};
 537:/Users/joostbooy/Desktop/Code/stm32/lib/tinyusb/src/common/tusb_types.h ****   return str[dir];
 538:/Users/joostbooy/Desktop/Code/stm32/lib/tinyusb/src/common/tusb_types.h **** }
 539:/Users/joostbooy/Desktop/Code/stm32/lib/tinyusb/src/common/tusb_types.h **** 
 540:/Users/joostbooy/Desktop/Code/stm32/lib/tinyusb/src/common/tusb_types.h **** TU_ATTR_ALWAYS_INLINE static inline const char *tu_edpt_type_str(tusb_xfer_type_t t)
 541:/Users/joostbooy/Desktop/Code/stm32/lib/tinyusb/src/common/tusb_types.h **** {
 542:/Users/joostbooy/Desktop/Code/stm32/lib/tinyusb/src/common/tusb_types.h ****   tu_static const char *str[] = {"control", "isochronous", "bulk", "interrupt"};
 543:/Users/joostbooy/Desktop/Code/stm32/lib/tinyusb/src/common/tusb_types.h ****   return str[t];
 544:/Users/joostbooy/Desktop/Code/stm32/lib/tinyusb/src/common/tusb_types.h **** }
 545:/Users/joostbooy/Desktop/Code/stm32/lib/tinyusb/src/common/tusb_types.h **** #endif
 546:/Users/joostbooy/Desktop/Code/stm32/lib/tinyusb/src/common/tusb_types.h **** 
 547:/Users/joostbooy/Desktop/Code/stm32/lib/tinyusb/src/common/tusb_types.h **** //--------------------------------------------------------------------+
 548:/Users/joostbooy/Desktop/Code/stm32/lib/tinyusb/src/common/tusb_types.h **** // Descriptor helper
 549:/Users/joostbooy/Desktop/Code/stm32/lib/tinyusb/src/common/tusb_types.h **** //--------------------------------------------------------------------+
 550:/Users/joostbooy/Desktop/Code/stm32/lib/tinyusb/src/common/tusb_types.h **** 
 551:/Users/joostbooy/Desktop/Code/stm32/lib/tinyusb/src/common/tusb_types.h **** // return next descriptor
 552:/Users/joostbooy/Desktop/Code/stm32/lib/tinyusb/src/common/tusb_types.h **** TU_ATTR_ALWAYS_INLINE static inline uint8_t const * tu_desc_next(void const* desc)
 553:/Users/joostbooy/Desktop/Code/stm32/lib/tinyusb/src/common/tusb_types.h **** {
 554:/Users/joostbooy/Desktop/Code/stm32/lib/tinyusb/src/common/tusb_types.h ****   uint8_t const* desc8 = (uint8_t const*) desc;
 555:/Users/joostbooy/Desktop/Code/stm32/lib/tinyusb/src/common/tusb_types.h ****   return desc8 + desc8[DESC_OFFSET_LEN];
 556:/Users/joostbooy/Desktop/Code/stm32/lib/tinyusb/src/common/tusb_types.h **** }
 557:/Users/joostbooy/Desktop/Code/stm32/lib/tinyusb/src/common/tusb_types.h **** 
 558:/Users/joostbooy/Desktop/Code/stm32/lib/tinyusb/src/common/tusb_types.h **** // get descriptor type
 559:/Users/joostbooy/Desktop/Code/stm32/lib/tinyusb/src/common/tusb_types.h **** TU_ATTR_ALWAYS_INLINE static inline uint8_t tu_desc_type(void const* desc)
 560:/Users/joostbooy/Desktop/Code/stm32/lib/tinyusb/src/common/tusb_types.h **** {
 561:/Users/joostbooy/Desktop/Code/stm32/lib/tinyusb/src/common/tusb_types.h ****   return ((uint8_t const*) desc)[DESC_OFFSET_TYPE];
 562:/Users/joostbooy/Desktop/Code/stm32/lib/tinyusb/src/common/tusb_types.h **** }
 563:/Users/joostbooy/Desktop/Code/stm32/lib/tinyusb/src/common/tusb_types.h **** 
 564:/Users/joostbooy/Desktop/Code/stm32/lib/tinyusb/src/common/tusb_types.h **** // get descriptor length
 565:/Users/joostbooy/Desktop/Code/stm32/lib/tinyusb/src/common/tusb_types.h **** TU_ATTR_ALWAYS_INLINE static inline uint8_t tu_desc_len(void const* desc)
 1566              		.loc 3 565 45 view .LVU454
 1567              	.LBB112:
 566:/Users/joostbooy/Desktop/Code/stm32/lib/tinyusb/src/common/tusb_types.h **** {
 567:/Users/joostbooy/Desktop/Code/stm32/lib/tinyusb/src/common/tusb_types.h ****   return ((uint8_t const*) desc)[DESC_OFFSET_LEN];
 1568              		.loc 3 567 3 view .LVU455
 1569              		.loc 3 567 33 is_stmt 0 view .LVU456
 1570 0024 0878     		ldrb	r0, [r1]	@ zero_extendqisi2
 1571              	.LVL122:
 1572              		.loc 3 567 33 view .LVU457
 1573              	.LBE112:
 1574              	.LBE111:
 1575              	.LBB113:
 1576              	.LBB114:
 555:/Users/joostbooy/Desktop/Code/stm32/lib/tinyusb/src/common/tusb_types.h **** }
 1577              		.loc 3 555 16 view .LVU458
ARM GAS  /var/folders/84/_x1cyy_j36g486tldtwl37280000gn/T//ccHWsz3h.s 			page 56


 1578 0026 0C18     		adds	r4, r1, r0
 1579              	.LBE114:
 1580              	.LBE113:
 415:/Users/joostbooy/Desktop/Code/stm32/lib/tinyusb/src/class/midi/midi_device.c ****   uint8_t const * p_desc = tu_desc_next(desc_itf);
 1581              		.loc 1 415 12 view .LVU459
 1582 0028 81B2     		uxth	r1, r0
 1583              	.LVL123:
 416:/Users/joostbooy/Desktop/Code/stm32/lib/tinyusb/src/class/midi/midi_device.c **** 
 1584              		.loc 1 416 3 is_stmt 1 view .LVU460
 1585              	.LBB116:
 1586              	.LBI113:
 552:/Users/joostbooy/Desktop/Code/stm32/lib/tinyusb/src/common/tusb_types.h **** {
 1587              		.loc 3 552 53 view .LVU461
 1588              	.LBB115:
 554:/Users/joostbooy/Desktop/Code/stm32/lib/tinyusb/src/common/tusb_types.h ****   return desc8 + desc8[DESC_OFFSET_LEN];
 1589              		.loc 3 554 3 view .LVU462
 555:/Users/joostbooy/Desktop/Code/stm32/lib/tinyusb/src/common/tusb_types.h **** }
 1590              		.loc 3 555 3 view .LVU463
 555:/Users/joostbooy/Desktop/Code/stm32/lib/tinyusb/src/common/tusb_types.h **** }
 1591              		.loc 3 555 3 is_stmt 0 view .LVU464
 1592              	.LBE115:
 1593              	.LBE116:
 419:/Users/joostbooy/Desktop/Code/stm32/lib/tinyusb/src/class/midi/midi_device.c ****   {
 1594              		.loc 1 419 3 is_stmt 1 view .LVU465
 419:/Users/joostbooy/Desktop/Code/stm32/lib/tinyusb/src/class/midi/midi_device.c ****   {
 1595              		.loc 1 419 9 view .LVU466
 1596              	.LBB117:
 1597              	.LBI117:
 559:/Users/joostbooy/Desktop/Code/stm32/lib/tinyusb/src/common/tusb_types.h **** {
 1598              		.loc 3 559 45 view .LVU467
 1599              	.LBB118:
 561:/Users/joostbooy/Desktop/Code/stm32/lib/tinyusb/src/common/tusb_types.h **** }
 1600              		.loc 3 561 3 view .LVU468
 561:/Users/joostbooy/Desktop/Code/stm32/lib/tinyusb/src/common/tusb_types.h **** }
 1601              		.loc 3 561 33 is_stmt 0 view .LVU469
 1602 002a 6378     		ldrb	r3, [r4, #1]	@ zero_extendqisi2
 1603              	.LVL124:
 561:/Users/joostbooy/Desktop/Code/stm32/lib/tinyusb/src/common/tusb_types.h **** }
 1604              		.loc 3 561 33 view .LVU470
 1605              	.LBE118:
 1606              	.LBE117:
 419:/Users/joostbooy/Desktop/Code/stm32/lib/tinyusb/src/class/midi/midi_device.c ****   {
 1607              		.loc 1 419 9 view .LVU471
 1608 002c 242B     		cmp	r3, #36
 1609 002e 0BD1     		bne	.L134
 419:/Users/joostbooy/Desktop/Code/stm32/lib/tinyusb/src/class/midi/midi_device.c ****   {
 1610              		.loc 1 419 58 view .LVU472
 1611 0030 9142     		cmp	r1, r2
 1612 0032 02D9     		bls	.L135
 1613 0034 EDE7     		b	.L133
 1614              	.L159:
 419:/Users/joostbooy/Desktop/Code/stm32/lib/tinyusb/src/class/midi/midi_device.c ****   {
 1615              		.loc 1 419 58 discriminator 1 view .LVU473
 1616 0036 8A42     		cmp	r2, r1
 1617 0038 EBD3     		bcc	.L133
 1618              	.L135:
 421:/Users/joostbooy/Desktop/Code/stm32/lib/tinyusb/src/class/midi/midi_device.c ****     p_desc   = tu_desc_next(p_desc);
ARM GAS  /var/folders/84/_x1cyy_j36g486tldtwl37280000gn/T//ccHWsz3h.s 			page 57


 1619              		.loc 1 421 5 is_stmt 1 view .LVU474
 1620              	.LVL125:
 1621              	.LBB121:
 1622              	.LBI121:
 565:/Users/joostbooy/Desktop/Code/stm32/lib/tinyusb/src/common/tusb_types.h **** {
 1623              		.loc 3 565 45 view .LVU475
 1624              	.LBB122:
 1625              		.loc 3 567 3 view .LVU476
 1626              		.loc 3 567 33 is_stmt 0 view .LVU477
 1627 003a 2778     		ldrb	r7, [r4]	@ zero_extendqisi2
 1628              	.LVL126:
 1629              		.loc 3 567 33 view .LVU478
 1630              	.LBE122:
 1631              	.LBE121:
 1632              	.LBB123:
 1633              	.LBB124:
 555:/Users/joostbooy/Desktop/Code/stm32/lib/tinyusb/src/common/tusb_types.h **** }
 1634              		.loc 3 555 16 view .LVU479
 1635 003c 3C44     		add	r4, r4, r7
 1636              	.LVL127:
