ARM GAS  /var/folders/84/_x1cyy_j36g486tldtwl37280000gn/T//cctc5fkA.s 			page 1


   1              		.cpu cortex-m4
   2              		.eabi_attribute 27, 1
   3              		.eabi_attribute 28, 1
   4              		.eabi_attribute 20, 1
   5              		.eabi_attribute 21, 1
   6              		.eabi_attribute 23, 3
   7              		.eabi_attribute 24, 1
   8              		.eabi_attribute 25, 1
   9              		.eabi_attribute 26, 1
  10              		.eabi_attribute 30, 2
  11              		.eabi_attribute 34, 1
  12              		.eabi_attribute 18, 4
  13              		.file	"song.cpp"
  14              		.text
  15              	.Ltext0:
  16              		.cfi_sections	.debug_frame
  17              		.section	.text._ZN4Song10clear_listEPNS_4ListE,"ax",%progbits
  18              		.align	1
  19              		.p2align 2,,3
  20              		.global	_ZN4Song10clear_listEPNS_4ListE
  21              		.arch armv7e-m
  22              		.syntax unified
  23              		.thumb
  24              		.thumb_func
  25              		.fpu fpv4-sp-d16
  27              	_ZN4Song10clear_listEPNS_4ListE:
  28              	.LVL0:
  29              	.LFB2521:
  30              		.file 1 "Src/Settings/song.cpp"
   1:Src/Settings/song.cpp **** #include "song.h"
   2:Src/Settings/song.cpp **** #include "fileWriter.h"
   3:Src/Settings/song.cpp **** #include "fileReader.h"
   4:Src/Settings/song.cpp **** 
   5:Src/Settings/song.cpp **** void Song::clear_list(List* list) {
  31              		.loc 1 5 35 view -0
  32              		.cfi_startproc
  33              		@ args = 0, pretend = 0, frame = 0
  34              		@ frame_needed = 0, uses_anonymous_args = 0
  35              		@ link register save eliminated.
   6:Src/Settings/song.cpp **** 	list->size_ = 0;
  36              		.loc 1 6 2 view .LVU1
  37              		.loc 1 6 14 is_stmt 0 view .LVU2
  38 0000 0023     		movs	r3, #0
  39 0002 0B70     		strb	r3, [r1]
   7:Src/Settings/song.cpp **** }
  40              		.loc 1 7 1 view .LVU3
  41 0004 7047     		bx	lr
  42              		.cfi_endproc
  43              	.LFE2521:
  45 0006 00BF     		.section	.text._ZN4Song11add_to_listEPNS_4ListEh,"ax",%progbits
  46              		.align	1
  47              		.p2align 2,,3
  48              		.global	_ZN4Song11add_to_listEPNS_4ListEh
  49              		.syntax unified
  50              		.thumb
  51              		.thumb_func
  52              		.fpu fpv4-sp-d16
ARM GAS  /var/folders/84/_x1cyy_j36g486tldtwl37280000gn/T//cctc5fkA.s 			page 2


  54              	_ZN4Song11add_to_listEPNS_4ListEh:
  55              	.LVL1:
  56              	.LFB2522:
   8:Src/Settings/song.cpp **** 
   9:Src/Settings/song.cpp **** void Song::add_to_list(List* list, uint8_t track_index) {
  57              		.loc 1 9 57 is_stmt 1 view -0
  58              		.cfi_startproc
  59              		@ args = 0, pretend = 0, frame = 32
  60              		@ frame_needed = 0, uses_anonymous_args = 0
  10:Src/Settings/song.cpp **** 	int index = list->size_;
  61              		.loc 1 10 2 view .LVU5
   9:Src/Settings/song.cpp **** 	int index = list->size_;
  62              		.loc 1 9 57 is_stmt 0 view .LVU6
  63 0000 2DE9F04F 		push	{r4, r5, r6, r7, r8, r9, r10, fp, lr}
  64              		.cfi_def_cfa_offset 36
  65              		.cfi_offset 4, -36
  66              		.cfi_offset 5, -32
  67              		.cfi_offset 6, -28
  68              		.cfi_offset 7, -24
  69              		.cfi_offset 8, -20
  70              		.cfi_offset 9, -16
  71              		.cfi_offset 10, -12
  72              		.cfi_offset 11, -8
  73              		.cfi_offset 14, -4
  74              		.loc 1 10 20 view .LVU7
  75 0004 0E78     		ldrb	r6, [r1]	@ zero_extendqisi2
  76              	.LVL2:
  11:Src/Settings/song.cpp **** 	while (index > 0 && list->entry_[index - 1] >= track_index) {
  77              		.loc 1 11 2 is_stmt 1 view .LVU8
  78              		.loc 1 11 19 view .LVU9
   9:Src/Settings/song.cpp **** 	int index = list->size_;
  79              		.loc 1 9 57 is_stmt 0 view .LVU10
  80 0006 89B0     		sub	sp, sp, #36
  81              		.cfi_def_cfa_offset 72
   9:Src/Settings/song.cpp **** 	int index = list->size_;
  82              		.loc 1 9 57 view .LVU11
  83 0008 8A46     		mov	r10, r1
  84 000a 9346     		mov	fp, r2
  85 000c 4FF00108 		mov	r8, #1
  86              		.loc 1 11 19 view .LVU12
  87 0010 002E     		cmp	r6, #0
  88 0012 00F0AF80 		beq	.L4
  89 0016 06F10108 		add	r8, r6, #1
  90 001a 16F00703 		ands	r3, r6, #7
  91 001e 01EB0809 		add	r9, r1, r8
  92 0022 06F1FF32 		add	r2, r6, #-1
  93              	.LVL3:
  94              		.loc 1 11 19 view .LVU13
  95 0026 46D0     		beq	.L49
  96 0028 012B     		cmp	r3, #1
  97 002a 39D0     		beq	.L31
  98 002c 022B     		cmp	r3, #2
  99 002e 2ED0     		beq	.L32
 100 0030 032B     		cmp	r3, #3
 101 0032 23D0     		beq	.L33
 102 0034 042B     		cmp	r3, #4
 103 0036 18D0     		beq	.L34
ARM GAS  /var/folders/84/_x1cyy_j36g486tldtwl37280000gn/T//cctc5fkA.s 			page 3


 104 0038 052B     		cmp	r3, #5
 105 003a 0CD0     		beq	.L35
 106 003c 062B     		cmp	r3, #6
 107 003e 40F0A780 		bne	.L57
 108              	.LVL4:
 109              	.L36:
 110              		.loc 1 11 44 view .LVU14
 111 0042 19F8011D 		ldrb	r1, [r9, #-1]!	@ zero_extendqisi2
 112              	.LVL5:
 113              		.loc 1 11 19 view .LVU15
 114 0046 5945     		cmp	r1, fp
 115 0048 B446     		mov	ip, r6
 116              	.LVL6:
 117              		.loc 1 11 41 view .LVU16
 118 004a 06F1FF36 		add	r6, r6, #-1
 119              	.LVL7:
 120              		.loc 1 11 19 view .LVU17
 121 004e C0F09380 		bcc	.L5
  12:Src/Settings/song.cpp **** 		list->entry_[index] = list->entry_[index - 1];
 122              		.loc 1 12 3 is_stmt 1 view .LVU18
 123              		.loc 1 12 23 is_stmt 0 view .LVU19
 124 0052 89F80110 		strb	r1, [r9, #1]
  13:Src/Settings/song.cpp **** 		--index;
 125              		.loc 1 13 3 is_stmt 1 view .LVU20
  11:Src/Settings/song.cpp **** 	while (index > 0 && list->entry_[index - 1] >= track_index) {
 126              		.loc 1 11 2 view .LVU21
  11:Src/Settings/song.cpp **** 	while (index > 0 && list->entry_[index - 1] >= track_index) {
 127              		.loc 1 11 19 view .LVU22
 128              	.LVL8:
 129              	.L35:
  11:Src/Settings/song.cpp **** 	while (index > 0 && list->entry_[index - 1] >= track_index) {
 130              		.loc 1 11 44 is_stmt 0 view .LVU23
 131 0056 19F8014D 		ldrb	r4, [r9, #-1]!	@ zero_extendqisi2
  11:Src/Settings/song.cpp **** 	while (index > 0 && list->entry_[index - 1] >= track_index) {
 132              		.loc 1 11 19 view .LVU24
 133 005a 5C45     		cmp	r4, fp
 134 005c B446     		mov	ip, r6
 135              	.LVL9:
  11:Src/Settings/song.cpp **** 	while (index > 0 && list->entry_[index - 1] >= track_index) {
 136              		.loc 1 11 41 view .LVU25
 137 005e 06F1FF36 		add	r6, r6, #-1
 138              	.LVL10:
  11:Src/Settings/song.cpp **** 	while (index > 0 && list->entry_[index - 1] >= track_index) {
 139              		.loc 1 11 19 view .LVU26
 140 0062 C0F08980 		bcc	.L5
  12:Src/Settings/song.cpp **** 		list->entry_[index] = list->entry_[index - 1];
 141              		.loc 1 12 3 is_stmt 1 view .LVU27
  12:Src/Settings/song.cpp **** 		list->entry_[index] = list->entry_[index - 1];
 142              		.loc 1 12 23 is_stmt 0 view .LVU28
 143 0066 89F80140 		strb	r4, [r9, #1]
 144              		.loc 1 13 3 is_stmt 1 view .LVU29
  11:Src/Settings/song.cpp **** 	while (index > 0 && list->entry_[index - 1] >= track_index) {
 145              		.loc 1 11 2 view .LVU30
  11:Src/Settings/song.cpp **** 	while (index > 0 && list->entry_[index - 1] >= track_index) {
 146              		.loc 1 11 19 view .LVU31
 147              	.LVL11:
 148              	.L34:
ARM GAS  /var/folders/84/_x1cyy_j36g486tldtwl37280000gn/T//cctc5fkA.s 			page 4


  11:Src/Settings/song.cpp **** 	while (index > 0 && list->entry_[index - 1] >= track_index) {
 149              		.loc 1 11 44 is_stmt 0 view .LVU32
 150 006a 19F8015D 		ldrb	r5, [r9, #-1]!	@ zero_extendqisi2
  11:Src/Settings/song.cpp **** 	while (index > 0 && list->entry_[index - 1] >= track_index) {
 151              		.loc 1 11 19 view .LVU33
 152 006e 5D45     		cmp	r5, fp
 153 0070 B446     		mov	ip, r6
 154              	.LVL12:
  11:Src/Settings/song.cpp **** 	while (index > 0 && list->entry_[index - 1] >= track_index) {
 155              		.loc 1 11 41 view .LVU34
 156 0072 06F1FF36 		add	r6, r6, #-1
 157              	.LVL13:
  11:Src/Settings/song.cpp **** 	while (index > 0 && list->entry_[index - 1] >= track_index) {
 158              		.loc 1 11 19 view .LVU35
 159 0076 7FD3     		bcc	.L5
  12:Src/Settings/song.cpp **** 		list->entry_[index] = list->entry_[index - 1];
 160              		.loc 1 12 3 is_stmt 1 view .LVU36
  12:Src/Settings/song.cpp **** 		list->entry_[index] = list->entry_[index - 1];
 161              		.loc 1 12 23 is_stmt 0 view .LVU37
 162 0078 89F80150 		strb	r5, [r9, #1]
 163              		.loc 1 13 3 is_stmt 1 view .LVU38
  11:Src/Settings/song.cpp **** 	while (index > 0 && list->entry_[index - 1] >= track_index) {
 164              		.loc 1 11 2 view .LVU39
  11:Src/Settings/song.cpp **** 	while (index > 0 && list->entry_[index - 1] >= track_index) {
 165              		.loc 1 11 19 view .LVU40
 166              	.LVL14:
 167              	.L33:
  11:Src/Settings/song.cpp **** 	while (index > 0 && list->entry_[index - 1] >= track_index) {
 168              		.loc 1 11 44 is_stmt 0 view .LVU41
 169 007c 19F8017D 		ldrb	r7, [r9, #-1]!	@ zero_extendqisi2
  11:Src/Settings/song.cpp **** 	while (index > 0 && list->entry_[index - 1] >= track_index) {
 170              		.loc 1 11 19 view .LVU42
 171 0080 5F45     		cmp	r7, fp
 172 0082 B446     		mov	ip, r6
 173              	.LVL15:
  11:Src/Settings/song.cpp **** 	while (index > 0 && list->entry_[index - 1] >= track_index) {
 174              		.loc 1 11 41 view .LVU43
 175 0084 06F1FF36 		add	r6, r6, #-1
 176              	.LVL16:
  11:Src/Settings/song.cpp **** 	while (index > 0 && list->entry_[index - 1] >= track_index) {
 177              		.loc 1 11 19 view .LVU44
 178 0088 76D3     		bcc	.L5
  12:Src/Settings/song.cpp **** 		list->entry_[index] = list->entry_[index - 1];
 179              		.loc 1 12 3 is_stmt 1 view .LVU45
  12:Src/Settings/song.cpp **** 		list->entry_[index] = list->entry_[index - 1];
 180              		.loc 1 12 23 is_stmt 0 view .LVU46
 181 008a 89F80170 		strb	r7, [r9, #1]
 182              		.loc 1 13 3 is_stmt 1 view .LVU47
  11:Src/Settings/song.cpp **** 	while (index > 0 && list->entry_[index - 1] >= track_index) {
 183              		.loc 1 11 2 view .LVU48
  11:Src/Settings/song.cpp **** 	while (index > 0 && list->entry_[index - 1] >= track_index) {
 184              		.loc 1 11 19 view .LVU49
 185              	.LVL17:
 186              	.L32:
  11:Src/Settings/song.cpp **** 	while (index > 0 && list->entry_[index - 1] >= track_index) {
 187              		.loc 1 11 44 is_stmt 0 view .LVU50
 188 008e 19F8012D 		ldrb	r2, [r9, #-1]!	@ zero_extendqisi2
ARM GAS  /var/folders/84/_x1cyy_j36g486tldtwl37280000gn/T//cctc5fkA.s 			page 5


  11:Src/Settings/song.cpp **** 	while (index > 0 && list->entry_[index - 1] >= track_index) {
 189              		.loc 1 11 19 view .LVU51
 190 0092 5A45     		cmp	r2, fp
 191 0094 B446     		mov	ip, r6
 192              	.LVL18:
  11:Src/Settings/song.cpp **** 	while (index > 0 && list->entry_[index - 1] >= track_index) {
 193              		.loc 1 11 41 view .LVU52
 194 0096 06F1FF36 		add	r6, r6, #-1
 195              	.LVL19:
  11:Src/Settings/song.cpp **** 	while (index > 0 && list->entry_[index - 1] >= track_index) {
 196              		.loc 1 11 19 view .LVU53
 197 009a 6DD3     		bcc	.L5
  12:Src/Settings/song.cpp **** 		list->entry_[index] = list->entry_[index - 1];
 198              		.loc 1 12 3 is_stmt 1 view .LVU54
  12:Src/Settings/song.cpp **** 		list->entry_[index] = list->entry_[index - 1];
 199              		.loc 1 12 23 is_stmt 0 view .LVU55
 200 009c 89F80120 		strb	r2, [r9, #1]
 201              		.loc 1 13 3 is_stmt 1 view .LVU56
  11:Src/Settings/song.cpp **** 	while (index > 0 && list->entry_[index - 1] >= track_index) {
 202              		.loc 1 11 2 view .LVU57
  11:Src/Settings/song.cpp **** 	while (index > 0 && list->entry_[index - 1] >= track_index) {
 203              		.loc 1 11 19 view .LVU58
 204              	.LVL20:
 205              	.L31:
  11:Src/Settings/song.cpp **** 	while (index > 0 && list->entry_[index - 1] >= track_index) {
 206              		.loc 1 11 44 is_stmt 0 view .LVU59
 207 00a0 19F8013D 		ldrb	r3, [r9, #-1]!	@ zero_extendqisi2
  11:Src/Settings/song.cpp **** 	while (index > 0 && list->entry_[index - 1] >= track_index) {
 208              		.loc 1 11 19 view .LVU60
 209 00a4 5B45     		cmp	r3, fp
 210 00a6 B446     		mov	ip, r6
 211              	.LVL21:
  11:Src/Settings/song.cpp **** 	while (index > 0 && list->entry_[index - 1] >= track_index) {
 212              		.loc 1 11 41 view .LVU61
 213 00a8 06F1FF36 		add	r6, r6, #-1
 214              	.LVL22:
  11:Src/Settings/song.cpp **** 	while (index > 0 && list->entry_[index - 1] >= track_index) {
 215              		.loc 1 11 19 view .LVU62
 216 00ac 64D3     		bcc	.L5
  12:Src/Settings/song.cpp **** 		list->entry_[index] = list->entry_[index - 1];
 217              		.loc 1 12 3 is_stmt 1 view .LVU63
  12:Src/Settings/song.cpp **** 		list->entry_[index] = list->entry_[index - 1];
 218              		.loc 1 12 23 is_stmt 0 view .LVU64
 219 00ae 89F80130 		strb	r3, [r9, #1]
 220              		.loc 1 13 3 is_stmt 1 view .LVU65
  11:Src/Settings/song.cpp **** 	while (index > 0 && list->entry_[index - 1] >= track_index) {
 221              		.loc 1 11 2 view .LVU66
  11:Src/Settings/song.cpp **** 	while (index > 0 && list->entry_[index - 1] >= track_index) {
 222              		.loc 1 11 19 view .LVU67
 223 00b2 002E     		cmp	r6, #0
 224 00b4 5ED0     		beq	.L4
 225              	.LVL23:
 226              	.L49:
  11:Src/Settings/song.cpp **** 	while (index > 0 && list->entry_[index - 1] >= track_index) {
 227              		.loc 1 11 19 is_stmt 0 view .LVU68
 228 00b6 CDE906A8 		strd	r10, r8, [sp, #24]
 229              	.LVL24:
ARM GAS  /var/folders/84/_x1cyy_j36g486tldtwl37280000gn/T//cctc5fkA.s 			page 6


 230              	.L6:
  12:Src/Settings/song.cpp **** 		list->entry_[index] = list->entry_[index - 1];
 231              		.loc 1 12 3 is_stmt 1 discriminator 1 view .LVU69
  12:Src/Settings/song.cpp **** 		list->entry_[index] = list->entry_[index - 1];
 232              		.loc 1 12 3 discriminator 1 view .LVU70
  12:Src/Settings/song.cpp **** 		list->entry_[index] = list->entry_[index - 1];
 233              		.loc 1 12 3 discriminator 1 view .LVU71
  12:Src/Settings/song.cpp **** 		list->entry_[index] = list->entry_[index - 1];
 234              		.loc 1 12 3 discriminator 1 view .LVU72
  12:Src/Settings/song.cpp **** 		list->entry_[index] = list->entry_[index - 1];
 235              		.loc 1 12 3 discriminator 1 view .LVU73
  12:Src/Settings/song.cpp **** 		list->entry_[index] = list->entry_[index - 1];
 236              		.loc 1 12 3 discriminator 1 view .LVU74
  12:Src/Settings/song.cpp **** 		list->entry_[index] = list->entry_[index - 1];
 237              		.loc 1 12 3 discriminator 1 view .LVU75
  12:Src/Settings/song.cpp **** 		list->entry_[index] = list->entry_[index - 1];
 238              		.loc 1 12 3 discriminator 1 view .LVU76
  11:Src/Settings/song.cpp **** 	while (index > 0 && list->entry_[index - 1] >= track_index) {
 239              		.loc 1 11 41 is_stmt 0 discriminator 1 view .LVU77
 240 00ba 701F     		subs	r0, r6, #5
 241 00bc 0090     		str	r0, [sp]
 242 00be A9F10500 		sub	r0, r9, #5
 243 00c2 0190     		str	r0, [sp, #4]
 244 00c4 B01F     		subs	r0, r6, #6
  11:Src/Settings/song.cpp **** 	while (index > 0 && list->entry_[index - 1] >= track_index) {
 245              		.loc 1 11 44 discriminator 1 view .LVU78
 246 00c6 19F8011C 		ldrb	r1, [r9, #-1]	@ zero_extendqisi2
  11:Src/Settings/song.cpp **** 	while (index > 0 && list->entry_[index - 1] >= track_index) {
 247              		.loc 1 11 41 discriminator 1 view .LVU79
 248 00ca 0290     		str	r0, [sp, #8]
 249 00cc A9F10600 		sub	r0, r9, #6
 250 00d0 0390     		str	r0, [sp, #12]
 251 00d2 F01F     		subs	r0, r6, #7
 252 00d4 0490     		str	r0, [sp, #16]
  11:Src/Settings/song.cpp **** 	while (index > 0 && list->entry_[index - 1] >= track_index) {
 253              		.loc 1 11 19 discriminator 1 view .LVU80
 254 00d6 5945     		cmp	r1, fp
 255 00d8 A9F10700 		sub	r0, r9, #7
 256 00dc B446     		mov	ip, r6
  11:Src/Settings/song.cpp **** 	while (index > 0 && list->entry_[index - 1] >= track_index) {
 257              		.loc 1 11 41 discriminator 1 view .LVU81
 258 00de 06F1FF32 		add	r2, r6, #-1
 259 00e2 A6F10204 		sub	r4, r6, #2
 260 00e6 A6F10308 		sub	r8, r6, #3
 261 00ea A6F1040A 		sub	r10, r6, #4
 262 00ee 09F1FF33 		add	r3, r9, #-1
 263 00f2 A9F10205 		sub	r5, r9, #2
 264 00f6 A9F10307 		sub	r7, r9, #3
 265 00fa A9F1040E 		sub	lr, r9, #4
 266 00fe 0590     		str	r0, [sp, #20]
 267 0100 A6F10806 		sub	r6, r6, #8
  11:Src/Settings/song.cpp **** 	while (index > 0 && list->entry_[index - 1] >= track_index) {
 268              		.loc 1 11 19 discriminator 1 view .LVU82
 269 0104 41D3     		bcc	.L55
  11:Src/Settings/song.cpp **** 	while (index > 0 && list->entry_[index - 1] >= track_index) {
 270              		.loc 1 11 44 view .LVU83
 271 0106 19F8020C 		ldrb	r0, [r9, #-2]	@ zero_extendqisi2
ARM GAS  /var/folders/84/_x1cyy_j36g486tldtwl37280000gn/T//cctc5fkA.s 			page 7


  12:Src/Settings/song.cpp **** 		list->entry_[index] = list->entry_[index - 1];
 272              		.loc 1 12 23 view .LVU84
 273 010a 5970     		strb	r1, [r3, #1]
 274              		.loc 1 13 3 is_stmt 1 view .LVU85
  11:Src/Settings/song.cpp **** 	while (index > 0 && list->entry_[index - 1] >= track_index) {
 275              		.loc 1 11 2 view .LVU86
  11:Src/Settings/song.cpp **** 	while (index > 0 && list->entry_[index - 1] >= track_index) {
 276              		.loc 1 11 19 view .LVU87
  11:Src/Settings/song.cpp **** 	while (index > 0 && list->entry_[index - 1] >= track_index) {
 277              		.loc 1 11 19 is_stmt 0 view .LVU88
 278 010c 5845     		cmp	r0, fp
 279 010e 9446     		mov	ip, r2
 280 0110 3BD3     		bcc	.L55
  12:Src/Settings/song.cpp **** 		list->entry_[index] = list->entry_[index - 1];
 281              		.loc 1 12 23 view .LVU89
 282 0112 6870     		strb	r0, [r5, #1]
 283              		.loc 1 13 3 is_stmt 1 view .LVU90
  11:Src/Settings/song.cpp **** 	while (index > 0 && list->entry_[index - 1] >= track_index) {
 284              		.loc 1 11 2 view .LVU91
  11:Src/Settings/song.cpp **** 	while (index > 0 && list->entry_[index - 1] >= track_index) {
 285              		.loc 1 11 19 view .LVU92
  11:Src/Settings/song.cpp **** 	while (index > 0 && list->entry_[index - 1] >= track_index) {
 286              		.loc 1 11 44 is_stmt 0 view .LVU93
 287 0114 19F8031C 		ldrb	r1, [r9, #-3]	@ zero_extendqisi2
  11:Src/Settings/song.cpp **** 	while (index > 0 && list->entry_[index - 1] >= track_index) {
 288              		.loc 1 11 19 view .LVU94
 289 0118 5945     		cmp	r1, fp
 290 011a A446     		mov	ip, r4
 291 011c 35D3     		bcc	.L55
  12:Src/Settings/song.cpp **** 		list->entry_[index] = list->entry_[index - 1];
 292              		.loc 1 12 23 view .LVU95
 293 011e 7970     		strb	r1, [r7, #1]
 294              		.loc 1 13 3 is_stmt 1 view .LVU96
  11:Src/Settings/song.cpp **** 	while (index > 0 && list->entry_[index - 1] >= track_index) {
 295              		.loc 1 11 2 view .LVU97
  11:Src/Settings/song.cpp **** 	while (index > 0 && list->entry_[index - 1] >= track_index) {
 296              		.loc 1 11 19 view .LVU98
  11:Src/Settings/song.cpp **** 	while (index > 0 && list->entry_[index - 1] >= track_index) {
 297              		.loc 1 11 44 is_stmt 0 view .LVU99
 298 0120 19F8042C 		ldrb	r2, [r9, #-4]	@ zero_extendqisi2
  11:Src/Settings/song.cpp **** 	while (index > 0 && list->entry_[index - 1] >= track_index) {
 299              		.loc 1 11 19 view .LVU100
 300 0124 5A45     		cmp	r2, fp
 301 0126 C446     		mov	ip, r8
 302 0128 2FD3     		bcc	.L55
  12:Src/Settings/song.cpp **** 		list->entry_[index] = list->entry_[index - 1];
 303              		.loc 1 12 23 view .LVU101
 304 012a 8EF80120 		strb	r2, [lr, #1]
 305              		.loc 1 13 3 is_stmt 1 view .LVU102
  11:Src/Settings/song.cpp **** 	while (index > 0 && list->entry_[index - 1] >= track_index) {
 306              		.loc 1 11 2 view .LVU103
  11:Src/Settings/song.cpp **** 	while (index > 0 && list->entry_[index - 1] >= track_index) {
 307              		.loc 1 11 19 view .LVU104
  11:Src/Settings/song.cpp **** 	while (index > 0 && list->entry_[index - 1] >= track_index) {
 308              		.loc 1 11 44 is_stmt 0 view .LVU105
 309 012e 19F8053C 		ldrb	r3, [r9, #-5]	@ zero_extendqisi2
  11:Src/Settings/song.cpp **** 	while (index > 0 && list->entry_[index - 1] >= track_index) {
ARM GAS  /var/folders/84/_x1cyy_j36g486tldtwl37280000gn/T//cctc5fkA.s 			page 8


 310              		.loc 1 11 19 view .LVU106
 311 0132 5B45     		cmp	r3, fp
 312 0134 D446     		mov	ip, r10
 313 0136 28D3     		bcc	.L55
  12:Src/Settings/song.cpp **** 		list->entry_[index] = list->entry_[index - 1];
 314              		.loc 1 12 23 view .LVU107
 315 0138 019C     		ldr	r4, [sp, #4]
 316 013a DDF800C0 		ldr	ip, [sp]
 317 013e 6370     		strb	r3, [r4, #1]
 318              		.loc 1 13 3 is_stmt 1 view .LVU108
  11:Src/Settings/song.cpp **** 	while (index > 0 && list->entry_[index - 1] >= track_index) {
 319              		.loc 1 11 2 view .LVU109
  11:Src/Settings/song.cpp **** 	while (index > 0 && list->entry_[index - 1] >= track_index) {
 320              		.loc 1 11 19 view .LVU110
  11:Src/Settings/song.cpp **** 	while (index > 0 && list->entry_[index - 1] >= track_index) {
 321              		.loc 1 11 44 is_stmt 0 view .LVU111
 322 0140 19F8065C 		ldrb	r5, [r9, #-6]	@ zero_extendqisi2
  11:Src/Settings/song.cpp **** 	while (index > 0 && list->entry_[index - 1] >= track_index) {
 323              		.loc 1 11 19 view .LVU112
 324 0144 5D45     		cmp	r5, fp
 325 0146 20D3     		bcc	.L55
  12:Src/Settings/song.cpp **** 		list->entry_[index] = list->entry_[index - 1];
 326              		.loc 1 12 23 view .LVU113
 327 0148 039F     		ldr	r7, [sp, #12]
 328 014a DDF808C0 		ldr	ip, [sp, #8]
 329 014e 7D70     		strb	r5, [r7, #1]
 330              		.loc 1 13 3 is_stmt 1 view .LVU114
  11:Src/Settings/song.cpp **** 	while (index > 0 && list->entry_[index - 1] >= track_index) {
 331              		.loc 1 11 2 view .LVU115
  11:Src/Settings/song.cpp **** 	while (index > 0 && list->entry_[index - 1] >= track_index) {
 332              		.loc 1 11 19 view .LVU116
  11:Src/Settings/song.cpp **** 	while (index > 0 && list->entry_[index - 1] >= track_index) {
 333              		.loc 1 11 44 is_stmt 0 view .LVU117
 334 0150 19F8070C 		ldrb	r0, [r9, #-7]	@ zero_extendqisi2
  11:Src/Settings/song.cpp **** 	while (index > 0 && list->entry_[index - 1] >= track_index) {
 335              		.loc 1 11 19 view .LVU118
 336 0154 5845     		cmp	r0, fp
 337 0156 18D3     		bcc	.L55
  12:Src/Settings/song.cpp **** 		list->entry_[index] = list->entry_[index - 1];
 338              		.loc 1 12 23 view .LVU119
 339 0158 0599     		ldr	r1, [sp, #20]
 340 015a DDF810C0 		ldr	ip, [sp, #16]
 341 015e 4870     		strb	r0, [r1, #1]
 342              		.loc 1 13 3 is_stmt 1 view .LVU120
  11:Src/Settings/song.cpp **** 	while (index > 0 && list->entry_[index - 1] >= track_index) {
 343              		.loc 1 11 2 view .LVU121
  11:Src/Settings/song.cpp **** 	while (index > 0 && list->entry_[index - 1] >= track_index) {
 344              		.loc 1 11 19 view .LVU122
  11:Src/Settings/song.cpp **** 	while (index > 0 && list->entry_[index - 1] >= track_index) {
 345              		.loc 1 11 44 is_stmt 0 view .LVU123
 346 0160 19F8082D 		ldrb	r2, [r9, #-8]!	@ zero_extendqisi2
  11:Src/Settings/song.cpp **** 	while (index > 0 && list->entry_[index - 1] >= track_index) {
 347              		.loc 1 11 19 view .LVU124
 348 0164 5A45     		cmp	r2, fp
 349 0166 10D3     		bcc	.L55
  12:Src/Settings/song.cpp **** 		list->entry_[index] = list->entry_[index - 1];
 350              		.loc 1 12 23 view .LVU125
ARM GAS  /var/folders/84/_x1cyy_j36g486tldtwl37280000gn/T//cctc5fkA.s 			page 9


 351 0168 89F80120 		strb	r2, [r9, #1]
 352              		.loc 1 13 3 is_stmt 1 view .LVU126
  11:Src/Settings/song.cpp **** 	while (index > 0 && list->entry_[index - 1] >= track_index) {
 353              		.loc 1 11 2 view .LVU127
  11:Src/Settings/song.cpp **** 	while (index > 0 && list->entry_[index - 1] >= track_index) {
 354              		.loc 1 11 19 view .LVU128
 355 016c 002E     		cmp	r6, #0
 356 016e A4D1     		bne	.L6
 357 0170 DDE906A8 		ldrd	r10, r8, [sp, #24]
 358              	.LVL25:
 359              	.L4:
   9:Src/Settings/song.cpp **** 	int index = list->size_;
 360              		.loc 1 9 57 is_stmt 0 view .LVU129
 361 0174 4FF0000C 		mov	ip, #0
 362              	.L5:
  14:Src/Settings/song.cpp **** 	}
  15:Src/Settings/song.cpp **** 	list->entry_[index] = track_index;
 363              		.loc 1 15 2 is_stmt 1 view .LVU130
 364              		.loc 1 15 22 is_stmt 0 view .LVU131
 365 0178 0AEB0C09 		add	r9, r10, ip
 366 017c 89F801B0 		strb	fp, [r9, #1]
  16:Src/Settings/song.cpp **** 	++list->size_;
 367              		.loc 1 16 2 is_stmt 1 view .LVU132
 368 0180 8AF80080 		strb	r8, [r10]
  17:Src/Settings/song.cpp **** }
 369              		.loc 1 17 1 is_stmt 0 view .LVU133
 370 0184 09B0     		add	sp, sp, #36
 371              		.cfi_remember_state
 372              		.cfi_def_cfa_offset 36
 373              		@ sp needed
 374 0186 BDE8F08F 		pop	{r4, r5, r6, r7, r8, r9, r10, fp, pc}
 375              	.LVL26:
 376              	.L55:
 377              		.cfi_restore_state
 378              		.loc 1 17 1 view .LVU134
 379 018a DDE906A8 		ldrd	r10, r8, [sp, #24]
 380 018e F3E7     		b	.L5
 381              	.LVL27:
 382              	.L57:
  11:Src/Settings/song.cpp **** 		list->entry_[index] = list->entry_[index - 1];
 383              		.loc 1 11 44 view .LVU135
 384 0190 19F8010D 		ldrb	r0, [r9, #-1]!	@ zero_extendqisi2
 385              	.LVL28:
  11:Src/Settings/song.cpp **** 		list->entry_[index] = list->entry_[index - 1];
 386              		.loc 1 11 19 view .LVU136
 387 0194 5845     		cmp	r0, fp
 388 0196 B446     		mov	ip, r6
 389              	.LVL29:
  11:Src/Settings/song.cpp **** 		list->entry_[index] = list->entry_[index - 1];
 390              		.loc 1 11 41 view .LVU137
 391 0198 1646     		mov	r6, r2
  11:Src/Settings/song.cpp **** 		list->entry_[index] = list->entry_[index - 1];
 392              		.loc 1 11 19 view .LVU138
 393 019a EDD3     		bcc	.L5
  12:Src/Settings/song.cpp **** 		--index;
 394              		.loc 1 12 3 is_stmt 1 view .LVU139
  12:Src/Settings/song.cpp **** 		--index;
ARM GAS  /var/folders/84/_x1cyy_j36g486tldtwl37280000gn/T//cctc5fkA.s 			page 10


 395              		.loc 1 12 23 is_stmt 0 view .LVU140
 396 019c 89F80100 		strb	r0, [r9, #1]
  13:Src/Settings/song.cpp **** 	}
 397              		.loc 1 13 3 is_stmt 1 view .LVU141
  11:Src/Settings/song.cpp **** 		list->entry_[index] = list->entry_[index - 1];
 398              		.loc 1 11 2 view .LVU142
  11:Src/Settings/song.cpp **** 		list->entry_[index] = list->entry_[index - 1];
 399              		.loc 1 11 19 view .LVU143
 400 01a0 4FE7     		b	.L36
 401              		.cfi_endproc
 402              	.LFE2522:
 404 01a2 00BF     		.section	.text._ZN4Song16remove_from_listEPNS_4ListEh,"ax",%progbits
 405              		.align	1
 406              		.p2align 2,,3
 407              		.global	_ZN4Song16remove_from_listEPNS_4ListEh
 408              		.syntax unified
 409              		.thumb
 410              		.thumb_func
 411              		.fpu fpv4-sp-d16
 413              	_ZN4Song16remove_from_listEPNS_4ListEh:
 414              	.LVL30:
 415              	.LFB2523:
  18:Src/Settings/song.cpp **** 
  19:Src/Settings/song.cpp **** void Song::remove_from_list(List* list, uint8_t track_index) {
 416              		.loc 1 19 62 view -0
 417              		.cfi_startproc
 418              		@ args = 0, pretend = 0, frame = 0
 419              		@ frame_needed = 0, uses_anonymous_args = 0
 420              		@ link register save eliminated.
  20:Src/Settings/song.cpp **** 	for (int i = 0; i < list->size_; ++i) {
 421              		.loc 1 20 2 view .LVU145
 422              	.LBB71:
 423              		.loc 1 20 20 view .LVU146
 424              	.LBE71:
  19:Src/Settings/song.cpp **** 	for (int i = 0; i < list->size_; ++i) {
 425              		.loc 1 19 62 is_stmt 0 view .LVU147
 426 0000 F0B4     		push	{r4, r5, r6, r7}
 427              		.cfi_def_cfa_offset 16
 428              		.cfi_offset 4, -16
 429              		.cfi_offset 5, -12
 430              		.cfi_offset 6, -8
 431              		.cfi_offset 7, -4
 432              	.LBB91:
 433              		.loc 1 20 28 view .LVU148
 434 0002 0D78     		ldrb	r5, [r1]	@ zero_extendqisi2
 435              		.loc 1 20 20 view .LVU149
 436 0004 002D     		cmp	r5, #0
 437 0006 60D0     		beq	.L58
 438 0008 15F00704 		ands	r4, r5, #7
 439 000c 0846     		mov	r0, r1
 440              	.LVL31:
 441              		.loc 1 20 11 view .LVU150
 442 000e 4FF00003 		mov	r3, #0
 443 0012 2CD0     		beq	.L63
 444 0014 012C     		cmp	r4, #1
 445 0016 23D0     		beq	.L124
 446 0018 022C     		cmp	r4, #2
ARM GAS  /var/folders/84/_x1cyy_j36g486tldtwl37280000gn/T//cctc5fkA.s 			page 11


 447 001a 1CD0     		beq	.L125
 448 001c 032C     		cmp	r4, #3
 449 001e 15D0     		beq	.L126
 450 0020 042C     		cmp	r4, #4
 451 0022 0ED0     		beq	.L127
 452 0024 052C     		cmp	r4, #5
 453 0026 07D0     		beq	.L128
 454 0028 062C     		cmp	r4, #6
 455 002a 40F0A480 		bne	.L155
 456              	.LVL32:
 457              	.L129:
 458              		.loc 1 20 11 view .LVU151
 459              	.LBE91:
  21:Src/Settings/song.cpp **** 		if (list->entry_[i] == track_index) {
 460              		.loc 1 21 3 is_stmt 1 view .LVU152
 461              	.LBB92:
 462              	.LBB72:
 463 002e 10F8017F 		ldrb	r7, [r0, #1]!	@ zero_extendqisi2
 464 0032 9742     		cmp	r7, r2
 465 0034 4BD0     		beq	.L153
 466              	.LBE72:
  20:Src/Settings/song.cpp **** 	for (int i = 0; i < list->size_; ++i) {
 467              		.loc 1 20 2 view .LVU153
 468 0036 0133     		adds	r3, r3, #1
 469              	.LVL33:
  20:Src/Settings/song.cpp **** 	for (int i = 0; i < list->size_; ++i) {
 470              		.loc 1 20 20 view .LVU154
 471              	.L128:
  20:Src/Settings/song.cpp **** 	for (int i = 0; i < list->size_; ++i) {
 472              		.loc 1 20 20 is_stmt 0 view .LVU155
 473              	.LBE92:
 474              		.loc 1 21 3 is_stmt 1 view .LVU156
 475              	.LBB93:
 476              	.LBB75:
 477 0038 10F801CF 		ldrb	ip, [r0, #1]!	@ zero_extendqisi2
 478 003c 9445     		cmp	ip, r2
 479 003e 46D0     		beq	.L153
 480              	.LBE75:
  20:Src/Settings/song.cpp **** 	for (int i = 0; i < list->size_; ++i) {
 481              		.loc 1 20 2 view .LVU157
 482 0040 0133     		adds	r3, r3, #1
 483              	.LVL34:
  20:Src/Settings/song.cpp **** 	for (int i = 0; i < list->size_; ++i) {
 484              		.loc 1 20 20 view .LVU158
 485              	.L127:
  20:Src/Settings/song.cpp **** 	for (int i = 0; i < list->size_; ++i) {
 486              		.loc 1 20 20 is_stmt 0 view .LVU159
 487              	.LBE93:
 488              		.loc 1 21 3 is_stmt 1 view .LVU160
 489              	.LBB94:
 490              	.LBB76:
 491 0042 10F8014F 		ldrb	r4, [r0, #1]!	@ zero_extendqisi2
 492 0046 9442     		cmp	r4, r2
 493 0048 41D0     		beq	.L153
 494              	.LBE76:
  20:Src/Settings/song.cpp **** 	for (int i = 0; i < list->size_; ++i) {
 495              		.loc 1 20 2 view .LVU161
ARM GAS  /var/folders/84/_x1cyy_j36g486tldtwl37280000gn/T//cctc5fkA.s 			page 12


 496 004a 0133     		adds	r3, r3, #1
 497              	.LVL35:
  20:Src/Settings/song.cpp **** 	for (int i = 0; i < list->size_; ++i) {
 498              		.loc 1 20 20 view .LVU162
 499              	.L126:
  20:Src/Settings/song.cpp **** 	for (int i = 0; i < list->size_; ++i) {
 500              		.loc 1 20 20 is_stmt 0 view .LVU163
 501              	.LBE94:
 502              		.loc 1 21 3 is_stmt 1 view .LVU164
 503              	.LBB95:
 504              	.LBB77:
 505 004c 10F8016F 		ldrb	r6, [r0, #1]!	@ zero_extendqisi2
 506 0050 9642     		cmp	r6, r2
 507 0052 3CD0     		beq	.L153
 508              	.LBE77:
  20:Src/Settings/song.cpp **** 	for (int i = 0; i < list->size_; ++i) {
 509              		.loc 1 20 2 view .LVU165
 510 0054 0133     		adds	r3, r3, #1
 511              	.LVL36:
  20:Src/Settings/song.cpp **** 	for (int i = 0; i < list->size_; ++i) {
 512              		.loc 1 20 20 view .LVU166
 513              	.L125:
  20:Src/Settings/song.cpp **** 	for (int i = 0; i < list->size_; ++i) {
 514              		.loc 1 20 20 is_stmt 0 view .LVU167
 515              	.LBE95:
 516              		.loc 1 21 3 is_stmt 1 view .LVU168
 517              	.LBB96:
 518              	.LBB78:
 519 0056 10F8017F 		ldrb	r7, [r0, #1]!	@ zero_extendqisi2
 520 005a 9742     		cmp	r7, r2
 521 005c 37D0     		beq	.L153
 522              	.LBE78:
  20:Src/Settings/song.cpp **** 	for (int i = 0; i < list->size_; ++i) {
 523              		.loc 1 20 2 view .LVU169
 524 005e 0133     		adds	r3, r3, #1
 525              	.LVL37:
  20:Src/Settings/song.cpp **** 	for (int i = 0; i < list->size_; ++i) {
 526              		.loc 1 20 20 view .LVU170
 527              	.L124:
  20:Src/Settings/song.cpp **** 	for (int i = 0; i < list->size_; ++i) {
 528              		.loc 1 20 20 is_stmt 0 view .LVU171
 529              	.LBE96:
 530              		.loc 1 21 3 is_stmt 1 view .LVU172
 531              	.LBB97:
 532              	.LBB79:
 533 0060 10F801CF 		ldrb	ip, [r0, #1]!	@ zero_extendqisi2
 534 0064 9445     		cmp	ip, r2
 535 0066 32D0     		beq	.L153
 536              	.LBE79:
  20:Src/Settings/song.cpp **** 	for (int i = 0; i < list->size_; ++i) {
 537              		.loc 1 20 2 view .LVU173
 538 0068 0133     		adds	r3, r3, #1
 539              	.LVL38:
  20:Src/Settings/song.cpp **** 	for (int i = 0; i < list->size_; ++i) {
 540              		.loc 1 20 20 view .LVU174
 541 006a AB42     		cmp	r3, r5
 542 006c 2DD0     		beq	.L58
ARM GAS  /var/folders/84/_x1cyy_j36g486tldtwl37280000gn/T//cctc5fkA.s 			page 13


 543              	.LVL39:
 544              	.L63:
  20:Src/Settings/song.cpp **** 	for (int i = 0; i < list->size_; ++i) {
 545              		.loc 1 20 20 is_stmt 0 view .LVU175
 546              	.LBE97:
 547              		.loc 1 21 3 is_stmt 1 view .LVU176
 548              	.LBB98:
  20:Src/Settings/song.cpp **** 	for (int i = 0; i < list->size_; ++i) {
 549              		.loc 1 20 2 view .LVU177
  20:Src/Settings/song.cpp **** 	for (int i = 0; i < list->size_; ++i) {
 550              		.loc 1 20 2 view .LVU178
  20:Src/Settings/song.cpp **** 	for (int i = 0; i < list->size_; ++i) {
 551              		.loc 1 20 2 view .LVU179
  20:Src/Settings/song.cpp **** 	for (int i = 0; i < list->size_; ++i) {
 552              		.loc 1 20 2 view .LVU180
  20:Src/Settings/song.cpp **** 	for (int i = 0; i < list->size_; ++i) {
 553              		.loc 1 20 2 view .LVU181
  20:Src/Settings/song.cpp **** 	for (int i = 0; i < list->size_; ++i) {
 554              		.loc 1 20 2 view .LVU182
  20:Src/Settings/song.cpp **** 	for (int i = 0; i < list->size_; ++i) {
 555              		.loc 1 20 2 view .LVU183
  20:Src/Settings/song.cpp **** 	for (int i = 0; i < list->size_; ++i) {
 556              		.loc 1 20 2 view .LVU184
 557              	.LBB80:
 558              		.loc 1 21 3 is_stmt 0 view .LVU185
 559 006e 4478     		ldrb	r4, [r0, #1]	@ zero_extendqisi2
 560 0070 9442     		cmp	r4, r2
 561 0072 00F10106 		add	r6, r0, #1
 562 0076 2AD0     		beq	.L153
 563              		.loc 1 21 3 discriminator 2 view .LVU186
 564 0078 7778     		ldrb	r7, [r6, #1]	@ zero_extendqisi2
 565              	.LBE80:
  20:Src/Settings/song.cpp **** 	for (int i = 0; i < list->size_; ++i) {
 566              		.loc 1 20 2 discriminator 2 view .LVU187
 567 007a 0133     		adds	r3, r3, #1
 568              	.LVL40:
 569              	.LBB81:
 570              		.loc 1 21 3 discriminator 2 view .LVU188
 571 007c 9742     		cmp	r7, r2
 572              	.LBE81:
  20:Src/Settings/song.cpp **** 	for (int i = 0; i < list->size_; ++i) {
 573              		.loc 1 20 2 discriminator 2 view .LVU189
 574 007e 1C46     		mov	r4, r3
 575              	.LVL41:
  20:Src/Settings/song.cpp **** 	for (int i = 0; i < list->size_; ++i) {
 576              		.loc 1 20 20 is_stmt 1 discriminator 2 view .LVU190
  20:Src/Settings/song.cpp **** 	for (int i = 0; i < list->size_; ++i) {
 577              		.loc 1 20 20 is_stmt 0 discriminator 2 view .LVU191
 578              	.LBE98:
 579              		.loc 1 21 3 is_stmt 1 discriminator 2 view .LVU192
 580              	.LBB99:
 581              	.LBB82:
 582 0080 25D0     		beq	.L153
 583              		.loc 1 21 3 is_stmt 0 view .LVU193
 584 0082 90F803C0 		ldrb	ip, [r0, #3]	@ zero_extendqisi2
 585 0086 9445     		cmp	ip, r2
 586              	.LBE82:
ARM GAS  /var/folders/84/_x1cyy_j36g486tldtwl37280000gn/T//cctc5fkA.s 			page 14


  20:Src/Settings/song.cpp **** 	for (int i = 0; i < list->size_; ++i) {
 587              		.loc 1 20 2 view .LVU194
 588 0088 03F10103 		add	r3, r3, #1
 589              	.LVL42:
  20:Src/Settings/song.cpp **** 	for (int i = 0; i < list->size_; ++i) {
 590              		.loc 1 20 20 is_stmt 1 view .LVU195
  20:Src/Settings/song.cpp **** 	for (int i = 0; i < list->size_; ++i) {
 591              		.loc 1 20 20 is_stmt 0 view .LVU196
 592              	.LBE99:
 593              		.loc 1 21 3 is_stmt 1 view .LVU197
 594              	.LBB100:
 595              	.LBB83:
 596 008c 1FD0     		beq	.L153
 597 008e 0679     		ldrb	r6, [r0, #4]	@ zero_extendqisi2
 598 0090 9642     		cmp	r6, r2
 599              	.LBE83:
  20:Src/Settings/song.cpp **** 	for (int i = 0; i < list->size_; ++i) {
 600              		.loc 1 20 2 is_stmt 0 view .LVU198
 601 0092 04F10203 		add	r3, r4, #2
 602              	.LVL43:
  20:Src/Settings/song.cpp **** 	for (int i = 0; i < list->size_; ++i) {
 603              		.loc 1 20 20 is_stmt 1 view .LVU199
  20:Src/Settings/song.cpp **** 	for (int i = 0; i < list->size_; ++i) {
 604              		.loc 1 20 20 is_stmt 0 view .LVU200
 605              	.LBE100:
 606              		.loc 1 21 3 is_stmt 1 view .LVU201
 607              	.LBB101:
 608              	.LBB84:
 609 0096 1AD0     		beq	.L153
 610 0098 4779     		ldrb	r7, [r0, #5]	@ zero_extendqisi2
 611 009a 9742     		cmp	r7, r2
 612              	.LBE84:
  20:Src/Settings/song.cpp **** 	for (int i = 0; i < list->size_; ++i) {
 613              		.loc 1 20 2 is_stmt 0 view .LVU202
 614 009c 04F10303 		add	r3, r4, #3
 615              	.LVL44:
  20:Src/Settings/song.cpp **** 	for (int i = 0; i < list->size_; ++i) {
 616              		.loc 1 20 20 is_stmt 1 view .LVU203
  20:Src/Settings/song.cpp **** 	for (int i = 0; i < list->size_; ++i) {
 617              		.loc 1 20 20 is_stmt 0 view .LVU204
 618              	.LBE101:
 619              		.loc 1 21 3 is_stmt 1 view .LVU205
 620              	.LBB102:
 621              	.LBB85:
 622 00a0 15D0     		beq	.L153
 623 00a2 90F806C0 		ldrb	ip, [r0, #6]	@ zero_extendqisi2
 624 00a6 9445     		cmp	ip, r2
 625              	.LBE85:
  20:Src/Settings/song.cpp **** 	for (int i = 0; i < list->size_; ++i) {
 626              		.loc 1 20 2 is_stmt 0 view .LVU206
 627 00a8 04F10403 		add	r3, r4, #4
 628              	.LVL45:
  20:Src/Settings/song.cpp **** 	for (int i = 0; i < list->size_; ++i) {
 629              		.loc 1 20 20 is_stmt 1 view .LVU207
  20:Src/Settings/song.cpp **** 	for (int i = 0; i < list->size_; ++i) {
 630              		.loc 1 20 20 is_stmt 0 view .LVU208
 631              	.LBE102:
ARM GAS  /var/folders/84/_x1cyy_j36g486tldtwl37280000gn/T//cctc5fkA.s 			page 15


 632              		.loc 1 21 3 is_stmt 1 view .LVU209
 633              	.LBB103:
 634              	.LBB86:
 635 00ac 0FD0     		beq	.L153
 636 00ae C679     		ldrb	r6, [r0, #7]	@ zero_extendqisi2
 637 00b0 9642     		cmp	r6, r2
 638              	.LBE86:
  20:Src/Settings/song.cpp **** 	for (int i = 0; i < list->size_; ++i) {
 639              		.loc 1 20 2 is_stmt 0 view .LVU210
 640 00b2 04F10503 		add	r3, r4, #5
 641              	.LVL46:
  20:Src/Settings/song.cpp **** 	for (int i = 0; i < list->size_; ++i) {
 642              		.loc 1 20 20 is_stmt 1 view .LVU211
  20:Src/Settings/song.cpp **** 	for (int i = 0; i < list->size_; ++i) {
 643              		.loc 1 20 20 is_stmt 0 view .LVU212
 644              	.LBE103:
 645              		.loc 1 21 3 is_stmt 1 view .LVU213
 646              	.LBB104:
 647              	.LBB87:
 648 00b6 0AD0     		beq	.L153
 649 00b8 10F8087F 		ldrb	r7, [r0, #8]!	@ zero_extendqisi2
 650 00bc 9742     		cmp	r7, r2
 651              	.LBE87:
  20:Src/Settings/song.cpp **** 	for (int i = 0; i < list->size_; ++i) {
 652              		.loc 1 20 2 is_stmt 0 view .LVU214
 653 00be 04F10603 		add	r3, r4, #6
 654              	.LVL47:
  20:Src/Settings/song.cpp **** 	for (int i = 0; i < list->size_; ++i) {
 655              		.loc 1 20 20 is_stmt 1 view .LVU215
  20:Src/Settings/song.cpp **** 	for (int i = 0; i < list->size_; ++i) {
 656              		.loc 1 20 20 is_stmt 0 view .LVU216
 657              	.LBE104:
 658              		.loc 1 21 3 is_stmt 1 view .LVU217
 659              	.LBB105:
 660              	.LBB88:
 661 00c2 04D0     		beq	.L153
 662              	.LBE88:
  20:Src/Settings/song.cpp **** 	for (int i = 0; i < list->size_; ++i) {
 663              		.loc 1 20 2 is_stmt 0 view .LVU218
 664 00c4 E31D     		adds	r3, r4, #7
 665              	.LVL48:
  20:Src/Settings/song.cpp **** 	for (int i = 0; i < list->size_; ++i) {
 666              		.loc 1 20 20 is_stmt 1 view .LVU219
 667 00c6 AB42     		cmp	r3, r5
 668 00c8 D1D1     		bne	.L63
 669              	.LVL49:
 670              	.L58:
  20:Src/Settings/song.cpp **** 	for (int i = 0; i < list->size_; ++i) {
 671              		.loc 1 20 20 is_stmt 0 view .LVU220
 672              	.LBE105:
  22:Src/Settings/song.cpp **** 			for (int j = i; j < list->size_; ++j) {
  23:Src/Settings/song.cpp **** 				list->entry_[j] = list->entry_[j + 1];
  24:Src/Settings/song.cpp **** 			}
  25:Src/Settings/song.cpp **** 			--list->size_;
  26:Src/Settings/song.cpp **** 			return;
  27:Src/Settings/song.cpp **** 		}
  28:Src/Settings/song.cpp **** 	}
ARM GAS  /var/folders/84/_x1cyy_j36g486tldtwl37280000gn/T//cctc5fkA.s 			page 16


  29:Src/Settings/song.cpp **** }
 673              		.loc 1 29 1 view .LVU221
 674 00ca F0BC     		pop	{r4, r5, r6, r7}
 675              		.cfi_remember_state
 676              		.cfi_restore 7
 677              		.cfi_restore 6
 678              		.cfi_restore 5
 679              		.cfi_restore 4
 680              		.cfi_def_cfa_offset 0
 681 00cc 7047     		bx	lr
 682              	.L153:
 683              		.cfi_restore_state
 684              	.LVL50:
 685              	.LBB106:
 686              	.LBB89:
 687              	.LBB73:
 688              	.LBB74:
  22:Src/Settings/song.cpp **** 			for (int j = i; j < list->size_; ++j) {
 689              		.loc 1 22 22 is_stmt 1 view .LVU222
 690 00ce 9D42     		cmp	r5, r3
 691 00d0 4DDD     		ble	.L61
  22:Src/Settings/song.cpp **** 			for (int j = i; j < list->size_; ++j) {
 692              		.loc 1 22 22 is_stmt 0 view .LVU223
 693 00d2 0133     		adds	r3, r3, #1
 694              	.LVL51:
  22:Src/Settings/song.cpp **** 			for (int j = i; j < list->size_; ++j) {
 695              		.loc 1 22 22 view .LVU224
 696 00d4 4A1C     		adds	r2, r1, #1
 697              	.LVL52:
  22:Src/Settings/song.cpp **** 			for (int j = i; j < list->size_; ++j) {
 698              		.loc 1 22 22 view .LVU225
 699 00d6 0B44     		add	r3, r3, r1
 700              	.LVL53:
  22:Src/Settings/song.cpp **** 			for (int j = i; j < list->size_; ++j) {
 701              		.loc 1 22 22 view .LVU226
 702 00d8 2A44     		add	r2, r2, r5
 703 00da D01A     		subs	r0, r2, r3
 704 00dc 10F00704 		ands	r4, r0, #7
 705 00e0 23D0     		beq	.L62
 706 00e2 012C     		cmp	r4, #1
 707 00e4 1CD0     		beq	.L130
 708 00e6 022C     		cmp	r4, #2
 709 00e8 17D0     		beq	.L131
 710 00ea 032C     		cmp	r4, #3
 711 00ec 12D0     		beq	.L132
 712 00ee 042C     		cmp	r4, #4
 713 00f0 0DD0     		beq	.L133
 714 00f2 052C     		cmp	r4, #5
 715 00f4 07D0     		beq	.L134
 716 00f6 062C     		cmp	r4, #6
 717 00f8 02D0     		beq	.L135
  23:Src/Settings/song.cpp **** 			}
 718              		.loc 1 23 5 is_stmt 1 view .LVU227
  23:Src/Settings/song.cpp **** 			}
 719              		.loc 1 23 21 is_stmt 0 view .LVU228
 720 00fa 5E78     		ldrb	r6, [r3, #1]	@ zero_extendqisi2
 721 00fc 03F8016B 		strb	r6, [r3], #1
ARM GAS  /var/folders/84/_x1cyy_j36g486tldtwl37280000gn/T//cctc5fkA.s 			page 17


  22:Src/Settings/song.cpp **** 			for (int j = i; j < list->size_; ++j) {
 722              		.loc 1 22 4 is_stmt 1 view .LVU229
  22:Src/Settings/song.cpp **** 			for (int j = i; j < list->size_; ++j) {
 723              		.loc 1 22 22 view .LVU230
 724              	.L135:
  23:Src/Settings/song.cpp **** 			}
 725              		.loc 1 23 5 view .LVU231
  23:Src/Settings/song.cpp **** 			}
 726              		.loc 1 23 21 is_stmt 0 view .LVU232
 727 0100 5F78     		ldrb	r7, [r3, #1]	@ zero_extendqisi2
 728 0102 03F8017B 		strb	r7, [r3], #1
  22:Src/Settings/song.cpp **** 			for (int j = i; j < list->size_; ++j) {
 729              		.loc 1 22 4 is_stmt 1 view .LVU233
  22:Src/Settings/song.cpp **** 			for (int j = i; j < list->size_; ++j) {
 730              		.loc 1 22 22 view .LVU234
 731              	.L134:
  23:Src/Settings/song.cpp **** 			}
 732              		.loc 1 23 5 view .LVU235
  23:Src/Settings/song.cpp **** 			}
 733              		.loc 1 23 21 is_stmt 0 view .LVU236
 734 0106 93F801C0 		ldrb	ip, [r3, #1]	@ zero_extendqisi2
 735 010a 03F801CB 		strb	ip, [r3], #1
  22:Src/Settings/song.cpp **** 			for (int j = i; j < list->size_; ++j) {
 736              		.loc 1 22 4 is_stmt 1 view .LVU237
  22:Src/Settings/song.cpp **** 			for (int j = i; j < list->size_; ++j) {
 737              		.loc 1 22 22 view .LVU238
 738              	.L133:
  23:Src/Settings/song.cpp **** 			}
 739              		.loc 1 23 5 view .LVU239
  23:Src/Settings/song.cpp **** 			}
 740              		.loc 1 23 21 is_stmt 0 view .LVU240
 741 010e 5878     		ldrb	r0, [r3, #1]	@ zero_extendqisi2
 742 0110 03F8010B 		strb	r0, [r3], #1
  22:Src/Settings/song.cpp **** 			for (int j = i; j < list->size_; ++j) {
 743              		.loc 1 22 4 is_stmt 1 view .LVU241
  22:Src/Settings/song.cpp **** 			for (int j = i; j < list->size_; ++j) {
 744              		.loc 1 22 22 view .LVU242
 745              	.L132:
  23:Src/Settings/song.cpp **** 			}
 746              		.loc 1 23 5 view .LVU243
  23:Src/Settings/song.cpp **** 			}
 747              		.loc 1 23 21 is_stmt 0 view .LVU244
 748 0114 5C78     		ldrb	r4, [r3, #1]	@ zero_extendqisi2
 749 0116 03F8014B 		strb	r4, [r3], #1
  22:Src/Settings/song.cpp **** 			for (int j = i; j < list->size_; ++j) {
 750              		.loc 1 22 4 is_stmt 1 view .LVU245
  22:Src/Settings/song.cpp **** 			for (int j = i; j < list->size_; ++j) {
 751              		.loc 1 22 22 view .LVU246
 752              	.L131:
  23:Src/Settings/song.cpp **** 			}
 753              		.loc 1 23 5 view .LVU247
  23:Src/Settings/song.cpp **** 			}
 754              		.loc 1 23 21 is_stmt 0 view .LVU248
 755 011a 5E78     		ldrb	r6, [r3, #1]	@ zero_extendqisi2
 756 011c 03F8016B 		strb	r6, [r3], #1
  22:Src/Settings/song.cpp **** 			for (int j = i; j < list->size_; ++j) {
 757              		.loc 1 22 4 is_stmt 1 view .LVU249
ARM GAS  /var/folders/84/_x1cyy_j36g486tldtwl37280000gn/T//cctc5fkA.s 			page 18


  22:Src/Settings/song.cpp **** 			for (int j = i; j < list->size_; ++j) {
 758              		.loc 1 22 22 view .LVU250
 759              	.L130:
  23:Src/Settings/song.cpp **** 			}
 760              		.loc 1 23 5 view .LVU251
  23:Src/Settings/song.cpp **** 			}
 761              		.loc 1 23 21 is_stmt 0 view .LVU252
 762 0120 5F78     		ldrb	r7, [r3, #1]	@ zero_extendqisi2
 763 0122 03F8017B 		strb	r7, [r3], #1
  22:Src/Settings/song.cpp **** 			for (int j = i; j < list->size_; ++j) {
 764              		.loc 1 22 4 is_stmt 1 view .LVU253
  22:Src/Settings/song.cpp **** 			for (int j = i; j < list->size_; ++j) {
 765              		.loc 1 22 22 view .LVU254
 766 0126 9342     		cmp	r3, r2
 767 0128 21D0     		beq	.L61
 768              	.L62:
  23:Src/Settings/song.cpp **** 			}
 769              		.loc 1 23 5 discriminator 2 view .LVU255
  23:Src/Settings/song.cpp **** 			}
 770              		.loc 1 23 21 is_stmt 0 discriminator 2 view .LVU256
 771 012a 9C46     		mov	ip, r3
 772 012c 5878     		ldrb	r0, [r3, #1]	@ zero_extendqisi2
 773 012e 0CF8010B 		strb	r0, [ip], #1
  22:Src/Settings/song.cpp **** 			for (int j = i; j < list->size_; ++j) {
 774              		.loc 1 22 4 is_stmt 1 discriminator 2 view .LVU257
  22:Src/Settings/song.cpp **** 			for (int j = i; j < list->size_; ++j) {
 775              		.loc 1 22 22 discriminator 2 view .LVU258
  23:Src/Settings/song.cpp **** 			}
 776              		.loc 1 23 5 discriminator 2 view .LVU259
  23:Src/Settings/song.cpp **** 			}
 777              		.loc 1 23 21 is_stmt 0 discriminator 2 view .LVU260
 778 0132 6446     		mov	r4, ip
 779 0134 0833     		adds	r3, r3, #8
 780 0136 14F8016F 		ldrb	r6, [r4, #1]!	@ zero_extendqisi2
 781 013a 03F8076C 		strb	r6, [r3, #-7]
  22:Src/Settings/song.cpp **** 			for (int j = i; j < list->size_; ++j) {
 782              		.loc 1 22 4 is_stmt 1 discriminator 2 view .LVU261
  22:Src/Settings/song.cpp **** 			for (int j = i; j < list->size_; ++j) {
 783              		.loc 1 22 22 discriminator 2 view .LVU262
  23:Src/Settings/song.cpp **** 			}
 784              		.loc 1 23 5 discriminator 2 view .LVU263
  22:Src/Settings/song.cpp **** 			for (int j = i; j < list->size_; ++j) {
 785              		.loc 1 22 4 discriminator 2 view .LVU264
  22:Src/Settings/song.cpp **** 			for (int j = i; j < list->size_; ++j) {
 786              		.loc 1 22 22 discriminator 2 view .LVU265
  23:Src/Settings/song.cpp **** 			}
 787              		.loc 1 23 5 discriminator 2 view .LVU266
  22:Src/Settings/song.cpp **** 			for (int j = i; j < list->size_; ++j) {
 788              		.loc 1 22 4 discriminator 2 view .LVU267
  22:Src/Settings/song.cpp **** 			for (int j = i; j < list->size_; ++j) {
 789              		.loc 1 22 22 discriminator 2 view .LVU268
  23:Src/Settings/song.cpp **** 			}
 790              		.loc 1 23 5 discriminator 2 view .LVU269
  22:Src/Settings/song.cpp **** 			for (int j = i; j < list->size_; ++j) {
 791              		.loc 1 22 4 discriminator 2 view .LVU270
  22:Src/Settings/song.cpp **** 			for (int j = i; j < list->size_; ++j) {
 792              		.loc 1 22 22 discriminator 2 view .LVU271
ARM GAS  /var/folders/84/_x1cyy_j36g486tldtwl37280000gn/T//cctc5fkA.s 			page 19


  23:Src/Settings/song.cpp **** 			}
 793              		.loc 1 23 5 discriminator 2 view .LVU272
  22:Src/Settings/song.cpp **** 			for (int j = i; j < list->size_; ++j) {
 794              		.loc 1 22 4 discriminator 2 view .LVU273
  22:Src/Settings/song.cpp **** 			for (int j = i; j < list->size_; ++j) {
 795              		.loc 1 22 22 discriminator 2 view .LVU274
  23:Src/Settings/song.cpp **** 			}
 796              		.loc 1 23 5 discriminator 2 view .LVU275
  22:Src/Settings/song.cpp **** 			for (int j = i; j < list->size_; ++j) {
 797              		.loc 1 22 4 discriminator 2 view .LVU276
  22:Src/Settings/song.cpp **** 			for (int j = i; j < list->size_; ++j) {
 798              		.loc 1 22 22 discriminator 2 view .LVU277
  23:Src/Settings/song.cpp **** 			}
 799              		.loc 1 23 5 discriminator 2 view .LVU278
  23:Src/Settings/song.cpp **** 			}
 800              		.loc 1 23 21 is_stmt 0 discriminator 2 view .LVU279
 801 013e 6778     		ldrb	r7, [r4, #1]	@ zero_extendqisi2
 802 0140 8CF80170 		strb	r7, [ip, #1]
 803 0144 13F8040C 		ldrb	r0, [r3, #-4]	@ zero_extendqisi2
 804 0148 13F8037C 		ldrb	r7, [r3, #-3]	@ zero_extendqisi2
 805 014c 13F8026C 		ldrb	r6, [r3, #-2]	@ zero_extendqisi2
 806 0150 13F8014C 		ldrb	r4, [r3, #-1]	@ zero_extendqisi2
 807 0154 03F8050C 		strb	r0, [r3, #-5]
 808 0158 1878     		ldrb	r0, [r3]	@ zero_extendqisi2
 809 015a 03F8047C 		strb	r7, [r3, #-4]
 810 015e 03F8036C 		strb	r6, [r3, #-3]
 811 0162 03F8024C 		strb	r4, [r3, #-2]
 812 0166 03F8010C 		strb	r0, [r3, #-1]
  22:Src/Settings/song.cpp **** 			for (int j = i; j < list->size_; ++j) {
 813              		.loc 1 22 4 is_stmt 1 discriminator 2 view .LVU280
  22:Src/Settings/song.cpp **** 			for (int j = i; j < list->size_; ++j) {
 814              		.loc 1 22 22 discriminator 2 view .LVU281
 815 016a 9342     		cmp	r3, r2
 816 016c DDD1     		bne	.L62
 817              	.L61:
  22:Src/Settings/song.cpp **** 			for (int j = i; j < list->size_; ++j) {
 818              		.loc 1 22 22 is_stmt 0 discriminator 2 view .LVU282
 819              	.LBE74:
  25:Src/Settings/song.cpp **** 			return;
 820              		.loc 1 25 4 is_stmt 1 view .LVU283
 821 016e 013D     		subs	r5, r5, #1
 822 0170 0D70     		strb	r5, [r1]
  26:Src/Settings/song.cpp **** 		}
 823              		.loc 1 26 4 view .LVU284
 824              	.LBE73:
 825              	.LBE89:
 826              	.LBE106:
 827              		.loc 1 29 1 is_stmt 0 view .LVU285
 828 0172 F0BC     		pop	{r4, r5, r6, r7}
 829              		.cfi_remember_state
 830              		.cfi_restore 7
 831              		.cfi_restore 6
 832              		.cfi_restore 5
 833              		.cfi_restore 4
 834              		.cfi_def_cfa_offset 0
 835 0174 7047     		bx	lr
 836              	.LVL54:
ARM GAS  /var/folders/84/_x1cyy_j36g486tldtwl37280000gn/T//cctc5fkA.s 			page 20


 837              	.L155:
 838              		.cfi_restore_state
  21:Src/Settings/song.cpp **** 			for (int j = i; j < list->size_; ++j) {
 839              		.loc 1 21 3 is_stmt 1 view .LVU286
 840              	.LBB107:
 841              	.LBB90:
 842 0176 10F8016F 		ldrb	r6, [r0, #1]!	@ zero_extendqisi2
 843              	.LVL55:
  21:Src/Settings/song.cpp **** 			for (int j = i; j < list->size_; ++j) {
 844              		.loc 1 21 3 is_stmt 0 view .LVU287
 845 017a 9642     		cmp	r6, r2
 846 017c A7D0     		beq	.L153
 847              	.LBE90:
  20:Src/Settings/song.cpp **** 		if (list->entry_[i] == track_index) {
 848              		.loc 1 20 2 is_stmt 1 view .LVU288
 849 017e 0123     		movs	r3, #1
 850              	.LVL56:
  20:Src/Settings/song.cpp **** 		if (list->entry_[i] == track_index) {
 851              		.loc 1 20 20 view .LVU289
 852 0180 55E7     		b	.L129
 853              	.LBE107:
 854              		.cfi_endproc
 855              	.LFE2523:
 857 0182 00BF     		.section	.text._ZN4Song4saveER10FileWriter,"ax",%progbits
 858              		.align	1
 859              		.p2align 2,,3
 860              		.global	_ZN4Song4saveER10FileWriter
 861              		.syntax unified
 862              		.thumb
 863              		.thumb_func
 864              		.fpu fpv4-sp-d16
 866              	_ZN4Song4saveER10FileWriter:
 867              	.LVL57:
 868              	.LFB2524:
  30:Src/Settings/song.cpp **** 
  31:Src/Settings/song.cpp **** void Song::save(FileWriter &fileWriter) {
 869              		.loc 1 31 41 view -0
 870              		.cfi_startproc
 871              		@ args = 0, pretend = 0, frame = 8
 872              		@ frame_needed = 0, uses_anonymous_args = 0
  32:Src/Settings/song.cpp **** 	fileWriter.write(mute_flags);
 873              		.loc 1 32 2 view .LVU291
  31:Src/Settings/song.cpp **** 	fileWriter.write(mute_flags);
 874              		.loc 1 31 41 is_stmt 0 view .LVU292
 875 0000 2DE9F047 		push	{r4, r5, r6, r7, r8, r9, r10, lr}
 876              		.cfi_def_cfa_offset 32
 877              		.cfi_offset 4, -32
 878              		.cfi_offset 5, -28
 879              		.cfi_offset 6, -24
 880              		.cfi_offset 7, -20
 881              		.cfi_offset 8, -16
 882              		.cfi_offset 9, -12
 883              		.cfi_offset 10, -8
 884              		.cfi_offset 14, -4
 885              	.LBB226:
 886              	.LBB227:
 887              	.LBB228:
ARM GAS  /var/folders/84/_x1cyy_j36g486tldtwl37280000gn/T//cctc5fkA.s 			page 21


 888              		.file 2 "Src/Disk/fileWriter.h"
   1:Src/Disk/fileWriter.h **** #ifndef FileWriter_h
   2:Src/Disk/fileWriter.h **** #define FileWriter_h
   3:Src/Disk/fileWriter.h **** 
   4:Src/Disk/fileWriter.h **** // based on westlicht's fileWriter
   5:Src/Disk/fileWriter.h **** 
   6:Src/Disk/fileWriter.h **** #include "file.h"
   7:Src/Disk/fileWriter.h **** #include "hash.h"
   8:Src/Disk/fileWriter.h **** 
   9:Src/Disk/fileWriter.h **** class FileWriter {
  10:Src/Disk/fileWriter.h **** 
  11:Src/Disk/fileWriter.h **** public:
  12:Src/Disk/fileWriter.h **** 
  13:Src/Disk/fileWriter.h **** 	bool write_ok() {
  14:Src/Disk/fileWriter.h **** 		return write_ok_;
  15:Src/Disk/fileWriter.h **** 	}
  16:Src/Disk/fileWriter.h **** 
  17:Src/Disk/fileWriter.h **** 	void start(File *file, const char* path, uint32_t version) {
  18:Src/Disk/fileWriter.h **** 		buff_pos = 0;
  19:Src/Disk/fileWriter.h **** 
  20:Src/Disk/fileWriter.h **** 		file_ = file;
  21:Src/Disk/fileWriter.h **** 		write_ok_ = file_->open(path, File::WRITE | File::OPEN_ALWAYS);
  22:Src/Disk/fileWriter.h **** 
  23:Src/Disk/fileWriter.h **** 		hash_.init();
  24:Src/Disk/fileWriter.h **** 
  25:Src/Disk/fileWriter.h **** 		if (write_ok_) {
  26:Src/Disk/fileWriter.h **** 			write(version);
  27:Src/Disk/fileWriter.h **** 		}
  28:Src/Disk/fileWriter.h **** 	}
  29:Src/Disk/fileWriter.h **** 
  30:Src/Disk/fileWriter.h **** 	void stop() {
  31:Src/Disk/fileWriter.h **** 		// send remaing buffer data
  32:Src/Disk/fileWriter.h **** 		if (write_ok_) {
  33:Src/Disk/fileWriter.h **** 			write_ok_ = send_buffer();
  34:Src/Disk/fileWriter.h **** 		}
  35:Src/Disk/fileWriter.h **** 
  36:Src/Disk/fileWriter.h **** 		if (write_ok_) {
  37:Src/Disk/fileWriter.h **** 			uint32_t hash = hash_.read();
  38:Src/Disk/fileWriter.h **** 			write_ok_ = file_->write(&hash, sizeof(hash));
  39:Src/Disk/fileWriter.h **** 		}
  40:Src/Disk/fileWriter.h **** 
  41:Src/Disk/fileWriter.h **** 		if (!write_ok_) {
  42:Src/Disk/fileWriter.h **** 			file_->close();
  43:Src/Disk/fileWriter.h **** 			return;
  44:Src/Disk/fileWriter.h **** 		}
  45:Src/Disk/fileWriter.h **** 
  46:Src/Disk/fileWriter.h **** 		write_ok_ = file_->close();
  47:Src/Disk/fileWriter.h **** 	}
  48:Src/Disk/fileWriter.h **** 
  49:Src/Disk/fileWriter.h **** 	template<typename T>
  50:Src/Disk/fileWriter.h **** 	void write(T &data) {
  51:Src/Disk/fileWriter.h **** 		write_buffer(&data, sizeof(T));
  52:Src/Disk/fileWriter.h **** 		hash_.write(&data, sizeof(T));
  53:Src/Disk/fileWriter.h **** 	}
  54:Src/Disk/fileWriter.h **** 
  55:Src/Disk/fileWriter.h **** private:
  56:Src/Disk/fileWriter.h **** 	static const int kBufferSize = 512;
ARM GAS  /var/folders/84/_x1cyy_j36g486tldtwl37280000gn/T//cctc5fkA.s 			page 22


  57:Src/Disk/fileWriter.h **** 	uint8_t buffer[kBufferSize];
  58:Src/Disk/fileWriter.h **** 	uint32_t buff_pos;
  59:Src/Disk/fileWriter.h **** 
  60:Src/Disk/fileWriter.h **** 	File *file_;
  61:Src/Disk/fileWriter.h **** 	Hash hash_;
  62:Src/Disk/fileWriter.h **** 	bool write_ok_;
  63:Src/Disk/fileWriter.h **** 
  64:Src/Disk/fileWriter.h **** 
  65:Src/Disk/fileWriter.h **** 	void write_buffer(void *data, uint32_t size) {
  66:Src/Disk/fileWriter.h **** 		uint8_t *data_ = reinterpret_cast<uint8_t *>(data);
  67:Src/Disk/fileWriter.h **** 
  68:Src/Disk/fileWriter.h **** 		while (write_ok_ && (size > 0)) {
 889              		.loc 2 68 10 view .LVU293
 890 0004 91F80C22 		ldrb	r2, [r1, #524]	@ zero_extendqisi2
 891              	.LBE228:
 892              	.LBE227:
 893              	.LBE226:
  31:Src/Settings/song.cpp **** 	fileWriter.write(mute_flags);
 894              		.loc 1 31 41 view .LVU294
 895 0008 82B0     		sub	sp, sp, #8
 896              		.cfi_def_cfa_offset 40
  31:Src/Settings/song.cpp **** 	fileWriter.write(mute_flags);
 897              		.loc 1 31 41 view .LVU295
 898 000a 0C46     		mov	r4, r1
 899 000c 0546     		mov	r5, r0
 900              		.loc 1 32 19 view .LVU296
 901 000e 00F17807 		add	r7, r0, #120
 902              	.LVL58:
 903              	.LBB247:
 904              	.LBI226:
  50:Src/Disk/fileWriter.h **** 		write_buffer(&data, sizeof(T));
 905              		.loc 2 50 7 is_stmt 1 view .LVU297
 906              	.LBB242:
 907              	.LBI227:
  65:Src/Disk/fileWriter.h **** 		uint8_t *data_ = reinterpret_cast<uint8_t *>(data);
 908              		.loc 2 65 7 view .LVU298
 909              	.LBB239:
 910              		.loc 2 68 3 view .LVU299
 911              		.loc 2 68 20 view .LVU300
 912 0012 7AB3     		cbz	r2, .L158
  69:Src/Disk/fileWriter.h **** 			if (buff_pos < kBufferSize) {
 913              		.loc 2 69 8 is_stmt 0 view .LVU301
 914 0014 D4F80022 		ldr	r2, [r4, #512]
 915 0018 B846     		mov	r8, r7
 916              		.loc 2 69 4 view .LVU302
 917 001a B2F5007F 		cmp	r2, #512
  68:Src/Disk/fileWriter.h **** 			if (buff_pos < kBufferSize) {
 918              		.loc 2 68 20 view .LVU303
 919 001e 4FF00406 		mov	r6, #4
 920              		.loc 2 69 4 is_stmt 1 view .LVU304
  70:Src/Disk/fileWriter.h **** 				buffer[buff_pos++] = *data_++;
 921              		.loc 2 70 5 view .LVU305
 922              		.loc 2 70 32 is_stmt 0 view .LVU306
 923 0022 4046     		mov	r0, r8
 924              	.LVL59:
 925              		.loc 2 70 20 view .LVU307
 926 0024 02F10101 		add	r1, r2, #1
ARM GAS  /var/folders/84/_x1cyy_j36g486tldtwl37280000gn/T//cctc5fkA.s 			page 23


 927              	.LVL60:
  69:Src/Disk/fileWriter.h **** 			if (buff_pos < kBufferSize) {
 928              		.loc 2 69 4 view .LVU308
 929 0028 12D2     		bcs	.L159
 930              	.LVL61:
 931              	.L317:
 932              		.loc 2 70 20 view .LVU309
 933 002a C4F80012 		str	r1, [r4, #512]
 934              		.loc 2 70 26 view .LVU310
 935 002e 10F8013B 		ldrb	r3, [r0], #1	@ zero_extendqisi2
 936              	.LVL62:
 937              		.loc 2 70 24 view .LVU311
 938 0032 A354     		strb	r3, [r4, r2]
  71:Src/Disk/fileWriter.h **** 				--size;
 939              		.loc 2 71 5 is_stmt 1 view .LVU312
 940              	.LVL63:
 941              		.loc 2 71 5 is_stmt 0 view .LVU313
 942 0034 94F80C22 		ldrb	r2, [r4, #524]	@ zero_extendqisi2
 943 0038 013E     		subs	r6, r6, #1
 944              	.LVL64:
  68:Src/Disk/fileWriter.h **** 			if (buff_pos < kBufferSize) {
 945              		.loc 2 68 3 is_stmt 1 view .LVU314
  68:Src/Disk/fileWriter.h **** 			if (buff_pos < kBufferSize) {
 946              		.loc 2 68 20 view .LVU315
 947 003a D2B1     		cbz	r2, .L161
  68:Src/Disk/fileWriter.h **** 			if (buff_pos < kBufferSize) {
 948              		.loc 2 68 20 is_stmt 0 view .LVU316
 949 003c D6B1     		cbz	r6, .L158
 950              	.LVL65:
  72:Src/Disk/fileWriter.h **** 			} else {
  73:Src/Disk/fileWriter.h **** 				write_ok_ = send_buffer();
 951              		.loc 2 73 15 view .LVU317
 952 003e 8046     		mov	r8, r0
 953              	.LVL66:
 954              	.L330:
  69:Src/Disk/fileWriter.h **** 				buffer[buff_pos++] = *data_++;
 955              		.loc 2 69 4 is_stmt 1 view .LVU318
  70:Src/Disk/fileWriter.h **** 				--size;
 956              		.loc 2 70 5 view .LVU319
  69:Src/Disk/fileWriter.h **** 				buffer[buff_pos++] = *data_++;
 957              		.loc 2 69 8 is_stmt 0 view .LVU320
 958 0040 D4F80022 		ldr	r2, [r4, #512]
  69:Src/Disk/fileWriter.h **** 				buffer[buff_pos++] = *data_++;
 959              		.loc 2 69 4 view .LVU321
 960 0044 B2F5007F 		cmp	r2, #512
  70:Src/Disk/fileWriter.h **** 				--size;
 961              		.loc 2 70 32 view .LVU322
 962 0048 4046     		mov	r0, r8
 963              	.LVL67:
  70:Src/Disk/fileWriter.h **** 				--size;
 964              		.loc 2 70 20 view .LVU323
 965 004a 02F10101 		add	r1, r2, #1
  69:Src/Disk/fileWriter.h **** 				buffer[buff_pos++] = *data_++;
 966              		.loc 2 69 4 view .LVU324
 967 004e ECD3     		bcc	.L317
 968              	.LVL68:
 969              	.L159:
ARM GAS  /var/folders/84/_x1cyy_j36g486tldtwl37280000gn/T//cctc5fkA.s 			page 24


 970              		.loc 2 73 5 is_stmt 1 view .LVU325
 971              	.LBB229:
 972              	.LBI229:
  74:Src/Disk/fileWriter.h **** 			}
  75:Src/Disk/fileWriter.h **** 		}
  76:Src/Disk/fileWriter.h **** 	}
  77:Src/Disk/fileWriter.h **** 
  78:Src/Disk/fileWriter.h **** 	bool send_buffer() {
 973              		.loc 2 78 7 view .LVU326
 974              	.LBB230:
  79:Src/Disk/fileWriter.h **** 		uint32_t size = buff_pos;
 975              		.loc 2 79 3 view .LVU327
  80:Src/Disk/fileWriter.h **** 		buff_pos = 0;
 976              		.loc 2 80 3 view .LVU328
  81:Src/Disk/fileWriter.h **** 		return file_->write(buffer, size);
 977              		.loc 2 81 22 is_stmt 0 view .LVU329
 978 0050 D4F80432 		ldr	r3, [r4, #516]
  80:Src/Disk/fileWriter.h **** 		buff_pos = 0;
 979              		.loc 2 80 12 view .LVU330
 980 0054 4FF00009 		mov	r9, #0
 981              	.LBB231:
 982              	.LBB232:
 983              		.file 3 "Src/Disk/file.h"
   1:Src/Disk/file.h **** #ifndef File_h
   2:Src/Disk/file.h **** #define File_h
   3:Src/Disk/file.h **** 
   4:Src/Disk/file.h **** #include "ff.h"
   5:Src/Disk/file.h **** #include "stringBuilder.h"
   6:Src/Disk/file.h **** 
   7:Src/Disk/file.h **** class File {
   8:Src/Disk/file.h **** 
   9:Src/Disk/file.h **** public:
  10:Src/Disk/file.h **** 
  11:Src/Disk/file.h **** 	enum Mode {
  12:Src/Disk/file.h **** 		OPEN_EXISTING	= 0x00,
  13:Src/Disk/file.h **** 		READ			= 0x01,
  14:Src/Disk/file.h **** 		WRITE			= 0x02,
  15:Src/Disk/file.h **** 		CREATE_NEW		= 0x04,	// Creates a new file, the function fails if the file is existing.
  16:Src/Disk/file.h **** 		CREATE_ALWAYS	= 0x08,	// Creates a new file, if the file is existing, it will be truncated and ov
  17:Src/Disk/file.h **** 		OPEN_ALWAYS		= 0x10,	// Opens the file if it is existing. If not, a new file will be created.
  18:Src/Disk/file.h **** 		OPEN_APPEND		= 0x30	// Same as OPEN_ALWAYS except the read/write pointer is set end of the file.
  19:Src/Disk/file.h **** 	};
  20:Src/Disk/file.h **** 
  21:Src/Disk/file.h **** 	void init(FIL* fil_, StringBuilder* dir_path_, FRESULT* res_) {
  22:Src/Disk/file.h **** 		fil = fil_;
  23:Src/Disk/file.h **** 		dir_path = dir_path_;
  24:Src/Disk/file.h **** 	}
  25:Src/Disk/file.h **** 
  26:Src/Disk/file.h **** 	bool open(const char* path_, uint8_t mode = READ) {
  27:Src/Disk/file.h **** 		return f_open(fil, path_, mode) == FR_OK;
  28:Src/Disk/file.h **** 	}
  29:Src/Disk/file.h **** 
  30:Src/Disk/file.h **** 	bool open(const char* dir, const char* name, uint8_t mode = READ) {
  31:Src/Disk/file.h **** 		return f_open(fil, path.write(dir, "/", name), mode) == FR_OK;
  32:Src/Disk/file.h **** 	}
  33:Src/Disk/file.h **** 
  34:Src/Disk/file.h **** 	bool open_in_curr_dir(const char* name, uint8_t mode = READ) {
ARM GAS  /var/folders/84/_x1cyy_j36g486tldtwl37280000gn/T//cctc5fkA.s 			page 25


  35:Src/Disk/file.h **** 		path.write(dir_path->read(), "/", name);
  36:Src/Disk/file.h **** 		return f_open(fil, path.read(), mode) == FR_OK;
  37:Src/Disk/file.h **** 	}
  38:Src/Disk/file.h **** 
  39:Src/Disk/file.h **** 	bool close() {
  40:Src/Disk/file.h **** 		return f_close(fil) == FR_OK;
  41:Src/Disk/file.h **** 	}
  42:Src/Disk/file.h **** 
  43:Src/Disk/file.h **** 	bool sync() {
  44:Src/Disk/file.h **** 		return f_sync(fil) == FR_OK;
  45:Src/Disk/file.h **** 	}
  46:Src/Disk/file.h **** 
  47:Src/Disk/file.h **** 	bool write(const void* data, uint32_t size, uint32_t* num_written = nullptr) {
  48:Src/Disk/file.h **** 		UINT bw;
  49:Src/Disk/file.h **** 		FRESULT res = f_write(fil, data, size, &bw);
 984              		.loc 3 49 24 view .LVU331
 985 0058 1868     		ldr	r0, [r3]
 986              	.LVL69:
 987              		.loc 3 49 24 view .LVU332
 988              	.LBE232:
 989              	.LBE231:
  80:Src/Disk/fileWriter.h **** 		return file_->write(buffer, size);
 990              		.loc 2 80 12 view .LVU333
 991 005a C4F80092 		str	r9, [r4, #512]
 992              		.loc 2 81 3 is_stmt 1 view .LVU334
 993              	.LVL70:
 994              	.LBB235:
 995              	.LBI231:
  47:Src/Disk/file.h **** 		UINT bw;
 996              		.loc 3 47 7 view .LVU335
 997              	.LBB233:
  48:Src/Disk/file.h **** 		FRESULT res = f_write(fil, data, size, &bw);
 998              		.loc 3 48 3 view .LVU336
 999              		.loc 3 49 3 view .LVU337
 1000              		.loc 3 49 24 is_stmt 0 view .LVU338
 1001 005e 01AB     		add	r3, sp, #4
 1002              	.LVL71:
 1003              		.loc 3 49 24 view .LVU339
 1004 0060 2146     		mov	r1, r4
 1005 0062 FFF7FEFF 		bl	f_write
 1006              	.LVL72:
  50:Src/Disk/file.h **** 		if (num_written) {
  51:Src/Disk/file.h **** 			*num_written = bw;
  52:Src/Disk/file.h **** 		}
  53:Src/Disk/file.h **** 		return (bw > 0) && (res == FR_OK);
 1007              		.loc 3 53 19 view .LVU340
 1008 0066 019A     		ldr	r2, [sp, #4]
 1009              	.LVL73:
  50:Src/Disk/file.h **** 		if (num_written) {
 1010              		.loc 3 50 3 is_stmt 1 view .LVU341
 1011              		.loc 3 53 3 view .LVU342
 1012              		.loc 3 53 19 is_stmt 0 view .LVU343
 1013 0068 002A     		cmp	r2, #0
 1014 006a 40F0AD82 		bne	.L162
 1015              	.LVL74:
 1016              		.loc 3 53 19 view .LVU344
 1017              	.LBE233:
ARM GAS  /var/folders/84/_x1cyy_j36g486tldtwl37280000gn/T//cctc5fkA.s 			page 26


 1018              	.LBE235:
 1019              	.LBE230:
 1020              	.LBE229:
  73:Src/Disk/fileWriter.h **** 			}
 1021              		.loc 2 73 15 view .LVU345
 1022 006e 84F80C22 		strb	r2, [r4, #524]
 1023              	.LVL75:
  68:Src/Disk/fileWriter.h **** 			if (buff_pos < kBufferSize) {
 1024              		.loc 2 68 3 is_stmt 1 view .LVU346
  68:Src/Disk/fileWriter.h **** 			if (buff_pos < kBufferSize) {
 1025              		.loc 2 68 20 view .LVU347
 1026              	.L161:
  68:Src/Disk/fileWriter.h **** 			if (buff_pos < kBufferSize) {
 1027              		.loc 2 68 20 is_stmt 0 view .LVU348
 1028 0072 0022     		movs	r2, #0
 1029              	.LVL76:
 1030              	.L158:
  68:Src/Disk/fileWriter.h **** 			if (buff_pos < kBufferSize) {
 1031              		.loc 2 68 20 view .LVU349
 1032              	.LBE239:
 1033              	.LBE242:
 1034              	.LBB243:
 1035              	.LBB244:
 1036              		.file 4 "/Users/joostbooy/Desktop/Code/stm32/lib/utils/hash.h"
   1:/Users/joostbooy/Desktop/Code/stm32/lib/utils/hash.h **** #ifndef Hash_h
   2:/Users/joostbooy/Desktop/Code/stm32/lib/utils/hash.h **** #define Hash_h
   3:/Users/joostbooy/Desktop/Code/stm32/lib/utils/hash.h **** 
   4:/Users/joostbooy/Desktop/Code/stm32/lib/utils/hash.h **** // Westlicht fnvHash
   5:/Users/joostbooy/Desktop/Code/stm32/lib/utils/hash.h **** 
   6:/Users/joostbooy/Desktop/Code/stm32/lib/utils/hash.h **** class Hash {
   7:/Users/joostbooy/Desktop/Code/stm32/lib/utils/hash.h **** 
   8:/Users/joostbooy/Desktop/Code/stm32/lib/utils/hash.h **** public:
   9:/Users/joostbooy/Desktop/Code/stm32/lib/utils/hash.h **** 
  10:/Users/joostbooy/Desktop/Code/stm32/lib/utils/hash.h **** 	void init() {
  11:/Users/joostbooy/Desktop/Code/stm32/lib/utils/hash.h **** 		hash_ = 0x811c9dc5;
  12:/Users/joostbooy/Desktop/Code/stm32/lib/utils/hash.h **** 	}
  13:/Users/joostbooy/Desktop/Code/stm32/lib/utils/hash.h **** 
  14:/Users/joostbooy/Desktop/Code/stm32/lib/utils/hash.h **** 	uint32_t read() {
  15:/Users/joostbooy/Desktop/Code/stm32/lib/utils/hash.h **** 		return hash_;
  16:/Users/joostbooy/Desktop/Code/stm32/lib/utils/hash.h **** 	}
  17:/Users/joostbooy/Desktop/Code/stm32/lib/utils/hash.h **** 
  18:/Users/joostbooy/Desktop/Code/stm32/lib/utils/hash.h **** 	void write(void *data, size_t size) {
  19:/Users/joostbooy/Desktop/Code/stm32/lib/utils/hash.h **** 		uint8_t *data_ = static_cast<uint8_t *>(data);
  20:/Users/joostbooy/Desktop/Code/stm32/lib/utils/hash.h **** 		while (size--) {
  21:/Users/joostbooy/Desktop/Code/stm32/lib/utils/hash.h **** 			hash_ ^= *data_++;
 1037              		.loc 4 21 4 is_stmt 1 view .LVU350
  22:/Users/joostbooy/Desktop/Code/stm32/lib/utils/hash.h **** 			hash_ *= prime_;
 1038              		.loc 4 22 4 view .LVU351
  21:/Users/joostbooy/Desktop/Code/stm32/lib/utils/hash.h **** 			hash_ *= prime_;
 1039              		.loc 4 21 10 is_stmt 0 view .LVU352
 1040 0074 D4F80802 		ldr	r0, [r4, #520]
 1041 0078 95F87810 		ldrb	r1, [r5, #120]	@ zero_extendqisi2
 1042              		.loc 4 22 10 view .LVU353
 1043 007c 9F4B     		ldr	r3, .L332
  21:/Users/joostbooy/Desktop/Code/stm32/lib/utils/hash.h **** 			hash_ *= prime_;
 1044              		.loc 4 21 10 view .LVU354
 1045 007e 4140     		eors	r1, r1, r0
ARM GAS  /var/folders/84/_x1cyy_j36g486tldtwl37280000gn/T//cctc5fkA.s 			page 27


 1046              		.loc 4 22 10 view .LVU355
 1047 0080 03FB01F6 		mul	r6, r3, r1
 1048 0084 C4F80862 		str	r6, [r4, #520]
  20:/Users/joostbooy/Desktop/Code/stm32/lib/utils/hash.h **** 			hash_ ^= *data_++;
 1049              		.loc 4 20 3 is_stmt 1 view .LVU356
  20:/Users/joostbooy/Desktop/Code/stm32/lib/utils/hash.h **** 			hash_ ^= *data_++;
 1050              		.loc 4 20 14 view .LVU357
 1051              	.LVL77:
  21:/Users/joostbooy/Desktop/Code/stm32/lib/utils/hash.h **** 			hash_ *= prime_;
 1052              		.loc 4 21 4 view .LVU358
 1053              		.loc 4 22 4 view .LVU359
  21:/Users/joostbooy/Desktop/Code/stm32/lib/utils/hash.h **** 			hash_ *= prime_;
 1054              		.loc 4 21 10 is_stmt 0 view .LVU360
 1055 0088 95F87910 		ldrb	r1, [r5, #121]	@ zero_extendqisi2
 1056 008c 7140     		eors	r1, r1, r6
 1057              		.loc 4 22 10 view .LVU361
 1058 008e 03FB01F0 		mul	r0, r3, r1
 1059 0092 C4F80802 		str	r0, [r4, #520]
  20:/Users/joostbooy/Desktop/Code/stm32/lib/utils/hash.h **** 			hash_ ^= *data_++;
 1060              		.loc 4 20 3 is_stmt 1 view .LVU362
  20:/Users/joostbooy/Desktop/Code/stm32/lib/utils/hash.h **** 			hash_ ^= *data_++;
 1061              		.loc 4 20 14 view .LVU363
 1062              	.LVL78:
  21:/Users/joostbooy/Desktop/Code/stm32/lib/utils/hash.h **** 			hash_ *= prime_;
 1063              		.loc 4 21 4 view .LVU364
 1064              		.loc 4 22 4 view .LVU365
  21:/Users/joostbooy/Desktop/Code/stm32/lib/utils/hash.h **** 			hash_ *= prime_;
 1065              		.loc 4 21 10 is_stmt 0 view .LVU366
 1066 0096 95F87A60 		ldrb	r6, [r5, #122]	@ zero_extendqisi2
 1067 009a 4640     		eors	r6, r6, r0
 1068              		.loc 4 22 10 view .LVU367
 1069 009c 03FB06F6 		mul	r6, r3, r6
 1070 00a0 C4F80862 		str	r6, [r4, #520]
  20:/Users/joostbooy/Desktop/Code/stm32/lib/utils/hash.h **** 			hash_ ^= *data_++;
 1071              		.loc 4 20 3 is_stmt 1 view .LVU368
  20:/Users/joostbooy/Desktop/Code/stm32/lib/utils/hash.h **** 			hash_ ^= *data_++;
 1072              		.loc 4 20 14 view .LVU369
 1073              	.LVL79:
  21:/Users/joostbooy/Desktop/Code/stm32/lib/utils/hash.h **** 			hash_ *= prime_;
 1074              		.loc 4 21 4 view .LVU370
 1075              		.loc 4 22 4 view .LVU371
  21:/Users/joostbooy/Desktop/Code/stm32/lib/utils/hash.h **** 			hash_ *= prime_;
 1076              		.loc 4 21 10 is_stmt 0 view .LVU372
 1077 00a4 95F87B10 		ldrb	r1, [r5, #123]	@ zero_extendqisi2
 1078 00a8 4E40     		eors	r6, r6, r1
 1079              		.loc 4 22 10 view .LVU373
 1080 00aa 03FB06F3 		mul	r3, r3, r6
 1081 00ae C4F80832 		str	r3, [r4, #520]
  20:/Users/joostbooy/Desktop/Code/stm32/lib/utils/hash.h **** 			hash_ ^= *data_++;
 1082              		.loc 4 20 3 is_stmt 1 view .LVU374
  20:/Users/joostbooy/Desktop/Code/stm32/lib/utils/hash.h **** 			hash_ ^= *data_++;
 1083              		.loc 4 20 14 view .LVU375
 1084              	.LVL80:
  20:/Users/joostbooy/Desktop/Code/stm32/lib/utils/hash.h **** 			hash_ ^= *data_++;
 1085              		.loc 4 20 14 is_stmt 0 view .LVU376
 1086              	.LBE244:
 1087              	.LBE243:
ARM GAS  /var/folders/84/_x1cyy_j36g486tldtwl37280000gn/T//cctc5fkA.s 			page 28


 1088              	.LBE247:
  33:Src/Settings/song.cpp **** 	fileWriter.write(solo_flags);
 1089              		.loc 1 33 2 is_stmt 1 view .LVU377
 1090              		.loc 1 33 19 is_stmt 0 view .LVU378
 1091 00b2 05F17C08 		add	r8, r5, #124
 1092              	.LVL81:
 1093              	.LBB248:
 1094              	.LBI248:
  50:Src/Disk/fileWriter.h **** 		write_buffer(&data, sizeof(T));
 1095              		.loc 2 50 7 is_stmt 1 view .LVU379
 1096              	.LBB249:
 1097              	.LBB250:
  68:Src/Disk/fileWriter.h **** 			if (buff_pos < kBufferSize) {
 1098              		.loc 2 68 3 view .LVU380
  68:Src/Disk/fileWriter.h **** 			if (buff_pos < kBufferSize) {
 1099              		.loc 2 68 20 view .LVU381
 1100 00b6 0426     		movs	r6, #4
 1101 00b8 A2B3     		cbz	r2, .L166
 1102              	.LVL82:
  69:Src/Disk/fileWriter.h **** 				buffer[buff_pos++] = *data_++;
 1103              		.loc 2 69 4 view .LVU382
  70:Src/Disk/fileWriter.h **** 				--size;
 1104              		.loc 2 70 5 view .LVU383
  69:Src/Disk/fileWriter.h **** 				buffer[buff_pos++] = *data_++;
 1105              		.loc 2 69 8 is_stmt 0 view .LVU384
 1106 00ba D4F80022 		ldr	r2, [r4, #512]
  69:Src/Disk/fileWriter.h **** 				buffer[buff_pos++] = *data_++;
 1107              		.loc 2 69 4 view .LVU385
 1108 00be B2F5007F 		cmp	r2, #512
  70:Src/Disk/fileWriter.h **** 				--size;
 1109              		.loc 2 70 32 view .LVU386
 1110 00c2 C446     		mov	ip, r8
 1111              	.LVL83:
  70:Src/Disk/fileWriter.h **** 				--size;
 1112              		.loc 2 70 20 view .LVU387
 1113 00c4 02F10100 		add	r0, r2, #1
  69:Src/Disk/fileWriter.h **** 				buffer[buff_pos++] = *data_++;
 1114              		.loc 2 69 4 view .LVU388
 1115 00c8 14D2     		bcs	.L168
 1116              	.LVL84:
 1117              	.L318:
  70:Src/Disk/fileWriter.h **** 				--size;
 1118              		.loc 2 70 20 view .LVU389
 1119 00ca C4F80002 		str	r0, [r4, #512]
  70:Src/Disk/fileWriter.h **** 				--size;
 1120              		.loc 2 70 26 view .LVU390
 1121 00ce 1CF8010B 		ldrb	r0, [ip], #1	@ zero_extendqisi2
  70:Src/Disk/fileWriter.h **** 				--size;
 1122              		.loc 2 70 24 view .LVU391
 1123 00d2 A054     		strb	r0, [r4, r2]
  71:Src/Disk/fileWriter.h **** 			} else {
 1124              		.loc 2 71 5 is_stmt 1 view .LVU392
 1125              	.LVL85:
  71:Src/Disk/fileWriter.h **** 			} else {
 1126              		.loc 2 71 5 is_stmt 0 view .LVU393
 1127 00d4 94F80C22 		ldrb	r2, [r4, #524]	@ zero_extendqisi2
 1128 00d8 013E     		subs	r6, r6, #1
ARM GAS  /var/folders/84/_x1cyy_j36g486tldtwl37280000gn/T//cctc5fkA.s 			page 29


 1129              	.LVL86:
  68:Src/Disk/fileWriter.h **** 			if (buff_pos < kBufferSize) {
 1130              		.loc 2 68 3 is_stmt 1 view .LVU394
  68:Src/Disk/fileWriter.h **** 			if (buff_pos < kBufferSize) {
 1131              		.loc 2 68 20 view .LVU395
 1132 00da 02B3     		cbz	r2, .L170
  68:Src/Disk/fileWriter.h **** 			if (buff_pos < kBufferSize) {
 1133              		.loc 2 68 20 is_stmt 0 view .LVU396
 1134 00dc 002E     		cmp	r6, #0
 1135 00de 00F0F283 		beq	.L167
 1136              	.LVL87:
  73:Src/Disk/fileWriter.h **** 			}
 1137              		.loc 2 73 15 view .LVU397
 1138 00e2 E046     		mov	r8, ip
 1139              	.LVL88:
 1140              	.L328:
  69:Src/Disk/fileWriter.h **** 				buffer[buff_pos++] = *data_++;
 1141              		.loc 2 69 4 is_stmt 1 view .LVU398
  70:Src/Disk/fileWriter.h **** 				--size;
 1142              		.loc 2 70 5 view .LVU399
  69:Src/Disk/fileWriter.h **** 				buffer[buff_pos++] = *data_++;
 1143              		.loc 2 69 8 is_stmt 0 view .LVU400
 1144 00e4 D4F80022 		ldr	r2, [r4, #512]
  69:Src/Disk/fileWriter.h **** 				buffer[buff_pos++] = *data_++;
 1145              		.loc 2 69 4 view .LVU401
 1146 00e8 B2F5007F 		cmp	r2, #512
  70:Src/Disk/fileWriter.h **** 				--size;
 1147              		.loc 2 70 32 view .LVU402
 1148 00ec C446     		mov	ip, r8
 1149              	.LVL89:
  70:Src/Disk/fileWriter.h **** 				--size;
 1150              		.loc 2 70 20 view .LVU403
 1151 00ee 02F10100 		add	r0, r2, #1
  69:Src/Disk/fileWriter.h **** 				buffer[buff_pos++] = *data_++;
 1152              		.loc 2 69 4 view .LVU404
 1153 00f2 EAD3     		bcc	.L318
 1154              	.LVL90:
 1155              	.L168:
  73:Src/Disk/fileWriter.h **** 			}
 1156              		.loc 2 73 5 is_stmt 1 view .LVU405
 1157              	.LBB251:
 1158              	.LBI251:
  78:Src/Disk/fileWriter.h **** 		uint32_t size = buff_pos;
 1159              		.loc 2 78 7 view .LVU406
 1160              	.LBB252:
  79:Src/Disk/fileWriter.h **** 		buff_pos = 0;
 1161              		.loc 2 79 3 view .LVU407
  80:Src/Disk/fileWriter.h **** 		return file_->write(buffer, size);
 1162              		.loc 2 80 3 view .LVU408
 1163              		.loc 2 81 22 is_stmt 0 view .LVU409
 1164 00f4 D4F80432 		ldr	r3, [r4, #516]
  80:Src/Disk/fileWriter.h **** 		return file_->write(buffer, size);
 1165              		.loc 2 80 12 view .LVU410
 1166 00f8 4FF0000A 		mov	r10, #0
 1167              	.LBB253:
 1168              	.LBB254:
  49:Src/Disk/file.h **** 		if (num_written) {
ARM GAS  /var/folders/84/_x1cyy_j36g486tldtwl37280000gn/T//cctc5fkA.s 			page 30


 1169              		.loc 3 49 24 view .LVU411
 1170 00fc 1868     		ldr	r0, [r3]
 1171              	.LBE254:
 1172              	.LBE253:
  80:Src/Disk/fileWriter.h **** 		return file_->write(buffer, size);
 1173              		.loc 2 80 12 view .LVU412
 1174 00fe C4F800A2 		str	r10, [r4, #512]
 1175              		.loc 2 81 3 is_stmt 1 view .LVU413
 1176              	.LVL91:
 1177              	.LBB257:
 1178              	.LBI253:
  47:Src/Disk/file.h **** 		UINT bw;
 1179              		.loc 3 47 7 view .LVU414
 1180              	.LBB255:
  48:Src/Disk/file.h **** 		FRESULT res = f_write(fil, data, size, &bw);
 1181              		.loc 3 48 3 view .LVU415
  49:Src/Disk/file.h **** 		if (num_written) {
 1182              		.loc 3 49 3 view .LVU416
  49:Src/Disk/file.h **** 		if (num_written) {
 1183              		.loc 3 49 24 is_stmt 0 view .LVU417
 1184 0102 01AB     		add	r3, sp, #4
 1185              	.LVL92:
  49:Src/Disk/file.h **** 		if (num_written) {
 1186              		.loc 3 49 24 view .LVU418
 1187 0104 2146     		mov	r1, r4
 1188 0106 FFF7FEFF 		bl	f_write
 1189              	.LVL93:
 1190              		.loc 3 53 19 view .LVU419
 1191 010a 019A     		ldr	r2, [sp, #4]
 1192              	.LVL94:
  50:Src/Disk/file.h **** 			*num_written = bw;
 1193              		.loc 3 50 3 is_stmt 1 view .LVU420
 1194              		.loc 3 53 3 view .LVU421
 1195              		.loc 3 53 19 is_stmt 0 view .LVU422
 1196 010c 002A     		cmp	r2, #0
 1197 010e 00F05882 		beq	.L171
 1198              	.LVL95:
 1199              		.loc 3 53 19 view .LVU423
 1200              	.LBE255:
 1201              	.LBE257:
 1202              	.LBE252:
 1203              	.LBE251:
  73:Src/Disk/fileWriter.h **** 			}
 1204              		.loc 2 73 15 view .LVU424
 1205 0112 0121     		movs	r1, #1
 1206              	.LBB260:
 1207              	.LBB259:
 1208              	.LBB258:
 1209              	.LBB256:
 1210              		.loc 3 53 19 view .LVU425
 1211 0114 0028     		cmp	r0, #0
 1212 0116 00F0B983 		beq	.L172
 1213              	.LBE256:
 1214              	.LBE258:
 1215              	.LBE259:
 1216              	.LBE260:
  73:Src/Disk/fileWriter.h **** 			}
ARM GAS  /var/folders/84/_x1cyy_j36g486tldtwl37280000gn/T//cctc5fkA.s 			page 31


 1217              		.loc 2 73 15 view .LVU426
 1218 011a 84F80CA2 		strb	r10, [r4, #524]
 1219              	.LVL96:
  68:Src/Disk/fileWriter.h **** 			if (buff_pos < kBufferSize) {
 1220              		.loc 2 68 3 is_stmt 1 view .LVU427
  68:Src/Disk/fileWriter.h **** 			if (buff_pos < kBufferSize) {
 1221              		.loc 2 68 20 view .LVU428
 1222              	.L170:
  68:Src/Disk/fileWriter.h **** 			if (buff_pos < kBufferSize) {
 1223              		.loc 2 68 20 is_stmt 0 view .LVU429
 1224 011e D4F80832 		ldr	r3, [r4, #520]
 1225 0122 0022     		movs	r2, #0
 1226              	.L166:
 1227              	.LVL97:
  68:Src/Disk/fileWriter.h **** 			if (buff_pos < kBufferSize) {
 1228              		.loc 2 68 20 view .LVU430
 1229              	.LBE250:
 1230              	.LBE249:
 1231              	.LBB263:
 1232              	.LBB264:
  21:/Users/joostbooy/Desktop/Code/stm32/lib/utils/hash.h **** 			hash_ *= prime_;
 1233              		.loc 4 21 4 is_stmt 1 view .LVU431
 1234              		.loc 4 22 4 view .LVU432
  21:/Users/joostbooy/Desktop/Code/stm32/lib/utils/hash.h **** 			hash_ *= prime_;
 1235              		.loc 4 21 10 is_stmt 0 view .LVU433
 1236 0124 95F87C00 		ldrb	r0, [r5, #124]	@ zero_extendqisi2
 1237              		.loc 4 22 10 view .LVU434
 1238 0128 7449     		ldr	r1, .L332
  21:/Users/joostbooy/Desktop/Code/stm32/lib/utils/hash.h **** 			hash_ *= prime_;
 1239              		.loc 4 21 10 view .LVU435
 1240 012a 4340     		eors	r3, r3, r0
 1241              		.loc 4 22 10 view .LVU436
 1242 012c 01FB03F6 		mul	r6, r1, r3
 1243 0130 C4F80862 		str	r6, [r4, #520]
  20:/Users/joostbooy/Desktop/Code/stm32/lib/utils/hash.h **** 			hash_ ^= *data_++;
 1244              		.loc 4 20 3 is_stmt 1 view .LVU437
  20:/Users/joostbooy/Desktop/Code/stm32/lib/utils/hash.h **** 			hash_ ^= *data_++;
 1245              		.loc 4 20 14 view .LVU438
 1246              	.LVL98:
  21:/Users/joostbooy/Desktop/Code/stm32/lib/utils/hash.h **** 			hash_ *= prime_;
 1247              		.loc 4 21 4 view .LVU439
 1248              		.loc 4 22 4 view .LVU440
  21:/Users/joostbooy/Desktop/Code/stm32/lib/utils/hash.h **** 			hash_ *= prime_;
 1249              		.loc 4 21 10 is_stmt 0 view .LVU441
 1250 0134 95F87D30 		ldrb	r3, [r5, #125]	@ zero_extendqisi2
 1251 0138 7340     		eors	r3, r3, r6
 1252              		.loc 4 22 10 view .LVU442
 1253 013a 01FB03F0 		mul	r0, r1, r3
 1254 013e C4F80802 		str	r0, [r4, #520]
  20:/Users/joostbooy/Desktop/Code/stm32/lib/utils/hash.h **** 			hash_ ^= *data_++;
 1255              		.loc 4 20 3 is_stmt 1 view .LVU443
  20:/Users/joostbooy/Desktop/Code/stm32/lib/utils/hash.h **** 			hash_ ^= *data_++;
 1256              		.loc 4 20 14 view .LVU444
 1257              	.LVL99:
  21:/Users/joostbooy/Desktop/Code/stm32/lib/utils/hash.h **** 			hash_ *= prime_;
 1258              		.loc 4 21 4 view .LVU445
 1259              		.loc 4 22 4 view .LVU446
ARM GAS  /var/folders/84/_x1cyy_j36g486tldtwl37280000gn/T//cctc5fkA.s 			page 32


  21:/Users/joostbooy/Desktop/Code/stm32/lib/utils/hash.h **** 			hash_ *= prime_;
 1260              		.loc 4 21 10 is_stmt 0 view .LVU447
 1261 0142 95F87E60 		ldrb	r6, [r5, #126]	@ zero_extendqisi2
 1262 0146 4640     		eors	r6, r6, r0
 1263              		.loc 4 22 10 view .LVU448
 1264 0148 01FB06F6 		mul	r6, r1, r6
 1265 014c C4F80862 		str	r6, [r4, #520]
  20:/Users/joostbooy/Desktop/Code/stm32/lib/utils/hash.h **** 			hash_ ^= *data_++;
 1266              		.loc 4 20 3 is_stmt 1 view .LVU449
  20:/Users/joostbooy/Desktop/Code/stm32/lib/utils/hash.h **** 			hash_ ^= *data_++;
 1267              		.loc 4 20 14 view .LVU450
 1268              	.LVL100:
  21:/Users/joostbooy/Desktop/Code/stm32/lib/utils/hash.h **** 			hash_ *= prime_;
 1269              		.loc 4 21 4 view .LVU451
 1270              		.loc 4 22 4 view .LVU452
  21:/Users/joostbooy/Desktop/Code/stm32/lib/utils/hash.h **** 			hash_ *= prime_;
 1271              		.loc 4 21 10 is_stmt 0 view .LVU453
 1272 0150 95F87F30 		ldrb	r3, [r5, #127]	@ zero_extendqisi2
 1273 0154 5E40     		eors	r6, r6, r3
 1274              		.loc 4 22 10 view .LVU454
 1275 0156 01FB06F1 		mul	r1, r1, r6
 1276 015a C4F80812 		str	r1, [r4, #520]
  20:/Users/joostbooy/Desktop/Code/stm32/lib/utils/hash.h **** 			hash_ ^= *data_++;
 1277              		.loc 4 20 3 is_stmt 1 view .LVU455
  20:/Users/joostbooy/Desktop/Code/stm32/lib/utils/hash.h **** 			hash_ ^= *data_++;
 1278              		.loc 4 20 14 view .LVU456
 1279              	.LVL101:
  20:/Users/joostbooy/Desktop/Code/stm32/lib/utils/hash.h **** 			hash_ ^= *data_++;
 1280              		.loc 4 20 14 is_stmt 0 view .LVU457
 1281              	.LBE264:
 1282              	.LBE263:
 1283              	.LBE248:
  34:Src/Settings/song.cpp **** 
  35:Src/Settings/song.cpp **** 	scale.save(fileWriter);
 1284              		.loc 1 35 2 is_stmt 1 view .LVU458
 1285              	.LBB267:
 1286              	.LBI267:
 1287              		.file 5 "Src/Settings/scale.h"
   1:Src/Settings/scale.h **** #ifndef Scale_h
   2:Src/Settings/scale.h **** #define Scale_h
   3:Src/Settings/scale.h **** 
   4:Src/Settings/scale.h **** #include "stack.h"
   5:Src/Settings/scale.h **** #include "uiText.h"
   6:Src/Settings/scale.h **** #include "lookUpTables.h"
   7:Src/Settings/scale.h **** #include "fileWriter.h"
   8:Src/Settings/scale.h **** #include "fileReader.h"
   9:Src/Settings/scale.h **** 
  10:Src/Settings/scale.h **** class Scale {
  11:Src/Settings/scale.h **** 
  12:Src/Settings/scale.h **** public:
  13:Src/Settings/scale.h **** 
  14:Src/Settings/scale.h **** 	enum Type {
  15:Src/Settings/scale.h **** 		MAJOR,
  16:Src/Settings/scale.h **** 		MINOR,
  17:Src/Settings/scale.h **** 		MIXOLYDIAN,
  18:Src/Settings/scale.h **** 		DORIAN,
  19:Src/Settings/scale.h **** 		PHRYGIAN,
ARM GAS  /var/folders/84/_x1cyy_j36g486tldtwl37280000gn/T//cctc5fkA.s 			page 33


  20:Src/Settings/scale.h **** 		LYDIAN,
  21:Src/Settings/scale.h **** 		AEOLYIAN,
  22:Src/Settings/scale.h **** 		LOCRIAN,
  23:Src/Settings/scale.h **** 
  24:Src/Settings/scale.h **** 		NUM_TYPES
  25:Src/Settings/scale.h **** 	};
  26:Src/Settings/scale.h **** 
  27:Src/Settings/scale.h **** 	static const char* type_text(uint8_t type) {
  28:Src/Settings/scale.h **** 		switch (type)
  29:Src/Settings/scale.h **** 		{
  30:Src/Settings/scale.h **** 		case MAJOR:			return "MAJOR";
  31:Src/Settings/scale.h **** 		case MINOR:			return "MINOR";
  32:Src/Settings/scale.h **** 		case MIXOLYDIAN:	return "MIXOLYDIAN";
  33:Src/Settings/scale.h **** 		case DORIAN:		return "DORIAN";
  34:Src/Settings/scale.h **** 		case PHRYGIAN:		return "PHRYGIAN";
  35:Src/Settings/scale.h **** 		case LYDIAN:		return "LYDIAN";
  36:Src/Settings/scale.h **** 		case AEOLYIAN:		return "AEOLYIAN";
  37:Src/Settings/scale.h **** 		case LOCRIAN:		return "LOCRIAN";
  38:Src/Settings/scale.h **** 		default:			return nullptr;
  39:Src/Settings/scale.h **** 			break;
  40:Src/Settings/scale.h **** 		}
  41:Src/Settings/scale.h **** 	}
  42:Src/Settings/scale.h **** 
  43:Src/Settings/scale.h **** 	inline void init() {
  44:Src/Settings/scale.h **** 		root_ = 0;
  45:Src/Settings/scale.h **** 		set_type(MAJOR);
  46:Src/Settings/scale.h **** 	}
  47:Src/Settings/scale.h **** 
  48:Src/Settings/scale.h **** 	// root
  49:Src/Settings/scale.h **** 	inline uint8_t root() {
  50:Src/Settings/scale.h **** 		return root_;
  51:Src/Settings/scale.h **** 	}
  52:Src/Settings/scale.h **** 
  53:Src/Settings/scale.h **** 	inline void set_root(int value) {
  54:Src/Settings/scale.h **** 		root_ = stmlib::clip(0, 11, value);
  55:Src/Settings/scale.h **** 		make_keymap();
  56:Src/Settings/scale.h **** 	}
  57:Src/Settings/scale.h **** 
  58:Src/Settings/scale.h **** 	const char* root_text() {
  59:Src/Settings/scale.h **** 		return UiText::note_text(root(), false);
  60:Src/Settings/scale.h **** 	}
  61:Src/Settings/scale.h **** 
  62:Src/Settings/scale.h **** 	// type
  63:Src/Settings/scale.h **** 	inline uint8_t type() {
  64:Src/Settings/scale.h **** 		return type_;
  65:Src/Settings/scale.h **** 	}
  66:Src/Settings/scale.h **** 
  67:Src/Settings/scale.h **** 	inline void set_type(int value) {
  68:Src/Settings/scale.h **** 		type_ = stmlib::clip(0, NUM_TYPES - 1, value);
  69:Src/Settings/scale.h **** 
  70:Src/Settings/scale.h **** 		switch (type_)
  71:Src/Settings/scale.h **** 		{
  72:Src/Settings/scale.h **** 		case MAJOR:
  73:Src/Settings/scale.h **** 			lut_ptr = lut_scale_major;
  74:Src/Settings/scale.h **** 			lut_map_ptr = lut_scale_major_map;
  75:Src/Settings/scale.h **** 			break;
  76:Src/Settings/scale.h **** 		case MINOR:
ARM GAS  /var/folders/84/_x1cyy_j36g486tldtwl37280000gn/T//cctc5fkA.s 			page 34


  77:Src/Settings/scale.h **** 			lut_ptr = lut_scale_minor;
  78:Src/Settings/scale.h **** 			lut_map_ptr = lut_scale_minor_map;
  79:Src/Settings/scale.h **** 			break;
  80:Src/Settings/scale.h **** 		case MIXOLYDIAN:
  81:Src/Settings/scale.h **** 			lut_ptr = lut_scale_mixolydian;
  82:Src/Settings/scale.h **** 			lut_map_ptr = lut_scale_mixolydian_map;
  83:Src/Settings/scale.h **** 			break;
  84:Src/Settings/scale.h **** 		case DORIAN:
  85:Src/Settings/scale.h **** 			lut_ptr = lut_scale_dorian;
  86:Src/Settings/scale.h **** 			lut_map_ptr = lut_scale_dorian_map;
  87:Src/Settings/scale.h **** 			break;
  88:Src/Settings/scale.h **** 		case PHRYGIAN:
  89:Src/Settings/scale.h **** 			lut_ptr = lut_scale_phrygian;
  90:Src/Settings/scale.h **** 			lut_map_ptr = lut_scale_phrygian_map;
  91:Src/Settings/scale.h **** 			break;
  92:Src/Settings/scale.h **** 		case LYDIAN:
  93:Src/Settings/scale.h **** 			lut_ptr = lut_scale_lydian;
  94:Src/Settings/scale.h **** 			lut_map_ptr = lut_scale_lydian_map;
  95:Src/Settings/scale.h **** 			break;
  96:Src/Settings/scale.h **** 		case AEOLYIAN:
  97:Src/Settings/scale.h **** 			lut_ptr = lut_scale_aeolyian;
  98:Src/Settings/scale.h **** 			lut_map_ptr = lut_scale_aeolyian_map;
  99:Src/Settings/scale.h **** 			break;
 100:Src/Settings/scale.h **** 		case LOCRIAN:
 101:Src/Settings/scale.h **** 			lut_ptr = lut_scale_locrian;
 102:Src/Settings/scale.h **** 			lut_map_ptr = lut_scale_locrian_map;
 103:Src/Settings/scale.h **** 			break;
 104:Src/Settings/scale.h **** 		default:
 105:Src/Settings/scale.h **** 			break;
 106:Src/Settings/scale.h **** 		}
 107:Src/Settings/scale.h **** 		make_keymap();
 108:Src/Settings/scale.h **** 	}
 109:Src/Settings/scale.h **** 
 110:Src/Settings/scale.h **** 	const char* type_text() {
 111:Src/Settings/scale.h **** 		return type_text(type());
 112:Src/Settings/scale.h **** 	}
 113:Src/Settings/scale.h **** 
 114:Src/Settings/scale.h **** 	// methods
 115:Src/Settings/scale.h **** 	inline uint8_t read(uint8_t index) {
 116:Src/Settings/scale.h **** 		return lut_ptr[index] + root_;
 117:Src/Settings/scale.h **** 	}
 118:Src/Settings/scale.h **** 
 119:Src/Settings/scale.h **** 	inline uint8_t read_map(uint8_t note) {
 120:Src/Settings/scale.h **** 		uint8_t scale_note = lut_map_ptr[note] + root_;
 121:Src/Settings/scale.h **** 		return scale_note > highest_note ? highest_note : scale_note;
 122:Src/Settings/scale.h **** 	}
 123:Src/Settings/scale.h **** 
 124:Src/Settings/scale.h **** 	inline uint8_t snap_and_transpose(uint8_t note) {
 125:Src/Settings/scale.h **** 		uint8_t oct = 0;
 126:Src/Settings/scale.h **** 		while (note >= 12){
 127:Src/Settings/scale.h **** 			note -= 12;
 128:Src/Settings/scale.h **** 			oct += 12;
 129:Src/Settings/scale.h **** 		}
 130:Src/Settings/scale.h **** 
 131:Src/Settings/scale.h **** 		uint8_t quantised_note;
 132:Src/Settings/scale.h **** 		for (uint8_t i = 0; i < NOTES_IN_SCALE; ++i) {
 133:Src/Settings/scale.h **** 			quantised_note = keymap.read(i);
ARM GAS  /var/folders/84/_x1cyy_j36g486tldtwl37280000gn/T//cctc5fkA.s 			page 35


 134:Src/Settings/scale.h **** 			if (quantised_note >= note) {
 135:Src/Settings/scale.h **** 				break;
 136:Src/Settings/scale.h **** 			}
 137:Src/Settings/scale.h **** 		}
 138:Src/Settings/scale.h **** 		quantised_note += oct;
 139:Src/Settings/scale.h **** 
 140:Src/Settings/scale.h **** 		return quantised_note > highest_note ? highest_note : quantised_note;
 141:Src/Settings/scale.h **** 	}
 142:Src/Settings/scale.h **** 
 143:Src/Settings/scale.h **** 	inline bool in_scale(uint8_t note) {
 144:Src/Settings/scale.h **** 		return snap_and_transpose(note) == note;
 145:Src/Settings/scale.h **** 	}
 146:Src/Settings/scale.h **** 
 147:Src/Settings/scale.h **** 	// storage
 148:Src/Settings/scale.h **** 	void load(FileReader &fileReader) {
 149:Src/Settings/scale.h **** 		fileReader.read(root_);
 150:Src/Settings/scale.h **** 		fileReader.read(type_);
 151:Src/Settings/scale.h **** 		set_root(root_);
 152:Src/Settings/scale.h **** 		set_type(type_);
 153:Src/Settings/scale.h **** 	}
 154:Src/Settings/scale.h **** 
 155:Src/Settings/scale.h **** 	void save(FileWriter &fileWriter) {
 1288              		.loc 5 155 7 view .LVU459
 1289              	.LBE267:
 156:Src/Settings/scale.h **** 		fileWriter.write(root_);
 1290              		.loc 5 156 3 view .LVU460
 1291              	.LBB323:
 1292              	.LBB268:
 1293              	.LBI268:
  50:Src/Disk/fileWriter.h **** 		write_buffer(&data, sizeof(T));
 1294              		.loc 2 50 7 view .LVU461
 1295              	.LBB269:
 1296              	.LBB270:
  68:Src/Disk/fileWriter.h **** 			if (buff_pos < kBufferSize) {
 1297              		.loc 2 68 3 view .LVU462
  68:Src/Disk/fileWriter.h **** 			if (buff_pos < kBufferSize) {
 1298              		.loc 2 68 20 view .LVU463
 1299 015e 002A     		cmp	r2, #0
 1300 0160 00F00B82 		beq	.L174
 1301              	.L181:
  69:Src/Disk/fileWriter.h **** 				buffer[buff_pos++] = *data_++;
 1302              		.loc 2 69 4 view .LVU464
  69:Src/Disk/fileWriter.h **** 				buffer[buff_pos++] = *data_++;
 1303              		.loc 2 69 8 is_stmt 0 view .LVU465
 1304 0164 D4F80022 		ldr	r2, [r4, #512]
  69:Src/Disk/fileWriter.h **** 				buffer[buff_pos++] = *data_++;
 1305              		.loc 2 69 4 view .LVU466
 1306 0168 B2F5007F 		cmp	r2, #512
 1307 016c 80F0EF81 		bcs	.L175
  70:Src/Disk/fileWriter.h **** 				--size;
 1308              		.loc 2 70 5 is_stmt 1 view .LVU467
 1309              	.LVL102:
  70:Src/Disk/fileWriter.h **** 				--size;
 1310              		.loc 2 70 20 is_stmt 0 view .LVU468
 1311 0170 501C     		adds	r0, r2, #1
 1312 0172 C4F80002 		str	r0, [r4, #512]
  70:Src/Disk/fileWriter.h **** 				--size;
ARM GAS  /var/folders/84/_x1cyy_j36g486tldtwl37280000gn/T//cctc5fkA.s 			page 36


 1313              		.loc 2 70 26 view .LVU469
 1314 0176 6B78     		ldrb	r3, [r5, #1]	@ zero_extendqisi2
  70:Src/Disk/fileWriter.h **** 				--size;
 1315              		.loc 2 70 24 view .LVU470
 1316 0178 A354     		strb	r3, [r4, r2]
  71:Src/Disk/fileWriter.h **** 			} else {
 1317              		.loc 2 71 5 is_stmt 1 view .LVU471
 1318              	.LVL103:
  68:Src/Disk/fileWriter.h **** 			if (buff_pos < kBufferSize) {
 1319              		.loc 2 68 3 view .LVU472
  68:Src/Disk/fileWriter.h **** 			if (buff_pos < kBufferSize) {
 1320              		.loc 2 68 20 view .LVU473
 1321              	.LBE270:
 1322              	.LBE269:
 1323              	.LBB284:
 1324              	.LBB285:
  21:/Users/joostbooy/Desktop/Code/stm32/lib/utils/hash.h **** 			hash_ *= prime_;
 1325              		.loc 4 21 10 is_stmt 0 view .LVU474
 1326 017a 6E78     		ldrb	r6, [r5, #1]	@ zero_extendqisi2
 1327 017c D4F80802 		ldr	r0, [r4, #520]
 1328              		.loc 4 22 10 view .LVU475
 1329 0180 5E4A     		ldr	r2, .L332
 1330 0182 94F80C12 		ldrb	r1, [r4, #524]	@ zero_extendqisi2
 1331              	.LVL104:
  20:/Users/joostbooy/Desktop/Code/stm32/lib/utils/hash.h **** 			hash_ ^= *data_++;
 1332              		.loc 4 20 3 is_stmt 1 view .LVU476
  20:/Users/joostbooy/Desktop/Code/stm32/lib/utils/hash.h **** 			hash_ ^= *data_++;
 1333              		.loc 4 20 14 view .LVU477
  21:/Users/joostbooy/Desktop/Code/stm32/lib/utils/hash.h **** 			hash_ *= prime_;
 1334              		.loc 4 21 4 view .LVU478
 1335              		.loc 4 22 4 view .LVU479
  21:/Users/joostbooy/Desktop/Code/stm32/lib/utils/hash.h **** 			hash_ *= prime_;
 1336              		.loc 4 21 10 is_stmt 0 view .LVU480
 1337 0186 4640     		eors	r6, r6, r0
 1338              		.loc 4 22 10 view .LVU481
 1339 0188 02FB06F2 		mul	r2, r2, r6
 1340 018c C4F80822 		str	r2, [r4, #520]
  20:/Users/joostbooy/Desktop/Code/stm32/lib/utils/hash.h **** 			hash_ ^= *data_++;
 1341              		.loc 4 20 3 is_stmt 1 view .LVU482
  20:/Users/joostbooy/Desktop/Code/stm32/lib/utils/hash.h **** 			hash_ ^= *data_++;
 1342              		.loc 4 20 14 view .LVU483
 1343              	.LVL105:
  20:/Users/joostbooy/Desktop/Code/stm32/lib/utils/hash.h **** 			hash_ ^= *data_++;
 1344              		.loc 4 20 14 is_stmt 0 view .LVU484
 1345              	.LBE285:
 1346              	.LBE284:
 1347              	.LBE268:
 1348              	.LBE323:
 157:Src/Settings/scale.h **** 		fileWriter.write(type_);
 1349              		.loc 5 157 3 is_stmt 1 view .LVU485
 1350              	.LBB324:
 1351              	.LBB291:
 1352              	.LBI291:
  50:Src/Disk/fileWriter.h **** 		write_buffer(&data, sizeof(T));
 1353              		.loc 2 50 7 view .LVU486
 1354              	.LBB292:
 1355              	.LBB293:
ARM GAS  /var/folders/84/_x1cyy_j36g486tldtwl37280000gn/T//cctc5fkA.s 			page 37


  68:Src/Disk/fileWriter.h **** 			if (buff_pos < kBufferSize) {
 1356              		.loc 2 68 3 view .LVU487
  68:Src/Disk/fileWriter.h **** 			if (buff_pos < kBufferSize) {
 1357              		.loc 2 68 20 view .LVU488
 1358 0190 0029     		cmp	r1, #0
 1359 0192 00F0F981 		beq	.L177
 1360              	.L176:
  69:Src/Disk/fileWriter.h **** 				buffer[buff_pos++] = *data_++;
 1361              		.loc 2 69 4 view .LVU489
  69:Src/Disk/fileWriter.h **** 				buffer[buff_pos++] = *data_++;
 1362              		.loc 2 69 8 is_stmt 0 view .LVU490
 1363 0196 D4F80022 		ldr	r2, [r4, #512]
  69:Src/Disk/fileWriter.h **** 				buffer[buff_pos++] = *data_++;
 1364              		.loc 2 69 4 view .LVU491
 1365 019a B2F5007F 		cmp	r2, #512
 1366 019e 80F0FB81 		bcs	.L182
  70:Src/Disk/fileWriter.h **** 				--size;
 1367              		.loc 2 70 5 is_stmt 1 view .LVU492
 1368              	.LVL106:
  70:Src/Disk/fileWriter.h **** 				--size;
 1369              		.loc 2 70 20 is_stmt 0 view .LVU493
 1370 01a2 501C     		adds	r0, r2, #1
 1371 01a4 C4F80002 		str	r0, [r4, #512]
  70:Src/Disk/fileWriter.h **** 				--size;
 1372              		.loc 2 70 26 view .LVU494
 1373 01a8 2B78     		ldrb	r3, [r5]	@ zero_extendqisi2
  70:Src/Disk/fileWriter.h **** 				--size;
 1374              		.loc 2 70 24 view .LVU495
 1375 01aa A354     		strb	r3, [r4, r2]
  71:Src/Disk/fileWriter.h **** 			} else {
 1376              		.loc 2 71 5 is_stmt 1 view .LVU496
 1377              	.LVL107:
  68:Src/Disk/fileWriter.h **** 			if (buff_pos < kBufferSize) {
 1378              		.loc 2 68 3 view .LVU497
  68:Src/Disk/fileWriter.h **** 			if (buff_pos < kBufferSize) {
 1379              		.loc 2 68 20 view .LVU498
 1380              	.LBE293:
 1381              	.LBE292:
 1382              	.LBB308:
 1383              	.LBB309:
  21:/Users/joostbooy/Desktop/Code/stm32/lib/utils/hash.h **** 			hash_ *= prime_;
 1384              		.loc 4 21 10 is_stmt 0 view .LVU499
 1385 01ac 2E46     		mov	r6, r5
 1386 01ae D4F80802 		ldr	r0, [r4, #520]
 1387 01b2 16F8142B 		ldrb	r2, [r6], #20	@ zero_extendqisi2
 1388              		.loc 4 22 10 view .LVU500
 1389 01b6 514B     		ldr	r3, .L332
 1390 01b8 94F80C12 		ldrb	r1, [r4, #524]	@ zero_extendqisi2
 1391              	.LVL108:
  20:/Users/joostbooy/Desktop/Code/stm32/lib/utils/hash.h **** 			hash_ ^= *data_++;
 1392              		.loc 4 20 3 is_stmt 1 view .LVU501
  20:/Users/joostbooy/Desktop/Code/stm32/lib/utils/hash.h **** 			hash_ ^= *data_++;
 1393              		.loc 4 20 14 view .LVU502
  21:/Users/joostbooy/Desktop/Code/stm32/lib/utils/hash.h **** 			hash_ *= prime_;
 1394              		.loc 4 21 4 view .LVU503
 1395              		.loc 4 22 4 view .LVU504
  21:/Users/joostbooy/Desktop/Code/stm32/lib/utils/hash.h **** 			hash_ *= prime_;
ARM GAS  /var/folders/84/_x1cyy_j36g486tldtwl37280000gn/T//cctc5fkA.s 			page 38


 1396              		.loc 4 21 10 is_stmt 0 view .LVU505
 1397 01bc 4240     		eors	r2, r2, r0
 1398              		.loc 4 22 10 view .LVU506
 1399 01be 03FB02F3 		mul	r3, r3, r2
 1400 01c2 C4F80832 		str	r3, [r4, #520]
  20:/Users/joostbooy/Desktop/Code/stm32/lib/utils/hash.h **** 			hash_ ^= *data_++;
 1401              		.loc 4 20 3 is_stmt 1 view .LVU507
  20:/Users/joostbooy/Desktop/Code/stm32/lib/utils/hash.h **** 			hash_ ^= *data_++;
 1402              		.loc 4 20 14 view .LVU508
 1403              	.LVL109:
  20:/Users/joostbooy/Desktop/Code/stm32/lib/utils/hash.h **** 			hash_ ^= *data_++;
 1404              		.loc 4 20 14 is_stmt 0 view .LVU509
 1405              	.LBE309:
 1406              	.LBE308:
 1407              	.LBE291:
 1408              	.LBE324:
  36:Src/Settings/song.cpp **** 	midiClock.save(fileWriter);
 1409              		.loc 1 36 2 is_stmt 1 view .LVU510
 1410              	.LBB325:
 1411              	.LBI325:
 1412              		.file 6 "Src/Settings/midiClock.h"
   1:Src/Settings/midiClock.h **** #ifndef MidiClock_h
   2:Src/Settings/midiClock.h **** #define MidiClock_h
   3:Src/Settings/midiClock.h **** 
   4:Src/Settings/midiClock.h **** #include "uiText.h"
   5:Src/Settings/midiClock.h **** #include "midiPort.h"
   6:Src/Settings/midiClock.h **** #include "fileWriter.h"
   7:Src/Settings/midiClock.h **** #include "fileReader.h"
   8:Src/Settings/midiClock.h **** #include "lookupTables.h"
   9:Src/Settings/midiClock.h **** 
  10:Src/Settings/midiClock.h **** class MidiClock {
  11:Src/Settings/midiClock.h **** 
  12:Src/Settings/midiClock.h **** public:
  13:Src/Settings/midiClock.h **** 
  14:Src/Settings/midiClock.h **** 	void init() {
  15:Src/Settings/midiClock.h **** 		set_sync_port(INTERNAL);	// needs to be first
  16:Src/Settings/midiClock.h **** 		set_bpm(120);
  17:Src/Settings/midiClock.h **** 		set_bpm_fractional(0);
  18:Src/Settings/midiClock.h **** 
  19:Src/Settings/midiClock.h **** 		ext_bpm_ = 120;
  20:Src/Settings/midiClock.h **** 
  21:Src/Settings/midiClock.h **** 		reset();
  22:Src/Settings/midiClock.h **** 	}
  23:Src/Settings/midiClock.h **** 
  24:Src/Settings/midiClock.h **** 	enum SyncPort {
  25:Src/Settings/midiClock.h **** 		EXTERNAL = MidiPort::NUM_PORTS - 1,
  26:Src/Settings/midiClock.h **** 		INTERNAL,
  27:Src/Settings/midiClock.h **** 
  28:Src/Settings/midiClock.h **** 		NUM_SYNC_PORTS
  29:Src/Settings/midiClock.h **** 	};
  30:Src/Settings/midiClock.h **** 
  31:Src/Settings/midiClock.h **** 	const char* sync_port_text(int value) {
  32:Src/Settings/midiClock.h **** 		if (value <= EXTERNAL) {
  33:Src/Settings/midiClock.h **** 			return MidiPort::port_text(value);
  34:Src/Settings/midiClock.h **** 		} else {
  35:Src/Settings/midiClock.h **** 			return "INTERNAL";
  36:Src/Settings/midiClock.h **** 		}
ARM GAS  /var/folders/84/_x1cyy_j36g486tldtwl37280000gn/T//cctc5fkA.s 			page 39


  37:Src/Settings/midiClock.h **** 	}
  38:Src/Settings/midiClock.h **** 
  39:Src/Settings/midiClock.h **** 	// bpm
  40:Src/Settings/midiClock.h **** 	uint16_t bpm() {
  41:Src/Settings/midiClock.h **** 		return bpm_;
  42:Src/Settings/midiClock.h **** 	}
  43:Src/Settings/midiClock.h **** 
  44:Src/Settings/midiClock.h **** 	void set_bpm(int value) {
  45:Src/Settings/midiClock.h **** 		if (sync_port() == INTERNAL) {
  46:Src/Settings/midiClock.h **** 			bpm_ = stmlib::clip(0, MAX_BPM - 1, value);
  47:Src/Settings/midiClock.h **** 			update_inc(bpm(), bpm_fractional());
  48:Src/Settings/midiClock.h **** 		}
  49:Src/Settings/midiClock.h **** 	}
  50:Src/Settings/midiClock.h **** 
  51:Src/Settings/midiClock.h **** 	// bpm fractional
  52:Src/Settings/midiClock.h **** 	uint16_t bpm_fractional() {
  53:Src/Settings/midiClock.h **** 		return bpm_fractional_;
  54:Src/Settings/midiClock.h **** 	}
  55:Src/Settings/midiClock.h **** 
  56:Src/Settings/midiClock.h **** 	void set_bpm_fractional(int value) {
  57:Src/Settings/midiClock.h **** 		if (sync_port() == INTERNAL) {
  58:Src/Settings/midiClock.h **** 			bpm_fractional_ = stmlib::clip(0, MAX_BPM_FRACTIONAL - 1, value);
  59:Src/Settings/midiClock.h **** 			update_inc(bpm(), bpm_fractional());
  60:Src/Settings/midiClock.h **** 		}
  61:Src/Settings/midiClock.h **** 	}
  62:Src/Settings/midiClock.h **** 
  63:Src/Settings/midiClock.h **** 	const char* bpm_text() {
  64:Src/Settings/midiClock.h **** 		if (sync_port() == INTERNAL) {
  65:Src/Settings/midiClock.h **** 			return UiText::str.write(bpm(), ".", bpm_fractional());
  66:Src/Settings/midiClock.h **** 		}  else {
  67:Src/Settings/midiClock.h **** 			return UiText::str.write("EXT ", ext_bpm_, ".0");
  68:Src/Settings/midiClock.h **** 		}
  69:Src/Settings/midiClock.h **** 	}
  70:Src/Settings/midiClock.h **** 
  71:Src/Settings/midiClock.h **** 	// sync port
  72:Src/Settings/midiClock.h **** 	uint8_t sync_port() {
  73:Src/Settings/midiClock.h **** 		return sync_port_;
  74:Src/Settings/midiClock.h **** 	}
  75:Src/Settings/midiClock.h **** 
  76:Src/Settings/midiClock.h **** 	void set_sync_port(int value) {
  77:Src/Settings/midiClock.h **** 		sync_port_ = stmlib::clip(0, NUM_SYNC_PORTS - 1, value);
  78:Src/Settings/midiClock.h **** 	}
  79:Src/Settings/midiClock.h **** 
  80:Src/Settings/midiClock.h **** 	const char* sync_port_text() {
  81:Src/Settings/midiClock.h **** 		return sync_port_text(sync_port());
  82:Src/Settings/midiClock.h **** 	}
  83:Src/Settings/midiClock.h **** 
  84:Src/Settings/midiClock.h **** 
  85:Src/Settings/midiClock.h **** 	/***************
  86:Src/Settings/midiClock.h **** 	*	Methods
  87:Src/Settings/midiClock.h **** 	***************/
  88:Src/Settings/midiClock.h **** 
  89:Src/Settings/midiClock.h **** 	inline void reset() {
  90:Src/Settings/midiClock.h **** 		ticks = 0;
  91:Src/Settings/midiClock.h **** 		isr_ticks = 0;
  92:Src/Settings/midiClock.h **** 		isr_average = 0;
  93:Src/Settings/midiClock.h **** 		tempo_phase = 0;
ARM GAS  /var/folders/84/_x1cyy_j36g486tldtwl37280000gn/T//cctc5fkA.s 			page 40


  94:Src/Settings/midiClock.h **** 	}
  95:Src/Settings/midiClock.h **** 
  96:Src/Settings/midiClock.h **** 	inline bool tick() {
  97:Src/Settings/midiClock.h **** 		++isr_ticks;
  98:Src/Settings/midiClock.h **** 		tempo_phase += tempo_inc;
  99:Src/Settings/midiClock.h **** 		return tempo_phase < tempo_inc;
 100:Src/Settings/midiClock.h **** 	}
 101:Src/Settings/midiClock.h **** 
 102:Src/Settings/midiClock.h **** 	inline void sync_bpm() {
 103:Src/Settings/midiClock.h **** 		isr_average += isr_ticks;
 104:Src/Settings/midiClock.h **** 
 105:Src/Settings/midiClock.h **** 		if (((++num_readings % 4) == 0) && isr_average > 0) {
 106:Src/Settings/midiClock.h **** 			ext_bpm_ = uint32_t(45000000UL * 60UL / 24UL / (kUpdatePeriod * (isr_average / 4)));
 107:Src/Settings/midiClock.h **** 			update_inc(ext_bpm_, 0);
 108:Src/Settings/midiClock.h **** 			isr_average = 0;
 109:Src/Settings/midiClock.h **** 		}
 110:Src/Settings/midiClock.h **** 
 111:Src/Settings/midiClock.h **** 		isr_ticks = 0;
 112:Src/Settings/midiClock.h **** 	}
 113:Src/Settings/midiClock.h **** 
 114:Src/Settings/midiClock.h **** 	void save(FileWriter &fileWriter) {
 1413              		.loc 6 114 7 view .LVU511
 1414              	.LBB326:
 115:Src/Settings/midiClock.h **** 		fileWriter.write(bpm_);
 1415              		.loc 6 115 3 view .LVU512
 1416              	.LBB327:
 1417              	.LBI327:
  50:Src/Disk/fileWriter.h **** 		write_buffer(&data, sizeof(T));
 1418              		.loc 2 50 7 view .LVU513
 1419              	.LBB328:
 1420              	.LBB329:
  68:Src/Disk/fileWriter.h **** 			if (buff_pos < kBufferSize) {
 1421              		.loc 2 68 3 view .LVU514
  68:Src/Disk/fileWriter.h **** 			if (buff_pos < kBufferSize) {
 1422              		.loc 2 68 20 view .LVU515
 1423 01c6 4FF00208 		mov	r8, #2
 1424 01ca A1B3     		cbz	r1, .L184
 1425              	.LVL110:
  69:Src/Disk/fileWriter.h **** 				buffer[buff_pos++] = *data_++;
 1426              		.loc 2 69 4 view .LVU516
  70:Src/Disk/fileWriter.h **** 				--size;
 1427              		.loc 2 70 5 view .LVU517
  69:Src/Disk/fileWriter.h **** 				buffer[buff_pos++] = *data_++;
 1428              		.loc 2 69 8 is_stmt 0 view .LVU518
 1429 01cc D4F80022 		ldr	r2, [r4, #512]
  69:Src/Disk/fileWriter.h **** 				buffer[buff_pos++] = *data_++;
 1430              		.loc 2 69 4 view .LVU519
 1431 01d0 B2F5007F 		cmp	r2, #512
  70:Src/Disk/fileWriter.h **** 				--size;
 1432              		.loc 2 70 32 view .LVU520
 1433 01d4 B246     		mov	r10, r6
 1434              	.LVL111:
  70:Src/Disk/fileWriter.h **** 				--size;
 1435              		.loc 2 70 20 view .LVU521
 1436 01d6 02F10100 		add	r0, r2, #1
  69:Src/Disk/fileWriter.h **** 				buffer[buff_pos++] = *data_++;
 1437              		.loc 2 69 4 view .LVU522
ARM GAS  /var/folders/84/_x1cyy_j36g486tldtwl37280000gn/T//cctc5fkA.s 			page 41


 1438 01da 15D2     		bcs	.L190
 1439              	.LVL112:
 1440              	.L319:
  70:Src/Disk/fileWriter.h **** 				--size;
 1441              		.loc 2 70 20 view .LVU523
 1442 01dc C4F80002 		str	r0, [r4, #512]
  70:Src/Disk/fileWriter.h **** 				--size;
 1443              		.loc 2 70 26 view .LVU524
 1444 01e0 1AF8016B 		ldrb	r6, [r10], #1	@ zero_extendqisi2
 1445              	.LVL113:
  70:Src/Disk/fileWriter.h **** 				--size;
 1446              		.loc 2 70 24 view .LVU525
 1447 01e4 A654     		strb	r6, [r4, r2]
  71:Src/Disk/fileWriter.h **** 			} else {
 1448              		.loc 2 71 5 is_stmt 1 view .LVU526
 1449              	.LVL114:
  68:Src/Disk/fileWriter.h **** 			if (buff_pos < kBufferSize) {
 1450              		.loc 2 68 20 is_stmt 0 view .LVU527
 1451 01e6 94F80C02 		ldrb	r0, [r4, #524]	@ zero_extendqisi2
  71:Src/Disk/fileWriter.h **** 			} else {
 1452              		.loc 2 71 5 view .LVU528
 1453 01ea 08F1FF38 		add	r8, r8, #-1
 1454              	.LVL115:
  68:Src/Disk/fileWriter.h **** 			if (buff_pos < kBufferSize) {
 1455              		.loc 2 68 3 is_stmt 1 view .LVU529
  68:Src/Disk/fileWriter.h **** 			if (buff_pos < kBufferSize) {
 1456              		.loc 2 68 20 view .LVU530
 1457 01ee 00B3     		cbz	r0, .L192
  68:Src/Disk/fileWriter.h **** 			if (buff_pos < kBufferSize) {
 1458              		.loc 2 68 20 is_stmt 0 view .LVU531
 1459 01f0 B8F1000F 		cmp	r8, #0
 1460 01f4 3BD0     		beq	.L188
 1461              	.LVL116:
  73:Src/Disk/fileWriter.h **** 			}
 1462              		.loc 2 73 15 view .LVU532
 1463 01f6 5646     		mov	r6, r10
 1464              	.LVL117:
 1465              	.L329:
  69:Src/Disk/fileWriter.h **** 				buffer[buff_pos++] = *data_++;
 1466              		.loc 2 69 4 is_stmt 1 view .LVU533
  70:Src/Disk/fileWriter.h **** 				--size;
 1467              		.loc 2 70 5 view .LVU534
  69:Src/Disk/fileWriter.h **** 				buffer[buff_pos++] = *data_++;
 1468              		.loc 2 69 8 is_stmt 0 view .LVU535
 1469 01f8 D4F80022 		ldr	r2, [r4, #512]
  69:Src/Disk/fileWriter.h **** 				buffer[buff_pos++] = *data_++;
 1470              		.loc 2 69 4 view .LVU536
 1471 01fc B2F5007F 		cmp	r2, #512
  70:Src/Disk/fileWriter.h **** 				--size;
 1472              		.loc 2 70 32 view .LVU537
 1473 0200 B246     		mov	r10, r6
 1474              	.LVL118:
  70:Src/Disk/fileWriter.h **** 				--size;
 1475              		.loc 2 70 20 view .LVU538
 1476 0202 02F10100 		add	r0, r2, #1
  69:Src/Disk/fileWriter.h **** 				buffer[buff_pos++] = *data_++;
 1477              		.loc 2 69 4 view .LVU539
ARM GAS  /var/folders/84/_x1cyy_j36g486tldtwl37280000gn/T//cctc5fkA.s 			page 42


 1478 0206 E9D3     		bcc	.L319
 1479              	.LVL119:
 1480              	.L190:
  73:Src/Disk/fileWriter.h **** 			}
 1481              		.loc 2 73 5 is_stmt 1 view .LVU540
 1482              	.LBB330:
 1483              	.LBI330:
  78:Src/Disk/fileWriter.h **** 		uint32_t size = buff_pos;
 1484              		.loc 2 78 7 view .LVU541
 1485              	.LBB331:
  79:Src/Disk/fileWriter.h **** 		buff_pos = 0;
 1486              		.loc 2 79 3 view .LVU542
  80:Src/Disk/fileWriter.h **** 		return file_->write(buffer, size);
 1487              		.loc 2 80 3 view .LVU543
 1488              		.loc 2 81 22 is_stmt 0 view .LVU544
 1489 0208 D4F80432 		ldr	r3, [r4, #516]
  80:Src/Disk/fileWriter.h **** 		return file_->write(buffer, size);
 1490              		.loc 2 80 12 view .LVU545
 1491 020c 4FF00009 		mov	r9, #0
 1492              	.LBB332:
 1493              	.LBB333:
  49:Src/Disk/file.h **** 		if (num_written) {
 1494              		.loc 3 49 24 view .LVU546
 1495 0210 1868     		ldr	r0, [r3]
 1496              	.LBE333:
 1497              	.LBE332:
  80:Src/Disk/fileWriter.h **** 		return file_->write(buffer, size);
 1498              		.loc 2 80 12 view .LVU547
 1499 0212 C4F80092 		str	r9, [r4, #512]
 1500              		.loc 2 81 3 is_stmt 1 view .LVU548
 1501              	.LVL120:
 1502              	.LBB336:
 1503              	.LBI332:
  47:Src/Disk/file.h **** 		UINT bw;
 1504              		.loc 3 47 7 view .LVU549
 1505              	.LBB334:
  48:Src/Disk/file.h **** 		FRESULT res = f_write(fil, data, size, &bw);
 1506              		.loc 3 48 3 view .LVU550
  49:Src/Disk/file.h **** 		if (num_written) {
 1507              		.loc 3 49 3 view .LVU551
  49:Src/Disk/file.h **** 		if (num_written) {
 1508              		.loc 3 49 24 is_stmt 0 view .LVU552
 1509 0216 01AB     		add	r3, sp, #4
 1510              	.LVL121:
  49:Src/Disk/file.h **** 		if (num_written) {
 1511              		.loc 3 49 24 view .LVU553
 1512 0218 2146     		mov	r1, r4
 1513 021a FFF7FEFF 		bl	f_write
 1514              	.LVL122:
 1515              		.loc 3 53 19 view .LVU554
 1516 021e 019A     		ldr	r2, [sp, #4]
 1517              	.LVL123:
  50:Src/Disk/file.h **** 			*num_written = bw;
 1518              		.loc 3 50 3 is_stmt 1 view .LVU555
 1519              		.loc 3 53 3 view .LVU556
 1520              		.loc 3 53 19 is_stmt 0 view .LVU557
 1521 0220 002A     		cmp	r2, #0
ARM GAS  /var/folders/84/_x1cyy_j36g486tldtwl37280000gn/T//cctc5fkA.s 			page 43


 1522 0222 00F0D881 		beq	.L193
 1523              	.LVL124:
 1524              		.loc 3 53 19 view .LVU558
 1525              	.LBE334:
 1526              	.LBE336:
 1527              	.LBE331:
 1528              	.LBE330:
  73:Src/Disk/fileWriter.h **** 			}
 1529              		.loc 2 73 15 view .LVU559
 1530 0226 0121     		movs	r1, #1
 1531              	.LBB339:
 1532              	.LBB338:
 1533              	.LBB337:
 1534              	.LBB335:
 1535              		.loc 3 53 19 view .LVU560
 1536 0228 0028     		cmp	r0, #0
 1537 022a 00F03483 		beq	.L194
 1538              	.LBE335:
 1539              	.LBE337:
 1540              	.LBE338:
 1541              	.LBE339:
  73:Src/Disk/fileWriter.h **** 			}
 1542              		.loc 2 73 15 view .LVU561
 1543 022e 84F80C92 		strb	r9, [r4, #524]
 1544              	.LVL125:
  68:Src/Disk/fileWriter.h **** 			if (buff_pos < kBufferSize) {
 1545              		.loc 2 68 3 is_stmt 1 view .LVU562
  68:Src/Disk/fileWriter.h **** 			if (buff_pos < kBufferSize) {
 1546              		.loc 2 68 20 view .LVU563
 1547              	.L192:
  68:Src/Disk/fileWriter.h **** 			if (buff_pos < kBufferSize) {
 1548              		.loc 2 68 20 is_stmt 0 view .LVU564
 1549 0232 D4F80832 		ldr	r3, [r4, #520]
 1550              	.LVL126:
 1551              	.L184:
  68:Src/Disk/fileWriter.h **** 			if (buff_pos < kBufferSize) {
 1552              		.loc 2 68 20 view .LVU565
 1553              	.LBE329:
 1554              	.LBE328:
 1555              	.LBB343:
 1556              	.LBB344:
  20:/Users/joostbooy/Desktop/Code/stm32/lib/utils/hash.h **** 			hash_ ^= *data_++;
 1557              		.loc 4 20 3 is_stmt 1 view .LVU566
  20:/Users/joostbooy/Desktop/Code/stm32/lib/utils/hash.h **** 			hash_ ^= *data_++;
 1558              		.loc 4 20 14 view .LVU567
  21:/Users/joostbooy/Desktop/Code/stm32/lib/utils/hash.h **** 			hash_ *= prime_;
 1559              		.loc 4 21 4 view .LVU568
 1560              		.loc 4 22 4 view .LVU569
  21:/Users/joostbooy/Desktop/Code/stm32/lib/utils/hash.h **** 			hash_ *= prime_;
 1561              		.loc 4 21 10 is_stmt 0 view .LVU570
 1562 0236 287D     		ldrb	r0, [r5, #20]	@ zero_extendqisi2
 1563              		.loc 4 22 10 view .LVU571
 1564 0238 304E     		ldr	r6, .L332
  21:/Users/joostbooy/Desktop/Code/stm32/lib/utils/hash.h **** 			hash_ *= prime_;
 1565              		.loc 4 21 10 view .LVU572
 1566 023a 4340     		eors	r3, r3, r0
 1567              		.loc 4 22 10 view .LVU573
ARM GAS  /var/folders/84/_x1cyy_j36g486tldtwl37280000gn/T//cctc5fkA.s 			page 44


 1568 023c 06FB03F3 		mul	r3, r6, r3
 1569 0240 C4F80832 		str	r3, [r4, #520]
  20:/Users/joostbooy/Desktop/Code/stm32/lib/utils/hash.h **** 			hash_ ^= *data_++;
 1570              		.loc 4 20 3 is_stmt 1 view .LVU574
  20:/Users/joostbooy/Desktop/Code/stm32/lib/utils/hash.h **** 			hash_ ^= *data_++;
 1571              		.loc 4 20 14 view .LVU575
 1572              	.LVL127:
  21:/Users/joostbooy/Desktop/Code/stm32/lib/utils/hash.h **** 			hash_ *= prime_;
 1573              		.loc 4 21 4 view .LVU576
 1574              		.loc 4 22 4 view .LVU577
  21:/Users/joostbooy/Desktop/Code/stm32/lib/utils/hash.h **** 			hash_ *= prime_;
 1575              		.loc 4 21 10 is_stmt 0 view .LVU578
 1576 0244 6A7D     		ldrb	r2, [r5, #21]	@ zero_extendqisi2
 1577 0246 5340     		eors	r3, r3, r2
 1578              		.loc 4 22 10 view .LVU579
 1579 0248 06FB03F6 		mul	r6, r6, r3
 1580 024c C4F80862 		str	r6, [r4, #520]
  20:/Users/joostbooy/Desktop/Code/stm32/lib/utils/hash.h **** 			hash_ ^= *data_++;
 1581              		.loc 4 20 3 is_stmt 1 view .LVU580
  20:/Users/joostbooy/Desktop/Code/stm32/lib/utils/hash.h **** 			hash_ ^= *data_++;
 1582              		.loc 4 20 14 view .LVU581
 1583              	.LVL128:
  20:/Users/joostbooy/Desktop/Code/stm32/lib/utils/hash.h **** 			hash_ ^= *data_++;
 1584              		.loc 4 20 14 is_stmt 0 view .LVU582
 1585              	.LBE344:
 1586              	.LBE343:
 1587              	.LBE327:
 116:Src/Settings/midiClock.h **** 		fileWriter.write(bpm_fractional_);
 1588              		.loc 6 116 3 is_stmt 1 view .LVU583
 1589              	.LBB350:
 1590              	.LBI350:
  50:Src/Disk/fileWriter.h **** 		write_buffer(&data, sizeof(T));
 1591              		.loc 2 50 7 view .LVU584
 1592              	.LBB351:
 1593              	.LBB352:
  68:Src/Disk/fileWriter.h **** 			if (buff_pos < kBufferSize) {
 1594              		.loc 2 68 3 view .LVU585
  68:Src/Disk/fileWriter.h **** 			if (buff_pos < kBufferSize) {
 1595              		.loc 2 68 20 view .LVU586
 1596              	.L196:
  68:Src/Disk/fileWriter.h **** 			if (buff_pos < kBufferSize) {
 1597              		.loc 2 68 20 is_stmt 0 view .LVU587
 1598              	.LBE352:
 1599              	.LBE351:
 1600              	.LBB369:
 1601              	.LBB370:
  20:/Users/joostbooy/Desktop/Code/stm32/lib/utils/hash.h **** 			hash_ ^= *data_++;
 1602              		.loc 4 20 3 is_stmt 1 view .LVU588
  20:/Users/joostbooy/Desktop/Code/stm32/lib/utils/hash.h **** 			hash_ ^= *data_++;
 1603              		.loc 4 20 14 view .LVU589
  21:/Users/joostbooy/Desktop/Code/stm32/lib/utils/hash.h **** 			hash_ *= prime_;
 1604              		.loc 4 21 4 view .LVU590
 1605              		.loc 4 22 4 view .LVU591
  21:/Users/joostbooy/Desktop/Code/stm32/lib/utils/hash.h **** 			hash_ *= prime_;
 1606              		.loc 4 21 10 is_stmt 0 view .LVU592
 1607 0250 A97D     		ldrb	r1, [r5, #22]	@ zero_extendqisi2
 1608              		.loc 4 22 10 view .LVU593
ARM GAS  /var/folders/84/_x1cyy_j36g486tldtwl37280000gn/T//cctc5fkA.s 			page 45


 1609 0252 2A4B     		ldr	r3, .L332
  21:/Users/joostbooy/Desktop/Code/stm32/lib/utils/hash.h **** 			hash_ *= prime_;
 1610              		.loc 4 21 10 view .LVU594
 1611 0254 4E40     		eors	r6, r6, r1
 1612              		.loc 4 22 10 view .LVU595
 1613 0256 03FB06F6 		mul	r6, r3, r6
 1614 025a C4F80862 		str	r6, [r4, #520]
  20:/Users/joostbooy/Desktop/Code/stm32/lib/utils/hash.h **** 			hash_ ^= *data_++;
 1615              		.loc 4 20 3 is_stmt 1 view .LVU596
  20:/Users/joostbooy/Desktop/Code/stm32/lib/utils/hash.h **** 			hash_ ^= *data_++;
 1616              		.loc 4 20 14 view .LVU597
 1617              	.LVL129:
  21:/Users/joostbooy/Desktop/Code/stm32/lib/utils/hash.h **** 			hash_ *= prime_;
 1618              		.loc 4 21 4 view .LVU598
 1619              		.loc 4 22 4 view .LVU599
  21:/Users/joostbooy/Desktop/Code/stm32/lib/utils/hash.h **** 			hash_ *= prime_;
 1620              		.loc 4 21 10 is_stmt 0 view .LVU600
 1621 025e E87D     		ldrb	r0, [r5, #23]	@ zero_extendqisi2
 1622 0260 4640     		eors	r6, r6, r0
 1623              		.loc 4 22 10 view .LVU601
 1624 0262 03FB06F3 		mul	r3, r3, r6
 1625 0266 C4F80832 		str	r3, [r4, #520]
  20:/Users/joostbooy/Desktop/Code/stm32/lib/utils/hash.h **** 			hash_ ^= *data_++;
 1626              		.loc 4 20 3 is_stmt 1 view .LVU602
  20:/Users/joostbooy/Desktop/Code/stm32/lib/utils/hash.h **** 			hash_ ^= *data_++;
 1627              		.loc 4 20 14 view .LVU603
 1628              	.LVL130:
  20:/Users/joostbooy/Desktop/Code/stm32/lib/utils/hash.h **** 			hash_ ^= *data_++;
 1629              		.loc 4 20 14 is_stmt 0 view .LVU604
 1630              	.LBE370:
 1631              	.LBE369:
 1632              	.LBE350:
 117:Src/Settings/midiClock.h **** 		fileWriter.write(sync_port_);
 1633              		.loc 6 117 3 is_stmt 1 view .LVU605
 1634              	.LBB381:
 1635              	.LBI381:
  50:Src/Disk/fileWriter.h **** 		write_buffer(&data, sizeof(T));
 1636              		.loc 2 50 7 view .LVU606
 1637              	.LBB382:
 1638              	.LBB383:
  68:Src/Disk/fileWriter.h **** 			if (buff_pos < kBufferSize) {
 1639              		.loc 2 68 3 view .LVU607
  68:Src/Disk/fileWriter.h **** 			if (buff_pos < kBufferSize) {
 1640              		.loc 2 68 20 view .LVU608
 1641              	.LBE383:
 1642              	.LBE382:
 1643              	.LBE381:
 1644              	.LBB404:
 1645              	.LBB373:
 1646              	.LBB371:
 1647              		.loc 4 22 10 is_stmt 0 view .LVU609
 1648 026a 0022     		movs	r2, #0
 1649 026c 66E0     		b	.L205
 1650              	.LVL131:
 1651              	.L188:
 1652              		.loc 4 22 10 view .LVU610
 1653              	.LBE371:
ARM GAS  /var/folders/84/_x1cyy_j36g486tldtwl37280000gn/T//cctc5fkA.s 			page 46


 1654              	.LBE373:
 1655              	.LBE404:
 1656              	.LBB405:
 1657              	.LBB346:
 1658              	.LBB345:
  20:/Users/joostbooy/Desktop/Code/stm32/lib/utils/hash.h **** 			hash_ ^= *data_++;
 1659              		.loc 4 20 3 is_stmt 1 view .LVU611
  20:/Users/joostbooy/Desktop/Code/stm32/lib/utils/hash.h **** 			hash_ ^= *data_++;
 1660              		.loc 4 20 14 view .LVU612
  21:/Users/joostbooy/Desktop/Code/stm32/lib/utils/hash.h **** 			hash_ *= prime_;
 1661              		.loc 4 21 4 view .LVU613
 1662              		.loc 4 22 4 view .LVU614
  21:/Users/joostbooy/Desktop/Code/stm32/lib/utils/hash.h **** 			hash_ *= prime_;
 1663              		.loc 4 21 10 is_stmt 0 view .LVU615
 1664 026e D4F80812 		ldr	r1, [r4, #520]
 1665 0272 2B7D     		ldrb	r3, [r5, #20]	@ zero_extendqisi2
 1666              		.loc 4 22 10 view .LVU616
 1667 0274 214A     		ldr	r2, .L332
  21:/Users/joostbooy/Desktop/Code/stm32/lib/utils/hash.h **** 			hash_ *= prime_;
 1668              		.loc 4 21 10 view .LVU617
 1669 0276 4B40     		eors	r3, r3, r1
 1670              		.loc 4 22 10 view .LVU618
 1671 0278 02FB03F3 		mul	r3, r2, r3
 1672 027c C4F80832 		str	r3, [r4, #520]
  20:/Users/joostbooy/Desktop/Code/stm32/lib/utils/hash.h **** 			hash_ ^= *data_++;
 1673              		.loc 4 20 3 is_stmt 1 view .LVU619
  20:/Users/joostbooy/Desktop/Code/stm32/lib/utils/hash.h **** 			hash_ ^= *data_++;
 1674              		.loc 4 20 14 view .LVU620
 1675              	.LVL132:
  21:/Users/joostbooy/Desktop/Code/stm32/lib/utils/hash.h **** 			hash_ *= prime_;
 1676              		.loc 4 21 4 view .LVU621
 1677              		.loc 4 22 4 view .LVU622
  21:/Users/joostbooy/Desktop/Code/stm32/lib/utils/hash.h **** 			hash_ *= prime_;
 1678              		.loc 4 21 10 is_stmt 0 view .LVU623
 1679 0280 687D     		ldrb	r0, [r5, #21]	@ zero_extendqisi2
 1680 0282 4340     		eors	r3, r3, r0
 1681              		.loc 4 22 10 view .LVU624
 1682 0284 02FB03F2 		mul	r2, r2, r3
 1683 0288 C4F80822 		str	r2, [r4, #520]
  20:/Users/joostbooy/Desktop/Code/stm32/lib/utils/hash.h **** 			hash_ ^= *data_++;
 1684              		.loc 4 20 3 is_stmt 1 view .LVU625
  20:/Users/joostbooy/Desktop/Code/stm32/lib/utils/hash.h **** 			hash_ ^= *data_++;
 1685              		.loc 4 20 14 view .LVU626
 1686              	.LVL133:
  20:/Users/joostbooy/Desktop/Code/stm32/lib/utils/hash.h **** 			hash_ ^= *data_++;
 1687              		.loc 4 20 14 is_stmt 0 view .LVU627
 1688              	.LBE345:
 1689              	.LBE346:
 1690              	.LBE405:
 116:Src/Settings/midiClock.h **** 		fileWriter.write(sync_port_);
 1691              		.loc 6 116 3 is_stmt 1 view .LVU628
 1692              	.LBB406:
 1693              	.LBB374:
 1694              	.LBB363:
  69:Src/Disk/fileWriter.h **** 				buffer[buff_pos++] = *data_++;
 1695              		.loc 2 69 8 is_stmt 0 view .LVU629
 1696 028c D4F80022 		ldr	r2, [r4, #512]
ARM GAS  /var/folders/84/_x1cyy_j36g486tldtwl37280000gn/T//cctc5fkA.s 			page 47


 1697              	.LBE363:
 1698              	.LBE374:
 1699              	.LBE406:
 116:Src/Settings/midiClock.h **** 		fileWriter.write(sync_port_);
 1700              		.loc 6 116 20 view .LVU630
 1701 0290 05F1160A 		add	r10, r5, #22
 1702              	.LVL134:
 1703              	.LBB407:
  50:Src/Disk/fileWriter.h **** 		write_buffer(&data, sizeof(T));
 1704              		.loc 2 50 7 is_stmt 1 view .LVU631
 1705              	.LBB375:
 1706              	.LBB364:
  68:Src/Disk/fileWriter.h **** 			if (buff_pos < kBufferSize) {
 1707              		.loc 2 68 3 view .LVU632
  68:Src/Disk/fileWriter.h **** 			if (buff_pos < kBufferSize) {
 1708              		.loc 2 68 20 view .LVU633
  69:Src/Disk/fileWriter.h **** 				buffer[buff_pos++] = *data_++;
 1709              		.loc 2 69 4 is_stmt 0 view .LVU634
 1710 0294 B2F5007F 		cmp	r2, #512
 1711              	.LBE364:
 1712              	.LBE375:
 1713              	.LBE407:
 116:Src/Settings/midiClock.h **** 		fileWriter.write(sync_port_);
 1714              		.loc 6 116 20 view .LVU635
 1715 0298 4FF00206 		mov	r6, #2
 1716              	.LBB408:
 1717              	.LBB376:
 1718              	.LBB365:
  69:Src/Disk/fileWriter.h **** 				buffer[buff_pos++] = *data_++;
 1719              		.loc 2 69 4 is_stmt 1 view .LVU636
  70:Src/Disk/fileWriter.h **** 				--size;
 1720              		.loc 2 70 5 view .LVU637
  70:Src/Disk/fileWriter.h **** 				--size;
 1721              		.loc 2 70 32 is_stmt 0 view .LVU638
 1722 029c D446     		mov	ip, r10
 1723              	.LVL135:
  70:Src/Disk/fileWriter.h **** 				--size;
 1724              		.loc 2 70 20 view .LVU639
 1725 029e 02F10101 		add	r1, r2, #1
  69:Src/Disk/fileWriter.h **** 				buffer[buff_pos++] = *data_++;
 1726              		.loc 2 69 4 view .LVU640
 1727 02a2 12D2     		bcs	.L199
 1728              	.LVL136:
 1729              	.L321:
  70:Src/Disk/fileWriter.h **** 				--size;
 1730              		.loc 2 70 20 view .LVU641
 1731 02a4 C4F80012 		str	r1, [r4, #512]
  70:Src/Disk/fileWriter.h **** 				--size;
 1732              		.loc 2 70 26 view .LVU642
 1733 02a8 1CF8010B 		ldrb	r0, [ip], #1	@ zero_extendqisi2
  70:Src/Disk/fileWriter.h **** 				--size;
 1734              		.loc 2 70 24 view .LVU643
 1735 02ac A054     		strb	r0, [r4, r2]
  71:Src/Disk/fileWriter.h **** 			} else {
 1736              		.loc 2 71 5 is_stmt 1 view .LVU644
 1737              	.LVL137:
  68:Src/Disk/fileWriter.h **** 			if (buff_pos < kBufferSize) {
ARM GAS  /var/folders/84/_x1cyy_j36g486tldtwl37280000gn/T//cctc5fkA.s 			page 48


 1738              		.loc 2 68 20 is_stmt 0 view .LVU645
 1739 02ae 94F80C32 		ldrb	r3, [r4, #524]	@ zero_extendqisi2
  71:Src/Disk/fileWriter.h **** 			} else {
 1740              		.loc 2 71 5 view .LVU646
 1741 02b2 013E     		subs	r6, r6, #1
 1742              	.LVL138:
  68:Src/Disk/fileWriter.h **** 			if (buff_pos < kBufferSize) {
 1743              		.loc 2 68 3 is_stmt 1 view .LVU647
  68:Src/Disk/fileWriter.h **** 			if (buff_pos < kBufferSize) {
 1744              		.loc 2 68 20 view .LVU648
 1745 02b4 F3B1     		cbz	r3, .L201
 1746 02b6 1EB3     		cbz	r6, .L320
 1747              	.LVL139:
  68:Src/Disk/fileWriter.h **** 			if (buff_pos < kBufferSize) {
 1748              		.loc 2 68 20 is_stmt 0 view .LVU649
 1749              	.LBE365:
 1750              	.LBE376:
 1751              	.LBE408:
 116:Src/Settings/midiClock.h **** 		fileWriter.write(sync_port_);
 1752              		.loc 6 116 20 view .LVU650
 1753 02b8 E246     		mov	r10, ip
 1754              	.LVL140:
 1755              	.L331:
 1756              	.LBB409:
 1757              	.LBB377:
 1758              	.LBB366:
  69:Src/Disk/fileWriter.h **** 				buffer[buff_pos++] = *data_++;
 1759              		.loc 2 69 4 is_stmt 1 view .LVU651
  70:Src/Disk/fileWriter.h **** 				--size;
 1760              		.loc 2 70 5 view .LVU652
  69:Src/Disk/fileWriter.h **** 				buffer[buff_pos++] = *data_++;
 1761              		.loc 2 69 8 is_stmt 0 view .LVU653
 1762 02ba D4F80022 		ldr	r2, [r4, #512]
  69:Src/Disk/fileWriter.h **** 				buffer[buff_pos++] = *data_++;
 1763              		.loc 2 69 4 view .LVU654
 1764 02be B2F5007F 		cmp	r2, #512
  70:Src/Disk/fileWriter.h **** 				--size;
 1765              		.loc 2 70 32 view .LVU655
 1766 02c2 D446     		mov	ip, r10
 1767              	.LVL141:
  70:Src/Disk/fileWriter.h **** 				--size;
 1768              		.loc 2 70 20 view .LVU656
 1769 02c4 02F10101 		add	r1, r2, #1
  69:Src/Disk/fileWriter.h **** 				buffer[buff_pos++] = *data_++;
 1770              		.loc 2 69 4 view .LVU657
 1771 02c8 ECD3     		bcc	.L321
 1772              	.LVL142:
 1773              	.L199:
  73:Src/Disk/fileWriter.h **** 			}
 1774              		.loc 2 73 5 is_stmt 1 view .LVU658
 1775              	.LBB353:
 1776              	.LBI353:
  78:Src/Disk/fileWriter.h **** 		uint32_t size = buff_pos;
 1777              		.loc 2 78 7 view .LVU659
 1778              	.LBB354:
  79:Src/Disk/fileWriter.h **** 		buff_pos = 0;
 1779              		.loc 2 79 3 view .LVU660
ARM GAS  /var/folders/84/_x1cyy_j36g486tldtwl37280000gn/T//cctc5fkA.s 			page 49


  80:Src/Disk/fileWriter.h **** 		return file_->write(buffer, size);
 1780              		.loc 2 80 3 view .LVU661
 1781              		.loc 2 81 22 is_stmt 0 view .LVU662
 1782 02ca D4F80432 		ldr	r3, [r4, #516]
  80:Src/Disk/fileWriter.h **** 		return file_->write(buffer, size);
 1783              		.loc 2 80 12 view .LVU663
 1784 02ce 4FF00009 		mov	r9, #0
 1785              	.LBB355:
 1786              	.LBB356:
  49:Src/Disk/file.h **** 		if (num_written) {
 1787              		.loc 3 49 24 view .LVU664
 1788 02d2 1868     		ldr	r0, [r3]
 1789              	.LBE356:
 1790              	.LBE355:
  80:Src/Disk/fileWriter.h **** 		return file_->write(buffer, size);
 1791              		.loc 2 80 12 view .LVU665
 1792 02d4 C4F80092 		str	r9, [r4, #512]
 1793              		.loc 2 81 3 is_stmt 1 view .LVU666
 1794              	.LVL143:
 1795              	.LBB359:
 1796              	.LBI355:
  47:Src/Disk/file.h **** 		UINT bw;
 1797              		.loc 3 47 7 view .LVU667
 1798              	.LBB357:
  48:Src/Disk/file.h **** 		FRESULT res = f_write(fil, data, size, &bw);
 1799              		.loc 3 48 3 view .LVU668
  49:Src/Disk/file.h **** 		if (num_written) {
 1800              		.loc 3 49 3 view .LVU669
  49:Src/Disk/file.h **** 		if (num_written) {
 1801              		.loc 3 49 24 is_stmt 0 view .LVU670
 1802 02d8 01AB     		add	r3, sp, #4
 1803              	.LVL144:
  49:Src/Disk/file.h **** 		if (num_written) {
 1804              		.loc 3 49 24 view .LVU671
 1805 02da 2146     		mov	r1, r4
 1806 02dc FFF7FEFF 		bl	f_write
 1807              	.LVL145:
 1808              		.loc 3 53 19 view .LVU672
 1809 02e0 019A     		ldr	r2, [sp, #4]
 1810              	.LVL146:
  50:Src/Disk/file.h **** 			*num_written = bw;
 1811              		.loc 3 50 3 is_stmt 1 view .LVU673
 1812              		.loc 3 53 3 view .LVU674
 1813              		.loc 3 53 19 is_stmt 0 view .LVU675
 1814 02e2 002A     		cmp	r2, #0
 1815 02e4 00F08081 		beq	.L202
 1816              	.LVL147:
 1817              		.loc 3 53 19 view .LVU676
 1818              	.LBE357:
 1819              	.LBE359:
 1820              	.LBE354:
 1821              	.LBE353:
  73:Src/Disk/fileWriter.h **** 			}
 1822              		.loc 2 73 15 view .LVU677
 1823 02e8 0121     		movs	r1, #1
 1824              	.LBB362:
 1825              	.LBB361:
ARM GAS  /var/folders/84/_x1cyy_j36g486tldtwl37280000gn/T//cctc5fkA.s 			page 50


 1826              	.LBB360:
 1827              	.LBB358:
 1828              		.loc 3 53 19 view .LVU678
 1829 02ea 0028     		cmp	r0, #0
 1830 02ec 00F0DD82 		beq	.L203
 1831              	.LBE358:
 1832              	.LBE360:
 1833              	.LBE361:
 1834              	.LBE362:
  73:Src/Disk/fileWriter.h **** 			}
 1835              		.loc 2 73 15 view .LVU679
 1836 02f0 84F80C92 		strb	r9, [r4, #524]
  68:Src/Disk/fileWriter.h **** 			if (buff_pos < kBufferSize) {
 1837              		.loc 2 68 3 is_stmt 1 view .LVU680
  68:Src/Disk/fileWriter.h **** 			if (buff_pos < kBufferSize) {
 1838              		.loc 2 68 20 view .LVU681
 1839              	.L201:
  68:Src/Disk/fileWriter.h **** 			if (buff_pos < kBufferSize) {
 1840              		.loc 2 68 20 is_stmt 0 view .LVU682
 1841 02f4 D4F80862 		ldr	r6, [r4, #520]
 1842 02f8 AAE7     		b	.L196
 1843              	.L333:
 1844 02fa 00BF     		.align	2
 1845              	.L332:
 1846 02fc 93010001 		.word	16777619
 1847              	.LVL148:
 1848              	.L320:
  68:Src/Disk/fileWriter.h **** 			if (buff_pos < kBufferSize) {
 1849              		.loc 2 68 20 view .LVU683
 1850              	.LBE366:
 1851              	.LBE377:
 1852              	.LBB378:
 1853              	.LBB372:
  20:/Users/joostbooy/Desktop/Code/stm32/lib/utils/hash.h **** 			hash_ ^= *data_++;
 1854              		.loc 4 20 3 is_stmt 1 view .LVU684
  20:/Users/joostbooy/Desktop/Code/stm32/lib/utils/hash.h **** 			hash_ ^= *data_++;
 1855              		.loc 4 20 14 view .LVU685
  21:/Users/joostbooy/Desktop/Code/stm32/lib/utils/hash.h **** 			hash_ *= prime_;
 1856              		.loc 4 21 4 view .LVU686
 1857              		.loc 4 22 4 view .LVU687
  21:/Users/joostbooy/Desktop/Code/stm32/lib/utils/hash.h **** 			hash_ *= prime_;
 1858              		.loc 4 21 10 is_stmt 0 view .LVU688
 1859 0300 A87D     		ldrb	r0, [r5, #22]	@ zero_extendqisi2
 1860 0302 D4F80812 		ldr	r1, [r4, #520]
 1861              		.loc 4 22 10 view .LVU689
 1862 0306 BB4A     		ldr	r2, .L334
  21:/Users/joostbooy/Desktop/Code/stm32/lib/utils/hash.h **** 			hash_ *= prime_;
 1863              		.loc 4 21 10 view .LVU690
 1864 0308 4840     		eors	r0, r0, r1
 1865              		.loc 4 22 10 view .LVU691
 1866 030a 02FB00F0 		mul	r0, r2, r0
 1867 030e C4F80802 		str	r0, [r4, #520]
  20:/Users/joostbooy/Desktop/Code/stm32/lib/utils/hash.h **** 			hash_ ^= *data_++;
 1868              		.loc 4 20 3 is_stmt 1 view .LVU692
  20:/Users/joostbooy/Desktop/Code/stm32/lib/utils/hash.h **** 			hash_ ^= *data_++;
 1869              		.loc 4 20 14 view .LVU693
 1870              	.LVL149:
ARM GAS  /var/folders/84/_x1cyy_j36g486tldtwl37280000gn/T//cctc5fkA.s 			page 51


  21:/Users/joostbooy/Desktop/Code/stm32/lib/utils/hash.h **** 			hash_ *= prime_;
 1871              		.loc 4 21 4 view .LVU694
 1872              		.loc 4 22 4 view .LVU695
  21:/Users/joostbooy/Desktop/Code/stm32/lib/utils/hash.h **** 			hash_ *= prime_;
 1873              		.loc 4 21 10 is_stmt 0 view .LVU696
 1874 0312 EB7D     		ldrb	r3, [r5, #23]	@ zero_extendqisi2
 1875 0314 5840     		eors	r0, r0, r3
 1876              		.loc 4 22 10 view .LVU697
 1877 0316 02FB00F2 		mul	r2, r2, r0
 1878 031a C4F80822 		str	r2, [r4, #520]
  20:/Users/joostbooy/Desktop/Code/stm32/lib/utils/hash.h **** 			hash_ ^= *data_++;
 1879              		.loc 4 20 3 is_stmt 1 view .LVU698
  20:/Users/joostbooy/Desktop/Code/stm32/lib/utils/hash.h **** 			hash_ ^= *data_++;
 1880              		.loc 4 20 14 view .LVU699
 1881              	.LVL150:
  20:/Users/joostbooy/Desktop/Code/stm32/lib/utils/hash.h **** 			hash_ ^= *data_++;
 1882              		.loc 4 20 14 is_stmt 0 view .LVU700
 1883              	.LBE372:
 1884              	.LBE378:
 1885              	.LBE409:
 1886              		.loc 6 117 3 is_stmt 1 view .LVU701
 1887              	.LBB410:
  50:Src/Disk/fileWriter.h **** 		write_buffer(&data, sizeof(T));
 1888              		.loc 2 50 7 view .LVU702
 1889              	.LBB398:
 1890              	.LBB394:
  68:Src/Disk/fileWriter.h **** 			if (buff_pos < kBufferSize) {
 1891              		.loc 2 68 3 view .LVU703
  68:Src/Disk/fileWriter.h **** 			if (buff_pos < kBufferSize) {
 1892              		.loc 2 68 20 view .LVU704
 1893              	.L198:
  69:Src/Disk/fileWriter.h **** 				buffer[buff_pos++] = *data_++;
 1894              		.loc 2 69 4 view .LVU705
  69:Src/Disk/fileWriter.h **** 				buffer[buff_pos++] = *data_++;
 1895              		.loc 2 69 8 is_stmt 0 view .LVU706
 1896 031e D4F80022 		ldr	r2, [r4, #512]
  69:Src/Disk/fileWriter.h **** 				buffer[buff_pos++] = *data_++;
 1897              		.loc 2 69 4 view .LVU707
 1898 0322 B2F5007F 		cmp	r2, #512
 1899 0326 80F0FB80 		bcs	.L204
  70:Src/Disk/fileWriter.h **** 				--size;
 1900              		.loc 2 70 5 is_stmt 1 view .LVU708
 1901              	.LVL151:
  70:Src/Disk/fileWriter.h **** 				--size;
 1902              		.loc 2 70 20 is_stmt 0 view .LVU709
 1903 032a 531C     		adds	r3, r2, #1
 1904 032c C4F80032 		str	r3, [r4, #512]
  70:Src/Disk/fileWriter.h **** 				--size;
 1905              		.loc 2 70 26 view .LVU710
 1906 0330 287E     		ldrb	r0, [r5, #24]	@ zero_extendqisi2
  70:Src/Disk/fileWriter.h **** 				--size;
 1907              		.loc 2 70 24 view .LVU711
 1908 0332 A054     		strb	r0, [r4, r2]
  71:Src/Disk/fileWriter.h **** 			} else {
 1909              		.loc 2 71 5 is_stmt 1 view .LVU712
 1910              	.LVL152:
  68:Src/Disk/fileWriter.h **** 			if (buff_pos < kBufferSize) {
ARM GAS  /var/folders/84/_x1cyy_j36g486tldtwl37280000gn/T//cctc5fkA.s 			page 52


 1911              		.loc 2 68 3 view .LVU713
  68:Src/Disk/fileWriter.h **** 			if (buff_pos < kBufferSize) {
 1912              		.loc 2 68 20 view .LVU714
 1913 0334 D4F80832 		ldr	r3, [r4, #520]
 1914 0338 94F80C22 		ldrb	r2, [r4, #524]	@ zero_extendqisi2
 1915              	.LVL153:
 1916              	.L205:
  68:Src/Disk/fileWriter.h **** 			if (buff_pos < kBufferSize) {
 1917              		.loc 2 68 20 is_stmt 0 view .LVU715
 1918              	.LBE394:
 1919              	.LBE398:
 1920              	.LBB399:
 1921              	.LBB400:
  20:/Users/joostbooy/Desktop/Code/stm32/lib/utils/hash.h **** 			hash_ ^= *data_++;
 1922              		.loc 4 20 3 is_stmt 1 view .LVU716
  20:/Users/joostbooy/Desktop/Code/stm32/lib/utils/hash.h **** 			hash_ ^= *data_++;
 1923              		.loc 4 20 14 view .LVU717
  21:/Users/joostbooy/Desktop/Code/stm32/lib/utils/hash.h **** 			hash_ *= prime_;
 1924              		.loc 4 21 4 view .LVU718
 1925              		.loc 4 22 4 view .LVU719
  21:/Users/joostbooy/Desktop/Code/stm32/lib/utils/hash.h **** 			hash_ *= prime_;
 1926              		.loc 4 21 10 is_stmt 0 view .LVU720
 1927 033c 2E7E     		ldrb	r6, [r5, #24]	@ zero_extendqisi2
 1928              		.loc 4 22 10 view .LVU721
 1929 033e AD49     		ldr	r1, .L334
  21:/Users/joostbooy/Desktop/Code/stm32/lib/utils/hash.h **** 			hash_ *= prime_;
 1930              		.loc 4 21 10 view .LVU722
 1931 0340 7340     		eors	r3, r3, r6
 1932              		.loc 4 22 10 view .LVU723
 1933 0342 01FB03F3 		mul	r3, r1, r3
 1934 0346 C4F80832 		str	r3, [r4, #520]
  20:/Users/joostbooy/Desktop/Code/stm32/lib/utils/hash.h **** 			hash_ ^= *data_++;
 1935              		.loc 4 20 3 is_stmt 1 view .LVU724
  20:/Users/joostbooy/Desktop/Code/stm32/lib/utils/hash.h **** 			hash_ ^= *data_++;
 1936              		.loc 4 20 14 view .LVU725
 1937              	.LVL154:
  20:/Users/joostbooy/Desktop/Code/stm32/lib/utils/hash.h **** 			hash_ ^= *data_++;
 1938              		.loc 4 20 14 is_stmt 0 view .LVU726
 1939              	.LBE400:
 1940              	.LBE399:
 1941              	.LBE410:
 1942              	.LBE326:
 1943              	.LBE325:
 1944              	.LBB426:
  37:Src/Settings/song.cpp **** 
  38:Src/Settings/song.cpp **** 	// track lists
  39:Src/Settings/song.cpp **** 	for (int i = 0; i < Track::NUM_TYPES; ++i) {
 1945              		.loc 1 39 20 is_stmt 1 view .LVU727
 1946 034a 05F13406 		add	r6, r5, #52
 1947              	.LVL155:
 1948              	.L217:
  40:Src/Settings/song.cpp **** 		fileWriter.write(track_type_list_[i]);
 1949              		.loc 1 40 3 discriminator 2 view .LVU728
 1950              	.LBB427:
 1951              	.LBI427:
  50:Src/Disk/fileWriter.h **** 		write_buffer(&data, sizeof(T));
 1952              		.loc 2 50 7 discriminator 2 view .LVU729
ARM GAS  /var/folders/84/_x1cyy_j36g486tldtwl37280000gn/T//cctc5fkA.s 			page 53


 1953              	.LBB428:
 1954              	.LBI428:
  65:Src/Disk/fileWriter.h **** 		uint8_t *data_ = reinterpret_cast<uint8_t *>(data);
 1955              		.loc 2 65 7 discriminator 2 view .LVU730
 1956              	.LBB429:
  68:Src/Disk/fileWriter.h **** 			if (buff_pos < kBufferSize) {
 1957              		.loc 2 68 3 discriminator 2 view .LVU731
  68:Src/Disk/fileWriter.h **** 			if (buff_pos < kBufferSize) {
 1958              		.loc 2 68 20 discriminator 2 view .LVU732
 1959 034e B2B3     		cbz	r2, .L210
  69:Src/Disk/fileWriter.h **** 				buffer[buff_pos++] = *data_++;
 1960              		.loc 2 69 8 is_stmt 0 view .LVU733
 1961 0350 D4F80022 		ldr	r2, [r4, #512]
 1962              	.LBE429:
 1963              	.LBE428:
 1964              	.LBE427:
 1965              		.loc 1 40 38 view .LVU734
 1966 0354 B146     		mov	r9, r6
 1967              	.LBB448:
 1968              	.LBB442:
 1969              	.LBB440:
  69:Src/Disk/fileWriter.h **** 				buffer[buff_pos++] = *data_++;
 1970              		.loc 2 69 4 view .LVU735
 1971 0356 B2F5007F 		cmp	r2, #512
  68:Src/Disk/fileWriter.h **** 			if (buff_pos < kBufferSize) {
 1972              		.loc 2 68 20 view .LVU736
 1973 035a 4FF01108 		mov	r8, #17
  69:Src/Disk/fileWriter.h **** 				buffer[buff_pos++] = *data_++;
 1974              		.loc 2 69 4 is_stmt 1 view .LVU737
  70:Src/Disk/fileWriter.h **** 				--size;
 1975              		.loc 2 70 5 view .LVU738
  70:Src/Disk/fileWriter.h **** 				--size;
 1976              		.loc 2 70 32 is_stmt 0 view .LVU739
 1977 035e CE46     		mov	lr, r9
 1978              	.LVL156:
  70:Src/Disk/fileWriter.h **** 				--size;
 1979              		.loc 2 70 20 view .LVU740
 1980 0360 02F10100 		add	r0, r2, #1
  69:Src/Disk/fileWriter.h **** 				buffer[buff_pos++] = *data_++;
 1981              		.loc 2 69 4 view .LVU741
 1982 0364 15D2     		bcs	.L211
 1983              	.LVL157:
 1984              	.L322:
  70:Src/Disk/fileWriter.h **** 				--size;
 1985              		.loc 2 70 20 view .LVU742
 1986 0366 C4F80002 		str	r0, [r4, #512]
  70:Src/Disk/fileWriter.h **** 				--size;
 1987              		.loc 2 70 26 view .LVU743
 1988 036a 1EF8010B 		ldrb	r0, [lr], #1	@ zero_extendqisi2
  70:Src/Disk/fileWriter.h **** 				--size;
 1989              		.loc 2 70 24 view .LVU744
 1990 036e A054     		strb	r0, [r4, r2]
  71:Src/Disk/fileWriter.h **** 			} else {
 1991              		.loc 2 71 5 is_stmt 1 view .LVU745
 1992              	.LVL158:
  71:Src/Disk/fileWriter.h **** 			} else {
 1993              		.loc 2 71 5 is_stmt 0 view .LVU746
ARM GAS  /var/folders/84/_x1cyy_j36g486tldtwl37280000gn/T//cctc5fkA.s 			page 54


 1994 0370 94F80C22 		ldrb	r2, [r4, #524]	@ zero_extendqisi2
 1995 0374 08F1FF38 		add	r8, r8, #-1
 1996              	.LVL159:
  68:Src/Disk/fileWriter.h **** 			if (buff_pos < kBufferSize) {
 1997              		.loc 2 68 3 is_stmt 1 view .LVU747
  68:Src/Disk/fileWriter.h **** 			if (buff_pos < kBufferSize) {
 1998              		.loc 2 68 20 view .LVU748
 1999 0378 02B3     		cbz	r2, .L213
 2000 037a B8F1000F 		cmp	r8, #0
 2001 037e 1ED0     		beq	.L210
  73:Src/Disk/fileWriter.h **** 			}
 2002              		.loc 2 73 15 is_stmt 0 view .LVU749
 2003 0380 F146     		mov	r9, lr
 2004              	.LVL160:
 2005              	.L323:
  69:Src/Disk/fileWriter.h **** 				buffer[buff_pos++] = *data_++;
 2006              		.loc 2 69 4 is_stmt 1 view .LVU750
  70:Src/Disk/fileWriter.h **** 				--size;
 2007              		.loc 2 70 5 view .LVU751
  69:Src/Disk/fileWriter.h **** 				buffer[buff_pos++] = *data_++;
 2008              		.loc 2 69 8 is_stmt 0 view .LVU752
 2009 0382 D4F80022 		ldr	r2, [r4, #512]
  69:Src/Disk/fileWriter.h **** 				buffer[buff_pos++] = *data_++;
 2010              		.loc 2 69 4 view .LVU753
 2011 0386 B2F5007F 		cmp	r2, #512
  70:Src/Disk/fileWriter.h **** 				--size;
 2012              		.loc 2 70 32 view .LVU754
 2013 038a CE46     		mov	lr, r9
 2014              	.LVL161:
  70:Src/Disk/fileWriter.h **** 				--size;
 2015              		.loc 2 70 20 view .LVU755
 2016 038c 02F10100 		add	r0, r2, #1
  69:Src/Disk/fileWriter.h **** 				buffer[buff_pos++] = *data_++;
 2017              		.loc 2 69 4 view .LVU756
 2018 0390 E9D3     		bcc	.L322
 2019              	.LVL162:
 2020              	.L211:
  73:Src/Disk/fileWriter.h **** 			}
 2021              		.loc 2 73 5 is_stmt 1 view .LVU757
 2022              	.LBB430:
 2023              	.LBI430:
  78:Src/Disk/fileWriter.h **** 		uint32_t size = buff_pos;
 2024              		.loc 2 78 7 view .LVU758
 2025              	.LBB431:
  79:Src/Disk/fileWriter.h **** 		buff_pos = 0;
 2026              		.loc 2 79 3 view .LVU759
  80:Src/Disk/fileWriter.h **** 		return file_->write(buffer, size);
 2027              		.loc 2 80 3 view .LVU760
 2028              		.loc 2 81 22 is_stmt 0 view .LVU761
 2029 0392 D4F80432 		ldr	r3, [r4, #516]
  80:Src/Disk/fileWriter.h **** 		return file_->write(buffer, size);
 2030              		.loc 2 80 12 view .LVU762
 2031 0396 4FF0000A 		mov	r10, #0
 2032              	.LBB432:
 2033              	.LBB433:
  49:Src/Disk/file.h **** 		if (num_written) {
 2034              		.loc 3 49 24 view .LVU763
ARM GAS  /var/folders/84/_x1cyy_j36g486tldtwl37280000gn/T//cctc5fkA.s 			page 55


 2035 039a 1868     		ldr	r0, [r3]
 2036              	.LBE433:
 2037              	.LBE432:
  80:Src/Disk/fileWriter.h **** 		return file_->write(buffer, size);
 2038              		.loc 2 80 12 view .LVU764
 2039 039c C4F800A2 		str	r10, [r4, #512]
 2040              		.loc 2 81 3 is_stmt 1 view .LVU765
 2041              	.LVL163:
 2042              	.LBB436:
 2043              	.LBI432:
  47:Src/Disk/file.h **** 		UINT bw;
 2044              		.loc 3 47 7 view .LVU766
 2045              	.LBB434:
  48:Src/Disk/file.h **** 		FRESULT res = f_write(fil, data, size, &bw);
 2046              		.loc 3 48 3 view .LVU767
  49:Src/Disk/file.h **** 		if (num_written) {
 2047              		.loc 3 49 3 view .LVU768
  49:Src/Disk/file.h **** 		if (num_written) {
 2048              		.loc 3 49 24 is_stmt 0 view .LVU769
 2049 03a0 01AB     		add	r3, sp, #4
 2050              	.LVL164:
  49:Src/Disk/file.h **** 		if (num_written) {
 2051              		.loc 3 49 24 view .LVU770
 2052 03a2 2146     		mov	r1, r4
 2053 03a4 FFF7FEFF 		bl	f_write
 2054              	.LVL165:
 2055              		.loc 3 53 19 view .LVU771
 2056 03a8 019A     		ldr	r2, [sp, #4]
 2057              	.LVL166:
  50:Src/Disk/file.h **** 			*num_written = bw;
 2058              		.loc 3 50 3 is_stmt 1 view .LVU772
 2059              		.loc 3 53 3 view .LVU773
 2060              		.loc 3 53 19 is_stmt 0 view .LVU774
 2061 03aa 002A     		cmp	r2, #0
 2062 03ac 00F0B080 		beq	.L214
 2063              	.LVL167:
 2064              		.loc 3 53 19 view .LVU775
 2065              	.LBE434:
 2066              	.LBE436:
 2067              	.LBE431:
 2068              	.LBE430:
  73:Src/Disk/fileWriter.h **** 			}
 2069              		.loc 2 73 15 view .LVU776
 2070 03b0 0121     		movs	r1, #1
 2071              	.LBB439:
 2072              	.LBB438:
 2073              	.LBB437:
 2074              	.LBB435:
 2075              		.loc 3 53 19 view .LVU777
 2076 03b2 0028     		cmp	r0, #0
 2077 03b4 00F0AF80 		beq	.L215
 2078              	.LBE435:
 2079              	.LBE437:
 2080              	.LBE438:
 2081              	.LBE439:
  73:Src/Disk/fileWriter.h **** 			}
 2082              		.loc 2 73 15 view .LVU778
ARM GAS  /var/folders/84/_x1cyy_j36g486tldtwl37280000gn/T//cctc5fkA.s 			page 56


 2083 03b8 84F80CA2 		strb	r10, [r4, #524]
 2084              	.LVL168:
  68:Src/Disk/fileWriter.h **** 			if (buff_pos < kBufferSize) {
 2085              		.loc 2 68 3 is_stmt 1 view .LVU779
  68:Src/Disk/fileWriter.h **** 			if (buff_pos < kBufferSize) {
 2086              		.loc 2 68 20 view .LVU780
 2087              	.L213:
  68:Src/Disk/fileWriter.h **** 			if (buff_pos < kBufferSize) {
 2088              		.loc 2 68 20 is_stmt 0 view .LVU781
 2089 03bc 0022     		movs	r2, #0
 2090              	.L210:
 2091              	.LVL169:
  68:Src/Disk/fileWriter.h **** 			if (buff_pos < kBufferSize) {
 2092              		.loc 2 68 20 view .LVU782
 2093              	.LBE440:
 2094              	.LBE442:
 2095              	.LBB443:
 2096              	.LBB444:
  21:/Users/joostbooy/Desktop/Code/stm32/lib/utils/hash.h **** 			hash_ *= prime_;
 2097              		.loc 4 21 4 is_stmt 1 view .LVU783
 2098              		.loc 4 22 4 view .LVU784
  21:/Users/joostbooy/Desktop/Code/stm32/lib/utils/hash.h **** 			hash_ *= prime_;
 2099              		.loc 4 21 10 is_stmt 0 view .LVU785
 2100 03be 3078     		ldrb	r0, [r6]	@ zero_extendqisi2
 2101 03c0 D4F80812 		ldr	r1, [r4, #520]
 2102              		.loc 4 22 10 view .LVU786
 2103 03c4 8B4B     		ldr	r3, .L334
  21:/Users/joostbooy/Desktop/Code/stm32/lib/utils/hash.h **** 			hash_ *= prime_;
 2104              		.loc 4 21 10 view .LVU787
 2105 03c6 4840     		eors	r0, r0, r1
 2106              		.loc 4 22 10 view .LVU788
 2107 03c8 03FB00F1 		mul	r1, r3, r0
 2108 03cc C4F80812 		str	r1, [r4, #520]
  20:/Users/joostbooy/Desktop/Code/stm32/lib/utils/hash.h **** 			hash_ ^= *data_++;
 2109              		.loc 4 20 3 is_stmt 1 view .LVU789
  20:/Users/joostbooy/Desktop/Code/stm32/lib/utils/hash.h **** 			hash_ ^= *data_++;
 2110              		.loc 4 20 14 view .LVU790
 2111              	.LVL170:
  21:/Users/joostbooy/Desktop/Code/stm32/lib/utils/hash.h **** 			hash_ *= prime_;
 2112              		.loc 4 21 4 view .LVU791
 2113              		.loc 4 22 4 view .LVU792
  21:/Users/joostbooy/Desktop/Code/stm32/lib/utils/hash.h **** 			hash_ *= prime_;
 2114              		.loc 4 21 10 is_stmt 0 view .LVU793
 2115 03d0 7078     		ldrb	r0, [r6, #1]	@ zero_extendqisi2
 2116 03d2 4840     		eors	r0, r0, r1
 2117              		.loc 4 22 10 view .LVU794
 2118 03d4 03FB00F0 		mul	r0, r3, r0
 2119 03d8 C4F80802 		str	r0, [r4, #520]
  20:/Users/joostbooy/Desktop/Code/stm32/lib/utils/hash.h **** 			hash_ ^= *data_++;
 2120              		.loc 4 20 3 is_stmt 1 view .LVU795
  20:/Users/joostbooy/Desktop/Code/stm32/lib/utils/hash.h **** 			hash_ ^= *data_++;
 2121              		.loc 4 20 14 view .LVU796
 2122              	.LVL171:
  21:/Users/joostbooy/Desktop/Code/stm32/lib/utils/hash.h **** 			hash_ *= prime_;
 2123              		.loc 4 21 4 view .LVU797
 2124              		.loc 4 22 4 view .LVU798
  21:/Users/joostbooy/Desktop/Code/stm32/lib/utils/hash.h **** 			hash_ *= prime_;
ARM GAS  /var/folders/84/_x1cyy_j36g486tldtwl37280000gn/T//cctc5fkA.s 			page 57


 2125              		.loc 4 21 10 is_stmt 0 view .LVU799
 2126 03dc B178     		ldrb	r1, [r6, #2]	@ zero_extendqisi2
 2127 03de 4140     		eors	r1, r1, r0
 2128              		.loc 4 22 10 view .LVU800
 2129 03e0 03FB01F0 		mul	r0, r3, r1
 2130 03e4 C4F80802 		str	r0, [r4, #520]
  20:/Users/joostbooy/Desktop/Code/stm32/lib/utils/hash.h **** 			hash_ ^= *data_++;
 2131              		.loc 4 20 3 is_stmt 1 view .LVU801
  20:/Users/joostbooy/Desktop/Code/stm32/lib/utils/hash.h **** 			hash_ ^= *data_++;
 2132              		.loc 4 20 14 view .LVU802
 2133              	.LVL172:
  21:/Users/joostbooy/Desktop/Code/stm32/lib/utils/hash.h **** 			hash_ *= prime_;
 2134              		.loc 4 21 4 view .LVU803
 2135              		.loc 4 22 4 view .LVU804
  21:/Users/joostbooy/Desktop/Code/stm32/lib/utils/hash.h **** 			hash_ *= prime_;
 2136              		.loc 4 21 10 is_stmt 0 view .LVU805
 2137 03e8 F178     		ldrb	r1, [r6, #3]	@ zero_extendqisi2
 2138 03ea 4140     		eors	r1, r1, r0
 2139              		.loc 4 22 10 view .LVU806
 2140 03ec 03FB01F1 		mul	r1, r3, r1
 2141 03f0 C4F80812 		str	r1, [r4, #520]
  20:/Users/joostbooy/Desktop/Code/stm32/lib/utils/hash.h **** 			hash_ ^= *data_++;
 2142              		.loc 4 20 3 is_stmt 1 view .LVU807
  20:/Users/joostbooy/Desktop/Code/stm32/lib/utils/hash.h **** 			hash_ ^= *data_++;
 2143              		.loc 4 20 14 view .LVU808
 2144              	.LVL173:
  21:/Users/joostbooy/Desktop/Code/stm32/lib/utils/hash.h **** 			hash_ *= prime_;
 2145              		.loc 4 21 4 view .LVU809
 2146              		.loc 4 22 4 view .LVU810
  21:/Users/joostbooy/Desktop/Code/stm32/lib/utils/hash.h **** 			hash_ *= prime_;
 2147              		.loc 4 21 10 is_stmt 0 view .LVU811
 2148 03f4 3079     		ldrb	r0, [r6, #4]	@ zero_extendqisi2
 2149 03f6 4840     		eors	r0, r0, r1
 2150              		.loc 4 22 10 view .LVU812
 2151 03f8 03FB00F1 		mul	r1, r3, r0
 2152 03fc C4F80812 		str	r1, [r4, #520]
  20:/Users/joostbooy/Desktop/Code/stm32/lib/utils/hash.h **** 			hash_ ^= *data_++;
 2153              		.loc 4 20 3 is_stmt 1 view .LVU813
  20:/Users/joostbooy/Desktop/Code/stm32/lib/utils/hash.h **** 			hash_ ^= *data_++;
 2154              		.loc 4 20 14 view .LVU814
 2155              	.LVL174:
  21:/Users/joostbooy/Desktop/Code/stm32/lib/utils/hash.h **** 			hash_ *= prime_;
 2156              		.loc 4 21 4 view .LVU815
 2157              		.loc 4 22 4 view .LVU816
  21:/Users/joostbooy/Desktop/Code/stm32/lib/utils/hash.h **** 			hash_ *= prime_;
 2158              		.loc 4 21 10 is_stmt 0 view .LVU817
 2159 0400 7079     		ldrb	r0, [r6, #5]	@ zero_extendqisi2
 2160 0402 4840     		eors	r0, r0, r1
 2161              		.loc 4 22 10 view .LVU818
 2162 0404 03FB00F0 		mul	r0, r3, r0
 2163 0408 C4F80802 		str	r0, [r4, #520]
  20:/Users/joostbooy/Desktop/Code/stm32/lib/utils/hash.h **** 			hash_ ^= *data_++;
 2164              		.loc 4 20 3 is_stmt 1 view .LVU819
  20:/Users/joostbooy/Desktop/Code/stm32/lib/utils/hash.h **** 			hash_ ^= *data_++;
 2165              		.loc 4 20 14 view .LVU820
 2166              	.LVL175:
  21:/Users/joostbooy/Desktop/Code/stm32/lib/utils/hash.h **** 			hash_ *= prime_;
ARM GAS  /var/folders/84/_x1cyy_j36g486tldtwl37280000gn/T//cctc5fkA.s 			page 58


 2167              		.loc 4 21 4 view .LVU821
 2168              		.loc 4 22 4 view .LVU822
  21:/Users/joostbooy/Desktop/Code/stm32/lib/utils/hash.h **** 			hash_ *= prime_;
 2169              		.loc 4 21 10 is_stmt 0 view .LVU823
 2170 040c B179     		ldrb	r1, [r6, #6]	@ zero_extendqisi2
 2171 040e 4140     		eors	r1, r1, r0
 2172              		.loc 4 22 10 view .LVU824
 2173 0410 03FB01F0 		mul	r0, r3, r1
 2174 0414 C4F80802 		str	r0, [r4, #520]
  20:/Users/joostbooy/Desktop/Code/stm32/lib/utils/hash.h **** 			hash_ ^= *data_++;
 2175              		.loc 4 20 3 is_stmt 1 view .LVU825
  20:/Users/joostbooy/Desktop/Code/stm32/lib/utils/hash.h **** 			hash_ ^= *data_++;
 2176              		.loc 4 20 14 view .LVU826
 2177              	.LVL176:
  21:/Users/joostbooy/Desktop/Code/stm32/lib/utils/hash.h **** 			hash_ *= prime_;
 2178              		.loc 4 21 4 view .LVU827
 2179              		.loc 4 22 4 view .LVU828
  21:/Users/joostbooy/Desktop/Code/stm32/lib/utils/hash.h **** 			hash_ *= prime_;
 2180              		.loc 4 21 10 is_stmt 0 view .LVU829
 2181 0418 F179     		ldrb	r1, [r6, #7]	@ zero_extendqisi2
 2182 041a 4140     		eors	r1, r1, r0
 2183              		.loc 4 22 10 view .LVU830
 2184 041c 03FB01F1 		mul	r1, r3, r1
 2185 0420 C4F80812 		str	r1, [r4, #520]
  20:/Users/joostbooy/Desktop/Code/stm32/lib/utils/hash.h **** 			hash_ ^= *data_++;
 2186              		.loc 4 20 3 is_stmt 1 view .LVU831
  20:/Users/joostbooy/Desktop/Code/stm32/lib/utils/hash.h **** 			hash_ ^= *data_++;
 2187              		.loc 4 20 14 view .LVU832
 2188              	.LVL177:
  21:/Users/joostbooy/Desktop/Code/stm32/lib/utils/hash.h **** 			hash_ *= prime_;
 2189              		.loc 4 21 4 view .LVU833
 2190              		.loc 4 22 4 view .LVU834
  21:/Users/joostbooy/Desktop/Code/stm32/lib/utils/hash.h **** 			hash_ *= prime_;
 2191              		.loc 4 21 10 is_stmt 0 view .LVU835
 2192 0424 307A     		ldrb	r0, [r6, #8]	@ zero_extendqisi2
 2193 0426 4840     		eors	r0, r0, r1
 2194              		.loc 4 22 10 view .LVU836
 2195 0428 03FB00F1 		mul	r1, r3, r0
 2196 042c C4F80812 		str	r1, [r4, #520]
  20:/Users/joostbooy/Desktop/Code/stm32/lib/utils/hash.h **** 			hash_ ^= *data_++;
 2197              		.loc 4 20 3 is_stmt 1 view .LVU837
  20:/Users/joostbooy/Desktop/Code/stm32/lib/utils/hash.h **** 			hash_ ^= *data_++;
 2198              		.loc 4 20 14 view .LVU838
 2199              	.LVL178:
  21:/Users/joostbooy/Desktop/Code/stm32/lib/utils/hash.h **** 			hash_ *= prime_;
 2200              		.loc 4 21 4 view .LVU839
 2201              		.loc 4 22 4 view .LVU840
  21:/Users/joostbooy/Desktop/Code/stm32/lib/utils/hash.h **** 			hash_ *= prime_;
 2202              		.loc 4 21 10 is_stmt 0 view .LVU841
 2203 0430 707A     		ldrb	r0, [r6, #9]	@ zero_extendqisi2
 2204 0432 4840     		eors	r0, r0, r1
 2205              		.loc 4 22 10 view .LVU842
 2206 0434 03FB00F0 		mul	r0, r3, r0
 2207 0438 C4F80802 		str	r0, [r4, #520]
  20:/Users/joostbooy/Desktop/Code/stm32/lib/utils/hash.h **** 			hash_ ^= *data_++;
 2208              		.loc 4 20 3 is_stmt 1 view .LVU843
  20:/Users/joostbooy/Desktop/Code/stm32/lib/utils/hash.h **** 			hash_ ^= *data_++;
ARM GAS  /var/folders/84/_x1cyy_j36g486tldtwl37280000gn/T//cctc5fkA.s 			page 59


 2209              		.loc 4 20 14 view .LVU844
 2210              	.LVL179:
  21:/Users/joostbooy/Desktop/Code/stm32/lib/utils/hash.h **** 			hash_ *= prime_;
 2211              		.loc 4 21 4 view .LVU845
 2212              		.loc 4 22 4 view .LVU846
  21:/Users/joostbooy/Desktop/Code/stm32/lib/utils/hash.h **** 			hash_ *= prime_;
 2213              		.loc 4 21 10 is_stmt 0 view .LVU847
 2214 043c B17A     		ldrb	r1, [r6, #10]	@ zero_extendqisi2
 2215 043e 4140     		eors	r1, r1, r0
 2216              		.loc 4 22 10 view .LVU848
 2217 0440 03FB01F0 		mul	r0, r3, r1
 2218 0444 C4F80802 		str	r0, [r4, #520]
  20:/Users/joostbooy/Desktop/Code/stm32/lib/utils/hash.h **** 			hash_ ^= *data_++;
 2219              		.loc 4 20 3 is_stmt 1 view .LVU849
  20:/Users/joostbooy/Desktop/Code/stm32/lib/utils/hash.h **** 			hash_ ^= *data_++;
 2220              		.loc 4 20 14 view .LVU850
 2221              	.LVL180:
  21:/Users/joostbooy/Desktop/Code/stm32/lib/utils/hash.h **** 			hash_ *= prime_;
 2222              		.loc 4 21 4 view .LVU851
 2223              		.loc 4 22 4 view .LVU852
  21:/Users/joostbooy/Desktop/Code/stm32/lib/utils/hash.h **** 			hash_ *= prime_;
 2224              		.loc 4 21 10 is_stmt 0 view .LVU853
 2225 0448 F17A     		ldrb	r1, [r6, #11]	@ zero_extendqisi2
 2226 044a 4140     		eors	r1, r1, r0
 2227              		.loc 4 22 10 view .LVU854
 2228 044c 03FB01F1 		mul	r1, r3, r1
 2229 0450 C4F80812 		str	r1, [r4, #520]
  20:/Users/joostbooy/Desktop/Code/stm32/lib/utils/hash.h **** 			hash_ ^= *data_++;
 2230              		.loc 4 20 3 is_stmt 1 view .LVU855
  20:/Users/joostbooy/Desktop/Code/stm32/lib/utils/hash.h **** 			hash_ ^= *data_++;
 2231              		.loc 4 20 14 view .LVU856
 2232              	.LVL181:
  21:/Users/joostbooy/Desktop/Code/stm32/lib/utils/hash.h **** 			hash_ *= prime_;
 2233              		.loc 4 21 4 view .LVU857
 2234              		.loc 4 22 4 view .LVU858
  21:/Users/joostbooy/Desktop/Code/stm32/lib/utils/hash.h **** 			hash_ *= prime_;
 2235              		.loc 4 21 10 is_stmt 0 view .LVU859
 2236 0454 307B     		ldrb	r0, [r6, #12]	@ zero_extendqisi2
 2237 0456 4840     		eors	r0, r0, r1
 2238              		.loc 4 22 10 view .LVU860
 2239 0458 03FB00F1 		mul	r1, r3, r0
 2240 045c C4F80812 		str	r1, [r4, #520]
  20:/Users/joostbooy/Desktop/Code/stm32/lib/utils/hash.h **** 			hash_ ^= *data_++;
 2241              		.loc 4 20 3 is_stmt 1 view .LVU861
  20:/Users/joostbooy/Desktop/Code/stm32/lib/utils/hash.h **** 			hash_ ^= *data_++;
 2242              		.loc 4 20 14 view .LVU862
 2243              	.LVL182:
  21:/Users/joostbooy/Desktop/Code/stm32/lib/utils/hash.h **** 			hash_ *= prime_;
 2244              		.loc 4 21 4 view .LVU863
 2245              		.loc 4 22 4 view .LVU864
  21:/Users/joostbooy/Desktop/Code/stm32/lib/utils/hash.h **** 			hash_ *= prime_;
 2246              		.loc 4 21 10 is_stmt 0 view .LVU865
 2247 0460 707B     		ldrb	r0, [r6, #13]	@ zero_extendqisi2
 2248 0462 4840     		eors	r0, r0, r1
 2249              		.loc 4 22 10 view .LVU866
 2250 0464 03FB00F0 		mul	r0, r3, r0
 2251 0468 C4F80802 		str	r0, [r4, #520]
ARM GAS  /var/folders/84/_x1cyy_j36g486tldtwl37280000gn/T//cctc5fkA.s 			page 60


  20:/Users/joostbooy/Desktop/Code/stm32/lib/utils/hash.h **** 			hash_ ^= *data_++;
 2252              		.loc 4 20 3 is_stmt 1 view .LVU867
  20:/Users/joostbooy/Desktop/Code/stm32/lib/utils/hash.h **** 			hash_ ^= *data_++;
 2253              		.loc 4 20 14 view .LVU868
 2254              	.LVL183:
  21:/Users/joostbooy/Desktop/Code/stm32/lib/utils/hash.h **** 			hash_ *= prime_;
 2255              		.loc 4 21 4 view .LVU869
 2256              		.loc 4 22 4 view .LVU870
  21:/Users/joostbooy/Desktop/Code/stm32/lib/utils/hash.h **** 			hash_ *= prime_;
 2257              		.loc 4 21 10 is_stmt 0 view .LVU871
 2258 046c B17B     		ldrb	r1, [r6, #14]	@ zero_extendqisi2
 2259 046e 4140     		eors	r1, r1, r0
 2260              		.loc 4 22 10 view .LVU872
 2261 0470 03FB01F0 		mul	r0, r3, r1
 2262 0474 C4F80802 		str	r0, [r4, #520]
  20:/Users/joostbooy/Desktop/Code/stm32/lib/utils/hash.h **** 			hash_ ^= *data_++;
 2263              		.loc 4 20 3 is_stmt 1 view .LVU873
  20:/Users/joostbooy/Desktop/Code/stm32/lib/utils/hash.h **** 			hash_ ^= *data_++;
 2264              		.loc 4 20 14 view .LVU874
 2265              	.LVL184:
  21:/Users/joostbooy/Desktop/Code/stm32/lib/utils/hash.h **** 			hash_ *= prime_;
 2266              		.loc 4 21 4 view .LVU875
 2267              		.loc 4 22 4 view .LVU876
  21:/Users/joostbooy/Desktop/Code/stm32/lib/utils/hash.h **** 			hash_ *= prime_;
 2268              		.loc 4 21 10 is_stmt 0 view .LVU877
 2269 0478 F17B     		ldrb	r1, [r6, #15]	@ zero_extendqisi2
 2270 047a 4140     		eors	r1, r1, r0
 2271              		.loc 4 22 10 view .LVU878
 2272 047c 03FB01F1 		mul	r1, r3, r1
 2273 0480 C4F80812 		str	r1, [r4, #520]
  20:/Users/joostbooy/Desktop/Code/stm32/lib/utils/hash.h **** 			hash_ ^= *data_++;
 2274              		.loc 4 20 3 is_stmt 1 view .LVU879
  20:/Users/joostbooy/Desktop/Code/stm32/lib/utils/hash.h **** 			hash_ ^= *data_++;
 2275              		.loc 4 20 14 view .LVU880
 2276              	.LVL185:
  21:/Users/joostbooy/Desktop/Code/stm32/lib/utils/hash.h **** 			hash_ *= prime_;
 2277              		.loc 4 21 4 view .LVU881
 2278              		.loc 4 22 4 view .LVU882
  21:/Users/joostbooy/Desktop/Code/stm32/lib/utils/hash.h **** 			hash_ *= prime_;
 2279              		.loc 4 21 10 is_stmt 0 view .LVU883
 2280 0484 307C     		ldrb	r0, [r6, #16]	@ zero_extendqisi2
 2281 0486 1136     		adds	r6, r6, #17
 2282              	.LVL186:
  21:/Users/joostbooy/Desktop/Code/stm32/lib/utils/hash.h **** 			hash_ *= prime_;
 2283              		.loc 4 21 10 view .LVU884
 2284 0488 4140     		eors	r1, r1, r0
 2285              		.loc 4 22 10 view .LVU885
 2286 048a 03FB01F3 		mul	r3, r3, r1
 2287              	.LBE444:
 2288              	.LBE443:
 2289              	.LBE448:
  39:Src/Settings/song.cpp **** 		fileWriter.write(track_type_list_[i]);
 2290              		.loc 1 39 20 view .LVU886
 2291 048e BE42     		cmp	r6, r7
 2292              	.LBB449:
 2293              	.LBB446:
 2294              	.LBB445:
ARM GAS  /var/folders/84/_x1cyy_j36g486tldtwl37280000gn/T//cctc5fkA.s 			page 61


 2295              		.loc 4 22 10 view .LVU887
 2296 0490 C4F80832 		str	r3, [r4, #520]
  20:/Users/joostbooy/Desktop/Code/stm32/lib/utils/hash.h **** 			hash_ ^= *data_++;
 2297              		.loc 4 20 3 is_stmt 1 view .LVU888
  20:/Users/joostbooy/Desktop/Code/stm32/lib/utils/hash.h **** 			hash_ ^= *data_++;
 2298              		.loc 4 20 14 view .LVU889
 2299              	.LVL187:
  20:/Users/joostbooy/Desktop/Code/stm32/lib/utils/hash.h **** 			hash_ ^= *data_++;
 2300              		.loc 4 20 14 is_stmt 0 view .LVU890
 2301              	.LBE445:
 2302              	.LBE446:
 2303              	.LBE449:
  39:Src/Settings/song.cpp **** 		fileWriter.write(track_type_list_[i]);
 2304              		.loc 1 39 2 is_stmt 1 view .LVU891
  39:Src/Settings/song.cpp **** 		fileWriter.write(track_type_list_[i]);
 2305              		.loc 1 39 20 view .LVU892
 2306 0494 7FF45BAF 		bne	.L217
 2307 0498 05F17F09 		add	r9, r5, #127
 2308 049c 05F18806 		add	r6, r5, #136
 2309              	.L225:
 2310              	.LVL188:
  39:Src/Settings/song.cpp **** 		fileWriter.write(track_type_list_[i]);
 2311              		.loc 1 39 20 is_stmt 0 view .LVU893
 2312              	.LBE426:
 2313              	.LBB451:
  41:Src/Settings/song.cpp **** 	}
  42:Src/Settings/song.cpp **** 
  43:Src/Settings/song.cpp **** 	// song name
  44:Src/Settings/song.cpp **** 	for (int i = 0; i < max_name_length(); ++i) {
  45:Src/Settings/song.cpp **** 		fileWriter.write(name_[i]);
 2314              		.loc 1 45 3 is_stmt 1 discriminator 2 view .LVU894
 2315              	.LBB452:
 2316              	.LBI452:
  50:Src/Disk/fileWriter.h **** 		write_buffer(&data, sizeof(T));
 2317              		.loc 2 50 7 discriminator 2 view .LVU895
 2318              	.LBB453:
 2319              	.LBI453:
  65:Src/Disk/fileWriter.h **** 		uint8_t *data_ = reinterpret_cast<uint8_t *>(data);
 2320              		.loc 2 65 7 discriminator 2 view .LVU896
 2321              	.LBB454:
  68:Src/Disk/fileWriter.h **** 			if (buff_pos < kBufferSize) {
 2322              		.loc 2 68 3 discriminator 2 view .LVU897
  68:Src/Disk/fileWriter.h **** 			if (buff_pos < kBufferSize) {
 2323              		.loc 2 68 20 discriminator 2 view .LVU898
 2324 04a0 62B1     		cbz	r2, .L219
 2325              	.L218:
  69:Src/Disk/fileWriter.h **** 				buffer[buff_pos++] = *data_++;
 2326              		.loc 2 69 4 view .LVU899
  69:Src/Disk/fileWriter.h **** 				buffer[buff_pos++] = *data_++;
 2327              		.loc 2 69 8 is_stmt 0 view .LVU900
 2328 04a2 D4F80022 		ldr	r2, [r4, #512]
  69:Src/Disk/fileWriter.h **** 				buffer[buff_pos++] = *data_++;
 2329              		.loc 2 69 4 view .LVU901
 2330 04a6 B2F5007F 		cmp	r2, #512
 2331 04aa 15D2     		bcs	.L220
  70:Src/Disk/fileWriter.h **** 				--size;
 2332              		.loc 2 70 5 is_stmt 1 view .LVU902
ARM GAS  /var/folders/84/_x1cyy_j36g486tldtwl37280000gn/T//cctc5fkA.s 			page 62


 2333              	.LVL189:
  70:Src/Disk/fileWriter.h **** 				--size;
 2334              		.loc 2 70 20 is_stmt 0 view .LVU903
 2335 04ac 511C     		adds	r1, r2, #1
 2336 04ae C4F80012 		str	r1, [r4, #512]
  70:Src/Disk/fileWriter.h **** 				--size;
 2337              		.loc 2 70 26 view .LVU904
 2338 04b2 99F80100 		ldrb	r0, [r9, #1]	@ zero_extendqisi2
  70:Src/Disk/fileWriter.h **** 				--size;
 2339              		.loc 2 70 24 view .LVU905
 2340 04b6 A054     		strb	r0, [r4, r2]
  71:Src/Disk/fileWriter.h **** 			} else {
 2341              		.loc 2 71 5 is_stmt 1 view .LVU906
 2342              	.LVL190:
  68:Src/Disk/fileWriter.h **** 			if (buff_pos < kBufferSize) {
 2343              		.loc 2 68 3 view .LVU907
  68:Src/Disk/fileWriter.h **** 			if (buff_pos < kBufferSize) {
 2344              		.loc 2 68 20 view .LVU908
 2345 04b8 D4F80832 		ldr	r3, [r4, #520]
 2346              	.LVL191:
 2347              	.L219:
  68:Src/Disk/fileWriter.h **** 			if (buff_pos < kBufferSize) {
 2348              		.loc 2 68 20 is_stmt 0 view .LVU909
 2349              	.LBE454:
 2350              	.LBE453:
 2351              	.LBB466:
 2352              	.LBB467:
  20:/Users/joostbooy/Desktop/Code/stm32/lib/utils/hash.h **** 			hash_ ^= *data_++;
 2353              		.loc 4 20 3 is_stmt 1 view .LVU910
  20:/Users/joostbooy/Desktop/Code/stm32/lib/utils/hash.h **** 			hash_ ^= *data_++;
 2354              		.loc 4 20 14 view .LVU911
  21:/Users/joostbooy/Desktop/Code/stm32/lib/utils/hash.h **** 			hash_ *= prime_;
 2355              		.loc 4 21 4 view .LVU912
 2356              		.loc 4 22 4 view .LVU913
  21:/Users/joostbooy/Desktop/Code/stm32/lib/utils/hash.h **** 			hash_ *= prime_;
 2357              		.loc 4 21 10 is_stmt 0 view .LVU914
 2358 04bc 19F8017F 		ldrb	r7, [r9, #1]!	@ zero_extendqisi2
 2359              	.LVL192:
 2360              		.loc 4 22 10 view .LVU915
 2361 04c0 4C4A     		ldr	r2, .L334
  21:/Users/joostbooy/Desktop/Code/stm32/lib/utils/hash.h **** 			hash_ *= prime_;
 2362              		.loc 4 21 10 view .LVU916
 2363 04c2 7B40     		eors	r3, r3, r7
 2364              		.loc 4 22 10 view .LVU917
 2365 04c4 02FB03F3 		mul	r3, r2, r3
 2366              	.LBE467:
 2367              	.LBE466:
 2368              	.LBE452:
  44:Src/Settings/song.cpp **** 		fileWriter.write(name_[i]);
 2369              		.loc 1 44 20 view .LVU918
 2370 04c8 B145     		cmp	r9, r6
 2371              	.LBB471:
 2372              	.LBB469:
 2373              	.LBB468:
 2374              		.loc 4 22 10 view .LVU919
 2375 04ca C4F80832 		str	r3, [r4, #520]
  20:/Users/joostbooy/Desktop/Code/stm32/lib/utils/hash.h **** 			hash_ ^= *data_++;
ARM GAS  /var/folders/84/_x1cyy_j36g486tldtwl37280000gn/T//cctc5fkA.s 			page 63


 2376              		.loc 4 20 3 is_stmt 1 view .LVU920
  20:/Users/joostbooy/Desktop/Code/stm32/lib/utils/hash.h **** 			hash_ ^= *data_++;
 2377              		.loc 4 20 14 view .LVU921
 2378              	.LVL193:
  20:/Users/joostbooy/Desktop/Code/stm32/lib/utils/hash.h **** 			hash_ ^= *data_++;
 2379              		.loc 4 20 14 is_stmt 0 view .LVU922
 2380              	.LBE468:
 2381              	.LBE469:
 2382              	.LBE471:
  44:Src/Settings/song.cpp **** 		fileWriter.write(name_[i]);
 2383              		.loc 1 44 2 is_stmt 1 view .LVU923
  44:Src/Settings/song.cpp **** 		fileWriter.write(name_[i]);
 2384              		.loc 1 44 20 view .LVU924
  44:Src/Settings/song.cpp **** 		fileWriter.write(name_[i]);
 2385              		.loc 1 44 20 is_stmt 0 view .LVU925
 2386              	.LBE451:
 2387              		.file 7 "Src/Settings/song.h"
   1:Src/Settings/song.h **** #ifndef Song_h
   2:Src/Settings/song.h **** #define Song_h
   3:Src/Settings/song.h **** 
   4:Src/Settings/song.h **** #include "stmf4lib.h"
   5:Src/Settings/song.h **** #include "track.h"
   6:Src/Settings/song.h **** #include "scale.h"
   7:Src/Settings/song.h **** #include "chord.h"
   8:Src/Settings/song.h **** #include "midiClock.h"
   9:Src/Settings/song.h **** #include "uiList.h"
  10:Src/Settings/song.h **** 
  11:Src/Settings/song.h **** class Song {
  12:Src/Settings/song.h **** 
  13:Src/Settings/song.h **** public:
  14:Src/Settings/song.h **** 
  15:Src/Settings/song.h **** 	Scale scale;
  16:Src/Settings/song.h **** 	MidiClock midiClock;
  17:Src/Settings/song.h **** 
  18:Src/Settings/song.h **** 	Track &track(int index) {
  19:Src/Settings/song.h **** 		return track_[index];
  20:Src/Settings/song.h **** 	}
  21:Src/Settings/song.h **** 
  22:Src/Settings/song.h **** 	void init() {
  23:Src/Settings/song.h **** 		scale.init();
  24:Src/Settings/song.h **** 		midiClock.init();
  25:Src/Settings/song.h **** 		Chord::init(&scale);
  26:Src/Settings/song.h **** 		TrackData::init();
  27:Src/Settings/song.h **** 
  28:Src/Settings/song.h **** 		set_name("NEW_SONG");
  29:Src/Settings/song.h **** 
  30:Src/Settings/song.h **** 		for (int i = 0; i < Track::NUM_TYPES; ++i) {
  31:Src/Settings/song.h **** 			clear_list(&track_type_list_[i]);
  32:Src/Settings/song.h **** 		}
  33:Src/Settings/song.h **** 
  34:Src/Settings/song.h **** 		for (int i = 0; i < kMaxTracks; ++i) {
  35:Src/Settings/song.h **** 			track(i).init();
  36:Src/Settings/song.h **** 			track(i).set_index(i);
  37:Src/Settings/song.h **** 			create_track(i, Track::NOTE_TRACK);
  38:Src/Settings/song.h **** 		}
  39:Src/Settings/song.h **** 	}
  40:Src/Settings/song.h **** 
ARM GAS  /var/folders/84/_x1cyy_j36g486tldtwl37280000gn/T//cctc5fkA.s 			page 64


  41:Src/Settings/song.h **** 	// name
  42:Src/Settings/song.h **** 	const char* name() {
  43:Src/Settings/song.h **** 		return name_;
  44:Src/Settings/song.h **** 	}
  45:Src/Settings/song.h **** 
  46:Src/Settings/song.h **** 	constexpr uint8_t max_name_length() {
  47:Src/Settings/song.h **** 		return kMaxNameLength;
 2388              		.loc 7 47 3 is_stmt 1 view .LVU926
 2389              	.LBB473:
  44:Src/Settings/song.cpp **** 		fileWriter.write(name_[i]);
 2390              		.loc 1 44 20 is_stmt 0 view .LVU927
 2391 04ce 00F09380 		beq	.L224
 2392 04d2 94F80C22 		ldrb	r2, [r4, #524]	@ zero_extendqisi2
 2393 04d6 E3E7     		b	.L225
 2394              	.LVL194:
 2395              	.L220:
 2396              	.LBB472:
 2397              	.LBB470:
 2398              	.LBB465:
  73:Src/Disk/fileWriter.h **** 			}
 2399              		.loc 2 73 5 is_stmt 1 view .LVU928
 2400              	.LBB455:
 2401              	.LBI455:
  78:Src/Disk/fileWriter.h **** 		uint32_t size = buff_pos;
 2402              		.loc 2 78 7 view .LVU929
 2403              	.LBB456:
  79:Src/Disk/fileWriter.h **** 		buff_pos = 0;
 2404              		.loc 2 79 3 view .LVU930
  80:Src/Disk/fileWriter.h **** 		return file_->write(buffer, size);
 2405              		.loc 2 80 3 view .LVU931
 2406              		.loc 2 81 22 is_stmt 0 view .LVU932
 2407 04d8 D4F80432 		ldr	r3, [r4, #516]
  80:Src/Disk/fileWriter.h **** 		return file_->write(buffer, size);
 2408              		.loc 2 80 12 view .LVU933
 2409 04dc 4FF0000A 		mov	r10, #0
 2410              	.LBB457:
 2411              	.LBB458:
  49:Src/Disk/file.h **** 		if (num_written) {
 2412              		.loc 3 49 24 view .LVU934
 2413 04e0 1868     		ldr	r0, [r3]
 2414              	.LBE458:
 2415              	.LBE457:
  80:Src/Disk/fileWriter.h **** 		return file_->write(buffer, size);
 2416              		.loc 2 80 12 view .LVU935
 2417 04e2 C4F800A2 		str	r10, [r4, #512]
 2418              		.loc 2 81 3 is_stmt 1 view .LVU936
 2419              	.LVL195:
 2420              	.LBB461:
 2421              	.LBI457:
  47:Src/Disk/file.h **** 		UINT bw;
 2422              		.loc 3 47 7 view .LVU937
 2423              	.LBB459:
  48:Src/Disk/file.h **** 		FRESULT res = f_write(fil, data, size, &bw);
 2424              		.loc 3 48 3 view .LVU938
  49:Src/Disk/file.h **** 		if (num_written) {
 2425              		.loc 3 49 3 view .LVU939
  49:Src/Disk/file.h **** 		if (num_written) {
ARM GAS  /var/folders/84/_x1cyy_j36g486tldtwl37280000gn/T//cctc5fkA.s 			page 65


 2426              		.loc 3 49 24 is_stmt 0 view .LVU940
 2427 04e6 01AB     		add	r3, sp, #4
 2428              	.LVL196:
  49:Src/Disk/file.h **** 		if (num_written) {
 2429              		.loc 3 49 24 view .LVU941
 2430 04e8 2146     		mov	r1, r4
 2431 04ea FFF7FEFF 		bl	f_write
 2432              	.LVL197:
 2433              		.loc 3 53 19 view .LVU942
 2434 04ee 019A     		ldr	r2, [sp, #4]
 2435              	.LVL198:
  50:Src/Disk/file.h **** 			*num_written = bw;
 2436              		.loc 3 50 3 is_stmt 1 view .LVU943
 2437              		.loc 3 53 3 view .LVU944
 2438              		.loc 3 53 19 is_stmt 0 view .LVU945
 2439 04f0 32B1     		cbz	r2, .L221
 2440              	.LVL199:
 2441              		.loc 3 53 19 view .LVU946
 2442              	.LBE459:
 2443              	.LBE461:
 2444              	.LBE456:
 2445              	.LBE455:
  73:Src/Disk/fileWriter.h **** 			}
 2446              		.loc 2 73 15 view .LVU947
 2447 04f2 0127     		movs	r7, #1
 2448              	.LBB464:
 2449              	.LBB463:
 2450              	.LBB462:
 2451              	.LBB460:
 2452              		.loc 3 53 19 view .LVU948
 2453 04f4 48B1     		cbz	r0, .L222
 2454 04f6 D4F80832 		ldr	r3, [r4, #520]
 2455              	.LBE460:
 2456              	.LBE462:
 2457              	.LBE463:
 2458              	.LBE464:
  73:Src/Disk/fileWriter.h **** 			}
 2459              		.loc 2 73 15 view .LVU949
 2460 04fa 84F80CA2 		strb	r10, [r4, #524]
  68:Src/Disk/fileWriter.h **** 			if (buff_pos < kBufferSize) {
 2461              		.loc 2 68 3 is_stmt 1 view .LVU950
  68:Src/Disk/fileWriter.h **** 			if (buff_pos < kBufferSize) {
 2462              		.loc 2 68 20 view .LVU951
 2463 04fe DDE7     		b	.L219
 2464              	.LVL200:
 2465              	.L221:
  68:Src/Disk/fileWriter.h **** 			if (buff_pos < kBufferSize) {
 2466              		.loc 2 68 20 is_stmt 0 view .LVU952
 2467 0500 D4F80832 		ldr	r3, [r4, #520]
  73:Src/Disk/fileWriter.h **** 			}
 2468              		.loc 2 73 15 view .LVU953
 2469 0504 84F80C22 		strb	r2, [r4, #524]
  68:Src/Disk/fileWriter.h **** 			if (buff_pos < kBufferSize) {
 2470              		.loc 2 68 3 is_stmt 1 view .LVU954
  68:Src/Disk/fileWriter.h **** 			if (buff_pos < kBufferSize) {
 2471              		.loc 2 68 20 view .LVU955
 2472 0508 D8E7     		b	.L219
ARM GAS  /var/folders/84/_x1cyy_j36g486tldtwl37280000gn/T//cctc5fkA.s 			page 66


 2473              	.L222:
  73:Src/Disk/fileWriter.h **** 			}
 2474              		.loc 2 73 15 is_stmt 0 view .LVU956
 2475 050a 84F80C72 		strb	r7, [r4, #524]
  68:Src/Disk/fileWriter.h **** 			if (buff_pos < kBufferSize) {
 2476              		.loc 2 68 3 is_stmt 1 view .LVU957
  68:Src/Disk/fileWriter.h **** 			if (buff_pos < kBufferSize) {
 2477              		.loc 2 68 20 view .LVU958
 2478 050e C8E7     		b	.L218
 2479              	.LVL201:
 2480              	.L214:
  68:Src/Disk/fileWriter.h **** 			if (buff_pos < kBufferSize) {
 2481              		.loc 2 68 20 is_stmt 0 view .LVU959
 2482              	.LBE465:
 2483              	.LBE470:
 2484              	.LBE472:
 2485              	.LBE473:
 2486              	.LBB474:
 2487              	.LBB450:
 2488              	.LBB447:
 2489              	.LBB441:
  73:Src/Disk/fileWriter.h **** 			}
 2490              		.loc 2 73 15 view .LVU960
 2491 0510 84F80C22 		strb	r2, [r4, #524]
 2492              	.LVL202:
  68:Src/Disk/fileWriter.h **** 			if (buff_pos < kBufferSize) {
 2493              		.loc 2 68 3 is_stmt 1 view .LVU961
  68:Src/Disk/fileWriter.h **** 			if (buff_pos < kBufferSize) {
 2494              		.loc 2 68 20 view .LVU962
 2495 0514 52E7     		b	.L213
 2496              	.LVL203:
 2497              	.L215:
  73:Src/Disk/fileWriter.h **** 			}
 2498              		.loc 2 73 15 is_stmt 0 view .LVU963
 2499 0516 CE46     		mov	lr, r9
 2500 0518 84F80C12 		strb	r1, [r4, #524]
 2501              	.LVL204:
  68:Src/Disk/fileWriter.h **** 			if (buff_pos < kBufferSize) {
 2502              		.loc 2 68 3 is_stmt 1 view .LVU964
  68:Src/Disk/fileWriter.h **** 			if (buff_pos < kBufferSize) {
 2503              		.loc 2 68 20 view .LVU965
  73:Src/Disk/fileWriter.h **** 			}
 2504              		.loc 2 73 15 is_stmt 0 view .LVU966
 2505 051c F146     		mov	r9, lr
 2506 051e 30E7     		b	.L323
 2507              	.LVL205:
 2508              	.L204:
  73:Src/Disk/fileWriter.h **** 			}
 2509              		.loc 2 73 15 view .LVU967
 2510              	.LBE441:
 2511              	.LBE447:
 2512              	.LBE450:
 2513              	.LBE474:
 2514              	.LBB475:
 2515              	.LBB419:
 2516              	.LBB411:
 2517              	.LBB401:
ARM GAS  /var/folders/84/_x1cyy_j36g486tldtwl37280000gn/T//cctc5fkA.s 			page 67


 2518              	.LBB395:
  73:Src/Disk/fileWriter.h **** 			}
 2519              		.loc 2 73 5 is_stmt 1 view .LVU968
 2520              	.LBB384:
 2521              	.LBI384:
  78:Src/Disk/fileWriter.h **** 		uint32_t size = buff_pos;
 2522              		.loc 2 78 7 view .LVU969
 2523              	.LBB385:
  79:Src/Disk/fileWriter.h **** 		buff_pos = 0;
 2524              		.loc 2 79 3 view .LVU970
  80:Src/Disk/fileWriter.h **** 		return file_->write(buffer, size);
 2525              		.loc 2 80 3 view .LVU971
 2526              		.loc 2 81 22 is_stmt 0 view .LVU972
 2527 0520 D4F80402 		ldr	r0, [r4, #516]
  80:Src/Disk/fileWriter.h **** 		return file_->write(buffer, size);
 2528              		.loc 2 80 12 view .LVU973
 2529 0524 0026     		movs	r6, #0
 2530              	.LBB386:
 2531              	.LBB387:
  49:Src/Disk/file.h **** 		if (num_written) {
 2532              		.loc 3 49 24 view .LVU974
 2533 0526 0068     		ldr	r0, [r0]
 2534              	.LBE387:
 2535              	.LBE386:
  80:Src/Disk/fileWriter.h **** 		return file_->write(buffer, size);
 2536              		.loc 2 80 12 view .LVU975
 2537 0528 C4F80062 		str	r6, [r4, #512]
 2538              		.loc 2 81 3 is_stmt 1 view .LVU976
 2539              	.LVL206:
 2540              	.LBB390:
 2541              	.LBI386:
  47:Src/Disk/file.h **** 		UINT bw;
 2542              		.loc 3 47 7 view .LVU977
 2543              	.LBB388:
  48:Src/Disk/file.h **** 		FRESULT res = f_write(fil, data, size, &bw);
 2544              		.loc 3 48 3 view .LVU978
  49:Src/Disk/file.h **** 		if (num_written) {
 2545              		.loc 3 49 3 view .LVU979
  49:Src/Disk/file.h **** 		if (num_written) {
 2546              		.loc 3 49 24 is_stmt 0 view .LVU980
 2547 052c 2146     		mov	r1, r4
 2548 052e 01AB     		add	r3, sp, #4
 2549 0530 FFF7FEFF 		bl	f_write
 2550              	.LVL207:
 2551              		.loc 3 53 19 view .LVU981
 2552 0534 0199     		ldr	r1, [sp, #4]
 2553              	.LVL208:
  50:Src/Disk/file.h **** 			*num_written = bw;
 2554              		.loc 3 50 3 is_stmt 1 view .LVU982
 2555              		.loc 3 53 3 view .LVU983
 2556              		.loc 3 53 19 is_stmt 0 view .LVU984
 2557 0536 0029     		cmp	r1, #0
 2558 0538 50D0     		beq	.L206
 2559              	.LVL209:
 2560              		.loc 3 53 19 view .LVU985
 2561              	.LBE388:
 2562              	.LBE390:
ARM GAS  /var/folders/84/_x1cyy_j36g486tldtwl37280000gn/T//cctc5fkA.s 			page 68


 2563              	.LBE385:
 2564              	.LBE384:
  73:Src/Disk/fileWriter.h **** 			}
 2565              		.loc 2 73 15 view .LVU986
 2566 053a 0122     		movs	r2, #1
 2567              	.LBB393:
 2568              	.LBB392:
 2569              	.LBB391:
 2570              	.LBB389:
 2571              		.loc 3 53 19 view .LVU987
 2572 053c 0028     		cmp	r0, #0
 2573 053e 00F0BC81 		beq	.L207
 2574              	.LBE389:
 2575              	.LBE391:
 2576              	.LBE392:
 2577              	.LBE393:
  73:Src/Disk/fileWriter.h **** 			}
 2578              		.loc 2 73 15 view .LVU988
 2579 0542 84F80C62 		strb	r6, [r4, #524]
  68:Src/Disk/fileWriter.h **** 			if (buff_pos < kBufferSize) {
 2580              		.loc 2 68 3 is_stmt 1 view .LVU989
  68:Src/Disk/fileWriter.h **** 			if (buff_pos < kBufferSize) {
 2581              		.loc 2 68 20 view .LVU990
 2582              	.L208:
 2583 0546 D4F80832 		ldr	r3, [r4, #520]
 2584              	.LBE395:
 2585              	.LBE401:
 2586              	.LBE411:
 116:Src/Settings/midiClock.h **** 		fileWriter.write(sync_port_);
 2587              		.loc 6 116 20 is_stmt 0 view .LVU991
 2588 054a 0022     		movs	r2, #0
 2589 054c F6E6     		b	.L205
 2590              	.LVL210:
 2591              	.L175:
 116:Src/Settings/midiClock.h **** 		fileWriter.write(sync_port_);
 2592              		.loc 6 116 20 view .LVU992
 2593              	.LBE419:
 2594              	.LBE475:
 2595              	.LBB476:
 2596              	.LBB316:
 2597              	.LBB287:
 2598              	.LBB281:
  73:Src/Disk/fileWriter.h **** 			}
 2599              		.loc 2 73 5 is_stmt 1 view .LVU993
 2600              	.LBB271:
 2601              	.LBI271:
  78:Src/Disk/fileWriter.h **** 		uint32_t size = buff_pos;
 2602              		.loc 2 78 7 view .LVU994
 2603              	.LBB272:
  79:Src/Disk/fileWriter.h **** 		buff_pos = 0;
 2604              		.loc 2 79 3 view .LVU995
  80:Src/Disk/fileWriter.h **** 		return file_->write(buffer, size);
 2605              		.loc 2 80 3 view .LVU996
 2606              		.loc 2 81 22 is_stmt 0 view .LVU997
 2607 054e D4F80412 		ldr	r1, [r4, #516]
  80:Src/Disk/fileWriter.h **** 		return file_->write(buffer, size);
 2608              		.loc 2 80 12 view .LVU998
ARM GAS  /var/folders/84/_x1cyy_j36g486tldtwl37280000gn/T//cctc5fkA.s 			page 69


 2609 0552 0026     		movs	r6, #0
 2610              	.LBB273:
 2611              	.LBB274:
  49:Src/Disk/file.h **** 		if (num_written) {
 2612              		.loc 3 49 24 view .LVU999
 2613 0554 0868     		ldr	r0, [r1]
 2614              	.LBE274:
 2615              	.LBE273:
  80:Src/Disk/fileWriter.h **** 		return file_->write(buffer, size);
 2616              		.loc 2 80 12 view .LVU1000
 2617 0556 C4F80062 		str	r6, [r4, #512]
 2618              		.loc 2 81 3 is_stmt 1 view .LVU1001
 2619              	.LVL211:
 2620              	.LBB277:
 2621              	.LBI273:
  47:Src/Disk/file.h **** 		UINT bw;
 2622              		.loc 3 47 7 view .LVU1002
 2623              	.LBB275:
  48:Src/Disk/file.h **** 		FRESULT res = f_write(fil, data, size, &bw);
 2624              		.loc 3 48 3 view .LVU1003
  49:Src/Disk/file.h **** 		if (num_written) {
 2625              		.loc 3 49 3 view .LVU1004
  49:Src/Disk/file.h **** 		if (num_written) {
 2626              		.loc 3 49 24 is_stmt 0 view .LVU1005
 2627 055a 01AB     		add	r3, sp, #4
 2628 055c 2146     		mov	r1, r4
 2629              	.LVL212:
  49:Src/Disk/file.h **** 		if (num_written) {
 2630              		.loc 3 49 24 view .LVU1006
 2631 055e FFF7FEFF 		bl	f_write
 2632              	.LVL213:
 2633              		.loc 3 53 19 view .LVU1007
 2634 0562 019A     		ldr	r2, [sp, #4]
 2635              	.LVL214:
  50:Src/Disk/file.h **** 			*num_written = bw;
 2636              		.loc 3 50 3 is_stmt 1 view .LVU1008
 2637              		.loc 3 53 3 view .LVU1009
 2638              		.loc 3 53 19 is_stmt 0 view .LVU1010
 2639 0564 002A     		cmp	r2, #0
 2640 0566 3CD0     		beq	.L178
 2641              	.LVL215:
 2642              		.loc 3 53 19 view .LVU1011
 2643              	.LBE275:
 2644              	.LBE277:
 2645              	.LBE272:
 2646              	.LBE271:
  73:Src/Disk/fileWriter.h **** 			}
 2647              		.loc 2 73 15 view .LVU1012
 2648 0568 4FF0010E 		mov	lr, #1
 2649              	.LBB280:
 2650              	.LBB279:
 2651              	.LBB278:
 2652              	.LBB276:
 2653              		.loc 3 53 19 view .LVU1013
 2654 056c 0028     		cmp	r0, #0
 2655 056e 00F0A781 		beq	.L179
 2656              	.LBE276:
ARM GAS  /var/folders/84/_x1cyy_j36g486tldtwl37280000gn/T//cctc5fkA.s 			page 70


 2657              	.LBE278:
 2658              	.LBE279:
 2659              	.LBE280:
  73:Src/Disk/fileWriter.h **** 			}
 2660              		.loc 2 73 15 view .LVU1014
 2661 0572 84F80C62 		strb	r6, [r4, #524]
  68:Src/Disk/fileWriter.h **** 			if (buff_pos < kBufferSize) {
 2662              		.loc 2 68 3 is_stmt 1 view .LVU1015
  68:Src/Disk/fileWriter.h **** 			if (buff_pos < kBufferSize) {
 2663              		.loc 2 68 20 view .LVU1016
 2664              	.L180:
 2665 0576 D4F80812 		ldr	r1, [r4, #520]
 2666              	.L174:
 2667              	.LVL216:
  68:Src/Disk/fileWriter.h **** 			if (buff_pos < kBufferSize) {
 2668              		.loc 2 68 20 is_stmt 0 view .LVU1017
 2669              	.LBE281:
 2670              	.LBE287:
 2671              	.LBB288:
 2672              	.LBB286:
  20:/Users/joostbooy/Desktop/Code/stm32/lib/utils/hash.h **** 			hash_ ^= *data_++;
 2673              		.loc 4 20 3 is_stmt 1 view .LVU1018
  20:/Users/joostbooy/Desktop/Code/stm32/lib/utils/hash.h **** 			hash_ ^= *data_++;
 2674              		.loc 4 20 14 view .LVU1019
  21:/Users/joostbooy/Desktop/Code/stm32/lib/utils/hash.h **** 			hash_ *= prime_;
 2675              		.loc 4 21 4 view .LVU1020
 2676              		.loc 4 22 4 view .LVU1021
  21:/Users/joostbooy/Desktop/Code/stm32/lib/utils/hash.h **** 			hash_ *= prime_;
 2677              		.loc 4 21 10 is_stmt 0 view .LVU1022
 2678 057a 6E78     		ldrb	r6, [r5, #1]	@ zero_extendqisi2
 2679              		.loc 4 22 10 view .LVU1023
 2680 057c 1D4A     		ldr	r2, .L334
  21:/Users/joostbooy/Desktop/Code/stm32/lib/utils/hash.h **** 			hash_ *= prime_;
 2681              		.loc 4 21 10 view .LVU1024
 2682 057e 7140     		eors	r1, r1, r6
 2683              		.loc 4 22 10 view .LVU1025
 2684 0580 02FB01F2 		mul	r2, r2, r1
 2685 0584 C4F80822 		str	r2, [r4, #520]
  20:/Users/joostbooy/Desktop/Code/stm32/lib/utils/hash.h **** 			hash_ ^= *data_++;
 2686              		.loc 4 20 3 is_stmt 1 view .LVU1026
  20:/Users/joostbooy/Desktop/Code/stm32/lib/utils/hash.h **** 			hash_ ^= *data_++;
 2687              		.loc 4 20 14 view .LVU1027
 2688              	.LVL217:
  20:/Users/joostbooy/Desktop/Code/stm32/lib/utils/hash.h **** 			hash_ ^= *data_++;
 2689              		.loc 4 20 14 is_stmt 0 view .LVU1028
 2690              	.LBE286:
 2691              	.LBE288:
 2692              	.LBE316:
 2693              	.LBE476:
 2694              		.loc 5 157 3 is_stmt 1 view .LVU1029
 2695              	.LBB477:
 2696              	.LBB317:
  50:Src/Disk/fileWriter.h **** 		write_buffer(&data, sizeof(T));
 2697              		.loc 2 50 7 view .LVU1030
 2698              	.LBB311:
 2699              	.LBB304:
  68:Src/Disk/fileWriter.h **** 			if (buff_pos < kBufferSize) {
ARM GAS  /var/folders/84/_x1cyy_j36g486tldtwl37280000gn/T//cctc5fkA.s 			page 71


 2700              		.loc 2 68 3 view .LVU1031
  68:Src/Disk/fileWriter.h **** 			if (buff_pos < kBufferSize) {
 2701              		.loc 2 68 20 view .LVU1032
 2702              	.L177:
  68:Src/Disk/fileWriter.h **** 			if (buff_pos < kBufferSize) {
 2703              		.loc 2 68 20 is_stmt 0 view .LVU1033
 2704              	.LBE304:
 2705              	.LBE311:
 2706              	.LBB312:
 2707              	.LBB310:
  20:/Users/joostbooy/Desktop/Code/stm32/lib/utils/hash.h **** 			hash_ ^= *data_++;
 2708              		.loc 4 20 3 is_stmt 1 view .LVU1034
  20:/Users/joostbooy/Desktop/Code/stm32/lib/utils/hash.h **** 			hash_ ^= *data_++;
 2709              		.loc 4 20 14 view .LVU1035
  21:/Users/joostbooy/Desktop/Code/stm32/lib/utils/hash.h **** 			hash_ *= prime_;
 2710              		.loc 4 21 4 view .LVU1036
 2711              		.loc 4 22 4 view .LVU1037
  21:/Users/joostbooy/Desktop/Code/stm32/lib/utils/hash.h **** 			hash_ *= prime_;
 2712              		.loc 4 21 10 is_stmt 0 view .LVU1038
 2713 0588 2978     		ldrb	r1, [r5]	@ zero_extendqisi2
 2714              		.loc 4 22 10 view .LVU1039
 2715 058a 1A4B     		ldr	r3, .L334
  21:/Users/joostbooy/Desktop/Code/stm32/lib/utils/hash.h **** 			hash_ *= prime_;
 2716              		.loc 4 21 10 view .LVU1040
 2717 058c 4A40     		eors	r2, r2, r1
 2718              		.loc 4 22 10 view .LVU1041
 2719 058e 03FB02F3 		mul	r3, r3, r2
 2720 0592 C4F80832 		str	r3, [r4, #520]
  20:/Users/joostbooy/Desktop/Code/stm32/lib/utils/hash.h **** 			hash_ ^= *data_++;
 2721              		.loc 4 20 3 is_stmt 1 view .LVU1042
  20:/Users/joostbooy/Desktop/Code/stm32/lib/utils/hash.h **** 			hash_ ^= *data_++;
 2722              		.loc 4 20 14 view .LVU1043
 2723              	.LVL218:
  20:/Users/joostbooy/Desktop/Code/stm32/lib/utils/hash.h **** 			hash_ ^= *data_++;
 2724              		.loc 4 20 14 is_stmt 0 view .LVU1044
 2725              	.LBE310:
 2726              	.LBE312:
 2727              	.LBE317:
 2728              	.LBE477:
  36:Src/Settings/song.cpp **** 
 2729              		.loc 1 36 2 is_stmt 1 view .LVU1045
 2730              	.LBB478:
 114:Src/Settings/midiClock.h **** 		fileWriter.write(bpm_);
 2731              		.loc 6 114 7 view .LVU1046
 2732              	.LBB420:
 115:Src/Settings/midiClock.h **** 		fileWriter.write(bpm_fractional_);
 2733              		.loc 6 115 3 view .LVU1047
 2734              	.LBB412:
  50:Src/Disk/fileWriter.h **** 		write_buffer(&data, sizeof(T));
 2735              		.loc 2 50 7 view .LVU1048
 2736              	.LBB347:
 2737              	.LBB340:
  68:Src/Disk/fileWriter.h **** 			if (buff_pos < kBufferSize) {
 2738              		.loc 2 68 3 view .LVU1049
  68:Src/Disk/fileWriter.h **** 			if (buff_pos < kBufferSize) {
 2739              		.loc 2 68 20 view .LVU1050
 2740 0596 4EE6     		b	.L184
ARM GAS  /var/folders/84/_x1cyy_j36g486tldtwl37280000gn/T//cctc5fkA.s 			page 72


 2741              	.LVL219:
 2742              	.L182:
  68:Src/Disk/fileWriter.h **** 			if (buff_pos < kBufferSize) {
 2743              		.loc 2 68 20 is_stmt 0 view .LVU1051
 2744              	.LBE340:
 2745              	.LBE347:
 2746              	.LBE412:
 2747              	.LBE420:
 2748              	.LBE478:
 2749              	.LBB479:
 2750              	.LBB318:
 2751              	.LBB313:
 2752              	.LBB305:
  73:Src/Disk/fileWriter.h **** 			}
 2753              		.loc 2 73 5 is_stmt 1 view .LVU1052
 2754              	.LBB294:
 2755              	.LBI294:
  78:Src/Disk/fileWriter.h **** 		uint32_t size = buff_pos;
 2756              		.loc 2 78 7 view .LVU1053
 2757              	.LBB295:
  79:Src/Disk/fileWriter.h **** 		buff_pos = 0;
 2758              		.loc 2 79 3 view .LVU1054
  80:Src/Disk/fileWriter.h **** 		return file_->write(buffer, size);
 2759              		.loc 2 80 3 view .LVU1055
 2760              		.loc 2 81 22 is_stmt 0 view .LVU1056
 2761 0598 D4F80432 		ldr	r3, [r4, #516]
  80:Src/Disk/fileWriter.h **** 		return file_->write(buffer, size);
 2762              		.loc 2 80 12 view .LVU1057
 2763 059c 0026     		movs	r6, #0
 2764              	.LBB296:
 2765              	.LBB297:
  49:Src/Disk/file.h **** 		if (num_written) {
 2766              		.loc 3 49 24 view .LVU1058
 2767 059e 1868     		ldr	r0, [r3]
 2768              	.LBE297:
 2769              	.LBE296:
  80:Src/Disk/fileWriter.h **** 		return file_->write(buffer, size);
 2770              		.loc 2 80 12 view .LVU1059
 2771 05a0 C4F80062 		str	r6, [r4, #512]
 2772              		.loc 2 81 3 is_stmt 1 view .LVU1060
 2773              	.LVL220:
 2774              	.LBB300:
 2775              	.LBI296:
  47:Src/Disk/file.h **** 		UINT bw;
 2776              		.loc 3 47 7 view .LVU1061
 2777              	.LBB298:
  48:Src/Disk/file.h **** 		FRESULT res = f_write(fil, data, size, &bw);
 2778              		.loc 3 48 3 view .LVU1062
  49:Src/Disk/file.h **** 		if (num_written) {
 2779              		.loc 3 49 3 view .LVU1063
  49:Src/Disk/file.h **** 		if (num_written) {
 2780              		.loc 3 49 24 is_stmt 0 view .LVU1064
 2781 05a4 01AB     		add	r3, sp, #4
 2782              	.LVL221:
  49:Src/Disk/file.h **** 		if (num_written) {
 2783              		.loc 3 49 24 view .LVU1065
 2784 05a6 2146     		mov	r1, r4
ARM GAS  /var/folders/84/_x1cyy_j36g486tldtwl37280000gn/T//cctc5fkA.s 			page 73


 2785 05a8 FFF7FEFF 		bl	f_write
 2786              	.LVL222:
 2787              		.loc 3 53 19 view .LVU1066
 2788 05ac 019A     		ldr	r2, [sp, #4]
 2789              	.LVL223:
  50:Src/Disk/file.h **** 			*num_written = bw;
 2790              		.loc 3 50 3 is_stmt 1 view .LVU1067
 2791              		.loc 3 53 3 view .LVU1068
 2792              		.loc 3 53 19 is_stmt 0 view .LVU1069
 2793 05ae F2B1     		cbz	r2, .L185
 2794              	.LVL224:
 2795              		.loc 3 53 19 view .LVU1070
 2796              	.LBE298:
 2797              	.LBE300:
 2798              	.LBE295:
 2799              	.LBE294:
  73:Src/Disk/fileWriter.h **** 			}
 2800              		.loc 2 73 15 view .LVU1071
 2801 05b0 0121     		movs	r1, #1
 2802              	.LBB303:
 2803              	.LBB302:
 2804              	.LBB301:
 2805              	.LBB299:
 2806              		.loc 3 53 19 view .LVU1072
 2807 05b2 0028     		cmp	r0, #0
 2808 05b4 00F07E81 		beq	.L186
 2809              	.LBE299:
 2810              	.LBE301:
 2811              	.LBE302:
 2812              	.LBE303:
  73:Src/Disk/fileWriter.h **** 			}
 2813              		.loc 2 73 15 view .LVU1073
 2814 05b8 84F80C62 		strb	r6, [r4, #524]
  68:Src/Disk/fileWriter.h **** 			if (buff_pos < kBufferSize) {
 2815              		.loc 2 68 3 is_stmt 1 view .LVU1074
  68:Src/Disk/fileWriter.h **** 			if (buff_pos < kBufferSize) {
 2816              		.loc 2 68 20 view .LVU1075
 2817              	.L187:
 2818 05bc D4F80822 		ldr	r2, [r4, #520]
 2819 05c0 E2E7     		b	.L177
 2820              	.LVL225:
 2821              	.L171:
  68:Src/Disk/fileWriter.h **** 			if (buff_pos < kBufferSize) {
 2822              		.loc 2 68 20 is_stmt 0 view .LVU1076
 2823              	.LBE305:
 2824              	.LBE313:
 2825              	.LBE318:
 2826              	.LBE479:
 2827              	.LBB480:
 2828              	.LBB265:
 2829              	.LBB261:
  73:Src/Disk/fileWriter.h **** 			}
 2830              		.loc 2 73 15 view .LVU1077
 2831 05c2 84F80C22 		strb	r2, [r4, #524]
 2832              	.LVL226:
  68:Src/Disk/fileWriter.h **** 			if (buff_pos < kBufferSize) {
 2833              		.loc 2 68 3 is_stmt 1 view .LVU1078
ARM GAS  /var/folders/84/_x1cyy_j36g486tldtwl37280000gn/T//cctc5fkA.s 			page 74


  68:Src/Disk/fileWriter.h **** 			if (buff_pos < kBufferSize) {
 2834              		.loc 2 68 20 view .LVU1079
 2835 05c6 AAE5     		b	.L170
 2836              	.LVL227:
 2837              	.L162:
  68:Src/Disk/fileWriter.h **** 			if (buff_pos < kBufferSize) {
 2838              		.loc 2 68 20 is_stmt 0 view .LVU1080
 2839              	.LBE261:
 2840              	.LBE265:
 2841              	.LBE480:
 2842              	.LBB481:
 2843              	.LBB245:
 2844              	.LBB240:
  73:Src/Disk/fileWriter.h **** 			}
 2845              		.loc 2 73 15 view .LVU1081
 2846 05c8 0121     		movs	r1, #1
 2847              	.LBB238:
 2848              	.LBB237:
 2849              	.LBB236:
 2850              	.LBB234:
 2851              		.loc 3 53 19 view .LVU1082
 2852 05ca 0028     		cmp	r0, #0
 2853 05cc 00F06781 		beq	.L163
 2854              	.LBE234:
 2855              	.LBE236:
 2856              	.LBE237:
 2857              	.LBE238:
  73:Src/Disk/fileWriter.h **** 			}
 2858              		.loc 2 73 15 view .LVU1083
 2859 05d0 84F80C92 		strb	r9, [r4, #524]
 2860              	.LVL228:
  68:Src/Disk/fileWriter.h **** 			if (buff_pos < kBufferSize) {
 2861              		.loc 2 68 3 is_stmt 1 view .LVU1084
  68:Src/Disk/fileWriter.h **** 			if (buff_pos < kBufferSize) {
 2862              		.loc 2 68 20 view .LVU1085
 2863 05d4 4DE5     		b	.L161
 2864              	.LVL229:
 2865              	.L193:
  68:Src/Disk/fileWriter.h **** 			if (buff_pos < kBufferSize) {
 2866              		.loc 2 68 20 is_stmt 0 view .LVU1086
 2867              	.LBE240:
 2868              	.LBE245:
 2869              	.LBE481:
 2870              	.LBB482:
 2871              	.LBB421:
 2872              	.LBB413:
 2873              	.LBB348:
 2874              	.LBB341:
  73:Src/Disk/fileWriter.h **** 			}
 2875              		.loc 2 73 15 view .LVU1087
 2876 05d6 84F80C22 		strb	r2, [r4, #524]
 2877              	.LVL230:
  68:Src/Disk/fileWriter.h **** 			if (buff_pos < kBufferSize) {
 2878              		.loc 2 68 3 is_stmt 1 view .LVU1088
  68:Src/Disk/fileWriter.h **** 			if (buff_pos < kBufferSize) {
 2879              		.loc 2 68 20 view .LVU1089
 2880 05da 2AE6     		b	.L192
ARM GAS  /var/folders/84/_x1cyy_j36g486tldtwl37280000gn/T//cctc5fkA.s 			page 75


 2881              	.LVL231:
 2882              	.L206:
  68:Src/Disk/fileWriter.h **** 			if (buff_pos < kBufferSize) {
 2883              		.loc 2 68 20 is_stmt 0 view .LVU1090
 2884              	.LBE341:
 2885              	.LBE348:
 2886              	.LBE413:
 2887              	.LBB414:
 2888              	.LBB402:
 2889              	.LBB396:
  73:Src/Disk/fileWriter.h **** 			}
 2890              		.loc 2 73 15 view .LVU1091
 2891 05dc 84F80C12 		strb	r1, [r4, #524]
  68:Src/Disk/fileWriter.h **** 			if (buff_pos < kBufferSize) {
 2892              		.loc 2 68 3 is_stmt 1 view .LVU1092
  68:Src/Disk/fileWriter.h **** 			if (buff_pos < kBufferSize) {
 2893              		.loc 2 68 20 view .LVU1093
 2894 05e0 B1E7     		b	.L208
 2895              	.LVL232:
 2896              	.L178:
  68:Src/Disk/fileWriter.h **** 			if (buff_pos < kBufferSize) {
 2897              		.loc 2 68 20 is_stmt 0 view .LVU1094
 2898              	.LBE396:
 2899              	.LBE402:
 2900              	.LBE414:
 2901              	.LBE421:
 2902              	.LBE482:
 2903              	.LBB483:
 2904              	.LBB319:
 2905              	.LBB289:
 2906              	.LBB282:
  73:Src/Disk/fileWriter.h **** 			}
 2907              		.loc 2 73 15 view .LVU1095
 2908 05e2 84F80C22 		strb	r2, [r4, #524]
  68:Src/Disk/fileWriter.h **** 			if (buff_pos < kBufferSize) {
 2909              		.loc 2 68 3 is_stmt 1 view .LVU1096
  68:Src/Disk/fileWriter.h **** 			if (buff_pos < kBufferSize) {
 2910              		.loc 2 68 20 view .LVU1097
 2911 05e6 C6E7     		b	.L180
 2912              	.LVL233:
 2913              	.L202:
  68:Src/Disk/fileWriter.h **** 			if (buff_pos < kBufferSize) {
 2914              		.loc 2 68 20 is_stmt 0 view .LVU1098
 2915              	.LBE282:
 2916              	.LBE289:
 2917              	.LBE319:
 2918              	.LBE483:
 2919              	.LBB484:
 2920              	.LBB422:
 2921              	.LBB415:
 2922              	.LBB379:
 2923              	.LBB367:
  73:Src/Disk/fileWriter.h **** 			}
 2924              		.loc 2 73 15 view .LVU1099
 2925 05e8 84F80C22 		strb	r2, [r4, #524]
  68:Src/Disk/fileWriter.h **** 			if (buff_pos < kBufferSize) {
 2926              		.loc 2 68 3 is_stmt 1 view .LVU1100
ARM GAS  /var/folders/84/_x1cyy_j36g486tldtwl37280000gn/T//cctc5fkA.s 			page 76


  68:Src/Disk/fileWriter.h **** 			if (buff_pos < kBufferSize) {
 2927              		.loc 2 68 20 view .LVU1101
 2928 05ec 82E6     		b	.L201
 2929              	.LVL234:
 2930              	.L185:
  68:Src/Disk/fileWriter.h **** 			if (buff_pos < kBufferSize) {
 2931              		.loc 2 68 20 is_stmt 0 view .LVU1102
 2932              	.LBE367:
 2933              	.LBE379:
 2934              	.LBE415:
 2935              	.LBE422:
 2936              	.LBE484:
 2937              	.LBB485:
 2938              	.LBB320:
 2939              	.LBB314:
 2940              	.LBB306:
  73:Src/Disk/fileWriter.h **** 			}
 2941              		.loc 2 73 15 view .LVU1103
 2942 05ee 84F80C22 		strb	r2, [r4, #524]
  68:Src/Disk/fileWriter.h **** 			if (buff_pos < kBufferSize) {
 2943              		.loc 2 68 3 is_stmt 1 view .LVU1104
  68:Src/Disk/fileWriter.h **** 			if (buff_pos < kBufferSize) {
 2944              		.loc 2 68 20 view .LVU1105
 2945 05f2 E3E7     		b	.L187
 2946              	.L335:
 2947              		.align	2
 2948              	.L334:
 2949 05f4 93010001 		.word	16777619
 2950              	.LVL235:
 2951              	.L224:
  68:Src/Disk/fileWriter.h **** 			if (buff_pos < kBufferSize) {
 2952              		.loc 2 68 20 is_stmt 0 view .LVU1106
 2953 05f8 05F5BC56 		add	r6, r5, #6016
 2954 05fc 0C36     		adds	r6, r6, #12
 2955 05fe 8C35     		adds	r5, r5, #140
 2956              	.LVL236:
 2957              	.L226:
  68:Src/Disk/fileWriter.h **** 			if (buff_pos < kBufferSize) {
 2958              		.loc 2 68 20 view .LVU1107
 2959              	.LBE306:
 2960              	.LBE314:
 2961              	.LBE320:
 2962              	.LBE485:
 2963              	.LBB486:
  46:Src/Settings/song.cpp **** 	}
  47:Src/Settings/song.cpp **** 
  48:Src/Settings/song.cpp **** 	// tracks
  49:Src/Settings/song.cpp **** 	for (int i = 0; i < max_tracks(); ++i) {
  50:Src/Settings/song.cpp **** 		track_[i].save(fileWriter);
 2964              		.loc 1 50 3 is_stmt 1 discriminator 2 view .LVU1108
 2965              		.loc 1 50 17 is_stmt 0 discriminator 2 view .LVU1109
 2966 0600 2846     		mov	r0, r5
 2967 0602 2146     		mov	r1, r4
 2968 0604 05F5B875 		add	r5, r5, #368
 2969 0608 FFF7FEFF 		bl	_ZN5Track4saveER10FileWriter
 2970              	.LVL237:
  49:Src/Settings/song.cpp **** 		track_[i].save(fileWriter);
ARM GAS  /var/folders/84/_x1cyy_j36g486tldtwl37280000gn/T//cctc5fkA.s 			page 77


 2971              		.loc 1 49 2 is_stmt 1 discriminator 2 view .LVU1110
  49:Src/Settings/song.cpp **** 		track_[i].save(fileWriter);
 2972              		.loc 1 49 20 discriminator 2 view .LVU1111
  49:Src/Settings/song.cpp **** 		track_[i].save(fileWriter);
 2973              		.loc 1 49 20 is_stmt 0 discriminator 2 view .LVU1112
 2974              	.LBE486:
  48:Src/Settings/song.h **** 	}
  49:Src/Settings/song.h **** 
  50:Src/Settings/song.h **** 	void set_name(const char* new_name) {
  51:Src/Settings/song.h **** 		StringUtils::copy(name_, const_cast<char*>(new_name), kMaxNameLength);
  52:Src/Settings/song.h **** 	}
  53:Src/Settings/song.h **** 
  54:Src/Settings/song.h **** 	// patterns
  55:Src/Settings/song.h **** 	int available_patterns() {
  56:Src/Settings/song.h **** 		return TrackData::pattern_pool_.size_;
  57:Src/Settings/song.h **** 	}
  58:Src/Settings/song.h **** 
  59:Src/Settings/song.h **** 	int max_patterns() {
  60:Src/Settings/song.h **** 		return TrackData::kMaxPatterns;
  61:Src/Settings/song.h **** 	}
  62:Src/Settings/song.h **** 
  63:Src/Settings/song.h **** 	// tracks
  64:Src/Settings/song.h **** 	constexpr int max_tracks() {
  65:Src/Settings/song.h **** 		return kMaxTracks;
 2975              		.loc 7 65 3 is_stmt 1 discriminator 2 view .LVU1113
 2976              	.LBB487:
  49:Src/Settings/song.cpp **** 		track_[i].save(fileWriter);
 2977              		.loc 1 49 20 is_stmt 0 discriminator 2 view .LVU1114
 2978 060c B542     		cmp	r5, r6
 2979 060e F7D1     		bne	.L226
 2980              	.LVL238:
  49:Src/Settings/song.cpp **** 		track_[i].save(fileWriter);
 2981              		.loc 1 49 20 discriminator 2 view .LVU1115
 2982              	.LBE487:
 2983              	.LBB488:
 2984              	.LBB489:
 2985              	.LBB490:
  68:Src/Disk/fileWriter.h **** 			if (buff_pos < kBufferSize) {
 2986              		.loc 2 68 3 is_stmt 1 view .LVU1116
  68:Src/Disk/fileWriter.h **** 			if (buff_pos < kBufferSize) {
 2987              		.loc 2 68 20 view .LVU1117
  68:Src/Disk/fileWriter.h **** 			if (buff_pos < kBufferSize) {
 2988              		.loc 2 68 10 is_stmt 0 view .LVU1118
 2989 0610 94F80C32 		ldrb	r3, [r4, #524]	@ zero_extendqisi2
  68:Src/Disk/fileWriter.h **** 			if (buff_pos < kBufferSize) {
 2990              		.loc 2 68 20 view .LVU1119
 2991 0614 9BB3     		cbz	r3, .L228
  69:Src/Disk/fileWriter.h **** 				buffer[buff_pos++] = *data_++;
 2992              		.loc 2 69 8 view .LVU1120
 2993 0616 D4F80022 		ldr	r2, [r4, #512]
  66:Src/Disk/fileWriter.h **** 
 2994              		.loc 2 66 12 view .LVU1121
 2995 061a AC4E     		ldr	r6, .L336
 2996              	.LVL239:
  69:Src/Disk/fileWriter.h **** 				buffer[buff_pos++] = *data_++;
 2997              		.loc 2 69 4 view .LVU1122
 2998 061c B2F5007F 		cmp	r2, #512
ARM GAS  /var/folders/84/_x1cyy_j36g486tldtwl37280000gn/T//cctc5fkA.s 			page 78


  68:Src/Disk/fileWriter.h **** 			if (buff_pos < kBufferSize) {
 2999              		.loc 2 68 20 view .LVU1123
 3000 0620 4FF48075 		mov	r5, #256
  69:Src/Disk/fileWriter.h **** 				buffer[buff_pos++] = *data_++;
 3001              		.loc 2 69 4 is_stmt 1 view .LVU1124
  70:Src/Disk/fileWriter.h **** 				--size;
 3002              		.loc 2 70 5 view .LVU1125
  70:Src/Disk/fileWriter.h **** 				--size;
 3003              		.loc 2 70 32 is_stmt 0 view .LVU1126
 3004 0624 B646     		mov	lr, r6
 3005              	.LVL240:
  70:Src/Disk/fileWriter.h **** 				--size;
 3006              		.loc 2 70 20 view .LVU1127
 3007 0626 02F10103 		add	r3, r2, #1
  69:Src/Disk/fileWriter.h **** 				buffer[buff_pos++] = *data_++;
 3008              		.loc 2 69 4 view .LVU1128
 3009 062a 12D2     		bcs	.L229
 3010              	.LVL241:
 3011              	.L324:
  70:Src/Disk/fileWriter.h **** 				--size;
 3012              		.loc 2 70 20 view .LVU1129
 3013 062c C4F80032 		str	r3, [r4, #512]
  70:Src/Disk/fileWriter.h **** 				--size;
 3014              		.loc 2 70 26 view .LVU1130
 3015 0630 1EF8010B 		ldrb	r0, [lr], #1	@ zero_extendqisi2
  70:Src/Disk/fileWriter.h **** 				--size;
 3016              		.loc 2 70 24 view .LVU1131
 3017 0634 A054     		strb	r0, [r4, r2]
  71:Src/Disk/fileWriter.h **** 			} else {
 3018              		.loc 2 71 5 is_stmt 1 view .LVU1132
 3019              	.LVL242:
  71:Src/Disk/fileWriter.h **** 			} else {
 3020              		.loc 2 71 5 is_stmt 0 view .LVU1133
 3021 0636 94F80C32 		ldrb	r3, [r4, #524]	@ zero_extendqisi2
 3022 063a 013D     		subs	r5, r5, #1
 3023              	.LVL243:
  68:Src/Disk/fileWriter.h **** 			if (buff_pos < kBufferSize) {
 3024              		.loc 2 68 3 is_stmt 1 view .LVU1134
  68:Src/Disk/fileWriter.h **** 			if (buff_pos < kBufferSize) {
 3025              		.loc 2 68 20 view .LVU1135
 3026 063c F3B1     		cbz	r3, .L231
 3027 063e F5B1     		cbz	r5, .L228
  73:Src/Disk/fileWriter.h **** 			}
 3028              		.loc 2 73 15 is_stmt 0 view .LVU1136
 3029 0640 7646     		mov	r6, lr
 3030              	.LVL244:
 3031              	.L327:
  69:Src/Disk/fileWriter.h **** 				buffer[buff_pos++] = *data_++;
 3032              		.loc 2 69 4 is_stmt 1 view .LVU1137
  70:Src/Disk/fileWriter.h **** 				--size;
 3033              		.loc 2 70 5 view .LVU1138
  69:Src/Disk/fileWriter.h **** 				buffer[buff_pos++] = *data_++;
 3034              		.loc 2 69 8 is_stmt 0 view .LVU1139
 3035 0642 D4F80022 		ldr	r2, [r4, #512]
  69:Src/Disk/fileWriter.h **** 				buffer[buff_pos++] = *data_++;
 3036              		.loc 2 69 4 view .LVU1140
 3037 0646 B2F5007F 		cmp	r2, #512
ARM GAS  /var/folders/84/_x1cyy_j36g486tldtwl37280000gn/T//cctc5fkA.s 			page 79


  70:Src/Disk/fileWriter.h **** 				--size;
 3038              		.loc 2 70 32 view .LVU1141
 3039 064a B646     		mov	lr, r6
 3040              	.LVL245:
  70:Src/Disk/fileWriter.h **** 				--size;
 3041              		.loc 2 70 20 view .LVU1142
 3042 064c 02F10103 		add	r3, r2, #1
  69:Src/Disk/fileWriter.h **** 				buffer[buff_pos++] = *data_++;
 3043              		.loc 2 69 4 view .LVU1143
 3044 0650 ECD3     		bcc	.L324
 3045              	.LVL246:
 3046              	.L229:
  73:Src/Disk/fileWriter.h **** 			}
 3047              		.loc 2 73 5 is_stmt 1 view .LVU1144
 3048              	.LBB491:
 3049              	.LBI491:
  78:Src/Disk/fileWriter.h **** 		uint32_t size = buff_pos;
 3050              		.loc 2 78 7 view .LVU1145
 3051              	.LBB492:
  79:Src/Disk/fileWriter.h **** 		buff_pos = 0;
 3052              		.loc 2 79 3 view .LVU1146
  80:Src/Disk/fileWriter.h **** 		return file_->write(buffer, size);
 3053              		.loc 2 80 3 view .LVU1147
 3054              		.loc 2 81 22 is_stmt 0 view .LVU1148
 3055 0652 D4F80412 		ldr	r1, [r4, #516]
  80:Src/Disk/fileWriter.h **** 		return file_->write(buffer, size);
 3056              		.loc 2 80 12 view .LVU1149
 3057 0656 0027     		movs	r7, #0
 3058              	.LBB493:
 3059              	.LBB494:
  49:Src/Disk/file.h **** 		if (num_written) {
 3060              		.loc 3 49 24 view .LVU1150
 3061 0658 0868     		ldr	r0, [r1]
 3062              	.LBE494:
 3063              	.LBE493:
  80:Src/Disk/fileWriter.h **** 		return file_->write(buffer, size);
 3064              		.loc 2 80 12 view .LVU1151
 3065 065a C4F80072 		str	r7, [r4, #512]
 3066              		.loc 2 81 3 is_stmt 1 view .LVU1152
 3067              	.LVL247:
 3068              	.LBB497:
 3069              	.LBI493:
  47:Src/Disk/file.h **** 		UINT bw;
 3070              		.loc 3 47 7 view .LVU1153
 3071              	.LBB495:
  48:Src/Disk/file.h **** 		FRESULT res = f_write(fil, data, size, &bw);
 3072              		.loc 3 48 3 view .LVU1154
  49:Src/Disk/file.h **** 		if (num_written) {
 3073              		.loc 3 49 3 view .LVU1155
  49:Src/Disk/file.h **** 		if (num_written) {
 3074              		.loc 3 49 24 is_stmt 0 view .LVU1156
 3075 065e 01AB     		add	r3, sp, #4
 3076 0660 2146     		mov	r1, r4
 3077              	.LVL248:
  49:Src/Disk/file.h **** 		if (num_written) {
 3078              		.loc 3 49 24 view .LVU1157
 3079 0662 FFF7FEFF 		bl	f_write
ARM GAS  /var/folders/84/_x1cyy_j36g486tldtwl37280000gn/T//cctc5fkA.s 			page 80


 3080              	.LVL249:
 3081              		.loc 3 53 19 view .LVU1158
 3082 0666 019A     		ldr	r2, [sp, #4]
 3083              	.LVL250:
  50:Src/Disk/file.h **** 			*num_written = bw;
 3084              		.loc 3 50 3 is_stmt 1 view .LVU1159
 3085              		.loc 3 53 3 view .LVU1160
 3086              		.loc 3 53 19 is_stmt 0 view .LVU1161
 3087 0668 002A     		cmp	r2, #0
 3088 066a 00F00481 		beq	.L232
 3089              	.LVL251:
 3090              		.loc 3 53 19 view .LVU1162
 3091              	.LBE495:
 3092              	.LBE497:
 3093              	.LBE492:
 3094              	.LBE491:
  73:Src/Disk/fileWriter.h **** 			}
 3095              		.loc 2 73 15 view .LVU1163
 3096 066e 4FF0010C 		mov	ip, #1
 3097              	.LBB500:
 3098              	.LBB499:
 3099              	.LBB498:
 3100              	.LBB496:
 3101              		.loc 3 53 19 view .LVU1164
 3102 0672 0028     		cmp	r0, #0
 3103 0674 00F00581 		beq	.L233
 3104              	.LBE496:
 3105              	.LBE498:
 3106              	.LBE499:
 3107              	.LBE500:
  73:Src/Disk/fileWriter.h **** 			}
 3108              		.loc 2 73 15 view .LVU1165
 3109 0678 84F80C72 		strb	r7, [r4, #524]
  68:Src/Disk/fileWriter.h **** 			if (buff_pos < kBufferSize) {
 3110              		.loc 2 68 3 is_stmt 1 view .LVU1166
  68:Src/Disk/fileWriter.h **** 			if (buff_pos < kBufferSize) {
 3111              		.loc 2 68 20 view .LVU1167
 3112              	.L231:
  68:Src/Disk/fileWriter.h **** 			if (buff_pos < kBufferSize) {
 3113              		.loc 2 68 20 is_stmt 0 view .LVU1168
 3114 067c 0023     		movs	r3, #0
 3115              	.L228:
  68:Src/Disk/fileWriter.h **** 			if (buff_pos < kBufferSize) {
 3116              		.loc 2 68 20 view .LVU1169
 3117 067e 934A     		ldr	r2, .L336
 3118 0680 D4F80802 		ldr	r0, [r4, #520]
 3119 0684 02F58078 		add	r8, r2, #256
 3120              	.LVL252:
 3121              	.L235:
  68:Src/Disk/fileWriter.h **** 			if (buff_pos < kBufferSize) {
 3122              		.loc 2 68 20 view .LVU1170
 3123              	.LBE490:
 3124              	.LBE489:
 3125              	.LBB503:
 3126              	.LBB504:
  21:/Users/joostbooy/Desktop/Code/stm32/lib/utils/hash.h **** 			hash_ *= prime_;
 3127              		.loc 4 21 4 is_stmt 1 view .LVU1171
ARM GAS  /var/folders/84/_x1cyy_j36g486tldtwl37280000gn/T//cctc5fkA.s 			page 81


  21:/Users/joostbooy/Desktop/Code/stm32/lib/utils/hash.h **** 			hash_ *= prime_;
 3128              		.loc 4 21 19 is_stmt 0 view .LVU1172
 3129 0688 9146     		mov	r9, r2
 3130              		.loc 4 22 4 is_stmt 1 view .LVU1173
 3131              		.loc 4 22 10 is_stmt 0 view .LVU1174
 3132 068a 914E     		ldr	r6, .L336+4
  21:/Users/joostbooy/Desktop/Code/stm32/lib/utils/hash.h **** 			hash_ *= prime_;
 3133              		.loc 4 21 10 view .LVU1175
 3134 068c 19F8011B 		ldrb	r1, [r9], #1	@ zero_extendqisi2
 3135 0690 4840     		eors	r0, r0, r1
 3136              		.loc 4 22 10 view .LVU1176
 3137 0692 06FB00F7 		mul	r7, r6, r0
 3138 0696 C4F80872 		str	r7, [r4, #520]
  20:/Users/joostbooy/Desktop/Code/stm32/lib/utils/hash.h **** 			hash_ ^= *data_++;
 3139              		.loc 4 20 3 is_stmt 1 view .LVU1177
  20:/Users/joostbooy/Desktop/Code/stm32/lib/utils/hash.h **** 			hash_ ^= *data_++;
 3140              		.loc 4 20 14 view .LVU1178
  21:/Users/joostbooy/Desktop/Code/stm32/lib/utils/hash.h **** 			hash_ *= prime_;
 3141              		.loc 4 21 4 view .LVU1179
 3142              		.loc 4 22 4 view .LVU1180
  21:/Users/joostbooy/Desktop/Code/stm32/lib/utils/hash.h **** 			hash_ *= prime_;
 3143              		.loc 4 21 10 is_stmt 0 view .LVU1181
 3144 069a 99F80000 		ldrb	r0, [r9]	@ zero_extendqisi2
 3145 069e 7840     		eors	r0, r0, r7
 3146              		.loc 4 22 10 view .LVU1182
 3147 06a0 06FB00F5 		mul	r5, r6, r0
 3148 06a4 C4F80852 		str	r5, [r4, #520]
  20:/Users/joostbooy/Desktop/Code/stm32/lib/utils/hash.h **** 			hash_ ^= *data_++;
 3149              		.loc 4 20 3 is_stmt 1 view .LVU1183
  20:/Users/joostbooy/Desktop/Code/stm32/lib/utils/hash.h **** 			hash_ ^= *data_++;
 3150              		.loc 4 20 14 view .LVU1184
  21:/Users/joostbooy/Desktop/Code/stm32/lib/utils/hash.h **** 			hash_ *= prime_;
 3151              		.loc 4 21 4 view .LVU1185
 3152              		.loc 4 22 4 view .LVU1186
  21:/Users/joostbooy/Desktop/Code/stm32/lib/utils/hash.h **** 			hash_ *= prime_;
 3153              		.loc 4 21 10 is_stmt 0 view .LVU1187
 3154 06a8 9178     		ldrb	r1, [r2, #2]	@ zero_extendqisi2
 3155 06aa 6940     		eors	r1, r1, r5
 3156              		.loc 4 22 10 view .LVU1188
 3157 06ac 06FB01F7 		mul	r7, r6, r1
 3158 06b0 C4F80872 		str	r7, [r4, #520]
  20:/Users/joostbooy/Desktop/Code/stm32/lib/utils/hash.h **** 			hash_ ^= *data_++;
 3159              		.loc 4 20 3 is_stmt 1 view .LVU1189
  20:/Users/joostbooy/Desktop/Code/stm32/lib/utils/hash.h **** 			hash_ ^= *data_++;
 3160              		.loc 4 20 14 view .LVU1190
  21:/Users/joostbooy/Desktop/Code/stm32/lib/utils/hash.h **** 			hash_ *= prime_;
 3161              		.loc 4 21 4 view .LVU1191
 3162              		.loc 4 22 4 view .LVU1192
  21:/Users/joostbooy/Desktop/Code/stm32/lib/utils/hash.h **** 			hash_ *= prime_;
 3163              		.loc 4 21 10 is_stmt 0 view .LVU1193
 3164 06b4 D078     		ldrb	r0, [r2, #3]	@ zero_extendqisi2
 3165 06b6 7840     		eors	r0, r0, r7
 3166              		.loc 4 22 10 view .LVU1194
 3167 06b8 06FB00F5 		mul	r5, r6, r0
 3168 06bc C4F80852 		str	r5, [r4, #520]
  20:/Users/joostbooy/Desktop/Code/stm32/lib/utils/hash.h **** 			hash_ ^= *data_++;
 3169              		.loc 4 20 3 is_stmt 1 view .LVU1195
ARM GAS  /var/folders/84/_x1cyy_j36g486tldtwl37280000gn/T//cctc5fkA.s 			page 82


  20:/Users/joostbooy/Desktop/Code/stm32/lib/utils/hash.h **** 			hash_ ^= *data_++;
 3170              		.loc 4 20 14 view .LVU1196
  21:/Users/joostbooy/Desktop/Code/stm32/lib/utils/hash.h **** 			hash_ *= prime_;
 3171              		.loc 4 21 4 view .LVU1197
 3172              		.loc 4 22 4 view .LVU1198
  21:/Users/joostbooy/Desktop/Code/stm32/lib/utils/hash.h **** 			hash_ *= prime_;
 3173              		.loc 4 21 10 is_stmt 0 view .LVU1199
 3174 06c0 1179     		ldrb	r1, [r2, #4]	@ zero_extendqisi2
 3175 06c2 6940     		eors	r1, r1, r5
 3176              		.loc 4 22 10 view .LVU1200
 3177 06c4 06FB01F7 		mul	r7, r6, r1
 3178 06c8 C4F80872 		str	r7, [r4, #520]
  20:/Users/joostbooy/Desktop/Code/stm32/lib/utils/hash.h **** 			hash_ ^= *data_++;
 3179              		.loc 4 20 3 is_stmt 1 view .LVU1201
  20:/Users/joostbooy/Desktop/Code/stm32/lib/utils/hash.h **** 			hash_ ^= *data_++;
 3180              		.loc 4 20 14 view .LVU1202
  21:/Users/joostbooy/Desktop/Code/stm32/lib/utils/hash.h **** 			hash_ *= prime_;
 3181              		.loc 4 21 4 view .LVU1203
 3182              		.loc 4 22 4 view .LVU1204
  21:/Users/joostbooy/Desktop/Code/stm32/lib/utils/hash.h **** 			hash_ *= prime_;
 3183              		.loc 4 21 10 is_stmt 0 view .LVU1205
 3184 06cc 5079     		ldrb	r0, [r2, #5]	@ zero_extendqisi2
 3185 06ce 7840     		eors	r0, r0, r7
 3186              		.loc 4 22 10 view .LVU1206
 3187 06d0 06FB00F5 		mul	r5, r6, r0
 3188 06d4 C4F80852 		str	r5, [r4, #520]
  20:/Users/joostbooy/Desktop/Code/stm32/lib/utils/hash.h **** 			hash_ ^= *data_++;
 3189              		.loc 4 20 3 is_stmt 1 view .LVU1207
  20:/Users/joostbooy/Desktop/Code/stm32/lib/utils/hash.h **** 			hash_ ^= *data_++;
 3190              		.loc 4 20 14 view .LVU1208
  21:/Users/joostbooy/Desktop/Code/stm32/lib/utils/hash.h **** 			hash_ *= prime_;
 3191              		.loc 4 21 4 view .LVU1209
 3192              		.loc 4 22 4 view .LVU1210
  21:/Users/joostbooy/Desktop/Code/stm32/lib/utils/hash.h **** 			hash_ *= prime_;
 3193              		.loc 4 21 10 is_stmt 0 view .LVU1211
 3194 06d8 9179     		ldrb	r1, [r2, #6]	@ zero_extendqisi2
 3195 06da 6940     		eors	r1, r1, r5
 3196              		.loc 4 22 10 view .LVU1212
 3197 06dc 06FB01F7 		mul	r7, r6, r1
  21:/Users/joostbooy/Desktop/Code/stm32/lib/utils/hash.h **** 			hash_ *= prime_;
 3198              		.loc 4 21 19 view .LVU1213
 3199 06e0 0832     		adds	r2, r2, #8
 3200              		.loc 4 22 10 view .LVU1214
 3201 06e2 C4F80872 		str	r7, [r4, #520]
  20:/Users/joostbooy/Desktop/Code/stm32/lib/utils/hash.h **** 			hash_ ^= *data_++;
 3202              		.loc 4 20 3 is_stmt 1 view .LVU1215
  20:/Users/joostbooy/Desktop/Code/stm32/lib/utils/hash.h **** 			hash_ ^= *data_++;
 3203              		.loc 4 20 14 view .LVU1216
  21:/Users/joostbooy/Desktop/Code/stm32/lib/utils/hash.h **** 			hash_ *= prime_;
 3204              		.loc 4 21 4 view .LVU1217
 3205              	.LVL253:
 3206              		.loc 4 22 4 view .LVU1218
  21:/Users/joostbooy/Desktop/Code/stm32/lib/utils/hash.h **** 			hash_ *= prime_;
 3207              		.loc 4 21 10 is_stmt 0 view .LVU1219
 3208 06e6 12F8010C 		ldrb	r0, [r2, #-1]	@ zero_extendqisi2
 3209 06ea 7840     		eors	r0, r0, r7
 3210              		.loc 4 22 10 view .LVU1220
ARM GAS  /var/folders/84/_x1cyy_j36g486tldtwl37280000gn/T//cctc5fkA.s 			page 83


 3211 06ec 06FB00F0 		mul	r0, r6, r0
  20:/Users/joostbooy/Desktop/Code/stm32/lib/utils/hash.h **** 			hash_ ^= *data_++;
 3212              		.loc 4 20 14 view .LVU1221
 3213 06f0 4245     		cmp	r2, r8
 3214              		.loc 4 22 10 view .LVU1222
 3215 06f2 C4F80802 		str	r0, [r4, #520]
  20:/Users/joostbooy/Desktop/Code/stm32/lib/utils/hash.h **** 			hash_ ^= *data_++;
 3216              		.loc 4 20 3 is_stmt 1 view .LVU1223
  20:/Users/joostbooy/Desktop/Code/stm32/lib/utils/hash.h **** 			hash_ ^= *data_++;
 3217              		.loc 4 20 14 view .LVU1224
 3218              	.LVL254:
  20:/Users/joostbooy/Desktop/Code/stm32/lib/utils/hash.h **** 			hash_ ^= *data_++;
 3219              		.loc 4 20 14 is_stmt 0 view .LVU1225
 3220 06f6 C7D1     		bne	.L235
 3221 06f8 764F     		ldr	r7, .L336+8
 3222 06fa 774E     		ldr	r6, .L336+12
 3223              	.LVL255:
 3224              	.L245:
  20:/Users/joostbooy/Desktop/Code/stm32/lib/utils/hash.h **** 			hash_ ^= *data_++;
 3225              		.loc 4 20 14 view .LVU1226
 3226              	.LBE504:
 3227              	.LBE503:
 3228              	.LBE488:
 3229              	.LBB507:
  51:Src/Settings/song.cpp **** 	}
  52:Src/Settings/song.cpp **** 
  53:Src/Settings/song.cpp **** 	// patterns
  54:Src/Settings/song.cpp **** 	fileWriter.write(TrackData::pattern_pool_);
  55:Src/Settings/song.cpp **** 
  56:Src/Settings/song.cpp **** 	for (int i = 0; i < TrackData::kMaxPatterns; ++i) {
  57:Src/Settings/song.cpp **** 		fileWriter.write(TrackData::pattern_[i]);
 3230              		.loc 1 57 3 is_stmt 1 discriminator 2 view .LVU1227
 3231              		.loc 1 57 41 is_stmt 0 discriminator 2 view .LVU1228
 3232 06fc 3D46     		mov	r5, r7
 3233              	.LVL256:
 3234              	.LBB508:
 3235              	.LBI508:
  50:Src/Disk/fileWriter.h **** 		write_buffer(&data, sizeof(T));
 3236              		.loc 2 50 7 is_stmt 1 discriminator 2 view .LVU1229
 3237              	.LBB509:
 3238              	.LBI509:
  65:Src/Disk/fileWriter.h **** 		uint8_t *data_ = reinterpret_cast<uint8_t *>(data);
 3239              		.loc 2 65 7 discriminator 2 view .LVU1230
 3240              	.LBB510:
  68:Src/Disk/fileWriter.h **** 			if (buff_pos < kBufferSize) {
 3241              		.loc 2 68 3 discriminator 2 view .LVU1231
  68:Src/Disk/fileWriter.h **** 			if (buff_pos < kBufferSize) {
 3242              		.loc 2 68 20 discriminator 2 view .LVU1232
 3243 06fe ABB3     		cbz	r3, .L237
  69:Src/Disk/fileWriter.h **** 				buffer[buff_pos++] = *data_++;
 3244              		.loc 2 69 8 is_stmt 0 view .LVU1233
 3245 0700 D4F80022 		ldr	r2, [r4, #512]
  66:Src/Disk/fileWriter.h **** 
 3246              		.loc 2 66 12 view .LVU1234
 3247 0704 B946     		mov	r9, r7
  69:Src/Disk/fileWriter.h **** 				buffer[buff_pos++] = *data_++;
 3248              		.loc 2 69 4 view .LVU1235
ARM GAS  /var/folders/84/_x1cyy_j36g486tldtwl37280000gn/T//cctc5fkA.s 			page 84


 3249 0706 B2F5007F 		cmp	r2, #512
  68:Src/Disk/fileWriter.h **** 			if (buff_pos < kBufferSize) {
 3250              		.loc 2 68 20 view .LVU1236
 3251 070a 4FF0B808 		mov	r8, #184
  69:Src/Disk/fileWriter.h **** 				buffer[buff_pos++] = *data_++;
 3252              		.loc 2 69 4 is_stmt 1 view .LVU1237
  70:Src/Disk/fileWriter.h **** 				--size;
 3253              		.loc 2 70 5 view .LVU1238
  70:Src/Disk/fileWriter.h **** 				--size;
 3254              		.loc 2 70 32 is_stmt 0 view .LVU1239
 3255 070e CC46     		mov	ip, r9
 3256              	.LVL257:
  70:Src/Disk/fileWriter.h **** 				--size;
 3257              		.loc 2 70 20 view .LVU1240
 3258 0710 02F10101 		add	r1, r2, #1
  69:Src/Disk/fileWriter.h **** 				buffer[buff_pos++] = *data_++;
 3259              		.loc 2 69 4 view .LVU1241
 3260 0714 15D2     		bcs	.L238
 3261              	.LVL258:
 3262              	.L325:
  70:Src/Disk/fileWriter.h **** 				--size;
 3263              		.loc 2 70 20 view .LVU1242
 3264 0716 C4F80012 		str	r1, [r4, #512]
  70:Src/Disk/fileWriter.h **** 				--size;
 3265              		.loc 2 70 26 view .LVU1243
 3266 071a 1CF8010B 		ldrb	r0, [ip], #1	@ zero_extendqisi2
  70:Src/Disk/fileWriter.h **** 				--size;
 3267              		.loc 2 70 24 view .LVU1244
 3268 071e A054     		strb	r0, [r4, r2]
  71:Src/Disk/fileWriter.h **** 			} else {
 3269              		.loc 2 71 5 is_stmt 1 view .LVU1245
 3270              	.LVL259:
  68:Src/Disk/fileWriter.h **** 			if (buff_pos < kBufferSize) {
 3271              		.loc 2 68 20 is_stmt 0 view .LVU1246
 3272 0720 94F80C32 		ldrb	r3, [r4, #524]	@ zero_extendqisi2
  71:Src/Disk/fileWriter.h **** 			} else {
 3273              		.loc 2 71 5 view .LVU1247
 3274 0724 08F1FF38 		add	r8, r8, #-1
 3275              	.LVL260:
  68:Src/Disk/fileWriter.h **** 			if (buff_pos < kBufferSize) {
 3276              		.loc 2 68 3 is_stmt 1 view .LVU1248
  68:Src/Disk/fileWriter.h **** 			if (buff_pos < kBufferSize) {
 3277              		.loc 2 68 20 view .LVU1249
 3278 0728 03B3     		cbz	r3, .L237
 3279 072a B8F1000F 		cmp	r8, #0
 3280 072e 1DD0     		beq	.L237
  73:Src/Disk/fileWriter.h **** 			}
 3281              		.loc 2 73 15 is_stmt 0 view .LVU1250
 3282 0730 E146     		mov	r9, ip
 3283              	.LVL261:
 3284              	.L326:
  69:Src/Disk/fileWriter.h **** 				buffer[buff_pos++] = *data_++;
 3285              		.loc 2 69 4 is_stmt 1 view .LVU1251
  70:Src/Disk/fileWriter.h **** 				--size;
 3286              		.loc 2 70 5 view .LVU1252
  69:Src/Disk/fileWriter.h **** 				buffer[buff_pos++] = *data_++;
 3287              		.loc 2 69 8 is_stmt 0 view .LVU1253
ARM GAS  /var/folders/84/_x1cyy_j36g486tldtwl37280000gn/T//cctc5fkA.s 			page 85


 3288 0732 D4F80022 		ldr	r2, [r4, #512]
  69:Src/Disk/fileWriter.h **** 				buffer[buff_pos++] = *data_++;
 3289              		.loc 2 69 4 view .LVU1254
 3290 0736 B2F5007F 		cmp	r2, #512
  70:Src/Disk/fileWriter.h **** 				--size;
 3291              		.loc 2 70 32 view .LVU1255
 3292 073a CC46     		mov	ip, r9
 3293              	.LVL262:
  70:Src/Disk/fileWriter.h **** 				--size;
 3294              		.loc 2 70 20 view .LVU1256
 3295 073c 02F10101 		add	r1, r2, #1
  69:Src/Disk/fileWriter.h **** 				buffer[buff_pos++] = *data_++;
 3296              		.loc 2 69 4 view .LVU1257
 3297 0740 E9D3     		bcc	.L325
 3298              	.LVL263:
 3299              	.L238:
  73:Src/Disk/fileWriter.h **** 			}
 3300              		.loc 2 73 5 is_stmt 1 view .LVU1258
 3301              	.LBB511:
 3302              	.LBI511:
  78:Src/Disk/fileWriter.h **** 		uint32_t size = buff_pos;
 3303              		.loc 2 78 7 view .LVU1259
 3304              	.LBB512:
  79:Src/Disk/fileWriter.h **** 		buff_pos = 0;
 3305              		.loc 2 79 3 view .LVU1260
  80:Src/Disk/fileWriter.h **** 		return file_->write(buffer, size);
 3306              		.loc 2 80 3 view .LVU1261
 3307              		.loc 2 81 22 is_stmt 0 view .LVU1262
 3308 0742 D4F80432 		ldr	r3, [r4, #516]
  80:Src/Disk/fileWriter.h **** 		return file_->write(buffer, size);
 3309              		.loc 2 80 12 view .LVU1263
 3310 0746 4FF0000A 		mov	r10, #0
 3311              	.LBB513:
 3312              	.LBB514:
  49:Src/Disk/file.h **** 		if (num_written) {
 3313              		.loc 3 49 24 view .LVU1264
 3314 074a 1868     		ldr	r0, [r3]
 3315              	.LBE514:
 3316              	.LBE513:
  80:Src/Disk/fileWriter.h **** 		return file_->write(buffer, size);
 3317              		.loc 2 80 12 view .LVU1265
 3318 074c C4F800A2 		str	r10, [r4, #512]
 3319              		.loc 2 81 3 is_stmt 1 view .LVU1266
 3320              	.LVL264:
 3321              	.LBB517:
 3322              	.LBI513:
  47:Src/Disk/file.h **** 		UINT bw;
 3323              		.loc 3 47 7 view .LVU1267
 3324              	.LBB515:
  48:Src/Disk/file.h **** 		FRESULT res = f_write(fil, data, size, &bw);
 3325              		.loc 3 48 3 view .LVU1268
  49:Src/Disk/file.h **** 		if (num_written) {
 3326              		.loc 3 49 3 view .LVU1269
  49:Src/Disk/file.h **** 		if (num_written) {
 3327              		.loc 3 49 24 is_stmt 0 view .LVU1270
 3328 0750 01AB     		add	r3, sp, #4
 3329              	.LVL265:
ARM GAS  /var/folders/84/_x1cyy_j36g486tldtwl37280000gn/T//cctc5fkA.s 			page 86


  49:Src/Disk/file.h **** 		if (num_written) {
 3330              		.loc 3 49 24 view .LVU1271
 3331 0752 2146     		mov	r1, r4
 3332 0754 FFF7FEFF 		bl	f_write
 3333              	.LVL266:
 3334              		.loc 3 53 19 view .LVU1272
 3335 0758 019A     		ldr	r2, [sp, #4]
 3336              	.LVL267:
  50:Src/Disk/file.h **** 			*num_written = bw;
 3337              		.loc 3 50 3 is_stmt 1 view .LVU1273
 3338              		.loc 3 53 3 view .LVU1274
 3339              		.loc 3 53 19 is_stmt 0 view .LVU1275
 3340 075a 002A     		cmp	r2, #0
 3341 075c 00F08380 		beq	.L240
 3342              	.LVL268:
 3343              		.loc 3 53 19 view .LVU1276
 3344              	.LBE515:
 3345              	.LBE517:
 3346              	.LBE512:
 3347              	.LBE511:
  73:Src/Disk/fileWriter.h **** 			}
 3348              		.loc 2 73 15 view .LVU1277
 3349 0760 0121     		movs	r1, #1
 3350              	.LBB520:
 3351              	.LBB519:
 3352              	.LBB518:
 3353              	.LBB516:
 3354              		.loc 3 53 19 view .LVU1278
 3355 0762 0028     		cmp	r0, #0
 3356 0764 00F08280 		beq	.L241
 3357              	.LBE516:
 3358              	.LBE518:
 3359              	.LBE519:
 3360              	.LBE520:
  73:Src/Disk/fileWriter.h **** 			}
 3361              		.loc 2 73 15 view .LVU1279
 3362 0768 84F80CA2 		strb	r10, [r4, #524]
 3363              	.LVL269:
  68:Src/Disk/fileWriter.h **** 			if (buff_pos < kBufferSize) {
 3364              		.loc 2 68 3 is_stmt 1 view .LVU1280
  68:Src/Disk/fileWriter.h **** 			if (buff_pos < kBufferSize) {
 3365              		.loc 2 68 20 view .LVU1281
 3366              	.L237:
  68:Src/Disk/fileWriter.h **** 			if (buff_pos < kBufferSize) {
 3367              		.loc 2 68 20 is_stmt 0 view .LVU1282
 3368 076c 0022     		movs	r2, #0
 3369 076e D4F80832 		ldr	r3, [r4, #520]
 3370 0772 07F1B800 		add	r0, r7, #184
 3371 0776 C2B3     		cbz	r2, .L243
 3372              	.LVL270:
  68:Src/Disk/fileWriter.h **** 			if (buff_pos < kBufferSize) {
 3373              		.loc 2 68 20 view .LVU1283
 3374              	.LBE510:
 3375              	.LBE509:
 3376              	.LBB522:
 3377              	.LBB523:
  21:/Users/joostbooy/Desktop/Code/stm32/lib/utils/hash.h **** 			hash_ *= prime_;
ARM GAS  /var/folders/84/_x1cyy_j36g486tldtwl37280000gn/T//cctc5fkA.s 			page 87


 3378              		.loc 4 21 4 is_stmt 1 view .LVU1284
  21:/Users/joostbooy/Desktop/Code/stm32/lib/utils/hash.h **** 			hash_ *= prime_;
 3379              		.loc 4 21 19 is_stmt 0 view .LVU1285
 3380 0778 3D46     		mov	r5, r7
 3381              	.LVL271:
 3382              		.loc 4 22 4 is_stmt 1 view .LVU1286
 3383              		.loc 4 22 10 is_stmt 0 view .LVU1287
 3384 077a DFF854A1 		ldr	r10, .L336+4
  21:/Users/joostbooy/Desktop/Code/stm32/lib/utils/hash.h **** 			hash_ *= prime_;
 3385              		.loc 4 21 10 view .LVU1288
 3386 077e 15F8012B 		ldrb	r2, [r5], #1	@ zero_extendqisi2
 3387              	.LVL272:
  21:/Users/joostbooy/Desktop/Code/stm32/lib/utils/hash.h **** 			hash_ *= prime_;
 3388              		.loc 4 21 10 view .LVU1289
 3389 0782 5340     		eors	r3, r3, r2
 3390              		.loc 4 22 10 view .LVU1290
 3391 0784 0AFB03F3 		mul	r3, r10, r3
 3392 0788 C4F80832 		str	r3, [r4, #520]
  20:/Users/joostbooy/Desktop/Code/stm32/lib/utils/hash.h **** 			hash_ ^= *data_++;
 3393              		.loc 4 20 3 is_stmt 1 view .LVU1291
  20:/Users/joostbooy/Desktop/Code/stm32/lib/utils/hash.h **** 			hash_ ^= *data_++;
 3394              		.loc 4 20 14 view .LVU1292
  21:/Users/joostbooy/Desktop/Code/stm32/lib/utils/hash.h **** 			hash_ *= prime_;
 3395              		.loc 4 21 4 view .LVU1293
 3396              	.LVL273:
 3397              		.loc 4 22 4 view .LVU1294
  21:/Users/joostbooy/Desktop/Code/stm32/lib/utils/hash.h **** 			hash_ *= prime_;
 3398              		.loc 4 21 10 is_stmt 0 view .LVU1295
 3399 078c 15F8012B 		ldrb	r2, [r5], #1	@ zero_extendqisi2
 3400              	.LVL274:
  21:/Users/joostbooy/Desktop/Code/stm32/lib/utils/hash.h **** 			hash_ *= prime_;
 3401              		.loc 4 21 10 view .LVU1296
 3402 0790 5340     		eors	r3, r3, r2
 3403              		.loc 4 22 10 view .LVU1297
 3404 0792 0AFB03F3 		mul	r3, r10, r3
 3405 0796 C4F80832 		str	r3, [r4, #520]
  20:/Users/joostbooy/Desktop/Code/stm32/lib/utils/hash.h **** 			hash_ ^= *data_++;
 3406              		.loc 4 20 3 is_stmt 1 view .LVU1298
  20:/Users/joostbooy/Desktop/Code/stm32/lib/utils/hash.h **** 			hash_ ^= *data_++;
 3407              		.loc 4 20 14 view .LVU1299
  21:/Users/joostbooy/Desktop/Code/stm32/lib/utils/hash.h **** 			hash_ *= prime_;
 3408              		.loc 4 21 4 view .LVU1300
 3409              	.LVL275:
 3410              		.loc 4 22 4 view .LVU1301
  21:/Users/joostbooy/Desktop/Code/stm32/lib/utils/hash.h **** 			hash_ *= prime_;
 3411              		.loc 4 21 10 is_stmt 0 view .LVU1302
 3412 079a 15F8012B 		ldrb	r2, [r5], #1	@ zero_extendqisi2
 3413              	.LVL276:
  21:/Users/joostbooy/Desktop/Code/stm32/lib/utils/hash.h **** 			hash_ *= prime_;
 3414              		.loc 4 21 10 view .LVU1303
 3415 079e 5340     		eors	r3, r3, r2
 3416              		.loc 4 22 10 view .LVU1304
 3417 07a0 0AFB03F3 		mul	r3, r10, r3
 3418 07a4 C4F80832 		str	r3, [r4, #520]
  20:/Users/joostbooy/Desktop/Code/stm32/lib/utils/hash.h **** 			hash_ ^= *data_++;
 3419              		.loc 4 20 3 is_stmt 1 view .LVU1305
  20:/Users/joostbooy/Desktop/Code/stm32/lib/utils/hash.h **** 			hash_ ^= *data_++;
ARM GAS  /var/folders/84/_x1cyy_j36g486tldtwl37280000gn/T//cctc5fkA.s 			page 88


 3420              		.loc 4 20 14 view .LVU1306
  21:/Users/joostbooy/Desktop/Code/stm32/lib/utils/hash.h **** 			hash_ *= prime_;
 3421              		.loc 4 21 4 view .LVU1307
 3422              	.LVL277:
 3423              		.loc 4 22 4 view .LVU1308
  21:/Users/joostbooy/Desktop/Code/stm32/lib/utils/hash.h **** 			hash_ *= prime_;
 3424              		.loc 4 21 10 is_stmt 0 view .LVU1309
 3425 07a8 15F8012B 		ldrb	r2, [r5], #1	@ zero_extendqisi2
 3426              	.LVL278:
  21:/Users/joostbooy/Desktop/Code/stm32/lib/utils/hash.h **** 			hash_ *= prime_;
 3427              		.loc 4 21 10 view .LVU1310
 3428 07ac 5340     		eors	r3, r3, r2
 3429              		.loc 4 22 10 view .LVU1311
 3430 07ae 0AFB03F3 		mul	r3, r10, r3
 3431 07b2 C4F80832 		str	r3, [r4, #520]
  20:/Users/joostbooy/Desktop/Code/stm32/lib/utils/hash.h **** 			hash_ ^= *data_++;
 3432              		.loc 4 20 3 is_stmt 1 view .LVU1312
  20:/Users/joostbooy/Desktop/Code/stm32/lib/utils/hash.h **** 			hash_ ^= *data_++;
 3433              		.loc 4 20 14 view .LVU1313
  21:/Users/joostbooy/Desktop/Code/stm32/lib/utils/hash.h **** 			hash_ *= prime_;
 3434              		.loc 4 21 4 view .LVU1314
 3435              	.LVL279:
 3436              		.loc 4 22 4 view .LVU1315
  21:/Users/joostbooy/Desktop/Code/stm32/lib/utils/hash.h **** 			hash_ *= prime_;
 3437              		.loc 4 21 10 is_stmt 0 view .LVU1316
 3438 07b6 15F8012B 		ldrb	r2, [r5], #1	@ zero_extendqisi2
 3439              	.LVL280:
  21:/Users/joostbooy/Desktop/Code/stm32/lib/utils/hash.h **** 			hash_ *= prime_;
 3440              		.loc 4 21 10 view .LVU1317
 3441 07ba 5340     		eors	r3, r3, r2
 3442              		.loc 4 22 10 view .LVU1318
 3443 07bc 0AFB03F3 		mul	r3, r10, r3
 3444 07c0 C4F80832 		str	r3, [r4, #520]
  20:/Users/joostbooy/Desktop/Code/stm32/lib/utils/hash.h **** 			hash_ ^= *data_++;
 3445              		.loc 4 20 3 is_stmt 1 view .LVU1319
  20:/Users/joostbooy/Desktop/Code/stm32/lib/utils/hash.h **** 			hash_ ^= *data_++;
 3446              		.loc 4 20 14 view .LVU1320
  21:/Users/joostbooy/Desktop/Code/stm32/lib/utils/hash.h **** 			hash_ *= prime_;
 3447              		.loc 4 21 4 view .LVU1321
 3448              	.LVL281:
 3449              		.loc 4 22 4 view .LVU1322
  21:/Users/joostbooy/Desktop/Code/stm32/lib/utils/hash.h **** 			hash_ *= prime_;
 3450              		.loc 4 21 10 is_stmt 0 view .LVU1323
 3451 07c4 15F8012B 		ldrb	r2, [r5], #1	@ zero_extendqisi2
 3452              	.LVL282:
 3453              		.loc 4 22 10 view .LVU1324
 3454 07c8 5746     		mov	r7, r10
 3455              	.LVL283:
  21:/Users/joostbooy/Desktop/Code/stm32/lib/utils/hash.h **** 			hash_ *= prime_;
 3456              		.loc 4 21 10 view .LVU1325
 3457 07ca 5340     		eors	r3, r3, r2
 3458              		.loc 4 22 10 view .LVU1326
 3459 07cc 07FB03F3 		mul	r3, r7, r3
 3460 07d0 C4F80832 		str	r3, [r4, #520]
  20:/Users/joostbooy/Desktop/Code/stm32/lib/utils/hash.h **** 			hash_ ^= *data_++;
 3461              		.loc 4 20 3 is_stmt 1 view .LVU1327
  20:/Users/joostbooy/Desktop/Code/stm32/lib/utils/hash.h **** 			hash_ ^= *data_++;
ARM GAS  /var/folders/84/_x1cyy_j36g486tldtwl37280000gn/T//cctc5fkA.s 			page 89


 3462              		.loc 4 20 14 view .LVU1328
  21:/Users/joostbooy/Desktop/Code/stm32/lib/utils/hash.h **** 			hash_ *= prime_;
 3463              		.loc 4 21 4 view .LVU1329
 3464              	.LVL284:
 3465              		.loc 4 22 4 view .LVU1330
  21:/Users/joostbooy/Desktop/Code/stm32/lib/utils/hash.h **** 			hash_ *= prime_;
 3466              		.loc 4 21 10 is_stmt 0 view .LVU1331
 3467 07d4 15F8017B 		ldrb	r7, [r5], #1	@ zero_extendqisi2
 3468              	.LVL285:
 3469              		.loc 4 22 10 view .LVU1332
 3470 07d8 5146     		mov	r1, r10
  21:/Users/joostbooy/Desktop/Code/stm32/lib/utils/hash.h **** 			hash_ *= prime_;
 3471              		.loc 4 21 10 view .LVU1333
 3472 07da 7B40     		eors	r3, r3, r7
 3473              		.loc 4 22 10 view .LVU1334
 3474 07dc 01FB03F3 		mul	r3, r1, r3
  20:/Users/joostbooy/Desktop/Code/stm32/lib/utils/hash.h **** 			hash_ ^= *data_++;
 3475              		.loc 4 20 14 view .LVU1335
 3476 07e0 8542     		cmp	r5, r0
 3477              		.loc 4 22 10 view .LVU1336
 3478 07e2 D646     		mov	lr, r10
 3479 07e4 C4F80832 		str	r3, [r4, #520]
  20:/Users/joostbooy/Desktop/Code/stm32/lib/utils/hash.h **** 			hash_ ^= *data_++;
 3480              		.loc 4 20 3 is_stmt 1 view .LVU1337
  20:/Users/joostbooy/Desktop/Code/stm32/lib/utils/hash.h **** 			hash_ ^= *data_++;
 3481              		.loc 4 20 14 view .LVU1338
  20:/Users/joostbooy/Desktop/Code/stm32/lib/utils/hash.h **** 			hash_ ^= *data_++;
 3482              		.loc 4 20 14 is_stmt 0 view .LVU1339
 3483 07e8 37D0     		beq	.L315
 3484              	.LVL286:
 3485              	.L243:
  21:/Users/joostbooy/Desktop/Code/stm32/lib/utils/hash.h **** 			hash_ *= prime_;
 3486              		.loc 4 21 4 is_stmt 1 view .LVU1340
  21:/Users/joostbooy/Desktop/Code/stm32/lib/utils/hash.h **** 			hash_ *= prime_;
 3487              		.loc 4 21 19 is_stmt 0 view .LVU1341
 3488 07ea AA46     		mov	r10, r5
 3489              		.loc 4 22 4 is_stmt 1 view .LVU1342
 3490              		.loc 4 22 10 is_stmt 0 view .LVU1343
 3491 07ec 384A     		ldr	r2, .L336+4
  21:/Users/joostbooy/Desktop/Code/stm32/lib/utils/hash.h **** 			hash_ *= prime_;
 3492              		.loc 4 21 10 view .LVU1344
 3493 07ee 1AF8011B 		ldrb	r1, [r10], #1	@ zero_extendqisi2
 3494 07f2 4B40     		eors	r3, r3, r1
 3495              		.loc 4 22 10 view .LVU1345
 3496 07f4 02FB03F7 		mul	r7, r2, r3
 3497 07f8 C4F80872 		str	r7, [r4, #520]
  20:/Users/joostbooy/Desktop/Code/stm32/lib/utils/hash.h **** 			hash_ ^= *data_++;
 3498              		.loc 4 20 3 is_stmt 1 view .LVU1346
  20:/Users/joostbooy/Desktop/Code/stm32/lib/utils/hash.h **** 			hash_ ^= *data_++;
 3499              		.loc 4 20 14 view .LVU1347
  21:/Users/joostbooy/Desktop/Code/stm32/lib/utils/hash.h **** 			hash_ *= prime_;
 3500              		.loc 4 21 4 view .LVU1348
 3501              		.loc 4 22 4 view .LVU1349
  21:/Users/joostbooy/Desktop/Code/stm32/lib/utils/hash.h **** 			hash_ *= prime_;
 3502              		.loc 4 21 10 is_stmt 0 view .LVU1350
 3503 07fc 9AF80030 		ldrb	r3, [r10]	@ zero_extendqisi2
 3504 0800 7B40     		eors	r3, r3, r7
ARM GAS  /var/folders/84/_x1cyy_j36g486tldtwl37280000gn/T//cctc5fkA.s 			page 90


 3505              		.loc 4 22 10 view .LVU1351
 3506 0802 02FB03F1 		mul	r1, r2, r3
 3507 0806 C4F80812 		str	r1, [r4, #520]
  20:/Users/joostbooy/Desktop/Code/stm32/lib/utils/hash.h **** 			hash_ ^= *data_++;
 3508              		.loc 4 20 3 is_stmt 1 view .LVU1352
  20:/Users/joostbooy/Desktop/Code/stm32/lib/utils/hash.h **** 			hash_ ^= *data_++;
 3509              		.loc 4 20 14 view .LVU1353
  21:/Users/joostbooy/Desktop/Code/stm32/lib/utils/hash.h **** 			hash_ *= prime_;
 3510              		.loc 4 21 4 view .LVU1354
 3511              		.loc 4 22 4 view .LVU1355
  21:/Users/joostbooy/Desktop/Code/stm32/lib/utils/hash.h **** 			hash_ *= prime_;
 3512              		.loc 4 21 10 is_stmt 0 view .LVU1356
 3513 080a AF78     		ldrb	r7, [r5, #2]	@ zero_extendqisi2
 3514 080c 4F40     		eors	r7, r7, r1
 3515              		.loc 4 22 10 view .LVU1357
 3516 080e 02FB07F7 		mul	r7, r2, r7
 3517 0812 C4F80872 		str	r7, [r4, #520]
  20:/Users/joostbooy/Desktop/Code/stm32/lib/utils/hash.h **** 			hash_ ^= *data_++;
 3518              		.loc 4 20 3 is_stmt 1 view .LVU1358
  20:/Users/joostbooy/Desktop/Code/stm32/lib/utils/hash.h **** 			hash_ ^= *data_++;
 3519              		.loc 4 20 14 view .LVU1359
  21:/Users/joostbooy/Desktop/Code/stm32/lib/utils/hash.h **** 			hash_ *= prime_;
 3520              		.loc 4 21 4 view .LVU1360
 3521              		.loc 4 22 4 view .LVU1361
  21:/Users/joostbooy/Desktop/Code/stm32/lib/utils/hash.h **** 			hash_ *= prime_;
 3522              		.loc 4 21 10 is_stmt 0 view .LVU1362
 3523 0816 EB78     		ldrb	r3, [r5, #3]	@ zero_extendqisi2
 3524 0818 7B40     		eors	r3, r3, r7
 3525              		.loc 4 22 10 view .LVU1363
 3526 081a 02FB03F7 		mul	r7, r2, r3
