ARM GAS  /var/folders/84/_x1cyy_j36g486tldtwl37280000gn/T//cctc5fkA.s 			page 1


   1              		.cpu cortex-m4
   2              		.eabi_attribute 27, 1
   3              		.eabi_attribute 28, 1
   4              		.eabi_attribute 20, 1
   5              		.eabi_attribute 21, 1
   6              		.eabi_attribute 23, 3
   7              		.eabi_attribute 24, 1
   8              		.eabi_attribute 25, 1
   9              		.eabi_attribute 26, 1
  10              		.eabi_attribute 30, 2
  11              		.eabi_attribute 34, 1
  12              		.eabi_attribute 18, 4
  13              		.file	"song.cpp"
  14              		.text
  15              	.Ltext0:
  16              		.cfi_sections	.debug_frame
  17              		.section	.text._ZN4Song10clear_listEPNS_4ListE,"ax",%progbits
  18              		.align	1
  19              		.p2align 2,,3
  20              		.global	_ZN4Song10clear_listEPNS_4ListE
  21              		.arch armv7e-m
  22              		.syntax unified
  23              		.thumb
  24              		.thumb_func
  25              		.fpu fpv4-sp-d16
  27              	_ZN4Song10clear_listEPNS_4ListE:
  28              	.LVL0:
  29              	.LFB2521:
  30              		.file 1 "Src/Settings/song.cpp"
   1:Src/Settings/song.cpp **** #include "song.h"
   2:Src/Settings/song.cpp **** #include "fileWriter.h"
   3:Src/Settings/song.cpp **** #include "fileReader.h"
   4:Src/Settings/song.cpp **** 
   5:Src/Settings/song.cpp **** void Song::clear_list(List* list) {
  31              		.loc 1 5 35 view -0
  32              		.cfi_startproc
  33              		@ args = 0, pretend = 0, frame = 0
  34              		@ frame_needed = 0, uses_anonymous_args = 0
  35              		@ link register save eliminated.
   6:Src/Settings/song.cpp **** 	list->size_ = 0;
  36              		.loc 1 6 2 view .LVU1
  37              		.loc 1 6 14 is_stmt 0 view .LVU2
  38 0000 0023     		movs	r3, #0
  39 0002 0B70     		strb	r3, [r1]
   7:Src/Settings/song.cpp **** }
  40              		.loc 1 7 1 view .LVU3
  41 0004 7047     		bx	lr
  42              		.cfi_endproc
  43              	.LFE2521:
  45 0006 00BF     		.section	.text._ZN4Song11add_to_listEPNS_4ListEh,"ax",%progbits
  46              		.align	1
  47              		.p2align 2,,3
  48              		.global	_ZN4Song11add_to_listEPNS_4ListEh
  49              		.syntax unified
  50              		.thumb
  51              		.thumb_func
  52              		.fpu fpv4-sp-d16
ARM GAS  /var/folders/84/_x1cyy_j36g486tldtwl37280000gn/T//cctc5fkA.s 			page 2


  54              	_ZN4Song11add_to_listEPNS_4ListEh:
  55              	.LVL1:
  56              	.LFB2522:
   8:Src/Settings/song.cpp **** 
   9:Src/Settings/song.cpp **** void Song::add_to_list(List* list, uint8_t track_index) {
  57              		.loc 1 9 57 is_stmt 1 view -0
  58              		.cfi_startproc
  59              		@ args = 0, pretend = 0, frame = 32
  60              		@ frame_needed = 0, uses_anonymous_args = 0
  10:Src/Settings/song.cpp **** 	int index = list->size_;
  61              		.loc 1 10 2 view .LVU5
   9:Src/Settings/song.cpp **** 	int index = list->size_;
  62              		.loc 1 9 57 is_stmt 0 view .LVU6
  63 0000 2DE9F04F 		push	{r4, r5, r6, r7, r8, r9, r10, fp, lr}
  64              		.cfi_def_cfa_offset 36
  65              		.cfi_offset 4, -36
  66              		.cfi_offset 5, -32
  67              		.cfi_offset 6, -28
  68              		.cfi_offset 7, -24
  69              		.cfi_offset 8, -20
  70              		.cfi_offset 9, -16
  71              		.cfi_offset 10, -12
  72              		.cfi_offset 11, -8
  73              		.cfi_offset 14, -4
  74              		.loc 1 10 20 view .LVU7
  75 0004 0E78     		ldrb	r6, [r1]	@ zero_extendqisi2
  76              	.LVL2:
  11:Src/Settings/song.cpp **** 	while (index > 0 && list->entry_[index - 1] >= track_index) {
  77              		.loc 1 11 2 is_stmt 1 view .LVU8
  78              		.loc 1 11 19 view .LVU9
   9:Src/Settings/song.cpp **** 	int index = list->size_;
  79              		.loc 1 9 57 is_stmt 0 view .LVU10
  80 0006 89B0     		sub	sp, sp, #36
  81              		.cfi_def_cfa_offset 72
   9:Src/Settings/song.cpp **** 	int index = list->size_;
  82              		.loc 1 9 57 view .LVU11
  83 0008 8A46     		mov	r10, r1
  84 000a 9346     		mov	fp, r2
  85 000c 4FF00108 		mov	r8, #1
  86              		.loc 1 11 19 view .LVU12
  87 0010 002E     		cmp	r6, #0
  88 0012 00F0AF80 		beq	.L4
  89 0016 06F10108 		add	r8, r6, #1
  90 001a 16F00703 		ands	r3, r6, #7
  91 001e 01EB0809 		add	r9, r1, r8
  92 0022 06F1FF32 		add	r2, r6, #-1
  93              	.LVL3:
  94              		.loc 1 11 19 view .LVU13
  95 0026 46D0     		beq	.L49
  96 0028 012B     		cmp	r3, #1
  97 002a 39D0     		beq	.L31
  98 002c 022B     		cmp	r3, #2
  99 002e 2ED0     		beq	.L32
 100 0030 032B     		cmp	r3, #3
 101 0032 23D0     		beq	.L33
 102 0034 042B     		cmp	r3, #4
 103 0036 18D0     		beq	.L34
ARM GAS  /var/folders/84/_x1cyy_j36g486tldtwl37280000gn/T//cctc5fkA.s 			page 3


 104 0038 052B     		cmp	r3, #5
 105 003a 0CD0     		beq	.L35
 106 003c 062B     		cmp	r3, #6
 107 003e 40F0A780 		bne	.L57
 108              	.LVL4:
 109              	.L36:
 110              		.loc 1 11 44 view .LVU14
 111 0042 19F8011D 		ldrb	r1, [r9, #-1]!	@ zero_extendqisi2
 112              	.LVL5:
 113              		.loc 1 11 19 view .LVU15
 114 0046 5945     		cmp	r1, fp
 115 0048 B446     		mov	ip, r6
 116              	.LVL6:
 117              		.loc 1 11 41 view .LVU16
 118 004a 06F1FF36 		add	r6, r6, #-1
 119              	.LVL7:
 120              		.loc 1 11 19 view .LVU17
 121 004e C0F09380 		bcc	.L5
  12:Src/Settings/song.cpp **** 		list->entry_[index] = list->entry_[index - 1];
 122              		.loc 1 12 3 is_stmt 1 view .LVU18
 123              		.loc 1 12 23 is_stmt 0 view .LVU19
 124 0052 89F80110 		strb	r1, [r9, #1]
  13:Src/Settings/song.cpp **** 		--index;
 125              		.loc 1 13 3 is_stmt 1 view .LVU20
  11:Src/Settings/song.cpp **** 	while (index > 0 && list->entry_[index - 1] >= track_index) {
 126              		.loc 1 11 2 view .LVU21
  11:Src/Settings/song.cpp **** 	while (index > 0 && list->entry_[index - 1] >= track_index) {
 127              		.loc 1 11 19 view .LVU22
 128              	.LVL8:
 129              	.L35:
  11:Src/Settings/song.cpp **** 	while (index > 0 && list->entry_[index - 1] >= track_index) {
 130              		.loc 1 11 44 is_stmt 0 view .LVU23
 131 0056 19F8014D 		ldrb	r4, [r9, #-1]!	@ zero_extendqisi2
  11:Src/Settings/song.cpp **** 	while (index > 0 && list->entry_[index - 1] >= track_index) {
 132              		.loc 1 11 19 view .LVU24
 133 005a 5C45     		cmp	r4, fp
 134 005c B446     		mov	ip, r6
 135              	.LVL9:
  11:Src/Settings/song.cpp **** 	while (index > 0 && list->entry_[index - 1] >= track_index) {
 136              		.loc 1 11 41 view .LVU25
 137 005e 06F1FF36 		add	r6, r6, #-1
 138              	.LVL10:
  11:Src/Settings/song.cpp **** 	while (index > 0 && list->entry_[index - 1] >= track_index) {
 139              		.loc 1 11 19 view .LVU26
 140 0062 C0F08980 		bcc	.L5
  12:Src/Settings/song.cpp **** 		list->entry_[index] = list->entry_[index - 1];
 141              		.loc 1 12 3 is_stmt 1 view .LVU27
  12:Src/Settings/song.cpp **** 		list->entry_[index] = list->entry_[index - 1];
 142              		.loc 1 12 23 is_stmt 0 view .LVU28
 143 0066 89F80140 		strb	r4, [r9, #1]
 144              		.loc 1 13 3 is_stmt 1 view .LVU29
  11:Src/Settings/song.cpp **** 	while (index > 0 && list->entry_[index - 1] >= track_index) {
 145              		.loc 1 11 2 view .LVU30
  11:Src/Settings/song.cpp **** 	while (index > 0 && list->entry_[index - 1] >= track_index) {
 146              		.loc 1 11 19 view .LVU31
 147              	.LVL11:
 148              	.L34:
ARM GAS  /var/folders/84/_x1cyy_j36g486tldtwl37280000gn/T//cctc5fkA.s 			page 4


  11:Src/Settings/song.cpp **** 	while (index > 0 && list->entry_[index - 1] >= track_index) {
 149              		.loc 1 11 44 is_stmt 0 view .LVU32
 150 006a 19F8015D 		ldrb	r5, [r9, #-1]!	@ zero_extendqisi2
  11:Src/Settings/song.cpp **** 	while (index > 0 && list->entry_[index - 1] >= track_index) {
 151              		.loc 1 11 19 view .LVU33
 152 006e 5D45     		cmp	r5, fp
 153 0070 B446     		mov	ip, r6
 154              	.LVL12:
  11:Src/Settings/song.cpp **** 	while (index > 0 && list->entry_[index - 1] >= track_index) {
 155              		.loc 1 11 41 view .LVU34
 156 0072 06F1FF36 		add	r6, r6, #-1
 157              	.LVL13:
  11:Src/Settings/song.cpp **** 	while (index > 0 && list->entry_[index - 1] >= track_index) {
 158              		.loc 1 11 19 view .LVU35
 159 0076 7FD3     		bcc	.L5
  12:Src/Settings/song.cpp **** 		list->entry_[index] = list->entry_[index - 1];
 160              		.loc 1 12 3 is_stmt 1 view .LVU36
  12:Src/Settings/song.cpp **** 		list->entry_[index] = list->entry_[index - 1];
 161              		.loc 1 12 23 is_stmt 0 view .LVU37
 162 0078 89F80150 		strb	r5, [r9, #1]
 163              		.loc 1 13 3 is_stmt 1 view .LVU38
  11:Src/Settings/song.cpp **** 	while (index > 0 && list->entry_[index - 1] >= track_index) {
 164              		.loc 1 11 2 view .LVU39
  11:Src/Settings/song.cpp **** 	while (index > 0 && list->entry_[index - 1] >= track_index) {
 165              		.loc 1 11 19 view .LVU40
 166              	.LVL14:
 167              	.L33:
  11:Src/Settings/song.cpp **** 	while (index > 0 && list->entry_[index - 1] >= track_index) {
 168              		.loc 1 11 44 is_stmt 0 view .LVU41
 169 007c 19F8017D 		ldrb	r7, [r9, #-1]!	@ zero_extendqisi2
  11:Src/Settings/song.cpp **** 	while (index > 0 && list->entry_[index - 1] >= track_index) {
 170              		.loc 1 11 19 view .LVU42
 171 0080 5F45     		cmp	r7, fp
 172 0082 B446     		mov	ip, r6
 173              	.LVL15:
  11:Src/Settings/song.cpp **** 	while (index > 0 && list->entry_[index - 1] >= track_index) {
 174              		.loc 1 11 41 view .LVU43
 175 0084 06F1FF36 		add	r6, r6, #-1
 176              	.LVL16:
  11:Src/Settings/song.cpp **** 	while (index > 0 && list->entry_[index - 1] >= track_index) {
 177              		.loc 1 11 19 view .LVU44
 178 0088 76D3     		bcc	.L5
  12:Src/Settings/song.cpp **** 		list->entry_[index] = list->entry_[index - 1];
 179              		.loc 1 12 3 is_stmt 1 view .LVU45
  12:Src/Settings/song.cpp **** 		list->entry_[index] = list->entry_[index - 1];
 180              		.loc 1 12 23 is_stmt 0 view .LVU46
 181 008a 89F80170 		strb	r7, [r9, #1]
 182              		.loc 1 13 3 is_stmt 1 view .LVU47
  11:Src/Settings/song.cpp **** 	while (index > 0 && list->entry_[index - 1] >= track_index) {
 183              		.loc 1 11 2 view .LVU48
  11:Src/Settings/song.cpp **** 	while (index > 0 && list->entry_[index - 1] >= track_index) {
 184              		.loc 1 11 19 view .LVU49
 185              	.LVL17:
 186              	.L32:
  11:Src/Settings/song.cpp **** 	while (index > 0 && list->entry_[index - 1] >= track_index) {
 187              		.loc 1 11 44 is_stmt 0 view .LVU50
 188 008e 19F8012D 		ldrb	r2, [r9, #-1]!	@ zero_extendqisi2
ARM GAS  /var/folders/84/_x1cyy_j36g486tldtwl37280000gn/T//cctc5fkA.s 			page 5


  11:Src/Settings/song.cpp **** 	while (index > 0 && list->entry_[index - 1] >= track_index) {
 189              		.loc 1 11 19 view .LVU51
 190 0092 5A45     		cmp	r2, fp
 191 0094 B446     		mov	ip, r6
 192              	.LVL18:
  11:Src/Settings/song.cpp **** 	while (index > 0 && list->entry_[index - 1] >= track_index) {
 193              		.loc 1 11 41 view .LVU52
 194 0096 06F1FF36 		add	r6, r6, #-1
 195              	.LVL19:
  11:Src/Settings/song.cpp **** 	while (index > 0 && list->entry_[index - 1] >= track_index) {
 196              		.loc 1 11 19 view .LVU53
 197 009a 6DD3     		bcc	.L5
  12:Src/Settings/song.cpp **** 		list->entry_[index] = list->entry_[index - 1];
 198              		.loc 1 12 3 is_stmt 1 view .LVU54
  12:Src/Settings/song.cpp **** 		list->entry_[index] = list->entry_[index - 1];
 199              		.loc 1 12 23 is_stmt 0 view .LVU55
 200 009c 89F80120 		strb	r2, [r9, #1]
 201              		.loc 1 13 3 is_stmt 1 view .LVU56
  11:Src/Settings/song.cpp **** 	while (index > 0 && list->entry_[index - 1] >= track_index) {
 202              		.loc 1 11 2 view .LVU57
  11:Src/Settings/song.cpp **** 	while (index > 0 && list->entry_[index - 1] >= track_index) {
 203              		.loc 1 11 19 view .LVU58
 204              	.LVL20:
 205              	.L31:
  11:Src/Settings/song.cpp **** 	while (index > 0 && list->entry_[index - 1] >= track_index) {
 206              		.loc 1 11 44 is_stmt 0 view .LVU59
 207 00a0 19F8013D 		ldrb	r3, [r9, #-1]!	@ zero_extendqisi2
  11:Src/Settings/song.cpp **** 	while (index > 0 && list->entry_[index - 1] >= track_index) {
 208              		.loc 1 11 19 view .LVU60
 209 00a4 5B45     		cmp	r3, fp
 210 00a6 B446     		mov	ip, r6
 211              	.LVL21:
  11:Src/Settings/song.cpp **** 	while (index > 0 && list->entry_[index - 1] >= track_index) {
 212              		.loc 1 11 41 view .LVU61
 213 00a8 06F1FF36 		add	r6, r6, #-1
 214              	.LVL22:
  11:Src/Settings/song.cpp **** 	while (index > 0 && list->entry_[index - 1] >= track_index) {
 215              		.loc 1 11 19 view .LVU62
 216 00ac 64D3     		bcc	.L5
  12:Src/Settings/song.cpp **** 		list->entry_[index] = list->entry_[index - 1];
 217              		.loc 1 12 3 is_stmt 1 view .LVU63
  12:Src/Settings/song.cpp **** 		list->entry_[index] = list->entry_[index - 1];
 218              		.loc 1 12 23 is_stmt 0 view .LVU64
 219 00ae 89F80130 		strb	r3, [r9, #1]
 220              		.loc 1 13 3 is_stmt 1 view .LVU65
  11:Src/Settings/song.cpp **** 	while (index > 0 && list->entry_[index - 1] >= track_index) {
 221              		.loc 1 11 2 view .LVU66
  11:Src/Settings/song.cpp **** 	while (index > 0 && list->entry_[index - 1] >= track_index) {
 222              		.loc 1 11 19 view .LVU67
 223 00b2 002E     		cmp	r6, #0
 224 00b4 5ED0     		beq	.L4
 225              	.LVL23:
 226              	.L49:
  11:Src/Settings/song.cpp **** 	while (index > 0 && list->entry_[index - 1] >= track_index) {
 227              		.loc 1 11 19 is_stmt 0 view .LVU68
 228 00b6 CDE906A8 		strd	r10, r8, [sp, #24]
 229              	.LVL24:
ARM GAS  /var/folders/84/_x1cyy_j36g486tldtwl37280000gn/T//cctc5fkA.s 			page 6


 230              	.L6:
  12:Src/Settings/song.cpp **** 		list->entry_[index] = list->entry_[index - 1];
 231              		.loc 1 12 3 is_stmt 1 discriminator 1 view .LVU69
  12:Src/Settings/song.cpp **** 		list->entry_[index] = list->entry_[index - 1];
 232              		.loc 1 12 3 discriminator 1 view .LVU70
  12:Src/Settings/song.cpp **** 		list->entry_[index] = list->entry_[index - 1];
 233              		.loc 1 12 3 discriminator 1 view .LVU71
  12:Src/Settings/song.cpp **** 		list->entry_[index] = list->entry_[index - 1];
 234              		.loc 1 12 3 discriminator 1 view .LVU72
  12:Src/Settings/song.cpp **** 		list->entry_[index] = list->entry_[index - 1];
 235              		.loc 1 12 3 discriminator 1 view .LVU73
  12:Src/Settings/song.cpp **** 		list->entry_[index] = list->entry_[index - 1];
 236              		.loc 1 12 3 discriminator 1 view .LVU74
  12:Src/Settings/song.cpp **** 		list->entry_[index] = list->entry_[index - 1];
 237              		.loc 1 12 3 discriminator 1 view .LVU75
  12:Src/Settings/song.cpp **** 		list->entry_[index] = list->entry_[index - 1];
 238              		.loc 1 12 3 discriminator 1 view .LVU76
  11:Src/Settings/song.cpp **** 	while (index > 0 && list->entry_[index - 1] >= track_index) {
 239              		.loc 1 11 41 is_stmt 0 discriminator 1 view .LVU77
 240 00ba 701F     		subs	r0, r6, #5
 241 00bc 0090     		str	r0, [sp]
 242 00be A9F10500 		sub	r0, r9, #5
 243 00c2 0190     		str	r0, [sp, #4]
 244 00c4 B01F     		subs	r0, r6, #6
  11:Src/Settings/song.cpp **** 	while (index > 0 && list->entry_[index - 1] >= track_index) {
 245              		.loc 1 11 44 discriminator 1 view .LVU78
 246 00c6 19F8011C 		ldrb	r1, [r9, #-1]	@ zero_extendqisi2
  11:Src/Settings/song.cpp **** 	while (index > 0 && list->entry_[index - 1] >= track_index) {
 247              		.loc 1 11 41 discriminator 1 view .LVU79
 248 00ca 0290     		str	r0, [sp, #8]
 249 00cc A9F10600 		sub	r0, r9, #6
 250 00d0 0390     		str	r0, [sp, #12]
 251 00d2 F01F     		subs	r0, r6, #7
 252 00d4 0490     		str	r0, [sp, #16]
  11:Src/Settings/song.cpp **** 	while (index > 0 && list->entry_[index - 1] >= track_index) {
 253              		.loc 1 11 19 discriminator 1 view .LVU80
 254 00d6 5945     		cmp	r1, fp
 255 00d8 A9F10700 		sub	r0, r9, #7
 256 00dc B446     		mov	ip, r6
  11:Src/Settings/song.cpp **** 	while (index > 0 && list->entry_[index - 1] >= track_index) {
 257              		.loc 1 11 41 discriminator 1 view .LVU81
 258 00de 06F1FF32 		add	r2, r6, #-1
 259 00e2 A6F10204 		sub	r4, r6, #2
 260 00e6 A6F10308 		sub	r8, r6, #3
 261 00ea A6F1040A 		sub	r10, r6, #4
 262 00ee 09F1FF33 		add	r3, r9, #-1
 263 00f2 A9F10205 		sub	r5, r9, #2
 264 00f6 A9F10307 		sub	r7, r9, #3
 265 00fa A9F1040E 		sub	lr, r9, #4
 266 00fe 0590     		str	r0, [sp, #20]
 267 0100 A6F10806 		sub	r6, r6, #8
  11:Src/Settings/song.cpp **** 	while (index > 0 && list->entry_[index - 1] >= track_index) {
 268              		.loc 1 11 19 discriminator 1 view .LVU82
 269 0104 41D3     		bcc	.L55
  11:Src/Settings/song.cpp **** 	while (index > 0 && list->entry_[index - 1] >= track_index) {
 270              		.loc 1 11 44 view .LVU83
 271 0106 19F8020C 		ldrb	r0, [r9, #-2]	@ zero_extendqisi2
ARM GAS  /var/folders/84/_x1cyy_j36g486tldtwl37280000gn/T//cctc5fkA.s 			page 7


  12:Src/Settings/song.cpp **** 		list->entry_[index] = list->entry_[index - 1];
 272              		.loc 1 12 23 view .LVU84
 273 010a 5970     		strb	r1, [r3, #1]
 274              		.loc 1 13 3 is_stmt 1 view .LVU85
  11:Src/Settings/song.cpp **** 	while (index > 0 && list->entry_[index - 1] >= track_index) {
 275              		.loc 1 11 2 view .LVU86
  11:Src/Settings/song.cpp **** 	while (index > 0 && list->entry_[index - 1] >= track_index) {
 276              		.loc 1 11 19 view .LVU87
  11:Src/Settings/song.cpp **** 	while (index > 0 && list->entry_[index - 1] >= track_index) {
 277              		.loc 1 11 19 is_stmt 0 view .LVU88
 278 010c 5845     		cmp	r0, fp
 279 010e 9446     		mov	ip, r2
 280 0110 3BD3     		bcc	.L55
  12:Src/Settings/song.cpp **** 		list->entry_[index] = list->entry_[index - 1];
 281              		.loc 1 12 23 view .LVU89
 282 0112 6870     		strb	r0, [r5, #1]
 283              		.loc 1 13 3 is_stmt 1 view .LVU90
  11:Src/Settings/song.cpp **** 	while (index > 0 && list->entry_[index - 1] >= track_index) {
 284              		.loc 1 11 2 view .LVU91
  11:Src/Settings/song.cpp **** 	while (index > 0 && list->entry_[index - 1] >= track_index) {
 285              		.loc 1 11 19 view .LVU92
  11:Src/Settings/song.cpp **** 	while (index > 0 && list->entry_[index - 1] >= track_index) {
 286              		.loc 1 11 44 is_stmt 0 view .LVU93
 287 0114 19F8031C 		ldrb	r1, [r9, #-3]	@ zero_extendqisi2
  11:Src/Settings/song.cpp **** 	while (index > 0 && list->entry_[index - 1] >= track_index) {
 288              		.loc 1 11 19 view .LVU94
 289 0118 5945     		cmp	r1, fp
 290 011a A446     		mov	ip, r4
 291 011c 35D3     		bcc	.L55
  12:Src/Settings/song.cpp **** 		list->entry_[index] = list->entry_[index - 1];
 292              		.loc 1 12 23 view .LVU95
 293 011e 7970     		strb	r1, [r7, #1]
 294              		.loc 1 13 3 is_stmt 1 view .LVU96
  11:Src/Settings/song.cpp **** 	while (index > 0 && list->entry_[index - 1] >= track_index) {
 295              		.loc 1 11 2 view .LVU97
  11:Src/Settings/song.cpp **** 	while (index > 0 && list->entry_[index - 1] >= track_index) {
 296              		.loc 1 11 19 view .LVU98
  11:Src/Settings/song.cpp **** 	while (index > 0 && list->entry_[index - 1] >= track_index) {
 297              		.loc 1 11 44 is_stmt 0 view .LVU99
 298 0120 19F8042C 		ldrb	r2, [r9, #-4]	@ zero_extendqisi2
  11:Src/Settings/song.cpp **** 	while (index > 0 && list->entry_[index - 1] >= track_index) {
 299              		.loc 1 11 19 view .LVU100
 300 0124 5A45     		cmp	r2, fp
 301 0126 C446     		mov	ip, r8
 302 0128 2FD3     		bcc	.L55
  12:Src/Settings/song.cpp **** 		list->entry_[index] = list->entry_[index - 1];
 303              		.loc 1 12 23 view .LVU101
 304 012a 8EF80120 		strb	r2, [lr, #1]
 305              		.loc 1 13 3 is_stmt 1 view .LVU102
  11:Src/Settings/song.cpp **** 	while (index > 0 && list->entry_[index - 1] >= track_index) {
 306              		.loc 1 11 2 view .LVU103
  11:Src/Settings/song.cpp **** 	while (index > 0 && list->entry_[index - 1] >= track_index) {
 307              		.loc 1 11 19 view .LVU104
  11:Src/Settings/song.cpp **** 	while (index > 0 && list->entry_[index - 1] >= track_index) {
 308              		.loc 1 11 44 is_stmt 0 view .LVU105
 309 012e 19F8053C 		ldrb	r3, [r9, #-5]	@ zero_extendqisi2
  11:Src/Settings/song.cpp **** 	while (index > 0 && list->entry_[index - 1] >= track_index) {
ARM GAS  /var/folders/84/_x1cyy_j36g486tldtwl37280000gn/T//cctc5fkA.s 			page 8


 310              		.loc 1 11 19 view .LVU106
 311 0132 5B45     		cmp	r3, fp
 312 0134 D446     		mov	ip, r10
 313 0136 28D3     		bcc	.L55
  12:Src/Settings/song.cpp **** 		list->entry_[index] = list->entry_[index - 1];
 314              		.loc 1 12 23 view .LVU107
 315 0138 019C     		ldr	r4, [sp, #4]
 316 013a DDF800C0 		ldr	ip, [sp]
 317 013e 6370     		strb	r3, [r4, #1]
 318              		.loc 1 13 3 is_stmt 1 view .LVU108
  11:Src/Settings/song.cpp **** 	while (index > 0 && list->entry_[index - 1] >= track_index) {
 319              		.loc 1 11 2 view .LVU109
  11:Src/Settings/song.cpp **** 	while (index > 0 && list->entry_[index - 1] >= track_index) {
 320              		.loc 1 11 19 view .LVU110
  11:Src/Settings/song.cpp **** 	while (index > 0 && list->entry_[index - 1] >= track_index) {
 321              		.loc 1 11 44 is_stmt 0 view .LVU111
 322 0140 19F8065C 		ldrb	r5, [r9, #-6]	@ zero_extendqisi2
  11:Src/Settings/song.cpp **** 	while (index > 0 && list->entry_[index - 1] >= track_index) {
 323              		.loc 1 11 19 view .LVU112
 324 0144 5D45     		cmp	r5, fp
 325 0146 20D3     		bcc	.L55
  12:Src/Settings/song.cpp **** 		list->entry_[index] = list->entry_[index - 1];
 326              		.loc 1 12 23 view .LVU113
 327 0148 039F     		ldr	r7, [sp, #12]
 328 014a DDF808C0 		ldr	ip, [sp, #8]
 329 014e 7D70     		strb	r5, [r7, #1]
 330              		.loc 1 13 3 is_stmt 1 view .LVU114
  11:Src/Settings/song.cpp **** 	while (index > 0 && list->entry_[index - 1] >= track_index) {
 331              		.loc 1 11 2 view .LVU115
  11:Src/Settings/song.cpp **** 	while (index > 0 && list->entry_[index - 1] >= track_index) {
 332              		.loc 1 11 19 view .LVU116
  11:Src/Settings/song.cpp **** 	while (index > 0 && list->entry_[index - 1] >= track_index) {
 333              		.loc 1 11 44 is_stmt 0 view .LVU117
 334 0150 19F8070C 		ldrb	r0, [r9, #-7]	@ zero_extendqisi2
  11:Src/Settings/song.cpp **** 	while (index > 0 && list->entry_[index - 1] >= track_index) {
 335              		.loc 1 11 19 view .LVU118
 336 0154 5845     		cmp	r0, fp
 337 0156 18D3     		bcc	.L55
  12:Src/Settings/song.cpp **** 		list->entry_[index] = list->entry_[index - 1];
 338              		.loc 1 12 23 view .LVU119
 339 0158 0599     		ldr	r1, [sp, #20]
 340 015a DDF810C0 		ldr	ip, [sp, #16]
 341 015e 4870     		strb	r0, [r1, #1]
 342              		.loc 1 13 3 is_stmt 1 view .LVU120
  11:Src/Settings/song.cpp **** 	while (index > 0 && list->entry_[index - 1] >= track_index) {
 343              		.loc 1 11 2 view .LVU121
  11:Src/Settings/song.cpp **** 	while (index > 0 && list->entry_[index - 1] >= track_index) {
 344              		.loc 1 11 19 view .LVU122
  11:Src/Settings/song.cpp **** 	while (index > 0 && list->entry_[index - 1] >= track_index) {
 345              		.loc 1 11 44 is_stmt 0 view .LVU123
 346 0160 19F8082D 		ldrb	r2, [r9, #-8]!	@ zero_extendqisi2
  11:Src/Settings/song.cpp **** 	while (index > 0 && list->entry_[index - 1] >= track_index) {
 347              		.loc 1 11 19 view .LVU124
 348 0164 5A45     		cmp	r2, fp
 349 0166 10D3     		bcc	.L55
  12:Src/Settings/song.cpp **** 		list->entry_[index] = list->entry_[index - 1];
 350              		.loc 1 12 23 view .LVU125
ARM GAS  /var/folders/84/_x1cyy_j36g486tldtwl37280000gn/T//cctc5fkA.s 			page 9


 351 0168 89F80120 		strb	r2, [r9, #1]
 352              		.loc 1 13 3 is_stmt 1 view .LVU126
  11:Src/Settings/song.cpp **** 	while (index > 0 && list->entry_[index - 1] >= track_index) {
 353              		.loc 1 11 2 view .LVU127
  11:Src/Settings/song.cpp **** 	while (index > 0 && list->entry_[index - 1] >= track_index) {
 354              		.loc 1 11 19 view .LVU128
 355 016c 002E     		cmp	r6, #0
 356 016e A4D1     		bne	.L6
 357 0170 DDE906A8 		ldrd	r10, r8, [sp, #24]
 358              	.LVL25:
 359              	.L4:
   9:Src/Settings/song.cpp **** 	int index = list->size_;
 360              		.loc 1 9 57 is_stmt 0 view .LVU129
 361 0174 4FF0000C 		mov	ip, #0
 362              	.L5:
  14:Src/Settings/song.cpp **** 	}
  15:Src/Settings/song.cpp **** 	list->entry_[index] = track_index;
 363              		.loc 1 15 2 is_stmt 1 view .LVU130
 364              		.loc 1 15 22 is_stmt 0 view .LVU131
 365 0178 0AEB0C09 		add	r9, r10, ip
 366 017c 89F801B0 		strb	fp, [r9, #1]
  16:Src/Settings/song.cpp **** 	++list->size_;
 367              		.loc 1 16 2 is_stmt 1 view .LVU132
 368 0180 8AF80080 		strb	r8, [r10]
  17:Src/Settings/song.cpp **** }
 369              		.loc 1 17 1 is_stmt 0 view .LVU133
 370 0184 09B0     		add	sp, sp, #36
 371              		.cfi_remember_state
 372              		.cfi_def_cfa_offset 36
 373              		@ sp needed
 374 0186 BDE8F08F 		pop	{r4, r5, r6, r7, r8, r9, r10, fp, pc}
 375              	.LVL26:
 376              	.L55:
 377              		.cfi_restore_state
 378              		.loc 1 17 1 view .LVU134
 379 018a DDE906A8 		ldrd	r10, r8, [sp, #24]
 380 018e F3E7     		b	.L5
 381              	.LVL27:
 382              	.L57:
  11:Src/Settings/song.cpp **** 		list->entry_[index] = list->entry_[index - 1];
 383              		.loc 1 11 44 view .LVU135
 384 0190 19F8010D 		ldrb	r0, [r9, #-1]!	@ zero_extendqisi2
 385              	.LVL28:
  11:Src/Settings/song.cpp **** 		list->entry_[index] = list->entry_[index - 1];
 386              		.loc 1 11 19 view .LVU136
 387 0194 5845     		cmp	r0, fp
 388 0196 B446     		mov	ip, r6
 389              	.LVL29:
  11:Src/Settings/song.cpp **** 		list->entry_[index] = list->entry_[index - 1];
 390              		.loc 1 11 41 view .LVU137
 391 0198 1646     		mov	r6, r2
  11:Src/Settings/song.cpp **** 		list->entry_[index] = list->entry_[index - 1];
 392              		.loc 1 11 19 view .LVU138
 393 019a EDD3     		bcc	.L5
  12:Src/Settings/song.cpp **** 		--index;
 394              		.loc 1 12 3 is_stmt 1 view .LVU139
  12:Src/Settings/song.cpp **** 		--index;
ARM GAS  /var/folders/84/_x1cyy_j36g486tldtwl37280000gn/T//cctc5fkA.s 			page 10


 395              		.loc 1 12 23 is_stmt 0 view .LVU140
 396 019c 89F80100 		strb	r0, [r9, #1]
  13:Src/Settings/song.cpp **** 	}
 397              		.loc 1 13 3 is_stmt 1 view .LVU141
  11:Src/Settings/song.cpp **** 		list->entry_[index] = list->entry_[index - 1];
 398              		.loc 1 11 2 view .LVU142
  11:Src/Settings/song.cpp **** 		list->entry_[index] = list->entry_[index - 1];
 399              		.loc 1 11 19 view .LVU143
 400 01a0 4FE7     		b	.L36
 401              		.cfi_endproc
 402              	.LFE2522:
 404 01a2 00BF     		.section	.text._ZN4Song16remove_from_listEPNS_4ListEh,"ax",%progbits
 405              		.align	1
 406              		.p2align 2,,3
 407              		.global	_ZN4Song16remove_from_listEPNS_4ListEh
 408              		.syntax unified
 409              		.thumb
 410              		.thumb_func
 411              		.fpu fpv4-sp-d16
 413              	_ZN4Song16remove_from_listEPNS_4ListEh:
 414              	.LVL30:
 415              	.LFB2523:
  18:Src/Settings/song.cpp **** 
  19:Src/Settings/song.cpp **** void Song::remove_from_list(List* list, uint8_t track_index) {
 416              		.loc 1 19 62 view -0
 417              		.cfi_startproc
 418              		@ args = 0, pretend = 0, frame = 0
 419              		@ frame_needed = 0, uses_anonymous_args = 0
 420              		@ link register save eliminated.
  20:Src/Settings/song.cpp **** 	for (int i = 0; i < list->size_; ++i) {
 421              		.loc 1 20 2 view .LVU145
 422              	.LBB71:
 423              		.loc 1 20 20 view .LVU146
 424              	.LBE71:
  19:Src/Settings/song.cpp **** 	for (int i = 0; i < list->size_; ++i) {
 425              		.loc 1 19 62 is_stmt 0 view .LVU147
 426 0000 F0B4     		push	{r4, r5, r6, r7}
 427              		.cfi_def_cfa_offset 16
 428              		.cfi_offset 4, -16
 429              		.cfi_offset 5, -12
 430              		.cfi_offset 6, -8
 431              		.cfi_offset 7, -4
 432              	.LBB91:
 433              		.loc 1 20 28 view .LVU148
 434 0002 0D78     		ldrb	r5, [r1]	@ zero_extendqisi2
 435              		.loc 1 20 20 view .LVU149
 436 0004 002D     		cmp	r5, #0
 437 0006 60D0     		beq	.L58
 438 0008 15F00704 		ands	r4, r5, #7
 439 000c 0846     		mov	r0, r1
 440              	.LVL31:
 441              		.loc 1 20 11 view .LVU150
 442 000e 4FF00003 		mov	r3, #0
 443 0012 2CD0     		beq	.L63
 444 0014 012C     		cmp	r4, #1
 445 0016 23D0     		beq	.L124
 446 0018 022C     		cmp	r4, #2
ARM GAS  /var/folders/84/_x1cyy_j36g486tldtwl37280000gn/T//cctc5fkA.s 			page 11


 447 001a 1CD0     		beq	.L125
 448 001c 032C     		cmp	r4, #3
 449 001e 15D0     		beq	.L126
 450 0020 042C     		cmp	r4, #4
 451 0022 0ED0     		beq	.L127
 452 0024 052C     		cmp	r4, #5
 453 0026 07D0     		beq	.L128
 454 0028 062C     		cmp	r4, #6
 455 002a 40F0A480 		bne	.L155
 456              	.LVL32:
 457              	.L129:
 458              		.loc 1 20 11 view .LVU151
 459              	.LBE91:
  21:Src/Settings/song.cpp **** 		if (list->entry_[i] == track_index) {
 460              		.loc 1 21 3 is_stmt 1 view .LVU152
 461              	.LBB92:
 462              	.LBB72:
 463 002e 10F8017F 		ldrb	r7, [r0, #1]!	@ zero_extendqisi2
 464 0032 9742     		cmp	r7, r2
 465 0034 4BD0     		beq	.L153
 466              	.LBE72:
  20:Src/Settings/song.cpp **** 	for (int i = 0; i < list->size_; ++i) {
 467              		.loc 1 20 2 view .LVU153
 468 0036 0133     		adds	r3, r3, #1
 469              	.LVL33:
  20:Src/Settings/song.cpp **** 	for (int i = 0; i < list->size_; ++i) {
 470              		.loc 1 20 20 view .LVU154
 471              	.L128:
  20:Src/Settings/song.cpp **** 	for (int i = 0; i < list->size_; ++i) {
 472              		.loc 1 20 20 is_stmt 0 view .LVU155
 473              	.LBE92:
 474              		.loc 1 21 3 is_stmt 1 view .LVU156
 475              	.LBB93:
 476              	.LBB75:
 477 0038 10F801CF 		ldrb	ip, [r0, #1]!	@ zero_extendqisi2
 478 003c 9445     		cmp	ip, r2
 479 003e 46D0     		beq	.L153
 480              	.LBE75:
  20:Src/Settings/song.cpp **** 	for (int i = 0; i < list->size_; ++i) {
 481              		.loc 1 20 2 view .LVU157
 482 0040 0133     		adds	r3, r3, #1
 483              	.LVL34:
  20:Src/Settings/song.cpp **** 	for (int i = 0; i < list->size_; ++i) {
 484              		.loc 1 20 20 view .LVU158
 485              	.L127:
  20:Src/Settings/song.cpp **** 	for (int i = 0; i < list->size_; ++i) {
 486              		.loc 1 20 20 is_stmt 0 view .LVU159
 487              	.LBE93:
 488              		.loc 1 21 3 is_stmt 1 view .LVU160
 489              	.LBB94:
 490              	.LBB76:
 491 0042 10F8014F 		ldrb	r4, [r0, #1]!	@ zero_extendqisi2
 492 0046 9442     		cmp	r4, r2
 493 0048 41D0     		beq	.L153
 494              	.LBE76:
  20:Src/Settings/song.cpp **** 	for (int i = 0; i < list->size_; ++i) {
 495              		.loc 1 20 2 view .LVU161
ARM GAS  /var/folders/84/_x1cyy_j36g486tldtwl37280000gn/T//cctc5fkA.s 			page 12


 496 004a 0133     		adds	r3, r3, #1
 497              	.LVL35:
  20:Src/Settings/song.cpp **** 	for (int i = 0; i < list->size_; ++i) {
 498              		.loc 1 20 20 view .LVU162
 499              	.L126:
  20:Src/Settings/song.cpp **** 	for (int i = 0; i < list->size_; ++i) {
 500              		.loc 1 20 20 is_stmt 0 view .LVU163
 501              	.LBE94:
 502              		.loc 1 21 3 is_stmt 1 view .LVU164
 503              	.LBB95:
 504              	.LBB77:
 505 004c 10F8016F 		ldrb	r6, [r0, #1]!	@ zero_extendqisi2
 506 0050 9642     		cmp	r6, r2
 507 0052 3CD0     		beq	.L153
 508              	.LBE77:
  20:Src/Settings/song.cpp **** 	for (int i = 0; i < list->size_; ++i) {
 509              		.loc 1 20 2 view .LVU165
 510 0054 0133     		adds	r3, r3, #1
 511              	.LVL36:
  20:Src/Settings/song.cpp **** 	for (int i = 0; i < list->size_; ++i) {
 512              		.loc 1 20 20 view .LVU166
 513              	.L125:
  20:Src/Settings/song.cpp **** 	for (int i = 0; i < list->size_; ++i) {
 514              		.loc 1 20 20 is_stmt 0 view .LVU167
 515              	.LBE95:
 516              		.loc 1 21 3 is_stmt 1 view .LVU168
 517              	.LBB96:
 518              	.LBB78:
 519 0056 10F8017F 		ldrb	r7, [r0, #1]!	@ zero_extendqisi2
 520 005a 9742     		cmp	r7, r2
 521 005c 37D0     		beq	.L153
 522              	.LBE78:
  20:Src/Settings/song.cpp **** 	for (int i = 0; i < list->size_; ++i) {
 523              		.loc 1 20 2 view .LVU169
 524 005e 0133     		adds	r3, r3, #1
 525              	.LVL37:
  20:Src/Settings/song.cpp **** 	for (int i = 0; i < list->size_; ++i) {
 526              		.loc 1 20 20 view .LVU170
 527              	.L124:
  20:Src/Settings/song.cpp **** 	for (int i = 0; i < list->size_; ++i) {
 528              		.loc 1 20 20 is_stmt 0 view .LVU171
 529              	.LBE96:
 530              		.loc 1 21 3 is_stmt 1 view .LVU172
 531              	.LBB97:
 532              	.LBB79:
 533 0060 10F801CF 		ldrb	ip, [r0, #1]!	@ zero_extendqisi2
 534 0064 9445     		cmp	ip, r2
 535 0066 32D0     		beq	.L153
 536              	.LBE79:
  20:Src/Settings/song.cpp **** 	for (int i = 0; i < list->size_; ++i) {
 537              		.loc 1 20 2 view .LVU173
 538 0068 0133     		adds	r3, r3, #1
 539              	.LVL38:
  20:Src/Settings/song.cpp **** 	for (int i = 0; i < list->size_; ++i) {
 540              		.loc 1 20 20 view .LVU174
 541 006a AB42     		cmp	r3, r5
 542 006c 2DD0     		beq	.L58
ARM GAS  /var/folders/84/_x1cyy_j36g486tldtwl37280000gn/T//cctc5fkA.s 			page 13


 543              	.LVL39:
 544              	.L63:
  20:Src/Settings/song.cpp **** 	for (int i = 0; i < list->size_; ++i) {
 545              		.loc 1 20 20 is_stmt 0 view .LVU175
 546              	.LBE97:
 547              		.loc 1 21 3 is_stmt 1 view .LVU176
 548              	.LBB98:
  20:Src/Settings/song.cpp **** 	for (int i = 0; i < list->size_; ++i) {
 549              		.loc 1 20 2 view .LVU177
  20:Src/Settings/song.cpp **** 	for (int i = 0; i < list->size_; ++i) {
 550              		.loc 1 20 2 view .LVU178
  20:Src/Settings/song.cpp **** 	for (int i = 0; i < list->size_; ++i) {
 551              		.loc 1 20 2 view .LVU179
  20:Src/Settings/song.cpp **** 	for (int i = 0; i < list->size_; ++i) {
 552              		.loc 1 20 2 view .LVU180
  20:Src/Settings/song.cpp **** 	for (int i = 0; i < list->size_; ++i) {
 553              		.loc 1 20 2 view .LVU181
  20:Src/Settings/song.cpp **** 	for (int i = 0; i < list->size_; ++i) {
 554              		.loc 1 20 2 view .LVU182
  20:Src/Settings/song.cpp **** 	for (int i = 0; i < list->size_; ++i) {
 555              		.loc 1 20 2 view .LVU183
  20:Src/Settings/song.cpp **** 	for (int i = 0; i < list->size_; ++i) {
 556              		.loc 1 20 2 view .LVU184
 557              	.LBB80:
 558              		.loc 1 21 3 is_stmt 0 view .LVU185
 559 006e 4478     		ldrb	r4, [r0, #1]	@ zero_extendqisi2
 560 0070 9442     		cmp	r4, r2
 561 0072 00F10106 		add	r6, r0, #1
 562 0076 2AD0     		beq	.L153
 563              		.loc 1 21 3 discriminator 2 view .LVU186
 564 0078 7778     		ldrb	r7, [r6, #1]	@ zero_extendqisi2
 565              	.LBE80:
  20:Src/Settings/song.cpp **** 	for (int i = 0; i < list->size_; ++i) {
 566              		.loc 1 20 2 discriminator 2 view .LVU187
 567 007a 0133     		adds	r3, r3, #1
 568              	.LVL40:
 569              	.LBB81:
 570              		.loc 1 21 3 discriminator 2 view .LVU188
 571 007c 9742     		cmp	r7, r2
 572              	.LBE81:
  20:Src/Settings/song.cpp **** 	for (int i = 0; i < list->size_; ++i) {
 573              		.loc 1 20 2 discriminator 2 view .LVU189
 574 007e 1C46     		mov	r4, r3
 575              	.LVL41:
  20:Src/Settings/song.cpp **** 	for (int i = 0; i < list->size_; ++i) {
 576              		.loc 1 20 20 is_stmt 1 discriminator 2 view .LVU190
  20:Src/Settings/song.cpp **** 	for (int i = 0; i < list->size_; ++i) {
 577              		.loc 1 20 20 is_stmt 0 discriminator 2 view .LVU191
 578              	.LBE98:
 579              		.loc 1 21 3 is_stmt 1 discriminator 2 view .LVU192
 580              	.LBB99:
 581              	.LBB82:
 582 0080 25D0     		beq	.L153
 583              		.loc 1 21 3 is_stmt 0 view .LVU193
 584 0082 90F803C0 		ldrb	ip, [r0, #3]	@ zero_extendqisi2
 585 0086 9445     		cmp	ip, r2
 586              	.LBE82:
ARM GAS  /var/folders/84/_x1cyy_j36g486tldtwl37280000gn/T//cctc5fkA.s 			page 14


  20:Src/Settings/song.cpp **** 	for (int i = 0; i < list->size_; ++i) {
 587              		.loc 1 20 2 view .LVU194
 588 0088 03F10103 		add	r3, r3, #1
 589              	.LVL42:
  20:Src/Settings/song.cpp **** 	for (int i = 0; i < list->size_; ++i) {
 590              		.loc 1 20 20 is_stmt 1 view .LVU195
  20:Src/Settings/song.cpp **** 	for (int i = 0; i < list->size_; ++i) {
 591              		.loc 1 20 20 is_stmt 0 view .LVU196
 592              	.LBE99:
 593              		.loc 1 21 3 is_stmt 1 view .LVU197
 594              	.LBB100:
 595              	.LBB83:
 596 008c 1FD0     		beq	.L153
 597 008e 0679     		ldrb	r6, [r0, #4]	@ zero_extendqisi2
 598 0090 9642     		cmp	r6, r2
 599              	.LBE83:
  20:Src/Settings/song.cpp **** 	for (int i = 0; i < list->size_; ++i) {
 600              		.loc 1 20 2 is_stmt 0 view .LVU198
 601 0092 04F10203 		add	r3, r4, #2
 602              	.LVL43:
  20:Src/Settings/song.cpp **** 	for (int i = 0; i < list->size_; ++i) {
 603              		.loc 1 20 20 is_stmt 1 view .LVU199
  20:Src/Settings/song.cpp **** 	for (int i = 0; i < list->size_; ++i) {
 604              		.loc 1 20 20 is_stmt 0 view .LVU200
 605              	.LBE100:
 606              		.loc 1 21 3 is_stmt 1 view .LVU201
 607              	.LBB101:
 608              	.LBB84:
 609 0096 1AD0     		beq	.L153
 610 0098 4779     		ldrb	r7, [r0, #5]	@ zero_extendqisi2
 611 009a 9742     		cmp	r7, r2
 612              	.LBE84:
  20:Src/Settings/song.cpp **** 	for (int i = 0; i < list->size_; ++i) {
 613              		.loc 1 20 2 is_stmt 0 view .LVU202
 614 009c 04F10303 		add	r3, r4, #3
 615              	.LVL44:
  20:Src/Settings/song.cpp **** 	for (int i = 0; i < list->size_; ++i) {
 616              		.loc 1 20 20 is_stmt 1 view .LVU203
  20:Src/Settings/song.cpp **** 	for (int i = 0; i < list->size_; ++i) {
 617              		.loc 1 20 20 is_stmt 0 view .LVU204
 618              	.LBE101:
 619              		.loc 1 21 3 is_stmt 1 view .LVU205
 620              	.LBB102:
 621              	.LBB85:
 622 00a0 15D0     		beq	.L153
 623 00a2 90F806C0 		ldrb	ip, [r0, #6]	@ zero_extendqisi2
 624 00a6 9445     		cmp	ip, r2
 625              	.LBE85:
  20:Src/Settings/song.cpp **** 	for (int i = 0; i < list->size_; ++i) {
 626              		.loc 1 20 2 is_stmt 0 view .LVU206
 627 00a8 04F10403 		add	r3, r4, #4
 628              	.LVL45:
  20:Src/Settings/song.cpp **** 	for (int i = 0; i < list->size_; ++i) {
 629              		.loc 1 20 20 is_stmt 1 view .LVU207
  20:Src/Settings/song.cpp **** 	for (int i = 0; i < list->size_; ++i) {
 630              		.loc 1 20 20 is_stmt 0 view .LVU208
 631              	.LBE102:
ARM GAS  /var/folders/84/_x1cyy_j36g486tldtwl37280000gn/T//cctc5fkA.s 			page 15


 632              		.loc 1 21 3 is_stmt 1 view .LVU209
 633              	.LBB103:
 634              	.LBB86:
 635 00ac 0FD0     		beq	.L153
 636 00ae C679     		ldrb	r6, [r0, #7]	@ zero_extendqisi2
 637 00b0 9642     		cmp	r6, r2
 638              	.LBE86:
  20:Src/Settings/song.cpp **** 	for (int i = 0; i < list->size_; ++i) {
 639              		.loc 1 20 2 is_stmt 0 view .LVU210
 640 00b2 04F10503 		add	r3, r4, #5
 641              	.LVL46:
  20:Src/Settings/song.cpp **** 	for (int i = 0; i < list->size_; ++i) {
 642              		.loc 1 20 20 is_stmt 1 view .LVU211
  20:Src/Settings/song.cpp **** 	for (int i = 0; i < list->size_; ++i) {
 643              		.loc 1 20 20 is_stmt 0 view .LVU212
 644              	.LBE103:
 645              		.loc 1 21 3 is_stmt 1 view .LVU213
 646              	.LBB104:
 647              	.LBB87:
 648 00b6 0AD0     		beq	.L153
 649 00b8 10F8087F 		ldrb	r7, [r0, #8]!	@ zero_extendqisi2
 650 00bc 9742     		cmp	r7, r2
 651              	.LBE87:
  20:Src/Settings/song.cpp **** 	for (int i = 0; i < list->size_; ++i) {
 652              		.loc 1 20 2 is_stmt 0 view .LVU214
 653 00be 04F10603 		add	r3, r4, #6
 654              	.LVL47:
  20:Src/Settings/song.cpp **** 	for (int i = 0; i < list->size_; ++i) {
 655              		.loc 1 20 20 is_stmt 1 view .LVU215
  20:Src/Settings/song.cpp **** 	for (int i = 0; i < list->size_; ++i) {
 656              		.loc 1 20 20 is_stmt 0 view .LVU216
 657              	.LBE104:
 658              		.loc 1 21 3 is_stmt 1 view .LVU217
 659              	.LBB105:
 660              	.LBB88:
 661 00c2 04D0     		beq	.L153
 662              	.LBE88:
  20:Src/Settings/song.cpp **** 	for (int i = 0; i < list->size_; ++i) {
 663              		.loc 1 20 2 is_stmt 0 view .LVU218
 664 00c4 E31D     		adds	r3, r4, #7
 665              	.LVL48:
  20:Src/Settings/song.cpp **** 	for (int i = 0; i < list->size_; ++i) {
 666              		.loc 1 20 20 is_stmt 1 view .LVU219
 667 00c6 AB42     		cmp	r3, r5
 668 00c8 D1D1     		bne	.L63
 669              	.LVL49:
 670              	.L58:
  20:Src/Settings/song.cpp **** 	for (int i = 0; i < list->size_; ++i) {
 671              		.loc 1 20 20 is_stmt 0 view .LVU220
 672              	.LBE105:
  22:Src/Settings/song.cpp **** 			for (int j = i; j < list->size_; ++j) {
  23:Src/Settings/song.cpp **** 				list->entry_[j] = list->entry_[j + 1];
  24:Src/Settings/song.cpp **** 			}
  25:Src/Settings/song.cpp **** 			--list->size_;
  26:Src/Settings/song.cpp **** 			return;
  27:Src/Settings/song.cpp **** 		}
  28:Src/Settings/song.cpp **** 	}
ARM GAS  /var/folders/84/_x1cyy_j36g486tldtwl37280000gn/T//cctc5fkA.s 			page 16


  29:Src/Settings/song.cpp **** }
 673              		.loc 1 29 1 view .LVU221
 674 00ca F0BC     		pop	{r4, r5, r6, r7}
 675              		.cfi_remember_state
 676              		.cfi_restore 7
 677              		.cfi_restore 6
 678              		.cfi_restore 5
 679              		.cfi_restore 4
 680              		.cfi_def_cfa_offset 0
 681 00cc 7047     		bx	lr
 682              	.L153:
 683              		.cfi_restore_state
 684              	.LVL50:
 685              	.LBB106:
 686              	.LBB89:
 687              	.LBB73:
 688              	.LBB74:
  22:Src/Settings/song.cpp **** 			for (int j = i; j < list->size_; ++j) {
 689              		.loc 1 22 22 is_stmt 1 view .LVU222
 690 00ce 9D42     		cmp	r5, r3
 691 00d0 4DDD     		ble	.L61
  22:Src/Settings/song.cpp **** 			for (int j = i; j < list->size_; ++j) {
 692              		.loc 1 22 22 is_stmt 0 view .LVU223
 693 00d2 0133     		adds	r3, r3, #1
 694              	.LVL51:
  22:Src/Settings/song.cpp **** 			for (int j = i; j < list->size_; ++j) {
 695              		.loc 1 22 22 view .LVU224
 696 00d4 4A1C     		adds	r2, r1, #1
 697              	.LVL52:
  22:Src/Settings/song.cpp **** 			for (int j = i; j < list->size_; ++j) {
 698              		.loc 1 22 22 view .LVU225
 699 00d6 0B44     		add	r3, r3, r1
 700              	.LVL53:
  22:Src/Settings/song.cpp **** 			for (int j = i; j < list->size_; ++j) {
 701              		.loc 1 22 22 view .LVU226
 702 00d8 2A44     		add	r2, r2, r5
 703 00da D01A     		subs	r0, r2, r3
 704 00dc 10F00704 		ands	r4, r0, #7
 705 00e0 23D0     		beq	.L62
 706 00e2 012C     		cmp	r4, #1
 707 00e4 1CD0     		beq	.L130
 708 00e6 022C     		cmp	r4, #2
 709 00e8 17D0     		beq	.L131
 710 00ea 032C     		cmp	r4, #3
 711 00ec 12D0     		beq	.L132
 712 00ee 042C     		cmp	r4, #4
 713 00f0 0DD0     		beq	.L133
 714 00f2 052C     		cmp	r4, #5
 715 00f4 07D0     		beq	.L134
 716 00f6 062C     		cmp	r4, #6
 717 00f8 02D0     		beq	.L135
  23:Src/Settings/song.cpp **** 			}
 718              		.loc 1 23 5 is_stmt 1 view .LVU227
  23:Src/Settings/song.cpp **** 			}
 719              		.loc 1 23 21 is_stmt 0 view .LVU228
 720 00fa 5E78     		ldrb	r6, [r3, #1]	@ zero_extendqisi2
 721 00fc 03F8016B 		strb	r6, [r3], #1
ARM GAS  /var/folders/84/_x1cyy_j36g486tldtwl37280000gn/T//cctc5fkA.s 			page 17


  22:Src/Settings/song.cpp **** 			for (int j = i; j < list->size_; ++j) {
 722              		.loc 1 22 4 is_stmt 1 view .LVU229
  22:Src/Settings/song.cpp **** 			for (int j = i; j < list->size_; ++j) {
 723              		.loc 1 22 22 view .LVU230
 724              	.L135:
  23:Src/Settings/song.cpp **** 			}
 725              		.loc 1 23 5 view .LVU231
  23:Src/Settings/song.cpp **** 			}
 726              		.loc 1 23 21 is_stmt 0 view .LVU232
 727 0100 5F78     		ldrb	r7, [r3, #1]	@ zero_extendqisi2
 728 0102 03F8017B 		strb	r7, [r3], #1
  22:Src/Settings/song.cpp **** 			for (int j = i; j < list->size_; ++j) {
 729              		.loc 1 22 4 is_stmt 1 view .LVU233
  22:Src/Settings/song.cpp **** 			for (int j = i; j < list->size_; ++j) {
 730              		.loc 1 22 22 view .LVU234
 731              	.L134:
  23:Src/Settings/song.cpp **** 			}
 732              		.loc 1 23 5 view .LVU235
  23:Src/Settings/song.cpp **** 			}
 733              		.loc 1 23 21 is_stmt 0 view .LVU236
 734 0106 93F801C0 		ldrb	ip, [r3, #1]	@ zero_extendqisi2
 735 010a 03F801CB 		strb	ip, [r3], #1
  22:Src/Settings/song.cpp **** 			for (int j = i; j < list->size_; ++j) {
 736              		.loc 1 22 4 is_stmt 1 view .LVU237
  22:Src/Settings/song.cpp **** 			for (int j = i; j < list->size_; ++j) {
 737              		.loc 1 22 22 view .LVU238
 738              	.L133:
  23:Src/Settings/song.cpp **** 			}
 739              		.loc 1 23 5 view .LVU239
  23:Src/Settings/song.cpp **** 			}
 740              		.loc 1 23 21 is_stmt 0 view .LVU240
 741 010e 5878     		ldrb	r0, [r3, #1]	@ zero_extendqisi2
 742 0110 03F8010B 		strb	r0, [r3], #1
  22:Src/Settings/song.cpp **** 			for (int j = i; j < list->size_; ++j) {
 743              		.loc 1 22 4 is_stmt 1 view .LVU241
  22:Src/Settings/song.cpp **** 			for (int j = i; j < list->size_; ++j) {
 744              		.loc 1 22 22 view .LVU242
 745              	.L132:
  23:Src/Settings/song.cpp **** 			}
 746              		.loc 1 23 5 view .LVU243
  23:Src/Settings/song.cpp **** 			}
 747              		.loc 1 23 21 is_stmt 0 view .LVU244
 748 0114 5C78     		ldrb	r4, [r3, #1]	@ zero_extendqisi2
 749 0116 03F8014B 		strb	r4, [r3], #1
  22:Src/Settings/song.cpp **** 			for (int j = i; j < list->size_; ++j) {
 750              		.loc 1 22 4 is_stmt 1 view .LVU245
  22:Src/Settings/song.cpp **** 			for (int j = i; j < list->size_; ++j) {
 751              		.loc 1 22 22 view .LVU246
 752              	.L131:
  23:Src/Settings/song.cpp **** 			}
 753              		.loc 1 23 5 view .LVU247
  23:Src/Settings/song.cpp **** 			}
 754              		.loc 1 23 21 is_stmt 0 view .LVU248
 755 011a 5E78     		ldrb	r6, [r3, #1]	@ zero_extendqisi2
 756 011c 03F8016B 		strb	r6, [r3], #1
  22:Src/Settings/song.cpp **** 			for (int j = i; j < list->size_; ++j) {
 757              		.loc 1 22 4 is_stmt 1 view .LVU249
ARM GAS  /var/folders/84/_x1cyy_j36g486tldtwl37280000gn/T//cctc5fkA.s 			page 18


  22:Src/Settings/song.cpp **** 			for (int j = i; j < list->size_; ++j) {
 758              		.loc 1 22 22 view .LVU250
 759              	.L130:
  23:Src/Settings/song.cpp **** 			}
 760              		.loc 1 23 5 view .LVU251
  23:Src/Settings/song.cpp **** 			}
 761              		.loc 1 23 21 is_stmt 0 view .LVU252
 762 0120 5F78     		ldrb	r7, [r3, #1]	@ zero_extendqisi2
 763 0122 03F8017B 		strb	r7, [r3], #1
  22:Src/Settings/song.cpp **** 			for (int j = i; j < list->size_; ++j) {
 764              		.loc 1 22 4 is_stmt 1 view .LVU253
  22:Src/Settings/song.cpp **** 			for (int j = i; j < list->size_; ++j) {
 765              		.loc 1 22 22 view .LVU254
 766 0126 9342     		cmp	r3, r2
 767 0128 21D0     		beq	.L61
 768              	.L62:
  23:Src/Settings/song.cpp **** 			}
 769              		.loc 1 23 5 discriminator 2 view .LVU255
  23:Src/Settings/song.cpp **** 			}
 770              		.loc 1 23 21 is_stmt 0 discriminator 2 view .LVU256
 771 012a 9C46     		mov	ip, r3
 772 012c 5878     		ldrb	r0, [r3, #1]	@ zero_extendqisi2
 773 012e 0CF8010B 		strb	r0, [ip], #1
  22:Src/Settings/song.cpp **** 			for (int j = i; j < list->size_; ++j) {
 774              		.loc 1 22 4 is_stmt 1 discriminator 2 view .LVU257
  22:Src/Settings/song.cpp **** 			for (int j = i; j < list->size_; ++j) {
 775              		.loc 1 22 22 discriminator 2 view .LVU258
  23:Src/Settings/song.cpp **** 			}
 776              		.loc 1 23 5 discriminator 2 view .LVU259
  23:Src/Settings/song.cpp **** 			}
 777              		.loc 1 23 21 is_stmt 0 discriminator 2 view .LVU260
 778 0132 6446     		mov	r4, ip
 779 0134 0833     		adds	r3, r3, #8
 780 0136 14F8016F 		ldrb	r6, [r4, #1]!	@ zero_extendqisi2
 781 013a 03F8076C 		strb	r6, [r3, #-7]
  22:Src/Settings/song.cpp **** 			for (int j = i; j < list->size_; ++j) {
 782              		.loc 1 22 4 is_stmt 1 discriminator 2 view .LVU261
  22:Src/Settings/song.cpp **** 			for (int j = i; j < list->size_; ++j) {
 783              		.loc 1 22 22 discriminator 2 view .LVU262
  23:Src/Settings/song.cpp **** 			}
 784              		.loc 1 23 5 discriminator 2 view .LVU263
  22:Src/Settings/song.cpp **** 			for (int j = i; j < list->size_; ++j) {
 785              		.loc 1 22 4 discriminator 2 view .LVU264
  22:Src/Settings/song.cpp **** 			for (int j = i; j < list->size_; ++j) {
 786              		.loc 1 22 22 discriminator 2 view .LVU265
  23:Src/Settings/song.cpp **** 			}
 787              		.loc 1 23 5 discriminator 2 view .LVU266
  22:Src/Settings/song.cpp **** 			for (int j = i; j < list->size_; ++j) {
 788              		.loc 1 22 4 discriminator 2 view .LVU267
  22:Src/Settings/song.cpp **** 			for (int j = i; j < list->size_; ++j) {
 789              		.loc 1 22 22 discriminator 2 view .LVU268
  23:Src/Settings/song.cpp **** 			}
 790              		.loc 1 23 5 discriminator 2 view .LVU269
  22:Src/Settings/song.cpp **** 			for (int j = i; j < list->size_; ++j) {
 791              		.loc 1 22 4 discriminator 2 view .LVU270
  22:Src/Settings/song.cpp **** 			for (int j = i; j < list->size_; ++j) {
 792              		.loc 1 22 22 discriminator 2 view .LVU271
ARM GAS  /var/folders/84/_x1cyy_j36g486tldtwl37280000gn/T//cctc5fkA.s 			page 19


  23:Src/Settings/song.cpp **** 			}
 793              		.loc 1 23 5 discriminator 2 view .LVU272
  22:Src/Settings/song.cpp **** 			for (int j = i; j < list->size_; ++j) {
 794              		.loc 1 22 4 discriminator 2 view .LVU273
  22:Src/Settings/song.cpp **** 			for (int j = i; j < list->size_; ++j) {
 795              		.loc 1 22 22 discriminator 2 view .LVU274
  23:Src/Settings/song.cpp **** 			}
 796              		.loc 1 23 5 discriminator 2 view .LVU275
  22:Src/Settings/song.cpp **** 			for (int j = i; j < list->size_; ++j) {
 797              		.loc 1 22 4 discriminator 2 view .LVU276
  22:Src/Settings/song.cpp **** 			for (int j = i; j < list->size_; ++j) {
 798              		.loc 1 22 22 discriminator 2 view .LVU277
  23:Src/Settings/song.cpp **** 			}
 799              		.loc 1 23 5 discriminator 2 view .LVU278
  23:Src/Settings/song.cpp **** 			}
 800              		.loc 1 23 21 is_stmt 0 discriminator 2 view .LVU279
 801 013e 6778     		ldrb	r7, [r4, #1]	@ zero_extendqisi2
 802 0140 8CF80170 		strb	r7, [ip, #1]
 803 0144 13F8040C 		ldrb	r0, [r3, #-4]	@ zero_extendqisi2
 804 0148 13F8037C 		ldrb	r7, [r3, #-3]	@ zero_extendqisi2
 805 014c 13F8026C 		ldrb	r6, [r3, #-2]	@ zero_extendqisi2
 806 0150 13F8014C 		ldrb	r4, [r3, #-1]	@ zero_extendqisi2
 807 0154 03F8050C 		strb	r0, [r3, #-5]
 808 0158 1878     		ldrb	r0, [r3]	@ zero_extendqisi2
 809 015a 03F8047C 		strb	r7, [r3, #-4]
 810 015e 03F8036C 		strb	r6, [r3, #-3]
 811 0162 03F8024C 		strb	r4, [r3, #-2]
 812 0166 03F8010C 		strb	r0, [r3, #-1]
  22:Src/Settings/song.cpp **** 			for (int j = i; j < list->size_; ++j) {
 813              		.loc 1 22 4 is_stmt 1 discriminator 2 view .LVU280
  22:Src/Settings/song.cpp **** 			for (int j = i; j < list->size_; ++j) {
 814              		.loc 1 22 22 discriminator 2 view .LVU281
 815 016a 9342     		cmp	r3, r2
 816 016c DDD1     		bne	.L62
 817              	.L61:
  22:Src/Settings/song.cpp **** 			for (int j = i; j < list->size_; ++j) {
 818              		.loc 1 22 22 is_stmt 0 discriminator 2 view .LVU282
 819              	.LBE74:
  25:Src/Settings/song.cpp **** 			return;
 820              		.loc 1 25 4 is_stmt 1 view .LVU283
 821 016e 013D     		subs	r5, r5, #1
 822 0170 0D70     		strb	r5, [r1]
  26:Src/Settings/song.cpp **** 		}
 823              		.loc 1 26 4 view .LVU284
 824              	.LBE73:
 825              	.LBE89:
 826              	.LBE106:
 827              		.loc 1 29 1 is_stmt 0 view .LVU285
 828 0172 F0BC     		pop	{r4, r5, r6, r7}
 829              		.cfi_remember_state
 830              		.cfi_restore 7
 831              		.cfi_restore 6
 832              		.cfi_restore 5
 833              		.cfi_restore 4
 834              		.cfi_def_cfa_offset 0
 835 0174 7047     		bx	lr
 836              	.LVL54:
ARM GAS  /var/folders/84/_x1cyy_j36g486tldtwl37280000gn/T//cctc5fkA.s 			page 20


 837              	.L155:
 838              		.cfi_restore_state
  21:Src/Settings/song.cpp **** 			for (int j = i; j < list->size_; ++j) {
 839              		.loc 1 21 3 is_stmt 1 view .LVU286
 840              	.LBB107:
 841              	.LBB90:
 842 0176 10F8016F 		ldrb	r6, [r0, #1]!	@ zero_extendqisi2
 843              	.LVL55:
  21:Src/Settings/song.cpp **** 			for (int j = i; j < list->size_; ++j) {
 844              		.loc 1 21 3 is_stmt 0 view .LVU287
 845 017a 9642     		cmp	r6, r2
 846 017c A7D0     		beq	.L153
 847              	.LBE90:
  20:Src/Settings/song.cpp **** 		if (list->entry_[i] == track_index) {
 848              		.loc 1 20 2 is_stmt 1 view .LVU288
 849 017e 0123     		movs	r3, #1
 850              	.LVL56:
  20:Src/Settings/song.cpp **** 		if (list->entry_[i] == track_index) {
 851              		.loc 1 20 20 view .LVU289
 852 0180 55E7     		b	.L129
 853              	.LBE107:
 854              		.cfi_endproc
 855              	.LFE2523:
 857 0182 00BF     		.section	.text._ZN4Song4saveER10FileWriter,"ax",%progbits
 858              		.align	1
 859              		.p2align 2,,3
 860              		.global	_ZN4Song4saveER10FileWriter
 861              		.syntax unified
 862              		.thumb
 863              		.thumb_func
 864              		.fpu fpv4-sp-d16
 866              	_ZN4Song4saveER10FileWriter:
 867              	.LVL57:
 868              	.LFB2524:
  30:Src/Settings/song.cpp **** 
  31:Src/Settings/song.cpp **** void Song::save(FileWriter &fileWriter) {
 869              		.loc 1 31 41 view -0
 870              		.cfi_startproc
 871              		@ args = 0, pretend = 0, frame = 8
 872              		@ frame_needed = 0, uses_anonymous_args = 0
  32:Src/Settings/song.cpp **** 	fileWriter.write(mute_flags);
 873              		.loc 1 32 2 view .LVU291
  31:Src/Settings/song.cpp **** 	fileWriter.write(mute_flags);
 874              		.loc 1 31 41 is_stmt 0 view .LVU292
 875 0000 2DE9F047 		push	{r4, r5, r6, r7, r8, r9, r10, lr}
 876              		.cfi_def_cfa_offset 32
 877              		.cfi_offset 4, -32
 878              		.cfi_offset 5, -28
 879              		.cfi_offset 6, -24
 880              		.cfi_offset 7, -20
 881              		.cfi_offset 8, -16
 882              		.cfi_offset 9, -12
 883              		.cfi_offset 10, -8
 884              		.cfi_offset 14, -4
 885              	.LBB226:
 886              	.LBB227:
 887              	.LBB228:
ARM GAS  /var/folders/84/_x1cyy_j36g486tldtwl37280000gn/T//cctc5fkA.s 			page 21


 888              		.file 2 "Src/Disk/fileWriter.h"
   1:Src/Disk/fileWriter.h **** #ifndef FileWriter_h
   2:Src/Disk/fileWriter.h **** #define FileWriter_h
   3:Src/Disk/fileWriter.h **** 
   4:Src/Disk/fileWriter.h **** // based on westlicht's fileWriter
   5:Src/Disk/fileWriter.h **** 
   6:Src/Disk/fileWriter.h **** #include "file.h"
   7:Src/Disk/fileWriter.h **** #include "hash.h"
   8:Src/Disk/fileWriter.h **** 
   9:Src/Disk/fileWriter.h **** class FileWriter {
  10:Src/Disk/fileWriter.h **** 
  11:Src/Disk/fileWriter.h **** public:
  12:Src/Disk/fileWriter.h **** 
  13:Src/Disk/fileWriter.h **** 	bool write_ok() {
  14:Src/Disk/fileWriter.h **** 		return write_ok_;
  15:Src/Disk/fileWriter.h **** 	}
  16:Src/Disk/fileWriter.h **** 
  17:Src/Disk/fileWriter.h **** 	void start(File *file, const char* path, uint32_t version) {
  18:Src/Disk/fileWriter.h **** 		buff_pos = 0;
  19:Src/Disk/fileWriter.h **** 
  20:Src/Disk/fileWriter.h **** 		file_ = file;
  21:Src/Disk/fileWriter.h **** 		write_ok_ = file_->open(path, File::WRITE | File::OPEN_ALWAYS);
  22:Src/Disk/fileWriter.h **** 
  23:Src/Disk/fileWriter.h **** 		hash_.init();
  24:Src/Disk/fileWriter.h **** 
  25:Src/Disk/fileWriter.h **** 		if (write_ok_) {
  26:Src/Disk/fileWriter.h **** 			write(version);
  27:Src/Disk/fileWriter.h **** 		}
  28:Src/Disk/fileWriter.h **** 	}
  29:Src/Disk/fileWriter.h **** 
  30:Src/Disk/fileWriter.h **** 	void stop() {
  31:Src/Disk/fileWriter.h **** 		// send remaing buffer data
  32:Src/Disk/fileWriter.h **** 		if (write_ok_) {
  33:Src/Disk/fileWriter.h **** 			write_ok_ = send_buffer();
  34:Src/Disk/fileWriter.h **** 		}
  35:Src/Disk/fileWriter.h **** 
  36:Src/Disk/fileWriter.h **** 		if (write_ok_) {
  37:Src/Disk/fileWriter.h **** 			uint32_t hash = hash_.read();
  38:Src/Disk/fileWriter.h **** 			write_ok_ = file_->write(&hash, sizeof(hash));
  39:Src/Disk/fileWriter.h **** 		}
  40:Src/Disk/fileWriter.h **** 
  41:Src/Disk/fileWriter.h **** 		if (!write_ok_) {
  42:Src/Disk/fileWriter.h **** 			file_->close();
  43:Src/Disk/fileWriter.h **** 			return;
  44:Src/Disk/fileWriter.h **** 		}
  45:Src/Disk/fileWriter.h **** 
  46:Src/Disk/fileWriter.h **** 		write_ok_ = file_->close();
  47:Src/Disk/fileWriter.h **** 	}
  48:Src/Disk/fileWriter.h **** 
  49:Src/Disk/fileWriter.h **** 	template<typename T>
  50:Src/Disk/fileWriter.h **** 	void write(T &data) {
  51:Src/Disk/fileWriter.h **** 		write_buffer(&data, sizeof(T));
  52:Src/Disk/fileWriter.h **** 		hash_.write(&data, sizeof(T));
  53:Src/Disk/fileWriter.h **** 	}
  54:Src/Disk/fileWriter.h **** 
  55:Src/Disk/fileWriter.h **** private:
  56:Src/Disk/fileWriter.h **** 	static const int kBufferSize = 512;
ARM GAS  /var/folders/84/_x1cyy_j36g486tldtwl37280000gn/T//cctc5fkA.s 			page 22


  57:Src/Disk/fileWriter.h **** 	uint8_t buffer[kBufferSize];
  58:Src/Disk/fileWriter.h **** 	uint32_t buff_pos;
  59:Src/Disk/fileWriter.h **** 
  60:Src/Disk/fileWriter.h **** 	File *file_;
  61:Src/Disk/fileWriter.h **** 	Hash hash_;
  62:Src/Disk/fileWriter.h **** 	bool write_ok_;
  63:Src/Disk/fileWriter.h **** 
  64:Src/Disk/fileWriter.h **** 
  65:Src/Disk/fileWriter.h **** 	void write_buffer(void *data, uint32_t size) {
  66:Src/Disk/fileWriter.h **** 		uint8_t *data_ = reinterpret_cast<uint8_t *>(data);
  67:Src/Disk/fileWriter.h **** 
  68:Src/Disk/fileWriter.h **** 		while (write_ok_ && (size > 0)) {
 889              		.loc 2 68 10 view .LVU293
 890 0004 91F80C22 		ldrb	r2, [r1, #524]	@ zero_extendqisi2
 891              	.LBE228:
 892              	.LBE227:
 893              	.LBE226:
  31:Src/Settings/song.cpp **** 	fileWriter.write(mute_flags);
 894              		.loc 1 31 41 view .LVU294
 895 0008 82B0     		sub	sp, sp, #8
 896              		.cfi_def_cfa_offset 40
  31:Src/Settings/song.cpp **** 	fileWriter.write(mute_flags);
 897              		.loc 1 31 41 view .LVU295
 898 000a 0C46     		mov	r4, r1
 899 000c 0546     		mov	r5, r0
 900              		.loc 1 32 19 view .LVU296
 901 000e 00F17807 		add	r7, r0, #120
 902              	.LVL58:
 903              	.LBB247:
 904              	.LBI226:
  50:Src/Disk/fileWriter.h **** 		write_buffer(&data, sizeof(T));
 905              		.loc 2 50 7 is_stmt 1 view .LVU297
 906              	.LBB242:
 907              	.LBI227:
  65:Src/Disk/fileWriter.h **** 		uint8_t *data_ = reinterpret_cast<uint8_t *>(data);
 908              		.loc 2 65 7 view .LVU298
 909              	.LBB239:
 910              		.loc 2 68 3 view .LVU299
 911              		.loc 2 68 20 view .LVU300
 912 0012 7AB3     		cbz	r2, .L158
  69:Src/Disk/fileWriter.h **** 			if (buff_pos < kBufferSize) {
 913              		.loc 2 69 8 is_stmt 0 view .LVU301
 914 0014 D4F80022 		ldr	r2, [r4, #512]
 915 0018 B846     		mov	r8, r7
 916              		.loc 2 69 4 view .LVU302
 917 001a B2F5007F 		cmp	r2, #512
  68:Src/Disk/fileWriter.h **** 			if (buff_pos < kBufferSize) {
 918              		.loc 2 68 20 view .LVU303
 919 001e 4FF00406 		mov	r6, #4
 920              		.loc 2 69 4 is_stmt 1 view .LVU304
  70:Src/Disk/fileWriter.h **** 				buffer[buff_pos++] = *data_++;
 921              		.loc 2 70 5 view .LVU305
 922              		.loc 2 70 32 is_stmt 0 view .LVU306
 923 0022 4046     		mov	r0, r8
 924              	.LVL59:
 925              		.loc 2 70 20 view .LVU307
 926 0024 02F10101 		add	r1, r2, #1
ARM GAS  /var/folders/84/_x1cyy_j36g486tldtwl37280000gn/T//cctc5fkA.s 			page 23


 927              	.LVL60:
  69:Src/Disk/fileWriter.h **** 			if (buff_pos < kBufferSize) {
 928              		.loc 2 69 4 view .LVU308
 929 0028 12D2     		bcs	.L159
 930              	.LVL61:
 931              	.L317:
 932              		.loc 2 70 20 view .LVU309
 933 002a C4F80012 		str	r1, [r4, #512]
 934              		.loc 2 70 26 view .LVU310
 935 002e 10F8013B 		ldrb	r3, [r0], #1	@ zero_extendqisi2
 936              	.LVL62:
 937              		.loc 2 70 24 view .LVU311
 938 0032 A354     		strb	r3, [r4, r2]
  71:Src/Disk/fileWriter.h **** 				--size;
 939              		.loc 2 71 5 is_stmt 1 view .LVU312
 940              	.LVL63:
 941              		.loc 2 71 5 is_stmt 0 view .LVU313
 942 0034 94F80C22 		ldrb	r2, [r4, #524]	@ zero_extendqisi2
 943 0038 013E     		subs	r6, r6, #1
 944              	.LVL64:
  68:Src/Disk/fileWriter.h **** 			if (buff_pos < kBufferSize) {
 945              		.loc 2 68 3 is_stmt 1 view .LVU314
  68:Src/Disk/fileWriter.h **** 			if (buff_pos < kBufferSize) {
 946              		.loc 2 68 20 view .LVU315
 947 003a D2B1     		cbz	r2, .L161
  68:Src/Disk/fileWriter.h **** 			if (buff_pos < kBufferSize) {
 948              		.loc 2 68 20 is_stmt 0 view .LVU316
 949 003c D6B1     		cbz	r6, .L158
 950              	.LVL65:
  72:Src/Disk/fileWriter.h **** 			} else {
  73:Src/Disk/fileWriter.h **** 				write_ok_ = send_buffer();
 951              		.loc 2 73 15 view .LVU317
 952 003e 8046     		mov	r8, r0
 953              	.LVL66:
 954              	.L330:
  69:Src/Disk/fileWriter.h **** 				buffer[buff_pos++] = *data_++;
 955              		.loc 2 69 4 is_stmt 1 view .LVU318
  70:Src/Disk/fileWriter.h **** 				--size;
 956              		.loc 2 70 5 view .LVU319
  69:Src/Disk/fileWriter.h **** 				buffer[buff_pos++] = *data_++;
 957              		.loc 2 69 8 is_stmt 0 view .LVU320
 958 0040 D4F80022 		ldr	r2, [r4, #512]
  69:Src/Disk/fileWriter.h **** 				buffer[buff_pos++] = *data_++;
 959              		.loc 2 69 4 view .LVU321
 960 0044 B2F5007F 		cmp	r2, #512
  70:Src/Disk/fileWriter.h **** 				--size;
 961              		.loc 2 70 32 view .LVU322
 962 0048 4046     		mov	r0, r8
 963              	.LVL67:
  70:Src/Disk/fileWriter.h **** 				--size;
 964              		.loc 2 70 20 view .LVU323
 965 004a 02F10101 		add	r1, r2, #1
  69:Src/Disk/fileWriter.h **** 				buffer[buff_pos++] = *data_++;
 966              		.loc 2 69 4 view .LVU324
 967 004e ECD3     		bcc	.L317
 968              	.LVL68:
 969              	.L159:
ARM GAS  /var/folders/84/_x1cyy_j36g486tldtwl37280000gn/T//cctc5fkA.s 			page 24


 970              		.loc 2 73 5 is_stmt 1 view .LVU325
 971              	.LBB229:
 972              	.LBI229:
  74:Src/Disk/fileWriter.h **** 			}
  75:Src/Disk/fileWriter.h **** 		}
  76:Src/Disk/fileWriter.h **** 	}
  77:Src/Disk/fileWriter.h **** 
  78:Src/Disk/fileWriter.h **** 	bool send_buffer() {
 973              		.loc 2 78 7 view .LVU326
 974              	.LBB230:
  79:Src/Disk/fileWriter.h **** 		uint32_t size = buff_pos;
 975              		.loc 2 79 3 view .LVU327
  80:Src/Disk/fileWriter.h **** 		buff_pos = 0;
 976              		.loc 2 80 3 view .LVU328
  81:Src/Disk/fileWriter.h **** 		return file_->write(buffer, size);
 977              		.loc 2 81 22 is_stmt 0 view .LVU329
 978 0050 D4F80432 		ldr	r3, [r4, #516]
  80:Src/Disk/fileWriter.h **** 		buff_pos = 0;
 979              		.loc 2 80 12 view .LVU330
 980 0054 4FF00009 		mov	r9, #0
 981              	.LBB231:
 982              	.LBB232:
 983              		.file 3 "Src/Disk/file.h"
   1:Src/Disk/file.h **** #ifndef File_h
   2:Src/Disk/file.h **** #define File_h
   3:Src/Disk/file.h **** 
   4:Src/Disk/file.h **** #include "ff.h"
   5:Src/Disk/file.h **** #include "stringBuilder.h"
   6:Src/Disk/file.h **** 
   7:Src/Disk/file.h **** class File {
   8:Src/Disk/file.h **** 
   9:Src/Disk/file.h **** public:
  10:Src/Disk/file.h **** 
  11:Src/Disk/file.h **** 	enum Mode {
  12:Src/Disk/file.h **** 		OPEN_EXISTING	= 0x00,
  13:Src/Disk/file.h **** 		READ			= 0x01,
  14:Src/Disk/file.h **** 		WRITE			= 0x02,
  15:Src/Disk/file.h **** 		CREATE_NEW		= 0x04,	// Creates a new file, the function fails if the file is existing.
  16:Src/Disk/file.h **** 		CREATE_ALWAYS	= 0x08,	// Creates a new file, if the file is existing, it will be truncated and ov
  17:Src/Disk/file.h **** 		OPEN_ALWAYS		= 0x10,	// Opens the file if it is existing. If not, a new file will be created.
  18:Src/Disk/file.h **** 		OPEN_APPEND		= 0x30	// Same as OPEN_ALWAYS except the read/write pointer is set end of the file.
  19:Src/Disk/file.h **** 	};
  20:Src/Disk/file.h **** 
  21:Src/Disk/file.h **** 	void init(FIL* fil_, StringBuilder* dir_path_, FRESULT* res_) {
  22:Src/Disk/file.h **** 		fil = fil_;
  23:Src/Disk/file.h **** 		dir_path = dir_path_;
  24:Src/Disk/file.h **** 	}
  25:Src/Disk/file.h **** 
  26:Src/Disk/file.h **** 	bool open(const char* path_, uint8_t mode = READ) {
  27:Src/Disk/file.h **** 		return f_open(fil, path_, mode) == FR_OK;
  28:Src/Disk/file.h **** 	}
  29:Src/Disk/file.h **** 
  30:Src/Disk/file.h **** 	bool open(const char* dir, const char* name, uint8_t mode = READ) {
  31:Src/Disk/file.h **** 		return f_open(fil, path.write(dir, "/", name), mode) == FR_OK;
  32:Src/Disk/file.h **** 	}
  33:Src/Disk/file.h **** 
  34:Src/Disk/file.h **** 	bool open_in_curr_dir(const char* name, uint8_t mode = READ) {
ARM GAS  /var/folders/84/_x1cyy_j36g486tldtwl37280000gn/T//cctc5fkA.s 			page 25


  35:Src/Disk/file.h **** 		path.write(dir_path->read(), "/", name);
  36:Src/Disk/file.h **** 		return f_open(fil, path.read(), mode) == FR_OK;
  37:Src/Disk/file.h **** 	}
  38:Src/Disk/file.h **** 
  39:Src/Disk/file.h **** 	bool close() {
  40:Src/Disk/file.h **** 		return f_close(fil) == FR_OK;
  41:Src/Disk/file.h **** 	}
  42:Src/Disk/file.h **** 
  43:Src/Disk/file.h **** 	bool sync() {
  44:Src/Disk/file.h **** 		return f_sync(fil) == FR_OK;
  45:Src/Disk/file.h **** 	}
  46:Src/Disk/file.h **** 
  47:Src/Disk/file.h **** 	bool write(const void* data, uint32_t size, uint32_t* num_written = nullptr) {
  48:Src/Disk/file.h **** 		UINT bw;
  49:Src/Disk/file.h **** 		FRESULT res = f_write(fil, data, size, &bw);
 984              		.loc 3 49 24 view .LVU331
 985 0058 1868     		ldr	r0, [r3]
 986              	.LVL69:
 987              		.loc 3 49 24 view .LVU332
 988              	.LBE232:
 989              	.LBE231:
  80:Src/Disk/fileWriter.h **** 		return file_->write(buffer, size);
 990              		.loc 2 80 12 view .LVU333
 991 005a C4F80092 		str	r9, [r4, #512]
 992              		.loc 2 81 3 is_stmt 1 view .LVU334
 993              	.LVL70:
 994              	.LBB235:
 995              	.LBI231:
  47:Src/Disk/file.h **** 		UINT bw;
 996              		.loc 3 47 7 view .LVU335
 997              	.LBB233:
  48:Src/Disk/file.h **** 		FRESULT res = f_write(fil, data, size, &bw);
 998              		.loc 3 48 3 view .LVU336
 999              		.loc 3 49 3 view .LVU337
 1000              		.loc 3 49 24 is_stmt 0 view .LVU338
 1001 005e 01AB     		add	r3, sp, #4
 1002              	.LVL71:
 1003              		.loc 3 49 24 view .LVU339
 1004 0060 2146     		mov	r1, r4
 1005 0062 FFF7FEFF 		bl	f_write
 1006              	.LVL72:
  50:Src/Disk/file.h **** 		if (num_written) {
  51:Src/Disk/file.h **** 			*num_written = bw;
  52:Src/Disk/file.h **** 		}
  53:Src/Disk/file.h **** 		return (bw > 0) && (res == FR_OK);
 1007              		.loc 3 53 19 view .LVU340
 1008 0066 019A     		ldr	r2, [sp, #4]
 1009              	.LVL73:
  50:Src/Disk/file.h **** 		if (num_written) {
 1010              		.loc 3 50 3 is_stmt 1 view .LVU341
 1011              		.loc 3 53 3 view .LVU342
 1012              		.loc 3 53 19 is_stmt 0 view .LVU343
 1013 0068 002A     		cmp	r2, #0
 1014 006a 40F0AD82 		bne	.L162
 1015              	.LVL74:
 1016              		.loc 3 53 19 view .LVU344
 1017              	.LBE233:
ARM GAS  /var/folders/84/_x1cyy_j36g486tldtwl37280000gn/T//cctc5fkA.s 			page 26


 1018              	.LBE235:
 1019              	.LBE230:
 1020              	.LBE229:
  73:Src/Disk/fileWriter.h **** 			}
 1021              		.loc 2 73 15 view .LVU345
 1022 006e 84F80C22 		strb	r2, [r4, #524]
 1023              	.LVL75:
  68:Src/Disk/fileWriter.h **** 			if (buff_pos < kBufferSize) {
 1024              		.loc 2 68 3 is_stmt 1 view .LVU346
  68:Src/Disk/fileWriter.h **** 			if (buff_pos < kBufferSize) {
 1025              		.loc 2 68 20 view .LVU347
 1026              	.L161:
  68:Src/Disk/fileWriter.h **** 			if (buff_pos < kBufferSize) {
 1027              		.loc 2 68 20 is_stmt 0 view .LVU348
 1028 0072 0022     		movs	r2, #0
 1029              	.LVL76:
 1030              	.L158:
  68:Src/Disk/fileWriter.h **** 			if (buff_pos < kBufferSize) {
 1031              		.loc 2 68 20 view .LVU349
 1032              	.LBE239:
 1033              	.LBE242:
 1034              	.LBB243:
 1035              	.LBB244:
 1036              		.file 4 "/Users/joostbooy/Desktop/Code/stm32/lib/utils/hash.h"
   1:/Users/joostbooy/Desktop/Code/stm32/lib/utils/hash.h **** #ifndef Hash_h
   2:/Users/joostbooy/Desktop/Code/stm32/lib/utils/hash.h **** #define Hash_h
   3:/Users/joostbooy/Desktop/Code/stm32/lib/utils/hash.h **** 
   4:/Users/joostbooy/Desktop/Code/stm32/lib/utils/hash.h **** // Westlicht fnvHash
   5:/Users/joostbooy/Desktop/Code/stm32/lib/utils/hash.h **** 
   6:/Users/joostbooy/Desktop/Code/stm32/lib/utils/hash.h **** class Hash {
   7:/Users/joostbooy/Desktop/Code/stm32/lib/utils/hash.h **** 
   8:/Users/joostbooy/Desktop/Code/stm32/lib/utils/hash.h **** public:
   9:/Users/joostbooy/Desktop/Code/stm32/lib/utils/hash.h **** 
  10:/Users/joostbooy/Desktop/Code/stm32/lib/utils/hash.h **** 	void init() {
  11:/Users/joostbooy/Desktop/Code/stm32/lib/utils/hash.h **** 		hash_ = 0x811c9dc5;
  12:/Users/joostbooy/Desktop/Code/stm32/lib/utils/hash.h **** 	}
  13:/Users/joostbooy/Desktop/Code/stm32/lib/utils/hash.h **** 
  14:/Users/joostbooy/Desktop/Code/stm32/lib/utils/hash.h **** 	uint32_t read() {
  15:/Users/joostbooy/Desktop/Code/stm32/lib/utils/hash.h **** 		return hash_;
  16:/Users/joostbooy/Desktop/Code/stm32/lib/utils/hash.h **** 	}
  17:/Users/joostbooy/Desktop/Code/stm32/lib/utils/hash.h **** 
  18:/Users/joostbooy/Desktop/Code/stm32/lib/utils/hash.h **** 	void write(void *data, size_t size) {
  19:/Users/joostbooy/Desktop/Code/stm32/lib/utils/hash.h **** 		uint8_t *data_ = static_cast<uint8_t *>(data);
  20:/Users/joostbooy/Desktop/Code/stm32/lib/utils/hash.h **** 		while (size--) {
  21:/Users/joostbooy/Desktop/Code/stm32/lib/utils/hash.h **** 			hash_ ^= *data_++;
 1037              		.loc 4 21 4 is_stmt 1 view .LVU350
  22:/Users/joostbooy/Desktop/Code/stm32/lib/utils/hash.h **** 			hash_ *= prime_;
 1038              		.loc 4 22 4 view .LVU351
  21:/Users/joostbooy/Desktop/Code/stm32/lib/utils/hash.h **** 			hash_ *= prime_;
 1039              		.loc 4 21 10 is_stmt 0 view .LVU352
 1040 0074 D4F80802 		ldr	r0, [r4, #520]
 1041 0078 95F87810 		ldrb	r1, [r5, #120]	@ zero_extendqisi2
 1042              		.loc 4 22 10 view .LVU353
 1043 007c 9F4B     		ldr	r3, .L332
  21:/Users/joostbooy/Desktop/Code/stm32/lib/utils/hash.h **** 			hash_ *= prime_;
 1044              		.loc 4 21 10 view .LVU354
 1045 007e 4140     		eors	r1, r1, r0
ARM GAS  /var/folders/84/_x1cyy_j36g486tldtwl37280000gn/T//cctc5fkA.s 			page 27


 1046              		.loc 4 22 10 view .LVU355
 1047 0080 03FB01F6 		mul	r6, r3, r1
 1048 0084 C4F80862 		str	r6, [r4, #520]
  20:/Users/joostbooy/Desktop/Code/stm32/lib/utils/hash.h **** 			hash_ ^= *data_++;
 1049              		.loc 4 20 3 is_stmt 1 view .LVU356
  20:/Users/joostbooy/Desktop/Code/stm32/lib/utils/hash.h **** 			hash_ ^= *data_++;
 1050              		.loc 4 20 14 view .LVU357
 1051              	.LVL77:
  21:/Users/joostbooy/Desktop/Code/stm32/lib/utils/hash.h **** 			hash_ *= prime_;
 1052              		.loc 4 21 4 view .LVU358
 1053              		.loc 4 22 4 view .LVU359
  21:/Users/joostbooy/Desktop/Code/stm32/lib/utils/hash.h **** 			hash_ *= prime_;
 1054              		.loc 4 21 10 is_stmt 0 view .LVU360
 1055 0088 95F87910 		ldrb	r1, [r5, #121]	@ zero_extendqisi2
 1056 008c 7140     		eors	r1, r1, r6
 1057              		.loc 4 22 10 view .LVU361
 1058 008e 03FB01F0 		mul	r0, r3, r1
 1059 0092 C4F80802 		str	r0, [r4, #520]
  20:/Users/joostbooy/Desktop/Code/stm32/lib/utils/hash.h **** 			hash_ ^= *data_++;
 1060              		.loc 4 20 3 is_stmt 1 view .LVU362
  20:/Users/joostbooy/Desktop/Code/stm32/lib/utils/hash.h **** 			hash_ ^= *data_++;
 1061              		.loc 4 20 14 view .LVU363
 1062              	.LVL78:
  21:/Users/joostbooy/Desktop/Code/stm32/lib/utils/hash.h **** 			hash_ *= prime_;
 1063              		.loc 4 21 4 view .LVU364
 1064              		.loc 4 22 4 view .LVU365
  21:/Users/joostbooy/Desktop/Code/stm32/lib/utils/hash.h **** 			hash_ *= prime_;
 1065              		.loc 4 21 10 is_stmt 0 view .LVU366
 1066 0096 95F87A60 		ldrb	r6, [r5, #122]	@ zero_extendqisi2
 1067 009a 4640     		eors	r6, r6, r0
 1068              		.loc 4 22 10 view .LVU367
 1069 009c 03FB06F6 		mul	r6, r3, r6
 1070 00a0 C4F80862 		str	r6, [r4, #520]
  20:/Users/joostbooy/Desktop/Code/stm32/lib/utils/hash.h **** 			hash_ ^= *data_++;
 1071              		.loc 4 20 3 is_stmt 1 view .LVU368
  20:/Users/joostbooy/Desktop/Code/stm32/lib/utils/hash.h **** 			hash_ ^= *data_++;
 1072              		.loc 4 20 14 view .LVU369
 1073              	.LVL79:
  21:/Users/joostbooy/Desktop/Code/stm32/lib/utils/hash.h **** 			hash_ *= prime_;
 1074              		.loc 4 21 4 view .LVU370
 1075              		.loc 4 22 4 view .LVU371
  21:/Users/joostbooy/Desktop/Code/stm32/lib/utils/hash.h **** 			hash_ *= prime_;
 1076              		.loc 4 21 10 is_stmt 0 view .LVU372
 1077 00a4 95F87B10 		ldrb	r1, [r5, #123]	@ zero_extendqisi2
 1078 00a8 4E40     		eors	r6, r6, r1
 1079              		.loc 4 22 10 view .LVU373
 1080 00aa 03FB06F3 		mul	r3, r3, r6
 1081 00ae C4F80832 		str	r3, [r4, #520]
  20:/Users/joostbooy/Desktop/Code/stm32/lib/utils/hash.h **** 			hash_ ^= *data_++;
 1082              		.loc 4 20 3 is_stmt 1 view .LVU374
  20:/Users/joostbooy/Desktop/Code/stm32/lib/utils/hash.h **** 			hash_ ^= *data_++;
 1083              		.loc 4 20 14 view .LVU375
 1084              	.LVL80:
  20:/Users/joostbooy/Desktop/Code/stm32/lib/utils/hash.h **** 			hash_ ^= *data_++;
 1085              		.loc 4 20 14 is_stmt 0 view .LVU376
 1086              	.LBE244:
 1087              	.LBE243:
ARM GAS  /var/folders/84/_x1cyy_j36g486tldtwl37280000gn/T//cctc5fkA.s 			page 28


 1088              	.LBE247:
  33:Src/Settings/song.cpp **** 	fileWriter.write(solo_flags);
 1089              		.loc 1 33 2 is_stmt 1 view .LVU377
 1090              		.loc 1 33 19 is_stmt 0 view .LVU378
 1091 00b2 05F17C08 		add	r8, r5, #124
 1092              	.LVL81:
 1093              	.LBB248:
 1094              	.LBI248:
  50:Src/Disk/fileWriter.h **** 		write_buffer(&data, sizeof(T));
 1095              		.loc 2 50 7 is_stmt 1 view .LVU379
 1096              	.LBB249:
 1097              	.LBB250:
  68:Src/Disk/fileWriter.h **** 			if (buff_pos < kBufferSize) {
 1098              		.loc 2 68 3 view .LVU380
  68:Src/Disk/fileWriter.h **** 			if (buff_pos < kBufferSize) {
 1099              		.loc 2 68 20 view .LVU381
 1100 00b6 0426     		movs	r6, #4
 1101 00b8 A2B3     		cbz	r2, .L166
 1102              	.LVL82:
  69:Src/Disk/fileWriter.h **** 				buffer[buff_pos++] = *data_++;
 1103              		.loc 2 69 4 view .LVU382
  70:Src/Disk/fileWriter.h **** 				--size;
 1104              		.loc 2 70 5 view .LVU383
  69:Src/Disk/fileWriter.h **** 				buffer[buff_pos++] = *data_++;
 1105              		.loc 2 69 8 is_stmt 0 view .LVU384
 1106 00ba D4F80022 		ldr	r2, [r4, #512]
  69:Src/Disk/fileWriter.h **** 				buffer[buff_pos++] = *data_++;
 1107              		.loc 2 69 4 view .LVU385
 1108 00be B2F5007F 		cmp	r2, #512
  70:Src/Disk/fileWriter.h **** 				--size;
 1109              		.loc 2 70 32 view .LVU386
 1110 00c2 C446     		mov	ip, r8
 1111              	.LVL83:
  70:Src/Disk/fileWriter.h **** 				--size;
 1112              		.loc 2 70 20 view .LVU387
 1113 00c4 02F10100 		add	r0, r2, #1
  69:Src/Disk/fileWriter.h **** 				buffer[buff_pos++] = *data_++;
 1114              		.loc 2 69 4 view .LVU388
 1115 00c8 14D2     		bcs	.L168
 1116              	.LVL84:
 1117              	.L318:
  70:Src/Disk/fileWriter.h **** 				--size;
 1118              		.loc 2 70 20 view .LVU389
 1119 00ca C4F80002 		str	r0, [r4, #512]
  70:Src/Disk/fileWriter.h **** 				--size;
 1120              		.loc 2 70 26 view .LVU390
 1121 00ce 1CF8010B 		ldrb	r0, [ip], #1	@ zero_extendqisi2
  70:Src/Disk/fileWriter.h **** 				--size;
 1122              		.loc 2 70 24 view .LVU391
 1123 00d2 A054     		strb	r0, [r4, r2]
  71:Src/Disk/fileWriter.h **** 			} else {
 1124              		.loc 2 71 5 is_stmt 1 view .LVU392
 1125              	.LVL85:
  71:Src/Disk/fileWriter.h **** 			} else {
 1126              		.loc 2 71 5 is_stmt 0 view .LVU393
 1127 00d4 94F80C22 		ldrb	r2, [r4, #524]	@ zero_extendqisi2
 1128 00d8 013E     		subs	r6, r6, #1
ARM GAS  /var/folders/84/_x1cyy_j36g486tldtwl37280000gn/T//cctc5fkA.s 			page 29


 1129              	.LVL86:
  68:Src/Disk/fileWriter.h **** 			if (buff_pos < kBufferSize) {
 1130              		.loc 2 68 3 is_stmt 1 view .LVU394
  68:Src/Disk/fileWriter.h **** 			if (buff_pos < kBufferSize) {
 1131              		.loc 2 68 20 view .LVU395
 1132 00da 02B3     		cbz	r2, .L170
  68:Src/Disk/fileWriter.h **** 			if (buff_pos < kBufferSize) {
 1133              		.loc 2 68 20 is_stmt 0 view .LVU396
 1134 00dc 002E     		cmp	r6, #0
 1135 00de 00F0F283 		beq	.L167
 1136              	.LVL87:
  73:Src/Disk/fileWriter.h **** 			}
 1137              		.loc 2 73 15 view .LVU397
 1138 00e2 E046     		mov	r8, ip
 1139              	.LVL88:
 1140              	.L328:
  69:Src/Disk/fileWriter.h **** 				buffer[buff_pos++] = *data_++;
 1141              		.loc 2 69 4 is_stmt 1 view .LVU398
  70:Src/Disk/fileWriter.h **** 				--size;
 1142              		.loc 2 70 5 view .LVU399
  69:Src/Disk/fileWriter.h **** 				buffer[buff_pos++] = *data_++;
 1143              		.loc 2 69 8 is_stmt 0 view .LVU400
 1144 00e4 D4F80022 		ldr	r2, [r4, #512]
  69:Src/Disk/fileWriter.h **** 				buffer[buff_pos++] = *data_++;
 1145              		.loc 2 69 4 view .LVU401
 1146 00e8 B2F5007F 		cmp	r2, #512
  70:Src/Disk/fileWriter.h **** 				--size;
 1147              		.loc 2 70 32 view .LVU402
 1148 00ec C446     		mov	ip, r8
 1149              	.LVL89:
  70:Src/Disk/fileWriter.h **** 				--size;
 1150              		.loc 2 70 20 view .LVU403
 1151 00ee 02F10100 		add	r0, r2, #1
  69:Src/Disk/fileWriter.h **** 				buffer[buff_pos++] = *data_++;
 1152              		.loc 2 69 4 view .LVU404
 1153 00f2 EAD3     		bcc	.L318
 1154              	.LVL90:
 1155              	.L168:
  73:Src/Disk/fileWriter.h **** 			}
 1156              		.loc 2 73 5 is_stmt 1 view .LVU405
 1157              	.LBB251:
 1158              	.LBI251:
  78:Src/Disk/fileWriter.h **** 		uint32_t size = buff_pos;
 1159              		.loc 2 78 7 view .LVU406
 1160              	.LBB252:
  79:Src/Disk/fileWriter.h **** 		buff_pos = 0;
 1161              		.loc 2 79 3 view .LVU407
  80:Src/Disk/fileWriter.h **** 		return file_->write(buffer, size);
 1162              		.loc 2 80 3 view .LVU408
 1163              		.loc 2 81 22 is_stmt 0 view .LVU409
 1164 00f4 D4F80432 		ldr	r3, [r4, #516]
  80:Src/Disk/fileWriter.h **** 		return file_->write(buffer, size);
 1165              		.loc 2 80 12 view .LVU410
 1166 00f8 4FF0000A 		mov	r10, #0
 1167              	.LBB253:
 1168              	.LBB254:
  49:Src/Disk/file.h **** 		if (num_written) {
ARM GAS  /var/folders/84/_x1cyy_j36g486tldtwl37280000gn/T//cctc5fkA.s 			page 30


 1169              		.loc 3 49 24 view .LVU411
 1170 00fc 1868     		ldr	r0, [r3]
 1171              	.LBE254:
 1172              	.LBE253:
  80:Src/Disk/fileWriter.h **** 		return file_->write(buffer, size);
 1173              		.loc 2 80 12 view .LVU412
 1174 00fe C4F800A2 		str	r10, [r4, #512]
 1175              		.loc 2 81 3 is_stmt 1 view .LVU413
 1176              	.LVL91:
 1177              	.LBB257:
 1178              	.LBI253:
  47:Src/Disk/file.h **** 		UINT bw;
 1179              		.loc 3 47 7 view .LVU414
 1180              	.LBB255:
  48:Src/Disk/file.h **** 		FRESULT res = f_write(fil, data, size, &bw);
 1181              		.loc 3 48 3 view .LVU415
  49:Src/Disk/file.h **** 		if (num_written) {
 1182              		.loc 3 49 3 view .LVU416
  49:Src/Disk/file.h **** 		if (num_written) {
 1183              		.loc 3 49 24 is_stmt 0 view .LVU417
 1184 0102 01AB     		add	r3, sp, #4
 1185              	.LVL92:
  49:Src/Disk/file.h **** 		if (num_written) {
 1186              		.loc 3 49 24 view .LVU418
 1187 0104 2146     		mov	r1, r4
 1188 0106 FFF7FEFF 		bl	f_write
 1189              	.LVL93:
 1190              		.loc 3 53 19 view .LVU419
 1191 010a 019A     		ldr	r2, [sp, #4]
 1192              	.LVL94:
  50:Src/Disk/file.h **** 			*num_written = bw;
 1193              		.loc 3 50 3 is_stmt 1 view .LVU420
 1194              		.loc 3 53 3 view .LVU421
 1195              		.loc 3 53 19 is_stmt 0 view .LVU422
 1196 010c 002A     		cmp	r2, #0
 1197 010e 00F05882 		beq	.L171
 1198              	.LVL95:
 1199              		.loc 3 53 19 view .LVU423
 1200              	.LBE255:
 1201              	.LBE257:
 1202              	.LBE252:
 1203              	.LBE251:
  73:Src/Disk/fileWriter.h **** 			}
 1204              		.loc 2 73 15 view .LVU424
 1205 0112 0121     		movs	r1, #1
 1206              	.LBB260:
 1207              	.LBB259:
 1208              	.LBB258:
 1209              	.LBB256:
 1210              		.loc 3 53 19 view .LVU425
 1211 0114 0028     		cmp	r0, #0
 1212 0116 00F0B983 		beq	.L172
 1213              	.LBE256:
 1214              	.LBE258:
 1215              	.LBE259:
 1216              	.LBE260:
  73:Src/Disk/fileWriter.h **** 			}
ARM GAS  /var/folders/84/_x1cyy_j36g486tldtwl37280000gn/T//cctc5fkA.s 			page 31


 1217              		.loc 2 73 15 view .LVU426
 1218 011a 84F80CA2 		strb	r10, [r4, #524]
 1219              	.LVL96:
  68:Src/Disk/fileWriter.h **** 			if (buff_pos < kBufferSize) {
 1220              		.loc 2 68 3 is_stmt 1 view .LVU427
  68:Src/Disk/fileWriter.h **** 			if (buff_pos < kBufferSize) {
 1221              		.loc 2 68 20 view .LVU428
 1222              	.L170:
  68:Src/Disk/fileWriter.h **** 			if (buff_pos < kBufferSize) {
 1223              		.loc 2 68 20 is_stmt 0 view .LVU429
 1224 011e D4F80832 		ldr	r3, [r4, #520]
 1225 0122 0022     		movs	r2, #0
 1226              	.L166:
 1227              	.LVL97:
  68:Src/Disk/fileWriter.h **** 			if (buff_pos < kBufferSize) {
 1228              		.loc 2 68 20 view .LVU430
 1229              	.LBE250:
 1230              	.LBE249:
 1231              	.LBB263:
 1232              	.LBB264:
  21:/Users/joostbooy/Desktop/Code/stm32/lib/utils/hash.h **** 			hash_ *= prime_;
 1233              		.loc 4 21 4 is_stmt 1 view .LVU431
 1234              		.loc 4 22 4 view .LVU432
  21:/Users/joostbooy/Desktop/Code/stm32/lib/utils/hash.h **** 			hash_ *= prime_;
 1235              		.loc 4 21 10 is_stmt 0 view .LVU433
 1236 0124 95F87C00 		ldrb	r0, [r5, #124]	@ zero_extendqisi2
 1237              		.loc 4 22 10 view .LVU434
 1238 0128 7449     		ldr	r1, .L332
  21:/Users/joostbooy/Desktop/Code/stm32/lib/utils/hash.h **** 			hash_ *= prime_;
 1239              		.loc 4 21 10 view .LVU435
 1240 012a 4340     		eors	r3, r3, r0
 1241              		.loc 4 22 10 view .LVU436
 1242 012c 01FB03F6 		mul	r6, r1, r3
 1243 0130 C4F80862 		str	r6, [r4, #520]
  20:/Users/joostbooy/Desktop/Code/stm32/lib/utils/hash.h **** 			hash_ ^= *data_++;
 1244              		.loc 4 20 3 is_stmt 1 view .LVU437
  20:/Users/joostbooy/Desktop/Code/stm32/lib/utils/hash.h **** 			hash_ ^= *data_++;
 1245              		.loc 4 20 14 view .LVU438
 1246              	.LVL98:
  21:/Users/joostbooy/Desktop/Code/stm32/lib/utils/hash.h **** 			hash_ *= prime_;
 1247              		.loc 4 21 4 view .LVU439
 1248              		.loc 4 22 4 view .LVU440
  21:/Users/joostbooy/Desktop/Code/stm32/lib/utils/hash.h **** 			hash_ *= prime_;
 1249              		.loc 4 21 10 is_stmt 0 view .LVU441
 1250 0134 95F87D30 		ldrb	r3, [r5, #125]	@ zero_extendqisi2
 1251 0138 7340     		eors	r3, r3, r6
 1252              		.loc 4 22 10 view .LVU442
 1253 013a 01FB03F0 		mul	r0, r1, r3
 1254 013e C4F80802 		str	r0, [r4, #520]
  20:/Users/joostbooy/Desktop/Code/stm32/lib/utils/hash.h **** 			hash_ ^= *data_++;
 1255              		.loc 4 20 3 is_stmt 1 view .LVU443
  20:/Users/joostbooy/Desktop/Code/stm32/lib/utils/hash.h **** 			hash_ ^= *data_++;
 1256              		.loc 4 20 14 view .LVU444
 1257              	.LVL99:
  21:/Users/joostbooy/Desktop/Code/stm32/lib/utils/hash.h **** 			hash_ *= prime_;
 1258              		.loc 4 21 4 view .LVU445
 1259              		.loc 4 22 4 view .LVU446
ARM GAS  /var/folders/84/_x1cyy_j36g486tldtwl37280000gn/T//cctc5fkA.s 			page 32


  21:/Users/joostbooy/Desktop/Code/stm32/lib/utils/hash.h **** 			hash_ *= prime_;
 1260              		.loc 4 21 10 is_stmt 0 view .LVU447
 1261 0142 95F87E60 		ldrb	r6, [r5, #126]	@ zero_extendqisi2
 1262 0146 4640     		eors	r6, r6, r0
 1263              		.loc 4 22 10 view .LVU448
 1264 0148 01FB06F6 		mul	r6, r1, r6
 1265 014c C4F80862 		str	r6, [r4, #520]
  20:/Users/joostbooy/Desktop/Code/stm32/lib/utils/hash.h **** 			hash_ ^= *data_++;
 1266              		.loc 4 20 3 is_stmt 1 view .LVU449
  20:/Users/joostbooy/Desktop/Code/stm32/lib/utils/hash.h **** 			hash_ ^= *data_++;
 1267              		.loc 4 20 14 view .LVU450
 1268              	.LVL100:
  21:/Users/joostbooy/Desktop/Code/stm32/lib/utils/hash.h **** 			hash_ *= prime_;
 1269              		.loc 4 21 4 view .LVU451
 1270              		.loc 4 22 4 view .LVU452
  21:/Users/joostbooy/Desktop/Code/stm32/lib/utils/hash.h **** 			hash_ *= prime_;
 1271              		.loc 4 21 10 is_stmt 0 view .LVU453
 1272 0150 95F87F30 		ldrb	r3, [r5, #127]	@ zero_extendqisi2
 1273 0154 5E40     		eors	r6, r6, r3
 1274              		.loc 4 22 10 view .LVU454
 1275 0156 01FB06F1 		mul	r1, r1, r6
 1276 015a C4F80812 		str	r1, [r4, #520]
  20:/Users/joostbooy/Desktop/Code/stm32/lib/utils/hash.h **** 			hash_ ^= *data_++;
 1277              		.loc 4 20 3 is_stmt 1 view .LVU455
  20:/Users/joostbooy/Desktop/Code/stm32/lib/utils/hash.h **** 			hash_ ^= *data_++;
 1278              		.loc 4 20 14 view .LVU456
 1279              	.LVL101:
  20:/Users/joostbooy/Desktop/Code/stm32/lib/utils/hash.h **** 			hash_ ^= *data_++;
 1280              		.loc 4 20 14 is_stmt 0 view .LVU457
 1281              	.LBE264:
 1282              	.LBE263:
 1283              	.LBE248:
  34:Src/Settings/song.cpp **** 
  35:Src/Settings/song.cpp **** 	scale.save(fileWriter);
 1284              		.loc 1 35 2 is_stmt 1 view .LVU458
 1285              	.LBB267:
 1286              	.LBI267:
 1287              		.file 5 "Src/Settings/scale.h"
   1:Src/Settings/scale.h **** #ifndef Scale_h
   2:Src/Settings/scale.h **** #define Scale_h
   3:Src/Settings/scale.h **** 
   4:Src/Settings/scale.h **** #include "stack.h"
   5:Src/Settings/scale.h **** #include "uiText.h"
   6:Src/Settings/scale.h **** #include "lookUpTables.h"
   7:Src/Settings/scale.h **** #include "fileWriter.h"
   8:Src/Settings/scale.h **** #include "fileReader.h"
   9:Src/Settings/scale.h **** 
  10:Src/Settings/scale.h **** class Scale {
  11:Src/Settings/scale.h **** 
  12:Src/Settings/scale.h **** public:
  13:Src/Settings/scale.h **** 
  14:Src/Settings/scale.h **** 	enum Type {
  15:Src/Settings/scale.h **** 		MAJOR,
  16:Src/Settings/scale.h **** 		MINOR,
  17:Src/Settings/scale.h **** 		MIXOLYDIAN,
  18:Src/Settings/scale.h **** 		DORIAN,
  19:Src/Settings/scale.h **** 		PHRYGIAN,
ARM GAS  /var/folders/84/_x1cyy_j36g486tldtwl37280000gn/T//cctc5fkA.s 			page 33


  20:Src/Settings/scale.h **** 		LYDIAN,
  21:Src/Settings/scale.h **** 		AEOLYIAN,
  22:Src/Settings/scale.h **** 		LOCRIAN,
  23:Src/Settings/scale.h **** 
  24:Src/Settings/scale.h **** 		NUM_TYPES
  25:Src/Settings/scale.h **** 	};
  26:Src/Settings/scale.h **** 
  27:Src/Settings/scale.h **** 	static const char* type_text(uint8_t type) {
  28:Src/Settings/scale.h **** 		switch (type)
  29:Src/Settings/scale.h **** 		{
  30:Src/Settings/scale.h **** 		case MAJOR:			return "MAJOR";
  31:Src/Settings/scale.h **** 		case MINOR:			return "MINOR";
  32:Src/Settings/scale.h **** 		case MIXOLYDIAN:	return "MIXOLYDIAN";
  33:Src/Settings/scale.h **** 		case DORIAN:		return "DORIAN";
  34:Src/Settings/scale.h **** 		case PHRYGIAN:		return "PHRYGIAN";
  35:Src/Settings/scale.h **** 		case LYDIAN:		return "LYDIAN";
  36:Src/Settings/scale.h **** 		case AEOLYIAN:		return "AEOLYIAN";
  37:Src/Settings/scale.h **** 		case LOCRIAN:		return "LOCRIAN";
  38:Src/Settings/scale.h **** 		default:			return nullptr;
  39:Src/Settings/scale.h **** 			break;
  40:Src/Settings/scale.h **** 		}
  41:Src/Settings/scale.h **** 	}
  42:Src/Settings/scale.h **** 
  43:Src/Settings/scale.h **** 	inline void init() {
  44:Src/Settings/scale.h **** 		root_ = 0;
  45:Src/Settings/scale.h **** 		set_type(MAJOR);
  46:Src/Settings/scale.h **** 	}
  47:Src/Settings/scale.h **** 
  48:Src/Settings/scale.h **** 	// root
  49:Src/Settings/scale.h **** 	inline uint8_t root() {
  50:Src/Settings/scale.h **** 		return root_;
  51:Src/Settings/scale.h **** 	}
  52:Src/Settings/scale.h **** 
  53:Src/Settings/scale.h **** 	inline void set_root(int value) {
  54:Src/Settings/scale.h **** 		root_ = stmlib::clip(0, 11, value);
  55:Src/Settings/scale.h **** 		make_keymap();
  56:Src/Settings/scale.h **** 	}
  57:Src/Settings/scale.h **** 
  58:Src/Settings/scale.h **** 	const char* root_text() {
  59:Src/Settings/scale.h **** 		return UiText::note_text(root(), false);
  60:Src/Settings/scale.h **** 	}
  61:Src/Settings/scale.h **** 
  62:Src/Settings/scale.h **** 	// type
  63:Src/Settings/scale.h **** 	inline uint8_t type() {
  64:Src/Settings/scale.h **** 		return type_;
  65:Src/Settings/scale.h **** 	}
  66:Src/Settings/scale.h **** 
  67:Src/Settings/scale.h **** 	inline void set_type(int value) {
  68:Src/Settings/scale.h **** 		type_ = stmlib::clip(0, NUM_TYPES - 1, value);
  69:Src/Settings/scale.h **** 
  70:Src/Settings/scale.h **** 		switch (type_)
  71:Src/Settings/scale.h **** 		{
  72:Src/Settings/scale.h **** 		case MAJOR:
  73:Src/Settings/scale.h **** 			lut_ptr = lut_scale_major;
  74:Src/Settings/scale.h **** 			lut_map_ptr = lut_scale_major_map;
  75:Src/Settings/scale.h **** 			break;
  76:Src/Settings/scale.h **** 		case MINOR:
ARM GAS  /var/folders/84/_x1cyy_j36g486tldtwl37280000gn/T//cctc5fkA.s 			page 34


  77:Src/Settings/scale.h **** 			lut_ptr = lut_scale_minor;
  78:Src/Settings/scale.h **** 			lut_map_ptr = lut_scale_minor_map;
  79:Src/Settings/scale.h **** 			break;
  80:Src/Settings/scale.h **** 		case MIXOLYDIAN:
  81:Src/Settings/scale.h **** 			lut_ptr = lut_scale_mixolydian;
  82:Src/Settings/scale.h **** 			lut_map_ptr = lut_scale_mixolydian_map;
  83:Src/Settings/scale.h **** 			break;
  84:Src/Settings/scale.h **** 		case DORIAN:
  85:Src/Settings/scale.h **** 			lut_ptr = lut_scale_dorian;
  86:Src/Settings/scale.h **** 			lut_map_ptr = lut_scale_dorian_map;
  87:Src/Settings/scale.h **** 			break;
  88:Src/Settings/scale.h **** 		case PHRYGIAN:
  89:Src/Settings/scale.h **** 			lut_ptr = lut_scale_phrygian;
  90:Src/Settings/scale.h **** 			lut_map_ptr = lut_scale_phrygian_map;
  91:Src/Settings/scale.h **** 			break;
  92:Src/Settings/scale.h **** 		case LYDIAN:
  93:Src/Settings/scale.h **** 			lut_ptr = lut_scale_lydian;
  94:Src/Settings/scale.h **** 			lut_map_ptr = lut_scale_lydian_map;
  95:Src/Settings/scale.h **** 			break;
  96:Src/Settings/scale.h **** 		case AEOLYIAN:
  97:Src/Settings/scale.h **** 			lut_ptr = lut_scale_aeolyian;
  98:Src/Settings/scale.h **** 			lut_map_ptr = lut_scale_aeolyian_map;
  99:Src/Settings/scale.h **** 			break;
 100:Src/Settings/scale.h **** 		case LOCRIAN:
 101:Src/Settings/scale.h **** 			lut_ptr = lut_scale_locrian;
 102:Src/Settings/scale.h **** 			lut_map_ptr = lut_scale_locrian_map;
 103:Src/Settings/scale.h **** 			break;
 104:Src/Settings/scale.h **** 		default:
 105:Src/Settings/scale.h **** 			break;
 106:Src/Settings/scale.h **** 		}
 107:Src/Settings/scale.h **** 		make_keymap();
 108:Src/Settings/scale.h **** 	}
 109:Src/Settings/scale.h **** 
 110:Src/Settings/scale.h **** 	const char* type_text() {
 111:Src/Settings/scale.h **** 		return type_text(type());
 112:Src/Settings/scale.h **** 	}
 113:Src/Settings/scale.h **** 
 114:Src/Settings/scale.h **** 	// methods
 115:Src/Settings/scale.h **** 	inline uint8_t read(uint8_t index) {
 116:Src/Settings/scale.h **** 		return lut_ptr[index] + root_;
 117:Src/Settings/scale.h **** 	}
 118:Src/Settings/scale.h **** 
 119:Src/Settings/scale.h **** 	inline uint8_t read_map(uint8_t note) {
 120:Src/Settings/scale.h **** 		uint8_t scale_note = lut_map_ptr[note] + root_;
 121:Src/Settings/scale.h **** 		return scale_note > highest_note ? highest_note : scale_note;
 122:Src/Settings/scale.h **** 	}
 123:Src/Settings/scale.h **** 
 124:Src/Settings/scale.h **** 	inline uint8_t snap_and_transpose(uint8_t note) {
 125:Src/Settings/scale.h **** 		uint8_t oct = 0;
 126:Src/Settings/scale.h **** 		while (note >= 12){
 127:Src/Settings/scale.h **** 			note -= 12;
 128:Src/Settings/scale.h **** 			oct += 12;
 129:Src/Settings/scale.h **** 		}
 130:Src/Settings/scale.h **** 
 131:Src/Settings/scale.h **** 		uint8_t quantised_note;
 132:Src/Settings/scale.h **** 		for (uint8_t i = 0; i < NOTES_IN_SCALE; ++i) {
 133:Src/Settings/scale.h **** 			quantised_note = keymap.read(i);
ARM GAS  /var/folders/84/_x1cyy_j36g486tldtwl37280000gn/T//cctc5fkA.s 			page 35


 134:Src/Settings/scale.h **** 			if (quantised_note >= note) {
 135:Src/Settings/scale.h **** 				break;
 136:Src/Settings/scale.h **** 			}
 137:Src/Settings/scale.h **** 		}
 138:Src/Settings/scale.h **** 		quantised_note += oct;
 139:Src/Settings/scale.h **** 
 140:Src/Settings/scale.h **** 		return quantised_note > highest_note ? highest_note : quantised_note;
 141:Src/Settings/scale.h **** 	}
 142:Src/Settings/scale.h **** 
 143:Src/Settings/scale.h **** 	inline bool in_scale(uint8_t note) {
 144:Src/Settings/scale.h **** 		return snap_and_transpose(note) == note;
 145:Src/Settings/scale.h **** 	}
 146:Src/Settings/scale.h **** 
 147:Src/Settings/scale.h **** 	// storage
 148:Src/Settings/scale.h **** 	void load(FileReader &fileReader) {
 149:Src/Settings/scale.h **** 		fileReader.read(root_);
 150:Src/Settings/scale.h **** 		fileReader.read(type_);
 151:Src/Settings/scale.h **** 		set_root(root_);
 152:Src/Settings/scale.h **** 		set_type(type_);
 153:Src/Settings/scale.h **** 	}
 154:Src/Settings/scale.h **** 
 155:Src/Settings/scale.h **** 	void save(FileWriter &fileWriter) {
 1288              		.loc 5 155 7 view .LVU459
 1289              	.LBE267:
 156:Src/Settings/scale.h **** 		fileWriter.write(root_);
 1290              		.loc 5 156 3 view .LVU460
 1291              	.LBB323:
 1292              	.LBB268:
 1293              	.LBI268:
  50:Src/Disk/fileWriter.h **** 		write_buffer(&data, sizeof(T));
 1294              		.loc 2 50 7 view .LVU461
 1295              	.LBB269:
 1296              	.LBB270:
  68:Src/Disk/fileWriter.h **** 			if (buff_pos < kBufferSize) {
 1297              		.loc 2 68 3 view .LVU462
  68:Src/Disk/fileWriter.h **** 			if (buff_pos < kBufferSize) {
 1298              		.loc 2 68 20 view .LVU463
 1299 015e 002A     		cmp	r2, #0
 1300 0160 00F00B82 		beq	.L174
 1301              	.L181:
  69:Src/Disk/fileWriter.h **** 				buffer[buff_pos++] = *data_++;
 1302              		.loc 2 69 4 view .LVU464
  69:Src/Disk/fileWriter.h **** 				buffer[buff_pos++] = *data_++;
 1303              		.loc 2 69 8 is_stmt 0 view .LVU465
 1304 0164 D4F80022 		ldr	r2, [r4, #512]
  69:Src/Disk/fileWriter.h **** 				buffer[buff_pos++] = *data_++;
 1305              		.loc 2 69 4 view .LVU466
 1306 0168 B2F5007F 		cmp	r2, #512
 1307 016c 80F0EF81 		bcs	.L175
  70:Src/Disk/fileWriter.h **** 				--size;
 1308              		.loc 2 70 5 is_stmt 1 view .LVU467
 1309              	.LVL102:
  70:Src/Disk/fileWriter.h **** 				--size;
 1310              		.loc 2 70 20 is_stmt 0 view .LVU468
 1311 0170 501C     		adds	r0, r2, #1
 1312 0172 C4F80002 		str	r0, [r4, #512]
  70:Src/Disk/fileWriter.h **** 				--size;
ARM GAS  /var/folders/84/_x1cyy_j36g486tldtwl37280000gn/T//cctc5fkA.s 			page 36


 1313              		.loc 2 70 26 view .LVU469
 1314 0176 6B78     		ldrb	r3, [r5, #1]	@ zero_extendqisi2
  70:Src/Disk/fileWriter.h **** 				--size;
 1315              		.loc 2 70 24 view .LVU470
 1316 0178 A354     		strb	r3, [r4, r2]
  71:Src/Disk/fileWriter.h **** 			} else {
 1317              		.loc 2 71 5 is_stmt 1 view .LVU471
 1318              	.LVL103:
  68:Src/Disk/fileWriter.h **** 			if (buff_pos < kBufferSize) {
 1319              		.loc 2 68 3 view .LVU472
  68:Src/Disk/fileWriter.h **** 			if (buff_pos < kBufferSize) {
 1320              		.loc 2 68 20 view .LVU473
 1321              	.LBE270:
 1322              	.LBE269:
 1323              	.LBB284:
 1324              	.LBB285:
  21:/Users/joostbooy/Desktop/Code/stm32/lib/utils/hash.h **** 			hash_ *= prime_;
 1325              		.loc 4 21 10 is_stmt 0 view .LVU474
 1326 017a 6E78     		ldrb	r6, [r5, #1]	@ zero_extendqisi2
 1327 017c D4F80802 		ldr	r0, [r4, #520]
 1328              		.loc 4 22 10 view .LVU475
 1329 0180 5E4A     		ldr	r2, .L332
 1330 0182 94F80C12 		ldrb	r1, [r4, #524]	@ zero_extendqisi2
 1331              	.LVL104:
  20:/Users/joostbooy/Desktop/Code/stm32/lib/utils/hash.h **** 			hash_ ^= *data_++;
 1332              		.loc 4 20 3 is_stmt 1 view .LVU476
  20:/Users/joostbooy/Desktop/Code/stm32/lib/utils/hash.h **** 			hash_ ^= *data_++;
 1333              		.loc 4 20 14 view .LVU477
  21:/Users/joostbooy/Desktop/Code/stm32/lib/utils/hash.h **** 			hash_ *= prime_;
 1334              		.loc 4 21 4 view .LVU478
 1335              		.loc 4 22 4 view .LVU479
  21:/Users/joostbooy/Desktop/Code/stm32/lib/utils/hash.h **** 			hash_ *= prime_;
 1336              		.loc 4 21 10 is_stmt 0 view .LVU480
 1337 0186 4640     		eors	r6, r6, r0
 1338              		.loc 4 22 10 view .LVU481
 1339 0188 02FB06F2 		mul	r2, r2, r6
 1340 018c C4F80822 		str	r2, [r4, #520]
  20:/Users/joostbooy/Desktop/Code/stm32/lib/utils/hash.h **** 			hash_ ^= *data_++;
 1341              		.loc 4 20 3 is_stmt 1 view .LVU482
  20:/Users/joostbooy/Desktop/Code/stm32/lib/utils/hash.h **** 			hash_ ^= *data_++;
 1342              		.loc 4 20 14 view .LVU483
 1343              	.LVL105:
  20:/Users/joostbooy/Desktop/Code/stm32/lib/utils/hash.h **** 			hash_ ^= *data_++;
 1344              		.loc 4 20 14 is_stmt 0 view .LVU484
 1345              	.LBE285:
 1346              	.LBE284:
 1347              	.LBE268:
 1348              	.LBE323:
 157:Src/Settings/scale.h **** 		fileWriter.write(type_);
 1349              		.loc 5 157 3 is_stmt 1 view .LVU485
 1350              	.LBB324:
 1351              	.LBB291:
 1352              	.LBI291:
  50:Src/Disk/fileWriter.h **** 		write_buffer(&data, sizeof(T));
 1353              		.loc 2 50 7 view .LVU486
 1354              	.LBB292:
 1355              	.LBB293:
ARM GAS  /var/folders/84/_x1cyy_j36g486tldtwl37280000gn/T//cctc5fkA.s 			page 37


  68:Src/Disk/fileWriter.h **** 			if (buff_pos < kBufferSize) {
 1356              		.loc 2 68 3 view .LVU487
  68:Src/Disk/fileWriter.h **** 			if (buff_pos < kBufferSize) {
 1357              		.loc 2 68 20 view .LVU488
 1358 0190 0029     		cmp	r1, #0
 1359 0192 00F0F981 		beq	.L177
 1360              	.L176:
  69:Src/Disk/fileWriter.h **** 				buffer[buff_pos++] = *data_++;
 1361              		.loc 2 69 4 view .LVU489
  69:Src/Disk/fileWriter.h **** 				buffer[buff_pos++] = *data_++;
 1362              		.loc 2 69 8 is_stmt 0 view .LVU490
 1363 0196 D4F80022 		ldr	r2, [r4, #512]
  69:Src/Disk/fileWriter.h **** 				buffer[buff_pos++] = *data_++;
 1364              		.loc 2 69 4 view .LVU491
 1365 019a B2F5007F 		cmp	r2, #512
 1366 019e 80F0FB81 		bcs	.L182
  70:Src/Disk/fileWriter.h **** 				--size;
 1367              		.loc 2 70 5 is_stmt 1 view .LVU492
 1368              	.LVL106:
  70:Src/Disk/fileWriter.h **** 				--size;
 1369              		.loc 2 70 20 is_stmt 0 view .LVU493
 1370 01a2 501C     		adds	r0, r2, #1
 1371 01a4 C4F80002 		str	r0, [r4, #512]
  70:Src/Disk/fileWriter.h **** 				--size;
 1372              		.loc 2 70 26 view .LVU494
 1373 01a8 2B78     		ldrb	r3, [r5]	@ zero_extendqisi2
  70:Src/Disk/fileWriter.h **** 				--size;
 1374              		.loc 2 70 24 view .LVU495
 1375 01aa A354     		strb	r3, [r4, r2]
  71:Src/Disk/fileWriter.h **** 			} else {
 1376              		.loc 2 71 5 is_stmt 1 view .LVU496
 1377              	.LVL107:
  68:Src/Disk/fileWriter.h **** 			if (buff_pos < kBufferSize) {
 1378              		.loc 2 68 3 view .LVU497
  68:Src/Disk/fileWriter.h **** 			if (buff_pos < kBufferSize) {
 1379              		.loc 2 68 20 view .LVU498
 1380              	.LBE293:
 1381              	.LBE292:
 1382              	.LBB308:
 1383              	.LBB309:
  21:/Users/joostbooy/Desktop/Code/stm32/lib/utils/hash.h **** 			hash_ *= prime_;
 1384              		.loc 4 21 10 is_stmt 0 view .LVU499
 1385 01ac 2E46     		mov	r6, r5
 1386 01ae D4F80802 		ldr	r0, [r4, #520]
 1387 01b2 16F8142B 		ldrb	r2, [r6], #20	@ zero_extendqisi2
 1388              		.loc 4 22 10 view .LVU500
 1389 01b6 514B     		ldr	r3, .L332
 1390 01b8 94F80C12 		ldrb	r1, [r4, #524]	@ zero_extendqisi2
 1391              	.LVL108:
  20:/Users/joostbooy/Desktop/Code/stm32/lib/utils/hash.h **** 			hash_ ^= *data_++;
 1392              		.loc 4 20 3 is_stmt 1 view .LVU501
  20:/Users/joostbooy/Desktop/Code/stm32/lib/utils/hash.h **** 			hash_ ^= *data_++;
 1393              		.loc 4 20 14 view .LVU502
  21:/Users/joostbooy/Desktop/Code/stm32/lib/utils/hash.h **** 			hash_ *= prime_;
 1394              		.loc 4 21 4 view .LVU503
 1395              		.loc 4 22 4 view .LVU504
  21:/Users/joostbooy/Desktop/Code/stm32/lib/utils/hash.h **** 			hash_ *= prime_;
ARM GAS  /var/folders/84/_x1cyy_j36g486tldtwl37280000gn/T//cctc5fkA.s 			page 38


 1396              		.loc 4 21 10 is_stmt 0 view .LVU505
 1397 01bc 4240     		eors	r2, r2, r0
 1398              		.loc 4 22 10 view .LVU506
 1399 01be 03FB02F3 		mul	r3, r3, r2
 1400 01c2 C4F80832 		str	r3, [r4, #520]
  20:/Users/joostbooy/Desktop/Code/stm32/lib/utils/hash.h **** 			hash_ ^= *data_++;
 1401              		.loc 4 20 3 is_stmt 1 view .LVU507
  20:/Users/joostbooy/Desktop/Code/stm32/lib/utils/hash.h **** 			hash_ ^= *data_++;
 1402              		.loc 4 20 14 view .LVU508
 1403              	.LVL109:
  20:/Users/joostbooy/Desktop/Code/stm32/lib/utils/hash.h **** 			hash_ ^= *data_++;
 1404              		.loc 4 20 14 is_stmt 0 view .LVU509
 1405              	.LBE309:
 1406              	.LBE308:
 1407              	.LBE291:
 1408              	.LBE324:
  36:Src/Settings/song.cpp **** 	midiClock.save(fileWriter);
 1409              		.loc 1 36 2 is_stmt 1 view .LVU510
 1410              	.LBB325:
 1411              	.LBI325:
 1412              		.file 6 "Src/Settings/midiClock.h"
   1:Src/Settings/midiClock.h **** #ifndef MidiClock_h
   2:Src/Settings/midiClock.h **** #define MidiClock_h
   3:Src/Settings/midiClock.h **** 
   4:Src/Settings/midiClock.h **** #include "uiText.h"
   5:Src/Settings/midiClock.h **** #include "midiPort.h"
   6:Src/Settings/midiClock.h **** #include "fileWriter.h"
   7:Src/Settings/midiClock.h **** #include "fileReader.h"
   8:Src/Settings/midiClock.h **** #include "lookupTables.h"
   9:Src/Settings/midiClock.h **** 
  10:Src/Settings/midiClock.h **** class MidiClock {
  11:Src/Settings/midiClock.h **** 
  12:Src/Settings/midiClock.h **** public:
  13:Src/Settings/midiClock.h **** 
  14:Src/Settings/midiClock.h **** 	void init() {
  15:Src/Settings/midiClock.h **** 		set_sync_port(INTERNAL);	// needs to be first
  16:Src/Settings/midiClock.h **** 		set_bpm(120);
  17:Src/Settings/midiClock.h **** 		set_bpm_fractional(0);
  18:Src/Settings/midiClock.h **** 
  19:Src/Settings/midiClock.h **** 		ext_bpm_ = 120;
  20:Src/Settings/midiClock.h **** 
  21:Src/Settings/midiClock.h **** 		reset();
  22:Src/Settings/midiClock.h **** 	}
  23:Src/Settings/midiClock.h **** 
  24:Src/Settings/midiClock.h **** 	enum SyncPort {
  25:Src/Settings/midiClock.h **** 		EXTERNAL = MidiPort::NUM_PORTS - 1,
  26:Src/Settings/midiClock.h **** 		INTERNAL,
  27:Src/Settings/midiClock.h **** 
  28:Src/Settings/midiClock.h **** 		NUM_SYNC_PORTS
  29:Src/Settings/midiClock.h **** 	};
  30:Src/Settings/midiClock.h **** 
  31:Src/Settings/midiClock.h **** 	const char* sync_port_text(int value) {
  32:Src/Settings/midiClock.h **** 		if (value <= EXTERNAL) {
  33:Src/Settings/midiClock.h **** 			return MidiPort::port_text(value);
  34:Src/Settings/midiClock.h **** 		} else {
  35:Src/Settings/midiClock.h **** 			return "INTERNAL";
  36:Src/Settings/midiClock.h **** 		}
ARM GAS  /var/folders/84/_x1cyy_j36g486tldtwl37280000gn/T//cctc5fkA.s 			page 39


  37:Src/Settings/midiClock.h **** 	}
  38:Src/Settings/midiClock.h **** 
  39:Src/Settings/midiClock.h **** 	// bpm
  40:Src/Settings/midiClock.h **** 	uint16_t bpm() {
  41:Src/Settings/midiClock.h **** 		return bpm_;
  42:Src/Settings/midiClock.h **** 	}
  43:Src/Settings/midiClock.h **** 
  44:Src/Settings/midiClock.h **** 	void set_bpm(int value) {
  45:Src/Settings/midiClock.h **** 		if (sync_port() == INTERNAL) {
  46:Src/Settings/midiClock.h **** 			bpm_ = stmlib::clip(0, MAX_BPM - 1, value);
  47:Src/Settings/midiClock.h **** 			update_inc(bpm(), bpm_fractional());
  48:Src/Settings/midiClock.h **** 		}
  49:Src/Settings/midiClock.h **** 	}
  50:Src/Settings/midiClock.h **** 
  51:Src/Settings/midiClock.h **** 	// bpm fractional
  52:Src/Settings/midiClock.h **** 	uint16_t bpm_fractional() {
  53:Src/Settings/midiClock.h **** 		return bpm_fractional_;
  54:Src/Settings/midiClock.h **** 	}
  55:Src/Settings/midiClock.h **** 
  56:Src/Settings/midiClock.h **** 	void set_bpm_fractional(int value) {
  57:Src/Settings/midiClock.h **** 		if (sync_port() == INTERNAL) {
  58:Src/Settings/midiClock.h **** 			bpm_fractional_ = stmlib::clip(0, MAX_BPM_FRACTIONAL - 1, value);
  59:Src/Settings/midiClock.h **** 			update_inc(bpm(), bpm_fractional());
  60:Src/Settings/midiClock.h **** 		}
  61:Src/Settings/midiClock.h **** 	}
  62:Src/Settings/midiClock.h **** 
  63:Src/Settings/midiClock.h **** 	const char* bpm_text() {
  64:Src/Settings/midiClock.h **** 		if (sync_port() == INTERNAL) {
  65:Src/Settings/midiClock.h **** 			return UiText::str.write(bpm(), ".", bpm_fractional());
  66:Src/Settings/midiClock.h **** 		}  else {
  67:Src/Settings/midiClock.h **** 			return UiText::str.write("EXT ", ext_bpm_, ".0");
  68:Src/Settings/midiClock.h **** 		}
  69:Src/Settings/midiClock.h **** 	}
  70:Src/Settings/midiClock.h **** 
  71:Src/Settings/midiClock.h **** 	// sync port
  72:Src/Settings/midiClock.h **** 	uint8_t sync_port() {
  73:Src/Settings/midiClock.h **** 		return sync_port_;
  74:Src/Settings/midiClock.h **** 	}
  75:Src/Settings/midiClock.h **** 
  76:Src/Settings/midiClock.h **** 	void set_sync_port(int value) {
  77:Src/Settings/midiClock.h **** 		sync_port_ = stmlib::clip(0, NUM_SYNC_PORTS - 1, value);
  78:Src/Settings/midiClock.h **** 	}
  79:Src/Settings/midiClock.h **** 
  80:Src/Settings/midiClock.h **** 	const char* sync_port_text() {
  81:Src/Settings/midiClock.h **** 		return sync_port_text(sync_port());
  82:Src/Settings/midiClock.h **** 	}
  83:Src/Settings/midiClock.h **** 
  84:Src/Settings/midiClock.h **** 
  85:Src/Settings/midiClock.h **** 	/***************
  86:Src/Settings/midiClock.h **** 	*	Methods
  87:Src/Settings/midiClock.h **** 	***************/
  88:Src/Settings/midiClock.h **** 
  89:Src/Settings/midiClock.h **** 	inline void reset() {
  90:Src/Settings/midiClock.h **** 		ticks = 0;
  91:Src/Settings/midiClock.h **** 		isr_ticks = 0;
  92:Src/Settings/midiClock.h **** 		isr_average = 0;
  93:Src/Settings/midiClock.h **** 		tempo_phase = 0;
ARM GAS  /var/folders/84/_x1cyy_j36g486tldtwl37280000gn/T//cctc5fkA.s 			page 40


  94:Src/Settings/midiClock.h **** 	}
  95:Src/Settings/midiClock.h **** 
  96:Src/Settings/midiClock.h **** 	inline bool tick() {
  97:Src/Settings/midiClock.h **** 		++isr_ticks;
  98:Src/Settings/midiClock.h **** 		tempo_phase += tempo_inc;
  99:Src/Settings/midiClock.h **** 		return tempo_phase < tempo_inc;
 100:Src/Settings/midiClock.h **** 	}
 101:Src/Settings/midiClock.h **** 
 102:Src/Settings/midiClock.h **** 	inline void sync_bpm() {
 103:Src/Settings/midiClock.h **** 		isr_average += isr_ticks;
 104:Src/Settings/midiClock.h **** 
 105:Src/Settings/midiClock.h **** 		if (((++num_readings % 4) == 0) && isr_average > 0) {
 106:Src/Settings/midiClock.h **** 			ext_bpm_ = uint32_t(45000000UL * 60UL / 24UL / (kUpdatePeriod * (isr_average / 4)));
 107:Src/Settings/midiClock.h **** 			update_inc(ext_bpm_, 0);
 108:Src/Settings/midiClock.h **** 			isr_average = 0;
 109:Src/Settings/midiClock.h **** 		}
 110:Src/Settings/midiClock.h **** 
 111:Src/Settings/midiClock.h **** 		isr_ticks = 0;
 112:Src/Settings/midiClock.h **** 	}
 113:Src/Settings/midiClock.h **** 
 114:Src/Settings/midiClock.h **** 	void save(FileWriter &fileWriter) {
 1413              		.loc 6 114 7 view .LVU511
 1414              	.LBB326:
 115:Src/Settings/midiClock.h **** 		fileWriter.write(bpm_);
 1415              		.loc 6 115 3 view .LVU512
 1416              	.LBB327:
 1417              	.LBI327:
  50:Src/Disk/fileWriter.h **** 		write_buffer(&data, sizeof(T));
 1418              		.loc 2 50 7 view .LVU513
 1419              	.LBB328:
 1420              	.LBB329:
  68:Src/Disk/fileWriter.h **** 			if (buff_pos < kBufferSize) {
 1421              		.loc 2 68 3 view .LVU514
  68:Src/Disk/fileWriter.h **** 			if (buff_pos < kBufferSize) {
 1422              		.loc 2 68 20 view .LVU515
 1423 01c6 4FF00208 		mov	r8, #2
 1424 01ca A1B3     		cbz	r1, .L184
 1425              	.LVL110:
  69:Src/Disk/fileWriter.h **** 				buffer[buff_pos++] = *data_++;
 1426              		.loc 2 69 4 view .LVU516
  70:Src/Disk/fileWriter.h **** 				--size;
 1427              		.loc 2 70 5 view .LVU517
  69:Src/Disk/fileWriter.h **** 				buffer[buff_pos++] = *data_++;
 1428              		.loc 2 69 8 is_stmt 0 view .LVU518
 1429 01cc D4F80022 		ldr	r2, [r4, #512]
  69:Src/Disk/fileWriter.h **** 				buffer[buff_pos++] = *data_++;
 1430              		.loc 2 69 4 view .LVU519
 1431 01d0 B2F5007F 		cmp	r2, #512
  70:Src/Disk/fileWriter.h **** 				--size;
 1432              		.loc 2 70 32 view .LVU520
 1433 01d4 B246     		mov	r10, r6
 1434              	.LVL111:
  70:Src/Disk/fileWriter.h **** 				--size;
 1435              		.loc 2 70 20 view .LVU521
 1436 01d6 02F10100 		add	r0, r2, #1
  69:Src/Disk/fileWriter.h **** 				buffer[buff_pos++] = *data_++;
 1437              		.loc 2 69 4 view .LVU522
ARM GAS  /var/folders/84/_x1cyy_j36g486tldtwl37280000gn/T//cctc5fkA.s 			page 41


 1438 01da 15D2     		bcs	.L190
 1439              	.LVL112:
 1440              	.L319:
  70:Src/Disk/fileWriter.h **** 				--size;
 1441              		.loc 2 70 20 view .LVU523
 1442 01dc C4F80002 		str	r0, [r4, #512]
  70:Src/Disk/fileWriter.h **** 				--size;
 1443              		.loc 2 70 26 view .LVU524
 1444 01e0 1AF8016B 		ldrb	r6, [r10], #1	@ zero_extendqisi2
 1445              	.LVL113:
  70:Src/Disk/fileWriter.h **** 				--size;
 1446              		.loc 2 70 24 view .LVU525
 1447 01e4 A654     		strb	r6, [r4, r2]
  71:Src/Disk/fileWriter.h **** 			} else {
 1448              		.loc 2 71 5 is_stmt 1 view .LVU526
 1449              	.LVL114:
  68:Src/Disk/fileWriter.h **** 			if (buff_pos < kBufferSize) {
 1450              		.loc 2 68 20 is_stmt 0 view .LVU527
 1451 01e6 94F80C02 		ldrb	r0, [r4, #524]	@ zero_extendqisi2
  71:Src/Disk/fileWriter.h **** 			} else {
 1452              		.loc 2 71 5 view .LVU528
 1453 01ea 08F1FF38 		add	r8, r8, #-1
 1454              	.LVL115:
  68:Src/Disk/fileWriter.h **** 			if (buff_pos < kBufferSize) {
 1455              		.loc 2 68 3 is_stmt 1 view .LVU529
  68:Src/Disk/fileWriter.h **** 			if (buff_pos < kBufferSize) {
 1456              		.loc 2 68 20 view .LVU530
 1457 01ee 00B3     		cbz	r0, .L192
  68:Src/Disk/fileWriter.h **** 			if (buff_pos < kBufferSize) {
 1458              		.loc 2 68 20 is_stmt 0 view .LVU531
 1459 01f0 B8F1000F 		cmp	r8, #0
 1460 01f4 3BD0     		beq	.L188
 1461              	.LVL116:
  73:Src/Disk/fileWriter.h **** 			}
 1462              		.loc 2 73 15 view .LVU532
 1463 01f6 5646     		mov	r6, r10
 1464              	.LVL117:
 1465              	.L329:
  69:Src/Disk/fileWriter.h **** 				buffer[buff_pos++] = *data_++;
 1466              		.loc 2 69 4 is_stmt 1 view .LVU533
  70:Src/Disk/fileWriter.h **** 				--size;
 1467              		.loc 2 70 5 view .LVU534
  69:Src/Disk/fileWriter.h **** 				buffer[buff_pos++] = *data_++;
 1468              		.loc 2 69 8 is_stmt 0 view .LVU535
 1469 01f8 D4F80022 		ldr	r2, [r4, #512]
  69:Src/Disk/fileWriter.h **** 				buffer[buff_pos++] = *data_++;
 1470              		.loc 2 69 4 view .LVU536
 1471 01fc B2F5007F 		cmp	r2, #512
  70:Src/Disk/fileWriter.h **** 				--size;
 1472              		.loc 2 70 32 view .LVU537
 1473 0200 B246     		mov	r10, r6
 1474              	.LVL118:
  70:Src/Disk/fileWriter.h **** 				--size;
 1475              		.loc 2 70 20 view .LVU538
 1476 0202 02F10100 		add	r0, r2, #1
  69:Src/Disk/fileWriter.h **** 				buffer[buff_pos++] = *data_++;
 1477              		.loc 2 69 4 view .LVU539
ARM GAS  /var/folders/84/_x1cyy_j36g486tldtwl37280000gn/T//cctc5fkA.s 			page 42


 1478 0206 E9D3     		bcc	.L319
 1479              	.LVL119:
 1480              	.L190:
  73:Src/Disk/fileWriter.h **** 			}
 1481              		.loc 2 73 5 is_stmt 1 view .LVU540
 1482              	.LBB330:
 1483              	.LBI330:
  78:Src/Disk/fileWriter.h **** 		uint32_t size = buff_pos;
 1484              		.loc 2 78 7 view .LVU541
 1485              	.LBB331:
  79:Src/Disk/fileWriter.h **** 		buff_pos = 0;
 1486              		.loc 2 79 3 view .LVU542
  80:Src/Disk/fileWriter.h **** 		return file_->write(buffer, size);
 1487              		.loc 2 80 3 view .LVU543
 1488              		.loc 2 81 22 is_stmt 0 view .LVU544
 1489 0208 D4F80432 		ldr	r3, [r4, #516]
  80:Src/Disk/fileWriter.h **** 		return file_->write(buffer, size);
 1490              		.loc 2 80 12 view .LVU545
 1491 020c 4FF00009 		mov	r9, #0
 1492              	.LBB332:
 1493              	.LBB333:
  49:Src/Disk/file.h **** 		if (num_written) {
 1494              		.loc 3 49 24 view .LVU546
 1495 0210 1868     		ldr	r0, [r3]
 1496              	.LBE333:
 1497              	.LBE332:
  80:Src/Disk/fileWriter.h **** 		return file_->write(buffer, size);
 1498              		.loc 2 80 12 view .LVU547
 1499 0212 C4F80092 		str	r9, [r4, #512]
 1500              		.loc 2 81 3 is_stmt 1 view .LVU548
 1501              	.LVL120:
 1502              	.LBB336:
 1503              	.LBI332:
  47:Src/Disk/file.h **** 		UINT bw;
 1504              		.loc 3 47 7 view .LVU549
 1505              	.LBB334:
  48:Src/Disk/file.h **** 		FRESULT res = f_write(fil, data, size, &bw);
 1506              		.loc 3 48 3 view .LVU550
  49:Src/Disk/file.h **** 		if (num_written) {
 1507              		.loc 3 49 3 view .LVU551
  49:Src/Disk/file.h **** 		if (num_written) {
 1508              		.loc 3 49 24 is_stmt 0 view .LVU552
 1509 0216 01AB     		add	r3, sp, #4
 1510              	.LVL121:
  49:Src/Disk/file.h **** 		if (num_written) {
 1511              		.loc 3 49 24 view .LVU553
 1512 0218 2146     		mov	r1, r4
 1513 021a FFF7FEFF 		bl	f_write
 1514              	.LVL122:
 1515              		.loc 3 53 19 view .LVU554
 1516 021e 019A     		ldr	r2, [sp, #4]
 1517              	.LVL123:
  50:Src/Disk/file.h **** 			*num_written = bw;
 1518              		.loc 3 50 3 is_stmt 1 view .LVU555
 1519              		.loc 3 53 3 view .LVU556
 1520              		.loc 3 53 19 is_stmt 0 view .LVU557
 1521 0220 002A     		cmp	r2, #0
ARM GAS  /var/folders/84/_x1cyy_j36g486tldtwl37280000gn/T//cctc5fkA.s 			page 43


 1522 0222 00F0D881 		beq	.L193
 1523              	.LVL124:
 1524              		.loc 3 53 19 view .LVU558
 1525              	.LBE334:
 1526              	.LBE336:
 1527              	.LBE331:
 1528              	.LBE330:
  73:Src/Disk/fileWriter.h **** 			}
 1529              		.loc 2 73 15 view .LVU559
 1530 0226 0121     		movs	r1, #1
 1531              	.LBB339:
 1532              	.LBB338:
 1533              	.LBB337:
 1534              	.LBB335:
 1535              		.loc 3 53 19 view .LVU560
 1536 0228 0028     		cmp	r0, #0
 1537 022a 00F03483 		beq	.L194
 1538              	.LBE335:
 1539              	.LBE337:
 1540              	.LBE338:
 1541              	.LBE339:
  73:Src/Disk/fileWriter.h **** 			}
 1542              		.loc 2 73 15 view .LVU561
 1543 022e 84F80C92 		strb	r9, [r4, #524]
 1544              	.LVL125:
  68:Src/Disk/fileWriter.h **** 			if (buff_pos < kBufferSize) {
 1545              		.loc 2 68 3 is_stmt 1 view .LVU562
  68:Src/Disk/fileWriter.h **** 			if (buff_pos < kBufferSize) {
 1546              		.loc 2 68 20 view .LVU563
 1547              	.L192:
  68:Src/Disk/fileWriter.h **** 			if (buff_pos < kBufferSize) {
 1548              		.loc 2 68 20 is_stmt 0 view .LVU564
 1549 0232 D4F80832 		ldr	r3, [r4, #520]
 1550              	.LVL126:
 1551              	.L184:
  68:Src/Disk/fileWriter.h **** 			if (buff_pos < kBufferSize) {
 1552              		.loc 2 68 20 view .LVU565
 1553              	.LBE329:
 1554              	.LBE328:
 1555              	.LBB343:
 1556              	.LBB344:
  20:/Users/joostbooy/Desktop/Code/stm32/lib/utils/hash.h **** 			hash_ ^= *data_++;
 1557              		.loc 4 20 3 is_stmt 1 view .LVU566
  20:/Users/joostbooy/Desktop/Code/stm32/lib/utils/hash.h **** 			hash_ ^= *data_++;
 1558              		.loc 4 20 14 view .LVU567
  21:/Users/joostbooy/Desktop/Code/stm32/lib/utils/hash.h **** 			hash_ *= prime_;
 1559              		.loc 4 21 4 view .LVU568
 1560              		.loc 4 22 4 view .LVU569
  21:/Users/joostbooy/Desktop/Code/stm32/lib/utils/hash.h **** 			hash_ *= prime_;
 1561              		.loc 4 21 10 is_stmt 0 view .LVU570
 1562 0236 287D     		ldrb	r0, [r5, #20]	@ zero_extendqisi2
 1563              		.loc 4 22 10 view .LVU571
 1564 0238 304E     		ldr	r6, .L332
  21:/Users/joostbooy/Desktop/Code/stm32/lib/utils/hash.h **** 			hash_ *= prime_;
 1565              		.loc 4 21 10 view .LVU572
 1566 023a 4340     		eors	r3, r3, r0
 1567              		.loc 4 22 10 view .LVU573
ARM GAS  /var/folders/84/_x1cyy_j36g486tldtwl37280000gn/T//cctc5fkA.s 			page 44


 1568 023c 06FB03F3 		mul	r3, r6, r3
 1569 0240 C4F80832 		str	r3, [r4, #520]
  20:/Users/joostbooy/Desktop/Code/stm32/lib/utils/hash.h **** 			hash_ ^= *data_++;
 1570              		.loc 4 20 3 is_stmt 1 view .LVU574
  20:/Users/joostbooy/Desktop/Code/stm32/lib/utils/hash.h **** 			hash_ ^= *data_++;
 1571              		.loc 4 20 14 view .LVU575
 1572              	.LVL127:
  21:/Users/joostbooy/Desktop/Code/stm32/lib/utils/hash.h **** 			hash_ *= prime_;
 1573              		.loc 4 21 4 view .LVU576
 1574              		.loc 4 22 4 view .LVU577
  21:/Users/joostbooy/Desktop/Code/stm32/lib/utils/hash.h **** 			hash_ *= prime_;
 1575              		.loc 4 21 10 is_stmt 0 view .LVU578
 1576 0244 6A7D     		ldrb	r2, [r5, #21]	@ zero_extendqisi2
 1577 0246 5340     		eors	r3, r3, r2
 1578              		.loc 4 22 10 view .LVU579
 1579 0248 06FB03F6 		mul	r6, r6, r3
 1580 024c C4F80862 		str	r6, [r4, #520]
  20:/Users/joostbooy/Desktop/Code/stm32/lib/utils/hash.h **** 			hash_ ^= *data_++;
 1581              		.loc 4 20 3 is_stmt 1 view .LVU580
  20:/Users/joostbooy/Desktop/Code/stm32/lib/utils/hash.h **** 			hash_ ^= *data_++;
 1582              		.loc 4 20 14 view .LVU581
 1583              	.LVL128:
  20:/Users/joostbooy/Desktop/Code/stm32/lib/utils/hash.h **** 			hash_ ^= *data_++;
 1584              		.loc 4 20 14 is_stmt 0 view .LVU582
 1585              	.LBE344:
 1586              	.LBE343:
 1587              	.LBE327:
 116:Src/Settings/midiClock.h **** 		fileWriter.write(bpm_fractional_);
 1588              		.loc 6 116 3 is_stmt 1 view .LVU583
 1589              	.LBB350:
 1590              	.LBI350:
  50:Src/Disk/fileWriter.h **** 		write_buffer(&data, sizeof(T));
 1591              		.loc 2 50 7 view .LVU584
 1592              	.LBB351:
 1593              	.LBB352:
  68:Src/Disk/fileWriter.h **** 			if (buff_pos < kBufferSize) {
 1594              		.loc 2 68 3 view .LVU585
  68:Src/Disk/fileWriter.h **** 			if (buff_pos < kBufferSize) {
 1595              		.loc 2 68 20 view .LVU586
 1596              	.L196:
  68:Src/Disk/fileWriter.h **** 			if (buff_pos < kBufferSize) {
 1597              		.loc 2 68 20 is_stmt 0 view .LVU587
 1598              	.LBE352:
 1599              	.LBE351:
 1600              	.LBB369:
 1601              	.LBB370:
  20:/Users/joostbooy/Desktop/Code/stm32/lib/utils/hash.h **** 			hash_ ^= *data_++;
 1602              		.loc 4 20 3 is_stmt 1 view .LVU588
  20:/Users/joostbooy/Desktop/Code/stm32/lib/utils/hash.h **** 			hash_ ^= *data_++;
 1603              		.loc 4 20 14 view .LVU589
  21:/Users/joostbooy/Desktop/Code/stm32/lib/utils/hash.h **** 			hash_ *= prime_;
 1604              		.loc 4 21 4 view .LVU590
 1605              		.loc 4 22 4 view .LVU591
  21:/Users/joostbooy/Desktop/Code/stm32/lib/utils/hash.h **** 			hash_ *= prime_;
 1606              		.loc 4 21 10 is_stmt 0 view .LVU592
 1607 0250 A97D     		ldrb	r1, [r5, #22]	@ zero_extendqisi2
 1608              		.loc 4 22 10 view .LVU593
ARM GAS  /var/folders/84/_x1cyy_j36g486tldtwl37280000gn/T//cctc5fkA.s 			page 45


 1609 0252 2A4B     		ldr	r3, .L332
  21:/Users/joostbooy/Desktop/Code/stm32/lib/utils/hash.h **** 			hash_ *= prime_;
 1610              		.loc 4 21 10 view .LVU594
 1611 0254 4E40     		eors	r6, r6, r1
 1612              		.loc 4 22 10 view .LVU595
 1613 0256 03FB06F6 		mul	r6, r3, r6
 1614 025a C4F80862 		str	r6, [r4, #520]
  20:/Users/joostbooy/Desktop/Code/stm32/lib/utils/hash.h **** 			hash_ ^= *data_++;
 1615              		.loc 4 20 3 is_stmt 1 view .LVU596
  20:/Users/joostbooy/Desktop/Code/stm32/lib/utils/hash.h **** 			hash_ ^= *data_++;
 1616              		.loc 4 20 14 view .LVU597
 1617              	.LVL129:
  21:/Users/joostbooy/Desktop/Code/stm32/lib/utils/hash.h **** 			hash_ *= prime_;
 1618              		.loc 4 21 4 view .LVU598
 1619              		.loc 4 22 4 view .LVU599
  21:/Users/joostbooy/Desktop/Code/stm32/lib/utils/hash.h **** 			hash_ *= prime_;
 1620              		.loc 4 21 10 is_stmt 0 view .LVU600
 1621 025e E87D     		ldrb	r0, [r5, #23]	@ zero_extendqisi2
 1622 0260 4640     		eors	r6, r6, r0
 1623              		.loc 4 22 10 view .LVU601
 1624 0262 03FB06F3 		mul	r3, r3, r6
 1625 0266 C4F80832 		str	r3, [r4, #520]
  20:/Users/joostbooy/Desktop/Code/stm32/lib/utils/hash.h **** 			hash_ ^= *data_++;
 1626              		.loc 4 20 3 is_stmt 1 view .LVU602
  20:/Users/joostbooy/Desktop/Code/stm32/lib/utils/hash.h **** 			hash_ ^= *data_++;
 1627              		.loc 4 20 14 view .LVU603
 1628              	.LVL130:
  20:/Users/joostbooy/Desktop/Code/stm32/lib/utils/hash.h **** 			hash_ ^= *data_++;
 1629              		.loc 4 20 14 is_stmt 0 view .LVU604
 1630              	.LBE370:
 1631              	.LBE369:
 1632              	.LBE350:
 117:Src/Settings/midiClock.h **** 		fileWriter.write(sync_port_);
 1633              		.loc 6 117 3 is_stmt 1 view .LVU605
 1634              	.LBB381:
 1635              	.LBI381:
  50:Src/Disk/fileWriter.h **** 		write_buffer(&data, sizeof(T));
 1636              		.loc 2 50 7 view .LVU606
 1637              	.LBB382:
 1638              	.LBB383:
  68:Src/Disk/fileWriter.h **** 			if (buff_pos < kBufferSize) {
 1639              		.loc 2 68 3 view .LVU607
  68:Src/Disk/fileWriter.h **** 			if (buff_pos < kBufferSize) {
 1640              		.loc 2 68 20 view .LVU608
 1641              	.LBE383:
 1642              	.LBE382:
 1643              	.LBE381:
 1644              	.LBB404:
 1645              	.LBB373:
 1646              	.LBB371:
 1647              		.loc 4 22 10 is_stmt 0 view .LVU609
 1648 026a 0022     		movs	r2, #0
 1649 026c 66E0     		b	.L205
 1650              	.LVL131:
 1651              	.L188:
 1652              		.loc 4 22 10 view .LVU610
 1653              	.LBE371:
ARM GAS  /var/folders/84/_x1cyy_j36g486tldtwl37280000gn/T//cctc5fkA.s 			page 46


 1654              	.LBE373:
 1655              	.LBE404:
 1656              	.LBB405:
 1657              	.LBB346:
 1658              	.LBB345:
  20:/Users/joostbooy/Desktop/Code/stm32/lib/utils/hash.h **** 			hash_ ^= *data_++;
 1659              		.loc 4 20 3 is_stmt 1 view .LVU611
  20:/Users/joostbooy/Desktop/Code/stm32/lib/utils/hash.h **** 			hash_ ^= *data_++;
 1660              		.loc 4 20 14 view .LVU612
  21:/Users/joostbooy/Desktop/Code/stm32/lib/utils/hash.h **** 			hash_ *= prime_;
 1661              		.loc 4 21 4 view .LVU613
 1662              		.loc 4 22 4 view .LVU614
  21:/Users/joostbooy/Desktop/Code/stm32/lib/utils/hash.h **** 			hash_ *= prime_;
 1663              		.loc 4 21 10 is_stmt 0 view .LVU615
 1664 026e D4F80812 		ldr	r1, [r4, #520]
 1665 0272 2B7D     		ldrb	r3, [r5, #20]	@ zero_extendqisi2
 1666              		.loc 4 22 10 view .LVU616
 1667 0274 214A     		ldr	r2, .L332
  21:/Users/joostbooy/Desktop/Code/stm32/lib/utils/hash.h **** 			hash_ *= prime_;
 1668              		.loc 4 21 10 view .LVU617
 1669 0276 4B40     		eors	r3, r3, r1
 1670              		.loc 4 22 10 view .LVU618
 1671 0278 02FB03F3 		mul	r3, r2, r3
 1672 027c C4F80832 		str	r3, [r4, #520]
  20:/Users/joostbooy/Desktop/Code/stm32/lib/utils/hash.h **** 			hash_ ^= *data_++;
 1673              		.loc 4 20 3 is_stmt 1 view .LVU619
  20:/Users/joostbooy/Desktop/Code/stm32/lib/utils/hash.h **** 			hash_ ^= *data_++;
 1674              		.loc 4 20 14 view .LVU620
 1675              	.LVL132:
  21:/Users/joostbooy/Desktop/Code/stm32/lib/utils/hash.h **** 			hash_ *= prime_;
 1676              		.loc 4 21 4 view .LVU621
 1677              		.loc 4 22 4 view .LVU622
  21:/Users/joostbooy/Desktop/Code/stm32/lib/utils/hash.h **** 			hash_ *= prime_;
 1678              		.loc 4 21 10 is_stmt 0 view .LVU623
 1679 0280 687D     		ldrb	r0, [r5, #21]	@ zero_extendqisi2
 1680 0282 4340     		eors	r3, r3, r0
 1681              		.loc 4 22 10 view .LVU624
 1682 0284 02FB03F2 		mul	r2, r2, r3
 1683 0288 C4F80822 		str	r2, [r4, #520]
  20:/Users/joostbooy/Desktop/Code/stm32/lib/utils/hash.h **** 			hash_ ^= *data_++;
 1684              		.loc 4 20 3 is_stmt 1 view .LVU625
  20:/Users/joostbooy/Desktop/Code/stm32/lib/utils/hash.h **** 			hash_ ^= *data_++;
 1685              		.loc 4 20 14 view .LVU626
 1686              	.LVL133:
  20:/Users/joostbooy/Desktop/Code/stm32/lib/utils/hash.h **** 			hash_ ^= *data_++;
 1687              		.loc 4 20 14 is_stmt 0 view .LVU627
 1688              	.LBE345:
 1689              	.LBE346:
 1690              	.LBE405:
 116:Src/Settings/midiClock.h **** 		fileWriter.write(sync_port_);
 1691              		.loc 6 116 3 is_stmt 1 view .LVU628
 1692              	.LBB406:
 1693              	.LBB374:
 1694              	.LBB363:
  69:Src/Disk/fileWriter.h **** 				buffer[buff_pos++] = *data_++;
 1695              		.loc 2 69 8 is_stmt 0 view .LVU629
 1696 028c D4F80022 		ldr	r2, [r4, #512]
ARM GAS  /var/folders/84/_x1cyy_j36g486tldtwl37280000gn/T//cctc5fkA.s 			page 47


 1697              	.LBE363:
 1698              	.LBE374:
 1699              	.LBE406:
 116:Src/Settings/midiClock.h **** 		fileWriter.write(sync_port_);
 1700              		.loc 6 116 20 view .LVU630
 1701 0290 05F1160A 		add	r10, r5, #22
 1702              	.LVL134:
 1703              	.LBB407:
  50:Src/Disk/fileWriter.h **** 		write_buffer(&data, sizeof(T));
 1704              		.loc 2 50 7 is_stmt 1 view .LVU631
 1705              	.LBB375:
 1706              	.LBB364:
  68:Src/Disk/fileWriter.h **** 			if (buff_pos < kBufferSize) {
 1707              		.loc 2 68 3 view .LVU632
  68:Src/Disk/fileWriter.h **** 			if (buff_pos < kBufferSize) {
 1708              		.loc 2 68 20 view .LVU633
  69:Src/Disk/fileWriter.h **** 				buffer[buff_pos++] = *data_++;
 1709              		.loc 2 69 4 is_stmt 0 view .LVU634
 1710 0294 B2F5007F 		cmp	r2, #512
 1711              	.LBE364:
 1712              	.LBE375:
 1713              	.LBE407:
 116:Src/Settings/midiClock.h **** 		fileWriter.write(sync_port_);
 1714              		.loc 6 116 20 view .LVU635
 1715 0298 4FF00206 		mov	r6, #2
 1716              	.LBB408:
 1717              	.LBB376:
 1718              	.LBB365:
  69:Src/Disk/fileWriter.h **** 				buffer[buff_pos++] = *data_++;
 1719              		.loc 2 69 4 is_stmt 1 view .LVU636
  70:Src/Disk/fileWriter.h **** 				--size;
 1720              		.loc 2 70 5 view .LVU637
  70:Src/Disk/fileWriter.h **** 				--size;
 1721              		.loc 2 70 32 is_stmt 0 view .LVU638
 1722 029c D446     		mov	ip, r10
 1723              	.LVL135:
  70:Src/Disk/fileWriter.h **** 				--size;
 1724              		.loc 2 70 20 view .LVU639
 1725 029e 02F10101 		add	r1, r2, #1
  69:Src/Disk/fileWriter.h **** 				buffer[buff_pos++] = *data_++;
 1726              		.loc 2 69 4 view .LVU640
 1727 02a2 12D2     		bcs	.L199
 1728              	.LVL136:
 1729              	.L321:
  70:Src/Disk/fileWriter.h **** 				--size;
 1730              		.loc 2 70 20 view .LVU641
 1731 02a4 C4F80012 		str	r1, [r4, #512]
  70:Src/Disk/fileWriter.h **** 				--size;
 1732              		.loc 2 70 26 view .LVU642
 1733 02a8 1CF8010B 		ldrb	r0, [ip], #1	@ zero_extendqisi2
  70:Src/Disk/fileWriter.h **** 				--size;
 1734              		.loc 2 70 24 view .LVU643
 1735 02ac A054     		strb	r0, [r4, r2]
  71:Src/Disk/fileWriter.h **** 			} else {
 1736              		.loc 2 71 5 is_stmt 1 view .LVU644
 1737              	.LVL137:
  68:Src/Disk/fileWriter.h **** 			if (buff_pos < kBufferSize) {
ARM GAS  /var/folders/84/_x1cyy_j36g486tldtwl37280000gn/T//cctc5fkA.s 			page 48


 1738              		.loc 2 68 20 is_stmt 0 view .LVU645
 1739 02ae 94F80C32 		ldrb	r3, [r4, #524]	@ zero_extendqisi2
  71:Src/Disk/fileWriter.h **** 			} else {
 1740              		.loc 2 71 5 view .LVU646
 1741 02b2 013E     		subs	r6, r6, #1
 1742              	.LVL138:
  68:Src/Disk/fileWriter.h **** 			if (buff_pos < kBufferSize) {
 1743              		.loc 2 68 3 is_stmt 1 view .LVU647
  68:Src/Disk/fileWriter.h **** 			if (buff_pos < kBufferSize) {
 1744              		.loc 2 68 20 view .LVU648
 1745 02b4 F3B1     		cbz	r3, .L201
 1746 02b6 1EB3     		cbz	r6, .L320
 1747              	.LVL139:
  68:Src/Disk/fileWriter.h **** 			if (buff_pos < kBufferSize) {
 1748              		.loc 2 68 20 is_stmt 0 view .LVU649
 1749              	.LBE365:
 1750              	.LBE376:
 1751              	.LBE408:
 116:Src/Settings/midiClock.h **** 		fileWriter.write(sync_port_);
 1752              		.loc 6 116 20 view .LVU650
 1753 02b8 E246     		mov	r10, ip
 1754              	.LVL140:
 1755              	.L331:
 1756              	.LBB409:
 1757              	.LBB377:
 1758              	.LBB366:
  69:Src/Disk/fileWriter.h **** 				buffer[buff_pos++] = *data_++;
 1759              		.loc 2 69 4 is_stmt 1 view .LVU651
  70:Src/Disk/fileWriter.h **** 				--size;
 1760              		.loc 2 70 5 view .LVU652
  69:Src/Disk/fileWriter.h **** 				buffer[buff_pos++] = *data_++;
 1761              		.loc 2 69 8 is_stmt 0 view .LVU653
 1762 02ba D4F80022 		ldr	r2, [r4, #512]
  69:Src/Disk/fileWriter.h **** 				buffer[buff_pos++] = *data_++;
 1763              		.loc 2 69 4 view .LVU654
 1764 02be B2F5007F 		cmp	r2, #512
  70:Src/Disk/fileWriter.h **** 				--size;
 1765              		.loc 2 70 32 view .LVU655
 1766 02c2 D446     		mov	ip, r10
 1767              	.LVL141:
  70:Src/Disk/fileWriter.h **** 				--size;
 1768              		.loc 2 70 20 view .LVU656
 1769 02c4 02F10101 		add	r1, r2, #1
  69:Src/Disk/fileWriter.h **** 				buffer[buff_pos++] = *data_++;
 1770              		.loc 2 69 4 view .LVU657
 1771 02c8 ECD3     		bcc	.L321
 1772              	.LVL142:
 1773              	.L199:
  73:Src/Disk/fileWriter.h **** 			}
 1774              		.loc 2 73 5 is_stmt 1 view .LVU658
 1775              	.LBB353:
 1776              	.LBI353:
  78:Src/Disk/fileWriter.h **** 		uint32_t size = buff_pos;
 1777              		.loc 2 78 7 view .LVU659
 1778              	.LBB354:
  79:Src/Disk/fileWriter.h **** 		buff_pos = 0;
 1779              		.loc 2 79 3 view .LVU660
ARM GAS  /var/folders/84/_x1cyy_j36g486tldtwl37280000gn/T//cctc5fkA.s 			page 49


  80:Src/Disk/fileWriter.h **** 		return file_->write(buffer, size);
 1780              		.loc 2 80 3 view .LVU661
 1781              		.loc 2 81 22 is_stmt 0 view .LVU662
 1782 02ca D4F80432 		ldr	r3, [r4, #516]
  80:Src/Disk/fileWriter.h **** 		return file_->write(buffer, size);
 1783              		.loc 2 80 12 view .LVU663
 1784 02ce 4FF00009 		mov	r9, #0
 1785              	.LBB355:
 1786              	.LBB356:
  49:Src/Disk/file.h **** 		if (num_written) {
 1787              		.loc 3 49 24 view .LVU664
 1788 02d2 1868     		ldr	r0, [r3]
 1789              	.LBE356:
 1790              	.LBE355:
  80:Src/Disk/fileWriter.h **** 		return file_->write(buffer, size);
 1791              		.loc 2 80 12 view .LVU665
 1792 02d4 C4F80092 		str	r9, [r4, #512]
 1793              		.loc 2 81 3 is_stmt 1 view .LVU666
 1794              	.LVL143:
 1795              	.LBB359:
 1796              	.LBI355:
  47:Src/Disk/file.h **** 		UINT bw;
 1797              		.loc 3 47 7 view .LVU667
 1798              	.LBB357:
  48:Src/Disk/file.h **** 		FRESULT res = f_write(fil, data, size, &bw);
 1799              		.loc 3 48 3 view .LVU668
  49:Src/Disk/file.h **** 		if (num_written) {
 1800              		.loc 3 49 3 view .LVU669
  49:Src/Disk/file.h **** 		if (num_written) {
 1801              		.loc 3 49 24 is_stmt 0 view .LVU670
 1802 02d8 01AB     		add	r3, sp, #4
 1803              	.LVL144:
  49:Src/Disk/file.h **** 		if (num_written) {
 1804              		.loc 3 49 24 view .LVU671
 1805 02da 2146     		mov	r1, r4
 1806 02dc FFF7FEFF 		bl	f_write
 1807              	.LVL145:
 1808              		.loc 3 53 19 view .LVU672
 1809 02e0 019A     		ldr	r2, [sp, #4]
 1810              	.LVL146:
  50:Src/Disk/file.h **** 			*num_written = bw;
 1811              		.loc 3 50 3 is_stmt 1 view .LVU673
 1812              		.loc 3 53 3 view .LVU674
 1813              		.loc 3 53 19 is_stmt 0 view .LVU675
 1814 02e2 002A     		cmp	r2, #0
 1815 02e4 00F08081 		beq	.L202
 1816              	.LVL147:
 1817              		.loc 3 53 19 view .LVU676
 1818              	.LBE357:
 1819              	.LBE359:
 1820              	.LBE354:
 1821              	.LBE353:
  73:Src/Disk/fileWriter.h **** 			}
 1822              		.loc 2 73 15 view .LVU677
 1823 02e8 0121     		movs	r1, #1
 1824              	.LBB362:
 1825              	.LBB361:
ARM GAS  /var/folders/84/_x1cyy_j36g486tldtwl37280000gn/T//cctc5fkA.s 			page 50


 1826              	.LBB360:
 1827              	.LBB358:
 1828              		.loc 3 53 19 view .LVU678
 1829 02ea 0028     		cmp	r0, #0
 1830 02ec 00F0DD82 		beq	.L203
 1831              	.LBE358:
 1832              	.LBE360:
 1833              	.LBE361:
 1834              	.LBE362:
  73:Src/Disk/fileWriter.h **** 			}
 1835              		.loc 2 73 15 view .LVU679
 1836 02f0 84F80C92 		strb	r9, [r4, #524]
  68:Src/Disk/fileWriter.h **** 			if (buff_pos < kBufferSize) {
 1837              		.loc 2 68 3 is_stmt 1 view .LVU680
  68:Src/Disk/fileWriter.h **** 			if (buff_pos < kBufferSize) {
 1838              		.loc 2 68 20 view .LVU681
 1839              	.L201:
  68:Src/Disk/fileWriter.h **** 			if (buff_pos < kBufferSize) {
 1840              		.loc 2 68 20 is_stmt 0 view .LVU682
 1841 02f4 D4F80862 		ldr	r6, [r4, #520]
 1842 02f8 AAE7     		b	.L196
 1843              	.L333:
 1844 02fa 00BF     		.align	2
 1845              	.L332:
 1846 02fc 93010001 		.word	16777619
 1847              	.LVL148:
 1848              	.L320:
  68:Src/Disk/fileWriter.h **** 			if (buff_pos < kBufferSize) {
 1849              		.loc 2 68 20 view .LVU683
 1850              	.LBE366:
 1851              	.LBE377:
 1852              	.LBB378:
 1853              	.LBB372:
  20:/Users/joostbooy/Desktop/Code/stm32/lib/utils/hash.h **** 			hash_ ^= *data_++;
 1854              		.loc 4 20 3 is_stmt 1 view .LVU684
  20:/Users/joostbooy/Desktop/Code/stm32/lib/utils/hash.h **** 			hash_ ^= *data_++;
 1855              		.loc 4 20 14 view .LVU685
  21:/Users/joostbooy/Desktop/Code/stm32/lib/utils/hash.h **** 			hash_ *= prime_;
 1856              		.loc 4 21 4 view .LVU686
 1857              		.loc 4 22 4 view .LVU687
  21:/Users/joostbooy/Desktop/Code/stm32/lib/utils/hash.h **** 			hash_ *= prime_;
 1858              		.loc 4 21 10 is_stmt 0 view .LVU688
 1859 0300 A87D     		ldrb	r0, [r5, #22]	@ zero_extendqisi2
 1860 0302 D4F80812 		ldr	r1, [r4, #520]
 1861              		.loc 4 22 10 view .LVU689
 1862 0306 BB4A     		ldr	r2, .L334
  21:/Users/joostbooy/Desktop/Code/stm32/lib/utils/hash.h **** 			hash_ *= prime_;
 1863              		.loc 4 21 10 view .LVU690
 1864 0308 4840     		eors	r0, r0, r1
 1865              		.loc 4 22 10 view .LVU691
 1866 030a 02FB00F0 		mul	r0, r2, r0
 1867 030e C4F80802 		str	r0, [r4, #520]
  20:/Users/joostbooy/Desktop/Code/stm32/lib/utils/hash.h **** 			hash_ ^= *data_++;
 1868              		.loc 4 20 3 is_stmt 1 view .LVU692
  20:/Users/joostbooy/Desktop/Code/stm32/lib/utils/hash.h **** 			hash_ ^= *data_++;
 1869              		.loc 4 20 14 view .LVU693
 1870              	.LVL149:
ARM GAS  /var/folders/84/_x1cyy_j36g486tldtwl37280000gn/T//cctc5fkA.s 			page 51


  21:/Users/joostbooy/Desktop/Code/stm32/lib/utils/hash.h **** 			hash_ *= prime_;
 1871              		.loc 4 21 4 view .LVU694
 1872              		.loc 4 22 4 view .LVU695
  21:/Users/joostbooy/Desktop/Code/stm32/lib/utils/hash.h **** 			hash_ *= prime_;
 1873              		.loc 4 21 10 is_stmt 0 view .LVU696
 1874 0312 EB7D     		ldrb	r3, [r5, #23]	@ zero_extendqisi2
 1875 0314 5840     		eors	r0, r0, r3
 1876              		.loc 4 22 10 view .LVU697
 1877 0316 02FB00F2 		mul	r2, r2, r0
 1878 031a C4F80822 		str	r2, [r4, #520]
  20:/Users/joostbooy/Desktop/Code/stm32/lib/utils/hash.h **** 			hash_ ^= *data_++;
 1879              		.loc 4 20 3 is_stmt 1 view .LVU698
  20:/Users/joostbooy/Desktop/Code/stm32/lib/utils/hash.h **** 			hash_ ^= *data_++;
 1880              		.loc 4 20 14 view .LVU699
 1881              	.LVL150:
  20:/Users/joostbooy/Desktop/Code/stm32/lib/utils/hash.h **** 			hash_ ^= *data_++;
 1882              		.loc 4 20 14 is_stmt 0 view .LVU700
 1883              	.LBE372:
 1884              	.LBE378:
 1885              	.LBE409:
 1886              		.loc 6 117 3 is_stmt 1 view .LVU701
 1887              	.LBB410:
  50:Src/Disk/fileWriter.h **** 		write_buffer(&data, sizeof(T));
 1888              		.loc 2 50 7 view .LVU702
 1889              	.LBB398:
 1890              	.LBB394:
  68:Src/Disk/fileWriter.h **** 			if (buff_pos < kBufferSize) {
 1891              		.loc 2 68 3 view .LVU703
  68:Src/Disk/fileWriter.h **** 			if (buff_pos < kBufferSize) {
 1892              		.loc 2 68 20 view .LVU704
 1893              	.L198:
  69:Src/Disk/fileWriter.h **** 				buffer[buff_pos++] = *data_++;
 1894              		.loc 2 69 4 view .LVU705
  69:Src/Disk/fileWriter.h **** 				buffer[buff_pos++] = *data_++;
 1895              		.loc 2 69 8 is_stmt 0 view .LVU706
 1896 031e D4F80022 		ldr	r2, [r4, #512]
  69:Src/Disk/fileWriter.h **** 				buffer[buff_pos++] = *data_++;
 1897              		.loc 2 69 4 view .LVU707
 1898 0322 B2F5007F 		cmp	r2, #512
 1899 0326 80F0FB80 		bcs	.L204
  70:Src/Disk/fileWriter.h **** 				--size;
 1900              		.loc 2 70 5 is_stmt 1 view .LVU708
 1901              	.LVL151:
  70:Src/Disk/fileWriter.h **** 				--size;
 1902              		.loc 2 70 20 is_stmt 0 view .LVU709
 1903 032a 531C     		adds	r3, r2, #1
 1904 032c C4F80032 		str	r3, [r4, #512]
  70:Src/Disk/fileWriter.h **** 				--size;
 1905              		.loc 2 70 26 view .LVU710
 1906 0330 287E     		ldrb	r0, [r5, #24]	@ zero_extendqisi2
  70:Src/Disk/fileWriter.h **** 				--size;
 1907              		.loc 2 70 24 view .LVU711
 1908 0332 A054     		strb	r0, [r4, r2]
  71:Src/Disk/fileWriter.h **** 			} else {
 1909              		.loc 2 71 5 is_stmt 1 view .LVU712
 1910              	.LVL152:
  68:Src/Disk/fileWriter.h **** 			if (buff_pos < kBufferSize) {
ARM GAS  /var/folders/84/_x1cyy_j36g486tldtwl37280000gn/T//cctc5fkA.s 			page 52


 1911              		.loc 2 68 3 view .LVU713
  68:Src/Disk/fileWriter.h **** 			if (buff_pos < kBufferSize) {
 1912              		.loc 2 68 20 view .LVU714
 1913 0334 D4F80832 		ldr	r3, [r4, #520]
 1914 0338 94F80C22 		ldrb	r2, [r4, #524]	@ zero_extendqisi2
 1915              	.LVL153:
 1916              	.L205:
  68:Src/Disk/fileWriter.h **** 			if (buff_pos < kBufferSize) {
 1917              		.loc 2 68 20 is_stmt 0 view .LVU715
 1918              	.LBE394:
 1919              	.LBE398:
 1920              	.LBB399:
 1921              	.LBB400:
  20:/Users/joostbooy/Desktop/Code/stm32/lib/utils/hash.h **** 			hash_ ^= *data_++;
 1922              		.loc 4 20 3 is_stmt 1 view .LVU716
  20:/Users/joostbooy/Desktop/Code/stm32/lib/utils/hash.h **** 			hash_ ^= *data_++;
 1923              		.loc 4 20 14 view .LVU717
  21:/Users/joostbooy/Desktop/Code/stm32/lib/utils/hash.h **** 			hash_ *= prime_;
 1924              		.loc 4 21 4 view .LVU718
 1925              		.loc 4 22 4 view .LVU719
  21:/Users/joostbooy/Desktop/Code/stm32/lib/utils/hash.h **** 			hash_ *= prime_;
 1926              		.loc 4 21 10 is_stmt 0 view .LVU720
 1927 033c 2E7E     		ldrb	r6, [r5, #24]	@ zero_extendqisi2
 1928              		.loc 4 22 10 view .LVU721
 1929 033e AD49     		ldr	r1, .L334
  21:/Users/joostbooy/Desktop/Code/stm32/lib/utils/hash.h **** 			hash_ *= prime_;
 1930              		.loc 4 21 10 view .LVU722
 1931 0340 7340     		eors	r3, r3, r6
 1932              		.loc 4 22 10 view .LVU723
 1933 0342 01FB03F3 		mul	r3, r1, r3
 1934 0346 C4F80832 		str	r3, [r4, #520]
  20:/Users/joostbooy/Desktop/Code/stm32/lib/utils/hash.h **** 			hash_ ^= *data_++;
 1935              		.loc 4 20 3 is_stmt 1 view .LVU724
  20:/Users/joostbooy/Desktop/Code/stm32/lib/utils/hash.h **** 			hash_ ^= *data_++;
 1936              		.loc 4 20 14 view .LVU725
 1937              	.LVL154:
  20:/Users/joostbooy/Desktop/Code/stm32/lib/utils/hash.h **** 			hash_ ^= *data_++;
 1938              		.loc 4 20 14 is_stmt 0 view .LVU726
 1939              	.LBE400:
 1940              	.LBE399:
 1941              	.LBE410:
 1942              	.LBE326:
 1943              	.LBE325:
 1944              	.LBB426:
  37:Src/Settings/song.cpp **** 
  38:Src/Settings/song.cpp **** 	// track lists
  39:Src/Settings/song.cpp **** 	for (int i = 0; i < Track::NUM_TYPES; ++i) {
 1945              		.loc 1 39 20 is_stmt 1 view .LVU727
 1946 034a 05F13406 		add	r6, r5, #52
 1947              	.LVL155:
 1948              	.L217:
  40:Src/Settings/song.cpp **** 		fileWriter.write(track_type_list_[i]);
 1949              		.loc 1 40 3 discriminator 2 view .LVU728
 1950              	.LBB427:
 1951              	.LBI427:
  50:Src/Disk/fileWriter.h **** 		write_buffer(&data, sizeof(T));
 1952              		.loc 2 50 7 discriminator 2 view .LVU729
ARM GAS  /var/folders/84/_x1cyy_j36g486tldtwl37280000gn/T//cctc5fkA.s 			page 53


 1953              	.LBB428:
 1954              	.LBI428:
  65:Src/Disk/fileWriter.h **** 		uint8_t *data_ = reinterpret_cast<uint8_t *>(data);
 1955              		.loc 2 65 7 discriminator 2 view .LVU730
 1956              	.LBB429:
  68:Src/Disk/fileWriter.h **** 			if (buff_pos < kBufferSize) {
 1957              		.loc 2 68 3 discriminator 2 view .LVU731
  68:Src/Disk/fileWriter.h **** 			if (buff_pos < kBufferSize) {
 1958              		.loc 2 68 20 discriminator 2 view .LVU732
 1959 034e B2B3     		cbz	r2, .L210
  69:Src/Disk/fileWriter.h **** 				buffer[buff_pos++] = *data_++;
 1960              		.loc 2 69 8 is_stmt 0 view .LVU733
 1961 0350 D4F80022 		ldr	r2, [r4, #512]
 1962              	.LBE429:
 1963              	.LBE428:
 1964              	.LBE427:
 1965              		.loc 1 40 38 view .LVU734
 1966 0354 B146     		mov	r9, r6
 1967              	.LBB448:
 1968              	.LBB442:
 1969              	.LBB440:
  69:Src/Disk/fileWriter.h **** 				buffer[buff_pos++] = *data_++;
 1970              		.loc 2 69 4 view .LVU735
 1971 0356 B2F5007F 		cmp	r2, #512
  68:Src/Disk/fileWriter.h **** 			if (buff_pos < kBufferSize) {
 1972              		.loc 2 68 20 view .LVU736
 1973 035a 4FF01108 		mov	r8, #17
  69:Src/Disk/fileWriter.h **** 				buffer[buff_pos++] = *data_++;
 1974              		.loc 2 69 4 is_stmt 1 view .LVU737
  70:Src/Disk/fileWriter.h **** 				--size;
 1975              		.loc 2 70 5 view .LVU738
  70:Src/Disk/fileWriter.h **** 				--size;
 1976              		.loc 2 70 32 is_stmt 0 view .LVU739
 1977 035e CE46     		mov	lr, r9
 1978              	.LVL156:
  70:Src/Disk/fileWriter.h **** 				--size;
 1979              		.loc 2 70 20 view .LVU740
 1980 0360 02F10100 		add	r0, r2, #1
  69:Src/Disk/fileWriter.h **** 				buffer[buff_pos++] = *data_++;
 1981              		.loc 2 69 4 view .LVU741
 1982 0364 15D2     		bcs	.L211
 1983              	.LVL157:
 1984              	.L322:
  70:Src/Disk/fileWriter.h **** 				--size;
 1985              		.loc 2 70 20 view .LVU742
 1986 0366 C4F80002 		str	r0, [r4, #512]
  70:Src/Disk/fileWriter.h **** 				--size;
 1987              		.loc 2 70 26 view .LVU743
 1988 036a 1EF8010B 		ldrb	r0, [lr], #1	@ zero_extendqisi2
  70:Src/Disk/fileWriter.h **** 				--size;
 1989              		.loc 2 70 24 view .LVU744
 1990 036e A054     		strb	r0, [r4, r2]
  71:Src/Disk/fileWriter.h **** 			} else {
 1991              		.loc 2 71 5 is_stmt 1 view .LVU745
 1992              	.LVL158:
  71:Src/Disk/fileWriter.h **** 			} else {
 1993              		.loc 2 71 5 is_stmt 0 view .LVU746
ARM GAS  /var/folders/84/_x1cyy_j36g486tldtwl37280000gn/T//cctc5fkA.s 			page 54


 1994 0370 94F80C22 		ldrb	r2, [r4, #524]	@ zero_extendqisi2
 1995 0374 08F1FF38 		add	r8, r8, #-1
 1996              	.LVL159:
  68:Src/Disk/fileWriter.h **** 			if (buff_pos < kBufferSize) {
 1997              		.loc 2 68 3 is_stmt 1 view .LVU747
  68:Src/Disk/fileWriter.h **** 			if (buff_pos < kBufferSize) {
 1998              		.loc 2 68 20 view .LVU748
 1999 0378 02B3     		cbz	r2, .L213
 2000 037a B8F1000F 		cmp	r8, #0
 2001 037e 1ED0     		beq	.L210
  73:Src/Disk/fileWriter.h **** 			}
 2002              		.loc 2 73 15 is_stmt 0 view .LVU749
 2003 0380 F146     		mov	r9, lr
 2004              	.LVL160:
 2005              	.L323:
  69:Src/Disk/fileWriter.h **** 				buffer[buff_pos++] = *data_++;
 2006              		.loc 2 69 4 is_stmt 1 view .LVU750
  70:Src/Disk/fileWriter.h **** 				--size;
 2007              		.loc 2 70 5 view .LVU751
  69:Src/Disk/fileWriter.h **** 				buffer[buff_pos++] = *data_++;
 2008              		.loc 2 69 8 is_stmt 0 view .LVU752
 2009 0382 D4F80022 		ldr	r2, [r4, #512]
  69:Src/Disk/fileWriter.h **** 				buffer[buff_pos++] = *data_++;
 2010              		.loc 2 69 4 view .LVU753
 2011 0386 B2F5007F 		cmp	r2, #512
  70:Src/Disk/fileWriter.h **** 				--size;
 2012              		.loc 2 70 32 view .LVU754
 2013 038a CE46     		mov	lr, r9
 2014              	.LVL161:
  70:Src/Disk/fileWriter.h **** 				--size;
 2015              		.loc 2 70 20 view .LVU755
 2016 038c 02F10100 		add	r0, r2, #1
  69:Src/Disk/fileWriter.h **** 				buffer[buff_pos++] = *data_++;
 2017              		.loc 2 69 4 view .LVU756
 2018 0390 E9D3     		bcc	.L322
 2019              	.LVL162:
 2020              	.L211:
  73:Src/Disk/fileWriter.h **** 			}
 2021              		.loc 2 73 5 is_stmt 1 view .LVU757
 2022              	.LBB430:
 2023              	.LBI430:
  78:Src/Disk/fileWriter.h **** 		uint32_t size = buff_pos;
 2024              		.loc 2 78 7 view .LVU758
 2025              	.LBB431:
  79:Src/Disk/fileWriter.h **** 		buff_pos = 0;
 2026              		.loc 2 79 3 view .LVU759
  80:Src/Disk/fileWriter.h **** 		return file_->write(buffer, size);
 2027              		.loc 2 80 3 view .LVU760
 2028              		.loc 2 81 22 is_stmt 0 view .LVU761
 2029 0392 D4F80432 		ldr	r3, [r4, #516]
  80:Src/Disk/fileWriter.h **** 		return file_->write(buffer, size);
 2030              		.loc 2 80 12 view .LVU762
 2031 0396 4FF0000A 		mov	r10, #0
 2032              	.LBB432:
 2033              	.LBB433:
  49:Src/Disk/file.h **** 		if (num_written) {
 2034              		.loc 3 49 24 view .LVU763
ARM GAS  /var/folders/84/_x1cyy_j36g486tldtwl37280000gn/T//cctc5fkA.s 			page 55


 2035 039a 1868     		ldr	r0, [r3]
 2036              	.LBE433:
 2037              	.LBE432:
  80:Src/Disk/fileWriter.h **** 		return file_->write(buffer, size);
 2038              		.loc 2 80 12 view .LVU764
 2039 039c C4F800A2 		str	r10, [r4, #512]
 2040              		.loc 2 81 3 is_stmt 1 view .LVU765
 2041              	.LVL163:
 2042              	.LBB436:
 2043              	.LBI432:
  47:Src/Disk/file.h **** 		UINT bw;
 2044              		.loc 3 47 7 view .LVU766
 2045              	.LBB434:
  48:Src/Disk/file.h **** 		FRESULT res = f_write(fil, data, size, &bw);
 2046              		.loc 3 48 3 view .LVU767
  49:Src/Disk/file.h **** 		if (num_written) {
 2047              		.loc 3 49 3 view .LVU768
  49:Src/Disk/file.h **** 		if (num_written) {
 2048              		.loc 3 49 24 is_stmt 0 view .LVU769
 2049 03a0 01AB     		add	r3, sp, #4
 2050              	.LVL164:
  49:Src/Disk/file.h **** 		if (num_written) {
 2051              		.loc 3 49 24 view .LVU770
 2052 03a2 2146     		mov	r1, r4
 2053 03a4 FFF7FEFF 		bl	f_write
 2054              	.LVL165:
 2055              		.loc 3 53 19 view .LVU771
 2056 03a8 019A     		ldr	r2, [sp, #4]
 2057              	.LVL166:
  50:Src/Disk/file.h **** 			*num_written = bw;
 2058              		.loc 3 50 3 is_stmt 1 view .LVU772
 2059              		.loc 3 53 3 view .LVU773
 2060              		.loc 3 53 19 is_stmt 0 view .LVU774
 2061 03aa 002A     		cmp	r2, #0
 2062 03ac 00F0B080 		beq	.L214
 2063              	.LVL167:
 2064              		.loc 3 53 19 view .LVU775
 2065              	.LBE434:
 2066              	.LBE436:
 2067              	.LBE431:
 2068              	.LBE430:
  73:Src/Disk/fileWriter.h **** 			}
 2069              		.loc 2 73 15 view .LVU776
 2070 03b0 0121     		movs	r1, #1
 2071              	.LBB439:
 2072              	.LBB438:
 2073              	.LBB437:
 2074              	.LBB435:
 2075              		.loc 3 53 19 view .LVU777
 2076 03b2 0028     		cmp	r0, #0
 2077 03b4 00F0AF80 		beq	.L215
 2078              	.LBE435:
 2079              	.LBE437:
 2080              	.LBE438:
 2081              	.LBE439:
  73:Src/Disk/fileWriter.h **** 			}
 2082              		.loc 2 73 15 view .LVU778
ARM GAS  /var/folders/84/_x1cyy_j36g486tldtwl37280000gn/T//cctc5fkA.s 			page 56


 2083 03b8 84F80CA2 		strb	r10, [r4, #524]
 2084              	.LVL168:
  68:Src/Disk/fileWriter.h **** 			if (buff_pos < kBufferSize) {
 2085              		.loc 2 68 3 is_stmt 1 view .LVU779
  68:Src/Disk/fileWriter.h **** 			if (buff_pos < kBufferSize) {
 2086              		.loc 2 68 20 view .LVU780
 2087              	.L213:
  68:Src/Disk/fileWriter.h **** 			if (buff_pos < kBufferSize) {
 2088              		.loc 2 68 20 is_stmt 0 view .LVU781
 2089 03bc 0022     		movs	r2, #0
 2090              	.L210:
 2091              	.LVL169:
  68:Src/Disk/fileWriter.h **** 			if (buff_pos < kBufferSize) {
 2092              		.loc 2 68 20 view .LVU782
 2093              	.LBE440:
 2094              	.LBE442:
 2095              	.LBB443:
 2096              	.LBB444:
  21:/Users/joostbooy/Desktop/Code/stm32/lib/utils/hash.h **** 			hash_ *= prime_;
 2097              		.loc 4 21 4 is_stmt 1 view .LVU783
 2098              		.loc 4 22 4 view .LVU784
  21:/Users/joostbooy/Desktop/Code/stm32/lib/utils/hash.h **** 			hash_ *= prime_;
 2099              		.loc 4 21 10 is_stmt 0 view .LVU785
 2100 03be 3078     		ldrb	r0, [r6]	@ zero_extendqisi2
 2101 03c0 D4F80812 		ldr	r1, [r4, #520]
 2102              		.loc 4 22 10 view .LVU786
 2103 03c4 8B4B     		ldr	r3, .L334
  21:/Users/joostbooy/Desktop/Code/stm32/lib/utils/hash.h **** 			hash_ *= prime_;
 2104              		.loc 4 21 10 view .LVU787
 2105 03c6 4840     		eors	r0, r0, r1
 2106              		.loc 4 22 10 view .LVU788
 2107 03c8 03FB00F1 		mul	r1, r3, r0
 2108 03cc C4F80812 		str	r1, [r4, #520]
  20:/Users/joostbooy/Desktop/Code/stm32/lib/utils/hash.h **** 			hash_ ^= *data_++;
 2109              		.loc 4 20 3 is_stmt 1 view .LVU789
  20:/Users/joostbooy/Desktop/Code/stm32/lib/utils/hash.h **** 			hash_ ^= *data_++;
 2110              		.loc 4 20 14 view .LVU790
 2111              	.LVL170:
  21:/Users/joostbooy/Desktop/Code/stm32/lib/utils/hash.h **** 			hash_ *= prime_;
 2112              		.loc 4 21 4 view .LVU791
 2113              		.loc 4 22 4 view .LVU792
  21:/Users/joostbooy/Desktop/Code/stm32/lib/utils/hash.h **** 			hash_ *= prime_;
 2114              		.loc 4 21 10 is_stmt 0 view .LVU793
 2115 03d0 7078     		ldrb	r0, [r6, #1]	@ zero_extendqisi2
 2116 03d2 4840     		eors	r0, r0, r1
 2117              		.loc 4 22 10 view .LVU794
 2118 03d4 03FB00F0 		mul	r0, r3, r0
 2119 03d8 C4F80802 		str	r0, [r4, #520]
  20:/Users/joostbooy/Desktop/Code/stm32/lib/utils/hash.h **** 			hash_ ^= *data_++;
 2120              		.loc 4 20 3 is_stmt 1 view .LVU795
  20:/Users/joostbooy/Desktop/Code/stm32/lib/utils/hash.h **** 			hash_ ^= *data_++;
 2121              		.loc 4 20 14 view .LVU796
 2122              	.LVL171:
  21:/Users/joostbooy/Desktop/Code/stm32/lib/utils/hash.h **** 			hash_ *= prime_;
 2123              		.loc 4 21 4 view .LVU797
 2124              		.loc 4 22 4 view .LVU798
  21:/Users/joostbooy/Desktop/Code/stm32/lib/utils/hash.h **** 			hash_ *= prime_;
ARM GAS  /var/folders/84/_x1cyy_j36g486tldtwl37280000gn/T//cctc5fkA.s 			page 57


 2125              		.loc 4 21 10 is_stmt 0 view .LVU799
 2126 03dc B178     		ldrb	r1, [r6, #2]	@ zero_extendqisi2
 2127 03de 4140     		eors	r1, r1, r0
 2128              		.loc 4 22 10 view .LVU800
 2129 03e0 03FB01F0 		mul	r0, r3, r1
 2130 03e4 C4F80802 		str	r0, [r4, #520]
  20:/Users/joostbooy/Desktop/Code/stm32/lib/utils/hash.h **** 			hash_ ^= *data_++;
 2131              		.loc 4 20 3 is_stmt 1 view .LVU801
  20:/Users/joostbooy/Desktop/Code/stm32/lib/utils/hash.h **** 			hash_ ^= *data_++;
 2132              		.loc 4 20 14 view .LVU802
 2133              	.LVL172:
  21:/Users/joostbooy/Desktop/Code/stm32/lib/utils/hash.h **** 			hash_ *= prime_;
 2134              		.loc 4 21 4 view .LVU803
 2135              		.loc 4 22 4 view .LVU804
  21:/Users/joostbooy/Desktop/Code/stm32/lib/utils/hash.h **** 			hash_ *= prime_;
 2136              		.loc 4 21 10 is_stmt 0 view .LVU805
 2137 03e8 F178     		ldrb	r1, [r6, #3]	@ zero_extendqisi2
 2138 03ea 4140     		eors	r1, r1, r0
 2139              		.loc 4 22 10 view .LVU806
 2140 03ec 03FB01F1 		mul	r1, r3, r1
 2141 03f0 C4F80812 		str	r1, [r4, #520]
  20:/Users/joostbooy/Desktop/Code/stm32/lib/utils/hash.h **** 			hash_ ^= *data_++;
 2142              		.loc 4 20 3 is_stmt 1 view .LVU807
  20:/Users/joostbooy/Desktop/Code/stm32/lib/utils/hash.h **** 			hash_ ^= *data_++;
 2143              		.loc 4 20 14 view .LVU808
 2144              	.LVL173:
  21:/Users/joostbooy/Desktop/Code/stm32/lib/utils/hash.h **** 			hash_ *= prime_;
 2145              		.loc 4 21 4 view .LVU809
 2146              		.loc 4 22 4 view .LVU810
  21:/Users/joostbooy/Desktop/Code/stm32/lib/utils/hash.h **** 			hash_ *= prime_;
 2147              		.loc 4 21 10 is_stmt 0 view .LVU811
 2148 03f4 3079     		ldrb	r0, [r6, #4]	@ zero_extendqisi2
 2149 03f6 4840     		eors	r0, r0, r1
 2150              		.loc 4 22 10 view .LVU812
 2151 03f8 03FB00F1 		mul	r1, r3, r0
 2152 03fc C4F80812 		str	r1, [r4, #520]
  20:/Users/joostbooy/Desktop/Code/stm32/lib/utils/hash.h **** 			hash_ ^= *data_++;
 2153              		.loc 4 20 3 is_stmt 1 view .LVU813
  20:/Users/joostbooy/Desktop/Code/stm32/lib/utils/hash.h **** 			hash_ ^= *data_++;
 2154              		.loc 4 20 14 view .LVU814
 2155              	.LVL174:
  21:/Users/joostbooy/Desktop/Code/stm32/lib/utils/hash.h **** 			hash_ *= prime_;
 2156              		.loc 4 21 4 view .LVU815
 2157              		.loc 4 22 4 view .LVU816
  21:/Users/joostbooy/Desktop/Code/stm32/lib/utils/hash.h **** 			hash_ *= prime_;
 2158              		.loc 4 21 10 is_stmt 0 view .LVU817
 2159 0400 7079     		ldrb	r0, [r6, #5]	@ zero_extendqisi2
 2160 0402 4840     		eors	r0, r0, r1
 2161              		.loc 4 22 10 view .LVU818
 2162 0404 03FB00F0 		mul	r0, r3, r0
 2163 0408 C4F80802 		str	r0, [r4, #520]
  20:/Users/joostbooy/Desktop/Code/stm32/lib/utils/hash.h **** 			hash_ ^= *data_++;
 2164              		.loc 4 20 3 is_stmt 1 view .LVU819
  20:/Users/joostbooy/Desktop/Code/stm32/lib/utils/hash.h **** 			hash_ ^= *data_++;
 2165              		.loc 4 20 14 view .LVU820
 2166              	.LVL175:
  21:/Users/joostbooy/Desktop/Code/stm32/lib/utils/hash.h **** 			hash_ *= prime_;
ARM GAS  /var/folders/84/_x1cyy_j36g486tldtwl37280000gn/T//cctc5fkA.s 			page 58


 2167              		.loc 4 21 4 view .LVU821
 2168              		.loc 4 22 4 view .LVU822
  21:/Users/joostbooy/Desktop/Code/stm32/lib/utils/hash.h **** 			hash_ *= prime_;
 2169              		.loc 4 21 10 is_stmt 0 view .LVU823
 2170 040c B179     		ldrb	r1, [r6, #6]	@ zero_extendqisi2
 2171 040e 4140     		eors	r1, r1, r0
 2172              		.loc 4 22 10 view .LVU824
 2173 0410 03FB01F0 		mul	r0, r3, r1
 2174 0414 C4F80802 		str	r0, [r4, #520]
  20:/Users/joostbooy/Desktop/Code/stm32/lib/utils/hash.h **** 			hash_ ^= *data_++;
 2175              		.loc 4 20 3 is_stmt 1 view .LVU825
  20:/Users/joostbooy/Desktop/Code/stm32/lib/utils/hash.h **** 			hash_ ^= *data_++;
 2176              		.loc 4 20 14 view .LVU826
 2177              	.LVL176:
  21:/Users/joostbooy/Desktop/Code/stm32/lib/utils/hash.h **** 			hash_ *= prime_;
 2178              		.loc 4 21 4 view .LVU827
 2179              		.loc 4 22 4 view .LVU828
  21:/Users/joostbooy/Desktop/Code/stm32/lib/utils/hash.h **** 			hash_ *= prime_;
 2180              		.loc 4 21 10 is_stmt 0 view .LVU829
 2181 0418 F179     		ldrb	r1, [r6, #7]	@ zero_extendqisi2
 2182 041a 4140     		eors	r1, r1, r0
 2183              		.loc 4 22 10 view .LVU830
 2184 041c 03FB01F1 		mul	r1, r3, r1
 2185 0420 C4F80812 		str	r1, [r4, #520]
  20:/Users/joostbooy/Desktop/Code/stm32/lib/utils/hash.h **** 			hash_ ^= *data_++;
 2186              		.loc 4 20 3 is_stmt 1 view .LVU831
  20:/Users/joostbooy/Desktop/Code/stm32/lib/utils/hash.h **** 			hash_ ^= *data_++;
 2187              		.loc 4 20 14 view .LVU832
 2188              	.LVL177:
  21:/Users/joostbooy/Desktop/Code/stm32/lib/utils/hash.h **** 			hash_ *= prime_;
 2189              		.loc 4 21 4 view .LVU833
 2190              		.loc 4 22 4 view .LVU834
  21:/Users/joostbooy/Desktop/Code/stm32/lib/utils/hash.h **** 			hash_ *= prime_;
 2191              		.loc 4 21 10 is_stmt 0 view .LVU835
 2192 0424 307A     		ldrb	r0, [r6, #8]	@ zero_extendqisi2
 2193 0426 4840     		eors	r0, r0, r1
 2194              		.loc 4 22 10 view .LVU836
 2195 0428 03FB00F1 		mul	r1, r3, r0
 2196 042c C4F80812 		str	r1, [r4, #520]
  20:/Users/joostbooy/Desktop/Code/stm32/lib/utils/hash.h **** 			hash_ ^= *data_++;
 2197              		.loc 4 20 3 is_stmt 1 view .LVU837
  20:/Users/joostbooy/Desktop/Code/stm32/lib/utils/hash.h **** 			hash_ ^= *data_++;
 2198              		.loc 4 20 14 view .LVU838
 2199              	.LVL178:
  21:/Users/joostbooy/Desktop/Code/stm32/lib/utils/hash.h **** 			hash_ *= prime_;
 2200              		.loc 4 21 4 view .LVU839
 2201              		.loc 4 22 4 view .LVU840
  21:/Users/joostbooy/Desktop/Code/stm32/lib/utils/hash.h **** 			hash_ *= prime_;
 2202              		.loc 4 21 10 is_stmt 0 view .LVU841
 2203 0430 707A     		ldrb	r0, [r6, #9]	@ zero_extendqisi2
 2204 0432 4840     		eors	r0, r0, r1
 2205              		.loc 4 22 10 view .LVU842
 2206 0434 03FB00F0 		mul	r0, r3, r0
 2207 0438 C4F80802 		str	r0, [r4, #520]
  20:/Users/joostbooy/Desktop/Code/stm32/lib/utils/hash.h **** 			hash_ ^= *data_++;
 2208              		.loc 4 20 3 is_stmt 1 view .LVU843
  20:/Users/joostbooy/Desktop/Code/stm32/lib/utils/hash.h **** 			hash_ ^= *data_++;
ARM GAS  /var/folders/84/_x1cyy_j36g486tldtwl37280000gn/T//cctc5fkA.s 			page 59


 2209              		.loc 4 20 14 view .LVU844
 2210              	.LVL179:
  21:/Users/joostbooy/Desktop/Code/stm32/lib/utils/hash.h **** 			hash_ *= prime_;
 2211              		.loc 4 21 4 view .LVU845
 2212              		.loc 4 22 4 view .LVU846
  21:/Users/joostbooy/Desktop/Code/stm32/lib/utils/hash.h **** 			hash_ *= prime_;
 2213              		.loc 4 21 10 is_stmt 0 view .LVU847
 2214 043c B17A     		ldrb	r1, [r6, #10]	@ zero_extendqisi2
 2215 043e 4140     		eors	r1, r1, r0
 2216              		.loc 4 22 10 view .LVU848
 2217 0440 03FB01F0 		mul	r0, r3, r1
 2218 0444 C4F80802 		str	r0, [r4, #520]
  20:/Users/joostbooy/Desktop/Code/stm32/lib/utils/hash.h **** 			hash_ ^= *data_++;
 2219              		.loc 4 20 3 is_stmt 1 view .LVU849
  20:/Users/joostbooy/Desktop/Code/stm32/lib/utils/hash.h **** 			hash_ ^= *data_++;
 2220              		.loc 4 20 14 view .LVU850
 2221              	.LVL180:
  21:/Users/joostbooy/Desktop/Code/stm32/lib/utils/hash.h **** 			hash_ *= prime_;
 2222              		.loc 4 21 4 view .LVU851
 2223              		.loc 4 22 4 view .LVU852
  21:/Users/joostbooy/Desktop/Code/stm32/lib/utils/hash.h **** 			hash_ *= prime_;
 2224              		.loc 4 21 10 is_stmt 0 view .LVU853
 2225 0448 F17A     		ldrb	r1, [r6, #11]	@ zero_extendqisi2
 2226 044a 4140     		eors	r1, r1, r0
 2227              		.loc 4 22 10 view .LVU854
 2228 044c 03FB01F1 		mul	r1, r3, r1
 2229 0450 C4F80812 		str	r1, [r4, #520]
  20:/Users/joostbooy/Desktop/Code/stm32/lib/utils/hash.h **** 			hash_ ^= *data_++;
 2230              		.loc 4 20 3 is_stmt 1 view .LVU855
  20:/Users/joostbooy/Desktop/Code/stm32/lib/utils/hash.h **** 			hash_ ^= *data_++;
 2231              		.loc 4 20 14 view .LVU856
 2232              	.LVL181:
  21:/Users/joostbooy/Desktop/Code/stm32/lib/utils/hash.h **** 			hash_ *= prime_;
 2233              		.loc 4 21 4 view .LVU857
 2234              		.loc 4 22 4 view .LVU858
  21:/Users/joostbooy/Desktop/Code/stm32/lib/utils/hash.h **** 			hash_ *= prime_;
 2235              		.loc 4 21 10 is_stmt 0 view .LVU859
 2236 0454 307B     		ldrb	r0, [r6, #12]	@ zero_extendqisi2
 2237 0456 4840     		eors	r0, r0, r1
 2238              		.loc 4 22 10 view .LVU860
 2239 0458 03FB00F1 		mul	r1, r3, r0
 2240 045c C4F80812 		str	r1, [r4, #520]
  20:/Users/joostbooy/Desktop/Code/stm32/lib/utils/hash.h **** 			hash_ ^= *data_++;
 2241              		.loc 4 20 3 is_stmt 1 view .LVU861
  20:/Users/joostbooy/Desktop/Code/stm32/lib/utils/hash.h **** 			hash_ ^= *data_++;
 2242              		.loc 4 20 14 view .LVU862
 2243              	.LVL182:
  21:/Users/joostbooy/Desktop/Code/stm32/lib/utils/hash.h **** 			hash_ *= prime_;
 2244              		.loc 4 21 4 view .LVU863
 2245              		.loc 4 22 4 view .LVU864
  21:/Users/joostbooy/Desktop/Code/stm32/lib/utils/hash.h **** 			hash_ *= prime_;
 2246              		.loc 4 21 10 is_stmt 0 view .LVU865
 2247 0460 707B     		ldrb	r0, [r6, #13]	@ zero_extendqisi2
 2248 0462 4840     		eors	r0, r0, r1
 2249              		.loc 4 22 10 view .LVU866
 2250 0464 03FB00F0 		mul	r0, r3, r0
 2251 0468 C4F80802 		str	r0, [r4, #520]
ARM GAS  /var/folders/84/_x1cyy_j36g486tldtwl37280000gn/T//cctc5fkA.s 			page 60


  20:/Users/joostbooy/Desktop/Code/stm32/lib/utils/hash.h **** 			hash_ ^= *data_++;
 2252              		.loc 4 20 3 is_stmt 1 view .LVU867
  20:/Users/joostbooy/Desktop/Code/stm32/lib/utils/hash.h **** 			hash_ ^= *data_++;
 2253              		.loc 4 20 14 view .LVU868
 2254              	.LVL183:
  21:/Users/joostbooy/Desktop/Code/stm32/lib/utils/hash.h **** 			hash_ *= prime_;
 2255              		.loc 4 21 4 view .LVU869
 2256              		.loc 4 22 4 view .LVU870
  21:/Users/joostbooy/Desktop/Code/stm32/lib/utils/hash.h **** 			hash_ *= prime_;
 2257              		.loc 4 21 10 is_stmt 0 view .LVU871
 2258 046c B17B     		ldrb	r1, [r6, #14]	@ zero_extendqisi2
 2259 046e 4140     		eors	r1, r1, r0
 2260              		.loc 4 22 10 view .LVU872
 2261 0470 03FB01F0 		mul	r0, r3, r1
 2262 0474 C4F80802 		str	r0, [r4, #520]
  20:/Users/joostbooy/Desktop/Code/stm32/lib/utils/hash.h **** 			hash_ ^= *data_++;
 2263              		.loc 4 20 3 is_stmt 1 view .LVU873
  20:/Users/joostbooy/Desktop/Code/stm32/lib/utils/hash.h **** 			hash_ ^= *data_++;
 2264              		.loc 4 20 14 view .LVU874
 2265              	.LVL184:
  21:/Users/joostbooy/Desktop/Code/stm32/lib/utils/hash.h **** 			hash_ *= prime_;
 2266              		.loc 4 21 4 view .LVU875
 2267              		.loc 4 22 4 view .LVU876
  21:/Users/joostbooy/Desktop/Code/stm32/lib/utils/hash.h **** 			hash_ *= prime_;
 2268              		.loc 4 21 10 is_stmt 0 view .LVU877
 2269 0478 F17B     		ldrb	r1, [r6, #15]	@ zero_extendqisi2
 2270 047a 4140     		eors	r1, r1, r0
 2271              		.loc 4 22 10 view .LVU878
 2272 047c 03FB01F1 		mul	r1, r3, r1
 2273 0480 C4F80812 		str	r1, [r4, #520]
  20:/Users/joostbooy/Desktop/Code/stm32/lib/utils/hash.h **** 			hash_ ^= *data_++;
 2274              		.loc 4 20 3 is_stmt 1 view .LVU879
  20:/Users/joostbooy/Desktop/Code/stm32/lib/utils/hash.h **** 			hash_ ^= *data_++;
 2275              		.loc 4 20 14 view .LVU880
 2276              	.LVL185:
  21:/Users/joostbooy/Desktop/Code/stm32/lib/utils/hash.h **** 			hash_ *= prime_;
 2277              		.loc 4 21 4 view .LVU881
 2278              		.loc 4 22 4 view .LVU882
  21:/Users/joostbooy/Desktop/Code/stm32/lib/utils/hash.h **** 			hash_ *= prime_;
 2279              		.loc 4 21 10 is_stmt 0 view .LVU883
 2280 0484 307C     		ldrb	r0, [r6, #16]	@ zero_extendqisi2
 2281 0486 1136     		adds	r6, r6, #17
 2282              	.LVL186:
  21:/Users/joostbooy/Desktop/Code/stm32/lib/utils/hash.h **** 			hash_ *= prime_;
 2283              		.loc 4 21 10 view .LVU884
 2284 0488 4140     		eors	r1, r1, r0
 2285              		.loc 4 22 10 view .LVU885
 2286 048a 03FB01F3 		mul	r3, r3, r1
 2287              	.LBE444:
 2288              	.LBE443:
 2289              	.LBE448:
  39:Src/Settings/song.cpp **** 		fileWriter.write(track_type_list_[i]);
 2290              		.loc 1 39 20 view .LVU886
 2291 048e BE42     		cmp	r6, r7
 2292              	.LBB449:
 2293              	.LBB446:
 2294              	.LBB445:
ARM GAS  /var/folders/84/_x1cyy_j36g486tldtwl37280000gn/T//cctc5fkA.s 			page 61


 2295              		.loc 4 22 10 view .LVU887
 2296 0490 C4F80832 		str	r3, [r4, #520]
  20:/Users/joostbooy/Desktop/Code/stm32/lib/utils/hash.h **** 			hash_ ^= *data_++;
 2297              		.loc 4 20 3 is_stmt 1 view .LVU888
  20:/Users/joostbooy/Desktop/Code/stm32/lib/utils/hash.h **** 			hash_ ^= *data_++;
 2298              		.loc 4 20 14 view .LVU889
 2299              	.LVL187:
  20:/Users/joostbooy/Desktop/Code/stm32/lib/utils/hash.h **** 			hash_ ^= *data_++;
 2300              		.loc 4 20 14 is_stmt 0 view .LVU890
 2301              	.LBE445:
 2302              	.LBE446:
 2303              	.LBE449:
  39:Src/Settings/song.cpp **** 		fileWriter.write(track_type_list_[i]);
 2304              		.loc 1 39 2 is_stmt 1 view .LVU891
  39:Src/Settings/song.cpp **** 		fileWriter.write(track_type_list_[i]);
 2305              		.loc 1 39 20 view .LVU892
 2306 0494 7FF45BAF 		bne	.L217
 2307 0498 05F17F09 		add	r9, r5, #127
 2308 049c 05F18806 		add	r6, r5, #136
 2309              	.L225:
 2310              	.LVL188:
  39:Src/Settings/song.cpp **** 		fileWriter.write(track_type_list_[i]);
 2311              		.loc 1 39 20 is_stmt 0 view .LVU893
 2312              	.LBE426:
 2313              	.LBB451:
  41:Src/Settings/song.cpp **** 	}
  42:Src/Settings/song.cpp **** 
  43:Src/Settings/song.cpp **** 	// song name
  44:Src/Settings/song.cpp **** 	for (int i = 0; i < max_name_length(); ++i) {
  45:Src/Settings/song.cpp **** 		fileWriter.write(name_[i]);
 2314              		.loc 1 45 3 is_stmt 1 discriminator 2 view .LVU894
 2315              	.LBB452:
 2316              	.LBI452:
  50:Src/Disk/fileWriter.h **** 		write_buffer(&data, sizeof(T));
 2317              		.loc 2 50 7 discriminator 2 view .LVU895
 2318              	.LBB453:
 2319              	.LBI453:
  65:Src/Disk/fileWriter.h **** 		uint8_t *data_ = reinterpret_cast<uint8_t *>(data);
 2320              		.loc 2 65 7 discriminator 2 view .LVU896
 2321              	.LBB454:
  68:Src/Disk/fileWriter.h **** 			if (buff_pos < kBufferSize) {
 2322              		.loc 2 68 3 discriminator 2 view .LVU897
  68:Src/Disk/fileWriter.h **** 			if (buff_pos < kBufferSize) {
 2323              		.loc 2 68 20 discriminator 2 view .LVU898
 2324 04a0 62B1     		cbz	r2, .L219
 2325              	.L218:
  69:Src/Disk/fileWriter.h **** 				buffer[buff_pos++] = *data_++;
 2326              		.loc 2 69 4 view .LVU899
  69:Src/Disk/fileWriter.h **** 				buffer[buff_pos++] = *data_++;
 2327              		.loc 2 69 8 is_stmt 0 view .LVU900
 2328 04a2 D4F80022 		ldr	r2, [r4, #512]
  69:Src/Disk/fileWriter.h **** 				buffer[buff_pos++] = *data_++;
 2329              		.loc 2 69 4 view .LVU901
 2330 04a6 B2F5007F 		cmp	r2, #512
 2331 04aa 15D2     		bcs	.L220
  70:Src/Disk/fileWriter.h **** 				--size;
 2332              		.loc 2 70 5 is_stmt 1 view .LVU902
ARM GAS  /var/folders/84/_x1cyy_j36g486tldtwl37280000gn/T//cctc5fkA.s 			page 62


 2333              	.LVL189:
  70:Src/Disk/fileWriter.h **** 				--size;
 2334              		.loc 2 70 20 is_stmt 0 view .LVU903
 2335 04ac 511C     		adds	r1, r2, #1
 2336 04ae C4F80012 		str	r1, [r4, #512]
  70:Src/Disk/fileWriter.h **** 				--size;
 2337              		.loc 2 70 26 view .LVU904
 2338 04b2 99F80100 		ldrb	r0, [r9, #1]	@ zero_extendqisi2
  70:Src/Disk/fileWriter.h **** 				--size;
 2339              		.loc 2 70 24 view .LVU905
 2340 04b6 A054     		strb	r0, [r4, r2]
  71:Src/Disk/fileWriter.h **** 			} else {
 2341              		.loc 2 71 5 is_stmt 1 view .LVU906
 2342              	.LVL190:
  68:Src/Disk/fileWriter.h **** 			if (buff_pos < kBufferSize) {
 2343              		.loc 2 68 3 view .LVU907
  68:Src/Disk/fileWriter.h **** 			if (buff_pos < kBufferSize) {
 2344              		.loc 2 68 20 view .LVU908
 2345 04b8 D4F80832 		ldr	r3, [r4, #520]
 2346              	.LVL191:
 2347              	.L219:
  68:Src/Disk/fileWriter.h **** 			if (buff_pos < kBufferSize) {
 2348              		.loc 2 68 20 is_stmt 0 view .LVU909
 2349              	.LBE454:
 2350              	.LBE453:
 2351              	.LBB466:
 2352              	.LBB467:
  20:/Users/joostbooy/Desktop/Code/stm32/lib/utils/hash.h **** 			hash_ ^= *data_++;
 2353              		.loc 4 20 3 is_stmt 1 view .LVU910
  20:/Users/joostbooy/Desktop/Code/stm32/lib/utils/hash.h **** 			hash_ ^= *data_++;
 2354              		.loc 4 20 14 view .LVU911
  21:/Users/joostbooy/Desktop/Code/stm32/lib/utils/hash.h **** 			hash_ *= prime_;
 2355              		.loc 4 21 4 view .LVU912
 2356              		.loc 4 22 4 view .LVU913
  21:/Users/joostbooy/Desktop/Code/stm32/lib/utils/hash.h **** 			hash_ *= prime_;
 2357              		.loc 4 21 10 is_stmt 0 view .LVU914
 2358 04bc 19F8017F 		ldrb	r7, [r9, #1]!	@ zero_extendqisi2
 2359              	.LVL192:
 2360              		.loc 4 22 10 view .LVU915
 2361 04c0 4C4A     		ldr	r2, .L334
  21:/Users/joostbooy/Desktop/Code/stm32/lib/utils/hash.h **** 			hash_ *= prime_;
 2362              		.loc 4 21 10 view .LVU916
 2363 04c2 7B40     		eors	r3, r3, r7
 2364              		.loc 4 22 10 view .LVU917
 2365 04c4 02FB03F3 		mul	r3, r2, r3
 2366              	.LBE467:
 2367              	.LBE466:
 2368              	.LBE452:
  44:Src/Settings/song.cpp **** 		fileWriter.write(name_[i]);
 2369              		.loc 1 44 20 view .LVU918
 2370 04c8 B145     		cmp	r9, r6
 2371              	.LBB471:
 2372              	.LBB469:
 2373              	.LBB468:
 2374              		.loc 4 22 10 view .LVU919
 2375 04ca C4F80832 		str	r3, [r4, #520]
  20:/Users/joostbooy/Desktop/Code/stm32/lib/utils/hash.h **** 			hash_ ^= *data_++;
ARM GAS  /var/folders/84/_x1cyy_j36g486tldtwl37280000gn/T//cctc5fkA.s 			page 63


 2376              		.loc 4 20 3 is_stmt 1 view .LVU920
  20:/Users/joostbooy/Desktop/Code/stm32/lib/utils/hash.h **** 			hash_ ^= *data_++;
 2377              		.loc 4 20 14 view .LVU921
 2378              	.LVL193:
  20:/Users/joostbooy/Desktop/Code/stm32/lib/utils/hash.h **** 			hash_ ^= *data_++;
 2379              		.loc 4 20 14 is_stmt 0 view .LVU922
 2380              	.LBE468:
 2381              	.LBE469:
 2382              	.LBE471:
  44:Src/Settings/song.cpp **** 		fileWriter.write(name_[i]);
 2383              		.loc 1 44 2 is_stmt 1 view .LVU923
  44:Src/Settings/song.cpp **** 		fileWriter.write(name_[i]);
 2384              		.loc 1 44 20 view .LVU924
  44:Src/Settings/song.cpp **** 		fileWriter.write(name_[i]);
 2385              		.loc 1 44 20 is_stmt 0 view .LVU925
 2386              	.LBE451:
 2387              		.file 7 "Src/Settings/song.h"
   1:Src/Settings/song.h **** #ifndef Song_h
   2:Src/Settings/song.h **** #define Song_h
   3:Src/Settings/song.h **** 
   4:Src/Settings/song.h **** #include "stmf4lib.h"
   5:Src/Settings/song.h **** #include "track.h"
   6:Src/Settings/song.h **** #include "scale.h"
   7:Src/Settings/song.h **** #include "chord.h"
   8:Src/Settings/song.h **** #include "midiClock.h"
   9:Src/Settings/song.h **** #include "uiList.h"
  10:Src/Settings/song.h **** 
  11:Src/Settings/song.h **** class Song {
  12:Src/Settings/song.h **** 
  13:Src/Settings/song.h **** public:
  14:Src/Settings/song.h **** 
  15:Src/Settings/song.h **** 	Scale scale;
  16:Src/Settings/song.h **** 	MidiClock midiClock;
  17:Src/Settings/song.h **** 
  18:Src/Settings/song.h **** 	Track &track(int index) {
  19:Src/Settings/song.h **** 		return track_[index];
  20:Src/Settings/song.h **** 	}
  21:Src/Settings/song.h **** 
  22:Src/Settings/song.h **** 	void init() {
  23:Src/Settings/song.h **** 		scale.init();
  24:Src/Settings/song.h **** 		midiClock.init();
  25:Src/Settings/song.h **** 		Chord::init(&scale);
  26:Src/Settings/song.h **** 		TrackData::init();
  27:Src/Settings/song.h **** 
  28:Src/Settings/song.h **** 		set_name("NEW_SONG");
  29:Src/Settings/song.h **** 
  30:Src/Settings/song.h **** 		for (int i = 0; i < Track::NUM_TYPES; ++i) {
  31:Src/Settings/song.h **** 			clear_list(&track_type_list_[i]);
  32:Src/Settings/song.h **** 		}
  33:Src/Settings/song.h **** 
  34:Src/Settings/song.h **** 		for (int i = 0; i < kMaxTracks; ++i) {
  35:Src/Settings/song.h **** 			track(i).init();
  36:Src/Settings/song.h **** 			track(i).set_index(i);
  37:Src/Settings/song.h **** 			create_track(i, Track::NOTE_TRACK);
  38:Src/Settings/song.h **** 		}
  39:Src/Settings/song.h **** 	}
  40:Src/Settings/song.h **** 
ARM GAS  /var/folders/84/_x1cyy_j36g486tldtwl37280000gn/T//cctc5fkA.s 			page 64


  41:Src/Settings/song.h **** 	// name
  42:Src/Settings/song.h **** 	const char* name() {
  43:Src/Settings/song.h **** 		return name_;
  44:Src/Settings/song.h **** 	}
  45:Src/Settings/song.h **** 
  46:Src/Settings/song.h **** 	constexpr uint8_t max_name_length() {
  47:Src/Settings/song.h **** 		return kMaxNameLength;
 2388              		.loc 7 47 3 is_stmt 1 view .LVU926
 2389              	.LBB473:
  44:Src/Settings/song.cpp **** 		fileWriter.write(name_[i]);
 2390              		.loc 1 44 20 is_stmt 0 view .LVU927
 2391 04ce 00F09380 		beq	.L224
 2392 04d2 94F80C22 		ldrb	r2, [r4, #524]	@ zero_extendqisi2
 2393 04d6 E3E7     		b	.L225
 2394              	.LVL194:
 2395              	.L220:
 2396              	.LBB472:
 2397              	.LBB470:
 2398              	.LBB465:
  73:Src/Disk/fileWriter.h **** 			}
 2399              		.loc 2 73 5 is_stmt 1 view .LVU928
 2400              	.LBB455:
 2401              	.LBI455:
  78:Src/Disk/fileWriter.h **** 		uint32_t size = buff_pos;
 2402              		.loc 2 78 7 view .LVU929
 2403              	.LBB456:
  79:Src/Disk/fileWriter.h **** 		buff_pos = 0;
 2404              		.loc 2 79 3 view .LVU930
  80:Src/Disk/fileWriter.h **** 		return file_->write(buffer, size);
 2405              		.loc 2 80 3 view .LVU931
 2406              		.loc 2 81 22 is_stmt 0 view .LVU932
 2407 04d8 D4F80432 		ldr	r3, [r4, #516]
  80:Src/Disk/fileWriter.h **** 		return file_->write(buffer, size);
 2408              		.loc 2 80 12 view .LVU933
 2409 04dc 4FF0000A 		mov	r10, #0
 2410              	.LBB457:
 2411              	.LBB458:
  49:Src/Disk/file.h **** 		if (num_written) {
 2412              		.loc 3 49 24 view .LVU934
 2413 04e0 1868     		ldr	r0, [r3]
 2414              	.LBE458:
 2415              	.LBE457:
  80:Src/Disk/fileWriter.h **** 		return file_->write(buffer, size);
 2416              		.loc 2 80 12 view .LVU935
 2417 04e2 C4F800A2 		str	r10, [r4, #512]
 2418              		.loc 2 81 3 is_stmt 1 view .LVU936
 2419              	.LVL195:
 2420              	.LBB461:
 2421              	.LBI457:
  47:Src/Disk/file.h **** 		UINT bw;
 2422              		.loc 3 47 7 view .LVU937
 2423              	.LBB459:
  48:Src/Disk/file.h **** 		FRESULT res = f_write(fil, data, size, &bw);
 2424              		.loc 3 48 3 view .LVU938
  49:Src/Disk/file.h **** 		if (num_written) {
 2425              		.loc 3 49 3 view .LVU939
  49:Src/Disk/file.h **** 		if (num_written) {
ARM GAS  /var/folders/84/_x1cyy_j36g486tldtwl37280000gn/T//cctc5fkA.s 			page 65


 2426              		.loc 3 49 24 is_stmt 0 view .LVU940
 2427 04e6 01AB     		add	r3, sp, #4
 2428              	.LVL196:
  49:Src/Disk/file.h **** 		if (num_written) {
 2429              		.loc 3 49 24 view .LVU941
 2430 04e8 2146     		mov	r1, r4
 2431 04ea FFF7FEFF 		bl	f_write
 2432              	.LVL197:
 2433              		.loc 3 53 19 view .LVU942
 2434 04ee 019A     		ldr	r2, [sp, #4]
 2435              	.LVL198:
  50:Src/Disk/file.h **** 			*num_written = bw;
 2436              		.loc 3 50 3 is_stmt 1 view .LVU943
 2437              		.loc 3 53 3 view .LVU944
 2438              		.loc 3 53 19 is_stmt 0 view .LVU945
 2439 04f0 32B1     		cbz	r2, .L221
 2440              	.LVL199:
 2441              		.loc 3 53 19 view .LVU946
 2442              	.LBE459:
 2443              	.LBE461:
 2444              	.LBE456:
 2445              	.LBE455:
  73:Src/Disk/fileWriter.h **** 			}
 2446              		.loc 2 73 15 view .LVU947
 2447 04f2 0127     		movs	r7, #1
 2448              	.LBB464:
 2449              	.LBB463:
 2450              	.LBB462:
 2451              	.LBB460:
 2452              		.loc 3 53 19 view .LVU948
 2453 04f4 48B1     		cbz	r0, .L222
 2454 04f6 D4F80832 		ldr	r3, [r4, #520]
 2455              	.LBE460:
 2456              	.LBE462:
 2457              	.LBE463:
 2458              	.LBE464:
  73:Src/Disk/fileWriter.h **** 			}
 2459              		.loc 2 73 15 view .LVU949
 2460 04fa 84F80CA2 		strb	r10, [r4, #524]
  68:Src/Disk/fileWriter.h **** 			if (buff_pos < kBufferSize) {
 2461              		.loc 2 68 3 is_stmt 1 view .LVU950
  68:Src/Disk/fileWriter.h **** 			if (buff_pos < kBufferSize) {
 2462              		.loc 2 68 20 view .LVU951
 2463 04fe DDE7     		b	.L219
 2464              	.LVL200:
 2465              	.L221:
  68:Src/Disk/fileWriter.h **** 			if (buff_pos < kBufferSize) {
 2466              		.loc 2 68 20 is_stmt 0 view .LVU952
 2467 0500 D4F80832 		ldr	r3, [r4, #520]
  73:Src/Disk/fileWriter.h **** 			}
 2468              		.loc 2 73 15 view .LVU953
 2469 0504 84F80C22 		strb	r2, [r4, #524]
  68:Src/Disk/fileWriter.h **** 			if (buff_pos < kBufferSize) {
 2470              		.loc 2 68 3 is_stmt 1 view .LVU954
  68:Src/Disk/fileWriter.h **** 			if (buff_pos < kBufferSize) {
 2471              		.loc 2 68 20 view .LVU955
 2472 0508 D8E7     		b	.L219
ARM GAS  /var/folders/84/_x1cyy_j36g486tldtwl37280000gn/T//cctc5fkA.s 			page 66


 2473              	.L222:
  73:Src/Disk/fileWriter.h **** 			}
 2474              		.loc 2 73 15 is_stmt 0 view .LVU956
 2475 050a 84F80C72 		strb	r7, [r4, #524]
  68:Src/Disk/fileWriter.h **** 			if (buff_pos < kBufferSize) {
 2476              		.loc 2 68 3 is_stmt 1 view .LVU957
  68:Src/Disk/fileWriter.h **** 			if (buff_pos < kBufferSize) {
 2477              		.loc 2 68 20 view .LVU958
 2478 050e C8E7     		b	.L218
 2479              	.LVL201:
 2480              	.L214:
  68:Src/Disk/fileWriter.h **** 			if (buff_pos < kBufferSize) {
 2481              		.loc 2 68 20 is_stmt 0 view .LVU959
 2482              	.LBE465:
 2483              	.LBE470:
 2484              	.LBE472:
 2485              	.LBE473:
 2486              	.LBB474:
 2487              	.LBB450:
 2488              	.LBB447:
 2489              	.LBB441:
  73:Src/Disk/fileWriter.h **** 			}
 2490              		.loc 2 73 15 view .LVU960
 2491 0510 84F80C22 		strb	r2, [r4, #524]
 2492              	.LVL202:
  68:Src/Disk/fileWriter.h **** 			if (buff_pos < kBufferSize) {
 2493              		.loc 2 68 3 is_stmt 1 view .LVU961
  68:Src/Disk/fileWriter.h **** 			if (buff_pos < kBufferSize) {
 2494              		.loc 2 68 20 view .LVU962
 2495 0514 52E7     		b	.L213
 2496              	.LVL203:
 2497              	.L215:
  73:Src/Disk/fileWriter.h **** 			}
 2498              		.loc 2 73 15 is_stmt 0 view .LVU963
 2499 0516 CE46     		mov	lr, r9
 2500 0518 84F80C12 		strb	r1, [r4, #524]
 2501              	.LVL204:
  68:Src/Disk/fileWriter.h **** 			if (buff_pos < kBufferSize) {
 2502              		.loc 2 68 3 is_stmt 1 view .LVU964
  68:Src/Disk/fileWriter.h **** 			if (buff_pos < kBufferSize) {
 2503              		.loc 2 68 20 view .LVU965
  73:Src/Disk/fileWriter.h **** 			}
 2504              		.loc 2 73 15 is_stmt 0 view .LVU966
 2505 051c F146     		mov	r9, lr
 2506 051e 30E7     		b	.L323
 2507              	.LVL205:
 2508              	.L204:
  73:Src/Disk/fileWriter.h **** 			}
 2509              		.loc 2 73 15 view .LVU967
 2510              	.LBE441:
 2511              	.LBE447:
 2512              	.LBE450:
 2513              	.LBE474:
 2514              	.LBB475:
 2515              	.LBB419:
 2516              	.LBB411:
 2517              	.LBB401:
ARM GAS  /var/folders/84/_x1cyy_j36g486tldtwl37280000gn/T//cctc5fkA.s 			page 67


 2518              	.LBB395:
  73:Src/Disk/fileWriter.h **** 			}
 2519              		.loc 2 73 5 is_stmt 1 view .LVU968
 2520              	.LBB384:
 2521              	.LBI384:
  78:Src/Disk/fileWriter.h **** 		uint32_t size = buff_pos;
 2522              		.loc 2 78 7 view .LVU969
 2523              	.LBB385:
  79:Src/Disk/fileWriter.h **** 		buff_pos = 0;
 2524              		.loc 2 79 3 view .LVU970
  80:Src/Disk/fileWriter.h **** 		return file_->write(buffer, size);
 2525              		.loc 2 80 3 view .LVU971
 2526              		.loc 2 81 22 is_stmt 0 view .LVU972
 2527 0520 D4F80402 		ldr	r0, [r4, #516]
  80:Src/Disk/fileWriter.h **** 		return file_->write(buffer, size);
 2528              		.loc 2 80 12 view .LVU973
 2529 0524 0026     		movs	r6, #0
 2530              	.LBB386:
 2531              	.LBB387:
  49:Src/Disk/file.h **** 		if (num_written) {
 2532              		.loc 3 49 24 view .LVU974
 2533 0526 0068     		ldr	r0, [r0]
 2534              	.LBE387:
 2535              	.LBE386:
  80:Src/Disk/fileWriter.h **** 		return file_->write(buffer, size);
 2536              		.loc 2 80 12 view .LVU975
 2537 0528 C4F80062 		str	r6, [r4, #512]
 2538              		.loc 2 81 3 is_stmt 1 view .LVU976
 2539              	.LVL206:
 2540              	.LBB390:
 2541              	.LBI386:
  47:Src/Disk/file.h **** 		UINT bw;
 2542              		.loc 3 47 7 view .LVU977
 2543              	.LBB388:
  48:Src/Disk/file.h **** 		FRESULT res = f_write(fil, data, size, &bw);
 2544              		.loc 3 48 3 view .LVU978
  49:Src/Disk/file.h **** 		if (num_written) {
 2545              		.loc 3 49 3 view .LVU979
  49:Src/Disk/file.h **** 		if (num_written) {
 2546              		.loc 3 49 24 is_stmt 0 view .LVU980
 2547 052c 2146     		mov	r1, r4
 2548 052e 01AB     		add	r3, sp, #4
 2549 0530 FFF7FEFF 		bl	f_write
 2550              	.LVL207:
 2551              		.loc 3 53 19 view .LVU981
 2552 0534 0199     		ldr	r1, [sp, #4]
 2553              	.LVL208:
  50:Src/Disk/file.h **** 			*num_written = bw;
 2554              		.loc 3 50 3 is_stmt 1 view .LVU982
 2555              		.loc 3 53 3 view .LVU983
 2556              		.loc 3 53 19 is_stmt 0 view .LVU984
 2557 0536 0029     		cmp	r1, #0
 2558 0538 50D0     		beq	.L206
 2559              	.LVL209:
 2560              		.loc 3 53 19 view .LVU985
 2561              	.LBE388:
 2562              	.LBE390:
ARM GAS  /var/folders/84/_x1cyy_j36g486tldtwl37280000gn/T//cctc5fkA.s 			page 68


 2563              	.LBE385:
 2564              	.LBE384:
  73:Src/Disk/fileWriter.h **** 			}
 2565              		.loc 2 73 15 view .LVU986
 2566 053a 0122     		movs	r2, #1
 2567              	.LBB393:
 2568              	.LBB392:
 2569              	.LBB391:
 2570              	.LBB389:
 2571              		.loc 3 53 19 view .LVU987
 2572 053c 0028     		cmp	r0, #0
 2573 053e 00F0BC81 		beq	.L207
 2574              	.LBE389:
 2575              	.LBE391:
 2576              	.LBE392:
 2577              	.LBE393:
  73:Src/Disk/fileWriter.h **** 			}
 2578              		.loc 2 73 15 view .LVU988
 2579 0542 84F80C62 		strb	r6, [r4, #524]
  68:Src/Disk/fileWriter.h **** 			if (buff_pos < kBufferSize) {
 2580              		.loc 2 68 3 is_stmt 1 view .LVU989
  68:Src/Disk/fileWriter.h **** 			if (buff_pos < kBufferSize) {
 2581              		.loc 2 68 20 view .LVU990
 2582              	.L208:
 2583 0546 D4F80832 		ldr	r3, [r4, #520]
 2584              	.LBE395:
 2585              	.LBE401:
 2586              	.LBE411:
 116:Src/Settings/midiClock.h **** 		fileWriter.write(sync_port_);
 2587              		.loc 6 116 20 is_stmt 0 view .LVU991
 2588 054a 0022     		movs	r2, #0
 2589 054c F6E6     		b	.L205
 2590              	.LVL210:
 2591              	.L175:
 116:Src/Settings/midiClock.h **** 		fileWriter.write(sync_port_);
 2592              		.loc 6 116 20 view .LVU992
 2593              	.LBE419:
 2594              	.LBE475:
 2595              	.LBB476:
 2596              	.LBB316:
 2597              	.LBB287:
 2598              	.LBB281:
  73:Src/Disk/fileWriter.h **** 			}
 2599              		.loc 2 73 5 is_stmt 1 view .LVU993
 2600              	.LBB271:
 2601              	.LBI271:
  78:Src/Disk/fileWriter.h **** 		uint32_t size = buff_pos;
 2602              		.loc 2 78 7 view .LVU994
 2603              	.LBB272:
  79:Src/Disk/fileWriter.h **** 		buff_pos = 0;
 2604              		.loc 2 79 3 view .LVU995
  80:Src/Disk/fileWriter.h **** 		return file_->write(buffer, size);
 2605              		.loc 2 80 3 view .LVU996
 2606              		.loc 2 81 22 is_stmt 0 view .LVU997
 2607 054e D4F80412 		ldr	r1, [r4, #516]
  80:Src/Disk/fileWriter.h **** 		return file_->write(buffer, size);
 2608              		.loc 2 80 12 view .LVU998
ARM GAS  /var/folders/84/_x1cyy_j36g486tldtwl37280000gn/T//cctc5fkA.s 			page 69


 2609 0552 0026     		movs	r6, #0
 2610              	.LBB273:
 2611              	.LBB274:
  49:Src/Disk/file.h **** 		if (num_written) {
 2612              		.loc 3 49 24 view .LVU999
 2613 0554 0868     		ldr	r0, [r1]
 2614              	.LBE274:
 2615              	.LBE273:
  80:Src/Disk/fileWriter.h **** 		return file_->write(buffer, size);
 2616              		.loc 2 80 12 view .LVU1000
 2617 0556 C4F80062 		str	r6, [r4, #512]
 2618              		.loc 2 81 3 is_stmt 1 view .LVU1001
 2619              	.LVL211:
 2620              	.LBB277:
 2621              	.LBI273:
  47:Src/Disk/file.h **** 		UINT bw;
 2622              		.loc 3 47 7 view .LVU1002
 2623              	.LBB275:
  48:Src/Disk/file.h **** 		FRESULT res = f_write(fil, data, size, &bw);
 2624              		.loc 3 48 3 view .LVU1003
  49:Src/Disk/file.h **** 		if (num_written) {
 2625              		.loc 3 49 3 view .LVU1004
  49:Src/Disk/file.h **** 		if (num_written) {
 2626              		.loc 3 49 24 is_stmt 0 view .LVU1005
 2627 055a 01AB     		add	r3, sp, #4
 2628 055c 2146     		mov	r1, r4
 2629              	.LVL212:
  49:Src/Disk/file.h **** 		if (num_written) {
 2630              		.loc 3 49 24 view .LVU1006
 2631 055e FFF7FEFF 		bl	f_write
 2632              	.LVL213:
 2633              		.loc 3 53 19 view .LVU1007
 2634 0562 019A     		ldr	r2, [sp, #4]
 2635              	.LVL214:
  50:Src/Disk/file.h **** 			*num_written = bw;
 2636              		.loc 3 50 3 is_stmt 1 view .LVU1008
 2637              		.loc 3 53 3 view .LVU1009
 2638              		.loc 3 53 19 is_stmt 0 view .LVU1010
 2639 0564 002A     		cmp	r2, #0
 2640 0566 3CD0     		beq	.L178
 2641              	.LVL215:
 2642              		.loc 3 53 19 view .LVU1011
 2643              	.LBE275:
 2644              	.LBE277:
 2645              	.LBE272:
 2646              	.LBE271:
  73:Src/Disk/fileWriter.h **** 			}
 2647              		.loc 2 73 15 view .LVU1012
 2648 0568 4FF0010E 		mov	lr, #1
 2649              	.LBB280:
 2650              	.LBB279:
 2651              	.LBB278:
 2652              	.LBB276:
 2653              		.loc 3 53 19 view .LVU1013
 2654 056c 0028     		cmp	r0, #0
 2655 056e 00F0A781 		beq	.L179
 2656              	.LBE276:
ARM GAS  /var/folders/84/_x1cyy_j36g486tldtwl37280000gn/T//cctc5fkA.s 			page 70


 2657              	.LBE278:
 2658              	.LBE279:
 2659              	.LBE280:
  73:Src/Disk/fileWriter.h **** 			}
 2660              		.loc 2 73 15 view .LVU1014
 2661 0572 84F80C62 		strb	r6, [r4, #524]
  68:Src/Disk/fileWriter.h **** 			if (buff_pos < kBufferSize) {
 2662              		.loc 2 68 3 is_stmt 1 view .LVU1015
  68:Src/Disk/fileWriter.h **** 			if (buff_pos < kBufferSize) {
 2663              		.loc 2 68 20 view .LVU1016
 2664              	.L180:
 2665 0576 D4F80812 		ldr	r1, [r4, #520]
 2666              	.L174:
 2667              	.LVL216:
  68:Src/Disk/fileWriter.h **** 			if (buff_pos < kBufferSize) {
 2668              		.loc 2 68 20 is_stmt 0 view .LVU1017
 2669              	.LBE281:
 2670              	.LBE287:
 2671              	.LBB288:
 2672              	.LBB286:
  20:/Users/joostbooy/Desktop/Code/stm32/lib/utils/hash.h **** 			hash_ ^= *data_++;
 2673              		.loc 4 20 3 is_stmt 1 view .LVU1018
  20:/Users/joostbooy/Desktop/Code/stm32/lib/utils/hash.h **** 			hash_ ^= *data_++;
 2674              		.loc 4 20 14 view .LVU1019
  21:/Users/joostbooy/Desktop/Code/stm32/lib/utils/hash.h **** 			hash_ *= prime_;
 2675              		.loc 4 21 4 view .LVU1020
 2676              		.loc 4 22 4 view .LVU1021
  21:/Users/joostbooy/Desktop/Code/stm32/lib/utils/hash.h **** 			hash_ *= prime_;
 2677              		.loc 4 21 10 is_stmt 0 view .LVU1022
 2678 057a 6E78     		ldrb	r6, [r5, #1]	@ zero_extendqisi2
 2679              		.loc 4 22 10 view .LVU1023
 2680 057c 1D4A     		ldr	r2, .L334
  21:/Users/joostbooy/Desktop/Code/stm32/lib/utils/hash.h **** 			hash_ *= prime_;
 2681              		.loc 4 21 10 view .LVU1024
 2682 057e 7140     		eors	r1, r1, r6
 2683              		.loc 4 22 10 view .LVU1025
 2684 0580 02FB01F2 		mul	r2, r2, r1
 2685 0584 C4F80822 		str	r2, [r4, #520]
  20:/Users/joostbooy/Desktop/Code/stm32/lib/utils/hash.h **** 			hash_ ^= *data_++;
 2686              		.loc 4 20 3 is_stmt 1 view .LVU1026
  20:/Users/joostbooy/Desktop/Code/stm32/lib/utils/hash.h **** 			hash_ ^= *data_++;
 2687              		.loc 4 20 14 view .LVU1027
 2688              	.LVL217:
  20:/Users/joostbooy/Desktop/Code/stm32/lib/utils/hash.h **** 			hash_ ^= *data_++;
 2689              		.loc 4 20 14 is_stmt 0 view .LVU1028
 2690              	.LBE286:
 2691              	.LBE288:
 2692              	.LBE316:
 2693              	.LBE476:
 2694              		.loc 5 157 3 is_stmt 1 view .LVU1029
 2695              	.LBB477:
 2696              	.LBB317:
  50:Src/Disk/fileWriter.h **** 		write_buffer(&data, sizeof(T));
 2697              		.loc 2 50 7 view .LVU1030
 2698              	.LBB311:
 2699              	.LBB304:
  68:Src/Disk/fileWriter.h **** 			if (buff_pos < kBufferSize) {
ARM GAS  /var/folders/84/_x1cyy_j36g486tldtwl37280000gn/T//cctc5fkA.s 			page 71


 2700              		.loc 2 68 3 view .LVU1031
  68:Src/Disk/fileWriter.h **** 			if (buff_pos < kBufferSize) {
 2701              		.loc 2 68 20 view .LVU1032
 2702              	.L177:
  68:Src/Disk/fileWriter.h **** 			if (buff_pos < kBufferSize) {
 2703              		.loc 2 68 20 is_stmt 0 view .LVU1033
 2704              	.LBE304:
 2705              	.LBE311:
 2706              	.LBB312:
 2707              	.LBB310:
  20:/Users/joostbooy/Desktop/Code/stm32/lib/utils/hash.h **** 			hash_ ^= *data_++;
 2708              		.loc 4 20 3 is_stmt 1 view .LVU1034
  20:/Users/joostbooy/Desktop/Code/stm32/lib/utils/hash.h **** 			hash_ ^= *data_++;
 2709              		.loc 4 20 14 view .LVU1035
  21:/Users/joostbooy/Desktop/Code/stm32/lib/utils/hash.h **** 			hash_ *= prime_;
 2710              		.loc 4 21 4 view .LVU1036
 2711              		.loc 4 22 4 view .LVU1037
  21:/Users/joostbooy/Desktop/Code/stm32/lib/utils/hash.h **** 			hash_ *= prime_;
 2712              		.loc 4 21 10 is_stmt 0 view .LVU1038
 2713 0588 2978     		ldrb	r1, [r5]	@ zero_extendqisi2
 2714              		.loc 4 22 10 view .LVU1039
 2715 058a 1A4B     		ldr	r3, .L334
  21:/Users/joostbooy/Desktop/Code/stm32/lib/utils/hash.h **** 			hash_ *= prime_;
 2716              		.loc 4 21 10 view .LVU1040
 2717 058c 4A40     		eors	r2, r2, r1
 2718              		.loc 4 22 10 view .LVU1041
 2719 058e 03FB02F3 		mul	r3, r3, r2
 2720 0592 C4F80832 		str	r3, [r4, #520]
  20:/Users/joostbooy/Desktop/Code/stm32/lib/utils/hash.h **** 			hash_ ^= *data_++;
 2721              		.loc 4 20 3 is_stmt 1 view .LVU1042
  20:/Users/joostbooy/Desktop/Code/stm32/lib/utils/hash.h **** 			hash_ ^= *data_++;
 2722              		.loc 4 20 14 view .LVU1043
 2723              	.LVL218:
  20:/Users/joostbooy/Desktop/Code/stm32/lib/utils/hash.h **** 			hash_ ^= *data_++;
 2724              		.loc 4 20 14 is_stmt 0 view .LVU1044
 2725              	.LBE310:
 2726              	.LBE312:
 2727              	.LBE317:
 2728              	.LBE477:
  36:Src/Settings/song.cpp **** 
 2729              		.loc 1 36 2 is_stmt 1 view .LVU1045
 2730              	.LBB478:
 114:Src/Settings/midiClock.h **** 		fileWriter.write(bpm_);
 2731              		.loc 6 114 7 view .LVU1046
 2732              	.LBB420:
 115:Src/Settings/midiClock.h **** 		fileWriter.write(bpm_fractional_);
 2733              		.loc 6 115 3 view .LVU1047
 2734              	.LBB412:
  50:Src/Disk/fileWriter.h **** 		write_buffer(&data, sizeof(T));
 2735              		.loc 2 50 7 view .LVU1048
 2736              	.LBB347:
 2737              	.LBB340:
  68:Src/Disk/fileWriter.h **** 			if (buff_pos < kBufferSize) {
 2738              		.loc 2 68 3 view .LVU1049
  68:Src/Disk/fileWriter.h **** 			if (buff_pos < kBufferSize) {
 2739              		.loc 2 68 20 view .LVU1050
 2740 0596 4EE6     		b	.L184
ARM GAS  /var/folders/84/_x1cyy_j36g486tldtwl37280000gn/T//cctc5fkA.s 			page 72


 2741              	.LVL219:
 2742              	.L182:
  68:Src/Disk/fileWriter.h **** 			if (buff_pos < kBufferSize) {
 2743              		.loc 2 68 20 is_stmt 0 view .LVU1051
 2744              	.LBE340:
 2745              	.LBE347:
 2746              	.LBE412:
 2747              	.LBE420:
 2748              	.LBE478:
 2749              	.LBB479:
 2750              	.LBB318:
 2751              	.LBB313:
 2752              	.LBB305:
  73:Src/Disk/fileWriter.h **** 			}
 2753              		.loc 2 73 5 is_stmt 1 view .LVU1052
 2754              	.LBB294:
 2755              	.LBI294:
  78:Src/Disk/fileWriter.h **** 		uint32_t size = buff_pos;
 2756              		.loc 2 78 7 view .LVU1053
 2757              	.LBB295:
  79:Src/Disk/fileWriter.h **** 		buff_pos = 0;
 2758              		.loc 2 79 3 view .LVU1054
  80:Src/Disk/fileWriter.h **** 		return file_->write(buffer, size);
 2759              		.loc 2 80 3 view .LVU1055
 2760              		.loc 2 81 22 is_stmt 0 view .LVU1056
 2761 0598 D4F80432 		ldr	r3, [r4, #516]
  80:Src/Disk/fileWriter.h **** 		return file_->write(buffer, size);
 2762              		.loc 2 80 12 view .LVU1057
 2763 059c 0026     		movs	r6, #0
 2764              	.LBB296:
 2765              	.LBB297:
  49:Src/Disk/file.h **** 		if (num_written) {
 2766              		.loc 3 49 24 view .LVU1058
 2767 059e 1868     		ldr	r0, [r3]
 2768              	.LBE297:
 2769              	.LBE296:
  80:Src/Disk/fileWriter.h **** 		return file_->write(buffer, size);
 2770              		.loc 2 80 12 view .LVU1059
 2771 05a0 C4F80062 		str	r6, [r4, #512]
 2772              		.loc 2 81 3 is_stmt 1 view .LVU1060
 2773              	.LVL220:
 2774              	.LBB300:
 2775              	.LBI296:
  47:Src/Disk/file.h **** 		UINT bw;
 2776              		.loc 3 47 7 view .LVU1061
 2777              	.LBB298:
  48:Src/Disk/file.h **** 		FRESULT res = f_write(fil, data, size, &bw);
 2778              		.loc 3 48 3 view .LVU1062
  49:Src/Disk/file.h **** 		if (num_written) {
 2779              		.loc 3 49 3 view .LVU1063
  49:Src/Disk/file.h **** 		if (num_written) {
 2780              		.loc 3 49 24 is_stmt 0 view .LVU1064
 2781 05a4 01AB     		add	r3, sp, #4
 2782              	.LVL221:
  49:Src/Disk/file.h **** 		if (num_written) {
 2783              		.loc 3 49 24 view .LVU1065
 2784 05a6 2146     		mov	r1, r4
ARM GAS  /var/folders/84/_x1cyy_j36g486tldtwl37280000gn/T//cctc5fkA.s 			page 73


 2785 05a8 FFF7FEFF 		bl	f_write
 2786              	.LVL222:
 2787              		.loc 3 53 19 view .LVU1066
 2788 05ac 019A     		ldr	r2, [sp, #4]
 2789              	.LVL223:
  50:Src/Disk/file.h **** 			*num_written = bw;
 2790              		.loc 3 50 3 is_stmt 1 view .LVU1067
 2791              		.loc 3 53 3 view .LVU1068
 2792              		.loc 3 53 19 is_stmt 0 view .LVU1069
 2793 05ae F2B1     		cbz	r2, .L185
 2794              	.LVL224:
 2795              		.loc 3 53 19 view .LVU1070
 2796              	.LBE298:
 2797              	.LBE300:
 2798              	.LBE295:
 2799              	.LBE294:
  73:Src/Disk/fileWriter.h **** 			}
 2800              		.loc 2 73 15 view .LVU1071
 2801 05b0 0121     		movs	r1, #1
 2802              	.LBB303:
 2803              	.LBB302:
 2804              	.LBB301:
 2805              	.LBB299:
 2806              		.loc 3 53 19 view .LVU1072
 2807 05b2 0028     		cmp	r0, #0
 2808 05b4 00F07E81 		beq	.L186
 2809              	.LBE299:
 2810              	.LBE301:
 2811              	.LBE302:
 2812              	.LBE303:
  73:Src/Disk/fileWriter.h **** 			}
 2813              		.loc 2 73 15 view .LVU1073
 2814 05b8 84F80C62 		strb	r6, [r4, #524]
  68:Src/Disk/fileWriter.h **** 			if (buff_pos < kBufferSize) {
 2815              		.loc 2 68 3 is_stmt 1 view .LVU1074
  68:Src/Disk/fileWriter.h **** 			if (buff_pos < kBufferSize) {
 2816              		.loc 2 68 20 view .LVU1075
 2817              	.L187:
 2818 05bc D4F80822 		ldr	r2, [r4, #520]
 2819 05c0 E2E7     		b	.L177
 2820              	.LVL225:
 2821              	.L171:
  68:Src/Disk/fileWriter.h **** 			if (buff_pos < kBufferSize) {
 2822              		.loc 2 68 20 is_stmt 0 view .LVU1076
 2823              	.LBE305:
 2824              	.LBE313:
 2825              	.LBE318:
 2826              	.LBE479:
 2827              	.LBB480:
 2828              	.LBB265:
 2829              	.LBB261:
  73:Src/Disk/fileWriter.h **** 			}
 2830              		.loc 2 73 15 view .LVU1077
 2831 05c2 84F80C22 		strb	r2, [r4, #524]
 2832              	.LVL226:
  68:Src/Disk/fileWriter.h **** 			if (buff_pos < kBufferSize) {
 2833              		.loc 2 68 3 is_stmt 1 view .LVU1078
ARM GAS  /var/folders/84/_x1cyy_j36g486tldtwl37280000gn/T//cctc5fkA.s 			page 74


  68:Src/Disk/fileWriter.h **** 			if (buff_pos < kBufferSize) {
 2834              		.loc 2 68 20 view .LVU1079
 2835 05c6 AAE5     		b	.L170
 2836              	.LVL227:
 2837              	.L162:
  68:Src/Disk/fileWriter.h **** 			if (buff_pos < kBufferSize) {
 2838              		.loc 2 68 20 is_stmt 0 view .LVU1080
 2839              	.LBE261:
 2840              	.LBE265:
 2841              	.LBE480:
 2842              	.LBB481:
 2843              	.LBB245:
 2844              	.LBB240:
  73:Src/Disk/fileWriter.h **** 			}
 2845              		.loc 2 73 15 view .LVU1081
 2846 05c8 0121     		movs	r1, #1
 2847              	.LBB238:
 2848              	.LBB237:
 2849              	.LBB236:
 2850              	.LBB234:
 2851              		.loc 3 53 19 view .LVU1082
 2852 05ca 0028     		cmp	r0, #0
 2853 05cc 00F06781 		beq	.L163
 2854              	.LBE234:
 2855              	.LBE236:
 2856              	.LBE237:
 2857              	.LBE238:
  73:Src/Disk/fileWriter.h **** 			}
 2858              		.loc 2 73 15 view .LVU1083
 2859 05d0 84F80C92 		strb	r9, [r4, #524]
 2860              	.LVL228:
  68:Src/Disk/fileWriter.h **** 			if (buff_pos < kBufferSize) {
 2861              		.loc 2 68 3 is_stmt 1 view .LVU1084
  68:Src/Disk/fileWriter.h **** 			if (buff_pos < kBufferSize) {
 2862              		.loc 2 68 20 view .LVU1085
 2863 05d4 4DE5     		b	.L161
 2864              	.LVL229:
 2865              	.L193:
  68:Src/Disk/fileWriter.h **** 			if (buff_pos < kBufferSize) {
 2866              		.loc 2 68 20 is_stmt 0 view .LVU1086
 2867              	.LBE240:
 2868              	.LBE245:
 2869              	.LBE481:
 2870              	.LBB482:
 2871              	.LBB421:
 2872              	.LBB413:
 2873              	.LBB348:
 2874              	.LBB341:
  73:Src/Disk/fileWriter.h **** 			}
 2875              		.loc 2 73 15 view .LVU1087
 2876 05d6 84F80C22 		strb	r2, [r4, #524]
 2877              	.LVL230:
  68:Src/Disk/fileWriter.h **** 			if (buff_pos < kBufferSize) {
 2878              		.loc 2 68 3 is_stmt 1 view .LVU1088
  68:Src/Disk/fileWriter.h **** 			if (buff_pos < kBufferSize) {
 2879              		.loc 2 68 20 view .LVU1089
 2880 05da 2AE6     		b	.L192
ARM GAS  /var/folders/84/_x1cyy_j36g486tldtwl37280000gn/T//cctc5fkA.s 			page 75


 2881              	.LVL231:
 2882              	.L206:
  68:Src/Disk/fileWriter.h **** 			if (buff_pos < kBufferSize) {
 2883              		.loc 2 68 20 is_stmt 0 view .LVU1090
 2884              	.LBE341:
 2885              	.LBE348:
 2886              	.LBE413:
 2887              	.LBB414:
 2888              	.LBB402:
 2889              	.LBB396:
  73:Src/Disk/fileWriter.h **** 			}
 2890              		.loc 2 73 15 view .LVU1091
 2891 05dc 84F80C12 		strb	r1, [r4, #524]
  68:Src/Disk/fileWriter.h **** 			if (buff_pos < kBufferSize) {
 2892              		.loc 2 68 3 is_stmt 1 view .LVU1092
  68:Src/Disk/fileWriter.h **** 			if (buff_pos < kBufferSize) {
 2893              		.loc 2 68 20 view .LVU1093
 2894 05e0 B1E7     		b	.L208
 2895              	.LVL232:
 2896              	.L178:
  68:Src/Disk/fileWriter.h **** 			if (buff_pos < kBufferSize) {
 2897              		.loc 2 68 20 is_stmt 0 view .LVU1094
 2898              	.LBE396:
 2899              	.LBE402:
 2900              	.LBE414:
 2901              	.LBE421:
 2902              	.LBE482:
 2903              	.LBB483:
 2904              	.LBB319:
 2905              	.LBB289:
 2906              	.LBB282:
  73:Src/Disk/fileWriter.h **** 			}
 2907              		.loc 2 73 15 view .LVU1095
 2908 05e2 84F80C22 		strb	r2, [r4, #524]
  68:Src/Disk/fileWriter.h **** 			if (buff_pos < kBufferSize) {
 2909              		.loc 2 68 3 is_stmt 1 view .LVU1096
  68:Src/Disk/fileWriter.h **** 			if (buff_pos < kBufferSize) {
 2910              		.loc 2 68 20 view .LVU1097
 2911 05e6 C6E7     		b	.L180
 2912              	.LVL233:
 2913              	.L202:
  68:Src/Disk/fileWriter.h **** 			if (buff_pos < kBufferSize) {
 2914              		.loc 2 68 20 is_stmt 0 view .LVU1098
 2915              	.LBE282:
 2916              	.LBE289:
 2917              	.LBE319:
 2918              	.LBE483:
 2919              	.LBB484:
 2920              	.LBB422:
 2921              	.LBB415:
 2922              	.LBB379:
 2923              	.LBB367:
  73:Src/Disk/fileWriter.h **** 			}
 2924              		.loc 2 73 15 view .LVU1099
 2925 05e8 84F80C22 		strb	r2, [r4, #524]
  68:Src/Disk/fileWriter.h **** 			if (buff_pos < kBufferSize) {
 2926              		.loc 2 68 3 is_stmt 1 view .LVU1100
ARM GAS  /var/folders/84/_x1cyy_j36g486tldtwl37280000gn/T//cctc5fkA.s 			page 76


  68:Src/Disk/fileWriter.h **** 			if (buff_pos < kBufferSize) {
 2927              		.loc 2 68 20 view .LVU1101
 2928 05ec 82E6     		b	.L201
 2929              	.LVL234:
 2930              	.L185:
  68:Src/Disk/fileWriter.h **** 			if (buff_pos < kBufferSize) {
 2931              		.loc 2 68 20 is_stmt 0 view .LVU1102
 2932              	.LBE367:
 2933              	.LBE379:
 2934              	.LBE415:
 2935              	.LBE422:
 2936              	.LBE484:
 2937              	.LBB485:
 2938              	.LBB320:
 2939              	.LBB314:
 2940              	.LBB306:
  73:Src/Disk/fileWriter.h **** 			}
 2941              		.loc 2 73 15 view .LVU1103
 2942 05ee 84F80C22 		strb	r2, [r4, #524]
  68:Src/Disk/fileWriter.h **** 			if (buff_pos < kBufferSize) {
 2943              		.loc 2 68 3 is_stmt 1 view .LVU1104
  68:Src/Disk/fileWriter.h **** 			if (buff_pos < kBufferSize) {
 2944              		.loc 2 68 20 view .LVU1105
 2945 05f2 E3E7     		b	.L187
 2946              	.L335:
 2947              		.align	2
 2948              	.L334:
 2949 05f4 93010001 		.word	16777619
 2950              	.LVL235:
 2951              	.L224:
  68:Src/Disk/fileWriter.h **** 			if (buff_pos < kBufferSize) {
 2952              		.loc 2 68 20 is_stmt 0 view .LVU1106
 2953 05f8 05F5BC56 		add	r6, r5, #6016
 2954 05fc 0C36     		adds	r6, r6, #12
 2955 05fe 8C35     		adds	r5, r5, #140
 2956              	.LVL236:
 2957              	.L226:
  68:Src/Disk/fileWriter.h **** 			if (buff_pos < kBufferSize) {
 2958              		.loc 2 68 20 view .LVU1107
 2959              	.LBE306:
 2960              	.LBE314:
 2961              	.LBE320:
 2962              	.LBE485:
 2963              	.LBB486:
  46:Src/Settings/song.cpp **** 	}
  47:Src/Settings/song.cpp **** 
  48:Src/Settings/song.cpp **** 	// tracks
  49:Src/Settings/song.cpp **** 	for (int i = 0; i < max_tracks(); ++i) {
  50:Src/Settings/song.cpp **** 		track_[i].save(fileWriter);
 2964              		.loc 1 50 3 is_stmt 1 discriminator 2 view .LVU1108
 2965              		.loc 1 50 17 is_stmt 0 discriminator 2 view .LVU1109
 2966 0600 2846     		mov	r0, r5
 2967 0602 2146     		mov	r1, r4
 2968 0604 05F5B875 		add	r5, r5, #368
 2969 0608 FFF7FEFF 		bl	_ZN5Track4saveER10FileWriter
 2970              	.LVL237:
  49:Src/Settings/song.cpp **** 		track_[i].save(fileWriter);
ARM GAS  /var/folders/84/_x1cyy_j36g486tldtwl37280000gn/T//cctc5fkA.s 			page 77


 2971              		.loc 1 49 2 is_stmt 1 discriminator 2 view .LVU1110
  49:Src/Settings/song.cpp **** 		track_[i].save(fileWriter);
 2972              		.loc 1 49 20 discriminator 2 view .LVU1111
  49:Src/Settings/song.cpp **** 		track_[i].save(fileWriter);
 2973              		.loc 1 49 20 is_stmt 0 discriminator 2 view .LVU1112
 2974              	.LBE486:
  48:Src/Settings/song.h **** 	}
  49:Src/Settings/song.h **** 
  50:Src/Settings/song.h **** 	void set_name(const char* new_name) {
  51:Src/Settings/song.h **** 		StringUtils::copy(name_, const_cast<char*>(new_name), kMaxNameLength);
  52:Src/Settings/song.h **** 	}
  53:Src/Settings/song.h **** 
  54:Src/Settings/song.h **** 	// patterns
  55:Src/Settings/song.h **** 	int available_patterns() {
  56:Src/Settings/song.h **** 		return TrackData::pattern_pool_.size_;
  57:Src/Settings/song.h **** 	}
  58:Src/Settings/song.h **** 
  59:Src/Settings/song.h **** 	int max_patterns() {
  60:Src/Settings/song.h **** 		return TrackData::kMaxPatterns;
  61:Src/Settings/song.h **** 	}
  62:Src/Settings/song.h **** 
  63:Src/Settings/song.h **** 	// tracks
  64:Src/Settings/song.h **** 	constexpr int max_tracks() {
  65:Src/Settings/song.h **** 		return kMaxTracks;
 2975              		.loc 7 65 3 is_stmt 1 discriminator 2 view .LVU1113
 2976              	.LBB487:
  49:Src/Settings/song.cpp **** 		track_[i].save(fileWriter);
 2977              		.loc 1 49 20 is_stmt 0 discriminator 2 view .LVU1114
 2978 060c B542     		cmp	r5, r6
 2979 060e F7D1     		bne	.L226
 2980              	.LVL238:
  49:Src/Settings/song.cpp **** 		track_[i].save(fileWriter);
 2981              		.loc 1 49 20 discriminator 2 view .LVU1115
 2982              	.LBE487:
 2983              	.LBB488:
 2984              	.LBB489:
 2985              	.LBB490:
  68:Src/Disk/fileWriter.h **** 			if (buff_pos < kBufferSize) {
 2986              		.loc 2 68 3 is_stmt 1 view .LVU1116
  68:Src/Disk/fileWriter.h **** 			if (buff_pos < kBufferSize) {
 2987              		.loc 2 68 20 view .LVU1117
  68:Src/Disk/fileWriter.h **** 			if (buff_pos < kBufferSize) {
 2988              		.loc 2 68 10 is_stmt 0 view .LVU1118
 2989 0610 94F80C32 		ldrb	r3, [r4, #524]	@ zero_extendqisi2
  68:Src/Disk/fileWriter.h **** 			if (buff_pos < kBufferSize) {
 2990              		.loc 2 68 20 view .LVU1119
 2991 0614 9BB3     		cbz	r3, .L228
  69:Src/Disk/fileWriter.h **** 				buffer[buff_pos++] = *data_++;
 2992              		.loc 2 69 8 view .LVU1120
 2993 0616 D4F80022 		ldr	r2, [r4, #512]
  66:Src/Disk/fileWriter.h **** 
 2994              		.loc 2 66 12 view .LVU1121
 2995 061a AC4E     		ldr	r6, .L336
 2996              	.LVL239:
  69:Src/Disk/fileWriter.h **** 				buffer[buff_pos++] = *data_++;
 2997              		.loc 2 69 4 view .LVU1122
 2998 061c B2F5007F 		cmp	r2, #512
ARM GAS  /var/folders/84/_x1cyy_j36g486tldtwl37280000gn/T//cctc5fkA.s 			page 78


  68:Src/Disk/fileWriter.h **** 			if (buff_pos < kBufferSize) {
 2999              		.loc 2 68 20 view .LVU1123
 3000 0620 4FF48075 		mov	r5, #256
  69:Src/Disk/fileWriter.h **** 				buffer[buff_pos++] = *data_++;
 3001              		.loc 2 69 4 is_stmt 1 view .LVU1124
  70:Src/Disk/fileWriter.h **** 				--size;
 3002              		.loc 2 70 5 view .LVU1125
  70:Src/Disk/fileWriter.h **** 				--size;
 3003              		.loc 2 70 32 is_stmt 0 view .LVU1126
 3004 0624 B646     		mov	lr, r6
 3005              	.LVL240:
  70:Src/Disk/fileWriter.h **** 				--size;
 3006              		.loc 2 70 20 view .LVU1127
 3007 0626 02F10103 		add	r3, r2, #1
  69:Src/Disk/fileWriter.h **** 				buffer[buff_pos++] = *data_++;
 3008              		.loc 2 69 4 view .LVU1128
 3009 062a 12D2     		bcs	.L229
 3010              	.LVL241:
 3011              	.L324:
  70:Src/Disk/fileWriter.h **** 				--size;
 3012              		.loc 2 70 20 view .LVU1129
 3013 062c C4F80032 		str	r3, [r4, #512]
  70:Src/Disk/fileWriter.h **** 				--size;
 3014              		.loc 2 70 26 view .LVU1130
 3015 0630 1EF8010B 		ldrb	r0, [lr], #1	@ zero_extendqisi2
  70:Src/Disk/fileWriter.h **** 				--size;
 3016              		.loc 2 70 24 view .LVU1131
 3017 0634 A054     		strb	r0, [r4, r2]
  71:Src/Disk/fileWriter.h **** 			} else {
 3018              		.loc 2 71 5 is_stmt 1 view .LVU1132
 3019              	.LVL242:
  71:Src/Disk/fileWriter.h **** 			} else {
 3020              		.loc 2 71 5 is_stmt 0 view .LVU1133
 3021 0636 94F80C32 		ldrb	r3, [r4, #524]	@ zero_extendqisi2
 3022 063a 013D     		subs	r5, r5, #1
 3023              	.LVL243:
  68:Src/Disk/fileWriter.h **** 			if (buff_pos < kBufferSize) {
 3024              		.loc 2 68 3 is_stmt 1 view .LVU1134
  68:Src/Disk/fileWriter.h **** 			if (buff_pos < kBufferSize) {
 3025              		.loc 2 68 20 view .LVU1135
 3026 063c F3B1     		cbz	r3, .L231
 3027 063e F5B1     		cbz	r5, .L228
  73:Src/Disk/fileWriter.h **** 			}
 3028              		.loc 2 73 15 is_stmt 0 view .LVU1136
 3029 0640 7646     		mov	r6, lr
 3030              	.LVL244:
 3031              	.L327:
  69:Src/Disk/fileWriter.h **** 				buffer[buff_pos++] = *data_++;
 3032              		.loc 2 69 4 is_stmt 1 view .LVU1137
  70:Src/Disk/fileWriter.h **** 				--size;
 3033              		.loc 2 70 5 view .LVU1138
  69:Src/Disk/fileWriter.h **** 				buffer[buff_pos++] = *data_++;
 3034              		.loc 2 69 8 is_stmt 0 view .LVU1139
 3035 0642 D4F80022 		ldr	r2, [r4, #512]
  69:Src/Disk/fileWriter.h **** 				buffer[buff_pos++] = *data_++;
 3036              		.loc 2 69 4 view .LVU1140
 3037 0646 B2F5007F 		cmp	r2, #512
ARM GAS  /var/folders/84/_x1cyy_j36g486tldtwl37280000gn/T//cctc5fkA.s 			page 79


  70:Src/Disk/fileWriter.h **** 				--size;
 3038              		.loc 2 70 32 view .LVU1141
 3039 064a B646     		mov	lr, r6
 3040              	.LVL245:
  70:Src/Disk/fileWriter.h **** 				--size;
 3041              		.loc 2 70 20 view .LVU1142
 3042 064c 02F10103 		add	r3, r2, #1
  69:Src/Disk/fileWriter.h **** 				buffer[buff_pos++] = *data_++;
 3043              		.loc 2 69 4 view .LVU1143
 3044 0650 ECD3     		bcc	.L324
 3045              	.LVL246:
 3046              	.L229:
  73:Src/Disk/fileWriter.h **** 			}
 3047              		.loc 2 73 5 is_stmt 1 view .LVU1144
 3048              	.LBB491:
 3049              	.LBI491:
  78:Src/Disk/fileWriter.h **** 		uint32_t size = buff_pos;
 3050              		.loc 2 78 7 view .LVU1145
 3051              	.LBB492:
  79:Src/Disk/fileWriter.h **** 		buff_pos = 0;
 3052              		.loc 2 79 3 view .LVU1146
  80:Src/Disk/fileWriter.h **** 		return file_->write(buffer, size);
 3053              		.loc 2 80 3 view .LVU1147
 3054              		.loc 2 81 22 is_stmt 0 view .LVU1148
 3055 0652 D4F80412 		ldr	r1, [r4, #516]
  80:Src/Disk/fileWriter.h **** 		return file_->write(buffer, size);
 3056              		.loc 2 80 12 view .LVU1149
 3057 0656 0027     		movs	r7, #0
 3058              	.LBB493:
 3059              	.LBB494:
  49:Src/Disk/file.h **** 		if (num_written) {
 3060              		.loc 3 49 24 view .LVU1150
 3061 0658 0868     		ldr	r0, [r1]
 3062              	.LBE494:
 3063              	.LBE493:
  80:Src/Disk/fileWriter.h **** 		return file_->write(buffer, size);
 3064              		.loc 2 80 12 view .LVU1151
 3065 065a C4F80072 		str	r7, [r4, #512]
 3066              		.loc 2 81 3 is_stmt 1 view .LVU1152
 3067              	.LVL247:
 3068              	.LBB497:
 3069              	.LBI493:
  47:Src/Disk/file.h **** 		UINT bw;
 3070              		.loc 3 47 7 view .LVU1153
 3071              	.LBB495:
  48:Src/Disk/file.h **** 		FRESULT res = f_write(fil, data, size, &bw);
 3072              		.loc 3 48 3 view .LVU1154
  49:Src/Disk/file.h **** 		if (num_written) {
 3073              		.loc 3 49 3 view .LVU1155
  49:Src/Disk/file.h **** 		if (num_written) {
 3074              		.loc 3 49 24 is_stmt 0 view .LVU1156
 3075 065e 01AB     		add	r3, sp, #4
 3076 0660 2146     		mov	r1, r4
 3077              	.LVL248:
  49:Src/Disk/file.h **** 		if (num_written) {
 3078              		.loc 3 49 24 view .LVU1157
 3079 0662 FFF7FEFF 		bl	f_write
ARM GAS  /var/folders/84/_x1cyy_j36g486tldtwl37280000gn/T//cctc5fkA.s 			page 80


 3080              	.LVL249:
 3081              		.loc 3 53 19 view .LVU1158
 3082 0666 019A     		ldr	r2, [sp, #4]
 3083              	.LVL250:
  50:Src/Disk/file.h **** 			*num_written = bw;
 3084              		.loc 3 50 3 is_stmt 1 view .LVU1159
 3085              		.loc 3 53 3 view .LVU1160
 3086              		.loc 3 53 19 is_stmt 0 view .LVU1161
 3087 0668 002A     		cmp	r2, #0
 3088 066a 00F00481 		beq	.L232
 3089              	.LVL251:
 3090              		.loc 3 53 19 view .LVU1162
 3091              	.LBE495:
 3092              	.LBE497:
 3093              	.LBE492:
 3094              	.LBE491:
  73:Src/Disk/fileWriter.h **** 			}
 3095              		.loc 2 73 15 view .LVU1163
 3096 066e 4FF0010C 		mov	ip, #1
 3097              	.LBB500:
 3098              	.LBB499:
 3099              	.LBB498:
 3100              	.LBB496:
 3101              		.loc 3 53 19 view .LVU1164
 3102 0672 0028     		cmp	r0, #0
 3103 0674 00F00581 		beq	.L233
 3104              	.LBE496:
 3105              	.LBE498:
 3106              	.LBE499:
 3107              	.LBE500:
  73:Src/Disk/fileWriter.h **** 			}
 3108              		.loc 2 73 15 view .LVU1165
 3109 0678 84F80C72 		strb	r7, [r4, #524]
  68:Src/Disk/fileWriter.h **** 			if (buff_pos < kBufferSize) {
 3110              		.loc 2 68 3 is_stmt 1 view .LVU1166
  68:Src/Disk/fileWriter.h **** 			if (buff_pos < kBufferSize) {
 3111              		.loc 2 68 20 view .LVU1167
 3112              	.L231:
  68:Src/Disk/fileWriter.h **** 			if (buff_pos < kBufferSize) {
 3113              		.loc 2 68 20 is_stmt 0 view .LVU1168
 3114 067c 0023     		movs	r3, #0
 3115              	.L228:
  68:Src/Disk/fileWriter.h **** 			if (buff_pos < kBufferSize) {
 3116              		.loc 2 68 20 view .LVU1169
 3117 067e 934A     		ldr	r2, .L336
 3118 0680 D4F80802 		ldr	r0, [r4, #520]
 3119 0684 02F58078 		add	r8, r2, #256
 3120              	.LVL252:
 3121              	.L235:
  68:Src/Disk/fileWriter.h **** 			if (buff_pos < kBufferSize) {
 3122              		.loc 2 68 20 view .LVU1170
 3123              	.LBE490:
 3124              	.LBE489:
 3125              	.LBB503:
 3126              	.LBB504:
  21:/Users/joostbooy/Desktop/Code/stm32/lib/utils/hash.h **** 			hash_ *= prime_;
 3127              		.loc 4 21 4 is_stmt 1 view .LVU1171
ARM GAS  /var/folders/84/_x1cyy_j36g486tldtwl37280000gn/T//cctc5fkA.s 			page 81


  21:/Users/joostbooy/Desktop/Code/stm32/lib/utils/hash.h **** 			hash_ *= prime_;
 3128              		.loc 4 21 19 is_stmt 0 view .LVU1172
 3129 0688 9146     		mov	r9, r2
 3130              		.loc 4 22 4 is_stmt 1 view .LVU1173
 3131              		.loc 4 22 10 is_stmt 0 view .LVU1174
 3132 068a 914E     		ldr	r6, .L336+4
  21:/Users/joostbooy/Desktop/Code/stm32/lib/utils/hash.h **** 			hash_ *= prime_;
 3133              		.loc 4 21 10 view .LVU1175
 3134 068c 19F8011B 		ldrb	r1, [r9], #1	@ zero_extendqisi2
 3135 0690 4840     		eors	r0, r0, r1
 3136              		.loc 4 22 10 view .LVU1176
 3137 0692 06FB00F7 		mul	r7, r6, r0
 3138 0696 C4F80872 		str	r7, [r4, #520]
  20:/Users/joostbooy/Desktop/Code/stm32/lib/utils/hash.h **** 			hash_ ^= *data_++;
 3139              		.loc 4 20 3 is_stmt 1 view .LVU1177
  20:/Users/joostbooy/Desktop/Code/stm32/lib/utils/hash.h **** 			hash_ ^= *data_++;
 3140              		.loc 4 20 14 view .LVU1178
  21:/Users/joostbooy/Desktop/Code/stm32/lib/utils/hash.h **** 			hash_ *= prime_;
 3141              		.loc 4 21 4 view .LVU1179
 3142              		.loc 4 22 4 view .LVU1180
  21:/Users/joostbooy/Desktop/Code/stm32/lib/utils/hash.h **** 			hash_ *= prime_;
 3143              		.loc 4 21 10 is_stmt 0 view .LVU1181
 3144 069a 99F80000 		ldrb	r0, [r9]	@ zero_extendqisi2
 3145 069e 7840     		eors	r0, r0, r7
 3146              		.loc 4 22 10 view .LVU1182
 3147 06a0 06FB00F5 		mul	r5, r6, r0
 3148 06a4 C4F80852 		str	r5, [r4, #520]
  20:/Users/joostbooy/Desktop/Code/stm32/lib/utils/hash.h **** 			hash_ ^= *data_++;
 3149              		.loc 4 20 3 is_stmt 1 view .LVU1183
  20:/Users/joostbooy/Desktop/Code/stm32/lib/utils/hash.h **** 			hash_ ^= *data_++;
 3150              		.loc 4 20 14 view .LVU1184
  21:/Users/joostbooy/Desktop/Code/stm32/lib/utils/hash.h **** 			hash_ *= prime_;
 3151              		.loc 4 21 4 view .LVU1185
 3152              		.loc 4 22 4 view .LVU1186
  21:/Users/joostbooy/Desktop/Code/stm32/lib/utils/hash.h **** 			hash_ *= prime_;
 3153              		.loc 4 21 10 is_stmt 0 view .LVU1187
 3154 06a8 9178     		ldrb	r1, [r2, #2]	@ zero_extendqisi2
 3155 06aa 6940     		eors	r1, r1, r5
 3156              		.loc 4 22 10 view .LVU1188
 3157 06ac 06FB01F7 		mul	r7, r6, r1
 3158 06b0 C4F80872 		str	r7, [r4, #520]
  20:/Users/joostbooy/Desktop/Code/stm32/lib/utils/hash.h **** 			hash_ ^= *data_++;
 3159              		.loc 4 20 3 is_stmt 1 view .LVU1189
  20:/Users/joostbooy/Desktop/Code/stm32/lib/utils/hash.h **** 			hash_ ^= *data_++;
 3160              		.loc 4 20 14 view .LVU1190
  21:/Users/joostbooy/Desktop/Code/stm32/lib/utils/hash.h **** 			hash_ *= prime_;
 3161              		.loc 4 21 4 view .LVU1191
 3162              		.loc 4 22 4 view .LVU1192
  21:/Users/joostbooy/Desktop/Code/stm32/lib/utils/hash.h **** 			hash_ *= prime_;
 3163              		.loc 4 21 10 is_stmt 0 view .LVU1193
 3164 06b4 D078     		ldrb	r0, [r2, #3]	@ zero_extendqisi2
 3165 06b6 7840     		eors	r0, r0, r7
 3166              		.loc 4 22 10 view .LVU1194
 3167 06b8 06FB00F5 		mul	r5, r6, r0
 3168 06bc C4F80852 		str	r5, [r4, #520]
  20:/Users/joostbooy/Desktop/Code/stm32/lib/utils/hash.h **** 			hash_ ^= *data_++;
 3169              		.loc 4 20 3 is_stmt 1 view .LVU1195
ARM GAS  /var/folders/84/_x1cyy_j36g486tldtwl37280000gn/T//cctc5fkA.s 			page 82


  20:/Users/joostbooy/Desktop/Code/stm32/lib/utils/hash.h **** 			hash_ ^= *data_++;
 3170              		.loc 4 20 14 view .LVU1196
  21:/Users/joostbooy/Desktop/Code/stm32/lib/utils/hash.h **** 			hash_ *= prime_;
 3171              		.loc 4 21 4 view .LVU1197
 3172              		.loc 4 22 4 view .LVU1198
  21:/Users/joostbooy/Desktop/Code/stm32/lib/utils/hash.h **** 			hash_ *= prime_;
 3173              		.loc 4 21 10 is_stmt 0 view .LVU1199
 3174 06c0 1179     		ldrb	r1, [r2, #4]	@ zero_extendqisi2
 3175 06c2 6940     		eors	r1, r1, r5
 3176              		.loc 4 22 10 view .LVU1200
 3177 06c4 06FB01F7 		mul	r7, r6, r1
 3178 06c8 C4F80872 		str	r7, [r4, #520]
  20:/Users/joostbooy/Desktop/Code/stm32/lib/utils/hash.h **** 			hash_ ^= *data_++;
 3179              		.loc 4 20 3 is_stmt 1 view .LVU1201
  20:/Users/joostbooy/Desktop/Code/stm32/lib/utils/hash.h **** 			hash_ ^= *data_++;
 3180              		.loc 4 20 14 view .LVU1202
  21:/Users/joostbooy/Desktop/Code/stm32/lib/utils/hash.h **** 			hash_ *= prime_;
 3181              		.loc 4 21 4 view .LVU1203
 3182              		.loc 4 22 4 view .LVU1204
  21:/Users/joostbooy/Desktop/Code/stm32/lib/utils/hash.h **** 			hash_ *= prime_;
 3183              		.loc 4 21 10 is_stmt 0 view .LVU1205
 3184 06cc 5079     		ldrb	r0, [r2, #5]	@ zero_extendqisi2
 3185 06ce 7840     		eors	r0, r0, r7
 3186              		.loc 4 22 10 view .LVU1206
 3187 06d0 06FB00F5 		mul	r5, r6, r0
 3188 06d4 C4F80852 		str	r5, [r4, #520]
  20:/Users/joostbooy/Desktop/Code/stm32/lib/utils/hash.h **** 			hash_ ^= *data_++;
 3189              		.loc 4 20 3 is_stmt 1 view .LVU1207
  20:/Users/joostbooy/Desktop/Code/stm32/lib/utils/hash.h **** 			hash_ ^= *data_++;
 3190              		.loc 4 20 14 view .LVU1208
  21:/Users/joostbooy/Desktop/Code/stm32/lib/utils/hash.h **** 			hash_ *= prime_;
 3191              		.loc 4 21 4 view .LVU1209
 3192              		.loc 4 22 4 view .LVU1210
  21:/Users/joostbooy/Desktop/Code/stm32/lib/utils/hash.h **** 			hash_ *= prime_;
 3193              		.loc 4 21 10 is_stmt 0 view .LVU1211
 3194 06d8 9179     		ldrb	r1, [r2, #6]	@ zero_extendqisi2
 3195 06da 6940     		eors	r1, r1, r5
 3196              		.loc 4 22 10 view .LVU1212
 3197 06dc 06FB01F7 		mul	r7, r6, r1
  21:/Users/joostbooy/Desktop/Code/stm32/lib/utils/hash.h **** 			hash_ *= prime_;
 3198              		.loc 4 21 19 view .LVU1213
 3199 06e0 0832     		adds	r2, r2, #8
 3200              		.loc 4 22 10 view .LVU1214
 3201 06e2 C4F80872 		str	r7, [r4, #520]
  20:/Users/joostbooy/Desktop/Code/stm32/lib/utils/hash.h **** 			hash_ ^= *data_++;
 3202              		.loc 4 20 3 is_stmt 1 view .LVU1215
  20:/Users/joostbooy/Desktop/Code/stm32/lib/utils/hash.h **** 			hash_ ^= *data_++;
 3203              		.loc 4 20 14 view .LVU1216
  21:/Users/joostbooy/Desktop/Code/stm32/lib/utils/hash.h **** 			hash_ *= prime_;
 3204              		.loc 4 21 4 view .LVU1217
 3205              	.LVL253:
 3206              		.loc 4 22 4 view .LVU1218
  21:/Users/joostbooy/Desktop/Code/stm32/lib/utils/hash.h **** 			hash_ *= prime_;
 3207              		.loc 4 21 10 is_stmt 0 view .LVU1219
 3208 06e6 12F8010C 		ldrb	r0, [r2, #-1]	@ zero_extendqisi2
 3209 06ea 7840     		eors	r0, r0, r7
 3210              		.loc 4 22 10 view .LVU1220
ARM GAS  /var/folders/84/_x1cyy_j36g486tldtwl37280000gn/T//cctc5fkA.s 			page 83


 3211 06ec 06FB00F0 		mul	r0, r6, r0
  20:/Users/joostbooy/Desktop/Code/stm32/lib/utils/hash.h **** 			hash_ ^= *data_++;
 3212              		.loc 4 20 14 view .LVU1221
 3213 06f0 4245     		cmp	r2, r8
 3214              		.loc 4 22 10 view .LVU1222
 3215 06f2 C4F80802 		str	r0, [r4, #520]
  20:/Users/joostbooy/Desktop/Code/stm32/lib/utils/hash.h **** 			hash_ ^= *data_++;
 3216              		.loc 4 20 3 is_stmt 1 view .LVU1223
  20:/Users/joostbooy/Desktop/Code/stm32/lib/utils/hash.h **** 			hash_ ^= *data_++;
 3217              		.loc 4 20 14 view .LVU1224
 3218              	.LVL254:
  20:/Users/joostbooy/Desktop/Code/stm32/lib/utils/hash.h **** 			hash_ ^= *data_++;
 3219              		.loc 4 20 14 is_stmt 0 view .LVU1225
 3220 06f6 C7D1     		bne	.L235
 3221 06f8 764F     		ldr	r7, .L336+8
 3222 06fa 774E     		ldr	r6, .L336+12
 3223              	.LVL255:
 3224              	.L245:
  20:/Users/joostbooy/Desktop/Code/stm32/lib/utils/hash.h **** 			hash_ ^= *data_++;
 3225              		.loc 4 20 14 view .LVU1226
 3226              	.LBE504:
 3227              	.LBE503:
 3228              	.LBE488:
 3229              	.LBB507:
  51:Src/Settings/song.cpp **** 	}
  52:Src/Settings/song.cpp **** 
  53:Src/Settings/song.cpp **** 	// patterns
  54:Src/Settings/song.cpp **** 	fileWriter.write(TrackData::pattern_pool_);
  55:Src/Settings/song.cpp **** 
  56:Src/Settings/song.cpp **** 	for (int i = 0; i < TrackData::kMaxPatterns; ++i) {
  57:Src/Settings/song.cpp **** 		fileWriter.write(TrackData::pattern_[i]);
 3230              		.loc 1 57 3 is_stmt 1 discriminator 2 view .LVU1227
 3231              		.loc 1 57 41 is_stmt 0 discriminator 2 view .LVU1228
 3232 06fc 3D46     		mov	r5, r7
 3233              	.LVL256:
 3234              	.LBB508:
 3235              	.LBI508:
  50:Src/Disk/fileWriter.h **** 		write_buffer(&data, sizeof(T));
 3236              		.loc 2 50 7 is_stmt 1 discriminator 2 view .LVU1229
 3237              	.LBB509:
 3238              	.LBI509:
  65:Src/Disk/fileWriter.h **** 		uint8_t *data_ = reinterpret_cast<uint8_t *>(data);
 3239              		.loc 2 65 7 discriminator 2 view .LVU1230
 3240              	.LBB510:
  68:Src/Disk/fileWriter.h **** 			if (buff_pos < kBufferSize) {
 3241              		.loc 2 68 3 discriminator 2 view .LVU1231
  68:Src/Disk/fileWriter.h **** 			if (buff_pos < kBufferSize) {
 3242              		.loc 2 68 20 discriminator 2 view .LVU1232
 3243 06fe ABB3     		cbz	r3, .L237
  69:Src/Disk/fileWriter.h **** 				buffer[buff_pos++] = *data_++;
 3244              		.loc 2 69 8 is_stmt 0 view .LVU1233
 3245 0700 D4F80022 		ldr	r2, [r4, #512]
  66:Src/Disk/fileWriter.h **** 
 3246              		.loc 2 66 12 view .LVU1234
 3247 0704 B946     		mov	r9, r7
  69:Src/Disk/fileWriter.h **** 				buffer[buff_pos++] = *data_++;
 3248              		.loc 2 69 4 view .LVU1235
ARM GAS  /var/folders/84/_x1cyy_j36g486tldtwl37280000gn/T//cctc5fkA.s 			page 84


 3249 0706 B2F5007F 		cmp	r2, #512
  68:Src/Disk/fileWriter.h **** 			if (buff_pos < kBufferSize) {
 3250              		.loc 2 68 20 view .LVU1236
 3251 070a 4FF0B808 		mov	r8, #184
  69:Src/Disk/fileWriter.h **** 				buffer[buff_pos++] = *data_++;
 3252              		.loc 2 69 4 is_stmt 1 view .LVU1237
  70:Src/Disk/fileWriter.h **** 				--size;
 3253              		.loc 2 70 5 view .LVU1238
  70:Src/Disk/fileWriter.h **** 				--size;
 3254              		.loc 2 70 32 is_stmt 0 view .LVU1239
 3255 070e CC46     		mov	ip, r9
 3256              	.LVL257:
  70:Src/Disk/fileWriter.h **** 				--size;
 3257              		.loc 2 70 20 view .LVU1240
 3258 0710 02F10101 		add	r1, r2, #1
  69:Src/Disk/fileWriter.h **** 				buffer[buff_pos++] = *data_++;
 3259              		.loc 2 69 4 view .LVU1241
 3260 0714 15D2     		bcs	.L238
 3261              	.LVL258:
 3262              	.L325:
  70:Src/Disk/fileWriter.h **** 				--size;
 3263              		.loc 2 70 20 view .LVU1242
 3264 0716 C4F80012 		str	r1, [r4, #512]
  70:Src/Disk/fileWriter.h **** 				--size;
 3265              		.loc 2 70 26 view .LVU1243
 3266 071a 1CF8010B 		ldrb	r0, [ip], #1	@ zero_extendqisi2
  70:Src/Disk/fileWriter.h **** 				--size;
 3267              		.loc 2 70 24 view .LVU1244
 3268 071e A054     		strb	r0, [r4, r2]
  71:Src/Disk/fileWriter.h **** 			} else {
 3269              		.loc 2 71 5 is_stmt 1 view .LVU1245
 3270              	.LVL259:
  68:Src/Disk/fileWriter.h **** 			if (buff_pos < kBufferSize) {
 3271              		.loc 2 68 20 is_stmt 0 view .LVU1246
 3272 0720 94F80C32 		ldrb	r3, [r4, #524]	@ zero_extendqisi2
  71:Src/Disk/fileWriter.h **** 			} else {
 3273              		.loc 2 71 5 view .LVU1247
 3274 0724 08F1FF38 		add	r8, r8, #-1
 3275              	.LVL260:
  68:Src/Disk/fileWriter.h **** 			if (buff_pos < kBufferSize) {
 3276              		.loc 2 68 3 is_stmt 1 view .LVU1248
  68:Src/Disk/fileWriter.h **** 			if (buff_pos < kBufferSize) {
 3277              		.loc 2 68 20 view .LVU1249
 3278 0728 03B3     		cbz	r3, .L237
 3279 072a B8F1000F 		cmp	r8, #0
 3280 072e 1DD0     		beq	.L237
  73:Src/Disk/fileWriter.h **** 			}
 3281              		.loc 2 73 15 is_stmt 0 view .LVU1250
 3282 0730 E146     		mov	r9, ip
 3283              	.LVL261:
 3284              	.L326:
  69:Src/Disk/fileWriter.h **** 				buffer[buff_pos++] = *data_++;
 3285              		.loc 2 69 4 is_stmt 1 view .LVU1251
  70:Src/Disk/fileWriter.h **** 				--size;
 3286              		.loc 2 70 5 view .LVU1252
  69:Src/Disk/fileWriter.h **** 				buffer[buff_pos++] = *data_++;
 3287              		.loc 2 69 8 is_stmt 0 view .LVU1253
ARM GAS  /var/folders/84/_x1cyy_j36g486tldtwl37280000gn/T//cctc5fkA.s 			page 85


 3288 0732 D4F80022 		ldr	r2, [r4, #512]
  69:Src/Disk/fileWriter.h **** 				buffer[buff_pos++] = *data_++;
 3289              		.loc 2 69 4 view .LVU1254
 3290 0736 B2F5007F 		cmp	r2, #512
  70:Src/Disk/fileWriter.h **** 				--size;
 3291              		.loc 2 70 32 view .LVU1255
 3292 073a CC46     		mov	ip, r9
 3293              	.LVL262:
  70:Src/Disk/fileWriter.h **** 				--size;
 3294              		.loc 2 70 20 view .LVU1256
 3295 073c 02F10101 		add	r1, r2, #1
  69:Src/Disk/fileWriter.h **** 				buffer[buff_pos++] = *data_++;
 3296              		.loc 2 69 4 view .LVU1257
 3297 0740 E9D3     		bcc	.L325
 3298              	.LVL263:
 3299              	.L238:
  73:Src/Disk/fileWriter.h **** 			}
 3300              		.loc 2 73 5 is_stmt 1 view .LVU1258
 3301              	.LBB511:
 3302              	.LBI511:
  78:Src/Disk/fileWriter.h **** 		uint32_t size = buff_pos;
 3303              		.loc 2 78 7 view .LVU1259
 3304              	.LBB512:
  79:Src/Disk/fileWriter.h **** 		buff_pos = 0;
 3305              		.loc 2 79 3 view .LVU1260
  80:Src/Disk/fileWriter.h **** 		return file_->write(buffer, size);
 3306              		.loc 2 80 3 view .LVU1261
 3307              		.loc 2 81 22 is_stmt 0 view .LVU1262
 3308 0742 D4F80432 		ldr	r3, [r4, #516]
  80:Src/Disk/fileWriter.h **** 		return file_->write(buffer, size);
 3309              		.loc 2 80 12 view .LVU1263
 3310 0746 4FF0000A 		mov	r10, #0
 3311              	.LBB513:
 3312              	.LBB514:
  49:Src/Disk/file.h **** 		if (num_written) {
 3313              		.loc 3 49 24 view .LVU1264
 3314 074a 1868     		ldr	r0, [r3]
 3315              	.LBE514:
 3316              	.LBE513:
  80:Src/Disk/fileWriter.h **** 		return file_->write(buffer, size);
 3317              		.loc 2 80 12 view .LVU1265
 3318 074c C4F800A2 		str	r10, [r4, #512]
 3319              		.loc 2 81 3 is_stmt 1 view .LVU1266
 3320              	.LVL264:
 3321              	.LBB517:
 3322              	.LBI513:
  47:Src/Disk/file.h **** 		UINT bw;
 3323              		.loc 3 47 7 view .LVU1267
 3324              	.LBB515:
  48:Src/Disk/file.h **** 		FRESULT res = f_write(fil, data, size, &bw);
 3325              		.loc 3 48 3 view .LVU1268
  49:Src/Disk/file.h **** 		if (num_written) {
 3326              		.loc 3 49 3 view .LVU1269
  49:Src/Disk/file.h **** 		if (num_written) {
 3327              		.loc 3 49 24 is_stmt 0 view .LVU1270
 3328 0750 01AB     		add	r3, sp, #4
 3329              	.LVL265:
ARM GAS  /var/folders/84/_x1cyy_j36g486tldtwl37280000gn/T//cctc5fkA.s 			page 86


  49:Src/Disk/file.h **** 		if (num_written) {
 3330              		.loc 3 49 24 view .LVU1271
 3331 0752 2146     		mov	r1, r4
 3332 0754 FFF7FEFF 		bl	f_write
 3333              	.LVL266:
 3334              		.loc 3 53 19 view .LVU1272
 3335 0758 019A     		ldr	r2, [sp, #4]
 3336              	.LVL267:
  50:Src/Disk/file.h **** 			*num_written = bw;
 3337              		.loc 3 50 3 is_stmt 1 view .LVU1273
 3338              		.loc 3 53 3 view .LVU1274
 3339              		.loc 3 53 19 is_stmt 0 view .LVU1275
 3340 075a 002A     		cmp	r2, #0
 3341 075c 00F08380 		beq	.L240
 3342              	.LVL268:
 3343              		.loc 3 53 19 view .LVU1276
 3344              	.LBE515:
 3345              	.LBE517:
 3346              	.LBE512:
 3347              	.LBE511:
  73:Src/Disk/fileWriter.h **** 			}
 3348              		.loc 2 73 15 view .LVU1277
 3349 0760 0121     		movs	r1, #1
 3350              	.LBB520:
 3351              	.LBB519:
 3352              	.LBB518:
 3353              	.LBB516:
 3354              		.loc 3 53 19 view .LVU1278
 3355 0762 0028     		cmp	r0, #0
 3356 0764 00F08280 		beq	.L241
 3357              	.LBE516:
 3358              	.LBE518:
 3359              	.LBE519:
 3360              	.LBE520:
  73:Src/Disk/fileWriter.h **** 			}
 3361              		.loc 2 73 15 view .LVU1279
 3362 0768 84F80CA2 		strb	r10, [r4, #524]
 3363              	.LVL269:
  68:Src/Disk/fileWriter.h **** 			if (buff_pos < kBufferSize) {
 3364              		.loc 2 68 3 is_stmt 1 view .LVU1280
  68:Src/Disk/fileWriter.h **** 			if (buff_pos < kBufferSize) {
 3365              		.loc 2 68 20 view .LVU1281
 3366              	.L237:
  68:Src/Disk/fileWriter.h **** 			if (buff_pos < kBufferSize) {
 3367              		.loc 2 68 20 is_stmt 0 view .LVU1282
 3368 076c 0022     		movs	r2, #0
 3369 076e D4F80832 		ldr	r3, [r4, #520]
 3370 0772 07F1B800 		add	r0, r7, #184
 3371 0776 C2B3     		cbz	r2, .L243
 3372              	.LVL270:
  68:Src/Disk/fileWriter.h **** 			if (buff_pos < kBufferSize) {
 3373              		.loc 2 68 20 view .LVU1283
 3374              	.LBE510:
 3375              	.LBE509:
 3376              	.LBB522:
 3377              	.LBB523:
  21:/Users/joostbooy/Desktop/Code/stm32/lib/utils/hash.h **** 			hash_ *= prime_;
ARM GAS  /var/folders/84/_x1cyy_j36g486tldtwl37280000gn/T//cctc5fkA.s 			page 87


 3378              		.loc 4 21 4 is_stmt 1 view .LVU1284
  21:/Users/joostbooy/Desktop/Code/stm32/lib/utils/hash.h **** 			hash_ *= prime_;
 3379              		.loc 4 21 19 is_stmt 0 view .LVU1285
 3380 0778 3D46     		mov	r5, r7
 3381              	.LVL271:
 3382              		.loc 4 22 4 is_stmt 1 view .LVU1286
 3383              		.loc 4 22 10 is_stmt 0 view .LVU1287
 3384 077a DFF854A1 		ldr	r10, .L336+4
  21:/Users/joostbooy/Desktop/Code/stm32/lib/utils/hash.h **** 			hash_ *= prime_;
 3385              		.loc 4 21 10 view .LVU1288
 3386 077e 15F8012B 		ldrb	r2, [r5], #1	@ zero_extendqisi2
 3387              	.LVL272:
  21:/Users/joostbooy/Desktop/Code/stm32/lib/utils/hash.h **** 			hash_ *= prime_;
 3388              		.loc 4 21 10 view .LVU1289
 3389 0782 5340     		eors	r3, r3, r2
 3390              		.loc 4 22 10 view .LVU1290
 3391 0784 0AFB03F3 		mul	r3, r10, r3
 3392 0788 C4F80832 		str	r3, [r4, #520]
  20:/Users/joostbooy/Desktop/Code/stm32/lib/utils/hash.h **** 			hash_ ^= *data_++;
 3393              		.loc 4 20 3 is_stmt 1 view .LVU1291
  20:/Users/joostbooy/Desktop/Code/stm32/lib/utils/hash.h **** 			hash_ ^= *data_++;
 3394              		.loc 4 20 14 view .LVU1292
  21:/Users/joostbooy/Desktop/Code/stm32/lib/utils/hash.h **** 			hash_ *= prime_;
 3395              		.loc 4 21 4 view .LVU1293
 3396              	.LVL273:
 3397              		.loc 4 22 4 view .LVU1294
  21:/Users/joostbooy/Desktop/Code/stm32/lib/utils/hash.h **** 			hash_ *= prime_;
 3398              		.loc 4 21 10 is_stmt 0 view .LVU1295
 3399 078c 15F8012B 		ldrb	r2, [r5], #1	@ zero_extendqisi2
 3400              	.LVL274:
  21:/Users/joostbooy/Desktop/Code/stm32/lib/utils/hash.h **** 			hash_ *= prime_;
 3401              		.loc 4 21 10 view .LVU1296
 3402 0790 5340     		eors	r3, r3, r2
 3403              		.loc 4 22 10 view .LVU1297
 3404 0792 0AFB03F3 		mul	r3, r10, r3
 3405 0796 C4F80832 		str	r3, [r4, #520]
  20:/Users/joostbooy/Desktop/Code/stm32/lib/utils/hash.h **** 			hash_ ^= *data_++;
 3406              		.loc 4 20 3 is_stmt 1 view .LVU1298
  20:/Users/joostbooy/Desktop/Code/stm32/lib/utils/hash.h **** 			hash_ ^= *data_++;
 3407              		.loc 4 20 14 view .LVU1299
  21:/Users/joostbooy/Desktop/Code/stm32/lib/utils/hash.h **** 			hash_ *= prime_;
 3408              		.loc 4 21 4 view .LVU1300
 3409              	.LVL275:
 3410              		.loc 4 22 4 view .LVU1301
  21:/Users/joostbooy/Desktop/Code/stm32/lib/utils/hash.h **** 			hash_ *= prime_;
 3411              		.loc 4 21 10 is_stmt 0 view .LVU1302
 3412 079a 15F8012B 		ldrb	r2, [r5], #1	@ zero_extendqisi2
 3413              	.LVL276:
  21:/Users/joostbooy/Desktop/Code/stm32/lib/utils/hash.h **** 			hash_ *= prime_;
 3414              		.loc 4 21 10 view .LVU1303
 3415 079e 5340     		eors	r3, r3, r2
 3416              		.loc 4 22 10 view .LVU1304
 3417 07a0 0AFB03F3 		mul	r3, r10, r3
 3418 07a4 C4F80832 		str	r3, [r4, #520]
  20:/Users/joostbooy/Desktop/Code/stm32/lib/utils/hash.h **** 			hash_ ^= *data_++;
 3419              		.loc 4 20 3 is_stmt 1 view .LVU1305
  20:/Users/joostbooy/Desktop/Code/stm32/lib/utils/hash.h **** 			hash_ ^= *data_++;
ARM GAS  /var/folders/84/_x1cyy_j36g486tldtwl37280000gn/T//cctc5fkA.s 			page 88


 3420              		.loc 4 20 14 view .LVU1306
  21:/Users/joostbooy/Desktop/Code/stm32/lib/utils/hash.h **** 			hash_ *= prime_;
 3421              		.loc 4 21 4 view .LVU1307
 3422              	.LVL277:
 3423              		.loc 4 22 4 view .LVU1308
  21:/Users/joostbooy/Desktop/Code/stm32/lib/utils/hash.h **** 			hash_ *= prime_;
 3424              		.loc 4 21 10 is_stmt 0 view .LVU1309
 3425 07a8 15F8012B 		ldrb	r2, [r5], #1	@ zero_extendqisi2
 3426              	.LVL278:
  21:/Users/joostbooy/Desktop/Code/stm32/lib/utils/hash.h **** 			hash_ *= prime_;
 3427              		.loc 4 21 10 view .LVU1310
 3428 07ac 5340     		eors	r3, r3, r2
 3429              		.loc 4 22 10 view .LVU1311
 3430 07ae 0AFB03F3 		mul	r3, r10, r3
 3431 07b2 C4F80832 		str	r3, [r4, #520]
  20:/Users/joostbooy/Desktop/Code/stm32/lib/utils/hash.h **** 			hash_ ^= *data_++;
 3432              		.loc 4 20 3 is_stmt 1 view .LVU1312
  20:/Users/joostbooy/Desktop/Code/stm32/lib/utils/hash.h **** 			hash_ ^= *data_++;
 3433              		.loc 4 20 14 view .LVU1313
  21:/Users/joostbooy/Desktop/Code/stm32/lib/utils/hash.h **** 			hash_ *= prime_;
 3434              		.loc 4 21 4 view .LVU1314
 3435              	.LVL279:
 3436              		.loc 4 22 4 view .LVU1315
  21:/Users/joostbooy/Desktop/Code/stm32/lib/utils/hash.h **** 			hash_ *= prime_;
 3437              		.loc 4 21 10 is_stmt 0 view .LVU1316
 3438 07b6 15F8012B 		ldrb	r2, [r5], #1	@ zero_extendqisi2
 3439              	.LVL280:
  21:/Users/joostbooy/Desktop/Code/stm32/lib/utils/hash.h **** 			hash_ *= prime_;
 3440              		.loc 4 21 10 view .LVU1317
 3441 07ba 5340     		eors	r3, r3, r2
 3442              		.loc 4 22 10 view .LVU1318
 3443 07bc 0AFB03F3 		mul	r3, r10, r3
 3444 07c0 C4F80832 		str	r3, [r4, #520]
  20:/Users/joostbooy/Desktop/Code/stm32/lib/utils/hash.h **** 			hash_ ^= *data_++;
 3445              		.loc 4 20 3 is_stmt 1 view .LVU1319
  20:/Users/joostbooy/Desktop/Code/stm32/lib/utils/hash.h **** 			hash_ ^= *data_++;
 3446              		.loc 4 20 14 view .LVU1320
  21:/Users/joostbooy/Desktop/Code/stm32/lib/utils/hash.h **** 			hash_ *= prime_;
 3447              		.loc 4 21 4 view .LVU1321
 3448              	.LVL281:
 3449              		.loc 4 22 4 view .LVU1322
  21:/Users/joostbooy/Desktop/Code/stm32/lib/utils/hash.h **** 			hash_ *= prime_;
 3450              		.loc 4 21 10 is_stmt 0 view .LVU1323
 3451 07c4 15F8012B 		ldrb	r2, [r5], #1	@ zero_extendqisi2
 3452              	.LVL282:
 3453              		.loc 4 22 10 view .LVU1324
 3454 07c8 5746     		mov	r7, r10
 3455              	.LVL283:
  21:/Users/joostbooy/Desktop/Code/stm32/lib/utils/hash.h **** 			hash_ *= prime_;
 3456              		.loc 4 21 10 view .LVU1325
 3457 07ca 5340     		eors	r3, r3, r2
 3458              		.loc 4 22 10 view .LVU1326
 3459 07cc 07FB03F3 		mul	r3, r7, r3
 3460 07d0 C4F80832 		str	r3, [r4, #520]
  20:/Users/joostbooy/Desktop/Code/stm32/lib/utils/hash.h **** 			hash_ ^= *data_++;
 3461              		.loc 4 20 3 is_stmt 1 view .LVU1327
  20:/Users/joostbooy/Desktop/Code/stm32/lib/utils/hash.h **** 			hash_ ^= *data_++;
ARM GAS  /var/folders/84/_x1cyy_j36g486tldtwl37280000gn/T//cctc5fkA.s 			page 89


 3462              		.loc 4 20 14 view .LVU1328
  21:/Users/joostbooy/Desktop/Code/stm32/lib/utils/hash.h **** 			hash_ *= prime_;
 3463              		.loc 4 21 4 view .LVU1329
 3464              	.LVL284:
 3465              		.loc 4 22 4 view .LVU1330
  21:/Users/joostbooy/Desktop/Code/stm32/lib/utils/hash.h **** 			hash_ *= prime_;
 3466              		.loc 4 21 10 is_stmt 0 view .LVU1331
 3467 07d4 15F8017B 		ldrb	r7, [r5], #1	@ zero_extendqisi2
 3468              	.LVL285:
 3469              		.loc 4 22 10 view .LVU1332
 3470 07d8 5146     		mov	r1, r10
  21:/Users/joostbooy/Desktop/Code/stm32/lib/utils/hash.h **** 			hash_ *= prime_;
 3471              		.loc 4 21 10 view .LVU1333
 3472 07da 7B40     		eors	r3, r3, r7
 3473              		.loc 4 22 10 view .LVU1334
 3474 07dc 01FB03F3 		mul	r3, r1, r3
  20:/Users/joostbooy/Desktop/Code/stm32/lib/utils/hash.h **** 			hash_ ^= *data_++;
 3475              		.loc 4 20 14 view .LVU1335
 3476 07e0 8542     		cmp	r5, r0
 3477              		.loc 4 22 10 view .LVU1336
 3478 07e2 D646     		mov	lr, r10
 3479 07e4 C4F80832 		str	r3, [r4, #520]
  20:/Users/joostbooy/Desktop/Code/stm32/lib/utils/hash.h **** 			hash_ ^= *data_++;
 3480              		.loc 4 20 3 is_stmt 1 view .LVU1337
  20:/Users/joostbooy/Desktop/Code/stm32/lib/utils/hash.h **** 			hash_ ^= *data_++;
 3481              		.loc 4 20 14 view .LVU1338
  20:/Users/joostbooy/Desktop/Code/stm32/lib/utils/hash.h **** 			hash_ ^= *data_++;
 3482              		.loc 4 20 14 is_stmt 0 view .LVU1339
 3483 07e8 37D0     		beq	.L315
 3484              	.LVL286:
 3485              	.L243:
  21:/Users/joostbooy/Desktop/Code/stm32/lib/utils/hash.h **** 			hash_ *= prime_;
 3486              		.loc 4 21 4 is_stmt 1 view .LVU1340
  21:/Users/joostbooy/Desktop/Code/stm32/lib/utils/hash.h **** 			hash_ *= prime_;
 3487              		.loc 4 21 19 is_stmt 0 view .LVU1341
 3488 07ea AA46     		mov	r10, r5
 3489              		.loc 4 22 4 is_stmt 1 view .LVU1342
 3490              		.loc 4 22 10 is_stmt 0 view .LVU1343
 3491 07ec 384A     		ldr	r2, .L336+4
  21:/Users/joostbooy/Desktop/Code/stm32/lib/utils/hash.h **** 			hash_ *= prime_;
 3492              		.loc 4 21 10 view .LVU1344
 3493 07ee 1AF8011B 		ldrb	r1, [r10], #1	@ zero_extendqisi2
 3494 07f2 4B40     		eors	r3, r3, r1
 3495              		.loc 4 22 10 view .LVU1345
 3496 07f4 02FB03F7 		mul	r7, r2, r3
 3497 07f8 C4F80872 		str	r7, [r4, #520]
  20:/Users/joostbooy/Desktop/Code/stm32/lib/utils/hash.h **** 			hash_ ^= *data_++;
 3498              		.loc 4 20 3 is_stmt 1 view .LVU1346
  20:/Users/joostbooy/Desktop/Code/stm32/lib/utils/hash.h **** 			hash_ ^= *data_++;
 3499              		.loc 4 20 14 view .LVU1347
  21:/Users/joostbooy/Desktop/Code/stm32/lib/utils/hash.h **** 			hash_ *= prime_;
 3500              		.loc 4 21 4 view .LVU1348
 3501              		.loc 4 22 4 view .LVU1349
  21:/Users/joostbooy/Desktop/Code/stm32/lib/utils/hash.h **** 			hash_ *= prime_;
 3502              		.loc 4 21 10 is_stmt 0 view .LVU1350
 3503 07fc 9AF80030 		ldrb	r3, [r10]	@ zero_extendqisi2
 3504 0800 7B40     		eors	r3, r3, r7
ARM GAS  /var/folders/84/_x1cyy_j36g486tldtwl37280000gn/T//cctc5fkA.s 			page 90


 3505              		.loc 4 22 10 view .LVU1351
 3506 0802 02FB03F1 		mul	r1, r2, r3
 3507 0806 C4F80812 		str	r1, [r4, #520]
  20:/Users/joostbooy/Desktop/Code/stm32/lib/utils/hash.h **** 			hash_ ^= *data_++;
 3508              		.loc 4 20 3 is_stmt 1 view .LVU1352
  20:/Users/joostbooy/Desktop/Code/stm32/lib/utils/hash.h **** 			hash_ ^= *data_++;
 3509              		.loc 4 20 14 view .LVU1353
  21:/Users/joostbooy/Desktop/Code/stm32/lib/utils/hash.h **** 			hash_ *= prime_;
 3510              		.loc 4 21 4 view .LVU1354
 3511              		.loc 4 22 4 view .LVU1355
  21:/Users/joostbooy/Desktop/Code/stm32/lib/utils/hash.h **** 			hash_ *= prime_;
 3512              		.loc 4 21 10 is_stmt 0 view .LVU1356
 3513 080a AF78     		ldrb	r7, [r5, #2]	@ zero_extendqisi2
 3514 080c 4F40     		eors	r7, r7, r1
 3515              		.loc 4 22 10 view .LVU1357
 3516 080e 02FB07F7 		mul	r7, r2, r7
 3517 0812 C4F80872 		str	r7, [r4, #520]
  20:/Users/joostbooy/Desktop/Code/stm32/lib/utils/hash.h **** 			hash_ ^= *data_++;
 3518              		.loc 4 20 3 is_stmt 1 view .LVU1358
  20:/Users/joostbooy/Desktop/Code/stm32/lib/utils/hash.h **** 			hash_ ^= *data_++;
 3519              		.loc 4 20 14 view .LVU1359
  21:/Users/joostbooy/Desktop/Code/stm32/lib/utils/hash.h **** 			hash_ *= prime_;
 3520              		.loc 4 21 4 view .LVU1360
 3521              		.loc 4 22 4 view .LVU1361
  21:/Users/joostbooy/Desktop/Code/stm32/lib/utils/hash.h **** 			hash_ *= prime_;
 3522              		.loc 4 21 10 is_stmt 0 view .LVU1362
 3523 0816 EB78     		ldrb	r3, [r5, #3]	@ zero_extendqisi2
 3524 0818 7B40     		eors	r3, r3, r7
 3525              		.loc 4 22 10 view .LVU1363
 3526 081a 02FB03F7 		mul	r7, r2, r3
 3527 081e C4F80872 		str	r7, [r4, #520]
  20:/Users/joostbooy/Desktop/Code/stm32/lib/utils/hash.h **** 			hash_ ^= *data_++;
 3528              		.loc 4 20 3 is_stmt 1 view .LVU1364
  20:/Users/joostbooy/Desktop/Code/stm32/lib/utils/hash.h **** 			hash_ ^= *data_++;
 3529              		.loc 4 20 14 view .LVU1365
  21:/Users/joostbooy/Desktop/Code/stm32/lib/utils/hash.h **** 			hash_ *= prime_;
 3530              		.loc 4 21 4 view .LVU1366
 3531              		.loc 4 22 4 view .LVU1367
  21:/Users/joostbooy/Desktop/Code/stm32/lib/utils/hash.h **** 			hash_ *= prime_;
 3532              		.loc 4 21 10 is_stmt 0 view .LVU1368
 3533 0822 2979     		ldrb	r1, [r5, #4]	@ zero_extendqisi2
 3534 0824 7940     		eors	r1, r1, r7
 3535              		.loc 4 22 10 view .LVU1369
 3536 0826 02FB01F1 		mul	r1, r2, r1
 3537 082a C4F80812 		str	r1, [r4, #520]
  20:/Users/joostbooy/Desktop/Code/stm32/lib/utils/hash.h **** 			hash_ ^= *data_++;
 3538              		.loc 4 20 3 is_stmt 1 view .LVU1370
  20:/Users/joostbooy/Desktop/Code/stm32/lib/utils/hash.h **** 			hash_ ^= *data_++;
 3539              		.loc 4 20 14 view .LVU1371
  21:/Users/joostbooy/Desktop/Code/stm32/lib/utils/hash.h **** 			hash_ *= prime_;
 3540              		.loc 4 21 4 view .LVU1372
 3541              		.loc 4 22 4 view .LVU1373
  21:/Users/joostbooy/Desktop/Code/stm32/lib/utils/hash.h **** 			hash_ *= prime_;
 3542              		.loc 4 21 10 is_stmt 0 view .LVU1374
 3543 082e 6B79     		ldrb	r3, [r5, #5]	@ zero_extendqisi2
 3544 0830 4B40     		eors	r3, r3, r1
 3545              		.loc 4 22 10 view .LVU1375
ARM GAS  /var/folders/84/_x1cyy_j36g486tldtwl37280000gn/T//cctc5fkA.s 			page 91


 3546 0832 02FB03F7 		mul	r7, r2, r3
 3547 0836 C4F80872 		str	r7, [r4, #520]
  20:/Users/joostbooy/Desktop/Code/stm32/lib/utils/hash.h **** 			hash_ ^= *data_++;
 3548              		.loc 4 20 3 is_stmt 1 view .LVU1376
  20:/Users/joostbooy/Desktop/Code/stm32/lib/utils/hash.h **** 			hash_ ^= *data_++;
 3549              		.loc 4 20 14 view .LVU1377
  21:/Users/joostbooy/Desktop/Code/stm32/lib/utils/hash.h **** 			hash_ *= prime_;
 3550              		.loc 4 21 4 view .LVU1378
 3551              		.loc 4 22 4 view .LVU1379
  21:/Users/joostbooy/Desktop/Code/stm32/lib/utils/hash.h **** 			hash_ *= prime_;
 3552              		.loc 4 21 10 is_stmt 0 view .LVU1380
 3553 083a AB79     		ldrb	r3, [r5, #6]	@ zero_extendqisi2
 3554 083c 7B40     		eors	r3, r3, r7
 3555              		.loc 4 22 10 view .LVU1381
 3556 083e 02FB03F3 		mul	r3, r2, r3
  21:/Users/joostbooy/Desktop/Code/stm32/lib/utils/hash.h **** 			hash_ *= prime_;
 3557              		.loc 4 21 19 view .LVU1382
 3558 0842 0835     		adds	r5, r5, #8
 3559              		.loc 4 22 10 view .LVU1383
 3560 0844 C4F80832 		str	r3, [r4, #520]
  20:/Users/joostbooy/Desktop/Code/stm32/lib/utils/hash.h **** 			hash_ ^= *data_++;
 3561              		.loc 4 20 3 is_stmt 1 view .LVU1384
  20:/Users/joostbooy/Desktop/Code/stm32/lib/utils/hash.h **** 			hash_ ^= *data_++;
 3562              		.loc 4 20 14 view .LVU1385
  21:/Users/joostbooy/Desktop/Code/stm32/lib/utils/hash.h **** 			hash_ *= prime_;
 3563              		.loc 4 21 4 view .LVU1386
 3564              	.LVL287:
 3565              		.loc 4 22 4 view .LVU1387
  21:/Users/joostbooy/Desktop/Code/stm32/lib/utils/hash.h **** 			hash_ *= prime_;
 3566              		.loc 4 21 10 is_stmt 0 view .LVU1388
 3567 0848 15F8011C 		ldrb	r1, [r5, #-1]	@ zero_extendqisi2
 3568 084c 4B40     		eors	r3, r3, r1
 3569              		.loc 4 22 10 view .LVU1389
 3570 084e 02FB03F3 		mul	r3, r2, r3
  20:/Users/joostbooy/Desktop/Code/stm32/lib/utils/hash.h **** 			hash_ ^= *data_++;
 3571              		.loc 4 20 14 view .LVU1390
 3572 0852 8542     		cmp	r5, r0
 3573              		.loc 4 22 10 view .LVU1391
 3574 0854 C4F80832 		str	r3, [r4, #520]
  20:/Users/joostbooy/Desktop/Code/stm32/lib/utils/hash.h **** 			hash_ ^= *data_++;
 3575              		.loc 4 20 3 is_stmt 1 view .LVU1392
  20:/Users/joostbooy/Desktop/Code/stm32/lib/utils/hash.h **** 			hash_ ^= *data_++;
 3576              		.loc 4 20 14 view .LVU1393
  20:/Users/joostbooy/Desktop/Code/stm32/lib/utils/hash.h **** 			hash_ ^= *data_++;
 3577              		.loc 4 20 14 is_stmt 0 view .LVU1394
 3578 0858 C7D1     		bne	.L243
 3579              	.LVL288:
 3580              	.L315:
  20:/Users/joostbooy/Desktop/Code/stm32/lib/utils/hash.h **** 			hash_ ^= *data_++;
 3581              		.loc 4 20 14 view .LVU1395
 3582              	.LBE523:
 3583              	.LBE522:
 3584              	.LBE508:
  56:Src/Settings/song.cpp **** 		fileWriter.write(TrackData::pattern_[i]);
 3585              		.loc 1 56 2 is_stmt 1 view .LVU1396
  56:Src/Settings/song.cpp **** 		fileWriter.write(TrackData::pattern_[i]);
 3586              		.loc 1 56 20 view .LVU1397
ARM GAS  /var/folders/84/_x1cyy_j36g486tldtwl37280000gn/T//cctc5fkA.s 			page 92


 3587 085a AE42     		cmp	r6, r5
 3588 085c 0ED0     		beq	.L156
 3589 085e 94F80C32 		ldrb	r3, [r4, #524]	@ zero_extendqisi2
 3590 0862 2F46     		mov	r7, r5
 3591 0864 4AE7     		b	.L245
 3592              	.LVL289:
 3593              	.L240:
 3594              	.LBB525:
 3595              	.LBB524:
 3596              	.LBB521:
  73:Src/Disk/fileWriter.h **** 			}
 3597              		.loc 2 73 15 is_stmt 0 view .LVU1398
 3598 0866 84F80C22 		strb	r2, [r4, #524]
 3599              	.LVL290:
  68:Src/Disk/fileWriter.h **** 			if (buff_pos < kBufferSize) {
 3600              		.loc 2 68 3 is_stmt 1 view .LVU1399
  68:Src/Disk/fileWriter.h **** 			if (buff_pos < kBufferSize) {
 3601              		.loc 2 68 20 view .LVU1400
 3602 086a 7FE7     		b	.L237
 3603              	.LVL291:
 3604              	.L241:
  73:Src/Disk/fileWriter.h **** 			}
 3605              		.loc 2 73 15 is_stmt 0 view .LVU1401
 3606 086c CC46     		mov	ip, r9
 3607 086e 84F80C12 		strb	r1, [r4, #524]
 3608              	.LVL292:
  68:Src/Disk/fileWriter.h **** 			if (buff_pos < kBufferSize) {
 3609              		.loc 2 68 3 is_stmt 1 view .LVU1402
  68:Src/Disk/fileWriter.h **** 			if (buff_pos < kBufferSize) {
 3610              		.loc 2 68 20 view .LVU1403
  73:Src/Disk/fileWriter.h **** 			}
 3611              		.loc 2 73 15 is_stmt 0 view .LVU1404
 3612 0872 E146     		mov	r9, ip
 3613 0874 5DE7     		b	.L326
 3614              	.LVL293:
 3615              	.L232:
  73:Src/Disk/fileWriter.h **** 			}
 3616              		.loc 2 73 15 view .LVU1405
 3617              	.LBE521:
 3618              	.LBE524:
 3619              	.LBE525:
 3620              	.LBE507:
 3621              	.LBB526:
 3622              	.LBB505:
 3623              	.LBB501:
 3624 0876 84F80C22 		strb	r2, [r4, #524]
  68:Src/Disk/fileWriter.h **** 			if (buff_pos < kBufferSize) {
 3625              		.loc 2 68 3 is_stmt 1 view .LVU1406
  68:Src/Disk/fileWriter.h **** 			if (buff_pos < kBufferSize) {
 3626              		.loc 2 68 20 view .LVU1407
 3627 087a FFE6     		b	.L231
 3628              	.LVL294:
 3629              	.L156:
  68:Src/Disk/fileWriter.h **** 			if (buff_pos < kBufferSize) {
 3630              		.loc 2 68 20 is_stmt 0 view .LVU1408
 3631              	.LBE501:
 3632              	.LBE505:
ARM GAS  /var/folders/84/_x1cyy_j36g486tldtwl37280000gn/T//cctc5fkA.s 			page 93


 3633              	.LBE526:
  58:Src/Settings/song.cpp **** 	}
  59:Src/Settings/song.cpp **** 
  60:Src/Settings/song.cpp **** }
 3634              		.loc 1 60 1 view .LVU1409
 3635 087c 02B0     		add	sp, sp, #8
 3636              		.cfi_remember_state
 3637              		.cfi_def_cfa_offset 32
 3638              		@ sp needed
 3639 087e BDE8F087 		pop	{r4, r5, r6, r7, r8, r9, r10, pc}
 3640              	.LVL295:
 3641              	.L233:
 3642              		.cfi_restore_state
 3643              	.LBB527:
 3644              	.LBB506:
 3645              	.LBB502:
  73:Src/Disk/fileWriter.h **** 			}
 3646              		.loc 2 73 15 view .LVU1410
 3647 0882 B646     		mov	lr, r6
 3648 0884 84F80CC2 		strb	ip, [r4, #524]
  68:Src/Disk/fileWriter.h **** 			if (buff_pos < kBufferSize) {
 3649              		.loc 2 68 3 is_stmt 1 view .LVU1411
  68:Src/Disk/fileWriter.h **** 			if (buff_pos < kBufferSize) {
 3650              		.loc 2 68 20 view .LVU1412
 3651              	.LVL296:
  73:Src/Disk/fileWriter.h **** 			}
 3652              		.loc 2 73 15 is_stmt 0 view .LVU1413
 3653 0888 7646     		mov	r6, lr
  73:Src/Disk/fileWriter.h **** 			}
 3654              		.loc 2 73 15 view .LVU1414
 3655 088a DAE6     		b	.L327
 3656              	.LVL297:
 3657              	.L172:
  73:Src/Disk/fileWriter.h **** 			}
 3658              		.loc 2 73 15 view .LVU1415
 3659              	.LBE502:
 3660              	.LBE506:
 3661              	.LBE527:
 3662              	.LBB528:
 3663              	.LBB266:
 3664              	.LBB262:
 3665 088c C446     		mov	ip, r8
 3666 088e 84F80C12 		strb	r1, [r4, #524]
 3667              	.LVL298:
  68:Src/Disk/fileWriter.h **** 			if (buff_pos < kBufferSize) {
 3668              		.loc 2 68 3 is_stmt 1 view .LVU1416
  68:Src/Disk/fileWriter.h **** 			if (buff_pos < kBufferSize) {
 3669              		.loc 2 68 20 view .LVU1417
  73:Src/Disk/fileWriter.h **** 			}
 3670              		.loc 2 73 15 is_stmt 0 view .LVU1418
 3671 0892 E046     		mov	r8, ip
 3672 0894 26E4     		b	.L328
 3673              	.LVL299:
 3674              	.L194:
  73:Src/Disk/fileWriter.h **** 			}
 3675              		.loc 2 73 15 view .LVU1419
 3676              	.LBE262:
ARM GAS  /var/folders/84/_x1cyy_j36g486tldtwl37280000gn/T//cctc5fkA.s 			page 94


 3677              	.LBE266:
 3678              	.LBE528:
 3679              	.LBB529:
 3680              	.LBB423:
 3681              	.LBB416:
 3682              	.LBB349:
 3683              	.LBB342:
 3684 0896 84F80C12 		strb	r1, [r4, #524]
 3685              	.LVL300:
  68:Src/Disk/fileWriter.h **** 			if (buff_pos < kBufferSize) {
 3686              		.loc 2 68 3 is_stmt 1 view .LVU1420
  68:Src/Disk/fileWriter.h **** 			if (buff_pos < kBufferSize) {
 3687              		.loc 2 68 20 view .LVU1421
  73:Src/Disk/fileWriter.h **** 			}
 3688              		.loc 2 73 15 is_stmt 0 view .LVU1422
 3689 089a 5646     		mov	r6, r10
  73:Src/Disk/fileWriter.h **** 			}
 3690              		.loc 2 73 15 view .LVU1423
 3691 089c ACE4     		b	.L329
 3692              	.LVL301:
 3693              	.L163:
  73:Src/Disk/fileWriter.h **** 			}
 3694              		.loc 2 73 15 view .LVU1424
 3695              	.LBE342:
 3696              	.LBE349:
 3697              	.LBE416:
 3698              	.LBE423:
 3699              	.LBE529:
 3700              	.LBB530:
 3701              	.LBB246:
 3702              	.LBB241:
 3703 089e 4046     		mov	r0, r8
 3704 08a0 84F80C12 		strb	r1, [r4, #524]
 3705              	.LVL302:
  68:Src/Disk/fileWriter.h **** 			if (buff_pos < kBufferSize) {
 3706              		.loc 2 68 3 is_stmt 1 view .LVU1425
  68:Src/Disk/fileWriter.h **** 			if (buff_pos < kBufferSize) {
 3707              		.loc 2 68 20 view .LVU1426
  73:Src/Disk/fileWriter.h **** 			}
 3708              		.loc 2 73 15 is_stmt 0 view .LVU1427
 3709 08a4 8046     		mov	r8, r0
 3710 08a6 FFF7CBBB 		b	.L330
 3711              	.LVL303:
 3712              	.L203:
  73:Src/Disk/fileWriter.h **** 			}
 3713              		.loc 2 73 15 view .LVU1428
 3714              	.LBE241:
 3715              	.LBE246:
 3716              	.LBE530:
 3717              	.LBB531:
 3718              	.LBB424:
 3719              	.LBB417:
 3720              	.LBB380:
 3721              	.LBB368:
 3722 08aa D446     		mov	ip, r10
 3723 08ac 84F80C12 		strb	r1, [r4, #524]
  68:Src/Disk/fileWriter.h **** 			if (buff_pos < kBufferSize) {
ARM GAS  /var/folders/84/_x1cyy_j36g486tldtwl37280000gn/T//cctc5fkA.s 			page 95


 3724              		.loc 2 68 3 is_stmt 1 view .LVU1429
  68:Src/Disk/fileWriter.h **** 			if (buff_pos < kBufferSize) {
 3725              		.loc 2 68 20 view .LVU1430
 3726              	.LVL304:
  68:Src/Disk/fileWriter.h **** 			if (buff_pos < kBufferSize) {
 3727              		.loc 2 68 20 is_stmt 0 view .LVU1431
 3728              	.LBE368:
 3729              	.LBE380:
 3730              	.LBE417:
 116:Src/Settings/midiClock.h **** 		fileWriter.write(sync_port_);
 3731              		.loc 6 116 20 view .LVU1432
 3732 08b0 E246     		mov	r10, ip
 116:Src/Settings/midiClock.h **** 		fileWriter.write(sync_port_);
 3733              		.loc 6 116 20 view .LVU1433
 3734 08b2 02E5     		b	.L331
 3735              	.LVL305:
 3736              	.L186:
 116:Src/Settings/midiClock.h **** 		fileWriter.write(sync_port_);
 3737              		.loc 6 116 20 view .LVU1434
 3738              	.LBE424:
 3739              	.LBE531:
 3740              	.LBB532:
 3741              	.LBB321:
 3742              	.LBB315:
 3743              	.LBB307:
  73:Src/Disk/fileWriter.h **** 			}
 3744              		.loc 2 73 15 view .LVU1435
 3745 08b4 84F80C12 		strb	r1, [r4, #524]
  68:Src/Disk/fileWriter.h **** 			if (buff_pos < kBufferSize) {
 3746              		.loc 2 68 3 is_stmt 1 view .LVU1436
  68:Src/Disk/fileWriter.h **** 			if (buff_pos < kBufferSize) {
 3747              		.loc 2 68 20 view .LVU1437
 3748 08b8 6DE4     		b	.L176
 3749              	.LVL306:
 3750              	.L207:
  68:Src/Disk/fileWriter.h **** 			if (buff_pos < kBufferSize) {
 3751              		.loc 2 68 20 is_stmt 0 view .LVU1438
 3752              	.LBE307:
 3753              	.LBE315:
 3754              	.LBE321:
 3755              	.LBE532:
 3756              	.LBB533:
 3757              	.LBB425:
 3758              	.LBB418:
 3759              	.LBB403:
 3760              	.LBB397:
  73:Src/Disk/fileWriter.h **** 			}
 3761              		.loc 2 73 15 view .LVU1439
 3762 08ba 84F80C22 		strb	r2, [r4, #524]
  68:Src/Disk/fileWriter.h **** 			if (buff_pos < kBufferSize) {
 3763              		.loc 2 68 3 is_stmt 1 view .LVU1440
  68:Src/Disk/fileWriter.h **** 			if (buff_pos < kBufferSize) {
 3764              		.loc 2 68 20 view .LVU1441
 3765 08be 2EE5     		b	.L198
 3766              	.LVL307:
 3767              	.L179:
  68:Src/Disk/fileWriter.h **** 			if (buff_pos < kBufferSize) {
ARM GAS  /var/folders/84/_x1cyy_j36g486tldtwl37280000gn/T//cctc5fkA.s 			page 96


 3768              		.loc 2 68 20 is_stmt 0 view .LVU1442
 3769              	.LBE397:
 3770              	.LBE403:
 3771              	.LBE418:
 3772              	.LBE425:
 3773              	.LBE533:
 3774              	.LBB534:
 3775              	.LBB322:
 3776              	.LBB290:
 3777              	.LBB283:
  73:Src/Disk/fileWriter.h **** 			}
 3778              		.loc 2 73 15 view .LVU1443
 3779 08c0 84F80CE2 		strb	lr, [r4, #524]
  68:Src/Disk/fileWriter.h **** 			if (buff_pos < kBufferSize) {
 3780              		.loc 2 68 3 is_stmt 1 view .LVU1444
  68:Src/Disk/fileWriter.h **** 			if (buff_pos < kBufferSize) {
 3781              		.loc 2 68 20 view .LVU1445
 3782 08c4 4EE4     		b	.L181
 3783              	.LVL308:
 3784              	.L167:
  68:Src/Disk/fileWriter.h **** 			if (buff_pos < kBufferSize) {
 3785              		.loc 2 68 20 is_stmt 0 view .LVU1446
 3786 08c6 D4F80832 		ldr	r3, [r4, #520]
 3787 08ca 2BE4     		b	.L166
 3788              	.L337:
 3789              		.align	2
 3790              	.L336:
 3791 08cc 00000000 		.word	_ZN9TrackData13pattern_pool_E
 3792 08d0 93010001 		.word	16777619
 3793 08d4 00000000 		.word	_ZN9TrackData8pattern_E
 3794 08d8 48B70000 		.word	_ZN9TrackData8pattern_E+46920
 3795              	.LBE283:
 3796              	.LBE290:
 3797              	.LBE322:
 3798              	.LBE534:
 3799              		.cfi_endproc
 3800              	.LFE2524:
 3802              		.section	.text._ZN4Song4loadER10FileReader,"ax",%progbits
 3803              		.align	1
 3804              		.p2align 2,,3
 3805              		.global	_ZN4Song4loadER10FileReader
 3806              		.syntax unified
 3807              		.thumb
 3808              		.thumb_func
 3809              		.fpu fpv4-sp-d16
 3811              	_ZN4Song4loadER10FileReader:
 3812              	.LVL309:
 3813              	.LFB2525:
  61:Src/Settings/song.cpp **** 
  62:Src/Settings/song.cpp **** void Song::load(FileReader &fileReader) {
 3814              		.loc 1 62 41 is_stmt 1 view -0
 3815              		.cfi_startproc
 3816              		@ args = 0, pretend = 0, frame = 8
 3817              		@ frame_needed = 0, uses_anonymous_args = 0
  63:Src/Settings/song.cpp **** 	fileReader.read(mute_flags);
 3818              		.loc 1 63 2 view .LVU1448
  62:Src/Settings/song.cpp **** 	fileReader.read(mute_flags);
ARM GAS  /var/folders/84/_x1cyy_j36g486tldtwl37280000gn/T//cctc5fkA.s 			page 97


 3819              		.loc 1 62 41 is_stmt 0 view .LVU1449
 3820 0000 2DE9F047 		push	{r4, r5, r6, r7, r8, r9, r10, lr}
 3821              		.cfi_def_cfa_offset 32
 3822              		.cfi_offset 4, -32
 3823              		.cfi_offset 5, -28
 3824              		.cfi_offset 6, -24
 3825              		.cfi_offset 7, -20
 3826              		.cfi_offset 8, -16
 3827              		.cfi_offset 9, -12
 3828              		.cfi_offset 10, -8
 3829              		.cfi_offset 14, -4
 3830              	.LBB689:
 3831              	.LBB690:
 3832              	.LBB691:
 3833              		.file 8 "Src/Disk/fileReader.h"
   1:Src/Disk/fileReader.h **** #ifndef FileReader_h
   2:Src/Disk/fileReader.h **** #define FileReader_h
   3:Src/Disk/fileReader.h **** 
   4:Src/Disk/fileReader.h **** // based on westlicht's fileReader
   5:Src/Disk/fileReader.h **** 
   6:Src/Disk/fileReader.h **** #include "file.h"
   7:Src/Disk/fileReader.h **** #include "hash.h"
   8:Src/Disk/fileReader.h **** 
   9:Src/Disk/fileReader.h **** class FileReader {
  10:Src/Disk/fileReader.h **** 
  11:Src/Disk/fileReader.h **** public:
  12:Src/Disk/fileReader.h **** 
  13:Src/Disk/fileReader.h **** 	bool read_ok() {
  14:Src/Disk/fileReader.h **** 		return read_ok_;
  15:Src/Disk/fileReader.h **** 	}
  16:Src/Disk/fileReader.h **** 
  17:Src/Disk/fileReader.h **** 	uint32_t version() {
  18:Src/Disk/fileReader.h **** 		return version_;
  19:Src/Disk/fileReader.h **** 	}
  20:Src/Disk/fileReader.h **** 
  21:Src/Disk/fileReader.h **** 	void start(File *file, const char* path) {
  22:Src/Disk/fileReader.h **** 		num_read = 0;
  23:Src/Disk/fileReader.h **** 		num_readable = 0;
  24:Src/Disk/fileReader.h **** 
  25:Src/Disk/fileReader.h **** 		file_ = file;
  26:Src/Disk/fileReader.h **** 		read_ok_ = file_->open(path);
  27:Src/Disk/fileReader.h **** 
  28:Src/Disk/fileReader.h **** 		hash_.init();
  29:Src/Disk/fileReader.h **** 
  30:Src/Disk/fileReader.h **** 		if (read_ok_) {
  31:Src/Disk/fileReader.h **** 			read(version_);
  32:Src/Disk/fileReader.h **** 		}
  33:Src/Disk/fileReader.h **** 	}
  34:Src/Disk/fileReader.h **** 
  35:Src/Disk/fileReader.h **** 	void stop() {
  36:Src/Disk/fileReader.h **** 		if (read_ok_) {
  37:Src/Disk/fileReader.h **** 			uint32_t hash = 0;
  38:Src/Disk/fileReader.h **** 			read_buffer(&hash, sizeof(hash));
  39:Src/Disk/fileReader.h **** 			read_ok_ = (hash == hash_.read());
  40:Src/Disk/fileReader.h **** 		}
  41:Src/Disk/fileReader.h **** 
  42:Src/Disk/fileReader.h **** 		if (!read_ok_) {
ARM GAS  /var/folders/84/_x1cyy_j36g486tldtwl37280000gn/T//cctc5fkA.s 			page 98


  43:Src/Disk/fileReader.h **** 			file_->close();
  44:Src/Disk/fileReader.h **** 			return;
  45:Src/Disk/fileReader.h **** 		}
  46:Src/Disk/fileReader.h **** 
  47:Src/Disk/fileReader.h **** 		read_ok_ = file_->close();
  48:Src/Disk/fileReader.h **** 	}
  49:Src/Disk/fileReader.h **** 
  50:Src/Disk/fileReader.h **** 	template<typename T>
  51:Src/Disk/fileReader.h **** 	void read(T &data) {
  52:Src/Disk/fileReader.h **** 		read_buffer(&data, sizeof(T));
  53:Src/Disk/fileReader.h **** 		hash_.write(&data, sizeof(T));
  54:Src/Disk/fileReader.h **** 	}
  55:Src/Disk/fileReader.h **** 
  56:Src/Disk/fileReader.h **** 	template<typename ReadT, typename T>
  57:Src/Disk/fileReader.h **** 	void read_as(T &data) {
  58:Src/Disk/fileReader.h **** 		ReadT temp = 0;
  59:Src/Disk/fileReader.h **** 		read(temp);
  60:Src/Disk/fileReader.h **** 		data = temp;
  61:Src/Disk/fileReader.h **** 	}
  62:Src/Disk/fileReader.h **** 
  63:Src/Disk/fileReader.h **** 	void skip(uint32_t size) {
  64:Src/Disk/fileReader.h **** 		uint8_t dummy = 0;
  65:Src/Disk/fileReader.h **** 		while (size--) {
  66:Src/Disk/fileReader.h **** 			read(dummy);
  67:Src/Disk/fileReader.h **** 		}
  68:Src/Disk/fileReader.h **** 	}
  69:Src/Disk/fileReader.h **** 
  70:Src/Disk/fileReader.h **** private:
  71:Src/Disk/fileReader.h **** 	static const int kBufferSize = 512;
  72:Src/Disk/fileReader.h **** 	uint8_t buffer[kBufferSize];
  73:Src/Disk/fileReader.h **** 
  74:Src/Disk/fileReader.h **** 	File *file_;
  75:Src/Disk/fileReader.h **** 	bool read_ok_;
  76:Src/Disk/fileReader.h **** 	uint32_t num_read = 0;
  77:Src/Disk/fileReader.h **** 	uint32_t num_readable = 0;
  78:Src/Disk/fileReader.h **** 	uint32_t version_ = 0;
  79:Src/Disk/fileReader.h **** 
  80:Src/Disk/fileReader.h **** 	Hash hash_;
  81:Src/Disk/fileReader.h **** 
  82:Src/Disk/fileReader.h **** 	void read_buffer(void *data, uint32_t size) {
  83:Src/Disk/fileReader.h **** 		uint8_t *data_ = reinterpret_cast<uint8_t *>(data);
  84:Src/Disk/fileReader.h **** 
  85:Src/Disk/fileReader.h **** 		while (read_ok_ && (size > 0)) {
 3834              		.loc 8 85 10 view .LVU1450
 3835 0004 91F80432 		ldrb	r3, [r1, #516]	@ zero_extendqisi2
 3836              	.LBE691:
 3837              	.LBE690:
 3838              	.LBE689:
  62:Src/Settings/song.cpp **** 	fileReader.read(mute_flags);
 3839              		.loc 1 62 41 view .LVU1451
 3840 0008 82B0     		sub	sp, sp, #8
 3841              		.cfi_def_cfa_offset 40
  62:Src/Settings/song.cpp **** 	fileReader.read(mute_flags);
 3842              		.loc 1 62 41 view .LVU1452
 3843 000a 0C46     		mov	r4, r1
 3844 000c 0546     		mov	r5, r0
 3845              		.loc 1 63 18 view .LVU1453
ARM GAS  /var/folders/84/_x1cyy_j36g486tldtwl37280000gn/T//cctc5fkA.s 			page 99


 3846 000e 00F17806 		add	r6, r0, #120
 3847              	.LVL310:
 3848              	.LBB710:
 3849              	.LBI689:
  51:Src/Disk/fileReader.h **** 		read_buffer(&data, sizeof(T));
 3850              		.loc 8 51 7 is_stmt 1 view .LVU1454
 3851              	.LBB706:
 3852              	.LBI690:
  82:Src/Disk/fileReader.h **** 		uint8_t *data_ = reinterpret_cast<uint8_t *>(data);
 3853              		.loc 8 82 7 view .LVU1455
 3854              	.LBB704:
 3855              		.loc 8 85 3 view .LVU1456
 3856              		.loc 8 85 19 view .LVU1457
 3857 0012 002B     		cmp	r3, #0
 3858 0014 3BD0     		beq	.L340
  86:Src/Disk/fileReader.h **** 			if (num_read < num_readable) {
 3859              		.loc 8 86 4 is_stmt 0 view .LVU1458
 3860 0016 D4E98231 		ldrd	r3, r1, [r4, #520]
 3861              	.LVL311:
 3862              		.loc 8 86 4 view .LVU1459
 3863 001a B046     		mov	r8, r6
 3864 001c 8B42     		cmp	r3, r1
  85:Src/Disk/fileReader.h **** 			if (num_read < num_readable) {
 3865              		.loc 8 85 19 view .LVU1460
 3866 001e 4FF00407 		mov	r7, #4
 3867              		.loc 8 86 4 is_stmt 1 view .LVU1461
  87:Src/Disk/fileReader.h **** 				*data_++ = buffer[num_read++];
 3868              		.loc 8 87 5 view .LVU1462
 3869              		.loc 8 87 11 is_stmt 0 view .LVU1463
 3870 0022 C146     		mov	r9, r8
 3871              	.LVL312:
 3872              		.loc 8 87 31 view .LVU1464
 3873 0024 03F10100 		add	r0, r3, #1
 3874              	.LVL313:
  86:Src/Disk/fileReader.h **** 			if (num_read < num_readable) {
 3875              		.loc 8 86 4 view .LVU1465
 3876 0028 11D2     		bcs	.L341
 3877              	.LVL314:
 3878              	.L571:
 3879              		.loc 8 87 31 view .LVU1466
 3880 002a C4F80802 		str	r0, [r4, #520]
 3881              		.loc 8 87 33 view .LVU1467
 3882 002e E05C     		ldrb	r0, [r4, r3]	@ zero_extendqisi2
 3883              		.loc 8 87 14 view .LVU1468
 3884 0030 09F8010B 		strb	r0, [r9], #1
  88:Src/Disk/fileReader.h **** 				--size;
 3885              		.loc 8 88 5 is_stmt 1 view .LVU1469
 3886              	.LVL315:
 3887              		.loc 8 88 5 is_stmt 0 view .LVU1470
 3888 0034 94F80432 		ldrb	r3, [r4, #516]	@ zero_extendqisi2
 3889 0038 013F     		subs	r7, r7, #1
 3890              	.LVL316:
  85:Src/Disk/fileReader.h **** 			if (num_read < num_readable) {
 3891              		.loc 8 85 3 is_stmt 1 view .LVU1471
  85:Src/Disk/fileReader.h **** 			if (num_read < num_readable) {
 3892              		.loc 8 85 19 view .LVU1472
 3893 003a 43B3     		cbz	r3, .L340
ARM GAS  /var/folders/84/_x1cyy_j36g486tldtwl37280000gn/T//cctc5fkA.s 			page 100


  85:Src/Disk/fileReader.h **** 			if (num_read < num_readable) {
 3894              		.loc 8 85 19 is_stmt 0 view .LVU1473
 3895 003c 3FB3     		cbz	r7, .L340
 3896              	.LVL317:
  89:Src/Disk/fileReader.h **** 			} else {
  90:Src/Disk/fileReader.h **** 				read_ok_ = fill_buffer(size);
 3897              		.loc 8 90 14 view .LVU1474
 3898 003e C846     		mov	r8, r9
 3899              	.LVL318:
 3900              	.L573:
  86:Src/Disk/fileReader.h **** 				*data_++ = buffer[num_read++];
 3901              		.loc 8 86 4 is_stmt 1 view .LVU1475
  87:Src/Disk/fileReader.h **** 				--size;
 3902              		.loc 8 87 5 view .LVU1476
  86:Src/Disk/fileReader.h **** 				*data_++ = buffer[num_read++];
 3903              		.loc 8 86 4 is_stmt 0 view .LVU1477
 3904 0040 D4E98231 		ldrd	r3, r1, [r4, #520]
 3905 0044 8B42     		cmp	r3, r1
  87:Src/Disk/fileReader.h **** 				--size;
 3906              		.loc 8 87 11 view .LVU1478
 3907 0046 C146     		mov	r9, r8
 3908              	.LVL319:
  87:Src/Disk/fileReader.h **** 				--size;
 3909              		.loc 8 87 31 view .LVU1479
 3910 0048 03F10100 		add	r0, r3, #1
  86:Src/Disk/fileReader.h **** 				*data_++ = buffer[num_read++];
 3911              		.loc 8 86 4 view .LVU1480
 3912 004c EDD3     		bcc	.L571
 3913              	.LVL320:
 3914              	.L341:
 3915              		.loc 8 90 5 is_stmt 1 view .LVU1481
 3916              	.LBB692:
 3917              	.LBI692:
  91:Src/Disk/fileReader.h **** 			}
  92:Src/Disk/fileReader.h **** 		}
  93:Src/Disk/fileReader.h **** 	}
  94:Src/Disk/fileReader.h **** 
  95:Src/Disk/fileReader.h **** 	bool fill_buffer(uint32_t requested_size) {
 3918              		.loc 8 95 7 view .LVU1482
 3919              	.LBB693:
  96:Src/Disk/fileReader.h **** 		num_read = 0;
 3920              		.loc 8 96 3 view .LVU1483
  97:Src/Disk/fileReader.h **** 		if (file_->read(buffer, kBufferSize, &num_readable)) {
 3921              		.loc 8 97 18 is_stmt 0 view .LVU1484
 3922 004e D4F80022 		ldr	r2, [r4, #512]
  96:Src/Disk/fileReader.h **** 		num_read = 0;
 3923              		.loc 8 96 12 view .LVU1485
 3924 0052 0023     		movs	r3, #0
 3925              	.LBB694:
 3926              	.LBB695:
  54:Src/Disk/file.h **** 	}
  55:Src/Disk/file.h **** 
  56:Src/Disk/file.h **** 	bool read(void* data, uint32_t size, uint32_t* num_read = nullptr) {
  57:Src/Disk/file.h **** 		UINT br;
  58:Src/Disk/file.h **** 		FRESULT res = f_read(fil, data, size, &br);
 3927              		.loc 3 58 23 view .LVU1486
 3928 0054 1068     		ldr	r0, [r2]
ARM GAS  /var/folders/84/_x1cyy_j36g486tldtwl37280000gn/T//cctc5fkA.s 			page 101


 3929              	.LBE695:
 3930              	.LBE694:
  96:Src/Disk/fileReader.h **** 		if (file_->read(buffer, kBufferSize, &num_readable)) {
 3931              		.loc 8 96 12 view .LVU1487
 3932 0056 C4F80832 		str	r3, [r4, #520]
 3933              		.loc 8 97 3 is_stmt 1 view .LVU1488
 3934              	.LVL321:
 3935              	.LBB698:
 3936              	.LBI694:
  56:Src/Disk/file.h **** 		UINT br;
 3937              		.loc 3 56 7 view .LVU1489
 3938              	.LBB696:
  57:Src/Disk/file.h **** 		FRESULT res = f_read(fil, data, size, &br);
 3939              		.loc 3 57 3 view .LVU1490
 3940              		.loc 3 58 3 view .LVU1491
 3941              		.loc 3 58 23 is_stmt 0 view .LVU1492
 3942 005a 2146     		mov	r1, r4
 3943 005c 01AB     		add	r3, sp, #4
 3944 005e 4FF40072 		mov	r2, #512
 3945              	.LVL322:
 3946              		.loc 3 58 23 view .LVU1493
 3947 0062 FFF7FEFF 		bl	f_read
 3948              	.LVL323:
  59:Src/Disk/file.h **** 		if (num_read) {
  60:Src/Disk/file.h **** 			*num_read = br;
 3949              		.loc 3 60 14 view .LVU1494
 3950 0066 0199     		ldr	r1, [sp, #4]
 3951 0068 C4F80C12 		str	r1, [r4, #524]
 3952              	.LVL324:
  59:Src/Disk/file.h **** 		if (num_read) {
 3953              		.loc 3 59 3 is_stmt 1 view .LVU1495
 3954              		.loc 3 60 4 view .LVU1496
  61:Src/Disk/file.h **** 		}
  62:Src/Disk/file.h **** 		return (br > 0) && (res == FR_OK);
 3955              		.loc 3 62 3 view .LVU1497
 3956              		.loc 3 62 19 is_stmt 0 view .LVU1498
 3957 006c 0029     		cmp	r1, #0
 3958 006e 00F04E81 		beq	.L343
 3959              	.LVL325:
 3960              		.loc 3 62 19 view .LVU1499
 3961              	.LBE696:
 3962              	.LBE698:
  98:Src/Disk/fileReader.h **** 			return (num_readable >= requested_size) || (num_readable >= kBufferSize);
 3963              		.loc 8 98 4 is_stmt 1 view .LVU1500
 3964              	.LBB699:
 3965              	.LBB697:
 3966              		.loc 3 62 19 is_stmt 0 view .LVU1501
 3967 0072 0028     		cmp	r0, #0
 3968 0074 40F04B81 		bne	.L343
 3969              	.LVL326:
 3970              		.loc 3 62 19 view .LVU1502
 3971              	.LBE697:
 3972              	.LBE699:
 3973              		.loc 8 98 44 view .LVU1503
 3974 0078 B942     		cmp	r1, r7
 3975              	.LBE693:
 3976              	.LBE692:
ARM GAS  /var/folders/84/_x1cyy_j36g486tldtwl37280000gn/T//cctc5fkA.s 			page 102


  90:Src/Disk/fileReader.h **** 			}
 3977              		.loc 8 90 14 view .LVU1504
 3978 007a 4FF00102 		mov	r2, #1
 3979              	.LBB702:
 3980              	.LBB700:
 3981              		.loc 8 98 44 view .LVU1505
 3982 007e 03D3     		bcc	.L572
 3983              	.LBE700:
 3984              	.LBE702:
  90:Src/Disk/fileReader.h **** 			}
 3985              		.loc 8 90 14 view .LVU1506
 3986 0080 84F80422 		strb	r2, [r4, #516]
 3987              	.LVL327:
  85:Src/Disk/fileReader.h **** 			if (num_read < num_readable) {
 3988              		.loc 8 85 3 is_stmt 1 view .LVU1507
  85:Src/Disk/fileReader.h **** 			if (num_read < num_readable) {
 3989              		.loc 8 85 19 view .LVU1508
  90:Src/Disk/fileReader.h **** 			}
 3990              		.loc 8 90 14 is_stmt 0 view .LVU1509
 3991 0084 C846     		mov	r8, r9
  90:Src/Disk/fileReader.h **** 			}
 3992              		.loc 8 90 14 view .LVU1510
 3993 0086 DBE7     		b	.L573
 3994              	.LVL328:
 3995              	.L572:
  90:Src/Disk/fileReader.h **** 			}
 3996              		.loc 8 90 14 view .LVU1511
 3997 0088 84F80402 		strb	r0, [r4, #516]
 3998              	.LVL329:
  85:Src/Disk/fileReader.h **** 			if (num_read < num_readable) {
 3999              		.loc 8 85 3 is_stmt 1 view .LVU1512
  85:Src/Disk/fileReader.h **** 			if (num_read < num_readable) {
 4000              		.loc 8 85 19 view .LVU1513
 4001              	.LBB703:
 4002              	.LBB701:
 4003              		.loc 8 98 44 is_stmt 0 view .LVU1514
 4004 008c 0346     		mov	r3, r0
 4005              	.LVL330:
 4006              	.L340:
 4007              		.loc 8 98 44 view .LVU1515
 4008              	.LBE701:
 4009              	.LBE703:
 4010              	.LBE704:
 4011              	.LBE706:
 4012              	.LBB707:
 4013              	.LBB708:
  21:/Users/joostbooy/Desktop/Code/stm32/lib/utils/hash.h **** 			hash_ *= prime_;
 4014              		.loc 4 21 4 is_stmt 1 view .LVU1516
 4015              		.loc 4 22 4 view .LVU1517
  21:/Users/joostbooy/Desktop/Code/stm32/lib/utils/hash.h **** 			hash_ *= prime_;
 4016              		.loc 4 21 10 is_stmt 0 view .LVU1518
 4017 008e D4F81402 		ldr	r0, [r4, #532]
 4018 0092 95F87810 		ldrb	r1, [r5, #120]	@ zero_extendqisi2
 4019              		.loc 4 22 10 view .LVU1519
 4020 0096 C04A     		ldr	r2, .L590
  21:/Users/joostbooy/Desktop/Code/stm32/lib/utils/hash.h **** 			hash_ *= prime_;
 4021              		.loc 4 21 10 view .LVU1520
ARM GAS  /var/folders/84/_x1cyy_j36g486tldtwl37280000gn/T//cctc5fkA.s 			page 103


 4022 0098 4140     		eors	r1, r1, r0
 4023              		.loc 4 22 10 view .LVU1521
 4024 009a 02FB01F7 		mul	r7, r2, r1
 4025 009e C4F81472 		str	r7, [r4, #532]
  20:/Users/joostbooy/Desktop/Code/stm32/lib/utils/hash.h **** 			hash_ ^= *data_++;
 4026              		.loc 4 20 3 is_stmt 1 view .LVU1522
  20:/Users/joostbooy/Desktop/Code/stm32/lib/utils/hash.h **** 			hash_ ^= *data_++;
 4027              		.loc 4 20 14 view .LVU1523
 4028              	.LVL331:
  21:/Users/joostbooy/Desktop/Code/stm32/lib/utils/hash.h **** 			hash_ *= prime_;
 4029              		.loc 4 21 4 view .LVU1524
 4030              		.loc 4 22 4 view .LVU1525
  21:/Users/joostbooy/Desktop/Code/stm32/lib/utils/hash.h **** 			hash_ *= prime_;
 4031              		.loc 4 21 10 is_stmt 0 view .LVU1526
 4032 00a2 95F87910 		ldrb	r1, [r5, #121]	@ zero_extendqisi2
 4033 00a6 7940     		eors	r1, r1, r7
 4034              		.loc 4 22 10 view .LVU1527
 4035 00a8 02FB01F0 		mul	r0, r2, r1
 4036 00ac C4F81402 		str	r0, [r4, #532]
  20:/Users/joostbooy/Desktop/Code/stm32/lib/utils/hash.h **** 			hash_ ^= *data_++;
 4037              		.loc 4 20 3 is_stmt 1 view .LVU1528
  20:/Users/joostbooy/Desktop/Code/stm32/lib/utils/hash.h **** 			hash_ ^= *data_++;
 4038              		.loc 4 20 14 view .LVU1529
 4039              	.LVL332:
  21:/Users/joostbooy/Desktop/Code/stm32/lib/utils/hash.h **** 			hash_ *= prime_;
 4040              		.loc 4 21 4 view .LVU1530
 4041              		.loc 4 22 4 view .LVU1531
  21:/Users/joostbooy/Desktop/Code/stm32/lib/utils/hash.h **** 			hash_ *= prime_;
 4042              		.loc 4 21 10 is_stmt 0 view .LVU1532
 4043 00b0 95F87A10 		ldrb	r1, [r5, #122]	@ zero_extendqisi2
 4044 00b4 4140     		eors	r1, r1, r0
 4045              		.loc 4 22 10 view .LVU1533
 4046 00b6 02FB01F1 		mul	r1, r2, r1
 4047 00ba C4F81412 		str	r1, [r4, #532]
  20:/Users/joostbooy/Desktop/Code/stm32/lib/utils/hash.h **** 			hash_ ^= *data_++;
 4048              		.loc 4 20 3 is_stmt 1 view .LVU1534
  20:/Users/joostbooy/Desktop/Code/stm32/lib/utils/hash.h **** 			hash_ ^= *data_++;
 4049              		.loc 4 20 14 view .LVU1535
 4050              	.LVL333:
  21:/Users/joostbooy/Desktop/Code/stm32/lib/utils/hash.h **** 			hash_ *= prime_;
 4051              		.loc 4 21 4 view .LVU1536
 4052              		.loc 4 22 4 view .LVU1537
  21:/Users/joostbooy/Desktop/Code/stm32/lib/utils/hash.h **** 			hash_ *= prime_;
 4053              		.loc 4 21 10 is_stmt 0 view .LVU1538
 4054 00be 95F87B70 		ldrb	r7, [r5, #123]	@ zero_extendqisi2
 4055 00c2 7940     		eors	r1, r1, r7
 4056              		.loc 4 22 10 view .LVU1539
 4057 00c4 02FB01F1 		mul	r1, r2, r1
 4058 00c8 C4F81412 		str	r1, [r4, #532]
  20:/Users/joostbooy/Desktop/Code/stm32/lib/utils/hash.h **** 			hash_ ^= *data_++;
 4059              		.loc 4 20 3 is_stmt 1 view .LVU1540
  20:/Users/joostbooy/Desktop/Code/stm32/lib/utils/hash.h **** 			hash_ ^= *data_++;
 4060              		.loc 4 20 14 view .LVU1541
 4061              	.LVL334:
  20:/Users/joostbooy/Desktop/Code/stm32/lib/utils/hash.h **** 			hash_ ^= *data_++;
 4062              		.loc 4 20 14 is_stmt 0 view .LVU1542
 4063              	.LBE708:
ARM GAS  /var/folders/84/_x1cyy_j36g486tldtwl37280000gn/T//cctc5fkA.s 			page 104


 4064              	.LBE707:
 4065              	.LBE710:
  64:Src/Settings/song.cpp **** 	fileReader.read(solo_flags);
 4066              		.loc 1 64 2 is_stmt 1 view .LVU1543
 4067              		.loc 1 64 18 is_stmt 0 view .LVU1544
 4068 00cc 05F17C08 		add	r8, r5, #124
 4069              	.LVL335:
 4070              	.LBB711:
 4071              	.LBI711:
  51:Src/Disk/fileReader.h **** 		read_buffer(&data, sizeof(T));
 4072              		.loc 8 51 7 is_stmt 1 view .LVU1545
 4073              	.LBB712:
 4074              	.LBB713:
  85:Src/Disk/fileReader.h **** 			if (num_read < num_readable) {
 4075              		.loc 8 85 3 view .LVU1546
  85:Src/Disk/fileReader.h **** 			if (num_read < num_readable) {
 4076              		.loc 8 85 19 view .LVU1547
 4077 00d0 0427     		movs	r7, #4
 4078 00d2 002B     		cmp	r3, #0
 4079 00d4 3CD0     		beq	.L348
 4080              	.LVL336:
  86:Src/Disk/fileReader.h **** 				*data_++ = buffer[num_read++];
 4081              		.loc 8 86 4 view .LVU1548
  87:Src/Disk/fileReader.h **** 				--size;
 4082              		.loc 8 87 5 view .LVU1549
  86:Src/Disk/fileReader.h **** 				*data_++ = buffer[num_read++];
 4083              		.loc 8 86 4 is_stmt 0 view .LVU1550
 4084 00d6 D4E9823A 		ldrd	r3, r10, [r4, #520]
 4085 00da 5345     		cmp	r3, r10
  87:Src/Disk/fileReader.h **** 				--size;
 4086              		.loc 8 87 11 view .LVU1551
 4087 00dc C446     		mov	ip, r8
 4088              	.LVL337:
  87:Src/Disk/fileReader.h **** 				--size;
 4089              		.loc 8 87 31 view .LVU1552
 4090 00de 03F10101 		add	r1, r3, #1
  86:Src/Disk/fileReader.h **** 				*data_++ = buffer[num_read++];
 4091              		.loc 8 86 4 view .LVU1553
 4092 00e2 14D2     		bcs	.L350
 4093              	.LVL338:
 4094              	.L574:
  87:Src/Disk/fileReader.h **** 				--size;
 4095              		.loc 8 87 31 view .LVU1554
 4096 00e4 C4F80812 		str	r1, [r4, #520]
  87:Src/Disk/fileReader.h **** 				--size;
 4097              		.loc 8 87 33 view .LVU1555
 4098 00e8 14F803E0 		ldrb	lr, [r4, r3]	@ zero_extendqisi2
  87:Src/Disk/fileReader.h **** 				--size;
 4099              		.loc 8 87 14 view .LVU1556
 4100 00ec 0CF801EB 		strb	lr, [ip], #1
  88:Src/Disk/fileReader.h **** 			} else {
 4101              		.loc 8 88 5 is_stmt 1 view .LVU1557
 4102              	.LVL339:
  88:Src/Disk/fileReader.h **** 			} else {
 4103              		.loc 8 88 5 is_stmt 0 view .LVU1558
 4104 00f0 94F80432 		ldrb	r3, [r4, #516]	@ zero_extendqisi2
 4105 00f4 013F     		subs	r7, r7, #1
ARM GAS  /var/folders/84/_x1cyy_j36g486tldtwl37280000gn/T//cctc5fkA.s 			page 105


 4106              	.LVL340:
  85:Src/Disk/fileReader.h **** 			if (num_read < num_readable) {
 4107              		.loc 8 85 3 is_stmt 1 view .LVU1559
  85:Src/Disk/fileReader.h **** 			if (num_read < num_readable) {
 4108              		.loc 8 85 19 view .LVU1560
 4109 00f6 43B3     		cbz	r3, .L352
  85:Src/Disk/fileReader.h **** 			if (num_read < num_readable) {
 4110              		.loc 8 85 19 is_stmt 0 view .LVU1561
 4111 00f8 002F     		cmp	r7, #0
 4112 00fa 00F02481 		beq	.L349
 4113              	.LVL341:
  90:Src/Disk/fileReader.h **** 			}
 4114              		.loc 8 90 14 view .LVU1562
 4115 00fe E046     		mov	r8, ip
 4116              	.LVL342:
 4117              	.L575:
  86:Src/Disk/fileReader.h **** 				*data_++ = buffer[num_read++];
 4118              		.loc 8 86 4 is_stmt 1 view .LVU1563
  87:Src/Disk/fileReader.h **** 				--size;
 4119              		.loc 8 87 5 view .LVU1564
  86:Src/Disk/fileReader.h **** 				*data_++ = buffer[num_read++];
 4120              		.loc 8 86 4 is_stmt 0 view .LVU1565
 4121 0100 D4E9823A 		ldrd	r3, r10, [r4, #520]
 4122 0104 5345     		cmp	r3, r10
  87:Src/Disk/fileReader.h **** 				--size;
 4123              		.loc 8 87 11 view .LVU1566
 4124 0106 C446     		mov	ip, r8
 4125              	.LVL343:
  87:Src/Disk/fileReader.h **** 				--size;
 4126              		.loc 8 87 31 view .LVU1567
 4127 0108 03F10101 		add	r1, r3, #1
  86:Src/Disk/fileReader.h **** 				*data_++ = buffer[num_read++];
 4128              		.loc 8 86 4 view .LVU1568
 4129 010c EAD3     		bcc	.L574
 4130              	.LVL344:
 4131              	.L350:
  90:Src/Disk/fileReader.h **** 			}
 4132              		.loc 8 90 5 is_stmt 1 view .LVU1569
 4133              	.LBB714:
 4134              	.LBI714:
  95:Src/Disk/fileReader.h **** 		num_read = 0;
 4135              		.loc 8 95 7 view .LVU1570
 4136              	.LBB715:
  96:Src/Disk/fileReader.h **** 		if (file_->read(buffer, kBufferSize, &num_readable)) {
 4137              		.loc 8 96 3 view .LVU1571
  97:Src/Disk/fileReader.h **** 			return (num_readable >= requested_size) || (num_readable >= kBufferSize);
 4138              		.loc 8 97 18 is_stmt 0 view .LVU1572
 4139 010e D4F80022 		ldr	r2, [r4, #512]
  96:Src/Disk/fileReader.h **** 		if (file_->read(buffer, kBufferSize, &num_readable)) {
 4140              		.loc 8 96 12 view .LVU1573
 4141 0112 0023     		movs	r3, #0
 4142              	.LBB716:
 4143              	.LBB717:
  58:Src/Disk/file.h **** 		if (num_read) {
 4144              		.loc 3 58 23 view .LVU1574
 4145 0114 1068     		ldr	r0, [r2]
 4146              	.LBE717:
ARM GAS  /var/folders/84/_x1cyy_j36g486tldtwl37280000gn/T//cctc5fkA.s 			page 106


 4147              	.LBE716:
  96:Src/Disk/fileReader.h **** 		if (file_->read(buffer, kBufferSize, &num_readable)) {
 4148              		.loc 8 96 12 view .LVU1575
 4149 0116 C4F80832 		str	r3, [r4, #520]
  97:Src/Disk/fileReader.h **** 			return (num_readable >= requested_size) || (num_readable >= kBufferSize);
 4150              		.loc 8 97 3 is_stmt 1 view .LVU1576
 4151              	.LVL345:
 4152              	.LBB720:
 4153              	.LBI716:
  56:Src/Disk/file.h **** 		UINT br;
 4154              		.loc 3 56 7 view .LVU1577
 4155              	.LBB718:
  57:Src/Disk/file.h **** 		FRESULT res = f_read(fil, data, size, &br);
 4156              		.loc 3 57 3 view .LVU1578
  58:Src/Disk/file.h **** 		if (num_read) {
 4157              		.loc 3 58 3 view .LVU1579
  58:Src/Disk/file.h **** 		if (num_read) {
 4158              		.loc 3 58 23 is_stmt 0 view .LVU1580
 4159 011a 2146     		mov	r1, r4
 4160 011c 01AB     		add	r3, sp, #4
 4161 011e 4FF40072 		mov	r2, #512
 4162              	.LVL346:
  58:Src/Disk/file.h **** 		if (num_read) {
 4163              		.loc 3 58 23 view .LVU1581
 4164 0122 FFF7FEFF 		bl	f_read
 4165              	.LVL347:
  60:Src/Disk/file.h **** 		}
 4166              		.loc 3 60 14 view .LVU1582
 4167 0126 0199     		ldr	r1, [sp, #4]
 4168 0128 C4F80C12 		str	r1, [r4, #524]
 4169              	.LVL348:
  59:Src/Disk/file.h **** 			*num_read = br;
 4170              		.loc 3 59 3 is_stmt 1 view .LVU1583
  60:Src/Disk/file.h **** 		}
 4171              		.loc 3 60 4 view .LVU1584
 4172              		.loc 3 62 3 view .LVU1585
 4173              		.loc 3 62 19 is_stmt 0 view .LVU1586
 4174 012c 51B1     		cbz	r1, .L353
 4175              	.LVL349:
 4176              		.loc 3 62 19 view .LVU1587
 4177              	.LBE718:
 4178              	.LBE720:
 4179              		.loc 8 98 4 is_stmt 1 view .LVU1588
 4180              	.LBB721:
 4181              	.LBB719:
 4182              		.loc 3 62 19 is_stmt 0 view .LVU1589
 4183 012e 48B9     		cbnz	r0, .L353
 4184              	.LVL350:
 4185              		.loc 3 62 19 view .LVU1590
 4186              	.LBE719:
 4187              	.LBE721:
 4188              		.loc 8 98 44 view .LVU1591
 4189 0130 B942     		cmp	r1, r7
 4190              	.LBE715:
 4191              	.LBE714:
  90:Src/Disk/fileReader.h **** 			}
 4192              		.loc 8 90 14 view .LVU1592
ARM GAS  /var/folders/84/_x1cyy_j36g486tldtwl37280000gn/T//cctc5fkA.s 			page 107


 4193 0132 4FF00102 		mov	r2, #1
 4194              	.LBB723:
 4195              	.LBB722:
 4196              		.loc 8 98 44 view .LVU1593
 4197 0136 C0F00381 		bcc	.L355
 4198              	.LBE722:
 4199              	.LBE723:
  90:Src/Disk/fileReader.h **** 			}
 4200              		.loc 8 90 14 view .LVU1594
 4201 013a C446     		mov	ip, r8
 4202 013c 84F80422 		strb	r2, [r4, #516]
 4203              	.LVL351:
  85:Src/Disk/fileReader.h **** 			if (num_read < num_readable) {
 4204              		.loc 8 85 3 is_stmt 1 view .LVU1595
  85:Src/Disk/fileReader.h **** 			if (num_read < num_readable) {
 4205              		.loc 8 85 19 view .LVU1596
  90:Src/Disk/fileReader.h **** 			}
 4206              		.loc 8 90 14 is_stmt 0 view .LVU1597
 4207 0140 E046     		mov	r8, ip
 4208 0142 DDE7     		b	.L575
 4209              	.LVL352:
 4210              	.L353:
  90:Src/Disk/fileReader.h **** 			}
 4211              		.loc 8 90 14 view .LVU1598
 4212 0144 0020     		movs	r0, #0
 4213 0146 84F80402 		strb	r0, [r4, #516]
 4214              	.LVL353:
  85:Src/Disk/fileReader.h **** 			if (num_read < num_readable) {
 4215              		.loc 8 85 3 is_stmt 1 view .LVU1599
  85:Src/Disk/fileReader.h **** 			if (num_read < num_readable) {
 4216              		.loc 8 85 19 view .LVU1600
 4217              	.L352:
  85:Src/Disk/fileReader.h **** 			if (num_read < num_readable) {
 4218              		.loc 8 85 19 is_stmt 0 view .LVU1601
 4219 014a D4F81412 		ldr	r1, [r4, #532]
 4220 014e 0023     		movs	r3, #0
 4221              	.L348:
 4222              	.LVL354:
  85:Src/Disk/fileReader.h **** 			if (num_read < num_readable) {
 4223              		.loc 8 85 19 view .LVU1602
 4224              	.LBE713:
 4225              	.LBE712:
 4226              	.LBB725:
 4227              	.LBB726:
  21:/Users/joostbooy/Desktop/Code/stm32/lib/utils/hash.h **** 			hash_ *= prime_;
 4228              		.loc 4 21 4 is_stmt 1 view .LVU1603
 4229              		.loc 4 22 4 view .LVU1604
  21:/Users/joostbooy/Desktop/Code/stm32/lib/utils/hash.h **** 			hash_ *= prime_;
 4230              		.loc 4 21 10 is_stmt 0 view .LVU1605
 4231 0150 95F87C00 		ldrb	r0, [r5, #124]	@ zero_extendqisi2
 4232              		.loc 4 22 10 view .LVU1606
 4233 0154 904A     		ldr	r2, .L590
  21:/Users/joostbooy/Desktop/Code/stm32/lib/utils/hash.h **** 			hash_ *= prime_;
 4234              		.loc 4 21 10 view .LVU1607
 4235 0156 4140     		eors	r1, r1, r0
 4236              		.loc 4 22 10 view .LVU1608
 4237 0158 02FB01F7 		mul	r7, r2, r1
ARM GAS  /var/folders/84/_x1cyy_j36g486tldtwl37280000gn/T//cctc5fkA.s 			page 108


 4238 015c C4F81472 		str	r7, [r4, #532]
  20:/Users/joostbooy/Desktop/Code/stm32/lib/utils/hash.h **** 			hash_ ^= *data_++;
 4239              		.loc 4 20 3 is_stmt 1 view .LVU1609
  20:/Users/joostbooy/Desktop/Code/stm32/lib/utils/hash.h **** 			hash_ ^= *data_++;
 4240              		.loc 4 20 14 view .LVU1610
 4241              	.LVL355:
  21:/Users/joostbooy/Desktop/Code/stm32/lib/utils/hash.h **** 			hash_ *= prime_;
 4242              		.loc 4 21 4 view .LVU1611
 4243              		.loc 4 22 4 view .LVU1612
  21:/Users/joostbooy/Desktop/Code/stm32/lib/utils/hash.h **** 			hash_ *= prime_;
 4244              		.loc 4 21 10 is_stmt 0 view .LVU1613
 4245 0160 95F87D10 		ldrb	r1, [r5, #125]	@ zero_extendqisi2
 4246 0164 7940     		eors	r1, r1, r7
 4247              		.loc 4 22 10 view .LVU1614
 4248 0166 02FB01F0 		mul	r0, r2, r1
 4249 016a C4F81402 		str	r0, [r4, #532]
  20:/Users/joostbooy/Desktop/Code/stm32/lib/utils/hash.h **** 			hash_ ^= *data_++;
 4250              		.loc 4 20 3 is_stmt 1 view .LVU1615
  20:/Users/joostbooy/Desktop/Code/stm32/lib/utils/hash.h **** 			hash_ ^= *data_++;
 4251              		.loc 4 20 14 view .LVU1616
 4252              	.LVL356:
  21:/Users/joostbooy/Desktop/Code/stm32/lib/utils/hash.h **** 			hash_ *= prime_;
 4253              		.loc 4 21 4 view .LVU1617
 4254              		.loc 4 22 4 view .LVU1618
  21:/Users/joostbooy/Desktop/Code/stm32/lib/utils/hash.h **** 			hash_ *= prime_;
 4255              		.loc 4 21 10 is_stmt 0 view .LVU1619
 4256 016e 95F87E70 		ldrb	r7, [r5, #126]	@ zero_extendqisi2
 4257 0172 4740     		eors	r7, r7, r0
 4258              		.loc 4 22 10 view .LVU1620
 4259 0174 02FB07F7 		mul	r7, r2, r7
 4260 0178 C4F81472 		str	r7, [r4, #532]
  20:/Users/joostbooy/Desktop/Code/stm32/lib/utils/hash.h **** 			hash_ ^= *data_++;
 4261              		.loc 4 20 3 is_stmt 1 view .LVU1621
  20:/Users/joostbooy/Desktop/Code/stm32/lib/utils/hash.h **** 			hash_ ^= *data_++;
 4262              		.loc 4 20 14 view .LVU1622
 4263              	.LVL357:
  21:/Users/joostbooy/Desktop/Code/stm32/lib/utils/hash.h **** 			hash_ *= prime_;
 4264              		.loc 4 21 4 view .LVU1623
 4265              		.loc 4 22 4 view .LVU1624
  21:/Users/joostbooy/Desktop/Code/stm32/lib/utils/hash.h **** 			hash_ *= prime_;
 4266              		.loc 4 21 10 is_stmt 0 view .LVU1625
 4267 017c 95F87F10 		ldrb	r1, [r5, #127]	@ zero_extendqisi2
 4268 0180 4F40     		eors	r7, r7, r1
 4269              		.loc 4 22 10 view .LVU1626
 4270 0182 02FB07F2 		mul	r2, r2, r7
 4271 0186 C4F81422 		str	r2, [r4, #532]
  20:/Users/joostbooy/Desktop/Code/stm32/lib/utils/hash.h **** 			hash_ ^= *data_++;
 4272              		.loc 4 20 3 is_stmt 1 view .LVU1627
  20:/Users/joostbooy/Desktop/Code/stm32/lib/utils/hash.h **** 			hash_ ^= *data_++;
 4273              		.loc 4 20 14 view .LVU1628
 4274              	.LVL358:
  20:/Users/joostbooy/Desktop/Code/stm32/lib/utils/hash.h **** 			hash_ ^= *data_++;
 4275              		.loc 4 20 14 is_stmt 0 view .LVU1629
 4276              	.LBE726:
 4277              	.LBE725:
 4278              	.LBE711:
  65:Src/Settings/song.cpp **** 
ARM GAS  /var/folders/84/_x1cyy_j36g486tldtwl37280000gn/T//cctc5fkA.s 			page 109


  66:Src/Settings/song.cpp **** 	scale.load(fileReader);
 4279              		.loc 1 66 2 is_stmt 1 view .LVU1630
 4280              	.LBB728:
 4281              	.LBI728:
 148:Src/Settings/scale.h **** 		fileReader.read(root_);
 4282              		.loc 5 148 7 view .LVU1631
 4283              	.LBB729:
 149:Src/Settings/scale.h **** 		fileReader.read(type_);
 4284              		.loc 5 149 3 view .LVU1632
 4285              	.LBB730:
 4286              	.LBI730:
  51:Src/Disk/fileReader.h **** 		read_buffer(&data, sizeof(T));
 4287              		.loc 8 51 7 view .LVU1633
 4288              	.LBB731:
 4289              	.LBB732:
  85:Src/Disk/fileReader.h **** 			if (num_read < num_readable) {
 4290              		.loc 8 85 3 view .LVU1634
  85:Src/Disk/fileReader.h **** 			if (num_read < num_readable) {
 4291              		.loc 8 85 19 view .LVU1635
 4292 018a 002B     		cmp	r3, #0
 4293 018c 00F0CA84 		beq	.L357
 4294 0190 D4F80C12 		ldr	r1, [r4, #524]
 4295              	.L364:
  86:Src/Disk/fileReader.h **** 				*data_++ = buffer[num_read++];
 4296              		.loc 8 86 4 view .LVU1636
  86:Src/Disk/fileReader.h **** 				*data_++ = buffer[num_read++];
 4297              		.loc 8 86 8 is_stmt 0 view .LVU1637
 4298 0194 D4F80832 		ldr	r3, [r4, #520]
  86:Src/Disk/fileReader.h **** 				*data_++ = buffer[num_read++];
 4299              		.loc 8 86 4 view .LVU1638
 4300 0198 8B42     		cmp	r3, r1
 4301 019a 80F0A280 		bcs	.L358
  87:Src/Disk/fileReader.h **** 				--size;
 4302              		.loc 8 87 5 is_stmt 1 view .LVU1639
  87:Src/Disk/fileReader.h **** 				--size;
 4303              		.loc 8 87 31 is_stmt 0 view .LVU1640
 4304 019e 5A1C     		adds	r2, r3, #1
 4305 01a0 C4F80822 		str	r2, [r4, #520]
 4306              	.LVL359:
  87:Src/Disk/fileReader.h **** 				--size;
 4307              		.loc 8 87 33 view .LVU1641
 4308 01a4 E75C     		ldrb	r7, [r4, r3]	@ zero_extendqisi2
  87:Src/Disk/fileReader.h **** 				--size;
 4309              		.loc 8 87 14 view .LVU1642
 4310 01a6 6F70     		strb	r7, [r5, #1]
  88:Src/Disk/fileReader.h **** 			} else {
 4311              		.loc 8 88 5 is_stmt 1 view .LVU1643
 4312              	.LVL360:
  85:Src/Disk/fileReader.h **** 			if (num_read < num_readable) {
 4313              		.loc 8 85 3 view .LVU1644
  85:Src/Disk/fileReader.h **** 			if (num_read < num_readable) {
 4314              		.loc 8 85 19 view .LVU1645
 4315              	.LBE732:
 4316              	.LBE731:
 4317              	.LBB745:
 4318              	.LBB746:
  21:/Users/joostbooy/Desktop/Code/stm32/lib/utils/hash.h **** 			hash_ *= prime_;
ARM GAS  /var/folders/84/_x1cyy_j36g486tldtwl37280000gn/T//cctc5fkA.s 			page 110


 4319              		.loc 4 21 10 is_stmt 0 view .LVU1646
 4320 01a8 D4F81402 		ldr	r0, [r4, #532]
 4321              		.loc 4 22 10 view .LVU1647
 4322 01ac 7A4B     		ldr	r3, .L590
 4323 01ae 94F80412 		ldrb	r1, [r4, #516]	@ zero_extendqisi2
 4324              	.LVL361:
  20:/Users/joostbooy/Desktop/Code/stm32/lib/utils/hash.h **** 			hash_ ^= *data_++;
 4325              		.loc 4 20 3 is_stmt 1 view .LVU1648
  20:/Users/joostbooy/Desktop/Code/stm32/lib/utils/hash.h **** 			hash_ ^= *data_++;
 4326              		.loc 4 20 14 view .LVU1649
  21:/Users/joostbooy/Desktop/Code/stm32/lib/utils/hash.h **** 			hash_ *= prime_;
 4327              		.loc 4 21 4 view .LVU1650
 4328              		.loc 4 22 4 view .LVU1651
  21:/Users/joostbooy/Desktop/Code/stm32/lib/utils/hash.h **** 			hash_ *= prime_;
 4329              		.loc 4 21 10 is_stmt 0 view .LVU1652
 4330 01b2 4740     		eors	r7, r7, r0
 4331              		.loc 4 22 10 view .LVU1653
 4332 01b4 03FB07F3 		mul	r3, r3, r7
 4333 01b8 C4F81432 		str	r3, [r4, #532]
  20:/Users/joostbooy/Desktop/Code/stm32/lib/utils/hash.h **** 			hash_ ^= *data_++;
 4334              		.loc 4 20 3 is_stmt 1 view .LVU1654
  20:/Users/joostbooy/Desktop/Code/stm32/lib/utils/hash.h **** 			hash_ ^= *data_++;
 4335              		.loc 4 20 14 view .LVU1655
 4336              	.LVL362:
  20:/Users/joostbooy/Desktop/Code/stm32/lib/utils/hash.h **** 			hash_ ^= *data_++;
 4337              		.loc 4 20 14 is_stmt 0 view .LVU1656
 4338              	.LBE746:
 4339              	.LBE745:
 4340              	.LBE730:
 150:Src/Settings/scale.h **** 		set_root(root_);
 4341              		.loc 5 150 3 is_stmt 1 view .LVU1657
 4342              	.LBB751:
 4343              	.LBI751:
  51:Src/Disk/fileReader.h **** 		read_buffer(&data, sizeof(T));
 4344              		.loc 8 51 7 view .LVU1658
 4345              	.LBB752:
 4346              	.LBB753:
  85:Src/Disk/fileReader.h **** 			if (num_read < num_readable) {
 4347              		.loc 8 85 3 view .LVU1659
  85:Src/Disk/fileReader.h **** 			if (num_read < num_readable) {
 4348              		.loc 8 85 19 view .LVU1660
 4349 01bc 0029     		cmp	r1, #0
 4350 01be 00F0BD80 		beq	.L360
 4351 01c2 D4F80C12 		ldr	r1, [r4, #524]
 4352              	.L369:
  86:Src/Disk/fileReader.h **** 				*data_++ = buffer[num_read++];
 4353              		.loc 8 86 4 view .LVU1661
  86:Src/Disk/fileReader.h **** 				*data_++ = buffer[num_read++];
 4354              		.loc 8 86 8 is_stmt 0 view .LVU1662
 4355 01c6 D4F80832 		ldr	r3, [r4, #520]
  86:Src/Disk/fileReader.h **** 				*data_++ = buffer[num_read++];
 4356              		.loc 8 86 4 view .LVU1663
 4357 01ca 8B42     		cmp	r3, r1
 4358 01cc 73D2     		bcs	.L365
  87:Src/Disk/fileReader.h **** 				--size;
 4359              		.loc 8 87 5 is_stmt 1 view .LVU1664
  87:Src/Disk/fileReader.h **** 				--size;
ARM GAS  /var/folders/84/_x1cyy_j36g486tldtwl37280000gn/T//cctc5fkA.s 			page 111


 4360              		.loc 8 87 31 is_stmt 0 view .LVU1665
 4361 01ce 5A1C     		adds	r2, r3, #1
 4362 01d0 C4F80822 		str	r2, [r4, #520]
 4363              	.LVL363:
  87:Src/Disk/fileReader.h **** 				--size;
 4364              		.loc 8 87 33 view .LVU1666
 4365 01d4 E25C     		ldrb	r2, [r4, r3]	@ zero_extendqisi2
  87:Src/Disk/fileReader.h **** 				--size;
 4366              		.loc 8 87 14 view .LVU1667
 4367 01d6 2A70     		strb	r2, [r5]
  88:Src/Disk/fileReader.h **** 			} else {
 4368              		.loc 8 88 5 is_stmt 1 view .LVU1668
 4369              	.LVL364:
  85:Src/Disk/fileReader.h **** 			if (num_read < num_readable) {
 4370              		.loc 8 85 3 view .LVU1669
  85:Src/Disk/fileReader.h **** 			if (num_read < num_readable) {
 4371              		.loc 8 85 19 view .LVU1670
 4372 01d8 D4F81432 		ldr	r3, [r4, #532]
 4373              	.LVL365:
 4374              	.L366:
  85:Src/Disk/fileReader.h **** 			if (num_read < num_readable) {
 4375              		.loc 8 85 19 is_stmt 0 view .LVU1671
 4376              	.LBE753:
 4377              	.LBE752:
 4378              	.LBB767:
 4379              	.LBB768:
  20:/Users/joostbooy/Desktop/Code/stm32/lib/utils/hash.h **** 			hash_ ^= *data_++;
 4380              		.loc 4 20 3 is_stmt 1 view .LVU1672
  20:/Users/joostbooy/Desktop/Code/stm32/lib/utils/hash.h **** 			hash_ ^= *data_++;
 4381              		.loc 4 20 14 view .LVU1673
  21:/Users/joostbooy/Desktop/Code/stm32/lib/utils/hash.h **** 			hash_ *= prime_;
 4382              		.loc 4 21 4 view .LVU1674
 4383              		.loc 4 22 4 view .LVU1675
 4384              		.loc 4 22 10 is_stmt 0 view .LVU1676
 4385 01dc 6E49     		ldr	r1, .L590
 4386 01de 6868     		ldr	r0, [r5, #4]
  21:/Users/joostbooy/Desktop/Code/stm32/lib/utils/hash.h **** 			hash_ *= prime_;
 4387              		.loc 4 21 10 view .LVU1677
 4388 01e0 5340     		eors	r3, r3, r2
 4389              		.loc 4 22 10 view .LVU1678
 4390 01e2 01FB03F3 		mul	r3, r1, r3
 4391 01e6 C4F81432 		str	r3, [r4, #532]
  20:/Users/joostbooy/Desktop/Code/stm32/lib/utils/hash.h **** 			hash_ ^= *data_++;
 4392              		.loc 4 20 3 is_stmt 1 view .LVU1679
  20:/Users/joostbooy/Desktop/Code/stm32/lib/utils/hash.h **** 			hash_ ^= *data_++;
 4393              		.loc 4 20 14 view .LVU1680
 4394              	.LVL366:
  20:/Users/joostbooy/Desktop/Code/stm32/lib/utils/hash.h **** 			hash_ ^= *data_++;
 4395              		.loc 4 20 14 is_stmt 0 view .LVU1681
 4396              	.LBE768:
 4397              	.LBE767:
 4398              	.LBE751:
 151:Src/Settings/scale.h **** 		set_type(type_);
 4399              		.loc 5 151 3 is_stmt 1 view .LVU1682
 4400              	.LBB772:
 4401              	.LBI772:
  53:Src/Settings/scale.h **** 		root_ = stmlib::clip(0, 11, value);
ARM GAS  /var/folders/84/_x1cyy_j36g486tldtwl37280000gn/T//cctc5fkA.s 			page 112


 4402              		.loc 5 53 14 view .LVU1683
 4403              	.LBB773:
  54:Src/Settings/scale.h **** 		make_keymap();
 4404              		.loc 5 54 3 view .LVU1684
  54:Src/Settings/scale.h **** 		make_keymap();
 4405              		.loc 5 54 3 is_stmt 0 view .LVU1685
 4406              	.LBE773:
 4407              	.LBE772:
 4408              	.LBE729:
 4409              	.LBE728:
 4410              		.file 9 "stm32/stmf4lib.h"
   1:stm32/stmf4lib.h **** #ifndef STM32F4Lib_h
   2:stm32/stmf4lib.h **** #define STM32F4Lib_h
   3:stm32/stmf4lib.h **** 
   4:stm32/stmf4lib.h **** #include "stm32f4xx.h"
   5:stm32/stmf4lib.h **** #include <functional>
   6:stm32/stmf4lib.h **** #include <stdlib.h>
   7:stm32/stmf4lib.h **** #include <stdint.h>
   8:stm32/stmf4lib.h **** #include <limits>
   9:stm32/stmf4lib.h **** #include <cstring>
  10:stm32/stmf4lib.h **** #include <cmath>
  11:stm32/stmf4lib.h **** 
  12:stm32/stmf4lib.h **** //#include <assert.h>
  13:stm32/stmf4lib.h **** //#include <algorithm>
  14:stm32/stmf4lib.h **** 
  15:stm32/stmf4lib.h **** #define CCM_RAM __attribute__((section(".ccmram")))
  16:stm32/stmf4lib.h **** #define FORCE_INLINE __attribute__((always_inline))
  17:stm32/stmf4lib.h **** 
  18:stm32/stmf4lib.h **** class stmlib {
  19:stm32/stmf4lib.h **** 
  20:stm32/stmf4lib.h **** public:
  21:stm32/stmf4lib.h **** 
  22:stm32/stmf4lib.h **** 	static inline int clip_min(int min, int value) {
  23:stm32/stmf4lib.h **** 		return value > min ? value : min;
  24:stm32/stmf4lib.h **** 	}
  25:stm32/stmf4lib.h **** 
  26:stm32/stmf4lib.h **** 	static inline int clip_max(int max, int value) {
  27:stm32/stmf4lib.h **** 		return value < max ? value : max;
  28:stm32/stmf4lib.h **** 	}
  29:stm32/stmf4lib.h **** 
  30:stm32/stmf4lib.h **** 	static inline int clip(int min, int max, int value) {
  31:stm32/stmf4lib.h **** 		return value > max ? max : (value < min ? min : value);
 4411              		.loc 9 31 3 is_stmt 1 view .LVU1686
 4412              	.LBB866:
 4413              	.LBB859:
 151:Src/Settings/scale.h **** 		set_type(type_);
 4414              		.loc 5 151 11 is_stmt 0 view .LVU1687
 4415 01ea 6978     		ldrb	r1, [r5, #1]	@ zero_extendqisi2
 4416              	.LBB810:
 4417              	.LBB808:
  54:Src/Settings/scale.h **** 		make_keymap();
 4418              		.loc 5 54 9 view .LVU1688
 4419 01ec 0B29     		cmp	r1, #11
 4420              	.LBB774:
 4421              	.LBB775:
 4422              	.LBB776:
 4423              	.LBB777:
ARM GAS  /var/folders/84/_x1cyy_j36g486tldtwl37280000gn/T//cctc5fkA.s 			page 113


 4424              		.file 10 "/Users/joostbooy/Desktop/Code/stm32/lib/utils/stack.h"
   1:/Users/joostbooy/Desktop/Code/stm32/lib/utils/stack.h **** #ifndef Stack_h
   2:/Users/joostbooy/Desktop/Code/stm32/lib/utils/stack.h **** #define Stack_h
   3:/Users/joostbooy/Desktop/Code/stm32/lib/utils/stack.h **** 
   4:/Users/joostbooy/Desktop/Code/stm32/lib/utils/stack.h **** 
   5:/Users/joostbooy/Desktop/Code/stm32/lib/utils/stack.h **** template <typename T, const uint8_t kMaxSize>
   6:/Users/joostbooy/Desktop/Code/stm32/lib/utils/stack.h **** class Stack {
   7:/Users/joostbooy/Desktop/Code/stm32/lib/utils/stack.h **** 
   8:/Users/joostbooy/Desktop/Code/stm32/lib/utils/stack.h **** public:
   9:/Users/joostbooy/Desktop/Code/stm32/lib/utils/stack.h **** 
  10:/Users/joostbooy/Desktop/Code/stm32/lib/utils/stack.h ****     inline void clear(){
  11:/Users/joostbooy/Desktop/Code/stm32/lib/utils/stack.h ****         size_ = 0;
 4425              		.loc 10 11 9 view .LVU1689
 4426 01ee 4FF0000E 		mov	lr, #0
 4427              	.LBE777:
 4428              	.LBE776:
 4429              	.LBE775:
 4430              	.LBE774:
  54:Src/Settings/scale.h **** 		make_keymap();
 4431              		.loc 5 54 9 view .LVU1690
 4432 01f2 A8BF     		it	ge
 4433 01f4 0B21     		movge	r1, #11
 4434 01f6 6970     		strb	r1, [r5, #1]
 4435              	.LVL367:
  55:Src/Settings/scale.h **** 	}
 4436              		.loc 5 55 3 is_stmt 1 view .LVU1691
 4437              	.LBB806:
 4438              	.LBI774:
 158:Src/Settings/scale.h **** 	}
 159:Src/Settings/scale.h **** 
 160:Src/Settings/scale.h **** private:
 161:Src/Settings/scale.h **** 	uint8_t type_;
 162:Src/Settings/scale.h **** 	uint8_t root_;
 163:Src/Settings/scale.h **** 	uint8_t highest_note;
 164:Src/Settings/scale.h **** 	const uint8_t *lut_ptr;
 165:Src/Settings/scale.h **** 	const uint8_t *lut_map_ptr;
 166:Src/Settings/scale.h **** 
 167:Src/Settings/scale.h **** 	Stack<uint8_t, NOTES_IN_SCALE>keymap;
 168:Src/Settings/scale.h **** 
 169:Src/Settings/scale.h **** 	inline void make_keymap() {
 4439              		.loc 5 169 14 view .LVU1692
 4440              	.LBB804:
 170:Src/Settings/scale.h **** 		keymap.clear();
 4441              		.loc 5 170 3 view .LVU1693
 4442              	.LBB779:
 4443              	.LBI776:
  10:/Users/joostbooy/Desktop/Code/stm32/lib/utils/stack.h ****         size_ = 0;
 4444              		.loc 10 10 17 view .LVU1694
  10:/Users/joostbooy/Desktop/Code/stm32/lib/utils/stack.h ****         size_ = 0;
 4445              		.loc 10 10 17 is_stmt 0 view .LVU1695
 4446 01f8 00F1FF38 		add	r8, r0, #-1
 4447              	.LBB778:
 4448              		.loc 10 11 9 view .LVU1696
 4449 01fc 85F80CE0 		strb	lr, [r5, #12]
 4450              	.LBE778:
 4451              	.LBE779:
 171:Src/Settings/scale.h **** 
ARM GAS  /var/folders/84/_x1cyy_j36g486tldtwl37280000gn/T//cctc5fkA.s 			page 114


 172:Src/Settings/scale.h **** 		for (uint8_t i = 0; i < NOTES_IN_SCALE; ++i) {
 4452              		.loc 5 172 3 is_stmt 1 view .LVU1697
 4453              	.LVL368:
 4454              	.LBB780:
 4455              		.loc 5 172 25 view .LVU1698
 4456              	.L374:
 4457              	.LBB781:
 4458              	.LBB782:
 4459              	.LBB783:
 116:Src/Settings/scale.h **** 	}
 4460              		.loc 5 116 27 is_stmt 0 view .LVU1699
 4461 0200 18F801CF 		ldrb	ip, [r8, #1]!	@ zero_extendqisi2
 4462              	.LBE783:
 4463              	.LBE782:
 173:Src/Settings/scale.h **** 			uint8_t note = read(i) % 12;
 4464              		.loc 5 173 29 view .LVU1700
 4465 0204 654B     		ldr	r3, .L590+4
 4466              	.LBB786:
 4467              	.LBB784:
 116:Src/Settings/scale.h **** 	}
 4468              		.loc 5 116 27 view .LVU1701
 4469 0206 8C44     		add	ip, ip, r1
 4470              	.LBE784:
 4471              	.LBE786:
 4472              		.loc 5 173 29 view .LVU1702
 4473 0208 5FFA8CF9 		uxtb	r9, ip
 4474 020c A3FB0927 		umull	r2, r7, r3, r9
 4475 0210 FA08     		lsrs	r2, r7, #3
 4476 0212 02EB4200 		add	r0, r2, r2, lsl #1
 4477 0216 A9EB8003 		sub	r3, r9, r0, lsl #2
 4478 021a 5FFA83FA 		uxtb	r10, r3
 4479 021e 5FFA8EF9 		uxtb	r9, lr
 4480              	.LVL369:
 4481              		.loc 5 173 4 is_stmt 1 view .LVU1703
 4482              	.LBB787:
 4483              	.LBI782:
 115:Src/Settings/scale.h **** 		return lut_ptr[index] + root_;
 4484              		.loc 5 115 17 view .LVU1704
 4485              	.LBB785:
 116:Src/Settings/scale.h **** 	}
 4486              		.loc 5 116 3 view .LVU1705
 116:Src/Settings/scale.h **** 	}
 4487              		.loc 5 116 3 is_stmt 0 view .LVU1706
 4488              	.LBE785:
 4489              	.LBE787:
 174:Src/Settings/scale.h **** 			keymap.sort(note);
 4490              		.loc 5 174 4 is_stmt 1 view .LVU1707
 4491              	.LBB788:
 4492              	.LBI788:
  12:/Users/joostbooy/Desktop/Code/stm32/lib/utils/stack.h ****     }
  13:/Users/joostbooy/Desktop/Code/stm32/lib/utils/stack.h **** 
  14:/Users/joostbooy/Desktop/Code/stm32/lib/utils/stack.h ****     inline uint8_t size(){
  15:/Users/joostbooy/Desktop/Code/stm32/lib/utils/stack.h ****         return size_;
  16:/Users/joostbooy/Desktop/Code/stm32/lib/utils/stack.h ****     }
  17:/Users/joostbooy/Desktop/Code/stm32/lib/utils/stack.h **** 
  18:/Users/joostbooy/Desktop/Code/stm32/lib/utils/stack.h ****     inline bool readable(){
  19:/Users/joostbooy/Desktop/Code/stm32/lib/utils/stack.h ****         return size_ > 0;
ARM GAS  /var/folders/84/_x1cyy_j36g486tldtwl37280000gn/T//cctc5fkA.s 			page 115


  20:/Users/joostbooy/Desktop/Code/stm32/lib/utils/stack.h ****     }
  21:/Users/joostbooy/Desktop/Code/stm32/lib/utils/stack.h **** 
  22:/Users/joostbooy/Desktop/Code/stm32/lib/utils/stack.h ****     inline bool writeable(){
  23:/Users/joostbooy/Desktop/Code/stm32/lib/utils/stack.h ****         return size_ < kMaxSize;
  24:/Users/joostbooy/Desktop/Code/stm32/lib/utils/stack.h ****     }
  25:/Users/joostbooy/Desktop/Code/stm32/lib/utils/stack.h **** 
  26:/Users/joostbooy/Desktop/Code/stm32/lib/utils/stack.h **** 	inline uint8_t available() {
  27:/Users/joostbooy/Desktop/Code/stm32/lib/utils/stack.h **** 		return kMaxSize - size_;
  28:/Users/joostbooy/Desktop/Code/stm32/lib/utils/stack.h **** 	}
  29:/Users/joostbooy/Desktop/Code/stm32/lib/utils/stack.h **** 
  30:/Users/joostbooy/Desktop/Code/stm32/lib/utils/stack.h ****     //Reading
  31:/Users/joostbooy/Desktop/Code/stm32/lib/utils/stack.h ****     inline T pop(){
  32:/Users/joostbooy/Desktop/Code/stm32/lib/utils/stack.h ****         --size_;
  33:/Users/joostbooy/Desktop/Code/stm32/lib/utils/stack.h ****         return data[size_];
  34:/Users/joostbooy/Desktop/Code/stm32/lib/utils/stack.h ****     }
  35:/Users/joostbooy/Desktop/Code/stm32/lib/utils/stack.h **** 
  36:/Users/joostbooy/Desktop/Code/stm32/lib/utils/stack.h ****     inline T pull(){
  37:/Users/joostbooy/Desktop/Code/stm32/lib/utils/stack.h ****         T value = data[0];
  38:/Users/joostbooy/Desktop/Code/stm32/lib/utils/stack.h ****         remove_indexed(0);
  39:/Users/joostbooy/Desktop/Code/stm32/lib/utils/stack.h ****         return value;
  40:/Users/joostbooy/Desktop/Code/stm32/lib/utils/stack.h ****     }
  41:/Users/joostbooy/Desktop/Code/stm32/lib/utils/stack.h **** 
  42:/Users/joostbooy/Desktop/Code/stm32/lib/utils/stack.h **** 	// -1 if not found
  43:/Users/joostbooy/Desktop/Code/stm32/lib/utils/stack.h ****     inline int find(T value){
  44:/Users/joostbooy/Desktop/Code/stm32/lib/utils/stack.h ****         int idx = -1;
  45:/Users/joostbooy/Desktop/Code/stm32/lib/utils/stack.h ****         for (uint8_t i = 0; i < size_; ++i) {
  46:/Users/joostbooy/Desktop/Code/stm32/lib/utils/stack.h ****             if(data[i] == value){
  47:/Users/joostbooy/Desktop/Code/stm32/lib/utils/stack.h ****                 idx = i;
  48:/Users/joostbooy/Desktop/Code/stm32/lib/utils/stack.h ****                 break;
  49:/Users/joostbooy/Desktop/Code/stm32/lib/utils/stack.h ****             }
  50:/Users/joostbooy/Desktop/Code/stm32/lib/utils/stack.h ****         }
  51:/Users/joostbooy/Desktop/Code/stm32/lib/utils/stack.h ****         return idx;
  52:/Users/joostbooy/Desktop/Code/stm32/lib/utils/stack.h ****     }
  53:/Users/joostbooy/Desktop/Code/stm32/lib/utils/stack.h **** 
  54:/Users/joostbooy/Desktop/Code/stm32/lib/utils/stack.h ****     inline T read(uint8_t idx){
  55:/Users/joostbooy/Desktop/Code/stm32/lib/utils/stack.h ****         return data[idx];
  56:/Users/joostbooy/Desktop/Code/stm32/lib/utils/stack.h ****     }
  57:/Users/joostbooy/Desktop/Code/stm32/lib/utils/stack.h **** 
  58:/Users/joostbooy/Desktop/Code/stm32/lib/utils/stack.h **** 	inline T* pointer(){
  59:/Users/joostbooy/Desktop/Code/stm32/lib/utils/stack.h ****         return &data[0];
  60:/Users/joostbooy/Desktop/Code/stm32/lib/utils/stack.h ****     }
  61:/Users/joostbooy/Desktop/Code/stm32/lib/utils/stack.h **** 
  62:/Users/joostbooy/Desktop/Code/stm32/lib/utils/stack.h ****     //Writing
  63:/Users/joostbooy/Desktop/Code/stm32/lib/utils/stack.h ****     inline void push(T value){
  64:/Users/joostbooy/Desktop/Code/stm32/lib/utils/stack.h ****         data[size_] = value;
  65:/Users/joostbooy/Desktop/Code/stm32/lib/utils/stack.h ****         ++size_;
  66:/Users/joostbooy/Desktop/Code/stm32/lib/utils/stack.h ****     }
  67:/Users/joostbooy/Desktop/Code/stm32/lib/utils/stack.h **** 
  68:/Users/joostbooy/Desktop/Code/stm32/lib/utils/stack.h ****     inline void replace(uint8_t idx, T value){
  69:/Users/joostbooy/Desktop/Code/stm32/lib/utils/stack.h ****         data[idx] = value;
  70:/Users/joostbooy/Desktop/Code/stm32/lib/utils/stack.h ****     }
  71:/Users/joostbooy/Desktop/Code/stm32/lib/utils/stack.h **** 
  72:/Users/joostbooy/Desktop/Code/stm32/lib/utils/stack.h **** 	inline bool remove_value(T value) {
  73:/Users/joostbooy/Desktop/Code/stm32/lib/utils/stack.h **** 		int idx = find(value);
  74:/Users/joostbooy/Desktop/Code/stm32/lib/utils/stack.h **** 		if (idx >= 0) {
  75:/Users/joostbooy/Desktop/Code/stm32/lib/utils/stack.h **** 			remove_indexed(idx);
  76:/Users/joostbooy/Desktop/Code/stm32/lib/utils/stack.h **** 		}
ARM GAS  /var/folders/84/_x1cyy_j36g486tldtwl37280000gn/T//cctc5fkA.s 			page 116


  77:/Users/joostbooy/Desktop/Code/stm32/lib/utils/stack.h **** 		return idx >= 0;
  78:/Users/joostbooy/Desktop/Code/stm32/lib/utils/stack.h **** 	}
  79:/Users/joostbooy/Desktop/Code/stm32/lib/utils/stack.h **** 
  80:/Users/joostbooy/Desktop/Code/stm32/lib/utils/stack.h ****     inline void remove_indexed(uint8_t idx){
  81:/Users/joostbooy/Desktop/Code/stm32/lib/utils/stack.h ****         for (int i = idx; i < size_; ++i) {
  82:/Users/joostbooy/Desktop/Code/stm32/lib/utils/stack.h ****             data[i] = data[i + 1];
  83:/Users/joostbooy/Desktop/Code/stm32/lib/utils/stack.h ****         }
  84:/Users/joostbooy/Desktop/Code/stm32/lib/utils/stack.h ****         --size_;
  85:/Users/joostbooy/Desktop/Code/stm32/lib/utils/stack.h ****     }
  86:/Users/joostbooy/Desktop/Code/stm32/lib/utils/stack.h **** 
  87:/Users/joostbooy/Desktop/Code/stm32/lib/utils/stack.h ****     inline void insert(uint8_t idx, T value){
  88:/Users/joostbooy/Desktop/Code/stm32/lib/utils/stack.h ****         for (int i = size_; i > idx; --i) {
  89:/Users/joostbooy/Desktop/Code/stm32/lib/utils/stack.h ****             data[i] = data[i - 1];
  90:/Users/joostbooy/Desktop/Code/stm32/lib/utils/stack.h ****         }
  91:/Users/joostbooy/Desktop/Code/stm32/lib/utils/stack.h ****         data[idx] = value;
  92:/Users/joostbooy/Desktop/Code/stm32/lib/utils/stack.h ****         ++size_;
  93:/Users/joostbooy/Desktop/Code/stm32/lib/utils/stack.h ****     }
  94:/Users/joostbooy/Desktop/Code/stm32/lib/utils/stack.h **** 
  95:/Users/joostbooy/Desktop/Code/stm32/lib/utils/stack.h ****     //Ascending order. Only sorts the inserted value
  96:/Users/joostbooy/Desktop/Code/stm32/lib/utils/stack.h ****     inline void sort(T value){
 4493              		.loc 10 96 17 view .LVU1708
 4494              	.LBB789:
  97:/Users/joostbooy/Desktop/Code/stm32/lib/utils/stack.h ****         uint8_t idx = size_;
  98:/Users/joostbooy/Desktop/Code/stm32/lib/utils/stack.h **** 
  99:/Users/joostbooy/Desktop/Code/stm32/lib/utils/stack.h ****         while((idx) && (data[idx - 1] >= value)) {
 4495              		.loc 10 99 21 view .LVU1709
 4496 0222 BEF1000F 		cmp	lr, #0
 4497 0226 43D0     		beq	.L372
 4498 0228 05F10D07 		add	r7, r5, #13
 4499 022c 7744     		add	r7, r7, lr
 4500 022e 7046     		mov	r0, lr
 4501 0230 03E0     		b	.L373
 4502              	.LVL370:
 4503              	.L576:
 4504              		.loc 10 99 21 is_stmt 0 view .LVU1710
 4505 0232 0138     		subs	r0, r0, #1
 4506              	.LVL371:
 100:/Users/joostbooy/Desktop/Code/stm32/lib/utils/stack.h ****             data[idx] = data[idx - 1];
 4507              		.loc 10 100 13 view .LVU1711
 4508 0234 07F80129 		strb	r2, [r7], #-1
  99:/Users/joostbooy/Desktop/Code/stm32/lib/utils/stack.h ****             data[idx] = data[idx - 1];
 4509              		.loc 10 99 21 is_stmt 1 view .LVU1712
 4510 0238 3AD0     		beq	.L372
 4511              	.L373:
 4512              	.LVL372:
  99:/Users/joostbooy/Desktop/Code/stm32/lib/utils/stack.h ****             data[idx] = data[idx - 1];
 4513              		.loc 10 99 29 is_stmt 0 view .LVU1713
 4514 023a 17F8012C 		ldrb	r2, [r7, #-1]	@ zero_extendqisi2
  99:/Users/joostbooy/Desktop/Code/stm32/lib/utils/stack.h ****             data[idx] = data[idx - 1];
 4515              		.loc 10 99 21 view .LVU1714
 4516 023e 9245     		cmp	r10, r2
  99:/Users/joostbooy/Desktop/Code/stm32/lib/utils/stack.h ****             data[idx] = data[idx - 1];
 4517              		.loc 10 99 30 view .LVU1715
 4518 0240 8446     		mov	ip, r0
  99:/Users/joostbooy/Desktop/Code/stm32/lib/utils/stack.h ****             data[idx] = data[idx - 1];
 4519              		.loc 10 99 21 view .LVU1716
 4520 0242 F6D9     		bls	.L576
ARM GAS  /var/folders/84/_x1cyy_j36g486tldtwl37280000gn/T//cctc5fkA.s 			page 117


 4521              	.LVL373:
 4522              	.L371:
 101:/Users/joostbooy/Desktop/Code/stm32/lib/utils/stack.h ****             --idx;
 102:/Users/joostbooy/Desktop/Code/stm32/lib/utils/stack.h ****         }
 103:/Users/joostbooy/Desktop/Code/stm32/lib/utils/stack.h **** 
 104:/Users/joostbooy/Desktop/Code/stm32/lib/utils/stack.h ****         data[idx] = value;
 4523              		.loc 10 104 9 view .LVU1717
 4524 0244 AC44     		add	ip, ip, r5
 4525 0246 0EF1010E 		add	lr, lr, #1
 105:/Users/joostbooy/Desktop/Code/stm32/lib/utils/stack.h ****         ++size_;
 4526              		.loc 10 105 9 view .LVU1718
 4527 024a 09F10103 		add	r3, r9, #1
 4528              	.LBE789:
 4529              	.LBE788:
 4530              	.LBE781:
 172:Src/Settings/scale.h **** 			uint8_t note = read(i) % 12;
 4531              		.loc 5 172 25 view .LVU1719
 4532 024e BEF1070F 		cmp	lr, #7
 4533              	.LBB794:
 4534              	.LBB792:
 4535              	.LBB790:
 104:/Users/joostbooy/Desktop/Code/stm32/lib/utils/stack.h ****         ++size_;
 4536              		.loc 10 104 9 view .LVU1720
 4537 0252 8CF80DA0 		strb	r10, [ip, #13]
 4538              		.loc 10 105 9 view .LVU1721
 4539 0256 2B73     		strb	r3, [r5, #12]
 4540              	.LBE790:
 4541              	.LBE792:
 4542              	.LBE794:
 172:Src/Settings/scale.h **** 			uint8_t note = read(i) % 12;
 4543              		.loc 5 172 3 is_stmt 1 view .LVU1722
 172:Src/Settings/scale.h **** 			uint8_t note = read(i) % 12;
 4544              		.loc 5 172 25 view .LVU1723
 4545 0258 D2D1     		bne	.L374
 4546              	.LBE780:
 175:Src/Settings/scale.h **** 		}
 176:Src/Settings/scale.h **** 
 177:Src/Settings/scale.h **** 		int8_t oct = 120;
 4547              		.loc 5 177 3 view .LVU1724
 4548              	.LVL374:
 178:Src/Settings/scale.h **** 		highest_note = 0;
 4549              		.loc 5 178 3 view .LVU1725
 4550              		.loc 5 178 16 is_stmt 0 view .LVU1726
 4551 025a 0022     		movs	r2, #0
 4552 025c AA70     		strb	r2, [r5, #2]
 179:Src/Settings/scale.h **** 
 180:Src/Settings/scale.h **** 		while (oct >= 0 && highest_note == 0) {
 4553              		.loc 5 180 3 is_stmt 1 view .LVU1727
 4554              		.loc 5 180 19 view .LVU1728
 177:Src/Settings/scale.h **** 		highest_note = 0;
 4555              		.loc 5 177 10 is_stmt 0 view .LVU1729
 4556 025e 7820     		movs	r0, #120
 4557              	.LVL375:
 4558              	.L375:
 4559              	.LBB796:
 4560              	.LBB797:
 4561              	.LBB798:
ARM GAS  /var/folders/84/_x1cyy_j36g486tldtwl37280000gn/T//cctc5fkA.s 			page 118


 181:Src/Settings/scale.h **** 			for (int i = 0; i < NOTES_IN_SCALE; ++i) {
 182:Src/Settings/scale.h **** 				uint16_t note = keymap.read(i) + oct;
 4562              		.loc 5 182 5 is_stmt 1 view .LVU1730
 4563              	.LBB799:
 4564              	.LBI799:
  54:/Users/joostbooy/Desktop/Code/stm32/lib/utils/stack.h ****         return data[idx];
 4565              		.loc 10 54 14 view .LVU1731
  54:/Users/joostbooy/Desktop/Code/stm32/lib/utils/stack.h ****         return data[idx];
 4566              		.loc 10 54 14 is_stmt 0 view .LVU1732
 4567              	.LBE799:
 4568              	.LBE798:
 181:Src/Settings/scale.h **** 			for (int i = 0; i < NOTES_IN_SCALE; ++i) {
 4569              		.loc 5 181 4 is_stmt 1 view .LVU1733
 181:Src/Settings/scale.h **** 			for (int i = 0; i < NOTES_IN_SCALE; ++i) {
 4570              		.loc 5 181 22 view .LVU1734
 4571              	.LBB802:
 4572              	.LBB801:
 4573              	.LBB800:
  55:/Users/joostbooy/Desktop/Code/stm32/lib/utils/stack.h ****     }
 4574              		.loc 10 55 24 is_stmt 0 view .LVU1735
 4575 0260 AF18     		adds	r7, r5, r2
 4576              	.LBE800:
 4577              	.LBE801:
 4578              		.loc 5 182 32 view .LVU1736
 4579 0262 0132     		adds	r2, r2, #1
 4580              	.LVL376:
 4581              		.loc 5 182 32 view .LVU1737
 4582 0264 7B7B     		ldrb	r3, [r7, #13]	@ zero_extendqisi2
 4583              		.loc 5 182 36 view .LVU1738
 4584 0266 0344     		add	r3, r3, r0
 4585              	.LVL377:
 183:Src/Settings/scale.h **** 				if (note < 128 && note > highest_note) {
 4586              		.loc 5 183 5 is_stmt 1 view .LVU1739
 4587 0268 7F2B     		cmp	r3, #127
 4588              		.loc 5 183 20 is_stmt 0 view .LVU1740
 4589 026a 1FFA83F8 		uxth	r8, r3
 4590              		.loc 5 183 5 view .LVU1741
 4591 026e 03DC     		bgt	.L377
 184:Src/Settings/scale.h **** 					highest_note = note;
 4592              		.loc 5 184 6 is_stmt 1 view .LVU1742
 183:Src/Settings/scale.h **** 				if (note < 128 && note > highest_note) {
 4593              		.loc 5 183 20 is_stmt 0 view .LVU1743
 4594 0270 AF78     		ldrb	r7, [r5, #2]	@ zero_extendqisi2
 4595 0272 4745     		cmp	r7, r8
 4596              		.loc 5 184 19 view .LVU1744
 4597 0274 38BF     		it	cc
 4598 0276 AB70     		strbcc	r3, [r5, #2]
 4599              	.L377:
 4600              	.LBE802:
 181:Src/Settings/scale.h **** 				uint16_t note = keymap.read(i) + oct;
 4601              		.loc 5 181 22 view .LVU1745
 4602 0278 072A     		cmp	r2, #7
 4603 027a F1D1     		bne	.L375
 4604              	.LBE797:
 185:Src/Settings/scale.h **** 				}
 186:Src/Settings/scale.h **** 			}
 187:Src/Settings/scale.h **** 			oct -= 12;
ARM GAS  /var/folders/84/_x1cyy_j36g486tldtwl37280000gn/T//cctc5fkA.s 			page 119


 4605              		.loc 5 187 4 is_stmt 1 view .LVU1746
 4606              		.loc 5 187 8 is_stmt 0 view .LVU1747
 4607 027c A0F10C02 		sub	r2, r0, #12
 4608              	.LVL378:
 4609              		.loc 5 187 8 view .LVU1748
 4610 0280 50B2     		sxtb	r0, r2
 4611              	.LVL379:
 4612              		.loc 5 187 8 view .LVU1749
 4613              	.LBE796:
 180:Src/Settings/scale.h **** 			for (int i = 0; i < NOTES_IN_SCALE; ++i) {
 4614              		.loc 5 180 3 is_stmt 1 view .LVU1750
 180:Src/Settings/scale.h **** 			for (int i = 0; i < NOTES_IN_SCALE; ++i) {
 4615              		.loc 5 180 19 view .LVU1751
 4616 0282 0028     		cmp	r0, #0
 4617 0284 02DB     		blt	.L376
 4618 0286 AA78     		ldrb	r2, [r5, #2]	@ zero_extendqisi2
 4619 0288 002A     		cmp	r2, #0
 4620 028a E9D0     		beq	.L375
 4621              	.L376:
 4622              	.LVL380:
 180:Src/Settings/scale.h **** 			for (int i = 0; i < NOTES_IN_SCALE; ++i) {
 4623              		.loc 5 180 19 is_stmt 0 view .LVU1752
 4624              	.LBE804:
 4625              	.LBE806:
 4626              	.LBE808:
 4627              	.LBE810:
 152:Src/Settings/scale.h **** 	}
 4628              		.loc 5 152 3 is_stmt 1 view .LVU1753
 4629              	.LBB811:
 4630              	.LBI811:
  67:Src/Settings/scale.h **** 		type_ = stmlib::clip(0, NUM_TYPES - 1, value);
 4631              		.loc 5 67 14 view .LVU1754
 4632              	.LBB812:
  68:Src/Settings/scale.h **** 
 4633              		.loc 5 68 3 view .LVU1755
  68:Src/Settings/scale.h **** 
 4634              		.loc 5 68 3 is_stmt 0 view .LVU1756
 4635              	.LBE812:
 4636              	.LBE811:
 4637              	.LBE859:
 4638              	.LBE866:
 4639              		.loc 9 31 3 is_stmt 1 view .LVU1757
 4640              	.LBB867:
 4641              	.LBB860:
 152:Src/Settings/scale.h **** 	}
 4642              		.loc 5 152 11 is_stmt 0 view .LVU1758
 4643 028c 2B78     		ldrb	r3, [r5]	@ zero_extendqisi2
 4644              	.LBB848:
 4645              	.LBB843:
  68:Src/Settings/scale.h **** 
 4646              		.loc 5 68 9 view .LVU1759
 4647 028e 072B     		cmp	r3, #7
 4648 0290 A8BF     		it	ge
 4649 0292 0723     		movge	r3, #7
 4650 0294 5F1E     		subs	r7, r3, #1
 4651 0296 2B70     		strb	r3, [r5]
 4652              	.LVL381:
ARM GAS  /var/folders/84/_x1cyy_j36g486tldtwl37280000gn/T//cctc5fkA.s 			page 120


  70:Src/Settings/scale.h **** 		{
 4653              		.loc 5 70 3 is_stmt 1 view .LVU1760
 4654 0298 062F     		cmp	r7, #6
 4655 029a 00F24584 		bhi	.L380
 4656 029e DFE817F0 		tbh	[pc, r7, lsl #1]
 4657              	.L382:
 4658 02a2 3F02     		.2byte	(.L388-.L382)/2
 4659 02a4 5D02     		.2byte	(.L387-.L382)/2
 4660 02a6 4502     		.2byte	(.L386-.L382)/2
 4661 02a8 4B02     		.2byte	(.L385-.L382)/2
 4662 02aa 5102     		.2byte	(.L384-.L382)/2
 4663 02ac 5702     		.2byte	(.L383-.L382)/2
 4664 02ae 5500     		.2byte	(.L381-.L382)/2
 4665              	.LVL382:
 4666              		.p2align 1
 4667              	.L372:
  70:Src/Settings/scale.h **** 		{
 4668              		.loc 5 70 3 is_stmt 0 view .LVU1761
 4669              	.LBE843:
 4670              	.LBE848:
 4671              	.LBB849:
 4672              	.LBB809:
 4673              	.LBB807:
 4674              	.LBB805:
 4675              	.LBB803:
 4676              	.LBB795:
 4677              	.LBB793:
 4678              	.LBB791:
  99:/Users/joostbooy/Desktop/Code/stm32/lib/utils/stack.h ****             data[idx] = data[idx - 1];
 4679              		.loc 10 99 21 view .LVU1762
 4680 02b0 4FF0000C 		mov	ip, #0
 4681 02b4 C6E7     		b	.L371
 4682              	.LVL383:
 4683              	.L365:
  99:/Users/joostbooy/Desktop/Code/stm32/lib/utils/stack.h ****             data[idx] = data[idx - 1];
 4684              		.loc 10 99 21 view .LVU1763
 4685              	.LBE791:
 4686              	.LBE793:
 4687              	.LBE795:
 4688              	.LBE803:
 4689              	.LBE805:
 4690              	.LBE807:
 4691              	.LBE809:
 4692              	.LBE849:
 4693              	.LBB850:
 4694              	.LBB769:
 4695              	.LBB764:
  90:Src/Disk/fileReader.h **** 			}
 4696              		.loc 8 90 5 is_stmt 1 view .LVU1764
 4697              	.LBB754:
 4698              	.LBI754:
  95:Src/Disk/fileReader.h **** 		num_read = 0;
 4699              		.loc 8 95 7 view .LVU1765
 4700              	.LBB755:
  96:Src/Disk/fileReader.h **** 		if (file_->read(buffer, kBufferSize, &num_readable)) {
 4701              		.loc 8 96 3 view .LVU1766
  97:Src/Disk/fileReader.h **** 			return (num_readable >= requested_size) || (num_readable >= kBufferSize);
ARM GAS  /var/folders/84/_x1cyy_j36g486tldtwl37280000gn/T//cctc5fkA.s 			page 121


 4702              		.loc 8 97 18 is_stmt 0 view .LVU1767
 4703 02b6 D4F80022 		ldr	r2, [r4, #512]
  96:Src/Disk/fileReader.h **** 		if (file_->read(buffer, kBufferSize, &num_readable)) {
 4704              		.loc 8 96 12 view .LVU1768
 4705 02ba 0027     		movs	r7, #0
 4706              	.LBB756:
 4707              	.LBB757:
  58:Src/Disk/file.h **** 		if (num_read) {
 4708              		.loc 3 58 23 view .LVU1769
 4709 02bc 1068     		ldr	r0, [r2]
 4710              	.LBE757:
 4711              	.LBE756:
  96:Src/Disk/fileReader.h **** 		if (file_->read(buffer, kBufferSize, &num_readable)) {
 4712              		.loc 8 96 12 view .LVU1770
 4713 02be C4F80872 		str	r7, [r4, #520]
  97:Src/Disk/fileReader.h **** 			return (num_readable >= requested_size) || (num_readable >= kBufferSize);
 4714              		.loc 8 97 3 is_stmt 1 view .LVU1771
 4715              	.LVL384:
 4716              	.LBB760:
 4717              	.LBI756:
  56:Src/Disk/file.h **** 		UINT br;
 4718              		.loc 3 56 7 view .LVU1772
 4719              	.LBB758:
  57:Src/Disk/file.h **** 		FRESULT res = f_read(fil, data, size, &br);
 4720              		.loc 3 57 3 view .LVU1773
  58:Src/Disk/file.h **** 		if (num_read) {
 4721              		.loc 3 58 3 view .LVU1774
  58:Src/Disk/file.h **** 		if (num_read) {
 4722              		.loc 3 58 23 is_stmt 0 view .LVU1775
 4723 02c2 2146     		mov	r1, r4
 4724 02c4 01AB     		add	r3, sp, #4
 4725 02c6 4FF40072 		mov	r2, #512
 4726              	.LVL385:
  58:Src/Disk/file.h **** 		if (num_read) {
 4727              		.loc 3 58 23 view .LVU1776
 4728 02ca FFF7FEFF 		bl	f_read
 4729              	.LVL386:
  60:Src/Disk/file.h **** 		}
 4730              		.loc 3 60 14 view .LVU1777
 4731 02ce 0199     		ldr	r1, [sp, #4]
 4732 02d0 C4F80C12 		str	r1, [r4, #524]
 4733              	.LVL387:
  59:Src/Disk/file.h **** 			*num_read = br;
 4734              		.loc 3 59 3 is_stmt 1 view .LVU1778
  60:Src/Disk/file.h **** 		}
 4735              		.loc 3 60 4 view .LVU1779
 4736              		.loc 3 62 3 view .LVU1780
 4737              		.loc 3 62 19 is_stmt 0 view .LVU1781
 4738 02d4 F9B1     		cbz	r1, .L367
 4739              	.LVL388:
 4740              		.loc 3 62 19 view .LVU1782
 4741              	.LBE758:
 4742              	.LBE760:
 4743              		.loc 8 98 4 is_stmt 1 view .LVU1783
 4744              		.loc 8 98 4 is_stmt 0 view .LVU1784
 4745              	.LBE755:
 4746              	.LBE754:
ARM GAS  /var/folders/84/_x1cyy_j36g486tldtwl37280000gn/T//cctc5fkA.s 			page 122


  90:Src/Disk/fileReader.h **** 			}
 4747              		.loc 8 90 14 view .LVU1785
 4748 02d6 4FF0010A 		mov	r10, #1
 4749              	.LBB763:
 4750              	.LBB762:
 4751              	.LBB761:
 4752              	.LBB759:
 4753              		.loc 3 62 19 view .LVU1786
 4754 02da E0B9     		cbnz	r0, .L367
 4755              	.LBE759:
 4756              	.LBE761:
 4757              	.LBE762:
 4758              	.LBE763:
  90:Src/Disk/fileReader.h **** 			}
 4759              		.loc 8 90 14 view .LVU1787
 4760 02dc 84F804A2 		strb	r10, [r4, #516]
  85:Src/Disk/fileReader.h **** 			if (num_read < num_readable) {
 4761              		.loc 8 85 3 is_stmt 1 view .LVU1788
  85:Src/Disk/fileReader.h **** 			if (num_read < num_readable) {
 4762              		.loc 8 85 19 view .LVU1789
 4763 02e0 71E7     		b	.L369
 4764              	.LVL389:
 4765              	.L358:
  85:Src/Disk/fileReader.h **** 			if (num_read < num_readable) {
 4766              		.loc 8 85 19 is_stmt 0 view .LVU1790
 4767              	.LBE764:
 4768              	.LBE769:
 4769              	.LBE850:
 4770              	.LBB851:
 4771              	.LBB748:
 4772              	.LBB743:
  90:Src/Disk/fileReader.h **** 			}
 4773              		.loc 8 90 5 is_stmt 1 view .LVU1791
 4774              	.LBB733:
 4775              	.LBI733:
  95:Src/Disk/fileReader.h **** 		num_read = 0;
 4776              		.loc 8 95 7 view .LVU1792
 4777              	.LBB734:
  96:Src/Disk/fileReader.h **** 		if (file_->read(buffer, kBufferSize, &num_readable)) {
 4778              		.loc 8 96 3 view .LVU1793
  97:Src/Disk/fileReader.h **** 			return (num_readable >= requested_size) || (num_readable >= kBufferSize);
 4779              		.loc 8 97 18 is_stmt 0 view .LVU1794
 4780 02e2 D4F80022 		ldr	r2, [r4, #512]
  96:Src/Disk/fileReader.h **** 		if (file_->read(buffer, kBufferSize, &num_readable)) {
 4781              		.loc 8 96 12 view .LVU1795
 4782 02e6 0027     		movs	r7, #0
 4783              	.LBB735:
 4784              	.LBB736:
  58:Src/Disk/file.h **** 		if (num_read) {
 4785              		.loc 3 58 23 view .LVU1796
 4786 02e8 1068     		ldr	r0, [r2]
 4787              	.LBE736:
 4788              	.LBE735:
  96:Src/Disk/fileReader.h **** 		if (file_->read(buffer, kBufferSize, &num_readable)) {
 4789              		.loc 8 96 12 view .LVU1797
 4790 02ea C4F80872 		str	r7, [r4, #520]
  97:Src/Disk/fileReader.h **** 			return (num_readable >= requested_size) || (num_readable >= kBufferSize);
ARM GAS  /var/folders/84/_x1cyy_j36g486tldtwl37280000gn/T//cctc5fkA.s 			page 123


 4791              		.loc 8 97 3 is_stmt 1 view .LVU1798
 4792              	.LVL390:
 4793              	.LBB739:
 4794              	.LBI735:
  56:Src/Disk/file.h **** 		UINT br;
 4795              		.loc 3 56 7 view .LVU1799
 4796              	.LBB737:
  57:Src/Disk/file.h **** 		FRESULT res = f_read(fil, data, size, &br);
 4797              		.loc 3 57 3 view .LVU1800
  58:Src/Disk/file.h **** 		if (num_read) {
 4798              		.loc 3 58 3 view .LVU1801
  58:Src/Disk/file.h **** 		if (num_read) {
 4799              		.loc 3 58 23 is_stmt 0 view .LVU1802
 4800 02ee 2146     		mov	r1, r4
 4801 02f0 01AB     		add	r3, sp, #4
 4802 02f2 4FF40072 		mov	r2, #512
 4803              	.LVL391:
  58:Src/Disk/file.h **** 		if (num_read) {
 4804              		.loc 3 58 23 view .LVU1803
 4805 02f6 FFF7FEFF 		bl	f_read
 4806              	.LVL392:
  60:Src/Disk/file.h **** 		}
 4807              		.loc 3 60 14 view .LVU1804
 4808 02fa 0199     		ldr	r1, [sp, #4]
 4809 02fc C4F80C12 		str	r1, [r4, #524]
 4810              	.LVL393:
  59:Src/Disk/file.h **** 			*num_read = br;
 4811              		.loc 3 59 3 is_stmt 1 view .LVU1805
  60:Src/Disk/file.h **** 		}
 4812              		.loc 3 60 4 view .LVU1806
 4813              		.loc 3 62 3 view .LVU1807
 4814              		.loc 3 62 19 is_stmt 0 view .LVU1808
 4815 0300 81B1     		cbz	r1, .L361
 4816              	.LVL394:
 4817              		.loc 3 62 19 view .LVU1809
 4818              	.LBE737:
 4819              	.LBE739:
 4820              		.loc 8 98 4 is_stmt 1 view .LVU1810
 4821              		.loc 8 98 4 is_stmt 0 view .LVU1811
 4822              	.LBE734:
 4823              	.LBE733:
  90:Src/Disk/fileReader.h **** 			}
 4824              		.loc 8 90 14 view .LVU1812
 4825 0302 4FF00109 		mov	r9, #1
 4826              	.LBB742:
 4827              	.LBB741:
 4828              	.LBB740:
 4829              	.LBB738:
 4830              		.loc 3 62 19 view .LVU1813
 4831 0306 68B9     		cbnz	r0, .L361
 4832              	.LBE738:
 4833              	.LBE740:
 4834              	.LBE741:
 4835              	.LBE742:
  90:Src/Disk/fileReader.h **** 			}
 4836              		.loc 8 90 14 view .LVU1814
 4837 0308 84F80492 		strb	r9, [r4, #516]
ARM GAS  /var/folders/84/_x1cyy_j36g486tldtwl37280000gn/T//cctc5fkA.s 			page 124


  85:Src/Disk/fileReader.h **** 			if (num_read < num_readable) {
 4838              		.loc 8 85 3 is_stmt 1 view .LVU1815
  85:Src/Disk/fileReader.h **** 			if (num_read < num_readable) {
 4839              		.loc 8 85 19 view .LVU1816
 4840 030c 42E7     		b	.L364
 4841              	.LVL395:
 4842              	.L343:
  85:Src/Disk/fileReader.h **** 			if (num_read < num_readable) {
 4843              		.loc 8 85 19 is_stmt 0 view .LVU1817
 4844              	.LBE743:
 4845              	.LBE748:
 4846              	.LBE851:
 4847              	.LBE860:
 4848              	.LBE867:
 4849              	.LBB868:
 4850              	.LBB709:
 4851              	.LBB705:
  90:Src/Disk/fileReader.h **** 			}
 4852              		.loc 8 90 14 view .LVU1818
 4853 030e 0023     		movs	r3, #0
 4854 0310 84F80432 		strb	r3, [r4, #516]
 4855              	.LVL396:
  85:Src/Disk/fileReader.h **** 			if (num_read < num_readable) {
 4856              		.loc 8 85 3 is_stmt 1 view .LVU1819
  85:Src/Disk/fileReader.h **** 			if (num_read < num_readable) {
 4857              		.loc 8 85 19 view .LVU1820
 4858 0314 BBE6     		b	.L340
 4859              	.LVL397:
 4860              	.L367:
  85:Src/Disk/fileReader.h **** 			if (num_read < num_readable) {
 4861              		.loc 8 85 19 is_stmt 0 view .LVU1821
 4862              	.LBE705:
 4863              	.LBE709:
 4864              	.LBE868:
 4865              	.LBB869:
 4866              	.LBB861:
 4867              	.LBB852:
 4868              	.LBB770:
 4869              	.LBB765:
  90:Src/Disk/fileReader.h **** 			}
 4870              		.loc 8 90 14 view .LVU1822
 4871 0316 0020     		movs	r0, #0
 4872 0318 84F80402 		strb	r0, [r4, #516]
  85:Src/Disk/fileReader.h **** 			if (num_read < num_readable) {
 4873              		.loc 8 85 3 is_stmt 1 view .LVU1823
  85:Src/Disk/fileReader.h **** 			if (num_read < num_readable) {
 4874              		.loc 8 85 19 view .LVU1824
 4875 031c 2A78     		ldrb	r2, [r5]	@ zero_extendqisi2
 4876 031e D4F81432 		ldr	r3, [r4, #532]
 4877 0322 5BE7     		b	.L366
 4878              	.LVL398:
 4879              	.L361:
  85:Src/Disk/fileReader.h **** 			if (num_read < num_readable) {
 4880              		.loc 8 85 19 is_stmt 0 view .LVU1825
 4881              	.LBE765:
 4882              	.LBE770:
 4883              	.LBE852:
ARM GAS  /var/folders/84/_x1cyy_j36g486tldtwl37280000gn/T//cctc5fkA.s 			page 125


 4884              	.LBB853:
 4885              	.LBB749:
 4886              	.LBB744:
  90:Src/Disk/fileReader.h **** 			}
 4887              		.loc 8 90 14 view .LVU1826
 4888 0324 0020     		movs	r0, #0
 4889 0326 84F80402 		strb	r0, [r4, #516]
  85:Src/Disk/fileReader.h **** 			if (num_read < num_readable) {
 4890              		.loc 8 85 3 is_stmt 1 view .LVU1827
  85:Src/Disk/fileReader.h **** 			if (num_read < num_readable) {
 4891              		.loc 8 85 19 view .LVU1828
 4892 032a 6F78     		ldrb	r7, [r5, #1]	@ zero_extendqisi2
 4893 032c D4F81422 		ldr	r2, [r4, #532]
 4894              	.L363:
 4895              	.LVL399:
  85:Src/Disk/fileReader.h **** 			if (num_read < num_readable) {
 4896              		.loc 8 85 19 is_stmt 0 view .LVU1829
 4897              	.LBE744:
 4898              	.LBE749:
 4899              	.LBB750:
 4900              	.LBB747:
  20:/Users/joostbooy/Desktop/Code/stm32/lib/utils/hash.h **** 			hash_ ^= *data_++;
 4901              		.loc 4 20 3 is_stmt 1 view .LVU1830
  20:/Users/joostbooy/Desktop/Code/stm32/lib/utils/hash.h **** 			hash_ ^= *data_++;
 4902              		.loc 4 20 14 view .LVU1831
  21:/Users/joostbooy/Desktop/Code/stm32/lib/utils/hash.h **** 			hash_ *= prime_;
 4903              		.loc 4 21 4 view .LVU1832
 4904              		.loc 4 22 4 view .LVU1833
 4905              		.loc 4 22 10 is_stmt 0 view .LVU1834
 4906 0330 194B     		ldr	r3, .L590
  21:/Users/joostbooy/Desktop/Code/stm32/lib/utils/hash.h **** 			hash_ *= prime_;
 4907              		.loc 4 21 10 view .LVU1835
 4908 0332 7A40     		eors	r2, r2, r7
 4909              		.loc 4 22 10 view .LVU1836
 4910 0334 03FB02F3 		mul	r3, r3, r2
 4911 0338 C4F81432 		str	r3, [r4, #532]
  20:/Users/joostbooy/Desktop/Code/stm32/lib/utils/hash.h **** 			hash_ ^= *data_++;
 4912              		.loc 4 20 3 is_stmt 1 view .LVU1837
  20:/Users/joostbooy/Desktop/Code/stm32/lib/utils/hash.h **** 			hash_ ^= *data_++;
 4913              		.loc 4 20 14 view .LVU1838
 4914              	.LVL400:
  20:/Users/joostbooy/Desktop/Code/stm32/lib/utils/hash.h **** 			hash_ ^= *data_++;
 4915              		.loc 4 20 14 is_stmt 0 view .LVU1839
 4916              	.LBE747:
 4917              	.LBE750:
 4918              	.LBE853:
 150:Src/Settings/scale.h **** 		set_root(root_);
 4919              		.loc 5 150 3 is_stmt 1 view .LVU1840
 4920              	.LBB854:
  51:Src/Disk/fileReader.h **** 		read_buffer(&data, sizeof(T));
 4921              		.loc 8 51 7 view .LVU1841
 4922              	.LBB771:
 4923              	.LBB766:
  85:Src/Disk/fileReader.h **** 			if (num_read < num_readable) {
 4924              		.loc 8 85 3 view .LVU1842
  85:Src/Disk/fileReader.h **** 			if (num_read < num_readable) {
 4925              		.loc 8 85 19 view .LVU1843
ARM GAS  /var/folders/84/_x1cyy_j36g486tldtwl37280000gn/T//cctc5fkA.s 			page 126


 4926              	.L360:
  85:Src/Disk/fileReader.h **** 			if (num_read < num_readable) {
 4927              		.loc 8 85 19 is_stmt 0 view .LVU1844
 4928 033c 2A78     		ldrb	r2, [r5]	@ zero_extendqisi2
 4929 033e 4DE7     		b	.L366
 4930              	.LVL401:
 4931              	.L355:
  85:Src/Disk/fileReader.h **** 			if (num_read < num_readable) {
 4932              		.loc 8 85 19 view .LVU1845
 4933              	.LBE766:
 4934              	.LBE771:
 4935              	.LBE854:
 4936              	.LBE861:
 4937              	.LBE869:
 4938              	.LBB870:
 4939              	.LBB727:
 4940              	.LBB724:
  90:Src/Disk/fileReader.h **** 			}
 4941              		.loc 8 90 14 view .LVU1846
 4942 0340 84F80402 		strb	r0, [r4, #516]
 4943              	.LVL402:
  85:Src/Disk/fileReader.h **** 			if (num_read < num_readable) {
 4944              		.loc 8 85 3 is_stmt 1 view .LVU1847
  85:Src/Disk/fileReader.h **** 			if (num_read < num_readable) {
 4945              		.loc 8 85 19 view .LVU1848
 4946 0344 01E7     		b	.L352
 4947              	.LVL403:
 4948              	.L349:
  85:Src/Disk/fileReader.h **** 			if (num_read < num_readable) {
 4949              		.loc 8 85 19 is_stmt 0 view .LVU1849
 4950 0346 D4F81412 		ldr	r1, [r4, #532]
 4951 034a 01E7     		b	.L348
 4952              	.LVL404:
 4953              	.L381:
  85:Src/Disk/fileReader.h **** 			if (num_read < num_readable) {
 4954              		.loc 8 85 19 view .LVU1850
 4955              	.LBE724:
 4956              	.LBE727:
 4957              	.LBE870:
 4958              	.LBB871:
 4959              	.LBB862:
 4960              	.LBB855:
 4961              	.LBB844:
 100:Src/Settings/scale.h **** 			lut_ptr = lut_scale_locrian;
 4962              		.loc 5 100 3 is_stmt 1 view .LVU1851
 101:Src/Settings/scale.h **** 			lut_map_ptr = lut_scale_locrian_map;
 4963              		.loc 5 101 4 view .LVU1852
 101:Src/Settings/scale.h **** 			lut_map_ptr = lut_scale_locrian_map;
 4964              		.loc 5 101 12 is_stmt 0 view .LVU1853
 4965 034c 1448     		ldr	r0, .L590+8
 102:Src/Settings/scale.h **** 			break;
 4966              		.loc 5 102 16 view .LVU1854
 4967 034e 154A     		ldr	r2, .L590+12
 101:Src/Settings/scale.h **** 			lut_map_ptr = lut_scale_locrian_map;
 4968              		.loc 5 101 12 view .LVU1855
 4969 0350 6860     		str	r0, [r5, #4]
 102:Src/Settings/scale.h **** 			break;
ARM GAS  /var/folders/84/_x1cyy_j36g486tldtwl37280000gn/T//cctc5fkA.s 			page 127


 4970              		.loc 5 102 4 is_stmt 1 view .LVU1856
 103:Src/Settings/scale.h **** 		default:
 4971              		.loc 5 103 4 is_stmt 0 view .LVU1857
 4972 0352 8246     		mov	r10, r0
 102:Src/Settings/scale.h **** 			break;
 4973              		.loc 5 102 16 view .LVU1858
 4974 0354 AA60     		str	r2, [r5, #8]
 103:Src/Settings/scale.h **** 		default:
 4975              		.loc 5 103 4 is_stmt 1 view .LVU1859
 4976              	.L389:
 107:Src/Settings/scale.h **** 	}
 4977              		.loc 5 107 3 view .LVU1860
 4978              	.LVL405:
 4979              	.LBB813:
 4980              	.LBI813:
 169:Src/Settings/scale.h **** 		keymap.clear();
 4981              		.loc 5 169 14 view .LVU1861
 4982              	.LBB814:
 170:Src/Settings/scale.h **** 
 4983              		.loc 5 170 3 view .LVU1862
 4984              	.LBB815:
 4985              	.LBI815:
  10:/Users/joostbooy/Desktop/Code/stm32/lib/utils/stack.h ****         size_ = 0;
 4986              		.loc 10 10 17 view .LVU1863
 4987              	.LBB816:
  11:/Users/joostbooy/Desktop/Code/stm32/lib/utils/stack.h ****     }
 4988              		.loc 10 11 9 is_stmt 0 view .LVU1864
 4989 0356 4FF0000E 		mov	lr, #0
 4990 035a 0AF1FF38 		add	r8, r10, #-1
 4991 035e 85F80CE0 		strb	lr, [r5, #12]
 4992              	.LBE816:
 4993              	.LBE815:
 172:Src/Settings/scale.h **** 			uint8_t note = read(i) % 12;
 4994              		.loc 5 172 3 is_stmt 1 view .LVU1865
 4995              	.LVL406:
 4996              	.LBB817:
 172:Src/Settings/scale.h **** 			uint8_t note = read(i) % 12;
 4997              		.loc 5 172 25 view .LVU1866
 4998              	.L394:
 4999              	.LBB818:
 5000              	.LBB819:
 5001              	.LBB820:
 116:Src/Settings/scale.h **** 	}
 5002              		.loc 5 116 27 is_stmt 0 view .LVU1867
 5003 0362 18F8019F 		ldrb	r9, [r8, #1]!	@ zero_extendqisi2
 5004              	.LBE820:
 5005              	.LBE819:
 173:Src/Settings/scale.h **** 			keymap.sort(note);
 5006              		.loc 5 173 29 view .LVU1868
 5007 0366 0D48     		ldr	r0, .L590+4
 5008              	.LBB823:
 5009              	.LBB821:
 116:Src/Settings/scale.h **** 	}
 5010              		.loc 5 116 27 view .LVU1869
 5011 0368 8944     		add	r9, r9, r1
 5012              	.LBE821:
 5013              	.LBE823:
ARM GAS  /var/folders/84/_x1cyy_j36g486tldtwl37280000gn/T//cctc5fkA.s 			page 128


 173:Src/Settings/scale.h **** 			keymap.sort(note);
 5014              		.loc 5 173 29 view .LVU1870
 5015 036a 5FFA89FC 		uxtb	ip, r9
 5016 036e A0FB0C23 		umull	r2, r3, r0, ip
 5017 0372 DA08     		lsrs	r2, r3, #3
 5018 0374 02EB4207 		add	r7, r2, r2, lsl #1
 5019 0378 ACEB8700 		sub	r0, ip, r7, lsl #2
 5020 037c 5FFA80FA 		uxtb	r10, r0
 5021 0380 5FFA8EF9 		uxtb	r9, lr
 5022              	.LVL407:
 173:Src/Settings/scale.h **** 			keymap.sort(note);
 5023              		.loc 5 173 4 is_stmt 1 view .LVU1871
 5024              	.LBB824:
 5025              	.LBI819:
 115:Src/Settings/scale.h **** 		return lut_ptr[index] + root_;
 5026              		.loc 5 115 17 view .LVU1872
 5027              	.LBB822:
 116:Src/Settings/scale.h **** 	}
 5028              		.loc 5 116 3 view .LVU1873
 116:Src/Settings/scale.h **** 	}
 5029              		.loc 5 116 3 is_stmt 0 view .LVU1874
 5030              	.LBE822:
 5031              	.LBE824:
 174:Src/Settings/scale.h **** 		}
 5032              		.loc 5 174 4 is_stmt 1 view .LVU1875
 5033              	.LBB825:
 5034              	.LBI825:
  96:/Users/joostbooy/Desktop/Code/stm32/lib/utils/stack.h ****         uint8_t idx = size_;
 5035              		.loc 10 96 17 view .LVU1876
 5036              	.LBB826:
  99:/Users/joostbooy/Desktop/Code/stm32/lib/utils/stack.h ****             data[idx] = data[idx - 1];
 5037              		.loc 10 99 21 view .LVU1877
 5038 0384 BEF1000F 		cmp	lr, #0
 5039 0388 00F02C82 		beq	.L392
 5040 038c 05F10D02 		add	r2, r5, #13
 5041 0390 7244     		add	r2, r2, lr
 5042 0392 7346     		mov	r3, lr
 5043 0394 0DE0     		b	.L393
 5044              	.L591:
 5045 0396 00BF     		.align	2
 5046              	.L590:
 5047 0398 93010001 		.word	16777619
 5048 039c ABAAAAAA 		.word	-1431655765
 5049 03a0 00000000 		.word	lut_scale_locrian
 5050 03a4 00000000 		.word	lut_scale_locrian_map
 5051              	.LVL408:
 5052              	.L577:
  99:/Users/joostbooy/Desktop/Code/stm32/lib/utils/stack.h ****             data[idx] = data[idx - 1];
 5053              		.loc 10 99 21 is_stmt 0 view .LVU1878
 5054 03a8 013B     		subs	r3, r3, #1
 5055              	.LVL409:
 100:/Users/joostbooy/Desktop/Code/stm32/lib/utils/stack.h ****             --idx;
 5056              		.loc 10 100 13 view .LVU1879
 5057 03aa 02F80179 		strb	r7, [r2], #-1
  99:/Users/joostbooy/Desktop/Code/stm32/lib/utils/stack.h ****             data[idx] = data[idx - 1];
 5058              		.loc 10 99 21 is_stmt 1 view .LVU1880
 5059 03ae 00F01982 		beq	.L392
ARM GAS  /var/folders/84/_x1cyy_j36g486tldtwl37280000gn/T//cctc5fkA.s 			page 129


 5060              	.L393:
 5061              	.LVL410:
  99:/Users/joostbooy/Desktop/Code/stm32/lib/utils/stack.h ****             data[idx] = data[idx - 1];
 5062              		.loc 10 99 29 is_stmt 0 view .LVU1881
 5063 03b2 12F8017C 		ldrb	r7, [r2, #-1]	@ zero_extendqisi2
  99:/Users/joostbooy/Desktop/Code/stm32/lib/utils/stack.h ****             data[idx] = data[idx - 1];
 5064              		.loc 10 99 21 view .LVU1882
 5065 03b6 BA45     		cmp	r10, r7
  99:/Users/joostbooy/Desktop/Code/stm32/lib/utils/stack.h ****             data[idx] = data[idx - 1];
 5066              		.loc 10 99 30 view .LVU1883
 5067 03b8 9C46     		mov	ip, r3
  99:/Users/joostbooy/Desktop/Code/stm32/lib/utils/stack.h ****             data[idx] = data[idx - 1];
 5068              		.loc 10 99 21 view .LVU1884
 5069 03ba F5D9     		bls	.L577
 5070              	.LVL411:
 5071              	.L391:
 104:/Users/joostbooy/Desktop/Code/stm32/lib/utils/stack.h ****         ++size_;
 5072              		.loc 10 104 9 view .LVU1885
 5073 03bc AC44     		add	ip, ip, r5
 5074 03be 0EF1010E 		add	lr, lr, #1
 5075              		.loc 10 105 9 view .LVU1886
 5076 03c2 09F10100 		add	r0, r9, #1
 5077              	.LBE826:
 5078              	.LBE825:
 5079              	.LBE818:
 172:Src/Settings/scale.h **** 			uint8_t note = read(i) % 12;
 5080              		.loc 5 172 25 view .LVU1887
 5081 03c6 BEF1070F 		cmp	lr, #7
 5082              	.LBB831:
 5083              	.LBB829:
 5084              	.LBB827:
 104:/Users/joostbooy/Desktop/Code/stm32/lib/utils/stack.h ****         ++size_;
 5085              		.loc 10 104 9 view .LVU1888
 5086 03ca 8CF80DA0 		strb	r10, [ip, #13]
 5087              		.loc 10 105 9 view .LVU1889
 5088 03ce 2873     		strb	r0, [r5, #12]
 5089              	.LBE827:
 5090              	.LBE829:
 5091              	.LBE831:
 172:Src/Settings/scale.h **** 			uint8_t note = read(i) % 12;
 5092              		.loc 5 172 3 is_stmt 1 view .LVU1890
 172:Src/Settings/scale.h **** 			uint8_t note = read(i) % 12;
 5093              		.loc 5 172 25 view .LVU1891
 5094 03d0 C7D1     		bne	.L394
 5095              	.LBE817:
 177:Src/Settings/scale.h **** 		highest_note = 0;
 5096              		.loc 5 177 3 view .LVU1892
 5097              	.LVL412:
 178:Src/Settings/scale.h **** 
 5098              		.loc 5 178 3 view .LVU1893
 178:Src/Settings/scale.h **** 
 5099              		.loc 5 178 16 is_stmt 0 view .LVU1894
 5100 03d2 0022     		movs	r2, #0
 5101 03d4 AA70     		strb	r2, [r5, #2]
 180:Src/Settings/scale.h **** 			for (int i = 0; i < NOTES_IN_SCALE; ++i) {
 5102              		.loc 5 180 3 is_stmt 1 view .LVU1895
 180:Src/Settings/scale.h **** 			for (int i = 0; i < NOTES_IN_SCALE; ++i) {
ARM GAS  /var/folders/84/_x1cyy_j36g486tldtwl37280000gn/T//cctc5fkA.s 			page 130


 5103              		.loc 5 180 19 view .LVU1896
 177:Src/Settings/scale.h **** 		highest_note = 0;
 5104              		.loc 5 177 10 is_stmt 0 view .LVU1897
 5105 03d6 7821     		movs	r1, #120
 5106              	.LVL413:
 5107              	.L395:
 5108              	.LBB833:
 5109              	.LBB834:
 5110              	.LBB835:
 182:Src/Settings/scale.h **** 				if (note < 128 && note > highest_note) {
 5111              		.loc 5 182 5 is_stmt 1 view .LVU1898
 5112              	.LBB836:
 5113              	.LBI836:
  54:/Users/joostbooy/Desktop/Code/stm32/lib/utils/stack.h ****         return data[idx];
 5114              		.loc 10 54 14 view .LVU1899
  54:/Users/joostbooy/Desktop/Code/stm32/lib/utils/stack.h ****         return data[idx];
 5115              		.loc 10 54 14 is_stmt 0 view .LVU1900
 5116              	.LBE836:
 5117              	.LBE835:
 181:Src/Settings/scale.h **** 				uint16_t note = keymap.read(i) + oct;
 5118              		.loc 5 181 4 is_stmt 1 view .LVU1901
 181:Src/Settings/scale.h **** 				uint16_t note = keymap.read(i) + oct;
 5119              		.loc 5 181 22 view .LVU1902
 5120              	.LBB839:
 5121              	.LBB838:
 5122              	.LBB837:
  55:/Users/joostbooy/Desktop/Code/stm32/lib/utils/stack.h ****     }
 5123              		.loc 10 55 24 is_stmt 0 view .LVU1903
 5124 03d8 AF18     		adds	r7, r5, r2
 5125              	.LBE837:
 5126              	.LBE838:
 182:Src/Settings/scale.h **** 				if (note < 128 && note > highest_note) {
 5127              		.loc 5 182 32 view .LVU1904
 5128 03da 0132     		adds	r2, r2, #1
 5129              	.LVL414:
 182:Src/Settings/scale.h **** 				if (note < 128 && note > highest_note) {
 5130              		.loc 5 182 32 view .LVU1905
 5131 03dc 7B7B     		ldrb	r3, [r7, #13]	@ zero_extendqisi2
 182:Src/Settings/scale.h **** 				if (note < 128 && note > highest_note) {
 5132              		.loc 5 182 36 view .LVU1906
 5133 03de 0B44     		add	r3, r3, r1
 5134              	.LVL415:
 183:Src/Settings/scale.h **** 					highest_note = note;
 5135              		.loc 5 183 5 is_stmt 1 view .LVU1907
 5136 03e0 7F2B     		cmp	r3, #127
 183:Src/Settings/scale.h **** 					highest_note = note;
 5137              		.loc 5 183 20 is_stmt 0 view .LVU1908
 5138 03e2 1FFA83F8 		uxth	r8, r3
 183:Src/Settings/scale.h **** 					highest_note = note;
 5139              		.loc 5 183 5 view .LVU1909
 5140 03e6 03DC     		bgt	.L397
 184:Src/Settings/scale.h **** 				}
 5141              		.loc 5 184 6 is_stmt 1 view .LVU1910
 183:Src/Settings/scale.h **** 					highest_note = note;
 5142              		.loc 5 183 20 is_stmt 0 view .LVU1911
 5143 03e8 A878     		ldrb	r0, [r5, #2]	@ zero_extendqisi2
 5144 03ea 4045     		cmp	r0, r8
ARM GAS  /var/folders/84/_x1cyy_j36g486tldtwl37280000gn/T//cctc5fkA.s 			page 131


 184:Src/Settings/scale.h **** 				}
 5145              		.loc 5 184 19 view .LVU1912
 5146 03ec 38BF     		it	cc
 5147 03ee AB70     		strbcc	r3, [r5, #2]
 5148              	.L397:
 5149              	.LBE839:
 181:Src/Settings/scale.h **** 				uint16_t note = keymap.read(i) + oct;
 5150              		.loc 5 181 22 view .LVU1913
 5151 03f0 072A     		cmp	r2, #7
 5152 03f2 F1D1     		bne	.L395
 5153              	.LBE834:
 5154              		.loc 5 187 4 is_stmt 1 view .LVU1914
 5155              		.loc 5 187 8 is_stmt 0 view .LVU1915
 5156 03f4 0C39     		subs	r1, r1, #12
 5157 03f6 49B2     		sxtb	r1, r1
 5158              	.LVL416:
 5159              		.loc 5 187 8 view .LVU1916
 5160              	.LBE833:
 180:Src/Settings/scale.h **** 			for (int i = 0; i < NOTES_IN_SCALE; ++i) {
 5161              		.loc 5 180 3 is_stmt 1 view .LVU1917
 180:Src/Settings/scale.h **** 			for (int i = 0; i < NOTES_IN_SCALE; ++i) {
 5162              		.loc 5 180 19 view .LVU1918
 5163 03f8 0029     		cmp	r1, #0
 5164 03fa 02DB     		blt	.L396
 5165 03fc AA78     		ldrb	r2, [r5, #2]	@ zero_extendqisi2
 5166              	.LVL417:
 180:Src/Settings/scale.h **** 			for (int i = 0; i < NOTES_IN_SCALE; ++i) {
 5167              		.loc 5 180 19 is_stmt 0 view .LVU1919
 5168 03fe 002A     		cmp	r2, #0
 5169 0400 EAD0     		beq	.L395
 5170              	.L396:
 5171              	.LVL418:
 180:Src/Settings/scale.h **** 			for (int i = 0; i < NOTES_IN_SCALE; ++i) {
 5172              		.loc 5 180 19 view .LVU1920
 5173              	.LBE814:
 5174              	.LBE813:
 5175              	.LBE844:
 5176              	.LBE855:
 5177              	.LBE862:
 5178              	.LBE871:
  67:Src/Settings/song.cpp **** 	midiClock.load(fileReader);
 5179              		.loc 1 67 2 is_stmt 1 view .LVU1921
 5180              	.LBB872:
 5181              	.LBB873:
 5182              	.LBB874:
 5183              	.LBB875:
 5184              	.LBB876:
  85:Src/Disk/fileReader.h **** 			if (num_read < num_readable) {
 5185              		.loc 8 85 19 is_stmt 0 view .LVU1922
 5186 0402 94F80432 		ldrb	r3, [r4, #516]	@ zero_extendqisi2
 5187              	.LBE876:
 5188              	.LBE875:
 5189              	.LBE874:
 5190              	.LBE873:
 5191              	.LBE872:
 5192              		.loc 1 67 16 view .LVU1923
 5193 0406 05F11408 		add	r8, r5, #20
ARM GAS  /var/folders/84/_x1cyy_j36g486tldtwl37280000gn/T//cctc5fkA.s 			page 132


 5194              	.LVL419:
 5195              	.LBB984:
 5196              	.LBI872:
 118:Src/Settings/midiClock.h **** 	}
 119:Src/Settings/midiClock.h **** 
 120:Src/Settings/midiClock.h **** 	void load(FileReader &fileReader) {
 5197              		.loc 6 120 7 is_stmt 1 view .LVU1924
 5198              	.LBB981:
 121:Src/Settings/midiClock.h **** 		fileReader.read(bpm_);
 5199              		.loc 6 121 3 view .LVU1925
 5200              	.LBB899:
 5201              	.LBI874:
  51:Src/Disk/fileReader.h **** 		read_buffer(&data, sizeof(T));
 5202              		.loc 8 51 7 view .LVU1926
 5203              	.LBB890:
 5204              	.LBB887:
  85:Src/Disk/fileReader.h **** 			if (num_read < num_readable) {
 5205              		.loc 8 85 3 view .LVU1927
  85:Src/Disk/fileReader.h **** 			if (num_read < num_readable) {
 5206              		.loc 8 85 19 view .LVU1928
 5207 040a 0227     		movs	r7, #2
 5208 040c 002B     		cmp	r3, #0
 5209 040e 00F00482 		beq	.L401
 5210              	.LVL420:
  86:Src/Disk/fileReader.h **** 				*data_++ = buffer[num_read++];
 5211              		.loc 8 86 4 view .LVU1929
  87:Src/Disk/fileReader.h **** 				--size;
 5212              		.loc 8 87 5 view .LVU1930
  86:Src/Disk/fileReader.h **** 				*data_++ = buffer[num_read++];
 5213              		.loc 8 86 4 is_stmt 0 view .LVU1931
 5214 0412 D4E9823A 		ldrd	r3, r10, [r4, #520]
 5215 0416 5345     		cmp	r3, r10
  87:Src/Disk/fileReader.h **** 				--size;
 5216              		.loc 8 87 11 view .LVU1932
 5217 0418 C146     		mov	r9, r8
 5218              	.LVL421:
  87:Src/Disk/fileReader.h **** 				--size;
 5219              		.loc 8 87 31 view .LVU1933
 5220 041a 03F10100 		add	r0, r3, #1
  86:Src/Disk/fileReader.h **** 				*data_++ = buffer[num_read++];
 5221              		.loc 8 86 4 view .LVU1934
 5222 041e 13D2     		bcs	.L403
 5223              	.LVL422:
 5224              	.L578:
  87:Src/Disk/fileReader.h **** 				--size;
 5225              		.loc 8 87 31 view .LVU1935
 5226 0420 C4F80802 		str	r0, [r4, #520]
  87:Src/Disk/fileReader.h **** 				--size;
 5227              		.loc 8 87 33 view .LVU1936
 5228 0424 E05C     		ldrb	r0, [r4, r3]	@ zero_extendqisi2
  87:Src/Disk/fileReader.h **** 				--size;
 5229              		.loc 8 87 14 view .LVU1937
 5230 0426 09F8010B 		strb	r0, [r9], #1
  88:Src/Disk/fileReader.h **** 			} else {
 5231              		.loc 8 88 5 is_stmt 1 view .LVU1938
 5232              	.LVL423:
  85:Src/Disk/fileReader.h **** 			if (num_read < num_readable) {
ARM GAS  /var/folders/84/_x1cyy_j36g486tldtwl37280000gn/T//cctc5fkA.s 			page 133


 5233              		.loc 8 85 19 is_stmt 0 view .LVU1939
 5234 042a 94F80422 		ldrb	r2, [r4, #516]	@ zero_extendqisi2
  88:Src/Disk/fileReader.h **** 			} else {
 5235              		.loc 8 88 5 view .LVU1940
 5236 042e 013F     		subs	r7, r7, #1
 5237              	.LVL424:
  85:Src/Disk/fileReader.h **** 			if (num_read < num_readable) {
 5238              		.loc 8 85 3 is_stmt 1 view .LVU1941
  85:Src/Disk/fileReader.h **** 			if (num_read < num_readable) {
 5239              		.loc 8 85 19 view .LVU1942
 5240 0430 002A     		cmp	r2, #0
 5241 0432 00F0F281 		beq	.L401
  85:Src/Disk/fileReader.h **** 			if (num_read < num_readable) {
 5242              		.loc 8 85 19 is_stmt 0 view .LVU1943
 5243 0436 2FB3     		cbz	r7, .L402
 5244              	.LVL425:
  90:Src/Disk/fileReader.h **** 			}
 5245              		.loc 8 90 14 view .LVU1944
 5246 0438 C846     		mov	r8, r9
 5247              	.LVL426:
 5248              	.L579:
  86:Src/Disk/fileReader.h **** 				*data_++ = buffer[num_read++];
 5249              		.loc 8 86 4 is_stmt 1 view .LVU1945
  87:Src/Disk/fileReader.h **** 				--size;
 5250              		.loc 8 87 5 view .LVU1946
  86:Src/Disk/fileReader.h **** 				*data_++ = buffer[num_read++];
 5251              		.loc 8 86 4 is_stmt 0 view .LVU1947
 5252 043a D4E9823A 		ldrd	r3, r10, [r4, #520]
 5253 043e 5345     		cmp	r3, r10
  87:Src/Disk/fileReader.h **** 				--size;
 5254              		.loc 8 87 11 view .LVU1948
 5255 0440 C146     		mov	r9, r8
 5256              	.LVL427:
  87:Src/Disk/fileReader.h **** 				--size;
 5257              		.loc 8 87 31 view .LVU1949
 5258 0442 03F10100 		add	r0, r3, #1
  86:Src/Disk/fileReader.h **** 				*data_++ = buffer[num_read++];
 5259              		.loc 8 86 4 view .LVU1950
 5260 0446 EBD3     		bcc	.L578
 5261              	.LVL428:
 5262              	.L403:
  90:Src/Disk/fileReader.h **** 			}
 5263              		.loc 8 90 5 is_stmt 1 view .LVU1951
 5264              	.LBB877:
 5265              	.LBI877:
  95:Src/Disk/fileReader.h **** 		num_read = 0;
 5266              		.loc 8 95 7 view .LVU1952
 5267              	.LBB878:
  96:Src/Disk/fileReader.h **** 		if (file_->read(buffer, kBufferSize, &num_readable)) {
 5268              		.loc 8 96 3 view .LVU1953
  97:Src/Disk/fileReader.h **** 			return (num_readable >= requested_size) || (num_readable >= kBufferSize);
 5269              		.loc 8 97 18 is_stmt 0 view .LVU1954
 5270 0448 D4F80012 		ldr	r1, [r4, #512]
  96:Src/Disk/fileReader.h **** 		if (file_->read(buffer, kBufferSize, &num_readable)) {
 5271              		.loc 8 96 12 view .LVU1955
 5272 044c 0022     		movs	r2, #0
 5273              	.LBB879:
ARM GAS  /var/folders/84/_x1cyy_j36g486tldtwl37280000gn/T//cctc5fkA.s 			page 134


 5274              	.LBB880:
  58:Src/Disk/file.h **** 		if (num_read) {
 5275              		.loc 3 58 23 view .LVU1956
 5276 044e 0868     		ldr	r0, [r1]
 5277              	.LBE880:
 5278              	.LBE879:
  96:Src/Disk/fileReader.h **** 		if (file_->read(buffer, kBufferSize, &num_readable)) {
 5279              		.loc 8 96 12 view .LVU1957
 5280 0450 C4F80822 		str	r2, [r4, #520]
  97:Src/Disk/fileReader.h **** 			return (num_readable >= requested_size) || (num_readable >= kBufferSize);
 5281              		.loc 8 97 3 is_stmt 1 view .LVU1958
 5282              	.LVL429:
 5283              	.LBB883:
 5284              	.LBI879:
  56:Src/Disk/file.h **** 		UINT br;
 5285              		.loc 3 56 7 view .LVU1959
 5286              	.LBB881:
  57:Src/Disk/file.h **** 		FRESULT res = f_read(fil, data, size, &br);
 5287              		.loc 3 57 3 view .LVU1960
  58:Src/Disk/file.h **** 		if (num_read) {
 5288              		.loc 3 58 3 view .LVU1961
  58:Src/Disk/file.h **** 		if (num_read) {
 5289              		.loc 3 58 23 is_stmt 0 view .LVU1962
 5290 0454 01AB     		add	r3, sp, #4
 5291 0456 4FF40072 		mov	r2, #512
 5292 045a 2146     		mov	r1, r4
 5293              	.LVL430:
  58:Src/Disk/file.h **** 		if (num_read) {
 5294              		.loc 3 58 23 view .LVU1963
 5295 045c FFF7FEFF 		bl	f_read
 5296              	.LVL431:
  60:Src/Disk/file.h **** 		}
 5297              		.loc 3 60 14 view .LVU1964
 5298 0460 019B     		ldr	r3, [sp, #4]
 5299 0462 C4F80C32 		str	r3, [r4, #524]
 5300              	.LVL432:
  59:Src/Disk/file.h **** 			*num_read = br;
 5301              		.loc 3 59 3 is_stmt 1 view .LVU1965
  60:Src/Disk/file.h **** 		}
 5302              		.loc 3 60 4 view .LVU1966
 5303              		.loc 3 62 3 view .LVU1967
 5304              		.loc 3 62 19 is_stmt 0 view .LVU1968
 5305 0466 002B     		cmp	r3, #0
 5306 0468 00F0D481 		beq	.L405
 5307              	.LVL433:
 5308              		.loc 3 62 19 view .LVU1969
 5309              	.LBE881:
 5310              	.LBE883:
 5311              		.loc 8 98 4 is_stmt 1 view .LVU1970
 5312              	.LBB884:
 5313              	.LBB882:
 5314              		.loc 3 62 19 is_stmt 0 view .LVU1971
 5315 046c 0028     		cmp	r0, #0
 5316 046e 40F0D181 		bne	.L405
 5317              	.LVL434:
 5318              		.loc 3 62 19 view .LVU1972
 5319              	.LBE882:
ARM GAS  /var/folders/84/_x1cyy_j36g486tldtwl37280000gn/T//cctc5fkA.s 			page 135


 5320              	.LBE884:
 5321              		.loc 8 98 44 view .LVU1973
 5322 0472 BB42     		cmp	r3, r7
 5323              	.LBE878:
 5324              	.LBE877:
  90:Src/Disk/fileReader.h **** 			}
 5325              		.loc 8 90 14 view .LVU1974
 5326 0474 4FF00101 		mov	r1, #1
 5327              	.LBB886:
 5328              	.LBB885:
 5329              		.loc 8 98 44 view .LVU1975
 5330 0478 C0F05183 		bcc	.L407
 5331              	.LBE885:
 5332              	.LBE886:
  90:Src/Disk/fileReader.h **** 			}
 5333              		.loc 8 90 14 view .LVU1976
 5334 047c 84F80412 		strb	r1, [r4, #516]
 5335              	.LVL435:
  85:Src/Disk/fileReader.h **** 			if (num_read < num_readable) {
 5336              		.loc 8 85 3 is_stmt 1 view .LVU1977
  85:Src/Disk/fileReader.h **** 			if (num_read < num_readable) {
 5337              		.loc 8 85 19 view .LVU1978
  90:Src/Disk/fileReader.h **** 			}
 5338              		.loc 8 90 14 is_stmt 0 view .LVU1979
 5339 0480 C846     		mov	r8, r9
  90:Src/Disk/fileReader.h **** 			}
 5340              		.loc 8 90 14 view .LVU1980
 5341 0482 DAE7     		b	.L579
 5342              	.LVL436:
 5343              	.L402:
  90:Src/Disk/fileReader.h **** 			}
 5344              		.loc 8 90 14 view .LVU1981
 5345              	.LBE887:
 5346              	.LBE890:
 5347              	.LBB891:
 5348              	.LBB892:
  20:/Users/joostbooy/Desktop/Code/stm32/lib/utils/hash.h **** 			hash_ ^= *data_++;
 5349              		.loc 4 20 3 is_stmt 1 view .LVU1982
  20:/Users/joostbooy/Desktop/Code/stm32/lib/utils/hash.h **** 			hash_ ^= *data_++;
 5350              		.loc 4 20 14 view .LVU1983
  21:/Users/joostbooy/Desktop/Code/stm32/lib/utils/hash.h **** 			hash_ *= prime_;
 5351              		.loc 4 21 4 view .LVU1984
 5352              		.loc 4 22 4 view .LVU1985
  21:/Users/joostbooy/Desktop/Code/stm32/lib/utils/hash.h **** 			hash_ *= prime_;
 5353              		.loc 4 21 10 is_stmt 0 view .LVU1986
 5354 0484 D4F81412 		ldr	r1, [r4, #532]
 5355 0488 2B7D     		ldrb	r3, [r5, #20]	@ zero_extendqisi2
 5356              		.loc 4 22 10 view .LVU1987
 5357 048a C548     		ldr	r0, .L592
  21:/Users/joostbooy/Desktop/Code/stm32/lib/utils/hash.h **** 			hash_ *= prime_;
 5358              		.loc 4 21 10 view .LVU1988
 5359 048c 4B40     		eors	r3, r3, r1
 5360              		.loc 4 22 10 view .LVU1989
 5361 048e 00FB03F3 		mul	r3, r0, r3
 5362 0492 C4F81432 		str	r3, [r4, #532]
  20:/Users/joostbooy/Desktop/Code/stm32/lib/utils/hash.h **** 			hash_ ^= *data_++;
 5363              		.loc 4 20 3 is_stmt 1 view .LVU1990
ARM GAS  /var/folders/84/_x1cyy_j36g486tldtwl37280000gn/T//cctc5fkA.s 			page 136


  20:/Users/joostbooy/Desktop/Code/stm32/lib/utils/hash.h **** 			hash_ ^= *data_++;
 5364              		.loc 4 20 14 view .LVU1991
 5365              	.LVL437:
  21:/Users/joostbooy/Desktop/Code/stm32/lib/utils/hash.h **** 			hash_ *= prime_;
 5366              		.loc 4 21 4 view .LVU1992
 5367              		.loc 4 22 4 view .LVU1993
  21:/Users/joostbooy/Desktop/Code/stm32/lib/utils/hash.h **** 			hash_ *= prime_;
 5368              		.loc 4 21 10 is_stmt 0 view .LVU1994
 5369 0496 6A7D     		ldrb	r2, [r5, #21]	@ zero_extendqisi2
 5370 0498 5340     		eors	r3, r3, r2
 5371              		.loc 4 22 10 view .LVU1995
 5372 049a 00FB03F0 		mul	r0, r0, r3
 5373              	.LBE892:
 5374              	.LBE891:
 5375              	.LBE899:
 5376              	.LBB900:
 5377              	.LBB901:
 5378              	.LBB902:
  86:Src/Disk/fileReader.h **** 				*data_++ = buffer[num_read++];
 5379              		.loc 8 86 4 view .LVU1996
 5380 049e D4E9823C 		ldrd	r3, ip, [r4, #520]
 5381              	.LBE902:
 5382              	.LBE901:
 5383              	.LBE900:
 122:Src/Settings/midiClock.h **** 		fileReader.read(bpm_fractional_);
 5384              		.loc 6 122 19 view .LVU1997
 5385 04a2 05F1160A 		add	r10, r5, #22
 5386              	.LBB933:
 5387              	.LBB920:
 5388              	.LBB913:
  86:Src/Disk/fileReader.h **** 				*data_++ = buffer[num_read++];
 5389              		.loc 8 86 4 view .LVU1998
 5390 04a6 6345     		cmp	r3, ip
 5391              	.LBE913:
 5392              	.LBE920:
 5393              	.LBE933:
 5394              	.LBB934:
 5395              	.LBB895:
 5396              	.LBB893:
 5397              		.loc 4 22 10 view .LVU1999
 5398 04a8 C4F81402 		str	r0, [r4, #532]
  20:/Users/joostbooy/Desktop/Code/stm32/lib/utils/hash.h **** 			hash_ ^= *data_++;
 5399              		.loc 4 20 3 is_stmt 1 view .LVU2000
  20:/Users/joostbooy/Desktop/Code/stm32/lib/utils/hash.h **** 			hash_ ^= *data_++;
 5400              		.loc 4 20 14 view .LVU2001
 5401              	.LVL438:
  20:/Users/joostbooy/Desktop/Code/stm32/lib/utils/hash.h **** 			hash_ ^= *data_++;
 5402              		.loc 4 20 14 is_stmt 0 view .LVU2002
 5403              	.LBE893:
 5404              	.LBE895:
 5405              	.LBE934:
 5406              		.loc 6 122 3 is_stmt 1 view .LVU2003
 5407              	.LBB935:
 5408              	.LBI900:
  51:Src/Disk/fileReader.h **** 		read_buffer(&data, sizeof(T));
 5409              		.loc 8 51 7 view .LVU2004
 5410              	.LBB921:
ARM GAS  /var/folders/84/_x1cyy_j36g486tldtwl37280000gn/T//cctc5fkA.s 			page 137


 5411              	.LBB914:
  85:Src/Disk/fileReader.h **** 			if (num_read < num_readable) {
 5412              		.loc 8 85 3 view .LVU2005
  85:Src/Disk/fileReader.h **** 			if (num_read < num_readable) {
 5413              		.loc 8 85 19 view .LVU2006
 5414              	.LBE914:
 5415              	.LBE921:
 5416              	.LBE935:
 5417              		.loc 6 122 19 is_stmt 0 view .LVU2007
 5418 04ac 4FF00207 		mov	r7, #2
 5419              	.LBB936:
 5420              	.LBB922:
 5421              	.LBB915:
  86:Src/Disk/fileReader.h **** 				*data_++ = buffer[num_read++];
 5422              		.loc 8 86 4 is_stmt 1 view .LVU2008
  87:Src/Disk/fileReader.h **** 				--size;
 5423              		.loc 8 87 5 view .LVU2009
  87:Src/Disk/fileReader.h **** 				--size;
 5424              		.loc 8 87 11 is_stmt 0 view .LVU2010
 5425 04b0 D046     		mov	r8, r10
 5426              	.LVL439:
  87:Src/Disk/fileReader.h **** 				--size;
 5427              		.loc 8 87 31 view .LVU2011
 5428 04b2 03F10101 		add	r1, r3, #1
  86:Src/Disk/fileReader.h **** 				*data_++ = buffer[num_read++];
 5429              		.loc 8 86 4 view .LVU2012
 5430 04b6 13D2     		bcs	.L412
 5431              	.LVL440:
 5432              	.L581:
  87:Src/Disk/fileReader.h **** 				--size;
 5433              		.loc 8 87 31 view .LVU2013
 5434 04b8 C4F80812 		str	r1, [r4, #520]
  87:Src/Disk/fileReader.h **** 				--size;
 5435              		.loc 8 87 33 view .LVU2014
 5436 04bc E05C     		ldrb	r0, [r4, r3]	@ zero_extendqisi2
  87:Src/Disk/fileReader.h **** 				--size;
 5437              		.loc 8 87 14 view .LVU2015
 5438 04be 08F8010B 		strb	r0, [r8], #1
  88:Src/Disk/fileReader.h **** 			} else {
 5439              		.loc 8 88 5 is_stmt 1 view .LVU2016
 5440              	.LVL441:
  85:Src/Disk/fileReader.h **** 			if (num_read < num_readable) {
 5441              		.loc 8 85 19 is_stmt 0 view .LVU2017
 5442 04c2 94F80422 		ldrb	r2, [r4, #516]	@ zero_extendqisi2
  88:Src/Disk/fileReader.h **** 			} else {
 5443              		.loc 8 88 5 view .LVU2018
 5444 04c6 013F     		subs	r7, r7, #1
 5445              	.LVL442:
  85:Src/Disk/fileReader.h **** 			if (num_read < num_readable) {
 5446              		.loc 8 85 3 is_stmt 1 view .LVU2019
  85:Src/Disk/fileReader.h **** 			if (num_read < num_readable) {
 5447              		.loc 8 85 19 view .LVU2020
 5448 04c8 002A     		cmp	r2, #0
 5449 04ca 00F0CF81 		beq	.L414
 5450 04ce 2FB3     		cbz	r7, .L580
 5451              	.LVL443:
  85:Src/Disk/fileReader.h **** 			if (num_read < num_readable) {
ARM GAS  /var/folders/84/_x1cyy_j36g486tldtwl37280000gn/T//cctc5fkA.s 			page 138


 5452              		.loc 8 85 19 is_stmt 0 view .LVU2021
 5453              	.LBE915:
 5454              	.LBE922:
 5455              	.LBE936:
 5456              		.loc 6 122 19 view .LVU2022
 5457 04d0 C246     		mov	r10, r8
 5458              	.LVL444:
 5459              	.L582:
 5460              	.LBB937:
 5461              	.LBB923:
 5462              	.LBB916:
  86:Src/Disk/fileReader.h **** 				*data_++ = buffer[num_read++];
 5463              		.loc 8 86 4 is_stmt 1 view .LVU2023
  87:Src/Disk/fileReader.h **** 				--size;
 5464              		.loc 8 87 5 view .LVU2024
  86:Src/Disk/fileReader.h **** 				*data_++ = buffer[num_read++];
 5465              		.loc 8 86 4 is_stmt 0 view .LVU2025
 5466 04d2 D4E9823C 		ldrd	r3, ip, [r4, #520]
 5467 04d6 6345     		cmp	r3, ip
  87:Src/Disk/fileReader.h **** 				--size;
 5468              		.loc 8 87 11 view .LVU2026
 5469 04d8 D046     		mov	r8, r10
 5470              	.LVL445:
  87:Src/Disk/fileReader.h **** 				--size;
 5471              		.loc 8 87 31 view .LVU2027
 5472 04da 03F10101 		add	r1, r3, #1
  86:Src/Disk/fileReader.h **** 				*data_++ = buffer[num_read++];
 5473              		.loc 8 86 4 view .LVU2028
 5474 04de EBD3     		bcc	.L581
 5475              	.LVL446:
 5476              	.L412:
  90:Src/Disk/fileReader.h **** 			}
 5477              		.loc 8 90 5 is_stmt 1 view .LVU2029
 5478              	.LBB903:
 5479              	.LBI903:
  95:Src/Disk/fileReader.h **** 		num_read = 0;
 5480              		.loc 8 95 7 view .LVU2030
 5481              	.LBB904:
  96:Src/Disk/fileReader.h **** 		if (file_->read(buffer, kBufferSize, &num_readable)) {
 5482              		.loc 8 96 3 view .LVU2031
  97:Src/Disk/fileReader.h **** 			return (num_readable >= requested_size) || (num_readable >= kBufferSize);
 5483              		.loc 8 97 18 is_stmt 0 view .LVU2032
 5484 04e0 D4F80002 		ldr	r0, [r4, #512]
  96:Src/Disk/fileReader.h **** 		if (file_->read(buffer, kBufferSize, &num_readable)) {
 5485              		.loc 8 96 12 view .LVU2033
 5486 04e4 0022     		movs	r2, #0
 5487              	.LBB905:
 5488              	.LBB906:
  58:Src/Disk/file.h **** 		if (num_read) {
 5489              		.loc 3 58 23 view .LVU2034
 5490 04e6 0068     		ldr	r0, [r0]
 5491              	.LBE906:
 5492              	.LBE905:
  96:Src/Disk/fileReader.h **** 		if (file_->read(buffer, kBufferSize, &num_readable)) {
 5493              		.loc 8 96 12 view .LVU2035
 5494 04e8 C4F80822 		str	r2, [r4, #520]
  97:Src/Disk/fileReader.h **** 			return (num_readable >= requested_size) || (num_readable >= kBufferSize);
ARM GAS  /var/folders/84/_x1cyy_j36g486tldtwl37280000gn/T//cctc5fkA.s 			page 139


 5495              		.loc 8 97 3 is_stmt 1 view .LVU2036
 5496              	.LVL447:
 5497              	.LBB909:
 5498              	.LBI905:
  56:Src/Disk/file.h **** 		UINT br;
 5499              		.loc 3 56 7 view .LVU2037
 5500              	.LBB907:
  57:Src/Disk/file.h **** 		FRESULT res = f_read(fil, data, size, &br);
 5501              		.loc 3 57 3 view .LVU2038
  58:Src/Disk/file.h **** 		if (num_read) {
 5502              		.loc 3 58 3 view .LVU2039
  58:Src/Disk/file.h **** 		if (num_read) {
 5503              		.loc 3 58 23 is_stmt 0 view .LVU2040
 5504 04ec 01AB     		add	r3, sp, #4
 5505 04ee 4FF40072 		mov	r2, #512
 5506 04f2 2146     		mov	r1, r4
 5507 04f4 FFF7FEFF 		bl	f_read
 5508              	.LVL448:
  60:Src/Disk/file.h **** 		}
 5509              		.loc 3 60 14 view .LVU2041
 5510 04f8 019B     		ldr	r3, [sp, #4]
 5511 04fa C4F80C32 		str	r3, [r4, #524]
 5512              	.LVL449:
  59:Src/Disk/file.h **** 			*num_read = br;
 5513              		.loc 3 59 3 is_stmt 1 view .LVU2042
  60:Src/Disk/file.h **** 		}
 5514              		.loc 3 60 4 view .LVU2043
 5515              		.loc 3 62 3 view .LVU2044
 5516              		.loc 3 62 19 is_stmt 0 view .LVU2045
 5517 04fe 002B     		cmp	r3, #0
 5518 0500 00F0B181 		beq	.L415
 5519              	.LVL450:
 5520              		.loc 3 62 19 view .LVU2046
 5521              	.LBE907:
 5522              	.LBE909:
 5523              		.loc 8 98 4 is_stmt 1 view .LVU2047
 5524              	.LBB910:
 5525              	.LBB908:
 5526              		.loc 3 62 19 is_stmt 0 view .LVU2048
 5527 0504 0028     		cmp	r0, #0
 5528 0506 40F0AE81 		bne	.L415
 5529              	.LVL451:
 5530              		.loc 3 62 19 view .LVU2049
 5531              	.LBE908:
 5532              	.LBE910:
 5533              		.loc 8 98 44 view .LVU2050
 5534 050a BB42     		cmp	r3, r7
 5535              	.LBE904:
 5536              	.LBE903:
  90:Src/Disk/fileReader.h **** 			}
 5537              		.loc 8 90 14 view .LVU2051
 5538 050c 4FF00101 		mov	r1, #1
 5539              	.LBB912:
 5540              	.LBB911:
 5541              		.loc 8 98 44 view .LVU2052
 5542 0510 C0F00283 		bcc	.L417
 5543              	.LBE911:
ARM GAS  /var/folders/84/_x1cyy_j36g486tldtwl37280000gn/T//cctc5fkA.s 			page 140


 5544              	.LBE912:
  90:Src/Disk/fileReader.h **** 			}
 5545              		.loc 8 90 14 view .LVU2053
 5546 0514 84F80412 		strb	r1, [r4, #516]
  85:Src/Disk/fileReader.h **** 			if (num_read < num_readable) {
 5547              		.loc 8 85 3 is_stmt 1 view .LVU2054
  85:Src/Disk/fileReader.h **** 			if (num_read < num_readable) {
 5548              		.loc 8 85 19 view .LVU2055
 5549              	.LVL452:
  85:Src/Disk/fileReader.h **** 			if (num_read < num_readable) {
 5550              		.loc 8 85 19 is_stmt 0 view .LVU2056
 5551              	.LBE916:
 5552              	.LBE923:
 5553              	.LBE937:
 5554              		.loc 6 122 19 view .LVU2057
 5555 0518 C246     		mov	r10, r8
 5556 051a DAE7     		b	.L582
 5557              	.LVL453:
 5558              	.L580:
 5559              	.LBB938:
 5560              	.LBB924:
 5561              	.LBB925:
  20:/Users/joostbooy/Desktop/Code/stm32/lib/utils/hash.h **** 			hash_ ^= *data_++;
 5562              		.loc 4 20 3 is_stmt 1 view .LVU2058
  20:/Users/joostbooy/Desktop/Code/stm32/lib/utils/hash.h **** 			hash_ ^= *data_++;
 5563              		.loc 4 20 14 view .LVU2059
  21:/Users/joostbooy/Desktop/Code/stm32/lib/utils/hash.h **** 			hash_ *= prime_;
 5564              		.loc 4 21 4 view .LVU2060
 5565              		.loc 4 22 4 view .LVU2061
  21:/Users/joostbooy/Desktop/Code/stm32/lib/utils/hash.h **** 			hash_ *= prime_;
 5566              		.loc 4 21 10 is_stmt 0 view .LVU2062
 5567 051c AB7D     		ldrb	r3, [r5, #22]	@ zero_extendqisi2
 5568 051e D4F81472 		ldr	r7, [r4, #532]
 5569              		.loc 4 22 10 view .LVU2063
 5570 0522 9F49     		ldr	r1, .L592
 5571 0524 D4F80C22 		ldr	r2, [r4, #524]
  21:/Users/joostbooy/Desktop/Code/stm32/lib/utils/hash.h **** 			hash_ *= prime_;
 5572              		.loc 4 21 10 view .LVU2064
 5573 0528 7B40     		eors	r3, r3, r7
 5574              		.loc 4 22 10 view .LVU2065
 5575 052a 01FB03F3 		mul	r3, r1, r3
 5576 052e C4F81432 		str	r3, [r4, #532]
  20:/Users/joostbooy/Desktop/Code/stm32/lib/utils/hash.h **** 			hash_ ^= *data_++;
 5577              		.loc 4 20 3 is_stmt 1 view .LVU2066
  20:/Users/joostbooy/Desktop/Code/stm32/lib/utils/hash.h **** 			hash_ ^= *data_++;
 5578              		.loc 4 20 14 view .LVU2067
 5579              	.LVL454:
  21:/Users/joostbooy/Desktop/Code/stm32/lib/utils/hash.h **** 			hash_ *= prime_;
 5580              		.loc 4 21 4 view .LVU2068
 5581              		.loc 4 22 4 view .LVU2069
  21:/Users/joostbooy/Desktop/Code/stm32/lib/utils/hash.h **** 			hash_ *= prime_;
 5582              		.loc 4 21 10 is_stmt 0 view .LVU2070
 5583 0532 E87D     		ldrb	r0, [r5, #23]	@ zero_extendqisi2
 5584 0534 4340     		eors	r3, r3, r0
 5585              		.loc 4 22 10 view .LVU2071
 5586 0536 01FB03F1 		mul	r1, r1, r3
 5587 053a C4F81412 		str	r1, [r4, #532]
ARM GAS  /var/folders/84/_x1cyy_j36g486tldtwl37280000gn/T//cctc5fkA.s 			page 141


  20:/Users/joostbooy/Desktop/Code/stm32/lib/utils/hash.h **** 			hash_ ^= *data_++;
 5588              		.loc 4 20 3 is_stmt 1 view .LVU2072
  20:/Users/joostbooy/Desktop/Code/stm32/lib/utils/hash.h **** 			hash_ ^= *data_++;
 5589              		.loc 4 20 14 view .LVU2073
 5590              	.LVL455:
  20:/Users/joostbooy/Desktop/Code/stm32/lib/utils/hash.h **** 			hash_ ^= *data_++;
 5591              		.loc 4 20 14 is_stmt 0 view .LVU2074
 5592              	.LBE925:
 5593              	.LBE924:
 5594              	.LBE938:
 123:Src/Settings/midiClock.h **** 		fileReader.read(sync_port_);
 5595              		.loc 6 123 3 is_stmt 1 view .LVU2075
 5596              	.LBB939:
 5597              	.LBI939:
  51:Src/Disk/fileReader.h **** 		read_buffer(&data, sizeof(T));
 5598              		.loc 8 51 7 view .LVU2076
 5599              	.LBB940:
 5600              	.LBB941:
  85:Src/Disk/fileReader.h **** 			if (num_read < num_readable) {
 5601              		.loc 8 85 3 view .LVU2077
  85:Src/Disk/fileReader.h **** 			if (num_read < num_readable) {
 5602              		.loc 8 85 19 view .LVU2078
 5603              	.L411:
  86:Src/Disk/fileReader.h **** 				*data_++ = buffer[num_read++];
 5604              		.loc 8 86 4 view .LVU2079
  86:Src/Disk/fileReader.h **** 				*data_++ = buffer[num_read++];
 5605              		.loc 8 86 8 is_stmt 0 view .LVU2080
 5606 053e D4F80832 		ldr	r3, [r4, #520]
  86:Src/Disk/fileReader.h **** 				*data_++ = buffer[num_read++];
 5607              		.loc 8 86 4 view .LVU2081
 5608 0542 9342     		cmp	r3, r2
 5609 0544 80F05181 		bcs	.L418
  87:Src/Disk/fileReader.h **** 				--size;
 5610              		.loc 8 87 5 is_stmt 1 view .LVU2082
  87:Src/Disk/fileReader.h **** 				--size;
 5611              		.loc 8 87 31 is_stmt 0 view .LVU2083
 5612 0548 581C     		adds	r0, r3, #1
 5613 054a C4F80802 		str	r0, [r4, #520]
 5614              	.LVL456:
  87:Src/Disk/fileReader.h **** 				--size;
 5615              		.loc 8 87 33 view .LVU2084
 5616 054e E35C     		ldrb	r3, [r4, r3]	@ zero_extendqisi2
  87:Src/Disk/fileReader.h **** 				--size;
 5617              		.loc 8 87 14 view .LVU2085
 5618 0550 2B76     		strb	r3, [r5, #24]
  88:Src/Disk/fileReader.h **** 			} else {
 5619              		.loc 8 88 5 is_stmt 1 view .LVU2086
 5620              	.LVL457:
  85:Src/Disk/fileReader.h **** 			if (num_read < num_readable) {
 5621              		.loc 8 85 3 view .LVU2087
  85:Src/Disk/fileReader.h **** 			if (num_read < num_readable) {
 5622              		.loc 8 85 19 view .LVU2088
 5623 0552 D4F81422 		ldr	r2, [r4, #532]
 5624 0556 94F80402 		ldrb	r0, [r4, #516]	@ zero_extendqisi2
 5625              	.LVL458:
 5626              	.L419:
  85:Src/Disk/fileReader.h **** 			if (num_read < num_readable) {
ARM GAS  /var/folders/84/_x1cyy_j36g486tldtwl37280000gn/T//cctc5fkA.s 			page 142


 5627              		.loc 8 85 19 is_stmt 0 view .LVU2089
 5628              	.LBE941:
 5629              	.LBE940:
 5630              	.LBB955:
 5631              	.LBB956:
  20:/Users/joostbooy/Desktop/Code/stm32/lib/utils/hash.h **** 			hash_ ^= *data_++;
 5632              		.loc 4 20 3 is_stmt 1 view .LVU2090
  20:/Users/joostbooy/Desktop/Code/stm32/lib/utils/hash.h **** 			hash_ ^= *data_++;
 5633              		.loc 4 20 14 view .LVU2091
  21:/Users/joostbooy/Desktop/Code/stm32/lib/utils/hash.h **** 			hash_ *= prime_;
 5634              		.loc 4 21 4 view .LVU2092
 5635              		.loc 4 22 4 view .LVU2093
 5636              		.loc 4 22 10 is_stmt 0 view .LVU2094
 5637 055a 9149     		ldr	r1, .L592
 5638              	.LBE956:
 5639              	.LBE955:
 5640              	.LBE939:
 5641              	.LBB964:
 5642              	.LBB965:
 124:Src/Settings/midiClock.h **** 		update_inc(bpm_, bpm_fractional_);
 125:Src/Settings/midiClock.h **** 	}
 126:Src/Settings/midiClock.h **** 
 127:Src/Settings/midiClock.h **** private:
 128:Src/Settings/midiClock.h **** 	uint16_t bpm_ = 120;
 129:Src/Settings/midiClock.h **** 	uint16_t bpm_fractional_ = 0;
 130:Src/Settings/midiClock.h **** 	uint8_t sync_port_;
 131:Src/Settings/midiClock.h **** 
 132:Src/Settings/midiClock.h **** 	volatile uint16_t ext_bpm_;
 133:Src/Settings/midiClock.h **** 	volatile uint32_t tempo_inc, tempo_phase, ticks, isr_ticks, isr_average;
 134:Src/Settings/midiClock.h **** 	volatile uint8_t num_readings = 0;
 135:Src/Settings/midiClock.h **** 	static const uint32_t kUpdatePeriod = 45000000UL / CLOCK_ISR_FREQ;
 136:Src/Settings/midiClock.h **** 
 137:Src/Settings/midiClock.h **** 	inline void update_inc(uint16_t bpm, uint8_t fractional) {
 138:Src/Settings/midiClock.h **** 		tempo_inc = lut_bpm_inc[bpm] + lut_bpm_fractional_inc[fractional];
 5643              		.loc 6 138 30 view .LVU2095
 5644 055c 914F     		ldr	r7, .L592+4
 5645              		.loc 6 138 27 view .LVU2096
 5646 055e B5F814E0 		ldrh	lr, [r5, #20]
 5647              		.loc 6 138 57 view .LVU2097
 5648 0562 95F81690 		ldrb	r9, [r5, #22]	@ zero_extendqisi2
 5649              	.LBE965:
 5650              	.LBE964:
 5651              	.LBB968:
 5652              	.LBB959:
 5653              	.LBB957:
  21:/Users/joostbooy/Desktop/Code/stm32/lib/utils/hash.h **** 			hash_ *= prime_;
 5654              		.loc 4 21 10 view .LVU2098
 5655 0566 5340     		eors	r3, r3, r2
 5656              		.loc 4 22 10 view .LVU2099
 5657 0568 01FB03F3 		mul	r3, r1, r3
 5658              	.LBE957:
 5659              	.LBE959:
 5660              	.LBE968:
 5661              	.LBB969:
 5662              	.LBB966:
 5663              		.loc 6 138 67 view .LVU2100
 5664 056c 8E4A     		ldr	r2, .L592+8
ARM GAS  /var/folders/84/_x1cyy_j36g486tldtwl37280000gn/T//cctc5fkA.s 			page 143


 5665              	.LBE966:
 5666              	.LBE969:
 5667              	.LBB970:
 5668              	.LBB960:
 5669              	.LBB958:
 5670              		.loc 4 22 10 view .LVU2101
 5671 056e C4F81432 		str	r3, [r4, #532]
  20:/Users/joostbooy/Desktop/Code/stm32/lib/utils/hash.h **** 			hash_ ^= *data_++;
 5672              		.loc 4 20 3 is_stmt 1 view .LVU2102
  20:/Users/joostbooy/Desktop/Code/stm32/lib/utils/hash.h **** 			hash_ ^= *data_++;
 5673              		.loc 4 20 14 view .LVU2103
 5674              	.LVL459:
  20:/Users/joostbooy/Desktop/Code/stm32/lib/utils/hash.h **** 			hash_ ^= *data_++;
 5675              		.loc 4 20 14 is_stmt 0 view .LVU2104
 5676              	.LBE958:
 5677              	.LBE960:
 5678              	.LBE970:
 124:Src/Settings/midiClock.h **** 		update_inc(bpm_, bpm_fractional_);
 5679              		.loc 6 124 3 is_stmt 1 view .LVU2105
 5680              	.LBB971:
 5681              	.LBI964:
 137:Src/Settings/midiClock.h **** 		tempo_inc = lut_bpm_inc[bpm] + lut_bpm_fractional_inc[fractional];
 5682              		.loc 6 137 14 view .LVU2106
 5683              	.LBB967:
 5684              		.loc 6 138 3 view .LVU2107
 5685              		.loc 6 138 32 is_stmt 0 view .LVU2108
 5686 0572 57F82E30 		ldr	r3, [r7, lr, lsl #2]
 5687 0576 52F82910 		ldr	r1, [r2, r9, lsl #2]
 5688 057a 0B44     		add	r3, r3, r1
 5689              		.loc 6 138 13 view .LVU2109
 5690 057c EB61     		str	r3, [r5, #28]
 5691              	.LVL460:
 5692              		.loc 6 138 13 view .LVU2110
 5693              	.LBE967:
 5694              	.LBE971:
 5695              	.LBE981:
 5696              	.LBE984:
 5697              	.LBB985:
  68:Src/Settings/song.cpp **** 
  69:Src/Settings/song.cpp **** 	// track lists
  70:Src/Settings/song.cpp **** 	for (int i = 0; i < Track::NUM_TYPES; ++i) {
 5698              		.loc 1 70 20 is_stmt 1 view .LVU2111
 5699 057e 05F13407 		add	r7, r5, #52
 5700              	.LVL461:
 5701              	.L430:
  71:Src/Settings/song.cpp **** 		fileReader.read(track_type_list_[i]);
 5702              		.loc 1 71 3 discriminator 2 view .LVU2112
 5703              	.LBB986:
 5704              	.LBI986:
  51:Src/Disk/fileReader.h **** 		read_buffer(&data, sizeof(T));
 5705              		.loc 8 51 7 discriminator 2 view .LVU2113
 5706              	.LBB987:
 5707              	.LBI987:
  82:Src/Disk/fileReader.h **** 		uint8_t *data_ = reinterpret_cast<uint8_t *>(data);
 5708              		.loc 8 82 7 discriminator 2 view .LVU2114
 5709              	.LBB988:
  85:Src/Disk/fileReader.h **** 			if (num_read < num_readable) {
ARM GAS  /var/folders/84/_x1cyy_j36g486tldtwl37280000gn/T//cctc5fkA.s 			page 144


 5710              		.loc 8 85 3 discriminator 2 view .LVU2115
  85:Src/Disk/fileReader.h **** 			if (num_read < num_readable) {
 5711              		.loc 8 85 19 discriminator 2 view .LVU2116
 5712 0582 0028     		cmp	r0, #0
 5713 0584 3DD0     		beq	.L423
  86:Src/Disk/fileReader.h **** 				*data_++ = buffer[num_read++];
 5714              		.loc 8 86 4 is_stmt 0 view .LVU2117
 5715 0586 D4E9823C 		ldrd	r3, ip, [r4, #520]
 5716              	.LBE988:
 5717              	.LBE987:
 5718              	.LBE986:
 5719              		.loc 1 71 37 view .LVU2118
 5720 058a BA46     		mov	r10, r7
 5721              	.LBB1007:
 5722              	.LBB1001:
 5723              	.LBB999:
  86:Src/Disk/fileReader.h **** 				*data_++ = buffer[num_read++];
 5724              		.loc 8 86 4 view .LVU2119
 5725 058c 6345     		cmp	r3, ip
  85:Src/Disk/fileReader.h **** 			if (num_read < num_readable) {
 5726              		.loc 8 85 19 view .LVU2120
 5727 058e 4FF01108 		mov	r8, #17
  86:Src/Disk/fileReader.h **** 				*data_++ = buffer[num_read++];
 5728              		.loc 8 86 4 is_stmt 1 view .LVU2121
  87:Src/Disk/fileReader.h **** 				--size;
 5729              		.loc 8 87 5 view .LVU2122
  87:Src/Disk/fileReader.h **** 				--size;
 5730              		.loc 8 87 11 is_stmt 0 view .LVU2123
 5731 0592 D146     		mov	r9, r10
 5732              	.LVL462:
  87:Src/Disk/fileReader.h **** 				--size;
 5733              		.loc 8 87 31 view .LVU2124
 5734 0594 03F10100 		add	r0, r3, #1
  86:Src/Disk/fileReader.h **** 				*data_++ = buffer[num_read++];
 5735              		.loc 8 86 4 view .LVU2125
 5736 0598 14D2     		bcs	.L424
 5737              	.LVL463:
 5738              	.L583:
  87:Src/Disk/fileReader.h **** 				--size;
 5739              		.loc 8 87 31 view .LVU2126
 5740 059a C4F80802 		str	r0, [r4, #520]
  87:Src/Disk/fileReader.h **** 				--size;
 5741              		.loc 8 87 33 view .LVU2127
 5742 059e E05C     		ldrb	r0, [r4, r3]	@ zero_extendqisi2
  87:Src/Disk/fileReader.h **** 				--size;
 5743              		.loc 8 87 14 view .LVU2128
 5744 05a0 09F8010B 		strb	r0, [r9], #1
  88:Src/Disk/fileReader.h **** 			} else {
 5745              		.loc 8 88 5 is_stmt 1 view .LVU2129
 5746              	.LVL464:
  88:Src/Disk/fileReader.h **** 			} else {
 5747              		.loc 8 88 5 is_stmt 0 view .LVU2130
 5748 05a4 94F80402 		ldrb	r0, [r4, #516]	@ zero_extendqisi2
 5749 05a8 08F1FF38 		add	r8, r8, #-1
 5750              	.LVL465:
  85:Src/Disk/fileReader.h **** 			if (num_read < num_readable) {
 5751              		.loc 8 85 3 is_stmt 1 view .LVU2131
ARM GAS  /var/folders/84/_x1cyy_j36g486tldtwl37280000gn/T//cctc5fkA.s 			page 145


  85:Src/Disk/fileReader.h **** 			if (num_read < num_readable) {
 5752              		.loc 8 85 19 view .LVU2132
 5753 05ac 48B3     		cbz	r0, .L423
 5754 05ae B8F1000F 		cmp	r8, #0
 5755 05b2 26D0     		beq	.L423
  90:Src/Disk/fileReader.h **** 			}
 5756              		.loc 8 90 14 is_stmt 0 view .LVU2133
 5757 05b4 CA46     		mov	r10, r9
 5758              	.LVL466:
 5759              	.L584:
  86:Src/Disk/fileReader.h **** 				*data_++ = buffer[num_read++];
 5760              		.loc 8 86 4 is_stmt 1 view .LVU2134
  87:Src/Disk/fileReader.h **** 				--size;
 5761              		.loc 8 87 5 view .LVU2135
  86:Src/Disk/fileReader.h **** 				*data_++ = buffer[num_read++];
 5762              		.loc 8 86 4 is_stmt 0 view .LVU2136
 5763 05b6 D4E9823C 		ldrd	r3, ip, [r4, #520]
 5764 05ba 6345     		cmp	r3, ip
  87:Src/Disk/fileReader.h **** 				--size;
 5765              		.loc 8 87 11 view .LVU2137
 5766 05bc D146     		mov	r9, r10
 5767              	.LVL467:
  87:Src/Disk/fileReader.h **** 				--size;
 5768              		.loc 8 87 31 view .LVU2138
 5769 05be 03F10100 		add	r0, r3, #1
  86:Src/Disk/fileReader.h **** 				*data_++ = buffer[num_read++];
 5770              		.loc 8 86 4 view .LVU2139
 5771 05c2 EAD3     		bcc	.L583
 5772              	.LVL468:
 5773              	.L424:
  90:Src/Disk/fileReader.h **** 			}
 5774              		.loc 8 90 5 is_stmt 1 view .LVU2140
 5775              	.LBB989:
 5776              	.LBI989:
  95:Src/Disk/fileReader.h **** 		num_read = 0;
 5777              		.loc 8 95 7 view .LVU2141
 5778              	.LBB990:
  96:Src/Disk/fileReader.h **** 		if (file_->read(buffer, kBufferSize, &num_readable)) {
 5779              		.loc 8 96 3 view .LVU2142
  97:Src/Disk/fileReader.h **** 			return (num_readable >= requested_size) || (num_readable >= kBufferSize);
 5780              		.loc 8 97 18 is_stmt 0 view .LVU2143
 5781 05c4 D4F80022 		ldr	r2, [r4, #512]
  96:Src/Disk/fileReader.h **** 		if (file_->read(buffer, kBufferSize, &num_readable)) {
 5782              		.loc 8 96 12 view .LVU2144
 5783 05c8 0021     		movs	r1, #0
 5784              	.LBB991:
 5785              	.LBB992:
  58:Src/Disk/file.h **** 		if (num_read) {
 5786              		.loc 3 58 23 view .LVU2145
 5787 05ca 1068     		ldr	r0, [r2]
 5788              	.LBE992:
 5789              	.LBE991:
  96:Src/Disk/fileReader.h **** 		if (file_->read(buffer, kBufferSize, &num_readable)) {
 5790              		.loc 8 96 12 view .LVU2146
 5791 05cc C4F80812 		str	r1, [r4, #520]
  97:Src/Disk/fileReader.h **** 			return (num_readable >= requested_size) || (num_readable >= kBufferSize);
 5792              		.loc 8 97 3 is_stmt 1 view .LVU2147
ARM GAS  /var/folders/84/_x1cyy_j36g486tldtwl37280000gn/T//cctc5fkA.s 			page 146


 5793              	.LVL469:
 5794              	.LBB995:
 5795              	.LBI991:
  56:Src/Disk/file.h **** 		UINT br;
 5796              		.loc 3 56 7 view .LVU2148
 5797              	.LBB993:
  57:Src/Disk/file.h **** 		FRESULT res = f_read(fil, data, size, &br);
 5798              		.loc 3 57 3 view .LVU2149
  58:Src/Disk/file.h **** 		if (num_read) {
 5799              		.loc 3 58 3 view .LVU2150
  58:Src/Disk/file.h **** 		if (num_read) {
 5800              		.loc 3 58 23 is_stmt 0 view .LVU2151
 5801 05d0 01AB     		add	r3, sp, #4
 5802 05d2 4FF40072 		mov	r2, #512
 5803              	.LVL470:
  58:Src/Disk/file.h **** 		if (num_read) {
 5804              		.loc 3 58 23 view .LVU2152
 5805 05d6 2146     		mov	r1, r4
 5806 05d8 FFF7FEFF 		bl	f_read
 5807              	.LVL471:
  60:Src/Disk/file.h **** 		}
 5808              		.loc 3 60 14 view .LVU2153
 5809 05dc 019B     		ldr	r3, [sp, #4]
 5810 05de C4F80C32 		str	r3, [r4, #524]
 5811              	.LVL472:
  59:Src/Disk/file.h **** 			*num_read = br;
 5812              		.loc 3 59 3 is_stmt 1 view .LVU2154
  60:Src/Disk/file.h **** 		}
 5813              		.loc 3 60 4 view .LVU2155
 5814              		.loc 3 62 3 view .LVU2156
 5815              		.loc 3 62 19 is_stmt 0 view .LVU2157
 5816 05e2 002B     		cmp	r3, #0
 5817 05e4 00F0FA80 		beq	.L426
 5818              	.LVL473:
 5819              		.loc 3 62 19 view .LVU2158
 5820              	.LBE993:
 5821              	.LBE995:
 5822              		.loc 8 98 4 is_stmt 1 view .LVU2159
 5823              	.LBB996:
 5824              	.LBB994:
 5825              		.loc 3 62 19 is_stmt 0 view .LVU2160
 5826 05e8 0028     		cmp	r0, #0
 5827 05ea 40F0F780 		bne	.L426
 5828              	.LVL474:
 5829              		.loc 3 62 19 view .LVU2161
 5830              	.LBE994:
 5831              	.LBE996:
 5832              		.loc 8 98 44 view .LVU2162
 5833 05ee 4345     		cmp	r3, r8
 5834              	.LBE990:
 5835              	.LBE989:
  90:Src/Disk/fileReader.h **** 			}
 5836              		.loc 8 90 14 view .LVU2163
 5837 05f0 4FF00102 		mov	r2, #1
 5838              	.LBB998:
 5839              	.LBB997:
 5840              		.loc 8 98 44 view .LVU2164
ARM GAS  /var/folders/84/_x1cyy_j36g486tldtwl37280000gn/T//cctc5fkA.s 			page 147


 5841 05f4 03D3     		bcc	.L428
 5842              	.LBE997:
 5843              	.LBE998:
  90:Src/Disk/fileReader.h **** 			}
 5844              		.loc 8 90 14 view .LVU2165
 5845 05f6 84F80422 		strb	r2, [r4, #516]
 5846              	.LVL475:
  85:Src/Disk/fileReader.h **** 			if (num_read < num_readable) {
 5847              		.loc 8 85 3 is_stmt 1 view .LVU2166
  85:Src/Disk/fileReader.h **** 			if (num_read < num_readable) {
 5848              		.loc 8 85 19 view .LVU2167
  90:Src/Disk/fileReader.h **** 			}
 5849              		.loc 8 90 14 is_stmt 0 view .LVU2168
 5850 05fa CA46     		mov	r10, r9
 5851 05fc DBE7     		b	.L584
 5852              	.LVL476:
 5853              	.L428:
  90:Src/Disk/fileReader.h **** 			}
 5854              		.loc 8 90 14 view .LVU2169
 5855 05fe 84F80402 		strb	r0, [r4, #516]
 5856              	.LVL477:
  85:Src/Disk/fileReader.h **** 			if (num_read < num_readable) {
 5857              		.loc 8 85 3 is_stmt 1 view .LVU2170
  85:Src/Disk/fileReader.h **** 			if (num_read < num_readable) {
 5858              		.loc 8 85 19 view .LVU2171
 5859              	.L423:
  85:Src/Disk/fileReader.h **** 			if (num_read < num_readable) {
 5860              		.loc 8 85 19 is_stmt 0 view .LVU2172
 5861              	.LBE999:
 5862              	.LBE1001:
 5863              	.LBB1002:
 5864              	.LBB1003:
  21:/Users/joostbooy/Desktop/Code/stm32/lib/utils/hash.h **** 			hash_ *= prime_;
 5865              		.loc 4 21 4 is_stmt 1 view .LVU2173
 5866              		.loc 4 22 4 view .LVU2174
  21:/Users/joostbooy/Desktop/Code/stm32/lib/utils/hash.h **** 			hash_ *= prime_;
 5867              		.loc 4 21 10 is_stmt 0 view .LVU2175
 5868 0602 3978     		ldrb	r1, [r7]	@ zero_extendqisi2
 5869 0604 D4F81422 		ldr	r2, [r4, #532]
 5870              		.loc 4 22 10 view .LVU2176
 5871 0608 654B     		ldr	r3, .L592
  21:/Users/joostbooy/Desktop/Code/stm32/lib/utils/hash.h **** 			hash_ *= prime_;
 5872              		.loc 4 21 10 view .LVU2177
 5873 060a 5140     		eors	r1, r1, r2
 5874              		.loc 4 22 10 view .LVU2178
 5875 060c 03FB01F2 		mul	r2, r3, r1
 5876 0610 C4F81422 		str	r2, [r4, #532]
  20:/Users/joostbooy/Desktop/Code/stm32/lib/utils/hash.h **** 			hash_ ^= *data_++;
 5877              		.loc 4 20 3 is_stmt 1 view .LVU2179
  20:/Users/joostbooy/Desktop/Code/stm32/lib/utils/hash.h **** 			hash_ ^= *data_++;
 5878              		.loc 4 20 14 view .LVU2180
 5879              	.LVL478:
  21:/Users/joostbooy/Desktop/Code/stm32/lib/utils/hash.h **** 			hash_ *= prime_;
 5880              		.loc 4 21 4 view .LVU2181
 5881              		.loc 4 22 4 view .LVU2182
  21:/Users/joostbooy/Desktop/Code/stm32/lib/utils/hash.h **** 			hash_ *= prime_;
 5882              		.loc 4 21 10 is_stmt 0 view .LVU2183
ARM GAS  /var/folders/84/_x1cyy_j36g486tldtwl37280000gn/T//cctc5fkA.s 			page 148


 5883 0614 7978     		ldrb	r1, [r7, #1]	@ zero_extendqisi2
 5884 0616 5140     		eors	r1, r1, r2
 5885              		.loc 4 22 10 view .LVU2184
 5886 0618 03FB01F1 		mul	r1, r3, r1
 5887 061c C4F81412 		str	r1, [r4, #532]
  20:/Users/joostbooy/Desktop/Code/stm32/lib/utils/hash.h **** 			hash_ ^= *data_++;
 5888              		.loc 4 20 3 is_stmt 1 view .LVU2185
  20:/Users/joostbooy/Desktop/Code/stm32/lib/utils/hash.h **** 			hash_ ^= *data_++;
 5889              		.loc 4 20 14 view .LVU2186
 5890              	.LVL479:
  21:/Users/joostbooy/Desktop/Code/stm32/lib/utils/hash.h **** 			hash_ *= prime_;
 5891              		.loc 4 21 4 view .LVU2187
 5892              		.loc 4 22 4 view .LVU2188
  21:/Users/joostbooy/Desktop/Code/stm32/lib/utils/hash.h **** 			hash_ *= prime_;
 5893              		.loc 4 21 10 is_stmt 0 view .LVU2189
 5894 0620 BA78     		ldrb	r2, [r7, #2]	@ zero_extendqisi2
 5895 0622 4A40     		eors	r2, r2, r1
 5896              		.loc 4 22 10 view .LVU2190
 5897 0624 03FB02F1 		mul	r1, r3, r2
 5898 0628 C4F81412 		str	r1, [r4, #532]
  20:/Users/joostbooy/Desktop/Code/stm32/lib/utils/hash.h **** 			hash_ ^= *data_++;
 5899              		.loc 4 20 3 is_stmt 1 view .LVU2191
  20:/Users/joostbooy/Desktop/Code/stm32/lib/utils/hash.h **** 			hash_ ^= *data_++;
 5900              		.loc 4 20 14 view .LVU2192
 5901              	.LVL480:
  21:/Users/joostbooy/Desktop/Code/stm32/lib/utils/hash.h **** 			hash_ *= prime_;
 5902              		.loc 4 21 4 view .LVU2193
 5903              		.loc 4 22 4 view .LVU2194
  21:/Users/joostbooy/Desktop/Code/stm32/lib/utils/hash.h **** 			hash_ *= prime_;
 5904              		.loc 4 21 10 is_stmt 0 view .LVU2195
 5905 062c FA78     		ldrb	r2, [r7, #3]	@ zero_extendqisi2
 5906 062e 4A40     		eors	r2, r2, r1
 5907              		.loc 4 22 10 view .LVU2196
 5908 0630 03FB02F2 		mul	r2, r3, r2
 5909 0634 C4F81422 		str	r2, [r4, #532]
  20:/Users/joostbooy/Desktop/Code/stm32/lib/utils/hash.h **** 			hash_ ^= *data_++;
 5910              		.loc 4 20 3 is_stmt 1 view .LVU2197
  20:/Users/joostbooy/Desktop/Code/stm32/lib/utils/hash.h **** 			hash_ ^= *data_++;
 5911              		.loc 4 20 14 view .LVU2198
 5912              	.LVL481:
  21:/Users/joostbooy/Desktop/Code/stm32/lib/utils/hash.h **** 			hash_ *= prime_;
 5913              		.loc 4 21 4 view .LVU2199
 5914              		.loc 4 22 4 view .LVU2200
  21:/Users/joostbooy/Desktop/Code/stm32/lib/utils/hash.h **** 			hash_ *= prime_;
 5915              		.loc 4 21 10 is_stmt 0 view .LVU2201
 5916 0638 3979     		ldrb	r1, [r7, #4]	@ zero_extendqisi2
 5917 063a 5140     		eors	r1, r1, r2
 5918              		.loc 4 22 10 view .LVU2202
 5919 063c 03FB01F2 		mul	r2, r3, r1
 5920 0640 C4F81422 		str	r2, [r4, #532]
  20:/Users/joostbooy/Desktop/Code/stm32/lib/utils/hash.h **** 			hash_ ^= *data_++;
 5921              		.loc 4 20 3 is_stmt 1 view .LVU2203
  20:/Users/joostbooy/Desktop/Code/stm32/lib/utils/hash.h **** 			hash_ ^= *data_++;
 5922              		.loc 4 20 14 view .LVU2204
 5923              	.LVL482:
  21:/Users/joostbooy/Desktop/Code/stm32/lib/utils/hash.h **** 			hash_ *= prime_;
 5924              		.loc 4 21 4 view .LVU2205
ARM GAS  /var/folders/84/_x1cyy_j36g486tldtwl37280000gn/T//cctc5fkA.s 			page 149


 5925              		.loc 4 22 4 view .LVU2206
  21:/Users/joostbooy/Desktop/Code/stm32/lib/utils/hash.h **** 			hash_ *= prime_;
 5926              		.loc 4 21 10 is_stmt 0 view .LVU2207
 5927 0644 7979     		ldrb	r1, [r7, #5]	@ zero_extendqisi2
 5928 0646 5140     		eors	r1, r1, r2
 5929              		.loc 4 22 10 view .LVU2208
 5930 0648 03FB01F1 		mul	r1, r3, r1
 5931 064c C4F81412 		str	r1, [r4, #532]
  20:/Users/joostbooy/Desktop/Code/stm32/lib/utils/hash.h **** 			hash_ ^= *data_++;
 5932              		.loc 4 20 3 is_stmt 1 view .LVU2209
  20:/Users/joostbooy/Desktop/Code/stm32/lib/utils/hash.h **** 			hash_ ^= *data_++;
 5933              		.loc 4 20 14 view .LVU2210
 5934              	.LVL483:
  21:/Users/joostbooy/Desktop/Code/stm32/lib/utils/hash.h **** 			hash_ *= prime_;
 5935              		.loc 4 21 4 view .LVU2211
 5936              		.loc 4 22 4 view .LVU2212
  21:/Users/joostbooy/Desktop/Code/stm32/lib/utils/hash.h **** 			hash_ *= prime_;
 5937              		.loc 4 21 10 is_stmt 0 view .LVU2213
 5938 0650 BA79     		ldrb	r2, [r7, #6]	@ zero_extendqisi2
 5939 0652 4A40     		eors	r2, r2, r1
 5940              		.loc 4 22 10 view .LVU2214
 5941 0654 03FB02F1 		mul	r1, r3, r2
 5942 0658 C4F81412 		str	r1, [r4, #532]
  20:/Users/joostbooy/Desktop/Code/stm32/lib/utils/hash.h **** 			hash_ ^= *data_++;
 5943              		.loc 4 20 3 is_stmt 1 view .LVU2215
  20:/Users/joostbooy/Desktop/Code/stm32/lib/utils/hash.h **** 			hash_ ^= *data_++;
 5944              		.loc 4 20 14 view .LVU2216
 5945              	.LVL484:
  21:/Users/joostbooy/Desktop/Code/stm32/lib/utils/hash.h **** 			hash_ *= prime_;
 5946              		.loc 4 21 4 view .LVU2217
 5947              		.loc 4 22 4 view .LVU2218
  21:/Users/joostbooy/Desktop/Code/stm32/lib/utils/hash.h **** 			hash_ *= prime_;
 5948              		.loc 4 21 10 is_stmt 0 view .LVU2219
 5949 065c FA79     		ldrb	r2, [r7, #7]	@ zero_extendqisi2
 5950 065e 4A40     		eors	r2, r2, r1
 5951              		.loc 4 22 10 view .LVU2220
 5952 0660 03FB02F2 		mul	r2, r3, r2
 5953 0664 C4F81422 		str	r2, [r4, #532]
  20:/Users/joostbooy/Desktop/Code/stm32/lib/utils/hash.h **** 			hash_ ^= *data_++;
 5954              		.loc 4 20 3 is_stmt 1 view .LVU2221
  20:/Users/joostbooy/Desktop/Code/stm32/lib/utils/hash.h **** 			hash_ ^= *data_++;
 5955              		.loc 4 20 14 view .LVU2222
 5956              	.LVL485:
  21:/Users/joostbooy/Desktop/Code/stm32/lib/utils/hash.h **** 			hash_ *= prime_;
 5957              		.loc 4 21 4 view .LVU2223
 5958              		.loc 4 22 4 view .LVU2224
  21:/Users/joostbooy/Desktop/Code/stm32/lib/utils/hash.h **** 			hash_ *= prime_;
 5959              		.loc 4 21 10 is_stmt 0 view .LVU2225
 5960 0668 397A     		ldrb	r1, [r7, #8]	@ zero_extendqisi2
 5961 066a 5140     		eors	r1, r1, r2
 5962              		.loc 4 22 10 view .LVU2226
 5963 066c 03FB01F2 		mul	r2, r3, r1
 5964 0670 C4F81422 		str	r2, [r4, #532]
  20:/Users/joostbooy/Desktop/Code/stm32/lib/utils/hash.h **** 			hash_ ^= *data_++;
 5965              		.loc 4 20 3 is_stmt 1 view .LVU2227
  20:/Users/joostbooy/Desktop/Code/stm32/lib/utils/hash.h **** 			hash_ ^= *data_++;
 5966              		.loc 4 20 14 view .LVU2228
ARM GAS  /var/folders/84/_x1cyy_j36g486tldtwl37280000gn/T//cctc5fkA.s 			page 150


 5967              	.LVL486:
  21:/Users/joostbooy/Desktop/Code/stm32/lib/utils/hash.h **** 			hash_ *= prime_;
 5968              		.loc 4 21 4 view .LVU2229
 5969              		.loc 4 22 4 view .LVU2230
  21:/Users/joostbooy/Desktop/Code/stm32/lib/utils/hash.h **** 			hash_ *= prime_;
 5970              		.loc 4 21 10 is_stmt 0 view .LVU2231
 5971 0674 797A     		ldrb	r1, [r7, #9]	@ zero_extendqisi2
 5972 0676 5140     		eors	r1, r1, r2
 5973              		.loc 4 22 10 view .LVU2232
 5974 0678 03FB01F1 		mul	r1, r3, r1
 5975 067c C4F81412 		str	r1, [r4, #532]
  20:/Users/joostbooy/Desktop/Code/stm32/lib/utils/hash.h **** 			hash_ ^= *data_++;
 5976              		.loc 4 20 3 is_stmt 1 view .LVU2233
  20:/Users/joostbooy/Desktop/Code/stm32/lib/utils/hash.h **** 			hash_ ^= *data_++;
 5977              		.loc 4 20 14 view .LVU2234
 5978              	.LVL487:
  21:/Users/joostbooy/Desktop/Code/stm32/lib/utils/hash.h **** 			hash_ *= prime_;
 5979              		.loc 4 21 4 view .LVU2235
 5980              		.loc 4 22 4 view .LVU2236
  21:/Users/joostbooy/Desktop/Code/stm32/lib/utils/hash.h **** 			hash_ *= prime_;
 5981              		.loc 4 21 10 is_stmt 0 view .LVU2237
 5982 0680 BA7A     		ldrb	r2, [r7, #10]	@ zero_extendqisi2
 5983 0682 4A40     		eors	r2, r2, r1
 5984              		.loc 4 22 10 view .LVU2238
 5985 0684 03FB02F1 		mul	r1, r3, r2
 5986 0688 C4F81412 		str	r1, [r4, #532]
  20:/Users/joostbooy/Desktop/Code/stm32/lib/utils/hash.h **** 			hash_ ^= *data_++;
 5987              		.loc 4 20 3 is_stmt 1 view .LVU2239
  20:/Users/joostbooy/Desktop/Code/stm32/lib/utils/hash.h **** 			hash_ ^= *data_++;
 5988              		.loc 4 20 14 view .LVU2240
 5989              	.LVL488:
  21:/Users/joostbooy/Desktop/Code/stm32/lib/utils/hash.h **** 			hash_ *= prime_;
 5990              		.loc 4 21 4 view .LVU2241
 5991              		.loc 4 22 4 view .LVU2242
  21:/Users/joostbooy/Desktop/Code/stm32/lib/utils/hash.h **** 			hash_ *= prime_;
 5992              		.loc 4 21 10 is_stmt 0 view .LVU2243
 5993 068c FA7A     		ldrb	r2, [r7, #11]	@ zero_extendqisi2
 5994 068e 4A40     		eors	r2, r2, r1
 5995              		.loc 4 22 10 view .LVU2244
 5996 0690 03FB02F2 		mul	r2, r3, r2
 5997 0694 C4F81422 		str	r2, [r4, #532]
  20:/Users/joostbooy/Desktop/Code/stm32/lib/utils/hash.h **** 			hash_ ^= *data_++;
 5998              		.loc 4 20 3 is_stmt 1 view .LVU2245
  20:/Users/joostbooy/Desktop/Code/stm32/lib/utils/hash.h **** 			hash_ ^= *data_++;
 5999              		.loc 4 20 14 view .LVU2246
 6000              	.LVL489:
  21:/Users/joostbooy/Desktop/Code/stm32/lib/utils/hash.h **** 			hash_ *= prime_;
 6001              		.loc 4 21 4 view .LVU2247
 6002              		.loc 4 22 4 view .LVU2248
  21:/Users/joostbooy/Desktop/Code/stm32/lib/utils/hash.h **** 			hash_ *= prime_;
 6003              		.loc 4 21 10 is_stmt 0 view .LVU2249
 6004 0698 397B     		ldrb	r1, [r7, #12]	@ zero_extendqisi2
 6005 069a 5140     		eors	r1, r1, r2
 6006              		.loc 4 22 10 view .LVU2250
 6007 069c 03FB01F2 		mul	r2, r3, r1
 6008 06a0 C4F81422 		str	r2, [r4, #532]
  20:/Users/joostbooy/Desktop/Code/stm32/lib/utils/hash.h **** 			hash_ ^= *data_++;
ARM GAS  /var/folders/84/_x1cyy_j36g486tldtwl37280000gn/T//cctc5fkA.s 			page 151


 6009              		.loc 4 20 3 is_stmt 1 view .LVU2251
  20:/Users/joostbooy/Desktop/Code/stm32/lib/utils/hash.h **** 			hash_ ^= *data_++;
 6010              		.loc 4 20 14 view .LVU2252
 6011              	.LVL490:
  21:/Users/joostbooy/Desktop/Code/stm32/lib/utils/hash.h **** 			hash_ *= prime_;
 6012              		.loc 4 21 4 view .LVU2253
 6013              		.loc 4 22 4 view .LVU2254
  21:/Users/joostbooy/Desktop/Code/stm32/lib/utils/hash.h **** 			hash_ *= prime_;
 6014              		.loc 4 21 10 is_stmt 0 view .LVU2255
 6015 06a4 797B     		ldrb	r1, [r7, #13]	@ zero_extendqisi2
 6016 06a6 5140     		eors	r1, r1, r2
 6017              		.loc 4 22 10 view .LVU2256
 6018 06a8 03FB01F1 		mul	r1, r3, r1
 6019 06ac C4F81412 		str	r1, [r4, #532]
  20:/Users/joostbooy/Desktop/Code/stm32/lib/utils/hash.h **** 			hash_ ^= *data_++;
 6020              		.loc 4 20 3 is_stmt 1 view .LVU2257
  20:/Users/joostbooy/Desktop/Code/stm32/lib/utils/hash.h **** 			hash_ ^= *data_++;
 6021              		.loc 4 20 14 view .LVU2258
 6022              	.LVL491:
  21:/Users/joostbooy/Desktop/Code/stm32/lib/utils/hash.h **** 			hash_ *= prime_;
 6023              		.loc 4 21 4 view .LVU2259
 6024              		.loc 4 22 4 view .LVU2260
  21:/Users/joostbooy/Desktop/Code/stm32/lib/utils/hash.h **** 			hash_ *= prime_;
 6025              		.loc 4 21 10 is_stmt 0 view .LVU2261
 6026 06b0 BA7B     		ldrb	r2, [r7, #14]	@ zero_extendqisi2
 6027 06b2 4A40     		eors	r2, r2, r1
 6028              		.loc 4 22 10 view .LVU2262
 6029 06b4 03FB02F1 		mul	r1, r3, r2
 6030 06b8 C4F81412 		str	r1, [r4, #532]
  20:/Users/joostbooy/Desktop/Code/stm32/lib/utils/hash.h **** 			hash_ ^= *data_++;
 6031              		.loc 4 20 3 is_stmt 1 view .LVU2263
  20:/Users/joostbooy/Desktop/Code/stm32/lib/utils/hash.h **** 			hash_ ^= *data_++;
 6032              		.loc 4 20 14 view .LVU2264
 6033              	.LVL492:
  21:/Users/joostbooy/Desktop/Code/stm32/lib/utils/hash.h **** 			hash_ *= prime_;
 6034              		.loc 4 21 4 view .LVU2265
 6035              		.loc 4 22 4 view .LVU2266
  21:/Users/joostbooy/Desktop/Code/stm32/lib/utils/hash.h **** 			hash_ *= prime_;
 6036              		.loc 4 21 10 is_stmt 0 view .LVU2267
 6037 06bc FA7B     		ldrb	r2, [r7, #15]	@ zero_extendqisi2
 6038 06be 4A40     		eors	r2, r2, r1
 6039              		.loc 4 22 10 view .LVU2268
 6040 06c0 03FB02F2 		mul	r2, r3, r2
 6041 06c4 C4F81422 		str	r2, [r4, #532]
  20:/Users/joostbooy/Desktop/Code/stm32/lib/utils/hash.h **** 			hash_ ^= *data_++;
 6042              		.loc 4 20 3 is_stmt 1 view .LVU2269
  20:/Users/joostbooy/Desktop/Code/stm32/lib/utils/hash.h **** 			hash_ ^= *data_++;
 6043              		.loc 4 20 14 view .LVU2270
 6044              	.LVL493:
  21:/Users/joostbooy/Desktop/Code/stm32/lib/utils/hash.h **** 			hash_ *= prime_;
 6045              		.loc 4 21 4 view .LVU2271
 6046              		.loc 4 22 4 view .LVU2272
  21:/Users/joostbooy/Desktop/Code/stm32/lib/utils/hash.h **** 			hash_ *= prime_;
 6047              		.loc 4 21 10 is_stmt 0 view .LVU2273
 6048 06c8 397C     		ldrb	r1, [r7, #16]	@ zero_extendqisi2
 6049 06ca 1137     		adds	r7, r7, #17
 6050              	.LVL494:
ARM GAS  /var/folders/84/_x1cyy_j36g486tldtwl37280000gn/T//cctc5fkA.s 			page 152


  21:/Users/joostbooy/Desktop/Code/stm32/lib/utils/hash.h **** 			hash_ *= prime_;
 6051              		.loc 4 21 10 view .LVU2274
 6052 06cc 4A40     		eors	r2, r2, r1
 6053              		.loc 4 22 10 view .LVU2275
 6054 06ce 03FB02F3 		mul	r3, r3, r2
 6055              	.LBE1003:
 6056              	.LBE1002:
 6057              	.LBE1007:
  70:Src/Settings/song.cpp **** 		fileReader.read(track_type_list_[i]);
 6058              		.loc 1 70 20 view .LVU2276
 6059 06d2 B742     		cmp	r7, r6
 6060              	.LBB1008:
 6061              	.LBB1005:
 6062              	.LBB1004:
 6063              		.loc 4 22 10 view .LVU2277
 6064 06d4 C4F81432 		str	r3, [r4, #532]
  20:/Users/joostbooy/Desktop/Code/stm32/lib/utils/hash.h **** 			hash_ ^= *data_++;
 6065              		.loc 4 20 3 is_stmt 1 view .LVU2278
  20:/Users/joostbooy/Desktop/Code/stm32/lib/utils/hash.h **** 			hash_ ^= *data_++;
 6066              		.loc 4 20 14 view .LVU2279
 6067              	.LVL495:
  20:/Users/joostbooy/Desktop/Code/stm32/lib/utils/hash.h **** 			hash_ ^= *data_++;
 6068              		.loc 4 20 14 is_stmt 0 view .LVU2280
 6069              	.LBE1004:
 6070              	.LBE1005:
 6071              	.LBE1008:
  70:Src/Settings/song.cpp **** 		fileReader.read(track_type_list_[i]);
 6072              		.loc 1 70 2 is_stmt 1 view .LVU2281
  70:Src/Settings/song.cpp **** 		fileReader.read(track_type_list_[i]);
 6073              		.loc 1 70 20 view .LVU2282
 6074 06d8 7FF453AF 		bne	.L430
 6075 06dc 05F18006 		add	r6, r5, #128
 6076              	.LVL496:
  70:Src/Settings/song.cpp **** 		fileReader.read(track_type_list_[i]);
 6077              		.loc 1 70 20 is_stmt 0 view .LVU2283
 6078              	.LBE985:
 6079              	.LBB1010:
  72:Src/Settings/song.cpp **** 	}
  73:Src/Settings/song.cpp **** 
  74:Src/Settings/song.cpp **** 	// song name
  75:Src/Settings/song.cpp **** 	for (int i = 0; i < max_name_length(); ++i) {
  76:Src/Settings/song.cpp **** 		fileReader.read(name_[i]);
 6080              		.loc 1 76 3 is_stmt 1 view .LVU2284
 6081              	.LBB1011:
 6082              	.LBI1011:
  51:Src/Disk/fileReader.h **** 		read_buffer(&data, sizeof(T));
 6083              		.loc 8 51 7 view .LVU2285
 6084              	.LBB1012:
 6085              	.LBI1012:
  82:Src/Disk/fileReader.h **** 		uint8_t *data_ = reinterpret_cast<uint8_t *>(data);
 6086              		.loc 8 82 7 view .LVU2286
 6087              	.LBB1013:
  85:Src/Disk/fileReader.h **** 			if (num_read < num_readable) {
 6088              		.loc 8 85 3 view .LVU2287
  85:Src/Disk/fileReader.h **** 			if (num_read < num_readable) {
 6089              		.loc 8 85 19 view .LVU2288
 6090 06e0 05F1890A 		add	r10, r5, #137
ARM GAS  /var/folders/84/_x1cyy_j36g486tldtwl37280000gn/T//cctc5fkA.s 			page 153


 6091 06e4 D0B1     		cbz	r0, .L431
 6092              	.LVL497:
 6093              	.L585:
  85:Src/Disk/fileReader.h **** 			if (num_read < num_readable) {
 6094              		.loc 8 85 19 is_stmt 0 view .LVU2289
 6095 06e6 D4F80C22 		ldr	r2, [r4, #524]
 6096              	.L436:
  86:Src/Disk/fileReader.h **** 				*data_++ = buffer[num_read++];
 6097              		.loc 8 86 4 is_stmt 1 view .LVU2290
  86:Src/Disk/fileReader.h **** 				*data_++ = buffer[num_read++];
 6098              		.loc 8 86 8 is_stmt 0 view .LVU2291
 6099 06ea D4F80802 		ldr	r0, [r4, #520]
  86:Src/Disk/fileReader.h **** 				*data_++ = buffer[num_read++];
 6100              		.loc 8 86 4 view .LVU2292
 6101 06ee 9042     		cmp	r0, r2
 6102 06f0 3AD2     		bcs	.L432
  87:Src/Disk/fileReader.h **** 				--size;
 6103              		.loc 8 87 5 is_stmt 1 view .LVU2293
  87:Src/Disk/fileReader.h **** 				--size;
 6104              		.loc 8 87 31 is_stmt 0 view .LVU2294
 6105 06f2 471C     		adds	r7, r0, #1
 6106 06f4 C4F80872 		str	r7, [r4, #520]
  87:Src/Disk/fileReader.h **** 				--size;
 6107              		.loc 8 87 33 view .LVU2295
 6108 06f8 225C     		ldrb	r2, [r4, r0]	@ zero_extendqisi2
  87:Src/Disk/fileReader.h **** 				--size;
 6109              		.loc 8 87 14 view .LVU2296
 6110 06fa 3270     		strb	r2, [r6]
  88:Src/Disk/fileReader.h **** 			} else {
 6111              		.loc 8 88 5 is_stmt 1 view .LVU2297
 6112              	.LVL498:
  85:Src/Disk/fileReader.h **** 			if (num_read < num_readable) {
 6113              		.loc 8 85 3 view .LVU2298
  85:Src/Disk/fileReader.h **** 			if (num_read < num_readable) {
 6114              		.loc 8 85 19 view .LVU2299
 6115 06fc D4F81432 		ldr	r3, [r4, #532]
 6116              	.LVL499:
 6117              	.L433:
  85:Src/Disk/fileReader.h **** 			if (num_read < num_readable) {
 6118              		.loc 8 85 19 is_stmt 0 view .LVU2300
 6119              	.LBE1013:
 6120              	.LBE1012:
 6121              	.LBB1026:
 6122              	.LBB1027:
  20:/Users/joostbooy/Desktop/Code/stm32/lib/utils/hash.h **** 			hash_ ^= *data_++;
 6123              		.loc 4 20 3 is_stmt 1 view .LVU2301
  20:/Users/joostbooy/Desktop/Code/stm32/lib/utils/hash.h **** 			hash_ ^= *data_++;
 6124              		.loc 4 20 14 view .LVU2302
  21:/Users/joostbooy/Desktop/Code/stm32/lib/utils/hash.h **** 			hash_ *= prime_;
 6125              		.loc 4 21 4 view .LVU2303
 6126              		.loc 4 22 4 view .LVU2304
 6127              		.loc 4 22 10 is_stmt 0 view .LVU2305
 6128 0700 2749     		ldr	r1, .L592
  21:/Users/joostbooy/Desktop/Code/stm32/lib/utils/hash.h **** 			hash_ *= prime_;
 6129              		.loc 4 21 10 view .LVU2306
 6130 0702 5340     		eors	r3, r3, r2
 6131 0704 0136     		adds	r6, r6, #1
ARM GAS  /var/folders/84/_x1cyy_j36g486tldtwl37280000gn/T//cctc5fkA.s 			page 154


 6132              		.loc 4 22 10 view .LVU2307
 6133 0706 01FB03F3 		mul	r3, r1, r3
 6134              	.LBE1027:
 6135              	.LBE1026:
 6136              	.LBE1011:
  75:Src/Settings/song.cpp **** 		fileReader.read(name_[i]);
 6137              		.loc 1 75 20 view .LVU2308
 6138 070a 5645     		cmp	r6, r10
 6139              	.LBB1032:
 6140              	.LBB1029:
 6141              	.LBB1028:
 6142              		.loc 4 22 10 view .LVU2309
 6143 070c C4F81432 		str	r3, [r4, #532]
  20:/Users/joostbooy/Desktop/Code/stm32/lib/utils/hash.h **** 			hash_ ^= *data_++;
 6144              		.loc 4 20 3 is_stmt 1 view .LVU2310
  20:/Users/joostbooy/Desktop/Code/stm32/lib/utils/hash.h **** 			hash_ ^= *data_++;
 6145              		.loc 4 20 14 view .LVU2311
 6146              	.LVL500:
  20:/Users/joostbooy/Desktop/Code/stm32/lib/utils/hash.h **** 			hash_ ^= *data_++;
 6147              		.loc 4 20 14 is_stmt 0 view .LVU2312
 6148              	.LBE1028:
 6149              	.LBE1029:
 6150              	.LBE1032:
  75:Src/Settings/song.cpp **** 		fileReader.read(name_[i]);
 6151              		.loc 1 75 2 is_stmt 1 view .LVU2313
  75:Src/Settings/song.cpp **** 		fileReader.read(name_[i]);
 6152              		.loc 1 75 20 view .LVU2314
  75:Src/Settings/song.cpp **** 		fileReader.read(name_[i]);
 6153              		.loc 1 75 20 is_stmt 0 view .LVU2315
 6154              	.LBE1010:
  47:Src/Settings/song.h **** 	}
 6155              		.loc 7 47 3 is_stmt 1 view .LVU2316
 6156              	.LBB1035:
  75:Src/Settings/song.cpp **** 		fileReader.read(name_[i]);
 6157              		.loc 1 75 20 is_stmt 0 view .LVU2317
 6158 0710 00F0AF80 		beq	.L437
 6159 0714 94F80402 		ldrb	r0, [r4, #516]	@ zero_extendqisi2
 6160              	.LVL501:
 6161              		.loc 1 76 3 is_stmt 1 view .LVU2318
 6162              	.LBB1033:
  51:Src/Disk/fileReader.h **** 		read_buffer(&data, sizeof(T));
 6163              		.loc 8 51 7 view .LVU2319
 6164              	.LBB1030:
  82:Src/Disk/fileReader.h **** 		uint8_t *data_ = reinterpret_cast<uint8_t *>(data);
 6165              		.loc 8 82 7 view .LVU2320
 6166              	.LBB1024:
  85:Src/Disk/fileReader.h **** 			if (num_read < num_readable) {
 6167              		.loc 8 85 3 view .LVU2321
  85:Src/Disk/fileReader.h **** 			if (num_read < num_readable) {
 6168              		.loc 8 85 19 view .LVU2322
 6169 0718 0028     		cmp	r0, #0
 6170 071a E4D1     		bne	.L585
 6171              	.LVL502:
 6172              	.L431:
  85:Src/Disk/fileReader.h **** 			if (num_read < num_readable) {
 6173              		.loc 8 85 19 is_stmt 0 view .LVU2323
 6174 071c 3278     		ldrb	r2, [r6]	@ zero_extendqisi2
ARM GAS  /var/folders/84/_x1cyy_j36g486tldtwl37280000gn/T//cctc5fkA.s 			page 155


 6175 071e EFE7     		b	.L433
 6176              	.LVL503:
 6177              	.L388:
  85:Src/Disk/fileReader.h **** 			if (num_read < num_readable) {
 6178              		.loc 8 85 19 view .LVU2324
 6179              	.LBE1024:
 6180              	.LBE1030:
 6181              	.LBE1033:
 6182              	.LBE1035:
 6183              	.LBB1036:
 6184              	.LBB863:
 6185              	.LBB856:
 6186              	.LBB845:
  76:Src/Settings/scale.h **** 			lut_ptr = lut_scale_minor;
 6187              		.loc 5 76 3 is_stmt 1 view .LVU2325
  77:Src/Settings/scale.h **** 			lut_map_ptr = lut_scale_minor_map;
 6188              		.loc 5 77 4 view .LVU2326
  77:Src/Settings/scale.h **** 			lut_map_ptr = lut_scale_minor_map;
 6189              		.loc 5 77 12 is_stmt 0 view .LVU2327
 6190 0720 2248     		ldr	r0, .L592+12
  78:Src/Settings/scale.h **** 			break;
 6191              		.loc 5 78 16 view .LVU2328
 6192 0722 234A     		ldr	r2, .L592+16
  77:Src/Settings/scale.h **** 			lut_map_ptr = lut_scale_minor_map;
 6193              		.loc 5 77 12 view .LVU2329
 6194 0724 6860     		str	r0, [r5, #4]
  78:Src/Settings/scale.h **** 			break;
 6195              		.loc 5 78 4 is_stmt 1 view .LVU2330
  79:Src/Settings/scale.h **** 		case MIXOLYDIAN:
 6196              		.loc 5 79 4 is_stmt 0 view .LVU2331
 6197 0726 8246     		mov	r10, r0
  78:Src/Settings/scale.h **** 			break;
 6198              		.loc 5 78 16 view .LVU2332
 6199 0728 AA60     		str	r2, [r5, #8]
  79:Src/Settings/scale.h **** 		case MIXOLYDIAN:
 6200              		.loc 5 79 4 is_stmt 1 view .LVU2333
 6201 072a 14E6     		b	.L389
 6202              	.L386:
  84:Src/Settings/scale.h **** 			lut_ptr = lut_scale_dorian;
 6203              		.loc 5 84 3 view .LVU2334
  85:Src/Settings/scale.h **** 			lut_map_ptr = lut_scale_dorian_map;
 6204              		.loc 5 85 4 view .LVU2335
  85:Src/Settings/scale.h **** 			lut_map_ptr = lut_scale_dorian_map;
 6205              		.loc 5 85 12 is_stmt 0 view .LVU2336
 6206 072c 2148     		ldr	r0, .L592+20
  86:Src/Settings/scale.h **** 			break;
 6207              		.loc 5 86 16 view .LVU2337
 6208 072e 224A     		ldr	r2, .L592+24
  85:Src/Settings/scale.h **** 			lut_map_ptr = lut_scale_dorian_map;
 6209              		.loc 5 85 12 view .LVU2338
 6210 0730 6860     		str	r0, [r5, #4]
  86:Src/Settings/scale.h **** 			break;
 6211              		.loc 5 86 4 is_stmt 1 view .LVU2339
  87:Src/Settings/scale.h **** 		case PHRYGIAN:
 6212              		.loc 5 87 4 is_stmt 0 view .LVU2340
 6213 0732 8246     		mov	r10, r0
  86:Src/Settings/scale.h **** 			break;
ARM GAS  /var/folders/84/_x1cyy_j36g486tldtwl37280000gn/T//cctc5fkA.s 			page 156


 6214              		.loc 5 86 16 view .LVU2341
 6215 0734 AA60     		str	r2, [r5, #8]
  87:Src/Settings/scale.h **** 		case PHRYGIAN:
 6216              		.loc 5 87 4 is_stmt 1 view .LVU2342
 6217 0736 0EE6     		b	.L389
 6218              	.L385:
  88:Src/Settings/scale.h **** 			lut_ptr = lut_scale_phrygian;
 6219              		.loc 5 88 3 view .LVU2343
  89:Src/Settings/scale.h **** 			lut_map_ptr = lut_scale_phrygian_map;
 6220              		.loc 5 89 4 view .LVU2344
  89:Src/Settings/scale.h **** 			lut_map_ptr = lut_scale_phrygian_map;
 6221              		.loc 5 89 12 is_stmt 0 view .LVU2345
 6222 0738 204B     		ldr	r3, .L592+28
  90:Src/Settings/scale.h **** 			break;
 6223              		.loc 5 90 16 view .LVU2346
 6224 073a 214F     		ldr	r7, .L592+32
  89:Src/Settings/scale.h **** 			lut_map_ptr = lut_scale_phrygian_map;
 6225              		.loc 5 89 12 view .LVU2347
 6226 073c 6B60     		str	r3, [r5, #4]
  90:Src/Settings/scale.h **** 			break;
 6227              		.loc 5 90 4 is_stmt 1 view .LVU2348
  91:Src/Settings/scale.h **** 		case LYDIAN:
 6228              		.loc 5 91 4 is_stmt 0 view .LVU2349
 6229 073e 9A46     		mov	r10, r3
  90:Src/Settings/scale.h **** 			break;
 6230              		.loc 5 90 16 view .LVU2350
 6231 0740 AF60     		str	r7, [r5, #8]
  91:Src/Settings/scale.h **** 		case LYDIAN:
 6232              		.loc 5 91 4 is_stmt 1 view .LVU2351
 6233 0742 08E6     		b	.L389
 6234              	.L384:
  92:Src/Settings/scale.h **** 			lut_ptr = lut_scale_lydian;
 6235              		.loc 5 92 3 view .LVU2352
  93:Src/Settings/scale.h **** 			lut_map_ptr = lut_scale_lydian_map;
 6236              		.loc 5 93 4 view .LVU2353
  93:Src/Settings/scale.h **** 			lut_map_ptr = lut_scale_lydian_map;
 6237              		.loc 5 93 12 is_stmt 0 view .LVU2354
 6238 0744 1F48     		ldr	r0, .L592+36
  94:Src/Settings/scale.h **** 			break;
 6239              		.loc 5 94 16 view .LVU2355
 6240 0746 204A     		ldr	r2, .L592+40
  93:Src/Settings/scale.h **** 			lut_map_ptr = lut_scale_lydian_map;
 6241              		.loc 5 93 12 view .LVU2356
 6242 0748 6860     		str	r0, [r5, #4]
  94:Src/Settings/scale.h **** 			break;
 6243              		.loc 5 94 4 is_stmt 1 view .LVU2357
  95:Src/Settings/scale.h **** 		case AEOLYIAN:
 6244              		.loc 5 95 4 is_stmt 0 view .LVU2358
 6245 074a 8246     		mov	r10, r0
  94:Src/Settings/scale.h **** 			break;
 6246              		.loc 5 94 16 view .LVU2359
 6247 074c AA60     		str	r2, [r5, #8]
  95:Src/Settings/scale.h **** 		case AEOLYIAN:
 6248              		.loc 5 95 4 is_stmt 1 view .LVU2360
 6249 074e 02E6     		b	.L389
 6250              	.L383:
  96:Src/Settings/scale.h **** 			lut_ptr = lut_scale_aeolyian;
ARM GAS  /var/folders/84/_x1cyy_j36g486tldtwl37280000gn/T//cctc5fkA.s 			page 157


 6251              		.loc 5 96 3 view .LVU2361
  97:Src/Settings/scale.h **** 			lut_map_ptr = lut_scale_aeolyian_map;
 6252              		.loc 5 97 4 view .LVU2362
  97:Src/Settings/scale.h **** 			lut_map_ptr = lut_scale_aeolyian_map;
 6253              		.loc 5 97 12 is_stmt 0 view .LVU2363
 6254 0750 1E4B     		ldr	r3, .L592+44
  98:Src/Settings/scale.h **** 			break;
 6255              		.loc 5 98 16 view .LVU2364
 6256 0752 1F4F     		ldr	r7, .L592+48
  97:Src/Settings/scale.h **** 			lut_map_ptr = lut_scale_aeolyian_map;
 6257              		.loc 5 97 12 view .LVU2365
 6258 0754 6B60     		str	r3, [r5, #4]
  98:Src/Settings/scale.h **** 			break;
 6259              		.loc 5 98 4 is_stmt 1 view .LVU2366
  99:Src/Settings/scale.h **** 		case LOCRIAN:
 6260              		.loc 5 99 4 is_stmt 0 view .LVU2367
 6261 0756 9A46     		mov	r10, r3
  98:Src/Settings/scale.h **** 			break;
 6262              		.loc 5 98 16 view .LVU2368
 6263 0758 AF60     		str	r7, [r5, #8]
  99:Src/Settings/scale.h **** 		case LOCRIAN:
 6264              		.loc 5 99 4 is_stmt 1 view .LVU2369
 6265 075a FCE5     		b	.L389
 6266              	.L387:
  80:Src/Settings/scale.h **** 			lut_ptr = lut_scale_mixolydian;
 6267              		.loc 5 80 3 view .LVU2370
  81:Src/Settings/scale.h **** 			lut_map_ptr = lut_scale_mixolydian_map;
 6268              		.loc 5 81 4 view .LVU2371
  81:Src/Settings/scale.h **** 			lut_map_ptr = lut_scale_mixolydian_map;
 6269              		.loc 5 81 12 is_stmt 0 view .LVU2372
 6270 075c 1D4B     		ldr	r3, .L592+52
  82:Src/Settings/scale.h **** 			break;
 6271              		.loc 5 82 16 view .LVU2373
 6272 075e 1E4F     		ldr	r7, .L592+56
  81:Src/Settings/scale.h **** 			lut_map_ptr = lut_scale_mixolydian_map;
 6273              		.loc 5 81 12 view .LVU2374
 6274 0760 6B60     		str	r3, [r5, #4]
  82:Src/Settings/scale.h **** 			break;
 6275              		.loc 5 82 4 is_stmt 1 view .LVU2375
  83:Src/Settings/scale.h **** 		case DORIAN:
 6276              		.loc 5 83 4 is_stmt 0 view .LVU2376
 6277 0762 9A46     		mov	r10, r3
  82:Src/Settings/scale.h **** 			break;
 6278              		.loc 5 82 16 view .LVU2377
 6279 0764 AF60     		str	r7, [r5, #8]
  83:Src/Settings/scale.h **** 		case DORIAN:
 6280              		.loc 5 83 4 is_stmt 1 view .LVU2378
 6281 0766 F6E5     		b	.L389
 6282              	.LVL504:
 6283              	.L432:
  83:Src/Settings/scale.h **** 		case DORIAN:
 6284              		.loc 5 83 4 is_stmt 0 view .LVU2379
 6285              	.LBE845:
 6286              	.LBE856:
 6287              	.LBE863:
 6288              	.LBE1036:
 6289              	.LBB1037:
ARM GAS  /var/folders/84/_x1cyy_j36g486tldtwl37280000gn/T//cctc5fkA.s 			page 158


 6290              	.LBB1034:
 6291              	.LBB1031:
 6292              	.LBB1025:
  90:Src/Disk/fileReader.h **** 			}
 6293              		.loc 8 90 5 is_stmt 1 view .LVU2380
 6294              	.LBB1014:
 6295              	.LBI1014:
  95:Src/Disk/fileReader.h **** 		num_read = 0;
 6296              		.loc 8 95 7 view .LVU2381
 6297              	.LBB1015:
  96:Src/Disk/fileReader.h **** 		if (file_->read(buffer, kBufferSize, &num_readable)) {
 6298              		.loc 8 96 3 view .LVU2382
  97:Src/Disk/fileReader.h **** 			return (num_readable >= requested_size) || (num_readable >= kBufferSize);
 6299              		.loc 8 97 18 is_stmt 0 view .LVU2383
 6300 0768 D4F80072 		ldr	r7, [r4, #512]
  96:Src/Disk/fileReader.h **** 		if (file_->read(buffer, kBufferSize, &num_readable)) {
 6301              		.loc 8 96 12 view .LVU2384
 6302 076c 0023     		movs	r3, #0
 6303              	.LBB1016:
 6304              	.LBB1017:
  58:Src/Disk/file.h **** 		if (num_read) {
 6305              		.loc 3 58 23 view .LVU2385
 6306 076e 3868     		ldr	r0, [r7]
 6307              	.LBE1017:
 6308              	.LBE1016:
  96:Src/Disk/fileReader.h **** 		if (file_->read(buffer, kBufferSize, &num_readable)) {
 6309              		.loc 8 96 12 view .LVU2386
 6310 0770 C4F80832 		str	r3, [r4, #520]
  97:Src/Disk/fileReader.h **** 			return (num_readable >= requested_size) || (num_readable >= kBufferSize);
 6311              		.loc 8 97 3 is_stmt 1 view .LVU2387
 6312              	.LVL505:
 6313              	.LBB1020:
 6314              	.LBI1016:
  56:Src/Disk/file.h **** 		UINT br;
 6315              		.loc 3 56 7 view .LVU2388
 6316              	.LBB1018:
  57:Src/Disk/file.h **** 		FRESULT res = f_read(fil, data, size, &br);
 6317              		.loc 3 57 3 view .LVU2389
  58:Src/Disk/file.h **** 		if (num_read) {
 6318              		.loc 3 58 3 view .LVU2390
  58:Src/Disk/file.h **** 		if (num_read) {
 6319              		.loc 3 58 23 is_stmt 0 view .LVU2391
 6320 0774 4FF40072 		mov	r2, #512
 6321 0778 01AB     		add	r3, sp, #4
 6322 077a 2146     		mov	r1, r4
 6323 077c FFF7FEFF 		bl	f_read
 6324              	.LVL506:
  60:Src/Disk/file.h **** 		}
 6325              		.loc 3 60 14 view .LVU2392
 6326 0780 019A     		ldr	r2, [sp, #4]
 6327 0782 C4F80C22 		str	r2, [r4, #524]
 6328              	.LVL507:
  59:Src/Disk/file.h **** 			*num_read = br;
 6329              		.loc 3 59 3 is_stmt 1 view .LVU2393
  60:Src/Disk/file.h **** 		}
 6330              		.loc 3 60 4 view .LVU2394
 6331              		.loc 3 62 3 view .LVU2395
ARM GAS  /var/folders/84/_x1cyy_j36g486tldtwl37280000gn/T//cctc5fkA.s 			page 159


 6332              		.loc 3 62 19 is_stmt 0 view .LVU2396
 6333 0786 22B1     		cbz	r2, .L434
 6334              	.LVL508:
 6335              		.loc 3 62 19 view .LVU2397
 6336              	.LBE1018:
 6337              	.LBE1020:
 6338              		.loc 8 98 4 is_stmt 1 view .LVU2398
 6339              		.loc 8 98 4 is_stmt 0 view .LVU2399
 6340              	.LBE1015:
 6341              	.LBE1014:
  90:Src/Disk/fileReader.h **** 			}
 6342              		.loc 8 90 14 view .LVU2400
 6343 0788 0121     		movs	r1, #1
 6344              	.LBB1023:
 6345              	.LBB1022:
 6346              	.LBB1021:
 6347              	.LBB1019:
 6348              		.loc 3 62 19 view .LVU2401
 6349 078a 10B9     		cbnz	r0, .L434
 6350              	.LBE1019:
 6351              	.LBE1021:
 6352              	.LBE1022:
 6353              	.LBE1023:
  90:Src/Disk/fileReader.h **** 			}
 6354              		.loc 8 90 14 view .LVU2402
 6355 078c 84F80412 		strb	r1, [r4, #516]
  85:Src/Disk/fileReader.h **** 			if (num_read < num_readable) {
 6356              		.loc 8 85 3 is_stmt 1 view .LVU2403
  85:Src/Disk/fileReader.h **** 			if (num_read < num_readable) {
 6357              		.loc 8 85 19 view .LVU2404
 6358 0790 ABE7     		b	.L436
 6359              	.L434:
  90:Src/Disk/fileReader.h **** 			}
 6360              		.loc 8 90 14 is_stmt 0 view .LVU2405
 6361 0792 0020     		movs	r0, #0
 6362 0794 84F80402 		strb	r0, [r4, #516]
  85:Src/Disk/fileReader.h **** 			if (num_read < num_readable) {
 6363              		.loc 8 85 3 is_stmt 1 view .LVU2406
  85:Src/Disk/fileReader.h **** 			if (num_read < num_readable) {
 6364              		.loc 8 85 19 view .LVU2407
 6365 0798 3278     		ldrb	r2, [r6]	@ zero_extendqisi2
 6366 079a D4F81432 		ldr	r3, [r4, #532]
 6367 079e AFE7     		b	.L433
 6368              	.L593:
 6369              		.align	2
 6370              	.L592:
 6371 07a0 93010001 		.word	16777619
 6372 07a4 00000000 		.word	lut_bpm_inc
 6373 07a8 00000000 		.word	lut_bpm_fractional_inc
 6374 07ac 00000000 		.word	lut_scale_minor
 6375 07b0 00000000 		.word	lut_scale_minor_map
 6376 07b4 00000000 		.word	lut_scale_dorian
 6377 07b8 00000000 		.word	lut_scale_dorian_map
 6378 07bc 00000000 		.word	lut_scale_phrygian
 6379 07c0 00000000 		.word	lut_scale_phrygian_map
 6380 07c4 00000000 		.word	lut_scale_lydian
 6381 07c8 00000000 		.word	lut_scale_lydian_map
ARM GAS  /var/folders/84/_x1cyy_j36g486tldtwl37280000gn/T//cctc5fkA.s 			page 160


 6382 07cc 00000000 		.word	lut_scale_aeolyian
 6383 07d0 00000000 		.word	lut_scale_aeolyian_map
 6384 07d4 00000000 		.word	lut_scale_mixolydian
 6385 07d8 00000000 		.word	lut_scale_mixolydian_map
 6386              	.LVL509:
 6387              	.L426:
  85:Src/Disk/fileReader.h **** 			if (num_read < num_readable) {
 6388              		.loc 8 85 19 is_stmt 0 view .LVU2408
 6389              	.LBE1025:
 6390              	.LBE1031:
 6391              	.LBE1034:
 6392              	.LBE1037:
 6393              	.LBB1038:
 6394              	.LBB1009:
 6395              	.LBB1006:
 6396              	.LBB1000:
  90:Src/Disk/fileReader.h **** 			}
 6397              		.loc 8 90 14 view .LVU2409
 6398 07dc 0020     		movs	r0, #0
 6399 07de 84F80402 		strb	r0, [r4, #516]
 6400              	.LVL510:
  85:Src/Disk/fileReader.h **** 			if (num_read < num_readable) {
 6401              		.loc 8 85 3 is_stmt 1 view .LVU2410
  85:Src/Disk/fileReader.h **** 			if (num_read < num_readable) {
 6402              		.loc 8 85 19 view .LVU2411
 6403 07e2 0EE7     		b	.L423
 6404              	.LVL511:
 6405              	.L392:
  85:Src/Disk/fileReader.h **** 			if (num_read < num_readable) {
 6406              		.loc 8 85 19 is_stmt 0 view .LVU2412
 6407              	.LBE1000:
 6408              	.LBE1006:
 6409              	.LBE1009:
 6410              	.LBE1038:
 6411              	.LBB1039:
 6412              	.LBB864:
 6413              	.LBB857:
 6414              	.LBB846:
 6415              	.LBB842:
 6416              	.LBB841:
 6417              	.LBB840:
 6418              	.LBB832:
 6419              	.LBB830:
 6420              	.LBB828:
  99:/Users/joostbooy/Desktop/Code/stm32/lib/utils/stack.h ****             data[idx] = data[idx - 1];
 6421              		.loc 10 99 21 view .LVU2413
 6422 07e4 4FF0000C 		mov	ip, #0
 6423 07e8 E8E5     		b	.L391
 6424              	.LVL512:
 6425              	.L418:
  99:/Users/joostbooy/Desktop/Code/stm32/lib/utils/stack.h ****             data[idx] = data[idx - 1];
 6426              		.loc 10 99 21 view .LVU2414
 6427              	.LBE828:
 6428              	.LBE830:
 6429              	.LBE832:
 6430              	.LBE840:
 6431              	.LBE841:
ARM GAS  /var/folders/84/_x1cyy_j36g486tldtwl37280000gn/T//cctc5fkA.s 			page 161


 6432              	.LBE842:
 6433              	.LBE846:
 6434              	.LBE857:
 6435              	.LBE864:
 6436              	.LBE1039:
 6437              	.LBB1040:
 6438              	.LBB982:
 6439              	.LBB972:
 6440              	.LBB961:
 6441              	.LBB952:
  90:Src/Disk/fileReader.h **** 			}
 6442              		.loc 8 90 5 is_stmt 1 view .LVU2415
 6443              	.LBB942:
 6444              	.LBI942:
  95:Src/Disk/fileReader.h **** 		num_read = 0;
 6445              		.loc 8 95 7 view .LVU2416
 6446              	.LBB943:
  96:Src/Disk/fileReader.h **** 		if (file_->read(buffer, kBufferSize, &num_readable)) {
 6447              		.loc 8 96 3 view .LVU2417
  97:Src/Disk/fileReader.h **** 			return (num_readable >= requested_size) || (num_readable >= kBufferSize);
 6448              		.loc 8 97 18 is_stmt 0 view .LVU2418
 6449 07ea D4F80022 		ldr	r2, [r4, #512]
  96:Src/Disk/fileReader.h **** 		if (file_->read(buffer, kBufferSize, &num_readable)) {
 6450              		.loc 8 96 12 view .LVU2419
 6451 07ee 0027     		movs	r7, #0
 6452              	.LBB944:
 6453              	.LBB945:
  58:Src/Disk/file.h **** 		if (num_read) {
 6454              		.loc 3 58 23 view .LVU2420
 6455 07f0 1068     		ldr	r0, [r2]
 6456              	.LBE945:
 6457              	.LBE944:
  96:Src/Disk/fileReader.h **** 		if (file_->read(buffer, kBufferSize, &num_readable)) {
 6458              		.loc 8 96 12 view .LVU2421
 6459 07f2 C4F80872 		str	r7, [r4, #520]
  97:Src/Disk/fileReader.h **** 			return (num_readable >= requested_size) || (num_readable >= kBufferSize);
 6460              		.loc 8 97 3 is_stmt 1 view .LVU2422
 6461              	.LVL513:
 6462              	.LBB948:
 6463              	.LBI944:
  56:Src/Disk/file.h **** 		UINT br;
 6464              		.loc 3 56 7 view .LVU2423
 6465              	.LBB946:
  57:Src/Disk/file.h **** 		FRESULT res = f_read(fil, data, size, &br);
 6466              		.loc 3 57 3 view .LVU2424
  58:Src/Disk/file.h **** 		if (num_read) {
 6467              		.loc 3 58 3 view .LVU2425
  58:Src/Disk/file.h **** 		if (num_read) {
 6468              		.loc 3 58 23 is_stmt 0 view .LVU2426
 6469 07f6 4FF40072 		mov	r2, #512
 6470              	.LVL514:
  58:Src/Disk/file.h **** 		if (num_read) {
 6471              		.loc 3 58 23 view .LVU2427
 6472 07fa 01AB     		add	r3, sp, #4
 6473 07fc 2146     		mov	r1, r4
 6474 07fe FFF7FEFF 		bl	f_read
 6475              	.LVL515:
ARM GAS  /var/folders/84/_x1cyy_j36g486tldtwl37280000gn/T//cctc5fkA.s 			page 162


  60:Src/Disk/file.h **** 		}
 6476              		.loc 3 60 14 view .LVU2428
 6477 0802 019A     		ldr	r2, [sp, #4]
 6478 0804 C4F80C22 		str	r2, [r4, #524]
 6479              	.LVL516:
  59:Src/Disk/file.h **** 			*num_read = br;
 6480              		.loc 3 59 3 is_stmt 1 view .LVU2429
  60:Src/Disk/file.h **** 		}
 6481              		.loc 3 60 4 view .LVU2430
 6482              		.loc 3 62 3 view .LVU2431
 6483              		.loc 3 62 19 is_stmt 0 view .LVU2432
 6484 0808 32B3     		cbz	r2, .L420
 6485              	.LVL517:
 6486              		.loc 3 62 19 view .LVU2433
 6487              	.LBE946:
 6488              	.LBE948:
 6489              		.loc 8 98 4 is_stmt 1 view .LVU2434
 6490              		.loc 8 98 4 is_stmt 0 view .LVU2435
 6491              	.LBE943:
 6492              	.LBE942:
  90:Src/Disk/fileReader.h **** 			}
 6493              		.loc 8 90 14 view .LVU2436
 6494 080a 0121     		movs	r1, #1
 6495              	.LBB951:
 6496              	.LBB950:
 6497              	.LBB949:
 6498              	.LBB947:
 6499              		.loc 3 62 19 view .LVU2437
 6500 080c 20BB     		cbnz	r0, .L420
 6501              	.LBE947:
 6502              	.LBE949:
 6503              	.LBE950:
 6504              	.LBE951:
  90:Src/Disk/fileReader.h **** 			}
 6505              		.loc 8 90 14 view .LVU2438
 6506 080e 84F80412 		strb	r1, [r4, #516]
  85:Src/Disk/fileReader.h **** 			if (num_read < num_readable) {
 6507              		.loc 8 85 3 is_stmt 1 view .LVU2439
  85:Src/Disk/fileReader.h **** 			if (num_read < num_readable) {
 6508              		.loc 8 85 19 view .LVU2440
 6509 0812 94E6     		b	.L411
 6510              	.LVL518:
 6511              	.L405:
  85:Src/Disk/fileReader.h **** 			if (num_read < num_readable) {
 6512              		.loc 8 85 19 is_stmt 0 view .LVU2441
 6513              	.LBE952:
 6514              	.LBE961:
 6515              	.LBE972:
 6516              	.LBB973:
 6517              	.LBB896:
 6518              	.LBB888:
  90:Src/Disk/fileReader.h **** 			}
 6519              		.loc 8 90 14 view .LVU2442
 6520 0814 0027     		movs	r7, #0
 6521 0816 84F80472 		strb	r7, [r4, #516]
 6522              	.LVL519:
  85:Src/Disk/fileReader.h **** 			if (num_read < num_readable) {
ARM GAS  /var/folders/84/_x1cyy_j36g486tldtwl37280000gn/T//cctc5fkA.s 			page 163


 6523              		.loc 8 85 3 is_stmt 1 view .LVU2443
  85:Src/Disk/fileReader.h **** 			if (num_read < num_readable) {
 6524              		.loc 8 85 19 view .LVU2444
 6525              	.L401:
  85:Src/Disk/fileReader.h **** 			if (num_read < num_readable) {
 6526              		.loc 8 85 19 is_stmt 0 view .LVU2445
 6527              	.LBE888:
 6528              	.LBE896:
 6529              	.LBB897:
 6530              	.LBB894:
  20:/Users/joostbooy/Desktop/Code/stm32/lib/utils/hash.h **** 			hash_ ^= *data_++;
 6531              		.loc 4 20 3 is_stmt 1 view .LVU2446
  20:/Users/joostbooy/Desktop/Code/stm32/lib/utils/hash.h **** 			hash_ ^= *data_++;
 6532              		.loc 4 20 14 view .LVU2447
  21:/Users/joostbooy/Desktop/Code/stm32/lib/utils/hash.h **** 			hash_ *= prime_;
 6533              		.loc 4 21 4 view .LVU2448
 6534              		.loc 4 22 4 view .LVU2449
  21:/Users/joostbooy/Desktop/Code/stm32/lib/utils/hash.h **** 			hash_ *= prime_;
 6535              		.loc 4 21 10 is_stmt 0 view .LVU2450
 6536 081a 2B7D     		ldrb	r3, [r5, #20]	@ zero_extendqisi2
 6537 081c D4F81472 		ldr	r7, [r4, #532]
 6538              		.loc 4 22 10 view .LVU2451
 6539 0820 C44A     		ldr	r2, .L594
  21:/Users/joostbooy/Desktop/Code/stm32/lib/utils/hash.h **** 			hash_ *= prime_;
 6540              		.loc 4 21 10 view .LVU2452
 6541 0822 7B40     		eors	r3, r3, r7
 6542              		.loc 4 22 10 view .LVU2453
 6543 0824 02FB03F3 		mul	r3, r2, r3
 6544 0828 C4F81432 		str	r3, [r4, #532]
  20:/Users/joostbooy/Desktop/Code/stm32/lib/utils/hash.h **** 			hash_ ^= *data_++;
 6545              		.loc 4 20 3 is_stmt 1 view .LVU2454
  20:/Users/joostbooy/Desktop/Code/stm32/lib/utils/hash.h **** 			hash_ ^= *data_++;
 6546              		.loc 4 20 14 view .LVU2455
 6547              	.LVL520:
  21:/Users/joostbooy/Desktop/Code/stm32/lib/utils/hash.h **** 			hash_ *= prime_;
 6548              		.loc 4 21 4 view .LVU2456
 6549              		.loc 4 22 4 view .LVU2457
  21:/Users/joostbooy/Desktop/Code/stm32/lib/utils/hash.h **** 			hash_ *= prime_;
 6550              		.loc 4 21 10 is_stmt 0 view .LVU2458
 6551 082c 697D     		ldrb	r1, [r5, #21]	@ zero_extendqisi2
 6552 082e 4B40     		eors	r3, r3, r1
 6553              		.loc 4 22 10 view .LVU2459
 6554 0830 02FB03F2 		mul	r2, r2, r3
 6555 0834 C4F81422 		str	r2, [r4, #532]
  20:/Users/joostbooy/Desktop/Code/stm32/lib/utils/hash.h **** 			hash_ ^= *data_++;
 6556              		.loc 4 20 3 is_stmt 1 view .LVU2460
  20:/Users/joostbooy/Desktop/Code/stm32/lib/utils/hash.h **** 			hash_ ^= *data_++;
 6557              		.loc 4 20 14 view .LVU2461
 6558              	.LVL521:
  20:/Users/joostbooy/Desktop/Code/stm32/lib/utils/hash.h **** 			hash_ ^= *data_++;
 6559              		.loc 4 20 14 is_stmt 0 view .LVU2462
 6560              	.LBE894:
 6561              	.LBE897:
 6562              	.LBE973:
 122:Src/Settings/midiClock.h **** 		fileReader.read(sync_port_);
 6563              		.loc 6 122 3 is_stmt 1 view .LVU2463
 6564              	.LBB974:
ARM GAS  /var/folders/84/_x1cyy_j36g486tldtwl37280000gn/T//cctc5fkA.s 			page 164


  51:Src/Disk/fileReader.h **** 		read_buffer(&data, sizeof(T));
 6565              		.loc 8 51 7 view .LVU2464
 6566              	.LBB928:
 6567              	.LBB917:
  85:Src/Disk/fileReader.h **** 			if (num_read < num_readable) {
 6568              		.loc 8 85 3 view .LVU2465
  85:Src/Disk/fileReader.h **** 			if (num_read < num_readable) {
 6569              		.loc 8 85 19 view .LVU2466
 6570              	.L409:
  85:Src/Disk/fileReader.h **** 			if (num_read < num_readable) {
 6571              		.loc 8 85 19 is_stmt 0 view .LVU2467
 6572              	.LBE917:
 6573              	.LBE928:
 6574              	.LBB929:
 6575              	.LBB926:
  20:/Users/joostbooy/Desktop/Code/stm32/lib/utils/hash.h **** 			hash_ ^= *data_++;
 6576              		.loc 4 20 3 is_stmt 1 view .LVU2468
  20:/Users/joostbooy/Desktop/Code/stm32/lib/utils/hash.h **** 			hash_ ^= *data_++;
 6577              		.loc 4 20 14 view .LVU2469
  21:/Users/joostbooy/Desktop/Code/stm32/lib/utils/hash.h **** 			hash_ *= prime_;
 6578              		.loc 4 21 4 view .LVU2470
 6579              		.loc 4 22 4 view .LVU2471
  21:/Users/joostbooy/Desktop/Code/stm32/lib/utils/hash.h **** 			hash_ *= prime_;
 6580              		.loc 4 21 10 is_stmt 0 view .LVU2472
 6581 0838 A87D     		ldrb	r0, [r5, #22]	@ zero_extendqisi2
 6582              		.loc 4 22 10 view .LVU2473
 6583 083a BE4B     		ldr	r3, .L594
  21:/Users/joostbooy/Desktop/Code/stm32/lib/utils/hash.h **** 			hash_ *= prime_;
 6584              		.loc 4 21 10 view .LVU2474
 6585 083c 4240     		eors	r2, r2, r0
 6586              		.loc 4 22 10 view .LVU2475
 6587 083e 03FB02F2 		mul	r2, r3, r2
 6588 0842 C4F81422 		str	r2, [r4, #532]
  20:/Users/joostbooy/Desktop/Code/stm32/lib/utils/hash.h **** 			hash_ ^= *data_++;
 6589              		.loc 4 20 3 is_stmt 1 view .LVU2476
  20:/Users/joostbooy/Desktop/Code/stm32/lib/utils/hash.h **** 			hash_ ^= *data_++;
 6590              		.loc 4 20 14 view .LVU2477
 6591              	.LVL522:
  21:/Users/joostbooy/Desktop/Code/stm32/lib/utils/hash.h **** 			hash_ *= prime_;
 6592              		.loc 4 21 4 view .LVU2478
 6593              		.loc 4 22 4 view .LVU2479
  21:/Users/joostbooy/Desktop/Code/stm32/lib/utils/hash.h **** 			hash_ *= prime_;
 6594              		.loc 4 21 10 is_stmt 0 view .LVU2480
 6595 0846 EF7D     		ldrb	r7, [r5, #23]	@ zero_extendqisi2
 6596 0848 7A40     		eors	r2, r2, r7
 6597              		.loc 4 22 10 view .LVU2481
 6598 084a 03FB02F2 		mul	r2, r3, r2
 6599 084e C4F81422 		str	r2, [r4, #532]
  20:/Users/joostbooy/Desktop/Code/stm32/lib/utils/hash.h **** 			hash_ ^= *data_++;
 6600              		.loc 4 20 3 is_stmt 1 view .LVU2482
  20:/Users/joostbooy/Desktop/Code/stm32/lib/utils/hash.h **** 			hash_ ^= *data_++;
 6601              		.loc 4 20 14 view .LVU2483
 6602              	.LVL523:
  20:/Users/joostbooy/Desktop/Code/stm32/lib/utils/hash.h **** 			hash_ ^= *data_++;
 6603              		.loc 4 20 14 is_stmt 0 view .LVU2484
 6604              	.LBE926:
 6605              	.LBE929:
ARM GAS  /var/folders/84/_x1cyy_j36g486tldtwl37280000gn/T//cctc5fkA.s 			page 165


 6606              	.LBE974:
 123:Src/Settings/midiClock.h **** 		update_inc(bpm_, bpm_fractional_);
 6607              		.loc 6 123 3 is_stmt 1 view .LVU2485
 6608              	.LBB975:
  51:Src/Disk/fileReader.h **** 		read_buffer(&data, sizeof(T));
 6609              		.loc 8 51 7 view .LVU2486
 6610              	.LBB962:
 6611              	.LBB953:
  85:Src/Disk/fileReader.h **** 			if (num_read < num_readable) {
 6612              		.loc 8 85 3 view .LVU2487
  85:Src/Disk/fileReader.h **** 			if (num_read < num_readable) {
 6613              		.loc 8 85 19 view .LVU2488
  85:Src/Disk/fileReader.h **** 			if (num_read < num_readable) {
 6614              		.loc 8 85 19 is_stmt 0 view .LVU2489
 6615 0852 2B7E     		ldrb	r3, [r5, #24]	@ zero_extendqisi2
 6616              	.LBE953:
 6617              	.LBE962:
 6618              	.LBE975:
 6619              	.LBB976:
 6620              	.LBB930:
 6621              	.LBB927:
 6622              		.loc 4 22 10 view .LVU2490
 6623 0854 0020     		movs	r0, #0
 6624 0856 80E6     		b	.L419
 6625              	.LVL524:
 6626              	.L420:
 6627              		.loc 4 22 10 view .LVU2491
 6628              	.LBE927:
 6629              	.LBE930:
 6630              	.LBE976:
 6631              	.LBB977:
 6632              	.LBB963:
 6633              	.LBB954:
  90:Src/Disk/fileReader.h **** 			}
 6634              		.loc 8 90 14 view .LVU2492
 6635 0858 0020     		movs	r0, #0
 6636 085a 84F80402 		strb	r0, [r4, #516]
  85:Src/Disk/fileReader.h **** 			if (num_read < num_readable) {
 6637              		.loc 8 85 3 is_stmt 1 view .LVU2493
  85:Src/Disk/fileReader.h **** 			if (num_read < num_readable) {
 6638              		.loc 8 85 19 view .LVU2494
 6639 085e 2B7E     		ldrb	r3, [r5, #24]	@ zero_extendqisi2
 6640 0860 D4F81422 		ldr	r2, [r4, #532]
 6641 0864 79E6     		b	.L419
 6642              	.LVL525:
 6643              	.L415:
  85:Src/Disk/fileReader.h **** 			if (num_read < num_readable) {
 6644              		.loc 8 85 19 is_stmt 0 view .LVU2495
 6645              	.LBE954:
 6646              	.LBE963:
 6647              	.LBE977:
 6648              	.LBB978:
 6649              	.LBB931:
 6650              	.LBB918:
  90:Src/Disk/fileReader.h **** 			}
 6651              		.loc 8 90 14 view .LVU2496
 6652 0866 0027     		movs	r7, #0
ARM GAS  /var/folders/84/_x1cyy_j36g486tldtwl37280000gn/T//cctc5fkA.s 			page 166


 6653 0868 84F80472 		strb	r7, [r4, #516]
  85:Src/Disk/fileReader.h **** 			if (num_read < num_readable) {
 6654              		.loc 8 85 3 is_stmt 1 view .LVU2497
  85:Src/Disk/fileReader.h **** 			if (num_read < num_readable) {
 6655              		.loc 8 85 19 view .LVU2498
 6656              	.L414:
  85:Src/Disk/fileReader.h **** 			if (num_read < num_readable) {
 6657              		.loc 8 85 19 is_stmt 0 view .LVU2499
 6658 086c D4F81422 		ldr	r2, [r4, #532]
 6659 0870 E2E7     		b	.L409
 6660              	.LVL526:
 6661              	.L437:
  85:Src/Disk/fileReader.h **** 			if (num_read < num_readable) {
 6662              		.loc 8 85 19 view .LVU2500
 6663 0872 05F5BC56 		add	r6, r5, #6016
 6664 0876 0C36     		adds	r6, r6, #12
 6665 0878 8C35     		adds	r5, r5, #140
 6666              	.LVL527:
 6667              	.L439:
  85:Src/Disk/fileReader.h **** 			if (num_read < num_readable) {
 6668              		.loc 8 85 19 view .LVU2501
 6669              	.LBE918:
 6670              	.LBE931:
 6671              	.LBE978:
 6672              	.LBE982:
 6673              	.LBE1040:
 6674              	.LBB1041:
  77:Src/Settings/song.cpp **** 	}
  78:Src/Settings/song.cpp **** 
  79:Src/Settings/song.cpp **** 	// tracks
  80:Src/Settings/song.cpp **** 	for (int i = 0; i < max_tracks(); ++i) {
  81:Src/Settings/song.cpp **** 		track_[i].load(fileReader);
 6675              		.loc 1 81 3 is_stmt 1 discriminator 2 view .LVU2502
 6676              		.loc 1 81 17 is_stmt 0 discriminator 2 view .LVU2503
 6677 087a 2846     		mov	r0, r5
 6678 087c 2146     		mov	r1, r4
 6679 087e 05F5B875 		add	r5, r5, #368
 6680 0882 FFF7FEFF 		bl	_ZN5Track4loadER10FileReader
 6681              	.LVL528:
  80:Src/Settings/song.cpp **** 		track_[i].load(fileReader);
 6682              		.loc 1 80 2 is_stmt 1 discriminator 2 view .LVU2504
  80:Src/Settings/song.cpp **** 		track_[i].load(fileReader);
 6683              		.loc 1 80 20 discriminator 2 view .LVU2505
  80:Src/Settings/song.cpp **** 		track_[i].load(fileReader);
 6684              		.loc 1 80 20 is_stmt 0 discriminator 2 view .LVU2506
 6685              	.LBE1041:
 6686              		.loc 7 65 3 is_stmt 1 discriminator 2 view .LVU2507
 6687              	.LBB1042:
  80:Src/Settings/song.cpp **** 		track_[i].load(fileReader);
 6688              		.loc 1 80 20 is_stmt 0 discriminator 2 view .LVU2508
 6689 0886 B542     		cmp	r5, r6
 6690 0888 F7D1     		bne	.L439
 6691              	.LVL529:
  80:Src/Settings/song.cpp **** 		track_[i].load(fileReader);
 6692              		.loc 1 80 20 discriminator 2 view .LVU2509
 6693              	.LBE1042:
 6694              	.LBB1043:
ARM GAS  /var/folders/84/_x1cyy_j36g486tldtwl37280000gn/T//cctc5fkA.s 			page 167


 6695              	.LBB1044:
 6696              	.LBB1045:
  85:Src/Disk/fileReader.h **** 			if (num_read < num_readable) {
 6697              		.loc 8 85 3 is_stmt 1 view .LVU2510
  85:Src/Disk/fileReader.h **** 			if (num_read < num_readable) {
 6698              		.loc 8 85 19 view .LVU2511
  85:Src/Disk/fileReader.h **** 			if (num_read < num_readable) {
 6699              		.loc 8 85 10 is_stmt 0 view .LVU2512
 6700 088a 94F80432 		ldrb	r3, [r4, #516]	@ zero_extendqisi2
  85:Src/Disk/fileReader.h **** 			if (num_read < num_readable) {
 6701              		.loc 8 85 19 view .LVU2513
 6702 088e 002B     		cmp	r3, #0
 6703 0890 3CD0     		beq	.L441
  86:Src/Disk/fileReader.h **** 				*data_++ = buffer[num_read++];
 6704              		.loc 8 86 4 view .LVU2514
 6705 0892 D4E9823E 		ldrd	r3, lr, [r4, #520]
  83:Src/Disk/fileReader.h **** 
 6706              		.loc 8 83 12 view .LVU2515
 6707 0896 A84F     		ldr	r7, .L594+4
  86:Src/Disk/fileReader.h **** 				*data_++ = buffer[num_read++];
 6708              		.loc 8 86 4 view .LVU2516
 6709 0898 7345     		cmp	r3, lr
  85:Src/Disk/fileReader.h **** 			if (num_read < num_readable) {
 6710              		.loc 8 85 19 view .LVU2517
 6711 089a 4FF48075 		mov	r5, #256
  86:Src/Disk/fileReader.h **** 				*data_++ = buffer[num_read++];
 6712              		.loc 8 86 4 is_stmt 1 view .LVU2518
  87:Src/Disk/fileReader.h **** 				--size;
 6713              		.loc 8 87 5 view .LVU2519
  87:Src/Disk/fileReader.h **** 				--size;
 6714              		.loc 8 87 11 is_stmt 0 view .LVU2520
 6715 089e 3E46     		mov	r6, r7
 6716              	.LVL530:
  87:Src/Disk/fileReader.h **** 				--size;
 6717              		.loc 8 87 31 view .LVU2521
 6718 08a0 03F10100 		add	r0, r3, #1
  86:Src/Disk/fileReader.h **** 				*data_++ = buffer[num_read++];
 6719              		.loc 8 86 4 view .LVU2522
 6720 08a4 11D2     		bcs	.L442
 6721              	.LVL531:
 6722              	.L586:
  87:Src/Disk/fileReader.h **** 				--size;
 6723              		.loc 8 87 31 view .LVU2523
 6724 08a6 C4F80802 		str	r0, [r4, #520]
  87:Src/Disk/fileReader.h **** 				--size;
 6725              		.loc 8 87 33 view .LVU2524
 6726 08aa E75C     		ldrb	r7, [r4, r3]	@ zero_extendqisi2
  87:Src/Disk/fileReader.h **** 				--size;
 6727              		.loc 8 87 14 view .LVU2525
 6728 08ac 06F8017B 		strb	r7, [r6], #1
  88:Src/Disk/fileReader.h **** 			} else {
 6729              		.loc 8 88 5 is_stmt 1 view .LVU2526
 6730              	.LVL532:
  88:Src/Disk/fileReader.h **** 			} else {
 6731              		.loc 8 88 5 is_stmt 0 view .LVU2527
 6732 08b0 94F80432 		ldrb	r3, [r4, #516]	@ zero_extendqisi2
 6733 08b4 013D     		subs	r5, r5, #1
ARM GAS  /var/folders/84/_x1cyy_j36g486tldtwl37280000gn/T//cctc5fkA.s 			page 168


 6734              	.LVL533:
  85:Src/Disk/fileReader.h **** 			if (num_read < num_readable) {
 6735              		.loc 8 85 3 is_stmt 1 view .LVU2528
  85:Src/Disk/fileReader.h **** 			if (num_read < num_readable) {
 6736              		.loc 8 85 19 view .LVU2529
 6737 08b6 4BB3     		cbz	r3, .L441
 6738 08b8 45B3     		cbz	r5, .L441
  90:Src/Disk/fileReader.h **** 			}
 6739              		.loc 8 90 14 is_stmt 0 view .LVU2530
 6740 08ba 3746     		mov	r7, r6
 6741              	.LVL534:
 6742              	.L587:
  86:Src/Disk/fileReader.h **** 				*data_++ = buffer[num_read++];
 6743              		.loc 8 86 4 is_stmt 1 view .LVU2531
  87:Src/Disk/fileReader.h **** 				--size;
 6744              		.loc 8 87 5 view .LVU2532
  86:Src/Disk/fileReader.h **** 				*data_++ = buffer[num_read++];
 6745              		.loc 8 86 4 is_stmt 0 view .LVU2533
 6746 08bc D4E9823E 		ldrd	r3, lr, [r4, #520]
 6747 08c0 7345     		cmp	r3, lr
  87:Src/Disk/fileReader.h **** 				--size;
 6748              		.loc 8 87 11 view .LVU2534
 6749 08c2 3E46     		mov	r6, r7
 6750              	.LVL535:
  87:Src/Disk/fileReader.h **** 				--size;
 6751              		.loc 8 87 31 view .LVU2535
 6752 08c4 03F10100 		add	r0, r3, #1
  86:Src/Disk/fileReader.h **** 				*data_++ = buffer[num_read++];
 6753              		.loc 8 86 4 view .LVU2536
 6754 08c8 EDD3     		bcc	.L586
 6755              	.LVL536:
 6756              	.L442:
  90:Src/Disk/fileReader.h **** 			}
 6757              		.loc 8 90 5 is_stmt 1 view .LVU2537
 6758              	.LBB1046:
 6759              	.LBI1046:
  95:Src/Disk/fileReader.h **** 		num_read = 0;
 6760              		.loc 8 95 7 view .LVU2538
 6761              	.LBB1047:
  96:Src/Disk/fileReader.h **** 		if (file_->read(buffer, kBufferSize, &num_readable)) {
 6762              		.loc 8 96 3 view .LVU2539
  97:Src/Disk/fileReader.h **** 			return (num_readable >= requested_size) || (num_readable >= kBufferSize);
 6763              		.loc 8 97 18 is_stmt 0 view .LVU2540
 6764 08ca D4F80022 		ldr	r2, [r4, #512]
  96:Src/Disk/fileReader.h **** 		if (file_->read(buffer, kBufferSize, &num_readable)) {
 6765              		.loc 8 96 12 view .LVU2541
 6766 08ce 0021     		movs	r1, #0
 6767              	.LBB1048:
 6768              	.LBB1049:
  58:Src/Disk/file.h **** 		if (num_read) {
 6769              		.loc 3 58 23 view .LVU2542
 6770 08d0 1068     		ldr	r0, [r2]
 6771              	.LBE1049:
 6772              	.LBE1048:
  96:Src/Disk/fileReader.h **** 		if (file_->read(buffer, kBufferSize, &num_readable)) {
 6773              		.loc 8 96 12 view .LVU2543
 6774 08d2 C4F80812 		str	r1, [r4, #520]
ARM GAS  /var/folders/84/_x1cyy_j36g486tldtwl37280000gn/T//cctc5fkA.s 			page 169


  97:Src/Disk/fileReader.h **** 			return (num_readable >= requested_size) || (num_readable >= kBufferSize);
 6775              		.loc 8 97 3 is_stmt 1 view .LVU2544
 6776              	.LVL537:
 6777              	.LBB1052:
 6778              	.LBI1048:
  56:Src/Disk/file.h **** 		UINT br;
 6779              		.loc 3 56 7 view .LVU2545
 6780              	.LBB1050:
  57:Src/Disk/file.h **** 		FRESULT res = f_read(fil, data, size, &br);
 6781              		.loc 3 57 3 view .LVU2546
  58:Src/Disk/file.h **** 		if (num_read) {
 6782              		.loc 3 58 3 view .LVU2547
  58:Src/Disk/file.h **** 		if (num_read) {
 6783              		.loc 3 58 23 is_stmt 0 view .LVU2548
 6784 08d6 01AB     		add	r3, sp, #4
 6785 08d8 4FF40072 		mov	r2, #512
 6786              	.LVL538:
  58:Src/Disk/file.h **** 		if (num_read) {
 6787              		.loc 3 58 23 view .LVU2549
 6788 08dc 2146     		mov	r1, r4
 6789 08de FFF7FEFF 		bl	f_read
 6790              	.LVL539:
  60:Src/Disk/file.h **** 		}
 6791              		.loc 3 60 14 view .LVU2550
 6792 08e2 019E     		ldr	r6, [sp, #4]
 6793 08e4 C4F80C62 		str	r6, [r4, #524]
 6794              	.LVL540:
  59:Src/Disk/file.h **** 			*num_read = br;
 6795              		.loc 3 59 3 is_stmt 1 view .LVU2551
  60:Src/Disk/file.h **** 		}
 6796              		.loc 3 60 4 view .LVU2552
 6797              		.loc 3 62 3 view .LVU2553
 6798              		.loc 3 62 19 is_stmt 0 view .LVU2554
 6799 08e8 002E     		cmp	r6, #0
 6800 08ea 00F00E81 		beq	.L444
 6801              	.LVL541:
 6802              		.loc 3 62 19 view .LVU2555
 6803              	.LBE1050:
 6804              	.LBE1052:
 6805              		.loc 8 98 4 is_stmt 1 view .LVU2556
 6806              	.LBB1053:
 6807              	.LBB1051:
 6808              		.loc 3 62 19 is_stmt 0 view .LVU2557
 6809 08ee 0028     		cmp	r0, #0
 6810 08f0 40F00B81 		bne	.L444
 6811              	.LVL542:
 6812              		.loc 3 62 19 view .LVU2558
 6813              	.LBE1051:
 6814              	.LBE1053:
 6815              		.loc 8 98 44 view .LVU2559
 6816 08f4 AE42     		cmp	r6, r5
 6817              	.LBE1047:
 6818              	.LBE1046:
  90:Src/Disk/fileReader.h **** 			}
 6819              		.loc 8 90 14 view .LVU2560
 6820 08f6 4FF0010C 		mov	ip, #1
 6821              	.LBB1056:
ARM GAS  /var/folders/84/_x1cyy_j36g486tldtwl37280000gn/T//cctc5fkA.s 			page 170


 6822              	.LBB1054:
 6823              		.loc 8 98 44 view .LVU2561
 6824 08fa 04D3     		bcc	.L446
 6825              	.LBE1054:
 6826              	.LBE1056:
  90:Src/Disk/fileReader.h **** 			}
 6827              		.loc 8 90 14 view .LVU2562
 6828 08fc 3E46     		mov	r6, r7
 6829 08fe 84F804C2 		strb	ip, [r4, #516]
  85:Src/Disk/fileReader.h **** 			if (num_read < num_readable) {
 6830              		.loc 8 85 3 is_stmt 1 view .LVU2563
  85:Src/Disk/fileReader.h **** 			if (num_read < num_readable) {
 6831              		.loc 8 85 19 view .LVU2564
 6832              	.LVL543:
  90:Src/Disk/fileReader.h **** 			}
 6833              		.loc 8 90 14 is_stmt 0 view .LVU2565
 6834 0902 3746     		mov	r7, r6
 6835 0904 DAE7     		b	.L587
 6836              	.LVL544:
 6837              	.L446:
  90:Src/Disk/fileReader.h **** 			}
 6838              		.loc 8 90 14 view .LVU2566
 6839 0906 84F80402 		strb	r0, [r4, #516]
  85:Src/Disk/fileReader.h **** 			if (num_read < num_readable) {
 6840              		.loc 8 85 3 is_stmt 1 view .LVU2567
  85:Src/Disk/fileReader.h **** 			if (num_read < num_readable) {
 6841              		.loc 8 85 19 view .LVU2568
 6842              	.LBB1057:
 6843              	.LBB1055:
 6844              		.loc 8 98 44 is_stmt 0 view .LVU2569
 6845 090a 0346     		mov	r3, r0
 6846              	.L441:
 6847              		.loc 8 98 44 view .LVU2570
 6848 090c 8A4A     		ldr	r2, .L594+4
 6849 090e D4F81402 		ldr	r0, [r4, #532]
 6850 0912 02F58079 		add	r9, r2, #256
 6851              	.L448:
 6852              	.LVL545:
 6853              		.loc 8 98 44 view .LVU2571
 6854              	.LBE1055:
 6855              	.LBE1057:
 6856              	.LBE1045:
 6857              	.LBE1044:
 6858              	.LBB1059:
 6859              	.LBB1060:
  21:/Users/joostbooy/Desktop/Code/stm32/lib/utils/hash.h **** 			hash_ *= prime_;
 6860              		.loc 4 21 4 is_stmt 1 view .LVU2572
  21:/Users/joostbooy/Desktop/Code/stm32/lib/utils/hash.h **** 			hash_ *= prime_;
 6861              		.loc 4 21 19 is_stmt 0 view .LVU2573
 6862 0916 9046     		mov	r8, r2
 6863              		.loc 4 22 4 is_stmt 1 view .LVU2574
 6864              		.loc 4 22 10 is_stmt 0 view .LVU2575
 6865 0918 8649     		ldr	r1, .L594
  21:/Users/joostbooy/Desktop/Code/stm32/lib/utils/hash.h **** 			hash_ *= prime_;
 6866              		.loc 4 21 10 view .LVU2576
 6867 091a 18F8016B 		ldrb	r6, [r8], #1	@ zero_extendqisi2
 6868 091e 7040     		eors	r0, r0, r6
ARM GAS  /var/folders/84/_x1cyy_j36g486tldtwl37280000gn/T//cctc5fkA.s 			page 171


 6869              		.loc 4 22 10 view .LVU2577
 6870 0920 01FB00F7 		mul	r7, r1, r0
 6871 0924 C4F81472 		str	r7, [r4, #532]
  20:/Users/joostbooy/Desktop/Code/stm32/lib/utils/hash.h **** 			hash_ ^= *data_++;
 6872              		.loc 4 20 3 is_stmt 1 view .LVU2578
  20:/Users/joostbooy/Desktop/Code/stm32/lib/utils/hash.h **** 			hash_ ^= *data_++;
 6873              		.loc 4 20 14 view .LVU2579
  21:/Users/joostbooy/Desktop/Code/stm32/lib/utils/hash.h **** 			hash_ *= prime_;
 6874              		.loc 4 21 4 view .LVU2580
 6875              		.loc 4 22 4 view .LVU2581
  21:/Users/joostbooy/Desktop/Code/stm32/lib/utils/hash.h **** 			hash_ *= prime_;
 6876              		.loc 4 21 10 is_stmt 0 view .LVU2582
 6877 0928 98F80000 		ldrb	r0, [r8]	@ zero_extendqisi2
 6878 092c 7840     		eors	r0, r0, r7
 6879              		.loc 4 22 10 view .LVU2583
 6880 092e 01FB00F5 		mul	r5, r1, r0
 6881 0932 C4F81452 		str	r5, [r4, #532]
  20:/Users/joostbooy/Desktop/Code/stm32/lib/utils/hash.h **** 			hash_ ^= *data_++;
 6882              		.loc 4 20 3 is_stmt 1 view .LVU2584
  20:/Users/joostbooy/Desktop/Code/stm32/lib/utils/hash.h **** 			hash_ ^= *data_++;
 6883              		.loc 4 20 14 view .LVU2585
  21:/Users/joostbooy/Desktop/Code/stm32/lib/utils/hash.h **** 			hash_ *= prime_;
 6884              		.loc 4 21 4 view .LVU2586
 6885              		.loc 4 22 4 view .LVU2587
  21:/Users/joostbooy/Desktop/Code/stm32/lib/utils/hash.h **** 			hash_ *= prime_;
 6886              		.loc 4 21 10 is_stmt 0 view .LVU2588
 6887 0936 9678     		ldrb	r6, [r2, #2]	@ zero_extendqisi2
 6888 0938 6E40     		eors	r6, r6, r5
 6889              		.loc 4 22 10 view .LVU2589
 6890 093a 01FB06F7 		mul	r7, r1, r6
 6891 093e C4F81472 		str	r7, [r4, #532]
  20:/Users/joostbooy/Desktop/Code/stm32/lib/utils/hash.h **** 			hash_ ^= *data_++;
 6892              		.loc 4 20 3 is_stmt 1 view .LVU2590
  20:/Users/joostbooy/Desktop/Code/stm32/lib/utils/hash.h **** 			hash_ ^= *data_++;
 6893              		.loc 4 20 14 view .LVU2591
  21:/Users/joostbooy/Desktop/Code/stm32/lib/utils/hash.h **** 			hash_ *= prime_;
 6894              		.loc 4 21 4 view .LVU2592
 6895              		.loc 4 22 4 view .LVU2593
  21:/Users/joostbooy/Desktop/Code/stm32/lib/utils/hash.h **** 			hash_ *= prime_;
 6896              		.loc 4 21 10 is_stmt 0 view .LVU2594
 6897 0942 D078     		ldrb	r0, [r2, #3]	@ zero_extendqisi2
 6898 0944 7840     		eors	r0, r0, r7
 6899              		.loc 4 22 10 view .LVU2595
 6900 0946 01FB00F5 		mul	r5, r1, r0
 6901 094a C4F81452 		str	r5, [r4, #532]
  20:/Users/joostbooy/Desktop/Code/stm32/lib/utils/hash.h **** 			hash_ ^= *data_++;
 6902              		.loc 4 20 3 is_stmt 1 view .LVU2596
  20:/Users/joostbooy/Desktop/Code/stm32/lib/utils/hash.h **** 			hash_ ^= *data_++;
 6903              		.loc 4 20 14 view .LVU2597
  21:/Users/joostbooy/Desktop/Code/stm32/lib/utils/hash.h **** 			hash_ *= prime_;
 6904              		.loc 4 21 4 view .LVU2598
 6905              		.loc 4 22 4 view .LVU2599
  21:/Users/joostbooy/Desktop/Code/stm32/lib/utils/hash.h **** 			hash_ *= prime_;
 6906              		.loc 4 21 10 is_stmt 0 view .LVU2600
 6907 094e 1679     		ldrb	r6, [r2, #4]	@ zero_extendqisi2
 6908 0950 6E40     		eors	r6, r6, r5
 6909              		.loc 4 22 10 view .LVU2601
ARM GAS  /var/folders/84/_x1cyy_j36g486tldtwl37280000gn/T//cctc5fkA.s 			page 172


 6910 0952 01FB06F7 		mul	r7, r1, r6
 6911 0956 C4F81472 		str	r7, [r4, #532]
  20:/Users/joostbooy/Desktop/Code/stm32/lib/utils/hash.h **** 			hash_ ^= *data_++;
 6912              		.loc 4 20 3 is_stmt 1 view .LVU2602
  20:/Users/joostbooy/Desktop/Code/stm32/lib/utils/hash.h **** 			hash_ ^= *data_++;
 6913              		.loc 4 20 14 view .LVU2603
  21:/Users/joostbooy/Desktop/Code/stm32/lib/utils/hash.h **** 			hash_ *= prime_;
 6914              		.loc 4 21 4 view .LVU2604
 6915              		.loc 4 22 4 view .LVU2605
  21:/Users/joostbooy/Desktop/Code/stm32/lib/utils/hash.h **** 			hash_ *= prime_;
 6916              		.loc 4 21 10 is_stmt 0 view .LVU2606
 6917 095a 5079     		ldrb	r0, [r2, #5]	@ zero_extendqisi2
 6918 095c 7840     		eors	r0, r0, r7
 6919              		.loc 4 22 10 view .LVU2607
 6920 095e 01FB00F5 		mul	r5, r1, r0
 6921 0962 C4F81452 		str	r5, [r4, #532]
  20:/Users/joostbooy/Desktop/Code/stm32/lib/utils/hash.h **** 			hash_ ^= *data_++;
 6922              		.loc 4 20 3 is_stmt 1 view .LVU2608
  20:/Users/joostbooy/Desktop/Code/stm32/lib/utils/hash.h **** 			hash_ ^= *data_++;
 6923              		.loc 4 20 14 view .LVU2609
  21:/Users/joostbooy/Desktop/Code/stm32/lib/utils/hash.h **** 			hash_ *= prime_;
 6924              		.loc 4 21 4 view .LVU2610
 6925              		.loc 4 22 4 view .LVU2611
  21:/Users/joostbooy/Desktop/Code/stm32/lib/utils/hash.h **** 			hash_ *= prime_;
 6926              		.loc 4 21 10 is_stmt 0 view .LVU2612
 6927 0966 9679     		ldrb	r6, [r2, #6]	@ zero_extendqisi2
 6928 0968 6E40     		eors	r6, r6, r5
 6929              		.loc 4 22 10 view .LVU2613
 6930 096a 01FB06F7 		mul	r7, r1, r6
  21:/Users/joostbooy/Desktop/Code/stm32/lib/utils/hash.h **** 			hash_ *= prime_;
 6931              		.loc 4 21 19 view .LVU2614
 6932 096e 0832     		adds	r2, r2, #8
 6933              		.loc 4 22 10 view .LVU2615
 6934 0970 C4F81472 		str	r7, [r4, #532]
  20:/Users/joostbooy/Desktop/Code/stm32/lib/utils/hash.h **** 			hash_ ^= *data_++;
 6935              		.loc 4 20 3 is_stmt 1 view .LVU2616
  20:/Users/joostbooy/Desktop/Code/stm32/lib/utils/hash.h **** 			hash_ ^= *data_++;
 6936              		.loc 4 20 14 view .LVU2617
  21:/Users/joostbooy/Desktop/Code/stm32/lib/utils/hash.h **** 			hash_ *= prime_;
 6937              		.loc 4 21 4 view .LVU2618
 6938              	.LVL546:
 6939              		.loc 4 22 4 view .LVU2619
  21:/Users/joostbooy/Desktop/Code/stm32/lib/utils/hash.h **** 			hash_ *= prime_;
 6940              		.loc 4 21 10 is_stmt 0 view .LVU2620
 6941 0974 12F8010C 		ldrb	r0, [r2, #-1]	@ zero_extendqisi2
 6942 0978 7840     		eors	r0, r0, r7
 6943              		.loc 4 22 10 view .LVU2621
 6944 097a 01FB00F0 		mul	r0, r1, r0
  20:/Users/joostbooy/Desktop/Code/stm32/lib/utils/hash.h **** 			hash_ ^= *data_++;
 6945              		.loc 4 20 14 view .LVU2622
 6946 097e 4A45     		cmp	r2, r9
 6947              		.loc 4 22 10 view .LVU2623
 6948 0980 C4F81402 		str	r0, [r4, #532]
  20:/Users/joostbooy/Desktop/Code/stm32/lib/utils/hash.h **** 			hash_ ^= *data_++;
 6949              		.loc 4 20 3 is_stmt 1 view .LVU2624
  20:/Users/joostbooy/Desktop/Code/stm32/lib/utils/hash.h **** 			hash_ ^= *data_++;
 6950              		.loc 4 20 14 view .LVU2625
ARM GAS  /var/folders/84/_x1cyy_j36g486tldtwl37280000gn/T//cctc5fkA.s 			page 173


 6951              	.LVL547:
  20:/Users/joostbooy/Desktop/Code/stm32/lib/utils/hash.h **** 			hash_ ^= *data_++;
 6952              		.loc 4 20 14 is_stmt 0 view .LVU2626
 6953 0984 C7D1     		bne	.L448
 6954 0986 DFF8C081 		ldr	r8, .L594+20
 6955              	.LVL548:
  20:/Users/joostbooy/Desktop/Code/stm32/lib/utils/hash.h **** 			hash_ ^= *data_++;
 6956              		.loc 4 20 14 view .LVU2627
 6957 098a 6C4E     		ldr	r6, .L594+8
 6958              	.LVL549:
 6959              	.L459:
  20:/Users/joostbooy/Desktop/Code/stm32/lib/utils/hash.h **** 			hash_ ^= *data_++;
 6960              		.loc 4 20 14 view .LVU2628
 6961              	.LBE1060:
 6962              	.LBE1059:
 6963              	.LBE1043:
 6964              	.LBB1062:
  82:Src/Settings/song.cpp **** 	}
  83:Src/Settings/song.cpp **** 
  84:Src/Settings/song.cpp **** 	// patterns
  85:Src/Settings/song.cpp **** 	fileReader.read(TrackData::pattern_pool_);
  86:Src/Settings/song.cpp **** 
  87:Src/Settings/song.cpp **** 	for (int i = 0; i < TrackData::kMaxPatterns; ++i) {
  88:Src/Settings/song.cpp **** 		fileReader.read(TrackData::pattern_[i]);
 6965              		.loc 1 88 3 is_stmt 1 discriminator 2 view .LVU2629
 6966              		.loc 1 88 40 is_stmt 0 discriminator 2 view .LVU2630
 6967 098c 4546     		mov	r5, r8
 6968              	.LVL550:
 6969              	.LBB1063:
 6970              	.LBI1063:
  51:Src/Disk/fileReader.h **** 		read_buffer(&data, sizeof(T));
 6971              		.loc 8 51 7 is_stmt 1 discriminator 2 view .LVU2631
 6972              	.LBB1064:
 6973              	.LBI1064:
  82:Src/Disk/fileReader.h **** 		uint8_t *data_ = reinterpret_cast<uint8_t *>(data);
 6974              		.loc 8 82 7 discriminator 2 view .LVU2632
 6975              	.LBB1065:
  85:Src/Disk/fileReader.h **** 			if (num_read < num_readable) {
 6976              		.loc 8 85 3 discriminator 2 view .LVU2633
  85:Src/Disk/fileReader.h **** 			if (num_read < num_readable) {
 6977              		.loc 8 85 19 discriminator 2 view .LVU2634
 6978 098e 002B     		cmp	r3, #0
 6979 0990 3AD0     		beq	.L450
  86:Src/Disk/fileReader.h **** 				*data_++ = buffer[num_read++];
 6980              		.loc 8 86 4 is_stmt 0 view .LVU2635
 6981 0992 D4E9822C 		ldrd	r2, ip, [r4, #520]
  83:Src/Disk/fileReader.h **** 
 6982              		.loc 8 83 12 view .LVU2636
 6983 0996 C246     		mov	r10, r8
  86:Src/Disk/fileReader.h **** 				*data_++ = buffer[num_read++];
 6984              		.loc 8 86 4 view .LVU2637
 6985 0998 6245     		cmp	r2, ip
  85:Src/Disk/fileReader.h **** 			if (num_read < num_readable) {
 6986              		.loc 8 85 19 view .LVU2638
 6987 099a 4FF0B807 		mov	r7, #184
  86:Src/Disk/fileReader.h **** 				*data_++ = buffer[num_read++];
 6988              		.loc 8 86 4 is_stmt 1 view .LVU2639
ARM GAS  /var/folders/84/_x1cyy_j36g486tldtwl37280000gn/T//cctc5fkA.s 			page 174


  87:Src/Disk/fileReader.h **** 				--size;
 6989              		.loc 8 87 5 view .LVU2640
  87:Src/Disk/fileReader.h **** 				--size;
 6990              		.loc 8 87 11 is_stmt 0 view .LVU2641
 6991 099e D146     		mov	r9, r10
 6992              	.LVL551:
  87:Src/Disk/fileReader.h **** 				--size;
 6993              		.loc 8 87 31 view .LVU2642
 6994 09a0 02F10101 		add	r1, r2, #1
  86:Src/Disk/fileReader.h **** 				*data_++ = buffer[num_read++];
 6995              		.loc 8 86 4 view .LVU2643
 6996 09a4 11D2     		bcs	.L451
 6997              	.LVL552:
 6998              	.L588:
  87:Src/Disk/fileReader.h **** 				--size;
 6999              		.loc 8 87 31 view .LVU2644
 7000 09a6 C4F80812 		str	r1, [r4, #520]
  87:Src/Disk/fileReader.h **** 				--size;
 7001              		.loc 8 87 33 view .LVU2645
 7002 09aa A05C     		ldrb	r0, [r4, r2]	@ zero_extendqisi2
  87:Src/Disk/fileReader.h **** 				--size;
 7003              		.loc 8 87 14 view .LVU2646
 7004 09ac 09F8010B 		strb	r0, [r9], #1
  88:Src/Disk/fileReader.h **** 			} else {
 7005              		.loc 8 88 5 is_stmt 1 view .LVU2647
 7006              	.LVL553:
  85:Src/Disk/fileReader.h **** 			if (num_read < num_readable) {
 7007              		.loc 8 85 19 is_stmt 0 view .LVU2648
 7008 09b0 94F80432 		ldrb	r3, [r4, #516]	@ zero_extendqisi2
  88:Src/Disk/fileReader.h **** 			} else {
 7009              		.loc 8 88 5 view .LVU2649
 7010 09b4 013F     		subs	r7, r7, #1
 7011              	.LVL554:
  85:Src/Disk/fileReader.h **** 			if (num_read < num_readable) {
 7012              		.loc 8 85 3 is_stmt 1 view .LVU2650
  85:Src/Disk/fileReader.h **** 			if (num_read < num_readable) {
 7013              		.loc 8 85 19 view .LVU2651
 7014 09b6 3BB3     		cbz	r3, .L450
 7015 09b8 37B3     		cbz	r7, .L450
  90:Src/Disk/fileReader.h **** 			}
 7016              		.loc 8 90 14 is_stmt 0 view .LVU2652
 7017 09ba CA46     		mov	r10, r9
 7018              	.LVL555:
 7019              	.L589:
  86:Src/Disk/fileReader.h **** 				*data_++ = buffer[num_read++];
 7020              		.loc 8 86 4 is_stmt 1 view .LVU2653
  87:Src/Disk/fileReader.h **** 				--size;
 7021              		.loc 8 87 5 view .LVU2654
  86:Src/Disk/fileReader.h **** 				*data_++ = buffer[num_read++];
 7022              		.loc 8 86 4 is_stmt 0 view .LVU2655
 7023 09bc D4E9822C 		ldrd	r2, ip, [r4, #520]
 7024 09c0 6245     		cmp	r2, ip
  87:Src/Disk/fileReader.h **** 				--size;
 7025              		.loc 8 87 11 view .LVU2656
 7026 09c2 D146     		mov	r9, r10
 7027              	.LVL556:
  87:Src/Disk/fileReader.h **** 				--size;
ARM GAS  /var/folders/84/_x1cyy_j36g486tldtwl37280000gn/T//cctc5fkA.s 			page 175


 7028              		.loc 8 87 31 view .LVU2657
 7029 09c4 02F10101 		add	r1, r2, #1
  86:Src/Disk/fileReader.h **** 				*data_++ = buffer[num_read++];
 7030              		.loc 8 86 4 view .LVU2658
 7031 09c8 EDD3     		bcc	.L588
 7032              	.LVL557:
 7033              	.L451:
  90:Src/Disk/fileReader.h **** 			}
 7034              		.loc 8 90 5 is_stmt 1 view .LVU2659
 7035              	.LBB1066:
 7036              	.LBI1066:
  95:Src/Disk/fileReader.h **** 		num_read = 0;
 7037              		.loc 8 95 7 view .LVU2660
 7038              	.LBB1067:
  96:Src/Disk/fileReader.h **** 		if (file_->read(buffer, kBufferSize, &num_readable)) {
 7039              		.loc 8 96 3 view .LVU2661
  97:Src/Disk/fileReader.h **** 			return (num_readable >= requested_size) || (num_readable >= kBufferSize);
 7040              		.loc 8 97 18 is_stmt 0 view .LVU2662
 7041 09ca D4F80002 		ldr	r0, [r4, #512]
  96:Src/Disk/fileReader.h **** 		if (file_->read(buffer, kBufferSize, &num_readable)) {
 7042              		.loc 8 96 12 view .LVU2663
 7043 09ce 0023     		movs	r3, #0
 7044              	.LBB1068:
 7045              	.LBB1069:
  58:Src/Disk/file.h **** 		if (num_read) {
 7046              		.loc 3 58 23 view .LVU2664
 7047 09d0 0068     		ldr	r0, [r0]
 7048              	.LBE1069:
 7049              	.LBE1068:
  96:Src/Disk/fileReader.h **** 		if (file_->read(buffer, kBufferSize, &num_readable)) {
 7050              		.loc 8 96 12 view .LVU2665
 7051 09d2 C4F80832 		str	r3, [r4, #520]
  97:Src/Disk/fileReader.h **** 			return (num_readable >= requested_size) || (num_readable >= kBufferSize);
 7052              		.loc 8 97 3 is_stmt 1 view .LVU2666
 7053              	.LVL558:
 7054              	.LBB1072:
 7055              	.LBI1068:
  56:Src/Disk/file.h **** 		UINT br;
 7056              		.loc 3 56 7 view .LVU2667
 7057              	.LBB1070:
  57:Src/Disk/file.h **** 		FRESULT res = f_read(fil, data, size, &br);
 7058              		.loc 3 57 3 view .LVU2668
  58:Src/Disk/file.h **** 		if (num_read) {
 7059              		.loc 3 58 3 view .LVU2669
  58:Src/Disk/file.h **** 		if (num_read) {
 7060              		.loc 3 58 23 is_stmt 0 view .LVU2670
 7061 09d6 4FF40072 		mov	r2, #512
 7062 09da 01AB     		add	r3, sp, #4
 7063 09dc 2146     		mov	r1, r4
 7064 09de FFF7FEFF 		bl	f_read
 7065              	.LVL559:
  60:Src/Disk/file.h **** 		}
 7066              		.loc 3 60 14 view .LVU2671
 7067 09e2 019A     		ldr	r2, [sp, #4]
 7068 09e4 C4F80C22 		str	r2, [r4, #524]
 7069              	.LVL560:
  59:Src/Disk/file.h **** 			*num_read = br;
ARM GAS  /var/folders/84/_x1cyy_j36g486tldtwl37280000gn/T//cctc5fkA.s 			page 176


 7070              		.loc 3 59 3 is_stmt 1 view .LVU2672
  60:Src/Disk/file.h **** 		}
 7071              		.loc 3 60 4 view .LVU2673
 7072              		.loc 3 62 3 view .LVU2674
 7073              		.loc 3 62 19 is_stmt 0 view .LVU2675
 7074 09e8 002A     		cmp	r2, #0
 7075 09ea 00F08A80 		beq	.L453
 7076              	.LVL561:
 7077              		.loc 3 62 19 view .LVU2676
 7078              	.LBE1070:
 7079              	.LBE1072:
 7080              		.loc 8 98 4 is_stmt 1 view .LVU2677
 7081              	.LBB1073:
 7082              	.LBB1071:
 7083              		.loc 3 62 19 is_stmt 0 view .LVU2678
 7084 09ee 0028     		cmp	r0, #0
 7085 09f0 40F08780 		bne	.L453
 7086              	.LVL562:
 7087              		.loc 3 62 19 view .LVU2679
 7088              	.LBE1071:
 7089              	.LBE1073:
 7090              		.loc 8 98 44 view .LVU2680
 7091 09f4 BA42     		cmp	r2, r7
 7092              	.LBE1067:
 7093              	.LBE1066:
  90:Src/Disk/fileReader.h **** 			}
 7094              		.loc 8 90 14 view .LVU2681
 7095 09f6 4FF00101 		mov	r1, #1
 7096              	.LBB1075:
 7097              	.LBB1074:
 7098              		.loc 8 98 44 view .LVU2682
 7099 09fa 03D3     		bcc	.L455
 7100              	.LBE1074:
 7101              	.LBE1075:
  90:Src/Disk/fileReader.h **** 			}
 7102              		.loc 8 90 14 view .LVU2683
 7103 09fc 84F80412 		strb	r1, [r4, #516]
 7104              	.LVL563:
  85:Src/Disk/fileReader.h **** 			if (num_read < num_readable) {
 7105              		.loc 8 85 3 is_stmt 1 view .LVU2684
  85:Src/Disk/fileReader.h **** 			if (num_read < num_readable) {
 7106              		.loc 8 85 19 view .LVU2685
  90:Src/Disk/fileReader.h **** 			}
 7107              		.loc 8 90 14 is_stmt 0 view .LVU2686
 7108 0a00 CA46     		mov	r10, r9
 7109 0a02 DBE7     		b	.L589
 7110              	.LVL564:
 7111              	.L455:
  90:Src/Disk/fileReader.h **** 			}
 7112              		.loc 8 90 14 view .LVU2687
 7113 0a04 84F80402 		strb	r0, [r4, #516]
 7114              	.LVL565:
  85:Src/Disk/fileReader.h **** 			if (num_read < num_readable) {
 7115              		.loc 8 85 3 is_stmt 1 view .LVU2688
  85:Src/Disk/fileReader.h **** 			if (num_read < num_readable) {
 7116              		.loc 8 85 19 view .LVU2689
 7117              	.L450:
ARM GAS  /var/folders/84/_x1cyy_j36g486tldtwl37280000gn/T//cctc5fkA.s 			page 177


  85:Src/Disk/fileReader.h **** 			if (num_read < num_readable) {
 7118              		.loc 8 85 19 is_stmt 0 view .LVU2690
 7119 0a08 0022     		movs	r2, #0
 7120 0a0a D4F81432 		ldr	r3, [r4, #532]
 7121 0a0e 08F1B800 		add	r0, r8, #184
 7122 0a12 C2B3     		cbz	r2, .L457
 7123              	.LVL566:
  85:Src/Disk/fileReader.h **** 			if (num_read < num_readable) {
 7124              		.loc 8 85 19 view .LVU2691
 7125              	.LBE1065:
 7126              	.LBE1064:
 7127              	.LBB1077:
 7128              	.LBB1078:
  21:/Users/joostbooy/Desktop/Code/stm32/lib/utils/hash.h **** 			hash_ *= prime_;
 7129              		.loc 4 21 4 is_stmt 1 view .LVU2692
  21:/Users/joostbooy/Desktop/Code/stm32/lib/utils/hash.h **** 			hash_ *= prime_;
 7130              		.loc 4 21 19 is_stmt 0 view .LVU2693
 7131 0a14 4546     		mov	r5, r8
 7132              	.LVL567:
 7133              		.loc 4 22 4 is_stmt 1 view .LVU2694
 7134              		.loc 4 22 10 is_stmt 0 view .LVU2695
 7135 0a16 DFF81CA1 		ldr	r10, .L594
  21:/Users/joostbooy/Desktop/Code/stm32/lib/utils/hash.h **** 			hash_ *= prime_;
 7136              		.loc 4 21 10 view .LVU2696
 7137 0a1a 15F8012B 		ldrb	r2, [r5], #1	@ zero_extendqisi2
 7138              	.LVL568:
  21:/Users/joostbooy/Desktop/Code/stm32/lib/utils/hash.h **** 			hash_ *= prime_;
 7139              		.loc 4 21 10 view .LVU2697
 7140 0a1e 5340     		eors	r3, r3, r2
 7141              		.loc 4 22 10 view .LVU2698
 7142 0a20 0AFB03F3 		mul	r3, r10, r3
 7143 0a24 C4F81432 		str	r3, [r4, #532]
  20:/Users/joostbooy/Desktop/Code/stm32/lib/utils/hash.h **** 			hash_ ^= *data_++;
 7144              		.loc 4 20 3 is_stmt 1 view .LVU2699
  20:/Users/joostbooy/Desktop/Code/stm32/lib/utils/hash.h **** 			hash_ ^= *data_++;
 7145              		.loc 4 20 14 view .LVU2700
  21:/Users/joostbooy/Desktop/Code/stm32/lib/utils/hash.h **** 			hash_ *= prime_;
 7146              		.loc 4 21 4 view .LVU2701
 7147              	.LVL569:
 7148              		.loc 4 22 4 view .LVU2702
  21:/Users/joostbooy/Desktop/Code/stm32/lib/utils/hash.h **** 			hash_ *= prime_;
 7149              		.loc 4 21 10 is_stmt 0 view .LVU2703
 7150 0a28 15F8012B 		ldrb	r2, [r5], #1	@ zero_extendqisi2
 7151              	.LVL570:
  21:/Users/joostbooy/Desktop/Code/stm32/lib/utils/hash.h **** 			hash_ *= prime_;
 7152              		.loc 4 21 10 view .LVU2704
 7153 0a2c 5340     		eors	r3, r3, r2
 7154              		.loc 4 22 10 view .LVU2705
 7155 0a2e 0AFB03F3 		mul	r3, r10, r3
 7156 0a32 C4F81432 		str	r3, [r4, #532]
  20:/Users/joostbooy/Desktop/Code/stm32/lib/utils/hash.h **** 			hash_ ^= *data_++;
 7157              		.loc 4 20 3 is_stmt 1 view .LVU2706
  20:/Users/joostbooy/Desktop/Code/stm32/lib/utils/hash.h **** 			hash_ ^= *data_++;
 7158              		.loc 4 20 14 view .LVU2707
  21:/Users/joostbooy/Desktop/Code/stm32/lib/utils/hash.h **** 			hash_ *= prime_;
 7159              		.loc 4 21 4 view .LVU2708
 7160              	.LVL571:
ARM GAS  /var/folders/84/_x1cyy_j36g486tldtwl37280000gn/T//cctc5fkA.s 			page 178


 7161              		.loc 4 22 4 view .LVU2709
  21:/Users/joostbooy/Desktop/Code/stm32/lib/utils/hash.h **** 			hash_ *= prime_;
 7162              		.loc 4 21 10 is_stmt 0 view .LVU2710
 7163 0a36 15F8012B 		ldrb	r2, [r5], #1	@ zero_extendqisi2
 7164              	.LVL572:
  21:/Users/joostbooy/Desktop/Code/stm32/lib/utils/hash.h **** 			hash_ *= prime_;
 7165              		.loc 4 21 10 view .LVU2711
 7166 0a3a 5340     		eors	r3, r3, r2
 7167              		.loc 4 22 10 view .LVU2712
 7168 0a3c 0AFB03F3 		mul	r3, r10, r3
 7169 0a40 C4F81432 		str	r3, [r4, #532]
  20:/Users/joostbooy/Desktop/Code/stm32/lib/utils/hash.h **** 			hash_ ^= *data_++;
 7170              		.loc 4 20 3 is_stmt 1 view .LVU2713
  20:/Users/joostbooy/Desktop/Code/stm32/lib/utils/hash.h **** 			hash_ ^= *data_++;
 7171              		.loc 4 20 14 view .LVU2714
  21:/Users/joostbooy/Desktop/Code/stm32/lib/utils/hash.h **** 			hash_ *= prime_;
 7172              		.loc 4 21 4 view .LVU2715
 7173              	.LVL573:
 7174              		.loc 4 22 4 view .LVU2716
  21:/Users/joostbooy/Desktop/Code/stm32/lib/utils/hash.h **** 			hash_ *= prime_;
 7175              		.loc 4 21 10 is_stmt 0 view .LVU2717
 7176 0a44 15F8012B 		ldrb	r2, [r5], #1	@ zero_extendqisi2
 7177              	.LVL574:
  21:/Users/joostbooy/Desktop/Code/stm32/lib/utils/hash.h **** 			hash_ *= prime_;
 7178              		.loc 4 21 10 view .LVU2718
 7179 0a48 5340     		eors	r3, r3, r2
 7180              		.loc 4 22 10 view .LVU2719
 7181 0a4a 0AFB03F3 		mul	r3, r10, r3
 7182 0a4e C4F81432 		str	r3, [r4, #532]
  20:/Users/joostbooy/Desktop/Code/stm32/lib/utils/hash.h **** 			hash_ ^= *data_++;
 7183              		.loc 4 20 3 is_stmt 1 view .LVU2720
  20:/Users/joostbooy/Desktop/Code/stm32/lib/utils/hash.h **** 			hash_ ^= *data_++;
 7184              		.loc 4 20 14 view .LVU2721
  21:/Users/joostbooy/Desktop/Code/stm32/lib/utils/hash.h **** 			hash_ *= prime_;
 7185              		.loc 4 21 4 view .LVU2722
 7186              	.LVL575:
 7187              		.loc 4 22 4 view .LVU2723
  21:/Users/joostbooy/Desktop/Code/stm32/lib/utils/hash.h **** 			hash_ *= prime_;
 7188              		.loc 4 21 10 is_stmt 0 view .LVU2724
 7189 0a52 15F8012B 		ldrb	r2, [r5], #1	@ zero_extendqisi2
 7190              	.LVL576:
  21:/Users/joostbooy/Desktop/Code/stm32/lib/utils/hash.h **** 			hash_ *= prime_;
 7191              		.loc 4 21 10 view .LVU2725
 7192 0a56 5340     		eors	r3, r3, r2
 7193              		.loc 4 22 10 view .LVU2726
 7194 0a58 0AFB03F3 		mul	r3, r10, r3
 7195 0a5c C4F81432 		str	r3, [r4, #532]
  20:/Users/joostbooy/Desktop/Code/stm32/lib/utils/hash.h **** 			hash_ ^= *data_++;
 7196              		.loc 4 20 3 is_stmt 1 view .LVU2727
  20:/Users/joostbooy/Desktop/Code/stm32/lib/utils/hash.h **** 			hash_ ^= *data_++;
 7197              		.loc 4 20 14 view .LVU2728
  21:/Users/joostbooy/Desktop/Code/stm32/lib/utils/hash.h **** 			hash_ *= prime_;
 7198              		.loc 4 21 4 view .LVU2729
 7199              	.LVL577:
 7200              		.loc 4 22 4 view .LVU2730
  21:/Users/joostbooy/Desktop/Code/stm32/lib/utils/hash.h **** 			hash_ *= prime_;
 7201              		.loc 4 21 10 is_stmt 0 view .LVU2731
ARM GAS  /var/folders/84/_x1cyy_j36g486tldtwl37280000gn/T//cctc5fkA.s 			page 179


 7202 0a60 15F8012B 		ldrb	r2, [r5], #1	@ zero_extendqisi2
 7203              	.LVL578:
 7204              		.loc 4 22 10 view .LVU2732
 7205 0a64 5746     		mov	r7, r10
  21:/Users/joostbooy/Desktop/Code/stm32/lib/utils/hash.h **** 			hash_ *= prime_;
 7206              		.loc 4 21 10 view .LVU2733
 7207 0a66 5340     		eors	r3, r3, r2
 7208              		.loc 4 22 10 view .LVU2734
 7209 0a68 07FB03F3 		mul	r3, r7, r3
 7210 0a6c C4F81432 		str	r3, [r4, #532]
  20:/Users/joostbooy/Desktop/Code/stm32/lib/utils/hash.h **** 			hash_ ^= *data_++;
 7211              		.loc 4 20 3 is_stmt 1 view .LVU2735
  20:/Users/joostbooy/Desktop/Code/stm32/lib/utils/hash.h **** 			hash_ ^= *data_++;
 7212              		.loc 4 20 14 view .LVU2736
  21:/Users/joostbooy/Desktop/Code/stm32/lib/utils/hash.h **** 			hash_ *= prime_;
 7213              		.loc 4 21 4 view .LVU2737
 7214              	.LVL579:
 7215              		.loc 4 22 4 view .LVU2738
  21:/Users/joostbooy/Desktop/Code/stm32/lib/utils/hash.h **** 			hash_ *= prime_;
 7216              		.loc 4 21 10 is_stmt 0 view .LVU2739
 7217 0a70 15F8017B 		ldrb	r7, [r5], #1	@ zero_extendqisi2
 7218              	.LVL580:
 7219              		.loc 4 22 10 view .LVU2740
 7220 0a74 5146     		mov	r1, r10
  21:/Users/joostbooy/Desktop/Code/stm32/lib/utils/hash.h **** 			hash_ *= prime_;
 7221              		.loc 4 21 10 view .LVU2741
 7222 0a76 7B40     		eors	r3, r3, r7
 7223              		.loc 4 22 10 view .LVU2742
 7224 0a78 01FB03F3 		mul	r3, r1, r3
  20:/Users/joostbooy/Desktop/Code/stm32/lib/utils/hash.h **** 			hash_ ^= *data_++;
 7225              		.loc 4 20 14 view .LVU2743
 7226 0a7c 8542     		cmp	r5, r0
 7227              		.loc 4 22 10 view .LVU2744
 7228 0a7e D646     		mov	lr, r10
 7229 0a80 C4F81432 		str	r3, [r4, #532]
  20:/Users/joostbooy/Desktop/Code/stm32/lib/utils/hash.h **** 			hash_ ^= *data_++;
 7230              		.loc 4 20 3 is_stmt 1 view .LVU2745
  20:/Users/joostbooy/Desktop/Code/stm32/lib/utils/hash.h **** 			hash_ ^= *data_++;
 7231              		.loc 4 20 14 view .LVU2746
  20:/Users/joostbooy/Desktop/Code/stm32/lib/utils/hash.h **** 			hash_ ^= *data_++;
 7232              		.loc 4 20 14 is_stmt 0 view .LVU2747
 7233 0a84 37D0     		beq	.L569
 7234              	.LVL581:
 7235              	.L457:
  21:/Users/joostbooy/Desktop/Code/stm32/lib/utils/hash.h **** 			hash_ *= prime_;
 7236              		.loc 4 21 4 is_stmt 1 view .LVU2748
  21:/Users/joostbooy/Desktop/Code/stm32/lib/utils/hash.h **** 			hash_ *= prime_;
 7237              		.loc 4 21 19 is_stmt 0 view .LVU2749
 7238 0a86 AA46     		mov	r10, r5
 7239              		.loc 4 22 4 is_stmt 1 view .LVU2750
 7240              		.loc 4 22 10 is_stmt 0 view .LVU2751
 7241 0a88 2A4A     		ldr	r2, .L594
  21:/Users/joostbooy/Desktop/Code/stm32/lib/utils/hash.h **** 			hash_ *= prime_;
 7242              		.loc 4 21 10 view .LVU2752
 7243 0a8a 1AF8011B 		ldrb	r1, [r10], #1	@ zero_extendqisi2
 7244 0a8e 4B40     		eors	r3, r3, r1
 7245              		.loc 4 22 10 view .LVU2753
ARM GAS  /var/folders/84/_x1cyy_j36g486tldtwl37280000gn/T//cctc5fkA.s 			page 180


 7246 0a90 02FB03F7 		mul	r7, r2, r3
 7247 0a94 C4F81472 		str	r7, [r4, #532]
  20:/Users/joostbooy/Desktop/Code/stm32/lib/utils/hash.h **** 			hash_ ^= *data_++;
 7248              		.loc 4 20 3 is_stmt 1 view .LVU2754
  20:/Users/joostbooy/Desktop/Code/stm32/lib/utils/hash.h **** 			hash_ ^= *data_++;
 7249              		.loc 4 20 14 view .LVU2755
  21:/Users/joostbooy/Desktop/Code/stm32/lib/utils/hash.h **** 			hash_ *= prime_;
 7250              		.loc 4 21 4 view .LVU2756
 7251              		.loc 4 22 4 view .LVU2757
  21:/Users/joostbooy/Desktop/Code/stm32/lib/utils/hash.h **** 			hash_ *= prime_;
 7252              		.loc 4 21 10 is_stmt 0 view .LVU2758
 7253 0a98 9AF80030 		ldrb	r3, [r10]	@ zero_extendqisi2
 7254 0a9c 7B40     		eors	r3, r3, r7
 7255              		.loc 4 22 10 view .LVU2759
 7256 0a9e 02FB03F1 		mul	r1, r2, r3
 7257 0aa2 C4F81412 		str	r1, [r4, #532]
  20:/Users/joostbooy/Desktop/Code/stm32/lib/utils/hash.h **** 			hash_ ^= *data_++;
 7258              		.loc 4 20 3 is_stmt 1 view .LVU2760
  20:/Users/joostbooy/Desktop/Code/stm32/lib/utils/hash.h **** 			hash_ ^= *data_++;
 7259              		.loc 4 20 14 view .LVU2761
  21:/Users/joostbooy/Desktop/Code/stm32/lib/utils/hash.h **** 			hash_ *= prime_;
 7260              		.loc 4 21 4 view .LVU2762
 7261              		.loc 4 22 4 view .LVU2763
  21:/Users/joostbooy/Desktop/Code/stm32/lib/utils/hash.h **** 			hash_ *= prime_;
 7262              		.loc 4 21 10 is_stmt 0 view .LVU2764
 7263 0aa6 AF78     		ldrb	r7, [r5, #2]	@ zero_extendqisi2
 7264 0aa8 4F40     		eors	r7, r7, r1
 7265              		.loc 4 22 10 view .LVU2765
 7266 0aaa 02FB07F7 		mul	r7, r2, r7
 7267 0aae C4F81472 		str	r7, [r4, #532]
  20:/Users/joostbooy/Desktop/Code/stm32/lib/utils/hash.h **** 			hash_ ^= *data_++;
 7268              		.loc 4 20 3 is_stmt 1 view .LVU2766
  20:/Users/joostbooy/Desktop/Code/stm32/lib/utils/hash.h **** 			hash_ ^= *data_++;
 7269              		.loc 4 20 14 view .LVU2767
  21:/Users/joostbooy/Desktop/Code/stm32/lib/utils/hash.h **** 			hash_ *= prime_;
 7270              		.loc 4 21 4 view .LVU2768
 7271              		.loc 4 22 4 view .LVU2769
  21:/Users/joostbooy/Desktop/Code/stm32/lib/utils/hash.h **** 			hash_ *= prime_;
 7272              		.loc 4 21 10 is_stmt 0 view .LVU2770
 7273 0ab2 EB78     		ldrb	r3, [r5, #3]	@ zero_extendqisi2
 7274 0ab4 7B40     		eors	r3, r3, r7
 7275              		.loc 4 22 10 view .LVU2771
 7276 0ab6 02FB03F7 		mul	r7, r2, r3
 7277 0aba C4F81472 		str	r7, [r4, #532]
  20:/Users/joostbooy/Desktop/Code/stm32/lib/utils/hash.h **** 			hash_ ^= *data_++;
 7278              		.loc 4 20 3 is_stmt 1 view .LVU2772
  20:/Users/joostbooy/Desktop/Code/stm32/lib/utils/hash.h **** 			hash_ ^= *data_++;
 7279              		.loc 4 20 14 view .LVU2773
  21:/Users/joostbooy/Desktop/Code/stm32/lib/utils/hash.h **** 			hash_ *= prime_;
 7280              		.loc 4 21 4 view .LVU2774
 7281              		.loc 4 22 4 view .LVU2775
  21:/Users/joostbooy/Desktop/Code/stm32/lib/utils/hash.h **** 			hash_ *= prime_;
 7282              		.loc 4 21 10 is_stmt 0 view .LVU2776
 7283 0abe 2979     		ldrb	r1, [r5, #4]	@ zero_extendqisi2
 7284 0ac0 7940     		eors	r1, r1, r7
 7285              		.loc 4 22 10 view .LVU2777
 7286 0ac2 02FB01F1 		mul	r1, r2, r1
ARM GAS  /var/folders/84/_x1cyy_j36g486tldtwl37280000gn/T//cctc5fkA.s 			page 181


 7287 0ac6 C4F81412 		str	r1, [r4, #532]
  20:/Users/joostbooy/Desktop/Code/stm32/lib/utils/hash.h **** 			hash_ ^= *data_++;
 7288              		.loc 4 20 3 is_stmt 1 view .LVU2778
  20:/Users/joostbooy/Desktop/Code/stm32/lib/utils/hash.h **** 			hash_ ^= *data_++;
 7289              		.loc 4 20 14 view .LVU2779
  21:/Users/joostbooy/Desktop/Code/stm32/lib/utils/hash.h **** 			hash_ *= prime_;
 7290              		.loc 4 21 4 view .LVU2780
 7291              		.loc 4 22 4 view .LVU2781
  21:/Users/joostbooy/Desktop/Code/stm32/lib/utils/hash.h **** 			hash_ *= prime_;
 7292              		.loc 4 21 10 is_stmt 0 view .LVU2782
 7293 0aca 6B79     		ldrb	r3, [r5, #5]	@ zero_extendqisi2
 7294 0acc 4B40     		eors	r3, r3, r1
 7295              		.loc 4 22 10 view .LVU2783
 7296 0ace 02FB03F7 		mul	r7, r2, r3
 7297 0ad2 C4F81472 		str	r7, [r4, #532]
  20:/Users/joostbooy/Desktop/Code/stm32/lib/utils/hash.h **** 			hash_ ^= *data_++;
 7298              		.loc 4 20 3 is_stmt 1 view .LVU2784
  20:/Users/joostbooy/Desktop/Code/stm32/lib/utils/hash.h **** 			hash_ ^= *data_++;
 7299              		.loc 4 20 14 view .LVU2785
  21:/Users/joostbooy/Desktop/Code/stm32/lib/utils/hash.h **** 			hash_ *= prime_;
 7300              		.loc 4 21 4 view .LVU2786
 7301              		.loc 4 22 4 view .LVU2787
  21:/Users/joostbooy/Desktop/Code/stm32/lib/utils/hash.h **** 			hash_ *= prime_;
 7302              		.loc 4 21 10 is_stmt 0 view .LVU2788
 7303 0ad6 AB79     		ldrb	r3, [r5, #6]	@ zero_extendqisi2
 7304 0ad8 7B40     		eors	r3, r3, r7
 7305              		.loc 4 22 10 view .LVU2789
 7306 0ada 02FB03F3 		mul	r3, r2, r3
  21:/Users/joostbooy/Desktop/Code/stm32/lib/utils/hash.h **** 			hash_ *= prime_;
 7307              		.loc 4 21 19 view .LVU2790
 7308 0ade 0835     		adds	r5, r5, #8
 7309              		.loc 4 22 10 view .LVU2791
 7310 0ae0 C4F81432 		str	r3, [r4, #532]
  20:/Users/joostbooy/Desktop/Code/stm32/lib/utils/hash.h **** 			hash_ ^= *data_++;
 7311              		.loc 4 20 3 is_stmt 1 view .LVU2792
  20:/Users/joostbooy/Desktop/Code/stm32/lib/utils/hash.h **** 			hash_ ^= *data_++;
 7312              		.loc 4 20 14 view .LVU2793
  21:/Users/joostbooy/Desktop/Code/stm32/lib/utils/hash.h **** 			hash_ *= prime_;
 7313              		.loc 4 21 4 view .LVU2794
 7314              	.LVL582:
 7315              		.loc 4 22 4 view .LVU2795
  21:/Users/joostbooy/Desktop/Code/stm32/lib/utils/hash.h **** 			hash_ *= prime_;
 7316              		.loc 4 21 10 is_stmt 0 view .LVU2796
 7317 0ae4 15F8011C 		ldrb	r1, [r5, #-1]	@ zero_extendqisi2
 7318 0ae8 4B40     		eors	r3, r3, r1
 7319              		.loc 4 22 10 view .LVU2797
 7320 0aea 02FB03F3 		mul	r3, r2, r3
  20:/Users/joostbooy/Desktop/Code/stm32/lib/utils/hash.h **** 			hash_ ^= *data_++;
 7321              		.loc 4 20 14 view .LVU2798
 7322 0aee 8542     		cmp	r5, r0
 7323              		.loc 4 22 10 view .LVU2799
 7324 0af0 C4F81432 		str	r3, [r4, #532]
  20:/Users/joostbooy/Desktop/Code/stm32/lib/utils/hash.h **** 			hash_ ^= *data_++;
 7325              		.loc 4 20 3 is_stmt 1 view .LVU2800
  20:/Users/joostbooy/Desktop/Code/stm32/lib/utils/hash.h **** 			hash_ ^= *data_++;
 7326              		.loc 4 20 14 view .LVU2801
  20:/Users/joostbooy/Desktop/Code/stm32/lib/utils/hash.h **** 			hash_ ^= *data_++;
ARM GAS  /var/folders/84/_x1cyy_j36g486tldtwl37280000gn/T//cctc5fkA.s 			page 182


 7327              		.loc 4 20 14 is_stmt 0 view .LVU2802
 7328 0af4 C7D1     		bne	.L457
 7329              	.LVL583:
 7330              	.L569:
  20:/Users/joostbooy/Desktop/Code/stm32/lib/utils/hash.h **** 			hash_ ^= *data_++;
 7331              		.loc 4 20 14 view .LVU2803
 7332              	.LBE1078:
 7333              	.LBE1077:
 7334              	.LBE1063:
  87:Src/Settings/song.cpp **** 		fileReader.read(TrackData::pattern_[i]);
 7335              		.loc 1 87 2 is_stmt 1 view .LVU2804
  87:Src/Settings/song.cpp **** 		fileReader.read(TrackData::pattern_[i]);
 7336              		.loc 1 87 20 view .LVU2805
 7337 0af6 AE42     		cmp	r6, r5
 7338 0af8 0BD0     		beq	.L338
 7339 0afa 94F80432 		ldrb	r3, [r4, #516]	@ zero_extendqisi2
 7340 0afe A846     		mov	r8, r5
 7341 0b00 44E7     		b	.L459
 7342              	.LVL584:
 7343              	.L453:
 7344              	.LBB1080:
 7345              	.LBB1079:
 7346              	.LBB1076:
  90:Src/Disk/fileReader.h **** 			}
 7347              		.loc 8 90 14 is_stmt 0 view .LVU2806
 7348 0b02 0027     		movs	r7, #0
 7349 0b04 84F80472 		strb	r7, [r4, #516]
 7350              	.LVL585:
  85:Src/Disk/fileReader.h **** 			if (num_read < num_readable) {
 7351              		.loc 8 85 3 is_stmt 1 view .LVU2807
  85:Src/Disk/fileReader.h **** 			if (num_read < num_readable) {
 7352              		.loc 8 85 19 view .LVU2808
 7353 0b08 7EE7     		b	.L450
 7354              	.LVL586:
 7355              	.L444:
  85:Src/Disk/fileReader.h **** 			if (num_read < num_readable) {
 7356              		.loc 8 85 19 is_stmt 0 view .LVU2809
 7357              	.LBE1076:
 7358              	.LBE1079:
 7359              	.LBE1080:
 7360              	.LBE1062:
 7361              	.LBB1081:
 7362              	.LBB1061:
 7363              	.LBB1058:
  90:Src/Disk/fileReader.h **** 			}
 7364              		.loc 8 90 14 view .LVU2810
 7365 0b0a 0023     		movs	r3, #0
 7366 0b0c 84F80432 		strb	r3, [r4, #516]
  85:Src/Disk/fileReader.h **** 			if (num_read < num_readable) {
 7367              		.loc 8 85 3 is_stmt 1 view .LVU2811
  85:Src/Disk/fileReader.h **** 			if (num_read < num_readable) {
 7368              		.loc 8 85 19 view .LVU2812
 7369 0b10 FCE6     		b	.L441
 7370              	.L338:
  85:Src/Disk/fileReader.h **** 			if (num_read < num_readable) {
 7371              		.loc 8 85 19 is_stmt 0 view .LVU2813
 7372              	.LBE1058:
ARM GAS  /var/folders/84/_x1cyy_j36g486tldtwl37280000gn/T//cctc5fkA.s 			page 183


 7373              	.LBE1061:
 7374              	.LBE1081:
  89:Src/Settings/song.cpp **** 	}
  90:Src/Settings/song.cpp **** }
 7375              		.loc 1 90 1 view .LVU2814
 7376 0b12 02B0     		add	sp, sp, #8
 7377              		.cfi_remember_state
 7378              		.cfi_def_cfa_offset 32
 7379              		@ sp needed
 7380 0b14 BDE8F087 		pop	{r4, r5, r6, r7, r8, r9, r10, pc}
 7381              	.LVL587:
 7382              	.L417:
 7383              		.cfi_restore_state
 7384              	.LBB1082:
 7385              	.LBB983:
 7386              	.LBB979:
 7387              	.LBB932:
 7388              	.LBB919:
  90:Src/Disk/fileReader.h **** 			}
 7389              		.loc 8 90 14 view .LVU2815
 7390 0b18 84F80402 		strb	r0, [r4, #516]
  85:Src/Disk/fileReader.h **** 			if (num_read < num_readable) {
 7391              		.loc 8 85 3 is_stmt 1 view .LVU2816
  85:Src/Disk/fileReader.h **** 			if (num_read < num_readable) {
 7392              		.loc 8 85 19 view .LVU2817
 7393 0b1c A6E6     		b	.L414
 7394              	.LVL588:
 7395              	.L407:
  85:Src/Disk/fileReader.h **** 			if (num_read < num_readable) {
 7396              		.loc 8 85 19 is_stmt 0 view .LVU2818
 7397              	.LBE919:
 7398              	.LBE932:
 7399              	.LBE979:
 7400              	.LBB980:
 7401              	.LBB898:
 7402              	.LBB889:
  90:Src/Disk/fileReader.h **** 			}
 7403              		.loc 8 90 14 view .LVU2819
 7404 0b1e 84F80402 		strb	r0, [r4, #516]
 7405              	.LVL589:
  85:Src/Disk/fileReader.h **** 			if (num_read < num_readable) {
 7406              		.loc 8 85 3 is_stmt 1 view .LVU2820
  85:Src/Disk/fileReader.h **** 			if (num_read < num_readable) {
 7407              		.loc 8 85 19 view .LVU2821
 7408 0b22 7AE6     		b	.L401
 7409              	.LVL590:
 7410              	.L357:
  85:Src/Disk/fileReader.h **** 			if (num_read < num_readable) {
 7411              		.loc 8 85 19 is_stmt 0 view .LVU2822
 7412 0b24 6F78     		ldrb	r7, [r5, #1]	@ zero_extendqisi2
 7413 0b26 03E4     		b	.L363
 7414              	.LVL591:
 7415              	.L380:
  85:Src/Disk/fileReader.h **** 			if (num_read < num_readable) {
 7416              		.loc 8 85 19 view .LVU2823
 7417              	.LBE889:
 7418              	.LBE898:
ARM GAS  /var/folders/84/_x1cyy_j36g486tldtwl37280000gn/T//cctc5fkA.s 			page 184


 7419              	.LBE980:
 7420              	.LBE983:
 7421              	.LBE1082:
 7422              	.LBB1083:
 7423              	.LBB865:
 7424              	.LBB858:
 7425              	.LBB847:
  72:Src/Settings/scale.h **** 			lut_ptr = lut_scale_major;
 7426              		.loc 5 72 3 is_stmt 1 view .LVU2824
  73:Src/Settings/scale.h **** 			lut_map_ptr = lut_scale_major_map;
 7427              		.loc 5 73 4 view .LVU2825
  73:Src/Settings/scale.h **** 			lut_map_ptr = lut_scale_major_map;
 7428              		.loc 5 73 12 is_stmt 0 view .LVU2826
 7429 0b28 054B     		ldr	r3, .L594+12
  74:Src/Settings/scale.h **** 			break;
 7430              		.loc 5 74 16 view .LVU2827
 7431 0b2a 064F     		ldr	r7, .L594+16
  73:Src/Settings/scale.h **** 			lut_map_ptr = lut_scale_major_map;
 7432              		.loc 5 73 12 view .LVU2828
 7433 0b2c 6B60     		str	r3, [r5, #4]
  74:Src/Settings/scale.h **** 			break;
 7434              		.loc 5 74 4 is_stmt 1 view .LVU2829
  75:Src/Settings/scale.h **** 		case MINOR:
 7435              		.loc 5 75 4 is_stmt 0 view .LVU2830
 7436 0b2e 9A46     		mov	r10, r3
  74:Src/Settings/scale.h **** 			break;
 7437              		.loc 5 74 16 view .LVU2831
 7438 0b30 AF60     		str	r7, [r5, #8]
  75:Src/Settings/scale.h **** 		case MINOR:
 7439              		.loc 5 75 4 is_stmt 1 view .LVU2832
 7440 0b32 10E4     		b	.L389
 7441              	.L595:
 7442              		.align	2
 7443              	.L594:
 7444 0b34 93010001 		.word	16777619
 7445 0b38 00000000 		.word	_ZN9TrackData13pattern_pool_E
 7446 0b3c 48B70000 		.word	_ZN9TrackData8pattern_E+46920
 7447 0b40 00000000 		.word	lut_scale_major
 7448 0b44 00000000 		.word	lut_scale_major_map
 7449 0b48 00000000 		.word	_ZN9TrackData8pattern_E
 7450              	.LBE847:
 7451              	.LBE858:
 7452              	.LBE865:
 7453              	.LBE1083:
 7454              		.cfi_endproc
 7455              	.LFE2525:
 7457              		.text
 7458              	.Letext0:
 7459              		.file 11 "/usr/local/Caskroom/gcc-arm-embedded/9-2019-q4-major/gcc-arm-none-eabi-9-2019-q4-major/a
 7460              		.file 12 "/usr/local/Caskroom/gcc-arm-embedded/9-2019-q4-major/gcc-arm-none-eabi-9-2019-q4-major/a
 7461              		.file 13 "/usr/local/Caskroom/gcc-arm-embedded/9-2019-q4-major/gcc-arm-none-eabi-9-2019-q4-major/a
 7462              		.file 14 "/Users/joostbooy/STM32Cube/Repository/STM32Cube_FW_F4_V1.26.1/Drivers/CMSIS/Include/core
 7463              		.file 15 "/Users/joostbooy/STM32Cube/Repository/STM32Cube_FW_F4_V1.26.1/Drivers/CMSIS/Device/ST/ST
 7464              		.file 16 "/usr/local/Caskroom/gcc-arm-embedded/9-2019-q4-major/gcc-arm-none-eabi-9-2019-q4-major/l
 7465              		.file 17 "/Users/joostbooy/STM32Cube/Repository/STM32Cube_FW_F4_V1.26.1/Drivers/STM32F4xx_HAL_Driv
 7466              		.file 18 "/usr/local/Caskroom/gcc-arm-embedded/9-2019-q4-major/gcc-arm-none-eabi-9-2019-q4-major/a
 7467              		.file 19 "/usr/local/Caskroom/gcc-arm-embedded/9-2019-q4-major/gcc-arm-none-eabi-9-2019-q4-major/a
ARM GAS  /var/folders/84/_x1cyy_j36g486tldtwl37280000gn/T//cctc5fkA.s 			page 185


 7468              		.file 20 "/usr/local/Caskroom/gcc-arm-embedded/9-2019-q4-major/gcc-arm-none-eabi-9-2019-q4-major/a
 7469              		.file 21 "/usr/local/Caskroom/gcc-arm-embedded/9-2019-q4-major/gcc-arm-none-eabi-9-2019-q4-major/a
 7470              		.file 22 "/usr/local/Caskroom/gcc-arm-embedded/9-2019-q4-major/gcc-arm-none-eabi-9-2019-q4-major/a
 7471              		.file 23 "/usr/local/Caskroom/gcc-arm-embedded/9-2019-q4-major/gcc-arm-none-eabi-9-2019-q4-major/a
 7472              		.file 24 "/usr/local/Caskroom/gcc-arm-embedded/9-2019-q4-major/gcc-arm-none-eabi-9-2019-q4-major/a
 7473              		.file 25 "/usr/local/Caskroom/gcc-arm-embedded/9-2019-q4-major/gcc-arm-none-eabi-9-2019-q4-major/a
 7474              		.file 26 "/usr/local/Caskroom/gcc-arm-embedded/9-2019-q4-major/gcc-arm-none-eabi-9-2019-q4-major/a
 7475              		.file 27 "/usr/local/Caskroom/gcc-arm-embedded/9-2019-q4-major/gcc-arm-none-eabi-9-2019-q4-major/a
 7476              		.file 28 "/usr/local/Caskroom/gcc-arm-embedded/9-2019-q4-major/gcc-arm-none-eabi-9-2019-q4-major/a
 7477              		.file 29 "/usr/local/Caskroom/gcc-arm-embedded/9-2019-q4-major/gcc-arm-none-eabi-9-2019-q4-major/a
 7478              		.file 30 "/usr/local/Caskroom/gcc-arm-embedded/9-2019-q4-major/gcc-arm-none-eabi-9-2019-q4-major/a
 7479              		.file 31 "/usr/local/Caskroom/gcc-arm-embedded/9-2019-q4-major/gcc-arm-none-eabi-9-2019-q4-major/a
 7480              		.file 32 "/usr/local/Caskroom/gcc-arm-embedded/9-2019-q4-major/gcc-arm-none-eabi-9-2019-q4-major/a
 7481              		.file 33 "/usr/local/Caskroom/gcc-arm-embedded/9-2019-q4-major/gcc-arm-none-eabi-9-2019-q4-major/a
 7482              		.file 34 "/usr/local/Caskroom/gcc-arm-embedded/9-2019-q4-major/gcc-arm-none-eabi-9-2019-q4-major/a
 7483              		.file 35 "/usr/local/Caskroom/gcc-arm-embedded/9-2019-q4-major/gcc-arm-none-eabi-9-2019-q4-major/a
 7484              		.file 36 "/usr/local/Caskroom/gcc-arm-embedded/9-2019-q4-major/gcc-arm-none-eabi-9-2019-q4-major/a
 7485              		.file 37 "/usr/local/Caskroom/gcc-arm-embedded/9-2019-q4-major/gcc-arm-none-eabi-9-2019-q4-major/a
 7486              		.file 38 "/usr/local/Caskroom/gcc-arm-embedded/9-2019-q4-major/gcc-arm-none-eabi-9-2019-q4-major/a
 7487              		.file 39 "/usr/local/Caskroom/gcc-arm-embedded/9-2019-q4-major/gcc-arm-none-eabi-9-2019-q4-major/a
 7488              		.file 40 "/usr/local/Caskroom/gcc-arm-embedded/9-2019-q4-major/gcc-arm-none-eabi-9-2019-q4-major/a
 7489              		.file 41 "/usr/local/Caskroom/gcc-arm-embedded/9-2019-q4-major/gcc-arm-none-eabi-9-2019-q4-major/a
 7490              		.file 42 "/usr/local/Caskroom/gcc-arm-embedded/9-2019-q4-major/gcc-arm-none-eabi-9-2019-q4-major/l
 7491              		.file 43 "<built-in>"
 7492              		.file 44 "/usr/local/Caskroom/gcc-arm-embedded/9-2019-q4-major/gcc-arm-none-eabi-9-2019-q4-major/a
 7493              		.file 45 "/usr/local/Caskroom/gcc-arm-embedded/9-2019-q4-major/gcc-arm-none-eabi-9-2019-q4-major/a
 7494              		.file 46 "/usr/local/Caskroom/gcc-arm-embedded/9-2019-q4-major/gcc-arm-none-eabi-9-2019-q4-major/a
 7495              		.file 47 "/usr/local/Caskroom/gcc-arm-embedded/9-2019-q4-major/gcc-arm-none-eabi-9-2019-q4-major/a
 7496              		.file 48 "/usr/local/Caskroom/gcc-arm-embedded/9-2019-q4-major/gcc-arm-none-eabi-9-2019-q4-major/a
 7497              		.file 49 "/usr/local/Caskroom/gcc-arm-embedded/9-2019-q4-major/gcc-arm-none-eabi-9-2019-q4-major/a
 7498              		.file 50 "/usr/local/Caskroom/gcc-arm-embedded/9-2019-q4-major/gcc-arm-none-eabi-9-2019-q4-major/a
 7499              		.file 51 "/usr/local/Caskroom/gcc-arm-embedded/9-2019-q4-major/gcc-arm-none-eabi-9-2019-q4-major/a
 7500              		.file 52 "/usr/local/Caskroom/gcc-arm-embedded/9-2019-q4-major/gcc-arm-none-eabi-9-2019-q4-major/a
 7501              		.file 53 "Src/Settings/trackData.h"
 7502              		.file 54 "/Users/joostbooy/Desktop/Code/stm32/lib/utils/stringBuilder.h"
 7503              		.file 55 "lookupTables/lookUpTables.h"
 7504              		.file 56 "Drivers/uart.h"
 7505              		.file 57 "Drivers/Usb/usb.h"
 7506              		.file 58 "lookupTables/font.h"
 7507              		.file 59 "Src/Settings/pattern.h"
 7508              		.file 60 "Src/Settings/baseTrack.h"
 7509              		.file 61 "Src/Settings/serial.h"
 7510              		.file 62 "Src/Settings/serialItem.h"
 7511              		.file 63 "/Users/joostbooy/Desktop/Code/stm32/lib/ff14b/source/ff.h"
 7512              		.file 64 "Src/Settings/noteTrack.h"
 7513              		.file 65 "Src/Settings/chordTrack.h"
 7514              		.file 66 "Src/Settings/drumTrack.h"
 7515              		.file 67 "Src/Settings/curveTrack.h"
 7516              		.file 68 "Src/Settings/track.h"
ARM GAS  /var/folders/84/_x1cyy_j36g486tldtwl37280000gn/T//cctc5fkA.s 			page 186


DEFINED SYMBOLS
                            *ABS*:0000000000000000 song.cpp
/var/folders/84/_x1cyy_j36g486tldtwl37280000gn/T//cctc5fkA.s:18     .text._ZN4Song10clear_listEPNS_4ListE:0000000000000000 $t
/var/folders/84/_x1cyy_j36g486tldtwl37280000gn/T//cctc5fkA.s:27     .text._ZN4Song10clear_listEPNS_4ListE:0000000000000000 _ZN4Song10clear_listEPNS_4ListE
/var/folders/84/_x1cyy_j36g486tldtwl37280000gn/T//cctc5fkA.s:46     .text._ZN4Song11add_to_listEPNS_4ListEh:0000000000000000 $t
/var/folders/84/_x1cyy_j36g486tldtwl37280000gn/T//cctc5fkA.s:54     .text._ZN4Song11add_to_listEPNS_4ListEh:0000000000000000 _ZN4Song11add_to_listEPNS_4ListEh
/var/folders/84/_x1cyy_j36g486tldtwl37280000gn/T//cctc5fkA.s:405    .text._ZN4Song16remove_from_listEPNS_4ListEh:0000000000000000 $t
/var/folders/84/_x1cyy_j36g486tldtwl37280000gn/T//cctc5fkA.s:413    .text._ZN4Song16remove_from_listEPNS_4ListEh:0000000000000000 _ZN4Song16remove_from_listEPNS_4ListEh
/var/folders/84/_x1cyy_j36g486tldtwl37280000gn/T//cctc5fkA.s:858    .text._ZN4Song4saveER10FileWriter:0000000000000000 $t
/var/folders/84/_x1cyy_j36g486tldtwl37280000gn/T//cctc5fkA.s:866    .text._ZN4Song4saveER10FileWriter:0000000000000000 _ZN4Song4saveER10FileWriter
/var/folders/84/_x1cyy_j36g486tldtwl37280000gn/T//cctc5fkA.s:1846   .text._ZN4Song4saveER10FileWriter:00000000000002fc $d
/var/folders/84/_x1cyy_j36g486tldtwl37280000gn/T//cctc5fkA.s:1859   .text._ZN4Song4saveER10FileWriter:0000000000000300 $t
/var/folders/84/_x1cyy_j36g486tldtwl37280000gn/T//cctc5fkA.s:2949   .text._ZN4Song4saveER10FileWriter:00000000000005f4 $d
/var/folders/84/_x1cyy_j36g486tldtwl37280000gn/T//cctc5fkA.s:2953   .text._ZN4Song4saveER10FileWriter:00000000000005f8 $t
/var/folders/84/_x1cyy_j36g486tldtwl37280000gn/T//cctc5fkA.s:3791   .text._ZN4Song4saveER10FileWriter:00000000000008cc $d
/var/folders/84/_x1cyy_j36g486tldtwl37280000gn/T//cctc5fkA.s:3803   .text._ZN4Song4loadER10FileReader:0000000000000000 $t
/var/folders/84/_x1cyy_j36g486tldtwl37280000gn/T//cctc5fkA.s:3811   .text._ZN4Song4loadER10FileReader:0000000000000000 _ZN4Song4loadER10FileReader
/var/folders/84/_x1cyy_j36g486tldtwl37280000gn/T//cctc5fkA.s:4658   .text._ZN4Song4loadER10FileReader:00000000000002a2 $d
/var/folders/84/_x1cyy_j36g486tldtwl37280000gn/T//cctc5fkA.s:4666   .text._ZN4Song4loadER10FileReader:00000000000002b0 $t
/var/folders/84/_x1cyy_j36g486tldtwl37280000gn/T//cctc5fkA.s:5047   .text._ZN4Song4loadER10FileReader:0000000000000398 $d
/var/folders/84/_x1cyy_j36g486tldtwl37280000gn/T//cctc5fkA.s:5054   .text._ZN4Song4loadER10FileReader:00000000000003a8 $t
/var/folders/84/_x1cyy_j36g486tldtwl37280000gn/T//cctc5fkA.s:6371   .text._ZN4Song4loadER10FileReader:00000000000007a0 $d
/var/folders/84/_x1cyy_j36g486tldtwl37280000gn/T//cctc5fkA.s:6398   .text._ZN4Song4loadER10FileReader:00000000000007dc $t
/var/folders/84/_x1cyy_j36g486tldtwl37280000gn/T//cctc5fkA.s:7444   .text._ZN4Song4loadER10FileReader:0000000000000b34 $d

UNDEFINED SYMBOLS
f_write
_ZN5Track4saveER10FileWriter
_ZN9TrackData13pattern_pool_E
_ZN9TrackData8pattern_E
f_read
lut_scale_locrian
lut_scale_locrian_map
lut_bpm_inc
lut_bpm_fractional_inc
lut_scale_minor
lut_scale_minor_map
lut_scale_dorian
lut_scale_dorian_map
lut_scale_phrygian
lut_scale_phrygian_map
lut_scale_lydian
lut_scale_lydian_map
lut_scale_aeolyian
lut_scale_aeolyian_map
lut_scale_mixolydian
lut_scale_mixolydian_map
_ZN5Track4loadER10FileReader
lut_scale_major
lut_scale_major_map
