ARM GAS  /var/folders/84/_x1cyy_j36g486tldtwl37280000gn/T//cc257jte.s 			page 1


   1              		.cpu cortex-m4
   2              		.eabi_attribute 27, 1
   3              		.eabi_attribute 28, 1
   4              		.eabi_attribute 20, 1
   5              		.eabi_attribute 21, 1
   6              		.eabi_attribute 23, 3
   7              		.eabi_attribute 24, 1
   8              		.eabi_attribute 25, 1
   9              		.eabi_attribute 26, 1
  10              		.eabi_attribute 30, 2
  11              		.eabi_attribute 34, 1
  12              		.eabi_attribute 18, 4
  13              		.file	"stepEditor.cpp"
  14              		.text
  15              	.Ltext0:
  16              		.cfi_sections	.debug_frame
  17              		.section	.text._ZN10StepEditor4readEii,"ax",%progbits
  18              		.align	1
  19              		.p2align 2,,3
  20              		.global	_ZN10StepEditor4readEii
  21              		.arch armv7e-m
  22              		.syntax unified
  23              		.thumb
  24              		.thumb_func
  25              		.fpu fpv4-sp-d16
  27              	_ZN10StepEditor4readEii:
  28              	.LVL0:
  29              	.LFB2864:
  30              		.file 1 "Src/Settings/stepEditor.cpp"
   1:Src/Settings/stepEditor.cpp **** #include "stepEditor.h"
   2:Src/Settings/stepEditor.cpp **** 
   3:Src/Settings/stepEditor.cpp **** int StepEditor::read(int step, int item) {
  31              		.loc 1 3 42 view -0
  32              		.cfi_startproc
  33              		@ args = 0, pretend = 0, frame = 0
  34              		@ frame_needed = 0, uses_anonymous_args = 0
  35              		@ link register save eliminated.
   4:Src/Settings/stepEditor.cpp **** 	Track &track = settings.selected_track();
  36              		.loc 1 4 2 view .LVU1
  37              	.LBB236:
  38              	.LBI236:
  39              		.file 2 "Src/Settings/settings.h"
   1:Src/Settings/settings.h **** #ifndef Settings_h
   2:Src/Settings/settings.h **** #define Settings_h
   3:Src/Settings/settings.h **** 
   4:Src/Settings/settings.h **** #include "song.h"
   5:Src/Settings/settings.h **** #include "clipboard.h"
   6:Src/Settings/settings.h **** #include "cvOutput.h"
   7:Src/Settings/settings.h **** #include "cvInput.h"
   8:Src/Settings/settings.h **** #include "midiInput.h"
   9:Src/Settings/settings.h **** #include "midiOutput.h"
  10:Src/Settings/settings.h **** #include "calibration.h"
  11:Src/Settings/settings.h **** #include "drumKit.h"
  12:Src/Settings/settings.h **** 
  13:Src/Settings/settings.h **** class Settings {
  14:Src/Settings/settings.h **** 
  15:Src/Settings/settings.h **** public:
ARM GAS  /var/folders/84/_x1cyy_j36g486tldtwl37280000gn/T//cc257jte.s 			page 2


  16:Src/Settings/settings.h **** 
  17:Src/Settings/settings.h **** 	const uint32_t current_version() {
  18:Src/Settings/settings.h **** 		return 1;
  19:Src/Settings/settings.h **** 	}
  20:Src/Settings/settings.h **** 
  21:Src/Settings/settings.h **** 	const char* current_version_text() {
  22:Src/Settings/settings.h **** 		return "VERSION 1.0";
  23:Src/Settings/settings.h **** 	}
  24:Src/Settings/settings.h **** 
  25:Src/Settings/settings.h **** 	Song song;
  26:Src/Settings/settings.h **** 	DrumKit drumKit;
  27:Src/Settings/settings.h **** 	Calibration calibration;
  28:Src/Settings/settings.h **** 
  29:Src/Settings/settings.h **** 	MidiInput &midiInput(int port) {
  30:Src/Settings/settings.h **** 		return midiInput_[port];
  31:Src/Settings/settings.h **** 	}
  32:Src/Settings/settings.h **** 
  33:Src/Settings/settings.h **** 	MidiOutput &midiOutput(int port) {
  34:Src/Settings/settings.h **** 		return midiOutput_[port];
  35:Src/Settings/settings.h **** 	}
  36:Src/Settings/settings.h **** 
  37:Src/Settings/settings.h **** 	CvInput &cvInput(int port) {
  38:Src/Settings/settings.h **** 		return cvInput_[port];
  39:Src/Settings/settings.h **** 	}
  40:Src/Settings/settings.h **** 
  41:Src/Settings/settings.h **** 	CvOutput &cvOutput(int port) {
  42:Src/Settings/settings.h **** 		return cvOutput_[port];
  43:Src/Settings/settings.h **** 	}
  44:Src/Settings/settings.h **** 
  45:Src/Settings/settings.h **** 	void init() {
  46:Src/Settings/settings.h **** 		selected_track_index_ = 0;
  47:Src/Settings/settings.h **** 		selected_pattern_ = 0;
  48:Src/Settings/settings.h **** 		selected_step_item_ = 0;
  49:Src/Settings/settings.h **** 		follow_pattern_ = false;
  50:Src/Settings/settings.h **** 
  51:Src/Settings/settings.h **** 		song.init();
  52:Src/Settings/settings.h **** 		drumKit.init(&song);
  53:Src/Settings/settings.h **** 		clipboard.init();
  54:Src/Settings/settings.h **** 		path.clear();
  55:Src/Settings/settings.h **** 
  56:Src/Settings/settings.h **** 		if (!calibration_loaded_) {
  57:Src/Settings/settings.h **** 			load_calibration();
  58:Src/Settings/settings.h **** 		}
  59:Src/Settings/settings.h **** 
  60:Src/Settings/settings.h **** 		for (int i = 0; i < CvOutput::NUM_PORTS; ++i) {
  61:Src/Settings/settings.h **** 			cvOutput(i).init();
  62:Src/Settings/settings.h **** 		}
  63:Src/Settings/settings.h **** 
  64:Src/Settings/settings.h **** 		for (int i = 0; i < CvInput::NUM_PORTS; ++i) {
  65:Src/Settings/settings.h **** 			cvInput(i).init();
  66:Src/Settings/settings.h **** 		}
  67:Src/Settings/settings.h **** 
  68:Src/Settings/settings.h **** 		for (int i = 0; i < MidiPort::NUM_PORTS; ++i) {
  69:Src/Settings/settings.h **** 			midiInput(i).init();
  70:Src/Settings/settings.h **** 			midiOutput(i).init();
  71:Src/Settings/settings.h **** 		}
  72:Src/Settings/settings.h **** 	}
ARM GAS  /var/folders/84/_x1cyy_j36g486tldtwl37280000gn/T//cc257jte.s 			page 3


  73:Src/Settings/settings.h **** 
  74:Src/Settings/settings.h **** 	// track
  75:Src/Settings/settings.h **** 	int selected_track_index() {
  76:Src/Settings/settings.h **** 		return selected_track_index_;
  77:Src/Settings/settings.h **** 	}
  78:Src/Settings/settings.h **** 
  79:Src/Settings/settings.h **** 	void select_track_index(int track_index) {
  80:Src/Settings/settings.h **** 		selected_track_index_ = stmlib::clip(0, song.max_tracks() - 1, track_index);
  81:Src/Settings/settings.h **** 		select_pattern(selected_pattern_);
  82:Src/Settings/settings.h **** 		select_step_item(selected_step_item_);
  83:Src/Settings/settings.h **** 	}
  84:Src/Settings/settings.h **** 
  85:Src/Settings/settings.h **** 	// track types
  86:Src/Settings/settings.h **** 	Track& selected_track() {
  40              		.loc 2 86 9 view .LVU2
  41              	.LBB237:
  87:Src/Settings/settings.h **** 		return song.track(selected_track_index_);
  42              		.loc 2 87 3 view .LVU3
  43              		.loc 2 87 3 is_stmt 0 view .LVU4
  44              	.LBE237:
  45              	.LBE236:
  46              		.file 3 "Src/Settings/song.h"
   1:Src/Settings/song.h **** #ifndef Song_h
   2:Src/Settings/song.h **** #define Song_h
   3:Src/Settings/song.h **** 
   4:Src/Settings/song.h **** #include "stmf4lib.h"
   5:Src/Settings/song.h **** #include "track.h"
   6:Src/Settings/song.h **** #include "scale.h"
   7:Src/Settings/song.h **** #include "chord.h"
   8:Src/Settings/song.h **** #include "midiClock.h"
   9:Src/Settings/song.h **** #include "uiList.h"
  10:Src/Settings/song.h **** 
  11:Src/Settings/song.h **** class Song {
  12:Src/Settings/song.h **** 
  13:Src/Settings/song.h **** public:
  14:Src/Settings/song.h **** 
  15:Src/Settings/song.h **** 	Scale scale;
  16:Src/Settings/song.h **** 	MidiClock midiClock;
  17:Src/Settings/song.h **** 
  18:Src/Settings/song.h **** 	Track &track(int index) {
  19:Src/Settings/song.h **** 		return track_[index];
  47              		.loc 3 19 3 is_stmt 1 view .LVU5
   5:Src/Settings/stepEditor.cpp **** 	int pattern = settings.selected_pattern();
  48              		.loc 1 5 2 view .LVU6
  49              	.LBB239:
  50              	.LBI239:
  88:Src/Settings/settings.h **** 	}
  89:Src/Settings/settings.h **** 
  90:Src/Settings/settings.h **** 	NoteTrack& selected_note_track() {
  91:Src/Settings/settings.h **** 		return song.track(selected_track_index_).note;
  92:Src/Settings/settings.h **** 	}
  93:Src/Settings/settings.h **** 
  94:Src/Settings/settings.h **** 	ChordTrack& selected_chord_track() {
  95:Src/Settings/settings.h **** 		return song.track(selected_track_index_).chord;
  96:Src/Settings/settings.h **** 	}
  97:Src/Settings/settings.h **** 
  98:Src/Settings/settings.h **** 	DrumTrack& selected_drum_track() {
ARM GAS  /var/folders/84/_x1cyy_j36g486tldtwl37280000gn/T//cc257jte.s 			page 4


  99:Src/Settings/settings.h **** 		return song.track(selected_track_index_).drum;
 100:Src/Settings/settings.h **** 	}
 101:Src/Settings/settings.h **** 
 102:Src/Settings/settings.h **** 	CurveTrack& selected_curve_track() {
 103:Src/Settings/settings.h **** 		return song.track(selected_track_index_).curve;
 104:Src/Settings/settings.h **** 	}
 105:Src/Settings/settings.h **** 
 106:Src/Settings/settings.h **** 	// pattern
 107:Src/Settings/settings.h **** 	int selected_pattern() {
  51              		.loc 2 107 6 view .LVU7
  52              	.LBB240:
 108:Src/Settings/settings.h **** 		return selected_pattern_;
  53              		.loc 2 108 3 view .LVU8
  54              		.loc 2 108 10 is_stmt 0 view .LVU9
  55 0000 2F48     		ldr	r0, .L12
  56              	.LVL1:
  57              		.loc 2 108 10 view .LVU10
  58              	.LBE240:
  59              	.LBE239:
  60              	.LBB243:
  61              	.LBB238:
  87:Src/Settings/settings.h **** 	}
  62              		.loc 2 87 42 view .LVU11
  63 0002 41F29473 		movw	r3, #6036
  64              	.LBE238:
  65              	.LBE243:
   3:Src/Settings/stepEditor.cpp **** 	Track &track = settings.selected_track();
  66              		.loc 1 3 42 view .LVU12
  67 0006 30B4     		push	{r4, r5}
  68              		.cfi_def_cfa_offset 8
  69              		.cfi_offset 4, -8
  70              		.cfi_offset 5, -4
  71 0008 C358     		ldr	r3, [r0, r3]
  72 000a 4FF4B874 		mov	r4, #368
  73 000e 04FB03F3 		mul	r3, r4, r3
   6:Src/Settings/stepEditor.cpp **** 
   7:Src/Settings/stepEditor.cpp **** 	switch (track.type())
  74              		.loc 1 7 20 view .LVU13
  75 0012 C418     		adds	r4, r0, r3
  76              	.LBB244:
  77              	.LBB241:
  78              		.loc 2 108 10 view .LVU14
  79 0014 41F29875 		movw	r5, #6040
  80              	.LBE241:
  81              	.LBE244:
  82              	.LBB245:
  83              	.LBB246:
  84              		.file 4 "Src/Settings/baseTrack.h"
   1:Src/Settings/baseTrack.h **** #ifndef BaseTrack_h
   2:Src/Settings/baseTrack.h **** #define BaseTrack_h
   3:Src/Settings/baseTrack.h **** 
   4:Src/Settings/baseTrack.h **** #include "stmf4lib.h"
   5:Src/Settings/baseTrack.h **** #include "stringBuilder.h"
   6:Src/Settings/baseTrack.h **** #include "stringUtils.h"
   7:Src/Settings/baseTrack.h **** #include "trackData.h"
   8:Src/Settings/baseTrack.h **** #include "pattern.h"
   9:Src/Settings/baseTrack.h **** #include "midiPort.h"
ARM GAS  /var/folders/84/_x1cyy_j36g486tldtwl37280000gn/T//cc257jte.s 			page 5


  10:Src/Settings/baseTrack.h **** #include "clockEngine.h"
  11:Src/Settings/baseTrack.h **** #include "positionEngine.h"
  12:Src/Settings/baseTrack.h **** #include "repeatEngine.h"
  13:Src/Settings/baseTrack.h **** #include "uiText.h"
  14:Src/Settings/baseTrack.h **** 
  15:Src/Settings/baseTrack.h **** #define ASSERT_STEP_ITEMS(count) static_assert(count < TrackData::kMaxStepItems, "To many step item
  16:Src/Settings/baseTrack.h **** 
  17:Src/Settings/baseTrack.h **** class BaseTrack {
  18:Src/Settings/baseTrack.h **** 
  19:Src/Settings/baseTrack.h **** public:
  20:Src/Settings/baseTrack.h **** 
  21:Src/Settings/baseTrack.h **** 	enum Type {
  22:Src/Settings/baseTrack.h **** 		NOTE_TRACK,
  23:Src/Settings/baseTrack.h **** 		CHORD_TRACK,
  24:Src/Settings/baseTrack.h **** 		DRUM_TRACK,
  25:Src/Settings/baseTrack.h **** 		CURVE_TRACK,
  26:Src/Settings/baseTrack.h **** 
  27:Src/Settings/baseTrack.h **** 		NUM_TYPES
  28:Src/Settings/baseTrack.h **** 	};
  29:Src/Settings/baseTrack.h **** 
  30:Src/Settings/baseTrack.h **** 	static const char* type_text(uint8_t type) {
  31:Src/Settings/baseTrack.h **** 		switch (type)
  32:Src/Settings/baseTrack.h **** 		{
  33:Src/Settings/baseTrack.h **** 		case NOTE_TRACK:	return "NOTE";
  34:Src/Settings/baseTrack.h **** 		case CHORD_TRACK:	return "CHORD";
  35:Src/Settings/baseTrack.h **** 		case DRUM_TRACK:	return "DRUM";
  36:Src/Settings/baseTrack.h **** 		case CURVE_TRACK:	return "CURVE";
  37:Src/Settings/baseTrack.h **** 		default:			return nullptr;
  38:Src/Settings/baseTrack.h **** 			break;
  39:Src/Settings/baseTrack.h **** 		}
  40:Src/Settings/baseTrack.h **** 	}
  41:Src/Settings/baseTrack.h **** 
  42:Src/Settings/baseTrack.h **** 	Pattern pattern;
  43:Src/Settings/baseTrack.h **** 
  44:Src/Settings/baseTrack.h **** 	void init(TrackData *data) {
  45:Src/Settings/baseTrack.h **** 		data_ = data;
  46:Src/Settings/baseTrack.h **** 
  47:Src/Settings/baseTrack.h **** 		pattern_list = &data_->pattern_list_;
  48:Src/Settings/baseTrack.h **** 		pattern_pool = &data_->pattern_pool_;
  49:Src/Settings/baseTrack.h **** 		pattern_list->size_ = 0;
  50:Src/Settings/baseTrack.h **** 
  51:Src/Settings/baseTrack.h **** 		pattern.init(pattern_list);
  52:Src/Settings/baseTrack.h **** 	}
  53:Src/Settings/baseTrack.h **** 
  54:Src/Settings/baseTrack.h **** 	static constexpr uint8_t max_label_length() {
  55:Src/Settings/baseTrack.h **** 		return TrackData::kMaxLabelLength;
  56:Src/Settings/baseTrack.h **** 	}
  57:Src/Settings/baseTrack.h **** 
  58:Src/Settings/baseTrack.h **** 	static constexpr uint16_t max_patterns() {
  59:Src/Settings/baseTrack.h **** 		return TrackData::kMaxPatterns;
  60:Src/Settings/baseTrack.h **** 	}
  61:Src/Settings/baseTrack.h **** 
  62:Src/Settings/baseTrack.h **** 	static constexpr uint8_t max_steps_per_pattern() {
  63:Src/Settings/baseTrack.h **** 		return TrackData::kMaxStepsPerPattern;
  64:Src/Settings/baseTrack.h **** 	}
  65:Src/Settings/baseTrack.h **** 
  66:Src/Settings/baseTrack.h **** 	constexpr uint32_t* settings() {
ARM GAS  /var/folders/84/_x1cyy_j36g486tldtwl37280000gn/T//cc257jte.s 			page 6


  67:Src/Settings/baseTrack.h **** 		return &data_->serial_[0];
  68:Src/Settings/baseTrack.h **** 	}
  69:Src/Settings/baseTrack.h **** 
  70:Src/Settings/baseTrack.h **** 	// type
  71:Src/Settings/baseTrack.h **** 	uint8_t type() {
  72:Src/Settings/baseTrack.h **** 		return data_->type_;
  85              		.loc 4 72 17 view .LVU15
  86 0018 D4F89040 		ldr	r4, [r4, #144]
  87              	.LBE246:
  88              	.LBE245:
  89              	.LBB249:
  90              	.LBB242:
  91              		.loc 2 108 10 view .LVU16
  92 001c 4059     		ldr	r0, [r0, r5]
  93              	.LVL2:
  94              		.loc 2 108 10 view .LVU17
  95              	.LBE242:
  96              	.LBE249:
  97              		.loc 1 7 2 is_stmt 1 view .LVU18
  98              	.LBB250:
  99              	.LBI245:
  71:Src/Settings/baseTrack.h **** 		return data_->type_;
 100              		.loc 4 71 10 view .LVU19
 101              	.LBB247:
 102              		.loc 4 72 3 view .LVU20
 103 001e 94F800C0 		ldrb	ip, [r4]	@ zero_extendqisi2
 104 0022 BCF1030F 		cmp	ip, #3
 105 0026 49D8     		bhi	.L8
 106 0028 DFE80CF0 		tbb	[pc, ip]
 107              	.L4:
 108 002c 1F       		.byte	(.L7-.L4)/2
 109 002d 3E       		.byte	(.L6-.L4)/2
 110 002e 43       		.byte	(.L5-.L4)/2
 111 002f 02       		.byte	(.L3-.L4)/2
 112              		.p2align 1
 113              	.L3:
 114              	.LBE247:
 115              	.LBE250:
   8:Src/Settings/stepEditor.cpp **** 	{
   9:Src/Settings/stepEditor.cpp **** 	case Track::NOTE_TRACK:
  10:Src/Settings/stepEditor.cpp **** 		return track.note.read_step(pattern, step, NoteTrack::StepItem(item));
  11:Src/Settings/stepEditor.cpp **** 	case Track::CHORD_TRACK:
  12:Src/Settings/stepEditor.cpp **** 		return track.chord.read_step(pattern, step, ChordTrack::StepItem(item));
  13:Src/Settings/stepEditor.cpp **** 	case Track::DRUM_TRACK:
  14:Src/Settings/stepEditor.cpp **** 		return track.drum.read_step(pattern, step, DrumTrack::StepItem(item));
  15:Src/Settings/stepEditor.cpp **** 	case Track::CURVE_TRACK:
 116              		.loc 1 15 2 view .LVU21
  16:Src/Settings/stepEditor.cpp **** 		return track.curve.read_step(pattern, step, CurveTrack::StepItem(item));
 117              		.loc 1 16 3 view .LVU22
 118              	.LVL3:
 119              	.LBB251:
 120              	.LBI251:
 121              		.file 5 "Src/Settings/curveTrack.h"
   1:Src/Settings/curveTrack.h **** #ifndef CurveTrack_h
   2:Src/Settings/curveTrack.h **** #define CurveTrack_h
   3:Src/Settings/curveTrack.h **** 
   4:Src/Settings/curveTrack.h **** #include "baseTrack.h"
ARM GAS  /var/folders/84/_x1cyy_j36g486tldtwl37280000gn/T//cc257jte.s 			page 7


   5:Src/Settings/curveTrack.h **** #include "serialItem.h"
   6:Src/Settings/curveTrack.h **** 
   7:Src/Settings/curveTrack.h **** class CurveTrack : public BaseTrack {
   8:Src/Settings/curveTrack.h **** 
   9:Src/Settings/curveTrack.h **** public:
  10:Src/Settings/curveTrack.h **** 
  11:Src/Settings/curveTrack.h **** 	enum Item {
  12:Src/Settings/curveTrack.h **** 		INIT_VALUE,
  13:Src/Settings/curveTrack.h **** 		CC_NUMBER,
  14:Src/Settings/curveTrack.h **** 		SEND_CC,
  15:Src/Settings/curveTrack.h **** 		SEND_BEND,
  16:Src/Settings/curveTrack.h **** 		NUM_TRACK_ITEMS
  17:Src/Settings/curveTrack.h **** 	};
  18:Src/Settings/curveTrack.h **** 
  19:Src/Settings/curveTrack.h **** 	enum StepItem {
  20:Src/Settings/curveTrack.h **** 		TRIGGER,
  21:Src/Settings/curveTrack.h **** 		PROBABILITY,
  22:Src/Settings/curveTrack.h **** 		CC_VALUE,
  23:Src/Settings/curveTrack.h **** 		SHAPE,
  24:Src/Settings/curveTrack.h **** 		SHIFT,
  25:Src/Settings/curveTrack.h **** 		NUM_STEP_ITEMS
  26:Src/Settings/curveTrack.h **** 	};
  27:Src/Settings/curveTrack.h **** 
  28:Src/Settings/curveTrack.h **** 	static const char* step_item_text(StepItem item) {
  29:Src/Settings/curveTrack.h **** 		switch (item)
  30:Src/Settings/curveTrack.h **** 		{
  31:Src/Settings/curveTrack.h **** 		case TRIGGER:		return "TRIGGER";
  32:Src/Settings/curveTrack.h **** 		case PROBABILITY:	return "PROBABILITY";
  33:Src/Settings/curveTrack.h **** 		case CC_VALUE:		return "CC VALUE";
  34:Src/Settings/curveTrack.h **** 		case SHAPE:			return "SHAPE";
  35:Src/Settings/curveTrack.h **** 		case SHIFT:			return "SHIFT";
  36:Src/Settings/curveTrack.h **** 		default:
  37:Src/Settings/curveTrack.h **** 			break;
  38:Src/Settings/curveTrack.h **** 		}
  39:Src/Settings/curveTrack.h **** 		return nullptr;
  40:Src/Settings/curveTrack.h **** 	}
  41:Src/Settings/curveTrack.h **** 
  42:Src/Settings/curveTrack.h **** 	static const char* step_value_text(StepItem item, int data) {
  43:Src/Settings/curveTrack.h **** 		switch (item)
  44:Src/Settings/curveTrack.h **** 		{
  45:Src/Settings/curveTrack.h **** 		case TRIGGER:		return UiText::bool_to_on_off(data);
  46:Src/Settings/curveTrack.h **** 		case PROBABILITY:	return UiText::percentage_text(data, 7);
  47:Src/Settings/curveTrack.h **** 		case CC_VALUE:		return UiText::unsigned_int_to_text(data);
  48:Src/Settings/curveTrack.h **** 		case SHAPE:			return UiText::percentage_text(data, 9);
  49:Src/Settings/curveTrack.h **** 		case SHIFT:			return UiText::signed_int_to_text(data - 4);
  50:Src/Settings/curveTrack.h **** 		default:
  51:Src/Settings/curveTrack.h **** 			break;
  52:Src/Settings/curveTrack.h **** 		}
  53:Src/Settings/curveTrack.h **** 		return nullptr;
  54:Src/Settings/curveTrack.h **** 	}
  55:Src/Settings/curveTrack.h **** 
  56:Src/Settings/curveTrack.h **** 	ASSERT_STEP_ITEMS(NUM_STEP_ITEMS);
  57:Src/Settings/curveTrack.h **** 
  58:Src/Settings/curveTrack.h **** 
  59:Src/Settings/curveTrack.h **** 	void init(TrackData *data) {
  60:Src/Settings/curveTrack.h **** 		BaseTrack::init(data);
  61:Src/Settings/curveTrack.h **** 	}
ARM GAS  /var/folders/84/_x1cyy_j36g486tldtwl37280000gn/T//cc257jte.s 			page 8


  62:Src/Settings/curveTrack.h **** 
  63:Src/Settings/curveTrack.h **** 	void clear() {
  64:Src/Settings/curveTrack.h **** 		BaseTrack::clear();
  65:Src/Settings/curveTrack.h **** 		CurveTrack::add_pattern();
  66:Src/Settings/curveTrack.h **** 		for (int i = 0; i < NUM_TRACK_ITEMS; ++i) {
  67:Src/Settings/curveTrack.h **** 			Item item = Item(i);
  68:Src/Settings/curveTrack.h **** 			write(item, track_item_[item].init_value());
  69:Src/Settings/curveTrack.h **** 		}
  70:Src/Settings/curveTrack.h **** 	}
  71:Src/Settings/curveTrack.h **** 
  72:Src/Settings/curveTrack.h **** 	SerialItem &item(Item item) {
  73:Src/Settings/curveTrack.h **** 		return track_item_[item];
  74:Src/Settings/curveTrack.h **** 	}
  75:Src/Settings/curveTrack.h **** 
  76:Src/Settings/curveTrack.h **** 	SerialItem &item(StepItem item) {
  77:Src/Settings/curveTrack.h **** 		return step_item_[item];
  78:Src/Settings/curveTrack.h **** 	}
  79:Src/Settings/curveTrack.h **** 
  80:Src/Settings/curveTrack.h **** 	// edit
  81:Src/Settings/curveTrack.h **** 	void edit(Item item, int enc_state, bool shifted) {
  82:Src/Settings/curveTrack.h **** 		int value = read(item);
  83:Src/Settings/curveTrack.h **** 		int inc_ = track_item_[item].inc(enc_state, shifted);
  84:Src/Settings/curveTrack.h **** 		write(item, value + inc_);
  85:Src/Settings/curveTrack.h **** 	}
  86:Src/Settings/curveTrack.h **** 
  87:Src/Settings/curveTrack.h **** 	void edit_random_min(int pattern, StepItem item, int enc_state, bool shifted) {
  88:Src/Settings/curveTrack.h **** 		int value = read_random_min(pattern, item);
  89:Src/Settings/curveTrack.h **** 		int inc_ = step_item_[item].inc(enc_state, shifted);
  90:Src/Settings/curveTrack.h **** 		write_random_min(pattern, item, value + inc_);
  91:Src/Settings/curveTrack.h **** 	}
  92:Src/Settings/curveTrack.h **** 
  93:Src/Settings/curveTrack.h **** 	void edit_random_max(int pattern, StepItem item, int enc_state, bool shifted) {
  94:Src/Settings/curveTrack.h **** 		int value = read_random_max(pattern, item);
  95:Src/Settings/curveTrack.h **** 		int inc_ = step_item_[item].inc(enc_state, shifted);
  96:Src/Settings/curveTrack.h **** 		write_random_max(pattern, item, value + inc_);
  97:Src/Settings/curveTrack.h **** 	}
  98:Src/Settings/curveTrack.h **** 
  99:Src/Settings/curveTrack.h **** 	void edit_step(int pattern, int step, StepItem item, int enc_state, bool shifted) {
 100:Src/Settings/curveTrack.h **** 		int value = read_step(pattern, step, item);
 101:Src/Settings/curveTrack.h **** 		int inc_ = step_item_[item].inc(enc_state, shifted);
 102:Src/Settings/curveTrack.h **** 		write_step(pattern, step, item, value + inc_);
 103:Src/Settings/curveTrack.h **** 	}
 104:Src/Settings/curveTrack.h **** 
 105:Src/Settings/curveTrack.h **** 	// reading
 106:Src/Settings/curveTrack.h **** 	int read(Item item) {
 107:Src/Settings/curveTrack.h **** 		return track_item_[item].read(BaseTrack::settings());
 108:Src/Settings/curveTrack.h **** 	}
 109:Src/Settings/curveTrack.h **** 
 110:Src/Settings/curveTrack.h **** 	int read_step(int pattern_index, int step_index, StepItem item) {
 122              		.loc 5 110 6 view .LVU23
 123              	.LBB252:
 111:Src/Settings/curveTrack.h **** 		return step_item_[item].read(BaseTrack::pattern.step(pattern_index, step_index));
 124              		.loc 5 111 3 view .LVU24
 125              	.LBB253:
 126              	.LBI253:
 127              		.file 6 "Src/Settings/pattern.h"
   1:Src/Settings/pattern.h **** #ifndef Pattern_h
ARM GAS  /var/folders/84/_x1cyy_j36g486tldtwl37280000gn/T//cc257jte.s 			page 9


   2:Src/Settings/pattern.h **** #define Pattern_h
   3:Src/Settings/pattern.h **** 
   4:Src/Settings/pattern.h **** #include "trackData.h"
   5:Src/Settings/pattern.h **** #include "uiText.h"
   6:Src/Settings/pattern.h **** 
   7:Src/Settings/pattern.h **** // base pattern
   8:Src/Settings/pattern.h **** 
   9:Src/Settings/pattern.h **** class Pattern {
  10:Src/Settings/pattern.h **** 
  11:Src/Settings/pattern.h **** public:
  12:Src/Settings/pattern.h **** 
  13:Src/Settings/pattern.h **** 	void init(TrackData::List *list) {
  14:Src/Settings/pattern.h **** 		list_ = list;
  15:Src/Settings/pattern.h **** 	}
  16:Src/Settings/pattern.h **** 
  17:Src/Settings/pattern.h **** 	constexpr TrackData::Pattern &data(uint8_t index) {
  18:Src/Settings/pattern.h **** 		return TrackData::pattern_[list_->entry_[index]];
  19:Src/Settings/pattern.h **** 	}
  20:Src/Settings/pattern.h **** 
  21:Src/Settings/pattern.h **** 	constexpr uint32_t* step(uint8_t index, uint8_t step_index) {
 128              		.loc 6 21 22 view .LVU25
 129              	.LBB254:
  22:Src/Settings/pattern.h **** 		return &data(index).step_[step_index].serial_[0];
 130              		.loc 6 22 3 view .LVU26
 131              	.LBB255:
 132              	.LBI255:
  17:Src/Settings/pattern.h **** 		return TrackData::pattern_[list_->entry_[index]];
 133              		.loc 6 17 32 view .LVU27
 134              	.LBB256:
  18:Src/Settings/pattern.h **** 	}
 135              		.loc 6 18 3 view .LVU28
  18:Src/Settings/pattern.h **** 	}
 136              		.loc 6 18 3 is_stmt 0 view .LVU29
 137              	.LBE256:
 138              	.LBE255:
 139              	.LBE254:
 140              	.LBE253:
 141              		.loc 5 111 31 view .LVU30
 142 0030 244C     		ldr	r4, .L12+4
 143              	.LBB264:
 144              	.LBB261:
 145              		.loc 6 22 21 view .LVU31
 146 0032 254D     		ldr	r5, .L12+8
 147              	.LBE261:
 148              	.LBE264:
 149              		.loc 5 111 31 view .LVU32
 150 0034 D2B2     		uxtb	r2, r2
 151              	.LVL4:
 152              		.loc 5 111 31 view .LVU33
 153 0036 02EB420C 		add	ip, r2, r2, lsl #1
 154 003a 04EBCC02 		add	r2, r4, ip, lsl #3
 155              	.LVL5:
 156              	.LBB265:
 157              	.LBB262:
 158              	.LBB259:
 159              	.LBB257:
  18:Src/Settings/pattern.h **** 	}
ARM GAS  /var/folders/84/_x1cyy_j36g486tldtwl37280000gn/T//cc257jte.s 			page 10


 160              		.loc 6 18 49 view .LVU34
 161 003e 5B59     		ldr	r3, [r3, r5]
 162              	.LVL6:
  18:Src/Settings/pattern.h **** 	}
 163              		.loc 6 18 49 view .LVU35
 164              	.LBE257:
 165              	.LBE259:
 166              	.LBE262:
 167              	.LBE265:
 168              		.loc 5 111 31 view .LVU36
 169 0040 1269     		ldr	r2, [r2, #16]
 170              	.LVL7:
 171              	.LBB266:
 172              	.LBI266:
 173              		.file 7 "Src/Settings/serialItem.h"
   1:Src/Settings/serialItem.h **** #ifndef SerialItem_h
   2:Src/Settings/serialItem.h **** #define SerialItem_h
   3:Src/Settings/serialItem.h **** 
   4:Src/Settings/serialItem.h **** #include "serial.h"
   5:Src/Settings/serialItem.h **** 
   6:Src/Settings/serialItem.h **** class SerialItem {
   7:Src/Settings/serialItem.h **** 
   8:Src/Settings/serialItem.h **** public:
   9:Src/Settings/serialItem.h **** 	const int min_;
  10:Src/Settings/serialItem.h **** 	const int max_;
  11:Src/Settings/serialItem.h **** 	const int inc_shifted_;
  12:Src/Settings/serialItem.h **** 	const int init_value_;
  13:Src/Settings/serialItem.h **** 	SerialMask &mask_;
  14:Src/Settings/serialItem.h **** 	Serial serial;
  15:Src/Settings/serialItem.h **** 
  16:Src/Settings/serialItem.h **** 	constexpr int min() const { return min_; }
  17:Src/Settings/serialItem.h **** 	constexpr int max() const { return max_; }
  18:Src/Settings/serialItem.h **** 	constexpr int init_value() const { return init_value_; }
  19:Src/Settings/serialItem.h **** 
  20:Src/Settings/serialItem.h **** 	inline int inc(int inc_, bool shifted) {
  21:Src/Settings/serialItem.h **** 		return shifted ? inc_ * inc_shifted_ : inc_;
  22:Src/Settings/serialItem.h **** 	}
  23:Src/Settings/serialItem.h **** 
  24:Src/Settings/serialItem.h **** 	inline int read(uint32_t *ptr) {
 174              		.loc 7 24 13 is_stmt 1 view .LVU37
 175              	.LBB267:
  25:Src/Settings/serialItem.h **** 		return serial.read(mask_, ptr);
 176              		.loc 7 25 3 view .LVU38
 177              	.LBB268:
 178              	.LBI268:
 179              		.file 8 "Src/Settings/serial.h"
   1:Src/Settings/serial.h **** #ifndef Serial_h
   2:Src/Settings/serial.h **** #define Serial_h
   3:Src/Settings/serial.h **** 
   4:Src/Settings/serial.h **** #include "stmf4lib.h"
   5:Src/Settings/serial.h **** 
   6:Src/Settings/serial.h **** struct SerialMask {
   7:Src/Settings/serial.h **** 	const uint8_t reg;		// 32 bits per register
   8:Src/Settings/serial.h **** 	const uint8_t bits;		// max 32
   9:Src/Settings/serial.h **** 	const uint8_t shifts;	// prev bits + prev shifts
  10:Src/Settings/serial.h **** 	const uint32_t value = ((1 << bits) - 1) << shifts;
  11:Src/Settings/serial.h **** };
ARM GAS  /var/folders/84/_x1cyy_j36g486tldtwl37280000gn/T//cc257jte.s 			page 11


  12:Src/Settings/serial.h **** 
  13:Src/Settings/serial.h **** class Serial {
  14:Src/Settings/serial.h **** 
  15:Src/Settings/serial.h **** public:
  16:Src/Settings/serial.h **** 
  17:Src/Settings/serial.h **** 	inline uint32_t read(SerialMask &mask, uint32_t *ptr) {
 180              		.loc 8 17 18 view .LVU39
 181              	.LBB269:
  18:Src/Settings/serial.h **** 		uint32_t data = ptr[mask.reg];
 182              		.loc 8 18 3 view .LVU40
  19:Src/Settings/serial.h **** 		return (data & mask.value) >> mask.shifts;
 183              		.loc 8 19 3 view .LVU41
 184              		.loc 8 19 3 is_stmt 0 view .LVU42
 185              	.LBE269:
 186              	.LBE268:
 187              	.LBE267:
 188              	.LBE266:
 189              	.LBB273:
 190              	.LBB263:
 191              	.LBB260:
 192              	.LBB258:
  18:Src/Settings/pattern.h **** 	}
 193              		.loc 6 18 49 view .LVU43
 194 0042 C0B2     		uxtb	r0, r0
 195              	.LVL8:
  18:Src/Settings/pattern.h **** 	}
 196              		.loc 6 18 49 view .LVU44
 197              	.LBE258:
 198              	.LBE260:
 199              	.LBE263:
 200              	.LBE273:
 201              	.LBB274:
 202              	.LBB272:
 203              	.LBB271:
 204              	.LBB270:
  18:Src/Settings/serial.h **** 		uint32_t data = ptr[mask.reg];
 205              		.loc 8 18 31 view .LVU45
 206 0044 C9B2     		uxtb	r1, r1
 207              	.LVL9:
  18:Src/Settings/serial.h **** 		uint32_t data = ptr[mask.reg];
 208              		.loc 8 18 31 view .LVU46
 209 0046 1D5C     		ldrb	r5, [r3, r0]	@ zero_extendqisi2
 210 0048 1478     		ldrb	r4, [r2]	@ zero_extendqisi2
  18:Src/Settings/serial.h **** 		uint32_t data = ptr[mask.reg];
 211              		.loc 8 18 12 view .LVU47
 212 004a 2048     		ldr	r0, .L12+12
  18:Src/Settings/serial.h **** 		uint32_t data = ptr[mask.reg];
 213              		.loc 8 18 31 view .LVU48
 214 004c 0131     		adds	r1, r1, #1
 215 004e 4FF0170C 		mov	ip, #23
 216 0052 1CFB0513 		smlabb	r3, ip, r5, r1
 217 0056 DD00     		lsls	r5, r3, #3
 218 0058 05EB8401 		add	r1, r5, r4, lsl #2
 219              		.loc 8 19 16 view .LVU49
 220 005c 5468     		ldr	r4, [r2, #4]
 221 005e 0858     		ldr	r0, [r1, r0]
 222              		.loc 8 19 38 view .LVU50
ARM GAS  /var/folders/84/_x1cyy_j36g486tldtwl37280000gn/T//cc257jte.s 			page 12


 223 0060 9278     		ldrb	r2, [r2, #2]	@ zero_extendqisi2
 224              		.loc 8 19 16 view .LVU51
 225 0062 2040     		ands	r0, r0, r4
 226              		.loc 8 19 38 view .LVU52
 227 0064 D040     		lsrs	r0, r0, r2
 228              	.LVL10:
 229              	.L1:
 230              		.loc 8 19 38 view .LVU53
 231              	.LBE270:
 232              	.LBE271:
 233              	.LBE272:
 234              	.LBE274:
 235              	.LBE252:
 236              	.LBE251:
  17:Src/Settings/stepEditor.cpp **** 	default:
  18:Src/Settings/stepEditor.cpp **** 		break;
  19:Src/Settings/stepEditor.cpp **** 	}
  20:Src/Settings/stepEditor.cpp **** 	return 0;
  21:Src/Settings/stepEditor.cpp **** }
 237              		.loc 1 21 1 view .LVU54
 238 0066 30BC     		pop	{r4, r5}
 239              		.cfi_remember_state
 240              		.cfi_restore 5
 241              		.cfi_restore 4
 242              		.cfi_def_cfa_offset 0
 243 0068 7047     		bx	lr
 244              	.LVL11:
 245              	.L7:
 246              		.cfi_restore_state
   9:Src/Settings/stepEditor.cpp **** 		return track.note.read_step(pattern, step, NoteTrack::StepItem(item));
 247              		.loc 1 9 2 is_stmt 1 view .LVU55
  10:Src/Settings/stepEditor.cpp **** 	case Track::CHORD_TRACK:
 248              		.loc 1 10 3 view .LVU56
 249              	.LBB275:
 250              	.LBI275:
 251              		.file 9 "Src/Settings/noteTrack.h"
   1:Src/Settings/noteTrack.h **** #ifndef NoteTrack_h
   2:Src/Settings/noteTrack.h **** #define NoteTrack_h
   3:Src/Settings/noteTrack.h **** 
   4:Src/Settings/noteTrack.h **** #include "baseTrack.h"
   5:Src/Settings/noteTrack.h **** #include "serialItem.h"
   6:Src/Settings/noteTrack.h **** #include "scale.h"
   7:Src/Settings/noteTrack.h **** #include "uiText.h"
   8:Src/Settings/noteTrack.h **** #include "fileReader.h"
   9:Src/Settings/noteTrack.h **** #include "fileWriter.h"
  10:Src/Settings/noteTrack.h **** 
  11:Src/Settings/noteTrack.h **** class NoteTrack : public BaseTrack {
  12:Src/Settings/noteTrack.h **** 
  13:Src/Settings/noteTrack.h **** public:
  14:Src/Settings/noteTrack.h **** 
  15:Src/Settings/noteTrack.h **** 	enum Item {
  16:Src/Settings/noteTrack.h **** 		USE_SCALE,
  17:Src/Settings/noteTrack.h **** 		NUM_TRACK_ITEMS
  18:Src/Settings/noteTrack.h **** 	};
  19:Src/Settings/noteTrack.h **** 
  20:Src/Settings/noteTrack.h **** 	enum StepItem {
  21:Src/Settings/noteTrack.h **** 		TRIGGER,
ARM GAS  /var/folders/84/_x1cyy_j36g486tldtwl37280000gn/T//cc257jte.s 			page 13


  22:Src/Settings/noteTrack.h **** 		NOTE,
  23:Src/Settings/noteTrack.h **** 		VELOCITY,
  24:Src/Settings/noteTrack.h **** 		GATE_LENGTH,
  25:Src/Settings/noteTrack.h **** 		NUM_REPEATS,
  26:Src/Settings/noteTrack.h **** 		REPEAT_SPREAD,
  27:Src/Settings/noteTrack.h **** 		REPEAT_VELOCITY,
  28:Src/Settings/noteTrack.h **** 		DELAY,
  29:Src/Settings/noteTrack.h **** 		PROBABILITY,
  30:Src/Settings/noteTrack.h **** 		NUM_STEP_ITEMS
  31:Src/Settings/noteTrack.h **** 	};
  32:Src/Settings/noteTrack.h **** 
  33:Src/Settings/noteTrack.h **** 	ASSERT_STEP_ITEMS(NUM_STEP_ITEMS);
  34:Src/Settings/noteTrack.h **** 
  35:Src/Settings/noteTrack.h **** 	// text
  36:Src/Settings/noteTrack.h **** 	static const char* step_item_text(StepItem item) {
  37:Src/Settings/noteTrack.h **** 		switch (item)
  38:Src/Settings/noteTrack.h **** 		{
  39:Src/Settings/noteTrack.h **** 		case TRIGGER:			return "TRIGGER";
  40:Src/Settings/noteTrack.h **** 		case NOTE:				return "NOTE";
  41:Src/Settings/noteTrack.h **** 		case VELOCITY:			return "VELOCITY";
  42:Src/Settings/noteTrack.h **** 		case GATE_LENGTH:		return "GATE LENGTH";
  43:Src/Settings/noteTrack.h **** 		case NUM_REPEATS:		return "REPEAT";
  44:Src/Settings/noteTrack.h **** 		case REPEAT_SPREAD:		return "REPEAT SPREAD";
  45:Src/Settings/noteTrack.h **** 		case REPEAT_VELOCITY:	return "REPEAT VELOCITY";
  46:Src/Settings/noteTrack.h **** 		case DELAY:				return "DELAY";
  47:Src/Settings/noteTrack.h **** 		case PROBABILITY:		return "PROBABILITY";
  48:Src/Settings/noteTrack.h **** 		default:
  49:Src/Settings/noteTrack.h **** 			break;
  50:Src/Settings/noteTrack.h **** 		}
  51:Src/Settings/noteTrack.h **** 		return nullptr;
  52:Src/Settings/noteTrack.h **** 	}
  53:Src/Settings/noteTrack.h **** 
  54:Src/Settings/noteTrack.h **** 	static const char* step_value_text(StepItem item, int value) {
  55:Src/Settings/noteTrack.h **** 		switch (item)
  56:Src/Settings/noteTrack.h **** 		{
  57:Src/Settings/noteTrack.h **** 		case TRIGGER:			return UiText::bool_to_on_off(value);
  58:Src/Settings/noteTrack.h **** 		case NOTE:				return UiText::note_text(value);
  59:Src/Settings/noteTrack.h **** 		case VELOCITY:			return UiText::unsigned_int_to_text(value);
  60:Src/Settings/noteTrack.h **** 		case GATE_LENGTH:		return ClockEngine::gate_duration_text(value);
  61:Src/Settings/noteTrack.h **** 		case NUM_REPEATS:		return RepeatEngine::repeat_text(value);
  62:Src/Settings/noteTrack.h **** 		case REPEAT_SPREAD:		return RepeatEngine::spread_text(value);
  63:Src/Settings/noteTrack.h **** 		case REPEAT_VELOCITY:	return RepeatEngine::velocity_ramp_text(value);
  64:Src/Settings/noteTrack.h **** 		case DELAY:				return ClockEngine::gate_duration_text(value);
  65:Src/Settings/noteTrack.h **** 		case PROBABILITY:		return UiText::percentage_text(value, 7);
  66:Src/Settings/noteTrack.h **** 		default:
  67:Src/Settings/noteTrack.h **** 			break;
  68:Src/Settings/noteTrack.h **** 		}
  69:Src/Settings/noteTrack.h **** 		return nullptr;
  70:Src/Settings/noteTrack.h **** 	}
  71:Src/Settings/noteTrack.h **** 
  72:Src/Settings/noteTrack.h **** 	void init(TrackData *data) {
  73:Src/Settings/noteTrack.h **** 		BaseTrack::init(data);
  74:Src/Settings/noteTrack.h **** 	}
  75:Src/Settings/noteTrack.h **** 
  76:Src/Settings/noteTrack.h **** 	void clear() {
  77:Src/Settings/noteTrack.h **** 		BaseTrack::clear();
  78:Src/Settings/noteTrack.h **** 		NoteTrack::add_pattern();
ARM GAS  /var/folders/84/_x1cyy_j36g486tldtwl37280000gn/T//cc257jte.s 			page 14


  79:Src/Settings/noteTrack.h **** 		for (int i = 0; i < NUM_TRACK_ITEMS; ++i) {
  80:Src/Settings/noteTrack.h **** 			Item item = Item(i);
  81:Src/Settings/noteTrack.h **** 			write(item, track_item_[item].init_value());
  82:Src/Settings/noteTrack.h **** 		}
  83:Src/Settings/noteTrack.h **** 	}
  84:Src/Settings/noteTrack.h **** 
  85:Src/Settings/noteTrack.h **** 	SerialItem &item(StepItem item) {
  86:Src/Settings/noteTrack.h **** 		return step_item_[item];
  87:Src/Settings/noteTrack.h **** 	}
  88:Src/Settings/noteTrack.h **** 
  89:Src/Settings/noteTrack.h **** 	SerialItem &item(Item item) {
  90:Src/Settings/noteTrack.h **** 		return track_item_[item];
  91:Src/Settings/noteTrack.h **** 	}
  92:Src/Settings/noteTrack.h **** 
  93:Src/Settings/noteTrack.h **** 	// edit
  94:Src/Settings/noteTrack.h **** 	void edit(Item item, int enc_state, bool shifted) {
  95:Src/Settings/noteTrack.h **** 		int value = read(item);
  96:Src/Settings/noteTrack.h **** 		int inc_ = track_item_[item].inc(enc_state, shifted);
  97:Src/Settings/noteTrack.h **** 		write(item, value + inc_);
  98:Src/Settings/noteTrack.h **** 	}
  99:Src/Settings/noteTrack.h **** 
 100:Src/Settings/noteTrack.h **** 	void edit_random_min(int pattern, StepItem item, int enc_state, bool shifted) {
 101:Src/Settings/noteTrack.h **** 		int value = read_random_min(pattern, item);
 102:Src/Settings/noteTrack.h **** 		int inc_ = step_item_[item].inc(enc_state, shifted);
 103:Src/Settings/noteTrack.h **** 		write_random_min(pattern, item, value + inc_);
 104:Src/Settings/noteTrack.h **** 	}
 105:Src/Settings/noteTrack.h **** 
 106:Src/Settings/noteTrack.h **** 	void edit_random_max(int pattern, StepItem item, int enc_state, bool shifted) {
 107:Src/Settings/noteTrack.h **** 		int value = read_random_max(pattern, item);
 108:Src/Settings/noteTrack.h **** 		int inc_ = step_item_[item].inc(enc_state, shifted);
 109:Src/Settings/noteTrack.h **** 		write_random_max(pattern, item, value + inc_);
 110:Src/Settings/noteTrack.h **** 	}
 111:Src/Settings/noteTrack.h **** 
 112:Src/Settings/noteTrack.h **** 	void edit_step(int pattern, int step, StepItem item, int enc_state, bool shifted) {
 113:Src/Settings/noteTrack.h **** 		int value = read_step(pattern, step, item);
 114:Src/Settings/noteTrack.h **** 		int inc_ = step_item_[item].inc(enc_state, shifted);
 115:Src/Settings/noteTrack.h **** 		write_step(pattern, step, item, value + inc_);
 116:Src/Settings/noteTrack.h **** 	}
 117:Src/Settings/noteTrack.h **** 
 118:Src/Settings/noteTrack.h **** 	// reading
 119:Src/Settings/noteTrack.h **** 	int read(Item item) {
 120:Src/Settings/noteTrack.h **** 		return track_item_[item].read(BaseTrack::settings());
 121:Src/Settings/noteTrack.h **** 	}
 122:Src/Settings/noteTrack.h **** 
 123:Src/Settings/noteTrack.h **** 	int read_step(int pattern_index, int step_index, StepItem item) {
 252              		.loc 9 123 6 view .LVU57
 253              	.LBB276:
 124:Src/Settings/noteTrack.h **** 		return step_item_[item].read(BaseTrack::pattern.step(pattern_index, step_index));
 254              		.loc 9 124 3 view .LVU58
 255              	.LBB277:
 256              	.LBI277:
  21:Src/Settings/pattern.h **** 		return &data(index).step_[step_index].serial_[0];
 257              		.loc 6 21 22 view .LVU59
 258              	.LBB278:
 259              		.loc 6 22 3 view .LVU60
 260              	.LBB279:
 261              	.LBI279:
ARM GAS  /var/folders/84/_x1cyy_j36g486tldtwl37280000gn/T//cc257jte.s 			page 15


  17:Src/Settings/pattern.h **** 		return TrackData::pattern_[list_->entry_[index]];
 262              		.loc 6 17 32 view .LVU61
 263              	.LBB280:
  18:Src/Settings/pattern.h **** 	}
 264              		.loc 6 18 3 view .LVU62
  18:Src/Settings/pattern.h **** 	}
 265              		.loc 6 18 3 is_stmt 0 view .LVU63
 266              	.LBE280:
 267              	.LBE279:
 268              	.LBE278:
 269              	.LBE277:
 270              		.loc 9 124 31 view .LVU64
 271 006a 194C     		ldr	r4, .L12+16
 272              	.LBB282:
 273              	.LBB281:
 274              		.loc 6 22 21 view .LVU65
 275 006c 194D     		ldr	r5, .L12+20
 276              	.LBE281:
 277              	.LBE282:
 278              		.loc 9 124 31 view .LVU66
 279 006e 5FFA82FC 		uxtb	ip, r2
 280              	.LVL12:
 281              	.L10:
 282              		.loc 9 124 31 view .LVU67
 283              	.LBE276:
 284              	.LBE275:
 285              	.LBB283:
 286              	.LBB284:
 287              		.file 10 "Src/Settings/drumTrack.h"
   1:Src/Settings/drumTrack.h **** #ifndef DrumTrack_h
   2:Src/Settings/drumTrack.h **** #define DrumTrack_h
   3:Src/Settings/drumTrack.h **** 
   4:Src/Settings/drumTrack.h **** #include "baseTrack.h"
   5:Src/Settings/drumTrack.h **** #include "serialItem.h"
   6:Src/Settings/drumTrack.h **** 
   7:Src/Settings/drumTrack.h **** class DrumTrack : public BaseTrack {
   8:Src/Settings/drumTrack.h **** 
   9:Src/Settings/drumTrack.h **** public:
  10:Src/Settings/drumTrack.h **** 
  11:Src/Settings/drumTrack.h **** 	enum Item {
  12:Src/Settings/drumTrack.h **** 		DRUM_NOTE,
  13:Src/Settings/drumTrack.h **** 		NUM_TRACK_ITEMS
  14:Src/Settings/drumTrack.h **** 	};
  15:Src/Settings/drumTrack.h **** 
  16:Src/Settings/drumTrack.h **** 	enum StepItem {
  17:Src/Settings/drumTrack.h **** 		TRIGGER,
  18:Src/Settings/drumTrack.h **** 		PROBABILITY,
  19:Src/Settings/drumTrack.h **** 		VELOCITY,
  20:Src/Settings/drumTrack.h **** 		GATE_LENGTH,
  21:Src/Settings/drumTrack.h **** 		NUM_REPEATS,
  22:Src/Settings/drumTrack.h **** 		REPEAT_SPREAD,
  23:Src/Settings/drumTrack.h **** 		REPEAT_VELOCITY,
  24:Src/Settings/drumTrack.h **** 		DELAY,
  25:Src/Settings/drumTrack.h **** 		NUM_STEP_ITEMS
  26:Src/Settings/drumTrack.h **** 	};
  27:Src/Settings/drumTrack.h **** 
  28:Src/Settings/drumTrack.h **** 	ASSERT_STEP_ITEMS(NUM_STEP_ITEMS);
ARM GAS  /var/folders/84/_x1cyy_j36g486tldtwl37280000gn/T//cc257jte.s 			page 16


  29:Src/Settings/drumTrack.h **** 
  30:Src/Settings/drumTrack.h **** 	static const char* step_item_text(StepItem item) {
  31:Src/Settings/drumTrack.h **** 		switch (item)
  32:Src/Settings/drumTrack.h **** 		{
  33:Src/Settings/drumTrack.h **** 		case TRIGGER:			return "TRIGGER";
  34:Src/Settings/drumTrack.h **** 		case PROBABILITY:		return "PROBABILITY";
  35:Src/Settings/drumTrack.h **** 		case VELOCITY:			return "VELOCITY";
  36:Src/Settings/drumTrack.h **** 		case GATE_LENGTH:		return "GATE LENGTH";
  37:Src/Settings/drumTrack.h **** 		case NUM_REPEATS:		return "REPEATS";
  38:Src/Settings/drumTrack.h **** 		case REPEAT_SPREAD:		return "REPEAT SPREAD";
  39:Src/Settings/drumTrack.h **** 		case REPEAT_VELOCITY:	return "REPEAT VELOCITY";
  40:Src/Settings/drumTrack.h **** 		case DELAY:				return "DELAY";
  41:Src/Settings/drumTrack.h **** 		default:
  42:Src/Settings/drumTrack.h **** 			break;
  43:Src/Settings/drumTrack.h **** 		}
  44:Src/Settings/drumTrack.h **** 		return nullptr;
  45:Src/Settings/drumTrack.h **** 	}
  46:Src/Settings/drumTrack.h **** 
  47:Src/Settings/drumTrack.h **** 	static const char* step_value_text(StepItem item, int value) {
  48:Src/Settings/drumTrack.h **** 		switch (item)
  49:Src/Settings/drumTrack.h **** 		{
  50:Src/Settings/drumTrack.h **** 		case TRIGGER:			return UiText::bool_to_on_off(value);
  51:Src/Settings/drumTrack.h **** 		case PROBABILITY:		return UiText::percentage_text(value, 7);
  52:Src/Settings/drumTrack.h **** 		case VELOCITY:			return UiText::unsigned_int_to_text(value);
  53:Src/Settings/drumTrack.h **** 		case GATE_LENGTH:		return ClockEngine::gate_duration_text(value);
  54:Src/Settings/drumTrack.h **** 		case NUM_REPEATS:		return RepeatEngine::repeat_text(value);
  55:Src/Settings/drumTrack.h **** 		case REPEAT_SPREAD:		return RepeatEngine::spread_text(value);
  56:Src/Settings/drumTrack.h **** 		case REPEAT_VELOCITY:	return RepeatEngine::velocity_ramp_text(value);
  57:Src/Settings/drumTrack.h **** 		case DELAY:				return ClockEngine::gate_duration_text(value);
  58:Src/Settings/drumTrack.h **** 		default:
  59:Src/Settings/drumTrack.h **** 			break;
  60:Src/Settings/drumTrack.h **** 		}
  61:Src/Settings/drumTrack.h **** 		return nullptr;
  62:Src/Settings/drumTrack.h **** 	}
  63:Src/Settings/drumTrack.h **** 
  64:Src/Settings/drumTrack.h **** 	void init(TrackData *data) {
  65:Src/Settings/drumTrack.h **** 		BaseTrack::init(data);
  66:Src/Settings/drumTrack.h **** 	}
  67:Src/Settings/drumTrack.h **** 
  68:Src/Settings/drumTrack.h **** 	void clear() {
  69:Src/Settings/drumTrack.h **** 		BaseTrack::clear();
  70:Src/Settings/drumTrack.h **** 		DrumTrack::add_pattern();
  71:Src/Settings/drumTrack.h **** 		for (int i = 0; i < NUM_TRACK_ITEMS; ++i) {
  72:Src/Settings/drumTrack.h **** 			Item item = Item(i);
  73:Src/Settings/drumTrack.h **** 			write(item, track_item_[item].init_value());
  74:Src/Settings/drumTrack.h **** 		}
  75:Src/Settings/drumTrack.h **** 	}
  76:Src/Settings/drumTrack.h **** 
  77:Src/Settings/drumTrack.h **** 	SerialItem &item(StepItem item) {
  78:Src/Settings/drumTrack.h **** 		return step_item_[item];
  79:Src/Settings/drumTrack.h **** 	}
  80:Src/Settings/drumTrack.h **** 
  81:Src/Settings/drumTrack.h **** 	SerialItem &item(Item item) {
  82:Src/Settings/drumTrack.h **** 		return track_item_[item];
  83:Src/Settings/drumTrack.h **** 	}
  84:Src/Settings/drumTrack.h **** 
  85:Src/Settings/drumTrack.h **** 	// edit
ARM GAS  /var/folders/84/_x1cyy_j36g486tldtwl37280000gn/T//cc257jte.s 			page 17


  86:Src/Settings/drumTrack.h **** 	void edit(Item item, int enc_state, bool shifted) {
  87:Src/Settings/drumTrack.h **** 		int value = read(item);
  88:Src/Settings/drumTrack.h **** 		int inc_ = track_item_[item].inc(enc_state, shifted);
  89:Src/Settings/drumTrack.h **** 		write(item, value + inc_);
  90:Src/Settings/drumTrack.h **** 	}
  91:Src/Settings/drumTrack.h **** 
  92:Src/Settings/drumTrack.h **** 	void edit_random_min(int pattern, StepItem item, int enc_state, bool shifted) {
  93:Src/Settings/drumTrack.h **** 		int value = read_random_min(pattern, item);
  94:Src/Settings/drumTrack.h **** 		int inc_ = step_item_[item].inc(enc_state, shifted);
  95:Src/Settings/drumTrack.h **** 		write_random_min(pattern, item, value + inc_);
  96:Src/Settings/drumTrack.h **** 	}
  97:Src/Settings/drumTrack.h **** 
  98:Src/Settings/drumTrack.h **** 	void edit_random_max(int pattern, StepItem item, int enc_state, bool shifted) {
  99:Src/Settings/drumTrack.h **** 		int value = read_random_max(pattern, item);
 100:Src/Settings/drumTrack.h **** 		int inc_ = step_item_[item].inc(enc_state, shifted);
 101:Src/Settings/drumTrack.h **** 		write_random_max(pattern, item, value + inc_);
 102:Src/Settings/drumTrack.h **** 	}
 103:Src/Settings/drumTrack.h **** 
 104:Src/Settings/drumTrack.h **** 	void edit_step(int pattern, int step, StepItem item, int enc_state, bool shifted) {
 105:Src/Settings/drumTrack.h **** 		int value = read_step(pattern, step, item);
 106:Src/Settings/drumTrack.h **** 		int inc_ = step_item_[item].inc(enc_state, shifted);
 107:Src/Settings/drumTrack.h **** 		write_step(pattern, step, item, value + inc_);
 108:Src/Settings/drumTrack.h **** 	}
 109:Src/Settings/drumTrack.h **** 
 110:Src/Settings/drumTrack.h **** 	// reading
 111:Src/Settings/drumTrack.h **** 	int read(Item item) {
 112:Src/Settings/drumTrack.h **** 		return track_item_[item].read(BaseTrack::settings());
 113:Src/Settings/drumTrack.h **** 	}
 114:Src/Settings/drumTrack.h **** 
 115:Src/Settings/drumTrack.h **** 	int read_step(int pattern_index, int step_index, StepItem item) {
 116:Src/Settings/drumTrack.h **** 		return step_item_[item].read(BaseTrack::pattern.step(pattern_index, step_index));
 288              		.loc 10 116 31 view .LVU68
 289 0072 0CEB4C02 		add	r2, ip, ip, lsl #1
 290              	.LVL13:
 291              		.loc 10 116 31 view .LVU69
 292 0076 04EBC20C 		add	ip, r4, r2, lsl #3
 293              	.LBB285:
 294              	.LBB286:
 295              	.LBB287:
 296              	.LBB288:
  18:Src/Settings/pattern.h **** 	}
 297              		.loc 6 18 49 view .LVU70
 298 007a 5B59     		ldr	r3, [r3, r5]
 299              	.LVL14:
  18:Src/Settings/pattern.h **** 	}
 300              		.loc 6 18 49 view .LVU71
 301              	.LBE288:
 302              	.LBE287:
 303              	.LBE286:
 304              	.LBE285:
 305              		.loc 10 116 31 view .LVU72
 306 007c DCF81020 		ldr	r2, [ip, #16]
 307              	.LVL15:
 308              	.LBB296:
 309              	.LBI296:
  24:Src/Settings/serialItem.h **** 		return serial.read(mask_, ptr);
 310              		.loc 7 24 13 is_stmt 1 view .LVU73
ARM GAS  /var/folders/84/_x1cyy_j36g486tldtwl37280000gn/T//cc257jte.s 			page 18


 311              	.LBB297:
 312              		.loc 7 25 3 view .LVU74
 313              	.LBB298:
 314              	.LBI298:
  17:Src/Settings/serial.h **** 		uint32_t data = ptr[mask.reg];
 315              		.loc 8 17 18 view .LVU75
 316              	.LBB299:
  18:Src/Settings/serial.h **** 		return (data & mask.value) >> mask.shifts;
 317              		.loc 8 18 3 view .LVU76
 318              		.loc 8 19 3 view .LVU77
 319              		.loc 8 19 3 is_stmt 0 view .LVU78
 320              	.LBE299:
 321              	.LBE298:
 322              	.LBE297:
 323              	.LBE296:
 324              	.LBB303:
 325              	.LBB293:
 326              	.LBB291:
 327              	.LBB289:
  18:Src/Settings/pattern.h **** 	}
 328              		.loc 6 18 49 view .LVU79
 329 0080 C0B2     		uxtb	r0, r0
 330              	.LVL16:
  18:Src/Settings/pattern.h **** 	}
 331              		.loc 6 18 49 view .LVU80
 332              	.LBE289:
 333              	.LBE291:
 334              	.LBE293:
 335              	.LBE303:
 336              	.LBB304:
 337              	.LBB302:
 338              	.LBB301:
 339              	.LBB300:
  18:Src/Settings/serial.h **** 		return (data & mask.value) >> mask.shifts;
 340              		.loc 8 18 31 view .LVU81
 341 0082 C9B2     		uxtb	r1, r1
 342              	.LVL17:
  18:Src/Settings/serial.h **** 		return (data & mask.value) >> mask.shifts;
 343              		.loc 8 18 31 view .LVU82
 344 0084 1D5C     		ldrb	r5, [r3, r0]	@ zero_extendqisi2
 345 0086 1478     		ldrb	r4, [r2]	@ zero_extendqisi2
  18:Src/Settings/serial.h **** 		return (data & mask.value) >> mask.shifts;
 346              		.loc 8 18 12 view .LVU83
 347 0088 1048     		ldr	r0, .L12+12
  18:Src/Settings/serial.h **** 		return (data & mask.value) >> mask.shifts;
 348              		.loc 8 18 31 view .LVU84
 349 008a 0131     		adds	r1, r1, #1
 350 008c 4FF0170C 		mov	ip, #23
 351 0090 1CFB0513 		smlabb	r3, ip, r5, r1
 352 0094 DD00     		lsls	r5, r3, #3
 353 0096 05EB8404 		add	r4, r5, r4, lsl #2
 354              		.loc 8 19 16 view .LVU85
 355 009a 5168     		ldr	r1, [r2, #4]
 356 009c 2058     		ldr	r0, [r4, r0]
 357              		.loc 8 19 38 view .LVU86
 358 009e 9278     		ldrb	r2, [r2, #2]	@ zero_extendqisi2
 359              		.loc 8 19 16 view .LVU87
ARM GAS  /var/folders/84/_x1cyy_j36g486tldtwl37280000gn/T//cc257jte.s 			page 19


 360 00a0 0840     		ands	r0, r0, r1
 361              		.loc 8 19 38 view .LVU88
 362 00a2 D040     		lsrs	r0, r0, r2
 363              		.loc 8 19 38 view .LVU89
 364              	.LBE300:
 365              	.LBE301:
 366              	.LBE302:
 367              	.LBE304:
 368              	.LBE284:
 369              	.LBE283:
 370              		.loc 1 21 1 view .LVU90
 371 00a4 30BC     		pop	{r4, r5}
 372              		.cfi_remember_state
 373              		.cfi_restore 5
 374              		.cfi_restore 4
 375              		.cfi_def_cfa_offset 0
 376 00a6 7047     		bx	lr
 377              	.LVL18:
 378              	.L6:
 379              		.cfi_restore_state
  11:Src/Settings/stepEditor.cpp **** 		return track.chord.read_step(pattern, step, ChordTrack::StepItem(item));
 380              		.loc 1 11 2 is_stmt 1 view .LVU91
  12:Src/Settings/stepEditor.cpp **** 	case Track::DRUM_TRACK:
 381              		.loc 1 12 3 view .LVU92
 382              	.LBB308:
 383              	.LBI308:
 384              		.file 11 "Src/Settings/chordTrack.h"
   1:Src/Settings/chordTrack.h **** #ifndef ChordTrack_h
   2:Src/Settings/chordTrack.h **** #define ChordTrack_h
   3:Src/Settings/chordTrack.h **** 
   4:Src/Settings/chordTrack.h **** #include "baseTrack.h"
   5:Src/Settings/chordTrack.h **** #include "serialItem.h"
   6:Src/Settings/chordTrack.h **** #include "arpeggiator.h"
   7:Src/Settings/chordTrack.h **** #include "chord.h"
   8:Src/Settings/chordTrack.h **** 
   9:Src/Settings/chordTrack.h **** class ChordTrack : public BaseTrack {
  10:Src/Settings/chordTrack.h **** 
  11:Src/Settings/chordTrack.h **** public:
  12:Src/Settings/chordTrack.h **** 
  13:Src/Settings/chordTrack.h **** 	enum Item {
  14:Src/Settings/chordTrack.h **** 		CHORD_OCT_OFFSET,
  15:Src/Settings/chordTrack.h **** 		NUM_TRACK_ITEMS
  16:Src/Settings/chordTrack.h **** 	};
  17:Src/Settings/chordTrack.h **** 
  18:Src/Settings/chordTrack.h **** 	enum StepItem {
  19:Src/Settings/chordTrack.h **** 		TRIGGER,
  20:Src/Settings/chordTrack.h **** 		PROBABILITY,
  21:Src/Settings/chordTrack.h **** 		CHORD_TYPE,
  22:Src/Settings/chordTrack.h **** 		CHORD_VARIATION,
  23:Src/Settings/chordTrack.h **** 		CHORD_INVERSION,
  24:Src/Settings/chordTrack.h **** 		CHORD_ROOT_SHIFT,
  25:Src/Settings/chordTrack.h **** 		VELOCITY,
  26:Src/Settings/chordTrack.h **** 		GATE_LENGTH,
  27:Src/Settings/chordTrack.h **** 		DELAY,
  28:Src/Settings/chordTrack.h **** 		ARP_SPEED,
  29:Src/Settings/chordTrack.h **** 		ARP_MODE,
  30:Src/Settings/chordTrack.h **** 		ARP_GATE,
ARM GAS  /var/folders/84/_x1cyy_j36g486tldtwl37280000gn/T//cc257jte.s 			page 20


  31:Src/Settings/chordTrack.h **** 		ARP_VELOCITY,
  32:Src/Settings/chordTrack.h **** 		ARP_TRIGGER,
  33:Src/Settings/chordTrack.h **** 		ARP_OFFSET,
  34:Src/Settings/chordTrack.h **** 		NUM_STEP_ITEMS
  35:Src/Settings/chordTrack.h **** 	};
  36:Src/Settings/chordTrack.h **** 
  37:Src/Settings/chordTrack.h **** 	ASSERT_STEP_ITEMS(NUM_STEP_ITEMS);
  38:Src/Settings/chordTrack.h **** 
  39:Src/Settings/chordTrack.h **** 	// text
  40:Src/Settings/chordTrack.h **** 	static const char* step_item_text(StepItem item) {
  41:Src/Settings/chordTrack.h **** 		switch (item)
  42:Src/Settings/chordTrack.h **** 		{
  43:Src/Settings/chordTrack.h **** 		case TRIGGER:			return "TRIGGER";
  44:Src/Settings/chordTrack.h **** 		case PROBABILITY:		return "PROBABILITY";
  45:Src/Settings/chordTrack.h **** 		case CHORD_TYPE:		return "CHORD TYPE";
  46:Src/Settings/chordTrack.h **** 		case CHORD_VARIATION:	return "CHORD VARIATION";
  47:Src/Settings/chordTrack.h **** 		case CHORD_INVERSION:	return "CHORD INVERSION";
  48:Src/Settings/chordTrack.h **** 		case CHORD_ROOT_SHIFT:	return "CHORD ROOT_SHIFT";
  49:Src/Settings/chordTrack.h **** 		case VELOCITY:			return "VELOCITY";
  50:Src/Settings/chordTrack.h **** 		case GATE_LENGTH:		return "GATE LENGTH";
  51:Src/Settings/chordTrack.h **** 		case DELAY:				return "DELAY";
  52:Src/Settings/chordTrack.h **** 		case ARP_SPEED:			return "ARP SPEED";
  53:Src/Settings/chordTrack.h **** 		case ARP_MODE:			return "ARP MODE";
  54:Src/Settings/chordTrack.h **** 		case ARP_GATE:			return "ARP GATE";
  55:Src/Settings/chordTrack.h **** 		case ARP_VELOCITY:		return "ARP VELOCITY";
  56:Src/Settings/chordTrack.h **** 		case ARP_TRIGGER:		return "ARP TRIGGER";
  57:Src/Settings/chordTrack.h **** 		case ARP_OFFSET:		return "ARP OFFSET";
  58:Src/Settings/chordTrack.h **** 		default:
  59:Src/Settings/chordTrack.h **** 			break;
  60:Src/Settings/chordTrack.h **** 		}
  61:Src/Settings/chordTrack.h **** 		return nullptr;
  62:Src/Settings/chordTrack.h **** 	}
  63:Src/Settings/chordTrack.h **** 
  64:Src/Settings/chordTrack.h **** 	static const char* step_value_text(StepItem item, int data) {
  65:Src/Settings/chordTrack.h **** 		switch (item)
  66:Src/Settings/chordTrack.h **** 		{
  67:Src/Settings/chordTrack.h **** 		case TRIGGER:			return UiText::bool_to_on_off(data);
  68:Src/Settings/chordTrack.h **** 		case PROBABILITY:		return UiText::percentage_text(data, 7);
  69:Src/Settings/chordTrack.h **** 		case CHORD_TYPE:		return Chord::name(data);
  70:Src/Settings/chordTrack.h **** 		case CHORD_VARIATION:	return Chord::variation_text(data);
  71:Src/Settings/chordTrack.h **** 		case CHORD_INVERSION:	return Chord::inversion_text(data);
  72:Src/Settings/chordTrack.h **** 		case CHORD_ROOT_SHIFT:	return UiText::unsigned_int_to_text(data);
  73:Src/Settings/chordTrack.h **** 		case VELOCITY:			return UiText::unsigned_int_to_text(data);
  74:Src/Settings/chordTrack.h **** 		case GATE_LENGTH:		return ClockEngine::gate_duration_text(data);
  75:Src/Settings/chordTrack.h **** 		case DELAY:				return ClockEngine::gate_duration_text(data);
  76:Src/Settings/chordTrack.h **** 		case ARP_SPEED:			return ClockEngine::speed_text_small(data);
  77:Src/Settings/chordTrack.h **** 		case ARP_MODE:			return Arpeggiator::clock_mode_text_small(data);
  78:Src/Settings/chordTrack.h **** 		case ARP_GATE:			return Arpeggiator::clock_mode_text_small(data);
  79:Src/Settings/chordTrack.h **** 		case ARP_VELOCITY:		return Arpeggiator::clock_mode_text_small(data);
  80:Src/Settings/chordTrack.h **** 		case ARP_TRIGGER:		return Arpeggiator::trigger_mode_text(data);
  81:Src/Settings/chordTrack.h **** 		case ARP_OFFSET:		return UiText::unsigned_int_to_text(data);
  82:Src/Settings/chordTrack.h **** 		default:
  83:Src/Settings/chordTrack.h **** 			break;
  84:Src/Settings/chordTrack.h **** 		}
  85:Src/Settings/chordTrack.h **** 		return nullptr;
  86:Src/Settings/chordTrack.h **** 	}
  87:Src/Settings/chordTrack.h **** 
ARM GAS  /var/folders/84/_x1cyy_j36g486tldtwl37280000gn/T//cc257jte.s 			page 21


  88:Src/Settings/chordTrack.h **** 	void init(TrackData *data) {
  89:Src/Settings/chordTrack.h **** 		BaseTrack::init(data);
  90:Src/Settings/chordTrack.h **** 	}
  91:Src/Settings/chordTrack.h **** 
  92:Src/Settings/chordTrack.h **** 	void clear() {
  93:Src/Settings/chordTrack.h **** 		BaseTrack::clear();
  94:Src/Settings/chordTrack.h **** 		ChordTrack::add_pattern();
  95:Src/Settings/chordTrack.h **** 		for (int i = 0; i < NUM_TRACK_ITEMS; ++i) {
  96:Src/Settings/chordTrack.h **** 			Item item = Item(i);
  97:Src/Settings/chordTrack.h **** 			write(item, track_item_[item].init_value());
  98:Src/Settings/chordTrack.h **** 		}
  99:Src/Settings/chordTrack.h **** 	}
 100:Src/Settings/chordTrack.h **** 
 101:Src/Settings/chordTrack.h **** 	SerialItem &item(StepItem item) {
 102:Src/Settings/chordTrack.h **** 		return step_item_[item];
 103:Src/Settings/chordTrack.h **** 	}
 104:Src/Settings/chordTrack.h **** 
 105:Src/Settings/chordTrack.h **** 	SerialItem &item(Item item) {
 106:Src/Settings/chordTrack.h **** 		return track_item_[item];
 107:Src/Settings/chordTrack.h **** 	}
 108:Src/Settings/chordTrack.h **** 
 109:Src/Settings/chordTrack.h **** 	// edit
 110:Src/Settings/chordTrack.h **** 	void edit(Item item, int enc_state, bool shifted) {
 111:Src/Settings/chordTrack.h **** 		int value = read(item);
 112:Src/Settings/chordTrack.h **** 		int inc_ = track_item_[item].inc(enc_state, shifted);
 113:Src/Settings/chordTrack.h **** 		write(item, value + inc_);
 114:Src/Settings/chordTrack.h **** 	}
 115:Src/Settings/chordTrack.h **** 
 116:Src/Settings/chordTrack.h **** 	void edit_random_min(int pattern, StepItem item, int enc_state, bool shifted) {
 117:Src/Settings/chordTrack.h **** 		int value = read_random_min(pattern, item);
 118:Src/Settings/chordTrack.h **** 		int inc_ = step_item_[item].inc(enc_state, shifted);
 119:Src/Settings/chordTrack.h **** 		write_random_min(pattern, item, value + inc_);
 120:Src/Settings/chordTrack.h **** 	}
 121:Src/Settings/chordTrack.h **** 
 122:Src/Settings/chordTrack.h **** 	void edit_random_max(int pattern, StepItem item, int enc_state, bool shifted) {
 123:Src/Settings/chordTrack.h **** 		int value = read_random_max(pattern, item);
 124:Src/Settings/chordTrack.h **** 		int inc_ = step_item_[item].inc(enc_state, shifted);
 125:Src/Settings/chordTrack.h **** 		write_random_max(pattern, item, value + inc_);
 126:Src/Settings/chordTrack.h **** 	}
 127:Src/Settings/chordTrack.h **** 
 128:Src/Settings/chordTrack.h **** 	void edit_step(int pattern, int step, StepItem item, int enc_state, bool shifted) {
 129:Src/Settings/chordTrack.h **** 		int value = read_step(pattern, step, item);
 130:Src/Settings/chordTrack.h **** 		int inc_ = step_item_[item].inc(enc_state, shifted);
 131:Src/Settings/chordTrack.h **** 		write_step(pattern, step, item, value + inc_);
 132:Src/Settings/chordTrack.h **** 	}
 133:Src/Settings/chordTrack.h **** 
 134:Src/Settings/chordTrack.h **** 	// reading
 135:Src/Settings/chordTrack.h **** 	int read(Item item) {
 136:Src/Settings/chordTrack.h **** 		return track_item_[item].read(BaseTrack::settings());
 137:Src/Settings/chordTrack.h **** 	}
 138:Src/Settings/chordTrack.h **** 
 139:Src/Settings/chordTrack.h **** 	int read_step(int pattern_index, int step_index, StepItem item) {
 385              		.loc 11 139 6 view .LVU93
 386              	.LBB309:
 140:Src/Settings/chordTrack.h **** 		return step_item_[item].read(BaseTrack::pattern.step(pattern_index, step_index));
 387              		.loc 11 140 3 view .LVU94
 388              	.LBB310:
ARM GAS  /var/folders/84/_x1cyy_j36g486tldtwl37280000gn/T//cc257jte.s 			page 22


 389              	.LBI310:
  21:Src/Settings/pattern.h **** 		return &data(index).step_[step_index].serial_[0];
 390              		.loc 6 21 22 view .LVU95
 391              	.LBB311:
 392              		.loc 6 22 3 view .LVU96
 393              	.LBB312:
 394              	.LBI312:
  17:Src/Settings/pattern.h **** 		return TrackData::pattern_[list_->entry_[index]];
 395              		.loc 6 17 32 view .LVU97
 396              	.LBB313:
  18:Src/Settings/pattern.h **** 	}
 397              		.loc 6 18 3 view .LVU98
  18:Src/Settings/pattern.h **** 	}
 398              		.loc 6 18 3 is_stmt 0 view .LVU99
 399              	.LBE313:
 400              	.LBE312:
 401              	.LBE311:
 402              	.LBE310:
 403              		.loc 11 140 31 view .LVU100
 404 00a8 0B4C     		ldr	r4, .L12+24
 405              	.LBB315:
 406              	.LBB314:
 407              		.loc 6 22 21 view .LVU101
 408 00aa 0C4D     		ldr	r5, .L12+28
 409              	.LBE314:
 410              	.LBE315:
 411              		.loc 11 140 31 view .LVU102
 412 00ac 5FFA82FC 		uxtb	ip, r2
 413 00b0 DFE7     		b	.L10
 414              	.LVL19:
 415              	.L5:
 416              		.loc 11 140 31 view .LVU103
 417              	.LBE309:
 418              	.LBE308:
  13:Src/Settings/stepEditor.cpp **** 		return track.drum.read_step(pattern, step, DrumTrack::StepItem(item));
 419              		.loc 1 13 2 is_stmt 1 view .LVU104
  14:Src/Settings/stepEditor.cpp **** 	case Track::CURVE_TRACK:
 420              		.loc 1 14 3 view .LVU105
 421              	.LBB316:
 422              	.LBI283:
 115:Src/Settings/drumTrack.h **** 		return step_item_[item].read(BaseTrack::pattern.step(pattern_index, step_index));
 423              		.loc 10 115 6 view .LVU106
 424              	.LBB307:
 425              		.loc 10 116 3 view .LVU107
 426              	.LBB305:
 427              	.LBI285:
  21:Src/Settings/pattern.h **** 		return &data(index).step_[step_index].serial_[0];
 428              		.loc 6 21 22 view .LVU108
 429              	.LBB294:
 430              		.loc 6 22 3 view .LVU109
 431              	.LBB292:
 432              	.LBI287:
  17:Src/Settings/pattern.h **** 		return TrackData::pattern_[list_->entry_[index]];
 433              		.loc 6 17 32 view .LVU110
 434              	.LBB290:
  18:Src/Settings/pattern.h **** 	}
 435              		.loc 6 18 3 view .LVU111
ARM GAS  /var/folders/84/_x1cyy_j36g486tldtwl37280000gn/T//cc257jte.s 			page 23


  18:Src/Settings/pattern.h **** 	}
 436              		.loc 6 18 3 is_stmt 0 view .LVU112
 437              	.LBE290:
 438              	.LBE292:
 439              	.LBE294:
 440              	.LBE305:
 441              		.loc 10 116 31 view .LVU113
 442 00b2 0B4C     		ldr	r4, .L12+32
 443              	.LBB306:
 444              	.LBB295:
 445              		.loc 6 22 21 view .LVU114
 446 00b4 0B4D     		ldr	r5, .L12+36
 447              	.LBE295:
 448              	.LBE306:
 449              		.loc 10 116 31 view .LVU115
 450 00b6 5FFA82FC 		uxtb	ip, r2
 451 00ba DAE7     		b	.L10
 452              	.LVL20:
 453              	.L8:
 454              		.loc 10 116 31 view .LVU116
 455              	.LBE307:
 456              	.LBE316:
 457              	.LBB317:
 458              	.LBB248:
 459              		.loc 4 72 17 view .LVU117
 460 00bc 0020     		movs	r0, #0
 461              	.LVL21:
 462              		.loc 4 72 17 view .LVU118
 463 00be D2E7     		b	.L1
 464              	.L13:
 465              		.align	2
 466              	.L12:
 467 00c0 00000000 		.word	settings
 468 00c4 00000000 		.word	_ZN10CurveTrack10step_item_E
 469 00c8 CC000000 		.word	settings+204
 470 00cc 00000000 		.word	_ZN9TrackData8pattern_E
 471 00d0 00000000 		.word	_ZN9NoteTrack10step_item_E
 472 00d4 9C000000 		.word	settings+156
 473 00d8 00000000 		.word	_ZN10ChordTrack10step_item_E
 474 00dc AC000000 		.word	settings+172
 475 00e0 00000000 		.word	_ZN9DrumTrack10step_item_E
 476 00e4 BC000000 		.word	settings+188
 477              	.LBE248:
 478              	.LBE317:
 479              		.cfi_endproc
 480              	.LFE2864:
 482              		.section	.text._ZN10StepEditor4readEi,"ax",%progbits
 483              		.align	1
 484              		.p2align 2,,3
 485              		.global	_ZN10StepEditor4readEi
 486              		.syntax unified
 487              		.thumb
 488              		.thumb_func
 489              		.fpu fpv4-sp-d16
 491              	_ZN10StepEditor4readEi:
 492              	.LVL22:
 493              	.LFB2865:
ARM GAS  /var/folders/84/_x1cyy_j36g486tldtwl37280000gn/T//cc257jte.s 			page 24


  22:Src/Settings/stepEditor.cpp **** 
  23:Src/Settings/stepEditor.cpp **** int StepEditor::read(int step) {
 494              		.loc 1 23 32 is_stmt 1 view -0
 495              		.cfi_startproc
 496              		@ args = 0, pretend = 0, frame = 0
 497              		@ frame_needed = 0, uses_anonymous_args = 0
 498              		@ link register save eliminated.
  24:Src/Settings/stepEditor.cpp **** 	return read(step, settings.selected_step_item());
 499              		.loc 1 24 2 view .LVU120
 500              	.LBB318:
 501              	.LBI318:
 109:Src/Settings/settings.h **** 	}
 110:Src/Settings/settings.h **** 
 111:Src/Settings/settings.h **** 	void select_pattern(int pattern_index) {
 112:Src/Settings/settings.h **** 		int num_patterns = song.track(selected_track_index_).num_patterns();
 113:Src/Settings/settings.h **** 		if (num_patterns == 0) {
 114:Src/Settings/settings.h **** 			selected_pattern_ = 0;
 115:Src/Settings/settings.h **** 			return;
 116:Src/Settings/settings.h **** 		}
 117:Src/Settings/settings.h **** 		selected_pattern_ = stmlib::clip(0, num_patterns - 1, pattern_index);
 118:Src/Settings/settings.h **** 	}
 119:Src/Settings/settings.h **** 
 120:Src/Settings/settings.h **** 	// follow pattern
 121:Src/Settings/settings.h **** 	bool follow_pattern() {
 122:Src/Settings/settings.h **** 		return follow_pattern_;
 123:Src/Settings/settings.h **** 	}
 124:Src/Settings/settings.h **** 
 125:Src/Settings/settings.h **** 	void set_follow_pattern(bool state) {
 126:Src/Settings/settings.h **** 		follow_pattern_ = state;
 127:Src/Settings/settings.h **** 	}
 128:Src/Settings/settings.h **** 
 129:Src/Settings/settings.h **** 	// step item
 130:Src/Settings/settings.h **** 	int selected_step_item() {
 502              		.loc 2 130 6 view .LVU121
 503              	.LBB319:
 131:Src/Settings/settings.h **** 		return selected_step_item_;
 504              		.loc 2 131 3 view .LVU122
 505              		.loc 2 131 10 is_stmt 0 view .LVU123
 506 0000 024A     		ldr	r2, .L15
 507 0002 41F29C73 		movw	r3, #6044
 508              	.LBE319:
 509              	.LBE318:
 510              		.loc 1 24 13 view .LVU124
 511 0006 D258     		ldr	r2, [r2, r3]
 512 0008 FFF7FEBF 		b	_ZN10StepEditor4readEii
 513              	.LVL23:
 514              	.L16:
 515              		.loc 1 24 13 view .LVU125
 516              		.align	2
 517              	.L15:
 518 000c 00000000 		.word	settings
 519              		.cfi_endproc
 520              	.LFE2865:
 522              		.section	.text._ZN10StepEditor5writeEii,"ax",%progbits
 523              		.align	1
 524              		.p2align 2,,3
 525              		.global	_ZN10StepEditor5writeEii
ARM GAS  /var/folders/84/_x1cyy_j36g486tldtwl37280000gn/T//cc257jte.s 			page 25


 526              		.syntax unified
 527              		.thumb
 528              		.thumb_func
 529              		.fpu fpv4-sp-d16
 531              	_ZN10StepEditor5writeEii:
 532              	.LVL24:
 533              	.LFB2866:
  25:Src/Settings/stepEditor.cpp **** }
  26:Src/Settings/stepEditor.cpp **** 
  27:Src/Settings/stepEditor.cpp **** void StepEditor::write(int step, int value) {
 534              		.loc 1 27 45 is_stmt 1 view -0
 535              		.cfi_startproc
 536              		@ args = 0, pretend = 0, frame = 0
 537              		@ frame_needed = 0, uses_anonymous_args = 0
 538              		@ link register save eliminated.
  28:Src/Settings/stepEditor.cpp **** 	Track &track = settings.selected_track();
 539              		.loc 1 28 2 view .LVU127
 540              	.LBB377:
 541              	.LBI377:
  86:Src/Settings/settings.h **** 		return song.track(selected_track_index_);
 542              		.loc 2 86 9 view .LVU128
 543              	.LBB378:
  87:Src/Settings/settings.h **** 	}
 544              		.loc 2 87 3 view .LVU129
  87:Src/Settings/settings.h **** 	}
 545              		.loc 2 87 3 is_stmt 0 view .LVU130
 546              	.LBE378:
 547              	.LBE377:
 548              		.loc 3 19 3 is_stmt 1 view .LVU131
  29:Src/Settings/stepEditor.cpp **** 	int pattern = settings.selected_pattern();
 549              		.loc 1 29 2 view .LVU132
 550              	.LBB380:
 551              	.LBI380:
 107:Src/Settings/settings.h **** 		return selected_pattern_;
 552              		.loc 2 107 6 view .LVU133
 553              	.LBB381:
 108:Src/Settings/settings.h **** 	}
 554              		.loc 2 108 3 view .LVU134
 108:Src/Settings/settings.h **** 	}
 555              		.loc 2 108 10 is_stmt 0 view .LVU135
 556 0000 484B     		ldr	r3, .L26
 557              	.LBE381:
 558              	.LBE380:
 559              	.LBB384:
 560              	.LBB379:
  87:Src/Settings/settings.h **** 	}
 561              		.loc 2 87 42 view .LVU136
 562 0002 41F29470 		movw	r0, #6036
 563              	.LVL25:
  87:Src/Settings/settings.h **** 	}
 564              		.loc 2 87 42 view .LVU137
 565              	.LBE379:
 566              	.LBE384:
  27:Src/Settings/stepEditor.cpp **** 	Track &track = settings.selected_track();
 567              		.loc 1 27 45 view .LVU138
 568 0006 70B4     		push	{r4, r5, r6}
 569              		.cfi_def_cfa_offset 12
ARM GAS  /var/folders/84/_x1cyy_j36g486tldtwl37280000gn/T//cc257jte.s 			page 26


 570              		.cfi_offset 4, -12
 571              		.cfi_offset 5, -8
 572              		.cfi_offset 6, -4
 573 0008 1858     		ldr	r0, [r3, r0]
 574 000a 4FF4B874 		mov	r4, #368
 575 000e 04FB00F0 		mul	r0, r4, r0
  30:Src/Settings/stepEditor.cpp **** 	int item = settings.selected_step_item();
  31:Src/Settings/stepEditor.cpp **** 
  32:Src/Settings/stepEditor.cpp **** 	switch (track.type())
 576              		.loc 1 32 20 view .LVU139
 577 0012 1D18     		adds	r5, r3, r0
 578              	.LBB385:
 579              	.LBB382:
 108:Src/Settings/settings.h **** 	}
 580              		.loc 2 108 10 view .LVU140
 581 0014 41F29876 		movw	r6, #6040
 582              	.LBE382:
 583              	.LBE385:
 584              	.LBB386:
 585              	.LBB387:
 586              		.loc 4 72 17 view .LVU141
 587 0018 D5F89050 		ldr	r5, [r5, #144]
 588              	.LBE387:
 589              	.LBE386:
 590              	.LBB389:
 591              	.LBB383:
 108:Src/Settings/settings.h **** 	}
 592              		.loc 2 108 10 view .LVU142
 593 001c 9C59     		ldr	r4, [r3, r6]
 594              	.LVL26:
 108:Src/Settings/settings.h **** 	}
 595              		.loc 2 108 10 view .LVU143
 596              	.LBE383:
 597              	.LBE389:
  30:Src/Settings/stepEditor.cpp **** 	int item = settings.selected_step_item();
 598              		.loc 1 30 2 is_stmt 1 view .LVU144
 599              	.LBB390:
 600              	.LBI390:
 130:Src/Settings/settings.h **** 		return selected_step_item_;
 601              		.loc 2 130 6 view .LVU145
 602              	.LBB391:
 603              		.loc 2 131 3 view .LVU146
 604 001e 95F800C0 		ldrb	ip, [r5]	@ zero_extendqisi2
 605              		.loc 2 131 10 is_stmt 0 view .LVU147
 606 0022 41F29C76 		movw	r6, #6044
 607 0026 9B59     		ldr	r3, [r3, r6]
 608              	.LVL27:
 609              		.loc 2 131 10 view .LVU148
 610              	.LBE391:
 611              	.LBE390:
 612              		.loc 1 32 2 is_stmt 1 view .LVU149
 613              	.LBB392:
 614              	.LBI386:
  71:Src/Settings/baseTrack.h **** 		return data_->type_;
 615              		.loc 4 71 10 view .LVU150
 616              	.LBB388:
 617              		.loc 4 72 3 view .LVU151
ARM GAS  /var/folders/84/_x1cyy_j36g486tldtwl37280000gn/T//cc257jte.s 			page 27


 618 0028 BCF1030F 		cmp	ip, #3
 619 002c 2DD8     		bhi	.L17
 620 002e DFE80CF0 		tbb	[pc, ip]
 621              	.L20:
 622 0032 02       		.byte	(.L23-.L20)/2
 623 0033 58       		.byte	(.L22-.L20)/2
 624 0034 68       		.byte	(.L21-.L20)/2
 625 0035 2E       		.byte	(.L19-.L20)/2
 626              		.p2align 1
 627              	.L23:
 628              	.LBE388:
 629              	.LBE392:
  33:Src/Settings/stepEditor.cpp **** 	{
  34:Src/Settings/stepEditor.cpp **** 	case Track::NOTE_TRACK:
 630              		.loc 1 34 2 view .LVU152
  35:Src/Settings/stepEditor.cpp **** 		track.note.write_step(pattern, step, NoteTrack::StepItem(item), value);
 631              		.loc 1 35 3 view .LVU153
 632              	.LVL28:
 633              	.LBB393:
 634              	.LBI393:
 125:Src/Settings/noteTrack.h **** 	}
 126:Src/Settings/noteTrack.h **** 
 127:Src/Settings/noteTrack.h **** 	int read_random_min(int pattern_index, StepItem item) {
 128:Src/Settings/noteTrack.h **** 		return step_item_[item].read(BaseTrack::pattern.random_min(pattern_index));
 129:Src/Settings/noteTrack.h **** 	}
 130:Src/Settings/noteTrack.h **** 
 131:Src/Settings/noteTrack.h **** 	int read_random_max(int pattern_index, StepItem item) {
 132:Src/Settings/noteTrack.h **** 		return step_item_[item].read(BaseTrack::pattern.random_max(pattern_index));
 133:Src/Settings/noteTrack.h **** 	}
 134:Src/Settings/noteTrack.h **** 
 135:Src/Settings/noteTrack.h **** 
 136:Src/Settings/noteTrack.h **** 	// writing
 137:Src/Settings/noteTrack.h **** 	void write(Item item, int value) {
 138:Src/Settings/noteTrack.h **** 		track_item_[item].write(BaseTrack::settings(), value);
 139:Src/Settings/noteTrack.h **** 	}
 140:Src/Settings/noteTrack.h **** 
 141:Src/Settings/noteTrack.h **** 	void write_random_min(int pattern_index, StepItem item, int value) {
 142:Src/Settings/noteTrack.h **** 		step_item_[item].write(BaseTrack::pattern.random_min(pattern_index), value);
 143:Src/Settings/noteTrack.h **** 	}
 144:Src/Settings/noteTrack.h **** 
 145:Src/Settings/noteTrack.h **** 	void write_random_max(int pattern_index, StepItem item, int value) {
 146:Src/Settings/noteTrack.h **** 		step_item_[item].write(BaseTrack::pattern.random_max(pattern_index), value);
 147:Src/Settings/noteTrack.h **** 	}
 148:Src/Settings/noteTrack.h **** 
 149:Src/Settings/noteTrack.h **** 	void write_step(int pattern_index, int step_index, StepItem item, int value) {
 635              		.loc 9 149 7 view .LVU154
 636              	.LBE393:
 150:Src/Settings/noteTrack.h **** 		step_item_[item].write(BaseTrack::pattern.step(pattern_index, step_index), value);
 637              		.loc 9 150 3 view .LVU155
 638 0036 5FFA83FC 		uxtb	ip, r3
 639              	.LVL29:
 640              	.LBB404:
 641              	.LBB394:
 642              	.LBI394:
  21:Src/Settings/pattern.h **** 		return &data(index).step_[step_index].serial_[0];
 643              		.loc 6 21 22 view .LVU156
 644              	.LBB395:
ARM GAS  /var/folders/84/_x1cyy_j36g486tldtwl37280000gn/T//cc257jte.s 			page 28


 645              		.loc 6 22 3 view .LVU157
 646              	.LBB396:
 647              	.LBI396:
  17:Src/Settings/pattern.h **** 		return TrackData::pattern_[list_->entry_[index]];
 648              		.loc 6 17 32 view .LVU158
 649              	.LBB397:
  18:Src/Settings/pattern.h **** 	}
 650              		.loc 6 18 3 view .LVU159
  18:Src/Settings/pattern.h **** 	}
 651              		.loc 6 18 3 is_stmt 0 view .LVU160
 652              	.LBE397:
 653              	.LBE396:
 654              	.LBE395:
 655              	.LBE394:
 656              	.LBB399:
 657              	.LBI399:
  26:Src/Settings/serialItem.h **** 	}
  27:Src/Settings/serialItem.h **** 
  28:Src/Settings/serialItem.h **** 	inline void write(uint32_t *ptr, int value) {
 658              		.loc 7 28 14 is_stmt 1 view .LVU161
 659              	.LBB400:
  29:Src/Settings/serialItem.h **** 		if (value >= min_ && value <= max_) {
 660              		.loc 7 29 3 view .LVU162
 661              		.loc 7 29 16 is_stmt 0 view .LVU163
 662 003a 3B4D     		ldr	r5, .L26+4
 663 003c 0CEB4C03 		add	r3, ip, ip, lsl #1
 664              	.LVL30:
 665              		.loc 7 29 16 view .LVU164
 666 0040 05EBC30C 		add	ip, r5, r3, lsl #3
 667              	.LVL31:
 668              		.loc 7 29 3 view .LVU165
 669 0044 55F83360 		ldr	r6, [r5, r3, lsl #3]
 670 0048 B242     		cmp	r2, r6
 671 004a 1EDB     		blt	.L17
 672              		.loc 7 29 21 view .LVU166
 673 004c DCF80430 		ldr	r3, [ip, #4]
 674 0050 9A42     		cmp	r2, r3
 675 0052 1ADC     		bgt	.L17
 676              	.LVL32:
 677              	.LBB401:
 678              	.LBI401:
  28:Src/Settings/serialItem.h **** 		if (value >= min_ && value <= max_) {
 679              		.loc 7 28 14 is_stmt 1 view .LVU167
 680              	.LBB402:
  30:Src/Settings/serialItem.h **** 			serial.write(mask_, ptr, value);
 681              		.loc 7 30 4 view .LVU168
 682              	.LBE402:
 683              	.LBE401:
 684              	.LBE400:
 685              	.LBE399:
 686              	.LBB403:
 687              	.LBB398:
 688              		.loc 6 22 21 is_stmt 0 view .LVU169
 689 0054 354E     		ldr	r6, .L26+8
 690              	.LVL33:
 691              	.L25:
 692              		.loc 6 22 21 view .LVU170
ARM GAS  /var/folders/84/_x1cyy_j36g486tldtwl37280000gn/T//cc257jte.s 			page 29


 693              	.LBE398:
 694              	.LBE403:
 695              	.LBE404:
 696              	.LBB405:
 697              	.LBB406:
 698              	.LBB407:
 699              	.LBB408:
 700              	.LBB409:
  18:Src/Settings/pattern.h **** 	}
 701              		.loc 6 18 49 view .LVU171
 702 0056 8359     		ldr	r3, [r0, r6]
 703              	.LBE409:
 704              	.LBE408:
 705              	.LBE407:
 706              	.LBE406:
 707              	.LBB417:
 708              	.LBB418:
 709              	.LBB419:
 710              	.LBB420:
 711              		.loc 7 30 16 view .LVU172
 712 0058 DCF81050 		ldr	r5, [ip, #16]
 713              	.LVL34:
 714              	.LBB421:
 715              	.LBI421:
  20:Src/Settings/serial.h **** 	}
  21:Src/Settings/serial.h **** 
  22:Src/Settings/serial.h **** 	inline void write(SerialMask &mask, uint32_t *ptr, int value) {
 716              		.loc 8 22 14 is_stmt 1 view .LVU173
 717              	.LBB422:
  23:Src/Settings/serial.h **** 		uint32_t data = ptr[mask.reg];
 718              		.loc 8 23 3 view .LVU174
 719              		.loc 8 23 31 is_stmt 0 view .LVU175
 720 005c 344E     		ldr	r6, .L26+12
 721 005e 2878     		ldrb	r0, [r5]	@ zero_extendqisi2
 722              	.LVL35:
 723              		.loc 8 23 31 view .LVU176
 724              	.LBE422:
 725              	.LBE421:
 726              	.LBE420:
 727              	.LBE419:
 728              	.LBE418:
 729              	.LBE417:
 730              	.LBB431:
 731              	.LBB414:
 732              	.LBB412:
 733              	.LBB410:
  18:Src/Settings/pattern.h **** 	}
 734              		.loc 6 18 49 view .LVU177
 735 0060 E4B2     		uxtb	r4, r4
 736              	.LVL36:
  18:Src/Settings/pattern.h **** 	}
 737              		.loc 6 18 49 view .LVU178
 738              	.LBE410:
 739              	.LBE412:
 740              	.LBE414:
 741              	.LBE431:
 742              	.LBB432:
ARM GAS  /var/folders/84/_x1cyy_j36g486tldtwl37280000gn/T//cc257jte.s 			page 30


 743              	.LBB429:
 744              	.LBB427:
 745              	.LBB425:
 746              	.LBB424:
 747              	.LBB423:
 748              		.loc 8 23 31 view .LVU179
 749 0062 C9B2     		uxtb	r1, r1
 750              	.LVL37:
 751              		.loc 8 23 31 view .LVU180
 752 0064 13F804C0 		ldrb	ip, [r3, r4]	@ zero_extendqisi2
 753 0068 0131     		adds	r1, r1, #1
 754 006a 1723     		movs	r3, #23
 755 006c 13FB0C14 		smlabb	r4, r3, ip, r1
 756 0070 E100     		lsls	r1, r4, #3
 757 0072 01EB800C 		add	ip, r1, r0, lsl #2
 758              	.LVL38:
  24:Src/Settings/serial.h **** 		ptr[mask.reg] = (data & ~mask.value) | (value << mask.shifts);
 759              		.loc 8 24 3 is_stmt 1 view .LVU181
 760              		.loc 8 24 27 is_stmt 0 view .LVU182
 761 0076 6B68     		ldr	r3, [r5, #4]
 762              		.loc 8 24 25 view .LVU183
 763 0078 5CF80640 		ldr	r4, [ip, r6]
 764              		.loc 8 24 57 view .LVU184
 765 007c AD78     		ldrb	r5, [r5, #2]	@ zero_extendqisi2
 766              	.LVL39:
 767              		.loc 8 24 25 view .LVU185
 768 007e 24EA0300 		bic	r0, r4, r3
 769              		.loc 8 24 49 view .LVU186
 770 0082 AA40     		lsls	r2, r2, r5
 771              	.LVL40:
 772              		.loc 8 24 40 view .LVU187
 773 0084 0243     		orrs	r2, r2, r0
 774              		.loc 8 24 17 view .LVU188
 775 0086 4CF80620 		str	r2, [ip, r6]
 776              	.LVL41:
 777              	.L17:
 778              		.loc 8 24 17 view .LVU189
 779              	.LBE423:
 780              	.LBE424:
 781              	.LBE425:
 782              	.LBE427:
 783              	.LBE429:
 784              	.LBE432:
 785              	.LBE405:
  36:Src/Settings/stepEditor.cpp **** 		break;
  37:Src/Settings/stepEditor.cpp **** 	case Track::CHORD_TRACK:
  38:Src/Settings/stepEditor.cpp **** 		track.chord.write_step(pattern, step, ChordTrack::StepItem(item), value);
  39:Src/Settings/stepEditor.cpp **** 		break;
  40:Src/Settings/stepEditor.cpp **** 	case Track::DRUM_TRACK:
  41:Src/Settings/stepEditor.cpp **** 		track.drum.write_step(pattern, step, DrumTrack::StepItem(item), value);
  42:Src/Settings/stepEditor.cpp **** 		break;
  43:Src/Settings/stepEditor.cpp **** 	case Track::CURVE_TRACK:
  44:Src/Settings/stepEditor.cpp **** 		track.curve.write_step(pattern, step, CurveTrack::StepItem(item), value);
  45:Src/Settings/stepEditor.cpp **** 		break;
  46:Src/Settings/stepEditor.cpp **** 	default:
  47:Src/Settings/stepEditor.cpp **** 		break;
  48:Src/Settings/stepEditor.cpp **** 	}
ARM GAS  /var/folders/84/_x1cyy_j36g486tldtwl37280000gn/T//cc257jte.s 			page 31


  49:Src/Settings/stepEditor.cpp **** }
 786              		.loc 1 49 1 view .LVU190
 787 008a 70BC     		pop	{r4, r5, r6}
 788              		.cfi_remember_state
 789              		.cfi_restore 6
 790              		.cfi_restore 5
 791              		.cfi_restore 4
 792              		.cfi_def_cfa_offset 0
 793 008c 7047     		bx	lr
 794              	.LVL42:
 795              	.L19:
 796              		.cfi_restore_state
  43:Src/Settings/stepEditor.cpp **** 		track.curve.write_step(pattern, step, CurveTrack::StepItem(item), value);
 797              		.loc 1 43 2 is_stmt 1 view .LVU191
  44:Src/Settings/stepEditor.cpp **** 		break;
 798              		.loc 1 44 3 view .LVU192
 799              	.LBB436:
 800              	.LBI436:
 112:Src/Settings/curveTrack.h **** 	}
 113:Src/Settings/curveTrack.h **** 
 114:Src/Settings/curveTrack.h **** 	int read_random_min(int pattern_index, StepItem item) {
 115:Src/Settings/curveTrack.h **** 		return step_item_[item].read(BaseTrack::pattern.random_min(pattern_index));
 116:Src/Settings/curveTrack.h **** 	}
 117:Src/Settings/curveTrack.h **** 
 118:Src/Settings/curveTrack.h **** 	int read_random_max(int pattern_index, StepItem item) {
 119:Src/Settings/curveTrack.h **** 		return step_item_[item].read(BaseTrack::pattern.random_max(pattern_index));
 120:Src/Settings/curveTrack.h **** 	}
 121:Src/Settings/curveTrack.h **** 
 122:Src/Settings/curveTrack.h **** 
 123:Src/Settings/curveTrack.h **** 	// writing
 124:Src/Settings/curveTrack.h **** 	void write(Item item, int value) {
 125:Src/Settings/curveTrack.h **** 		track_item_[item].write(BaseTrack::settings(), value);
 126:Src/Settings/curveTrack.h **** 	}
 127:Src/Settings/curveTrack.h **** 
 128:Src/Settings/curveTrack.h **** 	void write_random_min(int pattern_index, StepItem item, int value) {
 129:Src/Settings/curveTrack.h **** 		step_item_[item].write(BaseTrack::pattern.random_min(pattern_index), value);
 130:Src/Settings/curveTrack.h **** 	}
 131:Src/Settings/curveTrack.h **** 
 132:Src/Settings/curveTrack.h **** 	void write_random_max(int pattern_index, StepItem item, int value) {
 133:Src/Settings/curveTrack.h **** 		step_item_[item].write(BaseTrack::pattern.random_max(pattern_index), value);
 134:Src/Settings/curveTrack.h **** 	}
 135:Src/Settings/curveTrack.h **** 
 136:Src/Settings/curveTrack.h **** 	void write_step(int pattern_index, int step_index, StepItem item, int value) {
 801              		.loc 5 136 7 view .LVU193
 802              	.LBE436:
 137:Src/Settings/curveTrack.h **** 		step_item_[item].write(BaseTrack::pattern.step(pattern_index, step_index), value);
 803              		.loc 5 137 3 view .LVU194
 804 008e DDB2     		uxtb	r5, r3
 805              	.LVL43:
 806              	.LBB473:
 807              	.LBB437:
 808              	.LBI437:
  21:Src/Settings/pattern.h **** 		return &data(index).step_[step_index].serial_[0];
 809              		.loc 6 21 22 view .LVU195
 810              	.LBB438:
 811              		.loc 6 22 3 view .LVU196
 812              	.LBB439:
ARM GAS  /var/folders/84/_x1cyy_j36g486tldtwl37280000gn/T//cc257jte.s 			page 32


 813              	.LBI439:
  17:Src/Settings/pattern.h **** 		return TrackData::pattern_[list_->entry_[index]];
 814              		.loc 6 17 32 view .LVU197
 815              	.LBB440:
  18:Src/Settings/pattern.h **** 	}
 816              		.loc 6 18 3 view .LVU198
  18:Src/Settings/pattern.h **** 	}
 817              		.loc 6 18 3 is_stmt 0 view .LVU199
 818              	.LBE440:
 819              	.LBE439:
 820              	.LBE438:
 821              	.LBE437:
 822              	.LBB448:
 823              	.LBI448:
  28:Src/Settings/serialItem.h **** 		if (value >= min_ && value <= max_) {
 824              		.loc 7 28 14 is_stmt 1 view .LVU200
 825              	.LBB449:
  29:Src/Settings/serialItem.h **** 			serial.write(mask_, ptr, value);
 826              		.loc 7 29 3 view .LVU201
  29:Src/Settings/serialItem.h **** 			serial.write(mask_, ptr, value);
 827              		.loc 7 29 16 is_stmt 0 view .LVU202
 828 0090 05EB450C 		add	ip, r5, r5, lsl #1
 829 0094 274B     		ldr	r3, .L26+16
 830              	.LVL44:
  29:Src/Settings/serialItem.h **** 			serial.write(mask_, ptr, value);
 831              		.loc 7 29 3 view .LVU203
 832 0096 53F83C60 		ldr	r6, [r3, ip, lsl #3]
 833 009a B242     		cmp	r2, r6
  29:Src/Settings/serialItem.h **** 			serial.write(mask_, ptr, value);
 834              		.loc 7 29 16 view .LVU204
 835 009c 03EBCC0C 		add	ip, r3, ip, lsl #3
  29:Src/Settings/serialItem.h **** 			serial.write(mask_, ptr, value);
 836              		.loc 7 29 3 view .LVU205
 837 00a0 F3DB     		blt	.L17
  29:Src/Settings/serialItem.h **** 			serial.write(mask_, ptr, value);
 838              		.loc 7 29 21 view .LVU206
 839 00a2 DCF80450 		ldr	r5, [ip, #4]
 840              	.LVL45:
  29:Src/Settings/serialItem.h **** 			serial.write(mask_, ptr, value);
 841              		.loc 7 29 21 view .LVU207
 842 00a6 AA42     		cmp	r2, r5
 843 00a8 EFDC     		bgt	.L17
 844              	.LVL46:
 845              	.LBB450:
 846              	.LBI450:
  28:Src/Settings/serialItem.h **** 		if (value >= min_ && value <= max_) {
 847              		.loc 7 28 14 is_stmt 1 view .LVU208
 848              	.LBB451:
 849              		.loc 7 30 4 view .LVU209
 850              	.LBE451:
 851              	.LBE450:
 852              	.LBE449:
 853              	.LBE448:
 854              	.LBB467:
 855              	.LBB445:
 856              		.loc 6 22 21 is_stmt 0 view .LVU210
 857 00aa 234B     		ldr	r3, .L26+20
ARM GAS  /var/folders/84/_x1cyy_j36g486tldtwl37280000gn/T//cc257jte.s 			page 33


 858              	.LBE445:
 859              	.LBE467:
 860              	.LBB468:
 861              	.LBB464:
 862              	.LBB461:
 863              	.LBB458:
 864              		.loc 7 30 16 view .LVU211
 865 00ac DCF81050 		ldr	r5, [ip, #16]
 866              	.LVL47:
 867              	.LBB452:
 868              	.LBI452:
  22:Src/Settings/serial.h **** 		uint32_t data = ptr[mask.reg];
 869              		.loc 8 22 14 is_stmt 1 view .LVU212
 870              	.LBB453:
  23:Src/Settings/serial.h **** 		ptr[mask.reg] = (data & ~mask.value) | (value << mask.shifts);
 871              		.loc 8 23 3 view .LVU213
 872              	.LBE453:
 873              	.LBE452:
 874              	.LBE458:
 875              	.LBE461:
 876              	.LBE464:
 877              	.LBE468:
 878              	.LBB469:
 879              	.LBB446:
 880              	.LBB443:
 881              	.LBB441:
  18:Src/Settings/pattern.h **** 	}
 882              		.loc 6 18 49 is_stmt 0 view .LVU214
 883 00b0 C358     		ldr	r3, [r0, r3]
 884              	.LBE441:
 885              	.LBE443:
 886              	.LBE446:
 887              	.LBE469:
 888              	.LBB470:
 889              	.LBB465:
 890              	.LBB462:
 891              	.LBB459:
 892              	.LBB456:
 893              	.LBB454:
  23:Src/Settings/serial.h **** 		ptr[mask.reg] = (data & ~mask.value) | (value << mask.shifts);
 894              		.loc 8 23 31 view .LVU215
 895 00b2 2E78     		ldrb	r6, [r5]	@ zero_extendqisi2
 896 00b4 1E48     		ldr	r0, .L26+12
 897              	.LVL48:
  23:Src/Settings/serial.h **** 		ptr[mask.reg] = (data & ~mask.value) | (value << mask.shifts);
 898              		.loc 8 23 31 view .LVU216
 899              	.LBE454:
 900              	.LBE456:
 901              	.LBE459:
 902              	.LBE462:
 903              	.LBE465:
 904              	.LBE470:
 905              	.LBB471:
 906              	.LBB447:
 907              	.LBB444:
 908              	.LBB442:
  18:Src/Settings/pattern.h **** 	}
ARM GAS  /var/folders/84/_x1cyy_j36g486tldtwl37280000gn/T//cc257jte.s 			page 34


 909              		.loc 6 18 49 view .LVU217
 910 00b6 E4B2     		uxtb	r4, r4
 911              	.LVL49:
  18:Src/Settings/pattern.h **** 	}
 912              		.loc 6 18 49 view .LVU218
 913              	.LBE442:
 914              	.LBE444:
 915              	.LBE447:
 916              	.LBE471:
 917              	.LBB472:
 918              	.LBB466:
 919              	.LBB463:
 920              	.LBB460:
 921              	.LBB457:
 922              	.LBB455:
  23:Src/Settings/serial.h **** 		ptr[mask.reg] = (data & ~mask.value) | (value << mask.shifts);
 923              		.loc 8 23 31 view .LVU219
 924 00b8 C9B2     		uxtb	r1, r1
 925              	.LVL50:
  23:Src/Settings/serial.h **** 		ptr[mask.reg] = (data & ~mask.value) | (value << mask.shifts);
 926              		.loc 8 23 31 view .LVU220
 927 00ba 13F804C0 		ldrb	ip, [r3, r4]	@ zero_extendqisi2
 928 00be 0131     		adds	r1, r1, #1
 929 00c0 1723     		movs	r3, #23
 930 00c2 13FB0C14 		smlabb	r4, r3, ip, r1
 931 00c6 E100     		lsls	r1, r4, #3
 932 00c8 01EB860C 		add	ip, r1, r6, lsl #2
 933              	.LVL51:
 934              		.loc 8 24 3 is_stmt 1 view .LVU221
 935              		.loc 8 24 27 is_stmt 0 view .LVU222
 936 00cc 6E68     		ldr	r6, [r5, #4]
 937              		.loc 8 24 25 view .LVU223
 938 00ce 5CF80030 		ldr	r3, [ip, r0]
 939              		.loc 8 24 57 view .LVU224
 940 00d2 AD78     		ldrb	r5, [r5, #2]	@ zero_extendqisi2
 941              	.LVL52:
 942              		.loc 8 24 25 view .LVU225
 943 00d4 23EA0604 		bic	r4, r3, r6
 944              		.loc 8 24 49 view .LVU226
 945 00d8 AA40     		lsls	r2, r2, r5
 946              	.LVL53:
 947              		.loc 8 24 40 view .LVU227
 948 00da 2243     		orrs	r2, r2, r4
 949              		.loc 8 24 17 view .LVU228
 950 00dc 4CF80020 		str	r2, [ip, r0]
 951              	.LVL54:
 952              		.loc 8 24 17 view .LVU229
 953              	.LBE455:
 954              	.LBE457:
 955              	.LBE460:
 956              	.LBE463:
 957              	.LBE466:
 958              	.LBE472:
 959              	.LBE473:
 960              		.loc 1 49 1 view .LVU230
 961 00e0 D3E7     		b	.L17
 962              	.LVL55:
ARM GAS  /var/folders/84/_x1cyy_j36g486tldtwl37280000gn/T//cc257jte.s 			page 35


 963              	.L22:
  37:Src/Settings/stepEditor.cpp **** 		track.chord.write_step(pattern, step, ChordTrack::StepItem(item), value);
 964              		.loc 1 37 2 is_stmt 1 view .LVU231
  38:Src/Settings/stepEditor.cpp **** 		break;
 965              		.loc 1 38 3 view .LVU232
 966              	.LBB474:
 967              	.LBI405:
 141:Src/Settings/chordTrack.h **** 	}
 142:Src/Settings/chordTrack.h **** 
 143:Src/Settings/chordTrack.h **** 	int read_random_min(int pattern_index, StepItem item) {
 144:Src/Settings/chordTrack.h **** 		return step_item_[item].read(BaseTrack::pattern.random_min(pattern_index));
 145:Src/Settings/chordTrack.h **** 	}
 146:Src/Settings/chordTrack.h **** 
 147:Src/Settings/chordTrack.h **** 	int read_random_max(int pattern_index, StepItem item) {
 148:Src/Settings/chordTrack.h **** 		return step_item_[item].read(BaseTrack::pattern.random_max(pattern_index));
 149:Src/Settings/chordTrack.h **** 	}
 150:Src/Settings/chordTrack.h **** 
 151:Src/Settings/chordTrack.h **** 	// writing
 152:Src/Settings/chordTrack.h **** 	void write(Item item, int value) {
 153:Src/Settings/chordTrack.h **** 		track_item_[item].write(BaseTrack::settings(), value);
 154:Src/Settings/chordTrack.h **** 	}
 155:Src/Settings/chordTrack.h **** 
 156:Src/Settings/chordTrack.h **** 	void write_random_min(int pattern_index, StepItem item, int value) {
 157:Src/Settings/chordTrack.h **** 		step_item_[item].write(BaseTrack::pattern.random_min(pattern_index), value);
 158:Src/Settings/chordTrack.h **** 	}
 159:Src/Settings/chordTrack.h **** 
 160:Src/Settings/chordTrack.h **** 	void write_random_max(int pattern_index, StepItem item, int value) {
 161:Src/Settings/chordTrack.h **** 		step_item_[item].write(BaseTrack::pattern.random_max(pattern_index), value);
 162:Src/Settings/chordTrack.h **** 	}
 163:Src/Settings/chordTrack.h **** 
 164:Src/Settings/chordTrack.h **** 	void write_step(int pattern_index, int step_index, StepItem item, int value) {
 968              		.loc 11 164 7 view .LVU233
 969              	.LBE474:
 165:Src/Settings/chordTrack.h **** 		step_item_[item].write(BaseTrack::pattern.step(pattern_index, step_index), value);
 970              		.loc 11 165 3 view .LVU234
 971 00e2 DDB2     		uxtb	r5, r3
 972              	.LVL56:
 973              	.LBB475:
 974              	.LBB433:
 975              	.LBI406:
  21:Src/Settings/pattern.h **** 		return &data(index).step_[step_index].serial_[0];
 976              		.loc 6 21 22 view .LVU235
 977              	.LBB415:
 978              		.loc 6 22 3 view .LVU236
 979              	.LBB413:
 980              	.LBI408:
  17:Src/Settings/pattern.h **** 		return TrackData::pattern_[list_->entry_[index]];
 981              		.loc 6 17 32 view .LVU237
 982              	.LBB411:
  18:Src/Settings/pattern.h **** 	}
 983              		.loc 6 18 3 view .LVU238
  18:Src/Settings/pattern.h **** 	}
 984              		.loc 6 18 3 is_stmt 0 view .LVU239
 985              	.LBE411:
 986              	.LBE413:
 987              	.LBE415:
 988              	.LBE433:
ARM GAS  /var/folders/84/_x1cyy_j36g486tldtwl37280000gn/T//cc257jte.s 			page 36


 989              	.LBB434:
 990              	.LBI417:
  28:Src/Settings/serialItem.h **** 		if (value >= min_ && value <= max_) {
 991              		.loc 7 28 14 is_stmt 1 view .LVU240
 992              	.LBB430:
  29:Src/Settings/serialItem.h **** 			serial.write(mask_, ptr, value);
 993              		.loc 7 29 3 view .LVU241
  29:Src/Settings/serialItem.h **** 			serial.write(mask_, ptr, value);
 994              		.loc 7 29 16 is_stmt 0 view .LVU242
 995 00e4 05EB450C 		add	ip, r5, r5, lsl #1
 996 00e8 144B     		ldr	r3, .L26+24
 997              	.LVL57:
  29:Src/Settings/serialItem.h **** 			serial.write(mask_, ptr, value);
 998              		.loc 7 29 3 view .LVU243
 999 00ea 53F83C60 		ldr	r6, [r3, ip, lsl #3]
 1000 00ee B242     		cmp	r2, r6
  29:Src/Settings/serialItem.h **** 			serial.write(mask_, ptr, value);
 1001              		.loc 7 29 16 view .LVU244
 1002 00f0 03EBCC0C 		add	ip, r3, ip, lsl #3
  29:Src/Settings/serialItem.h **** 			serial.write(mask_, ptr, value);
 1003              		.loc 7 29 3 view .LVU245
 1004 00f4 C9DB     		blt	.L17
  29:Src/Settings/serialItem.h **** 			serial.write(mask_, ptr, value);
 1005              		.loc 7 29 21 view .LVU246
 1006 00f6 DCF80450 		ldr	r5, [ip, #4]
 1007              	.LVL58:
  29:Src/Settings/serialItem.h **** 			serial.write(mask_, ptr, value);
 1008              		.loc 7 29 21 view .LVU247
 1009 00fa AA42     		cmp	r2, r5
 1010 00fc C5DC     		bgt	.L17
 1011              	.LVL59:
 1012              	.LBB428:
 1013              	.LBI419:
  28:Src/Settings/serialItem.h **** 		if (value >= min_ && value <= max_) {
 1014              		.loc 7 28 14 is_stmt 1 view .LVU248
 1015              	.LBB426:
 1016              		.loc 7 30 4 view .LVU249
 1017              	.LBE426:
 1018              	.LBE428:
 1019              	.LBE430:
 1020              	.LBE434:
 1021              	.LBB435:
 1022              	.LBB416:
 1023              		.loc 6 22 21 is_stmt 0 view .LVU250
 1024 00fe 104E     		ldr	r6, .L26+28
 1025 0100 A9E7     		b	.L25
 1026              	.LVL60:
 1027              	.L21:
 1028              		.loc 6 22 21 view .LVU251
 1029              	.LBE416:
 1030              	.LBE435:
 1031              	.LBE475:
  40:Src/Settings/stepEditor.cpp **** 		track.drum.write_step(pattern, step, DrumTrack::StepItem(item), value);
 1032              		.loc 1 40 2 is_stmt 1 view .LVU252
  41:Src/Settings/stepEditor.cpp **** 		break;
 1033              		.loc 1 41 3 view .LVU253
 1034              	.LBB476:
ARM GAS  /var/folders/84/_x1cyy_j36g486tldtwl37280000gn/T//cc257jte.s 			page 37


 1035              	.LBI476:
 117:Src/Settings/drumTrack.h **** 	}
 118:Src/Settings/drumTrack.h **** 
 119:Src/Settings/drumTrack.h **** 	int read_random_min(int pattern_index, StepItem item) {
 120:Src/Settings/drumTrack.h **** 		return step_item_[item].read(BaseTrack::pattern.random_min(pattern_index));
 121:Src/Settings/drumTrack.h **** 	}
 122:Src/Settings/drumTrack.h **** 
 123:Src/Settings/drumTrack.h **** 	int read_random_max(int pattern_index, StepItem item) {
 124:Src/Settings/drumTrack.h **** 		return step_item_[item].read(BaseTrack::pattern.random_max(pattern_index));
 125:Src/Settings/drumTrack.h **** 	}
 126:Src/Settings/drumTrack.h **** 
 127:Src/Settings/drumTrack.h **** 
 128:Src/Settings/drumTrack.h **** 	// writing
 129:Src/Settings/drumTrack.h **** 	void write(Item item, int value) {
 130:Src/Settings/drumTrack.h **** 		track_item_[item].write(BaseTrack::settings(), value);
 131:Src/Settings/drumTrack.h **** 	}
 132:Src/Settings/drumTrack.h **** 
 133:Src/Settings/drumTrack.h **** 	void write_random_min(int pattern_index, StepItem item, int value) {
 134:Src/Settings/drumTrack.h **** 		step_item_[item].write(BaseTrack::pattern.random_min(pattern_index), value);
 135:Src/Settings/drumTrack.h **** 	}
 136:Src/Settings/drumTrack.h **** 
 137:Src/Settings/drumTrack.h **** 	void write_random_max(int pattern_index, StepItem item, int value) {
 138:Src/Settings/drumTrack.h **** 		step_item_[item].write(BaseTrack::pattern.random_max(pattern_index), value);
 139:Src/Settings/drumTrack.h **** 	}
 140:Src/Settings/drumTrack.h **** 
 141:Src/Settings/drumTrack.h **** 	void write_step(int pattern_index, int step_index, StepItem item, int value) {
 1036              		.loc 10 141 7 view .LVU254
 1037              	.LBE476:
 142:Src/Settings/drumTrack.h **** 		step_item_[item].write(BaseTrack::pattern.step(pattern_index, step_index), value);
 1038              		.loc 10 142 3 view .LVU255
 1039 0102 5FFA83FC 		uxtb	ip, r3
 1040              	.LVL61:
 1041              	.LBB487:
 1042              	.LBB477:
 1043              	.LBI477:
  21:Src/Settings/pattern.h **** 		return &data(index).step_[step_index].serial_[0];
 1044              		.loc 6 21 22 view .LVU256
 1045              	.LBB478:
 1046              		.loc 6 22 3 view .LVU257
 1047              	.LBB479:
 1048              	.LBI479:
  17:Src/Settings/pattern.h **** 		return TrackData::pattern_[list_->entry_[index]];
 1049              		.loc 6 17 32 view .LVU258
 1050              	.LBB480:
  18:Src/Settings/pattern.h **** 	}
 1051              		.loc 6 18 3 view .LVU259
  18:Src/Settings/pattern.h **** 	}
 1052              		.loc 6 18 3 is_stmt 0 view .LVU260
 1053              	.LBE480:
 1054              	.LBE479:
 1055              	.LBE478:
 1056              	.LBE477:
 1057              	.LBB482:
 1058              	.LBI482:
  28:Src/Settings/serialItem.h **** 		if (value >= min_ && value <= max_) {
 1059              		.loc 7 28 14 is_stmt 1 view .LVU261
 1060              	.LBB483:
ARM GAS  /var/folders/84/_x1cyy_j36g486tldtwl37280000gn/T//cc257jte.s 			page 38


  29:Src/Settings/serialItem.h **** 			serial.write(mask_, ptr, value);
 1061              		.loc 7 29 3 view .LVU262
  29:Src/Settings/serialItem.h **** 			serial.write(mask_, ptr, value);
 1062              		.loc 7 29 16 is_stmt 0 view .LVU263
 1063 0106 0F4D     		ldr	r5, .L26+32
 1064 0108 0CEB4C03 		add	r3, ip, ip, lsl #1
 1065              	.LVL62:
  29:Src/Settings/serialItem.h **** 			serial.write(mask_, ptr, value);
 1066              		.loc 7 29 16 view .LVU264
 1067 010c 05EBC30C 		add	ip, r5, r3, lsl #3
 1068              	.LVL63:
  29:Src/Settings/serialItem.h **** 			serial.write(mask_, ptr, value);
 1069              		.loc 7 29 3 view .LVU265
 1070 0110 55F83360 		ldr	r6, [r5, r3, lsl #3]
 1071 0114 B242     		cmp	r2, r6
 1072 0116 B8DB     		blt	.L17
  29:Src/Settings/serialItem.h **** 			serial.write(mask_, ptr, value);
 1073              		.loc 7 29 21 view .LVU266
 1074 0118 DCF80430 		ldr	r3, [ip, #4]
 1075 011c 9A42     		cmp	r2, r3
 1076 011e B4DC     		bgt	.L17
 1077              	.LVL64:
 1078              	.LBB484:
 1079              	.LBI484:
  28:Src/Settings/serialItem.h **** 		if (value >= min_ && value <= max_) {
 1080              		.loc 7 28 14 is_stmt 1 view .LVU267
 1081              	.LBB485:
 1082              		.loc 7 30 4 view .LVU268
 1083              	.LBE485:
 1084              	.LBE484:
 1085              	.LBE483:
 1086              	.LBE482:
 1087              	.LBB486:
 1088              	.LBB481:
 1089              		.loc 6 22 21 is_stmt 0 view .LVU269
 1090 0120 094E     		ldr	r6, .L26+36
 1091 0122 98E7     		b	.L25
 1092              	.L27:
 1093              		.align	2
 1094              	.L26:
 1095 0124 00000000 		.word	settings
 1096 0128 00000000 		.word	_ZN9NoteTrack10step_item_E
 1097 012c 9C000000 		.word	settings+156
 1098 0130 00000000 		.word	_ZN9TrackData8pattern_E
 1099 0134 00000000 		.word	_ZN10CurveTrack10step_item_E
 1100 0138 CC000000 		.word	settings+204
 1101 013c 00000000 		.word	_ZN10ChordTrack10step_item_E
 1102 0140 AC000000 		.word	settings+172
 1103 0144 00000000 		.word	_ZN9DrumTrack10step_item_E
 1104 0148 BC000000 		.word	settings+188
 1105              	.LBE481:
 1106              	.LBE486:
 1107              	.LBE487:
 1108              		.cfi_endproc
 1109              	.LFE2866:
 1111              		.section	.text._ZN10StepEditor4editEiib,"ax",%progbits
 1112              		.align	1
ARM GAS  /var/folders/84/_x1cyy_j36g486tldtwl37280000gn/T//cc257jte.s 			page 39


 1113              		.p2align 2,,3
 1114              		.global	_ZN10StepEditor4editEiib
 1115              		.syntax unified
 1116              		.thumb
 1117              		.thumb_func
 1118              		.fpu fpv4-sp-d16
 1120              	_ZN10StepEditor4editEiib:
 1121              	.LVL65:
 1122              	.LFB2867:
  50:Src/Settings/stepEditor.cpp **** 
  51:Src/Settings/stepEditor.cpp **** void StepEditor::edit(int step, int inc, bool pressed) {
 1123              		.loc 1 51 56 is_stmt 1 view -0
 1124              		.cfi_startproc
 1125              		@ args = 0, pretend = 0, frame = 0
 1126              		@ frame_needed = 0, uses_anonymous_args = 0
  52:Src/Settings/stepEditor.cpp **** 	Track &track = settings.selected_track();
 1127              		.loc 1 52 2 view .LVU271
 1128              	.LBB601:
 1129              	.LBI601:
  86:Src/Settings/settings.h **** 		return song.track(selected_track_index_);
 1130              		.loc 2 86 9 view .LVU272
 1131              	.LBB602:
  87:Src/Settings/settings.h **** 	}
 1132              		.loc 2 87 3 view .LVU273
  87:Src/Settings/settings.h **** 	}
 1133              		.loc 2 87 3 is_stmt 0 view .LVU274
 1134              	.LBE602:
 1135              	.LBE601:
 1136              		.loc 3 19 3 is_stmt 1 view .LVU275
  53:Src/Settings/stepEditor.cpp **** 	int item = settings.selected_step_item();
 1137              		.loc 1 53 2 view .LVU276
 1138              	.LBB604:
 1139              	.LBI604:
 130:Src/Settings/settings.h **** 		return selected_step_item_;
 1140              		.loc 2 130 6 view .LVU277
 1141              	.LBB605:
 1142              		.loc 2 131 3 view .LVU278
 1143              	.LBE605:
 1144              	.LBE604:
  51:Src/Settings/stepEditor.cpp **** 	Track &track = settings.selected_track();
 1145              		.loc 1 51 56 is_stmt 0 view .LVU279
 1146 0000 F0B5     		push	{r4, r5, r6, r7, lr}
 1147              		.cfi_def_cfa_offset 20
 1148              		.cfi_offset 4, -20
 1149              		.cfi_offset 5, -16
 1150              		.cfi_offset 6, -12
 1151              		.cfi_offset 7, -8
 1152              		.cfi_offset 14, -4
 1153              	.LBB609:
 1154              	.LBB603:
  87:Src/Settings/settings.h **** 	}
 1155              		.loc 2 87 42 view .LVU280
 1156 0002 41F29470 		movw	r0, #6036
 1157              	.LVL66:
  87:Src/Settings/settings.h **** 	}
 1158              		.loc 2 87 42 view .LVU281
 1159              	.LBE603:
ARM GAS  /var/folders/84/_x1cyy_j36g486tldtwl37280000gn/T//cc257jte.s 			page 40


 1160              	.LBE609:
 1161              	.LBB610:
 1162              	.LBB606:
 1163              		.loc 2 131 10 view .LVU282
 1164 0006 4C4D     		ldr	r5, .L63
 1165 0008 2C58     		ldr	r4, [r5, r0]
 1166 000a 4FF4B876 		mov	r6, #368
 1167 000e 06FB04F6 		mul	r6, r6, r4
 1168              	.LBE606:
 1169              	.LBE610:
  54:Src/Settings/stepEditor.cpp **** 	int pattern = settings.selected_pattern();
  55:Src/Settings/stepEditor.cpp **** 
  56:Src/Settings/stepEditor.cpp **** 	switch (track.type())
 1170              		.loc 1 56 20 view .LVU283
 1171 0012 AF19     		adds	r7, r5, r6
 1172              	.LBB611:
 1173              	.LBB607:
 1174              		.loc 2 131 10 view .LVU284
 1175 0014 41F29C7C 		movw	ip, #6044
 1176              	.LBE607:
 1177              	.LBE611:
 1178              	.LBB612:
 1179              	.LBB613:
 1180              		.loc 4 72 17 view .LVU285
 1181 0018 D7F89000 		ldr	r0, [r7, #144]
 1182              	.LBE613:
 1183              	.LBE612:
 1184              	.LBB615:
 1185              	.LBB608:
 1186              		.loc 2 131 10 view .LVU286
 1187 001c 55F80C40 		ldr	r4, [r5, ip]
 1188              	.LVL67:
 1189              		.loc 2 131 10 view .LVU287
 1190              	.LBE608:
 1191              	.LBE615:
  54:Src/Settings/stepEditor.cpp **** 	int pattern = settings.selected_pattern();
 1192              		.loc 1 54 2 is_stmt 1 view .LVU288
 1193              	.LBB616:
 1194              	.LBI616:
 107:Src/Settings/settings.h **** 		return selected_pattern_;
 1195              		.loc 2 107 6 view .LVU289
 1196              	.LBB617:
 108:Src/Settings/settings.h **** 	}
 1197              		.loc 2 108 3 view .LVU290
 1198 0020 0778     		ldrb	r7, [r0]	@ zero_extendqisi2
 108:Src/Settings/settings.h **** 	}
 1199              		.loc 2 108 10 is_stmt 0 view .LVU291
 1200 0022 41F2987C 		movw	ip, #6040
 1201 0026 55F80C00 		ldr	r0, [r5, ip]
 1202              	.LVL68:
 108:Src/Settings/settings.h **** 	}
 1203              		.loc 2 108 10 view .LVU292
 1204              	.LBE617:
 1205              	.LBE616:
 1206              		.loc 1 56 2 is_stmt 1 view .LVU293
 1207              	.LBB618:
 1208              	.LBI612:
ARM GAS  /var/folders/84/_x1cyy_j36g486tldtwl37280000gn/T//cc257jte.s 			page 41


  71:Src/Settings/baseTrack.h **** 		return data_->type_;
 1209              		.loc 4 71 10 view .LVU294
 1210              	.LBB614:
 1211              		.loc 4 72 3 view .LVU295
 1212 002a 032F     		cmp	r7, #3
 1213 002c 3FD8     		bhi	.L28
 1214 002e DFE807F0 		tbb	[pc, r7]
 1215              	.L31:
 1216 0032 02       		.byte	(.L34-.L31)/2
 1217 0033 7C       		.byte	(.L33-.L31)/2
 1218 0034 7F       		.byte	(.L32-.L31)/2
 1219 0035 3F       		.byte	(.L30-.L31)/2
 1220              		.p2align 1
 1221              	.L34:
 1222              	.LBE614:
 1223              	.LBE618:
  57:Src/Settings/stepEditor.cpp **** 	{
  58:Src/Settings/stepEditor.cpp **** 	case Track::NOTE_TRACK:
 1224              		.loc 1 58 2 view .LVU296
  59:Src/Settings/stepEditor.cpp **** 		track.note.edit_step(pattern, step, NoteTrack::StepItem(item), inc, pressed);
 1225              		.loc 1 59 3 view .LVU297
 1226              	.LVL69:
 1227              	.LBB619:
 1228              	.LBI619:
 112:Src/Settings/noteTrack.h **** 		int value = read_step(pattern, step, item);
 1229              		.loc 9 112 7 view .LVU298
 1230              	.LBB620:
 113:Src/Settings/noteTrack.h **** 		int inc_ = step_item_[item].inc(enc_state, shifted);
 1231              		.loc 9 113 3 view .LVU299
 1232              	.LBB621:
 1233              	.LBI621:
 123:Src/Settings/noteTrack.h **** 		return step_item_[item].read(BaseTrack::pattern.step(pattern_index, step_index));
 1234              		.loc 9 123 6 view .LVU300
 1235              	.LBB622:
 124:Src/Settings/noteTrack.h **** 	}
 1236              		.loc 9 124 3 view .LVU301
 1237              	.LBB623:
 1238              	.LBB624:
 1239              		.loc 6 22 21 is_stmt 0 view .LVU302
 1240 0036 414F     		ldr	r7, .L63+4
 1241              	.LBE624:
 1242              	.LBE623:
 124:Src/Settings/noteTrack.h **** 	}
 1243              		.loc 9 124 31 view .LVU303
 1244 0038 414D     		ldr	r5, .L63+8
 1245              	.LVL70:
 1246              	.L61:
 124:Src/Settings/noteTrack.h **** 	}
 1247              		.loc 9 124 31 view .LVU304
 1248              	.LBE622:
 1249              	.LBE621:
 1250              	.LBE620:
 1251              	.LBE619:
 1252              	.LBB625:
 1253              	.LBB626:
 1254              	.LBB627:
 1255              	.LBB628:
ARM GAS  /var/folders/84/_x1cyy_j36g486tldtwl37280000gn/T//cc257jte.s 			page 42


 1256              	.LBB629:
 1257              	.LBB630:
 1258              	.LBB631:
 1259              	.LBB632:
  18:Src/Settings/pattern.h **** 	}
 1260              		.loc 6 18 49 view .LVU305
 1261 003a 56F807E0 		ldr	lr, [r6, r7]
 1262              	.LBE632:
 1263              	.LBE631:
 1264              		.loc 6 22 50 view .LVU306
 1265 003e 414E     		ldr	r6, .L63+12
 1266              	.LVL71:
 1267              		.loc 6 22 50 view .LVU307
 1268 0040 E4B2     		uxtb	r4, r4
 1269              	.LVL72:
 1270              	.LBB635:
 1271              	.LBB633:
  18:Src/Settings/pattern.h **** 	}
 1272              		.loc 6 18 49 view .LVU308
 1273 0042 C0B2     		uxtb	r0, r0
 1274              	.LVL73:
  18:Src/Settings/pattern.h **** 	}
 1275              		.loc 6 18 49 view .LVU309
 1276              	.LBE633:
 1277              	.LBE635:
 1278              	.LBE630:
 1279              	.LBE629:
 116:Src/Settings/drumTrack.h **** 	}
 1280              		.loc 10 116 31 view .LVU310
 1281 0044 04EB440C 		add	ip, r4, r4, lsl #1
 1282              	.LVL74:
 116:Src/Settings/drumTrack.h **** 	}
 1283              		.loc 10 116 31 view .LVU311
 1284 0048 05EBCC07 		add	r7, r5, ip, lsl #3
 1285              	.LVL75:
 1286              	.LBB640:
 1287              	.LBI629:
  21:Src/Settings/pattern.h **** 		return &data(index).step_[step_index].serial_[0];
 1288              		.loc 6 21 22 is_stmt 1 view .LVU312
 1289              	.LBB637:
 1290              		.loc 6 22 3 view .LVU313
 1291              	.LBB636:
 1292              	.LBI631:
  17:Src/Settings/pattern.h **** 		return TrackData::pattern_[list_->entry_[index]];
 1293              		.loc 6 17 32 view .LVU314
 1294              	.LBB634:
  18:Src/Settings/pattern.h **** 	}
 1295              		.loc 6 18 3 view .LVU315
  18:Src/Settings/pattern.h **** 	}
 1296              		.loc 6 18 3 is_stmt 0 view .LVU316
 1297              	.LBE634:
 1298              	.LBE636:
 1299              		.loc 6 22 50 view .LVU317
 1300 004c 1EF800E0 		ldrb	lr, [lr, r0]	@ zero_extendqisi2
 1301              	.LBE637:
 1302              	.LBE640:
 116:Src/Settings/drumTrack.h **** 	}
ARM GAS  /var/folders/84/_x1cyy_j36g486tldtwl37280000gn/T//cc257jte.s 			page 43


 1303              		.loc 10 116 31 view .LVU318
 1304 0050 3869     		ldr	r0, [r7, #16]
 1305              	.LBB641:
 1306              	.LBB638:
 1307              		.loc 6 22 50 view .LVU319
 1308 0052 C9B2     		uxtb	r1, r1
 1309              	.LVL76:
 1310              		.loc 6 22 50 view .LVU320
 1311 0054 4FF0170C 		mov	ip, #23
 1312 0058 0131     		adds	r1, r1, #1
 1313 005a 1CFB0E11 		smlabb	r1, ip, lr, r1
 1314 005e 06EBC106 		add	r6, r6, r1, lsl #3
 1315              	.LVL77:
 1316              		.loc 6 22 50 view .LVU321
 1317              	.LBE638:
 1318              	.LBE641:
 1319              	.LBB642:
 1320              	.LBI642:
  24:Src/Settings/serialItem.h **** 		return serial.read(mask_, ptr);
 1321              		.loc 7 24 13 is_stmt 1 view .LVU322
 1322              	.LBB643:
  25:Src/Settings/serialItem.h **** 	}
 1323              		.loc 7 25 3 view .LVU323
 1324              	.LBB644:
 1325              	.LBI644:
  17:Src/Settings/serial.h **** 		uint32_t data = ptr[mask.reg];
 1326              		.loc 8 17 18 view .LVU324
 1327              	.LBB645:
  18:Src/Settings/serial.h **** 		return (data & mask.value) >> mask.shifts;
 1328              		.loc 8 18 3 view .LVU325
  19:Src/Settings/serial.h **** 	}
 1329              		.loc 8 19 3 view .LVU326
  18:Src/Settings/serial.h **** 		return (data & mask.value) >> mask.shifts;
 1330              		.loc 8 18 31 is_stmt 0 view .LVU327
 1331 0062 0178     		ldrb	r1, [r0]	@ zero_extendqisi2
  19:Src/Settings/serial.h **** 	}
 1332              		.loc 8 19 16 view .LVU328
 1333 0064 D0F804C0 		ldr	ip, [r0, #4]
 1334 0068 56F82110 		ldr	r1, [r6, r1, lsl #2]
  19:Src/Settings/serial.h **** 	}
 1335              		.loc 8 19 38 view .LVU329
 1336 006c 8078     		ldrb	r0, [r0, #2]	@ zero_extendqisi2
  19:Src/Settings/serial.h **** 	}
 1337              		.loc 8 19 16 view .LVU330
 1338 006e 01EA0C01 		and	r1, r1, ip
  19:Src/Settings/serial.h **** 	}
 1339              		.loc 8 19 38 view .LVU331
 1340 0072 C140     		lsrs	r1, r1, r0
 1341              	.LVL78:
  19:Src/Settings/serial.h **** 	}
 1342              		.loc 8 19 38 view .LVU332
 1343              	.LBE645:
 1344              	.LBE644:
 1345              	.LBE643:
 1346              	.LBE642:
 1347              	.LBE628:
 1348              	.LBE627:
ARM GAS  /var/folders/84/_x1cyy_j36g486tldtwl37280000gn/T//cc257jte.s 			page 44


 106:Src/Settings/drumTrack.h **** 		write_step(pattern, step, item, value + inc_);
 1349              		.loc 10 106 3 is_stmt 1 view .LVU333
 1350              	.LBB649:
 1351              	.LBI649:
  20:Src/Settings/serialItem.h **** 		return shifted ? inc_ * inc_shifted_ : inc_;
 1352              		.loc 7 20 13 view .LVU334
 1353              	.LBB650:
  21:Src/Settings/serialItem.h **** 	}
 1354              		.loc 7 21 3 view .LVU335
 1355              	.LBE650:
 1356              	.LBE649:
 1357              	.LBB652:
 1358              	.LBB647:
 116:Src/Settings/drumTrack.h **** 	}
 1359              		.loc 10 116 31 is_stmt 0 view .LVU336
 1360 0074 6000     		lsls	r0, r4, #1
 1361              	.LBE647:
 1362              	.LBE652:
 1363              	.LBB653:
 1364              	.LBB651:
  21:Src/Settings/serialItem.h **** 	}
 1365              		.loc 7 21 18 view .LVU337
 1366 0076 13B1     		cbz	r3, .L37
 1367 0078 BB68     		ldr	r3, [r7, #8]
 1368              	.LVL79:
  21:Src/Settings/serialItem.h **** 	}
 1369              		.loc 7 21 18 view .LVU338
 1370 007a 03FB02F2 		mul	r2, r3, r2
 1371              	.LVL80:
 1372              	.L37:
  21:Src/Settings/serialItem.h **** 	}
 1373              		.loc 7 21 18 view .LVU339
 1374              	.LBE651:
 1375              	.LBE653:
 107:Src/Settings/drumTrack.h **** 	}
 1376              		.loc 10 107 3 is_stmt 1 view .LVU340
 1377              	.LBB654:
 1378              	.LBB655:
 1379              	.LBB656:
  29:Src/Settings/serialItem.h **** 			serial.write(mask_, ptr, value);
 1380              		.loc 7 29 16 is_stmt 0 view .LVU341
 1381 007e 0444     		add	r4, r4, r0
 1382              	.LBE656:
 1383              	.LBE655:
 1384              	.LBE654:
 107:Src/Settings/drumTrack.h **** 	}
 1385              		.loc 10 107 13 view .LVU342
 1386 0080 0A44     		add	r2, r2, r1
 1387              	.LVL81:
 1388              	.LBB663:
 1389              	.LBI654:
 141:Src/Settings/drumTrack.h **** 		step_item_[item].write(BaseTrack::pattern.step(pattern_index, step_index), value);
 1390              		.loc 10 141 7 is_stmt 1 view .LVU343
 1391              	.LBE663:
 1392              	.LBE626:
 1393              	.LBE625:
 1394              		.loc 10 142 3 view .LVU344
ARM GAS  /var/folders/84/_x1cyy_j36g486tldtwl37280000gn/T//cc257jte.s 			page 45


 1395              		.loc 6 22 3 view .LVU345
  18:Src/Settings/pattern.h **** 	}
 1396              		.loc 6 18 3 view .LVU346
 1397              	.LBB668:
 1398              	.LBB666:
 1399              	.LBB664:
 1400              	.LBB662:
 1401              	.LBI655:
  28:Src/Settings/serialItem.h **** 		if (value >= min_ && value <= max_) {
 1402              		.loc 7 28 14 view .LVU347
 1403              	.LBB661:
  29:Src/Settings/serialItem.h **** 			serial.write(mask_, ptr, value);
 1404              		.loc 7 29 3 view .LVU348
 1405 0082 55F83470 		ldr	r7, [r5, r4, lsl #3]
 1406              	.LVL82:
  29:Src/Settings/serialItem.h **** 			serial.write(mask_, ptr, value);
 1407              		.loc 7 29 3 is_stmt 0 view .LVU349
 1408 0086 BA42     		cmp	r2, r7
  29:Src/Settings/serialItem.h **** 			serial.write(mask_, ptr, value);
 1409              		.loc 7 29 16 view .LVU350
 1410 0088 05EBC405 		add	r5, r5, r4, lsl #3
  29:Src/Settings/serialItem.h **** 			serial.write(mask_, ptr, value);
 1411              		.loc 7 29 3 view .LVU351
 1412 008c 0FDB     		blt	.L28
  29:Src/Settings/serialItem.h **** 			serial.write(mask_, ptr, value);
 1413              		.loc 7 29 21 view .LVU352
 1414 008e 6C68     		ldr	r4, [r5, #4]
 1415 0090 A242     		cmp	r2, r4
 1416 0092 0CDC     		bgt	.L28
 1417              	.LVL83:
 1418              	.LBB657:
 1419              	.LBI657:
  28:Src/Settings/serialItem.h **** 		if (value >= min_ && value <= max_) {
 1420              		.loc 7 28 14 is_stmt 1 view .LVU353
 1421              	.LBB658:
 1422              		.loc 7 30 4 view .LVU354
 1423              		.loc 7 30 16 is_stmt 0 view .LVU355
 1424 0094 2969     		ldr	r1, [r5, #16]
 1425              	.LVL84:
 1426              	.LBB659:
 1427              	.LBI659:
  22:Src/Settings/serial.h **** 		uint32_t data = ptr[mask.reg];
 1428              		.loc 8 22 14 is_stmt 1 view .LVU356
 1429              	.LBB660:
  23:Src/Settings/serial.h **** 		ptr[mask.reg] = (data & ~mask.value) | (value << mask.shifts);
 1430              		.loc 8 23 3 view .LVU357
  23:Src/Settings/serial.h **** 		ptr[mask.reg] = (data & ~mask.value) | (value << mask.shifts);
 1431              		.loc 8 23 31 is_stmt 0 view .LVU358
 1432 0096 91F800C0 		ldrb	ip, [r1]	@ zero_extendqisi2
 1433              	.LVL85:
 1434              		.loc 8 24 3 is_stmt 1 view .LVU359
 1435              		.loc 8 24 27 is_stmt 0 view .LVU360
 1436 009a 4868     		ldr	r0, [r1, #4]
 1437              		.loc 8 24 25 view .LVU361
 1438 009c 56F82C30 		ldr	r3, [r6, ip, lsl #2]
 1439              		.loc 8 24 57 view .LVU362
 1440 00a0 8F78     		ldrb	r7, [r1, #2]	@ zero_extendqisi2
ARM GAS  /var/folders/84/_x1cyy_j36g486tldtwl37280000gn/T//cc257jte.s 			page 46


 1441              		.loc 8 24 25 view .LVU363
 1442 00a2 23EA0005 		bic	r5, r3, r0
 1443              		.loc 8 24 49 view .LVU364
 1444 00a6 BA40     		lsls	r2, r2, r7
 1445              	.LVL86:
 1446              		.loc 8 24 40 view .LVU365
 1447 00a8 2A43     		orrs	r2, r2, r5
 1448              		.loc 8 24 17 view .LVU366
 1449 00aa 46F82C20 		str	r2, [r6, ip, lsl #2]
 1450              	.LVL87:
 1451              	.L28:
 1452              		.loc 8 24 17 view .LVU367
 1453              	.LBE660:
 1454              	.LBE659:
 1455              	.LBE658:
 1456              	.LBE657:
 1457              	.LBE661:
 1458              	.LBE662:
 1459              	.LBE664:
 1460              	.LBE666:
 1461              	.LBE668:
  60:Src/Settings/stepEditor.cpp **** 		break;
  61:Src/Settings/stepEditor.cpp **** 	case Track::CHORD_TRACK:
  62:Src/Settings/stepEditor.cpp **** 		track.chord.edit_step(pattern, step, ChordTrack::StepItem(item), inc, pressed);
  63:Src/Settings/stepEditor.cpp **** 		break;
  64:Src/Settings/stepEditor.cpp **** 	case Track::DRUM_TRACK:
  65:Src/Settings/stepEditor.cpp **** 		track.drum.edit_step(pattern, step, DrumTrack::StepItem(item), inc, pressed);
  66:Src/Settings/stepEditor.cpp **** 		break;
  67:Src/Settings/stepEditor.cpp **** 	case Track::CURVE_TRACK:
  68:Src/Settings/stepEditor.cpp **** 		track.curve.edit_step(pattern, step, CurveTrack::StepItem(item), inc, pressed);
  69:Src/Settings/stepEditor.cpp **** 		break;
  70:Src/Settings/stepEditor.cpp **** 	default:
  71:Src/Settings/stepEditor.cpp **** 		break;
  72:Src/Settings/stepEditor.cpp **** 	}
  73:Src/Settings/stepEditor.cpp **** }
 1462              		.loc 1 73 1 view .LVU368
 1463 00ae F0BD     		pop	{r4, r5, r6, r7, pc}
 1464              	.LVL88:
 1465              	.L30:
  67:Src/Settings/stepEditor.cpp **** 		track.curve.edit_step(pattern, step, CurveTrack::StepItem(item), inc, pressed);
 1466              		.loc 1 67 2 is_stmt 1 view .LVU369
  68:Src/Settings/stepEditor.cpp **** 		break;
 1467              		.loc 1 68 3 view .LVU370
 1468              	.LBB669:
 1469              	.LBI669:
  99:Src/Settings/curveTrack.h **** 		int value = read_step(pattern, step, item);
 1470              		.loc 5 99 7 view .LVU371
 1471              	.LBB670:
 100:Src/Settings/curveTrack.h **** 		int inc_ = step_item_[item].inc(enc_state, shifted);
 1472              		.loc 5 100 3 view .LVU372
 1473              	.LBB671:
 1474              	.LBI671:
 110:Src/Settings/curveTrack.h **** 		return step_item_[item].read(BaseTrack::pattern.step(pattern_index, step_index));
 1475              		.loc 5 110 6 view .LVU373
 1476              	.LBB672:
 111:Src/Settings/curveTrack.h **** 	}
 1477              		.loc 5 111 3 view .LVU374
ARM GAS  /var/folders/84/_x1cyy_j36g486tldtwl37280000gn/T//cc257jte.s 			page 47


 1478              	.LBB673:
 1479              	.LBB674:
 1480              		.loc 6 22 21 is_stmt 0 view .LVU375
 1481 00b0 254F     		ldr	r7, .L63+16
 1482              	.LBE674:
 1483              	.LBE673:
 111:Src/Settings/curveTrack.h **** 	}
 1484              		.loc 5 111 31 view .LVU376
 1485 00b2 264D     		ldr	r5, .L63+20
 1486              	.LBB684:
 1487              	.LBB681:
 1488              	.LBB675:
 1489              	.LBB676:
  18:Src/Settings/pattern.h **** 	}
 1490              		.loc 6 18 49 view .LVU377
 1491 00b4 56F807E0 		ldr	lr, [r6, r7]
 1492              	.LBE676:
 1493              	.LBE675:
 1494              		.loc 6 22 50 view .LVU378
 1495 00b8 DFF888C0 		ldr	ip, .L63+12
 1496 00bc E6B2     		uxtb	r6, r4
 1497              	.LVL89:
 1498              	.LBB679:
 1499              	.LBB677:
  18:Src/Settings/pattern.h **** 	}
 1500              		.loc 6 18 49 view .LVU379
 1501 00be C4B2     		uxtb	r4, r0
 1502              	.LVL90:
  18:Src/Settings/pattern.h **** 	}
 1503              		.loc 6 18 49 view .LVU380
 1504              	.LBE677:
 1505              	.LBE679:
 1506              	.LBE681:
 1507              	.LBE684:
 111:Src/Settings/curveTrack.h **** 	}
 1508              		.loc 5 111 31 view .LVU381
 1509 00c0 06EB4600 		add	r0, r6, r6, lsl #1
 1510              	.LVL91:
 111:Src/Settings/curveTrack.h **** 	}
 1511              		.loc 5 111 31 view .LVU382
 1512 00c4 05EBC007 		add	r7, r5, r0, lsl #3
 1513              	.LVL92:
 1514              	.LBB685:
 1515              	.LBI673:
  21:Src/Settings/pattern.h **** 		return &data(index).step_[step_index].serial_[0];
 1516              		.loc 6 21 22 is_stmt 1 view .LVU383
 1517              	.LBB682:
 1518              		.loc 6 22 3 view .LVU384
 1519              	.LBB680:
 1520              	.LBI675:
  17:Src/Settings/pattern.h **** 		return TrackData::pattern_[list_->entry_[index]];
 1521              		.loc 6 17 32 view .LVU385
 1522              	.LBB678:
  18:Src/Settings/pattern.h **** 	}
 1523              		.loc 6 18 3 view .LVU386
  18:Src/Settings/pattern.h **** 	}
 1524              		.loc 6 18 3 is_stmt 0 view .LVU387
ARM GAS  /var/folders/84/_x1cyy_j36g486tldtwl37280000gn/T//cc257jte.s 			page 48


 1525              	.LBE678:
 1526              	.LBE680:
 1527              		.loc 6 22 50 view .LVU388
 1528 00c8 1EF804E0 		ldrb	lr, [lr, r4]	@ zero_extendqisi2
 1529              	.LBE682:
 1530              	.LBE685:
 111:Src/Settings/curveTrack.h **** 	}
 1531              		.loc 5 111 31 view .LVU389
 1532 00cc 3C69     		ldr	r4, [r7, #16]
 1533              	.LBB686:
 1534              	.LBB683:
 1535              		.loc 6 22 50 view .LVU390
 1536 00ce C9B2     		uxtb	r1, r1
 1537              	.LVL93:
 1538              		.loc 6 22 50 view .LVU391
 1539 00d0 1720     		movs	r0, #23
 1540 00d2 0131     		adds	r1, r1, #1
 1541 00d4 10FB0E11 		smlabb	r1, r0, lr, r1
 1542 00d8 0CEBC101 		add	r1, ip, r1, lsl #3
 1543              	.LVL94:
 1544              		.loc 6 22 50 view .LVU392
 1545              	.LBE683:
 1546              	.LBE686:
 1547              	.LBB687:
 1548              	.LBI687:
  24:Src/Settings/serialItem.h **** 		return serial.read(mask_, ptr);
 1549              		.loc 7 24 13 is_stmt 1 view .LVU393
 1550              	.LBB688:
  25:Src/Settings/serialItem.h **** 	}
 1551              		.loc 7 25 3 view .LVU394
 1552              	.LBB689:
 1553              	.LBI689:
  17:Src/Settings/serial.h **** 		uint32_t data = ptr[mask.reg];
 1554              		.loc 8 17 18 view .LVU395
 1555              	.LBB690:
  18:Src/Settings/serial.h **** 		return (data & mask.value) >> mask.shifts;
 1556              		.loc 8 18 3 view .LVU396
  19:Src/Settings/serial.h **** 	}
 1557              		.loc 8 19 3 view .LVU397
  18:Src/Settings/serial.h **** 		return (data & mask.value) >> mask.shifts;
 1558              		.loc 8 18 31 is_stmt 0 view .LVU398
 1559 00dc 2078     		ldrb	r0, [r4]	@ zero_extendqisi2
  19:Src/Settings/serial.h **** 	}
 1560              		.loc 8 19 16 view .LVU399
 1561 00de D4F804C0 		ldr	ip, [r4, #4]
 1562 00e2 51F82000 		ldr	r0, [r1, r0, lsl #2]
  19:Src/Settings/serial.h **** 	}
 1563              		.loc 8 19 38 view .LVU400
 1564 00e6 A478     		ldrb	r4, [r4, #2]	@ zero_extendqisi2
  19:Src/Settings/serial.h **** 	}
 1565              		.loc 8 19 16 view .LVU401
 1566 00e8 00EA0C00 		and	r0, r0, ip
  19:Src/Settings/serial.h **** 	}
 1567              		.loc 8 19 38 view .LVU402
 1568 00ec E040     		lsrs	r0, r0, r4
 1569              	.LVL95:
  19:Src/Settings/serial.h **** 	}
ARM GAS  /var/folders/84/_x1cyy_j36g486tldtwl37280000gn/T//cc257jte.s 			page 49


 1570              		.loc 8 19 38 view .LVU403
 1571              	.LBE690:
 1572              	.LBE689:
 1573              	.LBE688:
 1574              	.LBE687:
 1575              	.LBE672:
 1576              	.LBE671:
 101:Src/Settings/curveTrack.h **** 		write_step(pattern, step, item, value + inc_);
 1577              		.loc 5 101 3 is_stmt 1 view .LVU404
 1578              	.LBB692:
 1579              	.LBI692:
  20:Src/Settings/serialItem.h **** 		return shifted ? inc_ * inc_shifted_ : inc_;
 1580              		.loc 7 20 13 view .LVU405
 1581              	.LBB693:
  21:Src/Settings/serialItem.h **** 	}
 1582              		.loc 7 21 3 view .LVU406
 1583              	.LBE693:
 1584              	.LBE692:
 1585              	.LBB695:
 1586              	.LBB691:
 111:Src/Settings/curveTrack.h **** 	}
 1587              		.loc 5 111 31 is_stmt 0 view .LVU407
 1588 00ee 7400     		lsls	r4, r6, #1
 1589              	.LBE691:
 1590              	.LBE695:
 1591              	.LBB696:
 1592              	.LBB694:
  21:Src/Settings/serialItem.h **** 	}
 1593              		.loc 7 21 18 view .LVU408
 1594 00f0 13B1     		cbz	r3, .L38
 1595 00f2 BB68     		ldr	r3, [r7, #8]
 1596              	.LVL96:
  21:Src/Settings/serialItem.h **** 	}
 1597              		.loc 7 21 18 view .LVU409
 1598 00f4 03FB02F2 		mul	r2, r3, r2
 1599              	.LVL97:
 1600              	.L38:
  21:Src/Settings/serialItem.h **** 	}
 1601              		.loc 7 21 18 view .LVU410
 1602              	.LBE694:
 1603              	.LBE696:
 102:Src/Settings/curveTrack.h **** 	}
 1604              		.loc 5 102 3 is_stmt 1 view .LVU411
 1605              	.LBB697:
 1606              	.LBB698:
 1607              	.LBB699:
  29:Src/Settings/serialItem.h **** 			serial.write(mask_, ptr, value);
 1608              		.loc 7 29 16 is_stmt 0 view .LVU412
 1609 00f8 3444     		add	r4, r4, r6
 1610              	.LBE699:
 1611              	.LBE698:
 1612              	.LBE697:
 102:Src/Settings/curveTrack.h **** 	}
 1613              		.loc 5 102 13 view .LVU413
 1614 00fa 0244     		add	r2, r2, r0
 1615              	.LVL98:
 1616              	.LBB706:
ARM GAS  /var/folders/84/_x1cyy_j36g486tldtwl37280000gn/T//cc257jte.s 			page 50


 1617              	.LBI697:
 136:Src/Settings/curveTrack.h **** 		step_item_[item].write(BaseTrack::pattern.step(pattern_index, step_index), value);
 1618              		.loc 5 136 7 is_stmt 1 view .LVU414
 1619              	.LBE706:
 1620              	.LBE670:
 1621              	.LBE669:
 1622              		.loc 5 137 3 view .LVU415
 1623              		.loc 6 22 3 view .LVU416
  18:Src/Settings/pattern.h **** 	}
 1624              		.loc 6 18 3 view .LVU417
 1625              	.LBB709:
 1626              	.LBB708:
 1627              	.LBB707:
 1628              	.LBB705:
 1629              	.LBI698:
  28:Src/Settings/serialItem.h **** 		if (value >= min_ && value <= max_) {
 1630              		.loc 7 28 14 view .LVU418
 1631              	.LBB704:
  29:Src/Settings/serialItem.h **** 			serial.write(mask_, ptr, value);
 1632              		.loc 7 29 3 view .LVU419
 1633 00fc 55F83460 		ldr	r6, [r5, r4, lsl #3]
 1634              	.LVL99:
  29:Src/Settings/serialItem.h **** 			serial.write(mask_, ptr, value);
 1635              		.loc 7 29 3 is_stmt 0 view .LVU420
 1636 0100 B242     		cmp	r2, r6
  29:Src/Settings/serialItem.h **** 			serial.write(mask_, ptr, value);
 1637              		.loc 7 29 16 view .LVU421
 1638 0102 05EBC405 		add	r5, r5, r4, lsl #3
  29:Src/Settings/serialItem.h **** 			serial.write(mask_, ptr, value);
 1639              		.loc 7 29 3 view .LVU422
 1640 0106 D2DB     		blt	.L28
  29:Src/Settings/serialItem.h **** 			serial.write(mask_, ptr, value);
 1641              		.loc 7 29 21 view .LVU423
 1642 0108 6F68     		ldr	r7, [r5, #4]
 1643              	.LVL100:
  29:Src/Settings/serialItem.h **** 			serial.write(mask_, ptr, value);
 1644              		.loc 7 29 21 view .LVU424
 1645 010a BA42     		cmp	r2, r7
 1646 010c CFDC     		bgt	.L28
 1647              	.LVL101:
 1648              	.LBB700:
 1649              	.LBI700:
  28:Src/Settings/serialItem.h **** 		if (value >= min_ && value <= max_) {
 1650              		.loc 7 28 14 is_stmt 1 view .LVU425
 1651              	.LBB701:
 1652              		.loc 7 30 4 view .LVU426
 1653              		.loc 7 30 16 is_stmt 0 view .LVU427
 1654 010e 2869     		ldr	r0, [r5, #16]
 1655              	.LVL102:
 1656              	.LBB702:
 1657              	.LBI702:
  22:Src/Settings/serial.h **** 		uint32_t data = ptr[mask.reg];
 1658              		.loc 8 22 14 is_stmt 1 view .LVU428
 1659              	.LBB703:
  23:Src/Settings/serial.h **** 		ptr[mask.reg] = (data & ~mask.value) | (value << mask.shifts);
 1660              		.loc 8 23 3 view .LVU429
  23:Src/Settings/serial.h **** 		ptr[mask.reg] = (data & ~mask.value) | (value << mask.shifts);
ARM GAS  /var/folders/84/_x1cyy_j36g486tldtwl37280000gn/T//cc257jte.s 			page 51


 1661              		.loc 8 23 31 is_stmt 0 view .LVU430
 1662 0110 90F800C0 		ldrb	ip, [r0]	@ zero_extendqisi2
 1663              	.LVL103:
 1664              		.loc 8 24 3 is_stmt 1 view .LVU431
 1665              		.loc 8 24 27 is_stmt 0 view .LVU432
 1666 0114 4468     		ldr	r4, [r0, #4]
 1667              		.loc 8 24 25 view .LVU433
 1668 0116 51F82C30 		ldr	r3, [r1, ip, lsl #2]
 1669              		.loc 8 24 57 view .LVU434
 1670 011a 8678     		ldrb	r6, [r0, #2]	@ zero_extendqisi2
 1671              		.loc 8 24 25 view .LVU435
 1672 011c 23EA0405 		bic	r5, r3, r4
 1673              		.loc 8 24 49 view .LVU436
 1674 0120 B240     		lsls	r2, r2, r6
 1675              	.LVL104:
 1676              		.loc 8 24 40 view .LVU437
 1677 0122 2A43     		orrs	r2, r2, r5
 1678              		.loc 8 24 17 view .LVU438
 1679 0124 41F82C20 		str	r2, [r1, ip, lsl #2]
 1680              	.LVL105:
 1681              		.loc 8 24 17 view .LVU439
 1682              	.LBE703:
 1683              	.LBE702:
 1684              	.LBE701:
 1685              	.LBE700:
 1686              	.LBE704:
 1687              	.LBE705:
 1688              	.LBE707:
 1689              	.LBE708:
 1690              	.LBE709:
 1691              		.loc 1 73 1 view .LVU440
 1692 0128 F0BD     		pop	{r4, r5, r6, r7, pc}
 1693              	.LVL106:
 1694              	.L33:
  61:Src/Settings/stepEditor.cpp **** 		track.chord.edit_step(pattern, step, ChordTrack::StepItem(item), inc, pressed);
 1695              		.loc 1 61 2 is_stmt 1 view .LVU441
  62:Src/Settings/stepEditor.cpp **** 		break;
 1696              		.loc 1 62 3 view .LVU442
 1697              	.LBB710:
 1698              	.LBI710:
 128:Src/Settings/chordTrack.h **** 		int value = read_step(pattern, step, item);
 1699              		.loc 11 128 7 view .LVU443
 1700              	.LBB711:
 129:Src/Settings/chordTrack.h **** 		int inc_ = step_item_[item].inc(enc_state, shifted);
 1701              		.loc 11 129 3 view .LVU444
 1702              	.LBB712:
 1703              	.LBI712:
 139:Src/Settings/chordTrack.h **** 		return step_item_[item].read(BaseTrack::pattern.step(pattern_index, step_index));
 1704              		.loc 11 139 6 view .LVU445
 1705              	.LBB713:
 140:Src/Settings/chordTrack.h **** 	}
 1706              		.loc 11 140 3 view .LVU446
 1707              	.LBB714:
 1708              	.LBB715:
 1709              		.loc 6 22 21 is_stmt 0 view .LVU447
 1710 012a 094F     		ldr	r7, .L63+24
 1711              	.LBE715:
ARM GAS  /var/folders/84/_x1cyy_j36g486tldtwl37280000gn/T//cc257jte.s 			page 52


 1712              	.LBE714:
 140:Src/Settings/chordTrack.h **** 	}
 1713              		.loc 11 140 31 view .LVU448
 1714 012c 094D     		ldr	r5, .L63+28
 1715 012e 84E7     		b	.L61
 1716              	.LVL107:
 1717              	.L32:
 140:Src/Settings/chordTrack.h **** 	}
 1718              		.loc 11 140 31 view .LVU449
 1719              	.LBE713:
 1720              	.LBE712:
 1721              	.LBE711:
 1722              	.LBE710:
  64:Src/Settings/stepEditor.cpp **** 		track.drum.edit_step(pattern, step, DrumTrack::StepItem(item), inc, pressed);
 1723              		.loc 1 64 2 is_stmt 1 view .LVU450
  65:Src/Settings/stepEditor.cpp **** 		break;
 1724              		.loc 1 65 3 view .LVU451
 1725              	.LBB716:
 1726              	.LBI625:
 104:Src/Settings/drumTrack.h **** 		int value = read_step(pattern, step, item);
 1727              		.loc 10 104 7 view .LVU452
 1728              	.LBB667:
 105:Src/Settings/drumTrack.h **** 		int inc_ = step_item_[item].inc(enc_state, shifted);
 1729              		.loc 10 105 3 view .LVU453
 1730              	.LBB665:
 1731              	.LBI627:
 115:Src/Settings/drumTrack.h **** 		return step_item_[item].read(BaseTrack::pattern.step(pattern_index, step_index));
 1732              		.loc 10 115 6 view .LVU454
 1733              	.LBB648:
 116:Src/Settings/drumTrack.h **** 	}
 1734              		.loc 10 116 3 view .LVU455
 1735              	.LBB646:
 1736              	.LBB639:
 1737              		.loc 6 22 21 is_stmt 0 view .LVU456
 1738 0130 094F     		ldr	r7, .L63+32
 1739              	.LBE639:
 1740              	.LBE646:
 116:Src/Settings/drumTrack.h **** 	}
 1741              		.loc 10 116 31 view .LVU457
 1742 0132 0A4D     		ldr	r5, .L63+36
 1743 0134 81E7     		b	.L61
 1744              	.L64:
 1745 0136 00BF     		.align	2
 1746              	.L63:
 1747 0138 00000000 		.word	settings
 1748 013c 9C000000 		.word	settings+156
 1749 0140 00000000 		.word	_ZN9NoteTrack10step_item_E
 1750 0144 00000000 		.word	_ZN9TrackData8pattern_E
 1751 0148 CC000000 		.word	settings+204
 1752 014c 00000000 		.word	_ZN10CurveTrack10step_item_E
 1753 0150 AC000000 		.word	settings+172
 1754 0154 00000000 		.word	_ZN10ChordTrack10step_item_E
 1755 0158 BC000000 		.word	settings+188
 1756 015c 00000000 		.word	_ZN9DrumTrack10step_item_E
 1757              	.LBE648:
 1758              	.LBE665:
 1759              	.LBE667:
ARM GAS  /var/folders/84/_x1cyy_j36g486tldtwl37280000gn/T//cc257jte.s 			page 53


 1760              	.LBE716:
 1761              		.cfi_endproc
 1762              	.LFE2867:
 1764              		.section	.text._ZN10StepEditor6toggleEi,"ax",%progbits
 1765              		.align	1
 1766              		.p2align 2,,3
 1767              		.global	_ZN10StepEditor6toggleEi
 1768              		.syntax unified
 1769              		.thumb
 1770              		.thumb_func
 1771              		.fpu fpv4-sp-d16
 1773              	_ZN10StepEditor6toggleEi:
 1774              	.LVL108:
 1775              	.LFB2868:
  74:Src/Settings/stepEditor.cpp **** 
  75:Src/Settings/stepEditor.cpp **** void StepEditor::toggle(int step) {
 1776              		.loc 1 75 35 is_stmt 1 view -0
 1777              		.cfi_startproc
 1778              		@ args = 0, pretend = 0, frame = 0
 1779              		@ frame_needed = 0, uses_anonymous_args = 0
  76:Src/Settings/stepEditor.cpp **** 	bool state;
 1780              		.loc 1 76 2 view .LVU459
  77:Src/Settings/stepEditor.cpp **** 	Track &track = settings.selected_track();
 1781              		.loc 1 77 2 view .LVU460
 1782              	.LBB808:
 1783              	.LBI808:
  86:Src/Settings/settings.h **** 		return song.track(selected_track_index_);
 1784              		.loc 2 86 9 view .LVU461
 1785              	.LBB809:
  87:Src/Settings/settings.h **** 	}
 1786              		.loc 2 87 3 view .LVU462
  87:Src/Settings/settings.h **** 	}
 1787              		.loc 2 87 3 is_stmt 0 view .LVU463
 1788              	.LBE809:
 1789              	.LBE808:
 1790              		.loc 3 19 3 is_stmt 1 view .LVU464
  78:Src/Settings/stepEditor.cpp **** 	int pattern = settings.selected_pattern();
 1791              		.loc 1 78 2 view .LVU465
 1792              	.LBB811:
 1793              	.LBI811:
 107:Src/Settings/settings.h **** 		return selected_pattern_;
 1794              		.loc 2 107 6 view .LVU466
 1795              	.LBB812:
 108:Src/Settings/settings.h **** 	}
 1796              		.loc 2 108 3 view .LVU467
 108:Src/Settings/settings.h **** 	}
 1797              		.loc 2 108 10 is_stmt 0 view .LVU468
 1798 0000 3D4A     		ldr	r2, .L81
 1799              	.LBE812:
 1800              	.LBE811:
 1801              	.LBB815:
 1802              	.LBB810:
  87:Src/Settings/settings.h **** 	}
 1803              		.loc 2 87 42 view .LVU469
 1804 0002 41F29473 		movw	r3, #6036
 1805              	.LBE810:
 1806              	.LBE815:
ARM GAS  /var/folders/84/_x1cyy_j36g486tldtwl37280000gn/T//cc257jte.s 			page 54


  75:Src/Settings/stepEditor.cpp **** 	bool state;
 1807              		.loc 1 75 35 view .LVU470
 1808 0006 2DE9F041 		push	{r4, r5, r6, r7, r8, lr}
 1809              		.cfi_def_cfa_offset 24
 1810              		.cfi_offset 4, -24
 1811              		.cfi_offset 5, -20
 1812              		.cfi_offset 6, -16
 1813              		.cfi_offset 7, -12
 1814              		.cfi_offset 8, -8
 1815              		.cfi_offset 14, -4
 1816 000a D558     		ldr	r5, [r2, r3]
 1817 000c 4FF4B870 		mov	r0, #368
 1818              	.LVL109:
  75:Src/Settings/stepEditor.cpp **** 	bool state;
 1819              		.loc 1 75 35 view .LVU471
 1820 0010 00FB05F5 		mul	r5, r0, r5
  79:Src/Settings/stepEditor.cpp **** 
  80:Src/Settings/stepEditor.cpp **** 	switch (track.type())
 1821              		.loc 1 80 20 view .LVU472
 1822 0014 5619     		adds	r6, r2, r5
 1823              	.LBB816:
 1824              	.LBB813:
 108:Src/Settings/settings.h **** 	}
 1825              		.loc 2 108 10 view .LVU473
 1826 0016 41F29874 		movw	r4, #6040
 1827              	.LBE813:
 1828              	.LBE816:
 1829              	.LBB817:
 1830              	.LBB818:
 1831              		.loc 4 72 17 view .LVU474
 1832 001a D6F89070 		ldr	r7, [r6, #144]
 1833              	.LBE818:
 1834              	.LBE817:
 1835              	.LBB820:
 1836              	.LBB814:
 108:Src/Settings/settings.h **** 	}
 1837              		.loc 2 108 10 view .LVU475
 1838 001e 52F804E0 		ldr	lr, [r2, r4]
 1839              	.LVL110:
 108:Src/Settings/settings.h **** 	}
 1840              		.loc 2 108 10 view .LVU476
 1841              	.LBE814:
 1842              	.LBE820:
 1843              		.loc 1 80 2 is_stmt 1 view .LVU477
 1844              	.LBB821:
 1845              	.LBI817:
  71:Src/Settings/baseTrack.h **** 		return data_->type_;
 1846              		.loc 4 71 10 view .LVU478
 1847              	.LBB819:
 1848              		.loc 4 72 3 view .LVU479
 1849 0022 97F80080 		ldrb	r8, [r7]	@ zero_extendqisi2
 1850 0026 B8F1030F 		cmp	r8, #3
 1851 002a 2ED8     		bhi	.L65
 1852 002c DFE808F0 		tbb	[pc, r8]
 1853              	.L68:
 1854 0030 02       		.byte	(.L71-.L68)/2
 1855 0031 5D       		.byte	(.L70-.L68)/2
ARM GAS  /var/folders/84/_x1cyy_j36g486tldtwl37280000gn/T//cc257jte.s 			page 55


 1856 0032 60       		.byte	(.L69-.L68)/2
 1857 0033 2F       		.byte	(.L67-.L68)/2
 1858              		.p2align 1
 1859              	.L71:
 1860              	.LBE819:
 1861              	.LBE821:
  81:Src/Settings/stepEditor.cpp **** 	{
  82:Src/Settings/stepEditor.cpp **** 	case Track::NOTE_TRACK:
 1862              		.loc 1 82 2 view .LVU480
  83:Src/Settings/stepEditor.cpp **** 		state = track.note.read_step(pattern, step, NoteTrack::TRIGGER);
 1863              		.loc 1 83 3 view .LVU481
 1864              	.LVL111:
 1865              	.LBB822:
 1866              	.LBI822:
 123:Src/Settings/noteTrack.h **** 		return step_item_[item].read(BaseTrack::pattern.step(pattern_index, step_index));
 1867              		.loc 9 123 6 view .LVU482
 1868              	.LBB823:
 124:Src/Settings/noteTrack.h **** 	}
 1869              		.loc 9 124 3 view .LVU483
 1870              	.LBB824:
 1871              	.LBI824:
  21:Src/Settings/pattern.h **** 		return &data(index).step_[step_index].serial_[0];
 1872              		.loc 6 21 22 view .LVU484
 1873              	.LBB825:
 1874              		.loc 6 22 3 view .LVU485
 1875              	.LBB826:
 1876              	.LBI826:
  17:Src/Settings/pattern.h **** 		return TrackData::pattern_[list_->entry_[index]];
 1877              		.loc 6 17 32 view .LVU486
 1878              	.LBB827:
  18:Src/Settings/pattern.h **** 	}
 1879              		.loc 6 18 3 view .LVU487
  18:Src/Settings/pattern.h **** 	}
 1880              		.loc 6 18 3 is_stmt 0 view .LVU488
 1881              	.LBE827:
 1882              	.LBE826:
 1883              		.loc 6 22 21 view .LVU489
 1884 0034 3148     		ldr	r0, .L81+4
 1885              	.LBE825:
 1886              	.LBE824:
 124:Src/Settings/noteTrack.h **** 	}
 1887              		.loc 9 124 31 view .LVU490
 1888 0036 324C     		ldr	r4, .L81+8
 1889              	.LVL112:
 1890              	.L79:
 124:Src/Settings/noteTrack.h **** 	}
 1891              		.loc 9 124 31 view .LVU491
 1892              	.LBE823:
 1893              	.LBE822:
 1894              	.LBB828:
 1895              	.LBB829:
 1896              	.LBB830:
 1897              	.LBB831:
 1898              	.LBB832:
 1899              	.LBB833:
  18:Src/Settings/pattern.h **** 	}
 1900              		.loc 6 18 49 view .LVU492
ARM GAS  /var/folders/84/_x1cyy_j36g486tldtwl37280000gn/T//cc257jte.s 			page 56


 1901 0038 2B58     		ldr	r3, [r5, r0]
 1902              	.LBE833:
 1903              	.LBE832:
 1904              	.LBE831:
 1905              	.LBE830:
 116:Src/Settings/drumTrack.h **** 	}
 1906              		.loc 10 116 31 view .LVU493
 1907 003a 2269     		ldr	r2, [r4, #16]
 1908              	.LVL113:
 1909              	.LBB840:
 1910              	.LBI840:
  24:Src/Settings/serialItem.h **** 		return serial.read(mask_, ptr);
 1911              		.loc 7 24 13 is_stmt 1 view .LVU494
  24:Src/Settings/serialItem.h **** 		return serial.read(mask_, ptr);
 1912              		.loc 7 24 13 is_stmt 0 view .LVU495
 1913              	.LBE840:
 1914              	.LBE829:
 1915              	.LBE828:
  25:Src/Settings/serialItem.h **** 	}
 1916              		.loc 7 25 3 is_stmt 1 view .LVU496
 1917              	.LBB856:
 1918              	.LBB852:
 1919              	.LBB847:
 1920              	.LBB841:
 1921              	.LBI841:
  17:Src/Settings/serial.h **** 		uint32_t data = ptr[mask.reg];
 1922              		.loc 8 17 18 view .LVU497
 1923              	.LBB842:
  18:Src/Settings/serial.h **** 		return (data & mask.value) >> mask.shifts;
 1924              		.loc 8 18 3 view .LVU498
  18:Src/Settings/serial.h **** 		return (data & mask.value) >> mask.shifts;
 1925              		.loc 8 18 31 is_stmt 0 view .LVU499
 1926 003c 314D     		ldr	r5, .L81+12
 1927              	.LVL114:
  18:Src/Settings/serial.h **** 		return (data & mask.value) >> mask.shifts;
 1928              		.loc 8 18 31 view .LVU500
 1929 003e 92F80080 		ldrb	r8, [r2]	@ zero_extendqisi2
  19:Src/Settings/serial.h **** 	}
 1930              		.loc 8 19 23 view .LVU501
 1931 0042 5668     		ldr	r6, [r2, #4]
  19:Src/Settings/serial.h **** 	}
 1932              		.loc 8 19 38 view .LVU502
 1933 0044 92F802C0 		ldrb	ip, [r2, #2]	@ zero_extendqisi2
 1934              	.LBE842:
 1935              	.LBE841:
 1936              	.LBE847:
 1937              	.LBE852:
 1938              	.LBE856:
 1939              	.LBB857:
 1940              	.LBB858:
 1941              	.LBB859:
  29:Src/Settings/serialItem.h **** 			serial.write(mask_, ptr, value);
 1942              		.loc 7 29 3 view .LVU503
 1943 0048 2768     		ldr	r7, [r4]
 1944              	.LBE859:
 1945              	.LBE858:
 1946              	.LBE857:
ARM GAS  /var/folders/84/_x1cyy_j36g486tldtwl37280000gn/T//cc257jte.s 			page 57


 1947              	.LBB866:
 1948              	.LBB853:
 1949              	.LBB848:
 1950              	.LBB838:
 1951              	.LBB836:
 1952              	.LBB834:
  18:Src/Settings/pattern.h **** 	}
 1953              		.loc 6 18 49 view .LVU504
 1954 004a 5FFA8EF0 		uxtb	r0, lr
 1955              	.LBE834:
 1956              	.LBE836:
 1957              	.LBE838:
 1958              	.LBE848:
 1959              	.LBB849:
 1960              	.LBB845:
 1961              	.LBB843:
  18:Src/Settings/serial.h **** 		return (data & mask.value) >> mask.shifts;
 1962              		.loc 8 18 31 view .LVU505
 1963 004e C9B2     		uxtb	r1, r1
 1964              	.LVL115:
  18:Src/Settings/serial.h **** 		return (data & mask.value) >> mask.shifts;
 1965              		.loc 8 18 31 view .LVU506
 1966 0050 1A5C     		ldrb	r2, [r3, r0]	@ zero_extendqisi2
 1967              	.LVL116:
  18:Src/Settings/serial.h **** 		return (data & mask.value) >> mask.shifts;
 1968              		.loc 8 18 31 view .LVU507
 1969 0052 0131     		adds	r1, r1, #1
 1970 0054 1723     		movs	r3, #23
 1971 0056 13FB0210 		smlabb	r0, r3, r2, r1
 1972 005a C100     		lsls	r1, r0, #3
 1973 005c 01EB8808 		add	r8, r1, r8, lsl #2
  18:Src/Settings/serial.h **** 		return (data & mask.value) >> mask.shifts;
 1974              		.loc 8 18 12 view .LVU508
 1975 0060 58F80520 		ldr	r2, [r8, r5]
 1976              	.LVL117:
  19:Src/Settings/serial.h **** 	}
 1977              		.loc 8 19 3 is_stmt 1 view .LVU509
  19:Src/Settings/serial.h **** 	}
 1978              		.loc 8 19 3 is_stmt 0 view .LVU510
 1979              	.LBE843:
 1980              	.LBE845:
 1981              	.LBE849:
 1982              	.LBE853:
 1983              	.LBE866:
  84:Src/Settings/stepEditor.cpp **** 		track.note.write_step(pattern, step, NoteTrack::TRIGGER, !state);
  85:Src/Settings/stepEditor.cpp **** 		break;
  86:Src/Settings/stepEditor.cpp **** 	case Track::CHORD_TRACK:
  87:Src/Settings/stepEditor.cpp **** 		state = track.chord.read_step(pattern, step, ChordTrack::TRIGGER);
  88:Src/Settings/stepEditor.cpp **** 		track.chord.write_step(pattern, step, ChordTrack::TRIGGER, !state);
  89:Src/Settings/stepEditor.cpp **** 		break;
  90:Src/Settings/stepEditor.cpp **** 	case Track::DRUM_TRACK:
  91:Src/Settings/stepEditor.cpp **** 		state = track.drum.read_step(pattern, step, DrumTrack::TRIGGER);
  92:Src/Settings/stepEditor.cpp **** 		track.drum.write_step(pattern, step, DrumTrack::TRIGGER, !state);
 1984              		.loc 1 92 3 is_stmt 1 view .LVU511
 1985              	.LBB867:
 1986              	.LBB854:
 1987              	.LBB850:
ARM GAS  /var/folders/84/_x1cyy_j36g486tldtwl37280000gn/T//cc257jte.s 			page 58


 1988              	.LBB846:
 1989              	.LBB844:
  19:Src/Settings/serial.h **** 	}
 1990              		.loc 8 19 16 is_stmt 0 view .LVU512
 1991 0064 02EA0603 		and	r3, r2, r6
 1992              	.LBE844:
 1993              	.LBE846:
 1994              	.LBE850:
 1995              	.LBE854:
 1996              	.LBE867:
 1997              		.loc 1 92 60 view .LVU513
 1998 0068 33FA0CF1 		lsrs	r1, r3, ip
 1999 006c 0CBF     		ite	eq
 2000 006e 0121     		moveq	r1, #1
 2001 0070 0021     		movne	r1, #0
 2002              	.LVL118:
 2003              	.LBB868:
 2004              	.LBI857:
 141:Src/Settings/drumTrack.h **** 		step_item_[item].write(BaseTrack::pattern.step(pattern_index, step_index), value);
 2005              		.loc 10 141 7 is_stmt 1 view .LVU514
 2006              	.LBE868:
 2007              		.loc 10 142 3 view .LVU515
 2008              		.loc 6 22 3 view .LVU516
  18:Src/Settings/pattern.h **** 	}
 2009              		.loc 6 18 3 view .LVU517
 2010              	.LBB869:
 2011              	.LBB865:
 2012              	.LBI858:
  28:Src/Settings/serialItem.h **** 		if (value >= min_ && value <= max_) {
 2013              		.loc 7 28 14 view .LVU518
 2014              	.LBB864:
  29:Src/Settings/serialItem.h **** 			serial.write(mask_, ptr, value);
 2015              		.loc 7 29 3 view .LVU519
 2016 0072 B942     		cmp	r1, r7
 2017 0074 09DB     		blt	.L65
  29:Src/Settings/serialItem.h **** 			serial.write(mask_, ptr, value);
 2018              		.loc 7 29 21 is_stmt 0 view .LVU520
 2019 0076 6468     		ldr	r4, [r4, #4]
 2020 0078 A142     		cmp	r1, r4
 2021 007a 06DC     		bgt	.L65
 2022              	.LVL119:
 2023              	.LBB860:
 2024              	.LBI860:
  28:Src/Settings/serialItem.h **** 		if (value >= min_ && value <= max_) {
 2025              		.loc 7 28 14 is_stmt 1 view .LVU521
 2026              	.LBB861:
 2027              		.loc 7 30 4 view .LVU522
 2028              	.LBB862:
 2029              	.LBI862:
  22:Src/Settings/serial.h **** 		uint32_t data = ptr[mask.reg];
 2030              		.loc 8 22 14 view .LVU523
 2031              	.LBB863:
  23:Src/Settings/serial.h **** 		ptr[mask.reg] = (data & ~mask.value) | (value << mask.shifts);
 2032              		.loc 8 23 3 view .LVU524
 2033              		.loc 8 24 3 view .LVU525
 2034              		.loc 8 24 25 is_stmt 0 view .LVU526
 2035 007c 22EA0606 		bic	r6, r2, r6
ARM GAS  /var/folders/84/_x1cyy_j36g486tldtwl37280000gn/T//cc257jte.s 			page 59


 2036              	.LVL120:
 2037              		.loc 8 24 49 view .LVU527
 2038 0080 01FA0CF7 		lsl	r7, r1, ip
 2039              		.loc 8 24 40 view .LVU528
 2040 0084 3E43     		orrs	r6, r6, r7
 2041              		.loc 8 24 17 view .LVU529
 2042 0086 48F80560 		str	r6, [r8, r5]
 2043              	.LVL121:
 2044              	.L65:
 2045              		.loc 8 24 17 view .LVU530
 2046              	.LBE863:
 2047              	.LBE862:
 2048              	.LBE861:
 2049              	.LBE860:
 2050              	.LBE864:
 2051              	.LBE865:
 2052              	.LBE869:
  93:Src/Settings/stepEditor.cpp **** 		break;
  94:Src/Settings/stepEditor.cpp **** 	case Track::CURVE_TRACK:
  95:Src/Settings/stepEditor.cpp **** 		state = track.curve.read_step(pattern, step, CurveTrack::TRIGGER);
  96:Src/Settings/stepEditor.cpp **** 		track.curve.write_step(pattern, step, CurveTrack::TRIGGER, !state);
  97:Src/Settings/stepEditor.cpp **** 		break;
  98:Src/Settings/stepEditor.cpp **** 	default:
  99:Src/Settings/stepEditor.cpp **** 		break;
 100:Src/Settings/stepEditor.cpp **** 	}
 101:Src/Settings/stepEditor.cpp **** }
 2053              		.loc 1 101 1 view .LVU531
 2054 008a BDE8F081 		pop	{r4, r5, r6, r7, r8, pc}
 2055              	.LVL122:
 2056              	.L67:
  94:Src/Settings/stepEditor.cpp **** 		state = track.curve.read_step(pattern, step, CurveTrack::TRIGGER);
 2057              		.loc 1 94 2 is_stmt 1 view .LVU532
  95:Src/Settings/stepEditor.cpp **** 		track.curve.write_step(pattern, step, CurveTrack::TRIGGER, !state);
 2058              		.loc 1 95 3 view .LVU533
 2059              	.LBB870:
 2060              	.LBI870:
 110:Src/Settings/curveTrack.h **** 		return step_item_[item].read(BaseTrack::pattern.step(pattern_index, step_index));
 2061              		.loc 5 110 6 view .LVU534
 2062              	.LBB871:
 111:Src/Settings/curveTrack.h **** 	}
 2063              		.loc 5 111 3 view .LVU535
 2064              	.LBB872:
 2065              	.LBI872:
  21:Src/Settings/pattern.h **** 		return &data(index).step_[step_index].serial_[0];
 2066              		.loc 6 21 22 view .LVU536
 2067              	.LBB873:
 2068              		.loc 6 22 3 view .LVU537
 2069              	.LBB874:
 2070              	.LBI874:
  17:Src/Settings/pattern.h **** 		return TrackData::pattern_[list_->entry_[index]];
 2071              		.loc 6 17 32 view .LVU538
 2072              	.LBB875:
  18:Src/Settings/pattern.h **** 	}
 2073              		.loc 6 18 3 view .LVU539
  18:Src/Settings/pattern.h **** 	}
 2074              		.loc 6 18 3 is_stmt 0 view .LVU540
 2075              	.LBE875:
ARM GAS  /var/folders/84/_x1cyy_j36g486tldtwl37280000gn/T//cc257jte.s 			page 60


 2076              	.LBE874:
 2077              		.loc 6 22 21 view .LVU541
 2078 008e 1E4A     		ldr	r2, .L81+16
 2079              	.LBE873:
 2080              	.LBE872:
 111:Src/Settings/curveTrack.h **** 	}
 2081              		.loc 5 111 31 view .LVU542
 2082 0090 1E4C     		ldr	r4, .L81+20
 2083              	.LBB882:
 2084              	.LBB880:
 2085              	.LBB878:
 2086              	.LBB876:
  18:Src/Settings/pattern.h **** 	}
 2087              		.loc 6 18 49 view .LVU543
 2088 0092 55F80280 		ldr	r8, [r5, r2]
 2089              	.LBE876:
 2090              	.LBE878:
 2091              	.LBE880:
 2092              	.LBE882:
 111:Src/Settings/curveTrack.h **** 	}
 2093              		.loc 5 111 31 view .LVU544
 2094 0096 2369     		ldr	r3, [r4, #16]
 2095              	.LVL123:
 2096              	.LBB883:
 2097              	.LBI883:
  24:Src/Settings/serialItem.h **** 		return serial.read(mask_, ptr);
 2098              		.loc 7 24 13 is_stmt 1 view .LVU545
  24:Src/Settings/serialItem.h **** 		return serial.read(mask_, ptr);
 2099              		.loc 7 24 13 is_stmt 0 view .LVU546
 2100              	.LBE883:
 2101              	.LBE871:
 2102              	.LBE870:
  25:Src/Settings/serialItem.h **** 	}
 2103              		.loc 7 25 3 is_stmt 1 view .LVU547
 2104              	.LBB897:
 2105              	.LBB894:
 2106              	.LBB890:
 2107              	.LBB884:
 2108              	.LBI884:
  17:Src/Settings/serial.h **** 		uint32_t data = ptr[mask.reg];
 2109              		.loc 8 17 18 view .LVU548
 2110              	.LBB885:
  18:Src/Settings/serial.h **** 		return (data & mask.value) >> mask.shifts;
 2111              		.loc 8 18 3 view .LVU549
  18:Src/Settings/serial.h **** 		return (data & mask.value) >> mask.shifts;
 2112              		.loc 8 18 31 is_stmt 0 view .LVU550
 2113 0098 1A4D     		ldr	r5, .L81+12
 2114              	.LVL124:
  18:Src/Settings/serial.h **** 		return (data & mask.value) >> mask.shifts;
 2115              		.loc 8 18 31 view .LVU551
 2116 009a 93F800C0 		ldrb	ip, [r3]	@ zero_extendqisi2
  19:Src/Settings/serial.h **** 	}
 2117              		.loc 8 19 23 view .LVU552
 2118 009e 5F68     		ldr	r7, [r3, #4]
  19:Src/Settings/serial.h **** 	}
 2119              		.loc 8 19 38 view .LVU553
 2120 00a0 9E78     		ldrb	r6, [r3, #2]	@ zero_extendqisi2
ARM GAS  /var/folders/84/_x1cyy_j36g486tldtwl37280000gn/T//cc257jte.s 			page 61


 2121              	.LBE885:
 2122              	.LBE884:
 2123              	.LBE890:
 2124              	.LBE894:
 2125              	.LBE897:
 2126              	.LBB898:
 2127              	.LBB899:
 2128              	.LBB900:
  29:Src/Settings/serialItem.h **** 			serial.write(mask_, ptr, value);
 2129              		.loc 7 29 3 view .LVU554
 2130 00a2 2068     		ldr	r0, [r4]
 2131              	.LBE900:
 2132              	.LBE899:
 2133              	.LBE898:
 2134              	.LBB907:
 2135              	.LBB895:
 2136              	.LBB891:
 2137              	.LBB881:
 2138              	.LBB879:
 2139              	.LBB877:
  18:Src/Settings/pattern.h **** 	}
 2140              		.loc 6 18 49 view .LVU555
 2141 00a4 5FFA8EF2 		uxtb	r2, lr
 2142              	.LBE877:
 2143              	.LBE879:
 2144              	.LBE881:
 2145              	.LBE891:
 2146              	.LBB892:
 2147              	.LBB888:
 2148              	.LBB886:
  18:Src/Settings/serial.h **** 		return (data & mask.value) >> mask.shifts;
 2149              		.loc 8 18 31 view .LVU556
 2150 00a8 CBB2     		uxtb	r3, r1
 2151              	.LVL125:
  18:Src/Settings/serial.h **** 		return (data & mask.value) >> mask.shifts;
 2152              		.loc 8 18 31 view .LVU557
 2153 00aa 18F80210 		ldrb	r1, [r8, r2]	@ zero_extendqisi2
 2154              	.LVL126:
  18:Src/Settings/serial.h **** 		return (data & mask.value) >> mask.shifts;
 2155              		.loc 8 18 31 view .LVU558
 2156 00ae 0133     		adds	r3, r3, #1
 2157 00b0 4FF01708 		mov	r8, #23
 2158 00b4 18FB0132 		smlabb	r2, r8, r1, r3
 2159 00b8 D300     		lsls	r3, r2, #3
 2160 00ba 03EB8C0C 		add	ip, r3, ip, lsl #2
  18:Src/Settings/serial.h **** 		return (data & mask.value) >> mask.shifts;
 2161              		.loc 8 18 12 view .LVU559
 2162 00be 5CF80520 		ldr	r2, [ip, r5]
 2163              	.LVL127:
  19:Src/Settings/serial.h **** 	}
 2164              		.loc 8 19 3 is_stmt 1 view .LVU560
  19:Src/Settings/serial.h **** 	}
 2165              		.loc 8 19 3 is_stmt 0 view .LVU561
 2166              	.LBE886:
 2167              	.LBE888:
 2168              	.LBE892:
 2169              	.LBE895:
ARM GAS  /var/folders/84/_x1cyy_j36g486tldtwl37280000gn/T//cc257jte.s 			page 62


 2170              	.LBE907:
  96:Src/Settings/stepEditor.cpp **** 		break;
 2171              		.loc 1 96 3 is_stmt 1 view .LVU562
 2172              	.LBB908:
 2173              	.LBB896:
 2174              	.LBB893:
 2175              	.LBB889:
 2176              	.LBB887:
  19:Src/Settings/serial.h **** 	}
 2177              		.loc 8 19 16 is_stmt 0 view .LVU563
 2178 00c2 02EA0701 		and	r1, r2, r7
 2179              	.LBE887:
 2180              	.LBE889:
 2181              	.LBE893:
 2182              	.LBE896:
 2183              	.LBE908:
  96:Src/Settings/stepEditor.cpp **** 		break;
 2184              		.loc 1 96 62 view .LVU564
 2185 00c6 31FA06F3 		lsrs	r3, r1, r6
 2186 00ca 0CBF     		ite	eq
 2187 00cc 0123     		moveq	r3, #1
 2188 00ce 0023     		movne	r3, #0
 2189              	.LVL128:
 2190              	.LBB909:
 2191              	.LBI898:
 136:Src/Settings/curveTrack.h **** 		step_item_[item].write(BaseTrack::pattern.step(pattern_index, step_index), value);
 2192              		.loc 5 136 7 is_stmt 1 view .LVU565
 2193              	.LBE909:
 2194              		.loc 5 137 3 view .LVU566
 2195              		.loc 6 22 3 view .LVU567
  18:Src/Settings/pattern.h **** 	}
 2196              		.loc 6 18 3 view .LVU568
 2197              	.LBB910:
 2198              	.LBB906:
 2199              	.LBI899:
  28:Src/Settings/serialItem.h **** 		if (value >= min_ && value <= max_) {
 2200              		.loc 7 28 14 view .LVU569
 2201              	.LBB905:
  29:Src/Settings/serialItem.h **** 			serial.write(mask_, ptr, value);
 2202              		.loc 7 29 3 view .LVU570
 2203 00d0 8342     		cmp	r3, r0
 2204 00d2 DADB     		blt	.L65
  29:Src/Settings/serialItem.h **** 			serial.write(mask_, ptr, value);
 2205              		.loc 7 29 21 is_stmt 0 view .LVU571
 2206 00d4 6468     		ldr	r4, [r4, #4]
 2207 00d6 A342     		cmp	r3, r4
 2208 00d8 D7DC     		bgt	.L65
 2209              	.LVL129:
 2210              	.LBB901:
 2211              	.LBI901:
  28:Src/Settings/serialItem.h **** 		if (value >= min_ && value <= max_) {
 2212              		.loc 7 28 14 is_stmt 1 view .LVU572
 2213              	.LBB902:
 2214              		.loc 7 30 4 view .LVU573
 2215              	.LBB903:
 2216              	.LBI903:
  22:Src/Settings/serial.h **** 		uint32_t data = ptr[mask.reg];
ARM GAS  /var/folders/84/_x1cyy_j36g486tldtwl37280000gn/T//cc257jte.s 			page 63


 2217              		.loc 8 22 14 view .LVU574
 2218              	.LBB904:
  23:Src/Settings/serial.h **** 		ptr[mask.reg] = (data & ~mask.value) | (value << mask.shifts);
 2219              		.loc 8 23 3 view .LVU575
 2220              		.loc 8 24 3 view .LVU576
 2221              		.loc 8 24 25 is_stmt 0 view .LVU577
 2222 00da 22EA0707 		bic	r7, r2, r7
 2223              	.LVL130:
 2224              		.loc 8 24 49 view .LVU578
 2225 00de 03FA06F6 		lsl	r6, r3, r6
 2226              	.LVL131:
 2227              		.loc 8 24 40 view .LVU579
 2228 00e2 3743     		orrs	r7, r7, r6
 2229              		.loc 8 24 17 view .LVU580
 2230 00e4 4CF80570 		str	r7, [ip, r5]
 2231              	.LVL132:
 2232              		.loc 8 24 17 view .LVU581
 2233              	.LBE904:
 2234              	.LBE903:
 2235              	.LBE902:
 2236              	.LBE901:
 2237              	.LBE905:
 2238              	.LBE906:
 2239              	.LBE910:
 2240              		.loc 1 101 1 view .LVU582
 2241 00e8 CFE7     		b	.L65
 2242              	.LVL133:
 2243              	.L70:
  86:Src/Settings/stepEditor.cpp **** 		state = track.chord.read_step(pattern, step, ChordTrack::TRIGGER);
 2244              		.loc 1 86 2 is_stmt 1 view .LVU583
  87:Src/Settings/stepEditor.cpp **** 		track.chord.write_step(pattern, step, ChordTrack::TRIGGER, !state);
 2245              		.loc 1 87 3 view .LVU584
 2246              	.LBB911:
 2247              	.LBI911:
 139:Src/Settings/chordTrack.h **** 		return step_item_[item].read(BaseTrack::pattern.step(pattern_index, step_index));
 2248              		.loc 11 139 6 view .LVU585
 2249              	.LBB912:
 140:Src/Settings/chordTrack.h **** 	}
 2250              		.loc 11 140 3 view .LVU586
 2251              	.LBB913:
 2252              	.LBI913:
  21:Src/Settings/pattern.h **** 		return &data(index).step_[step_index].serial_[0];
 2253              		.loc 6 21 22 view .LVU587
 2254              	.LBB914:
 2255              		.loc 6 22 3 view .LVU588
 2256              	.LBB915:
 2257              	.LBI915:
  17:Src/Settings/pattern.h **** 		return TrackData::pattern_[list_->entry_[index]];
 2258              		.loc 6 17 32 view .LVU589
 2259              	.LBB916:
  18:Src/Settings/pattern.h **** 	}
 2260              		.loc 6 18 3 view .LVU590
  18:Src/Settings/pattern.h **** 	}
 2261              		.loc 6 18 3 is_stmt 0 view .LVU591
 2262              	.LBE916:
 2263              	.LBE915:
 2264              		.loc 6 22 21 view .LVU592
ARM GAS  /var/folders/84/_x1cyy_j36g486tldtwl37280000gn/T//cc257jte.s 			page 64


 2265 00ea 0948     		ldr	r0, .L81+24
 2266              	.LBE914:
 2267              	.LBE913:
 140:Src/Settings/chordTrack.h **** 	}
 2268              		.loc 11 140 31 view .LVU593
 2269 00ec 094C     		ldr	r4, .L81+28
 2270 00ee A3E7     		b	.L79
 2271              	.LVL134:
 2272              	.L69:
 140:Src/Settings/chordTrack.h **** 	}
 2273              		.loc 11 140 31 view .LVU594
 2274              	.LBE912:
 2275              	.LBE911:
  90:Src/Settings/stepEditor.cpp **** 		state = track.drum.read_step(pattern, step, DrumTrack::TRIGGER);
 2276              		.loc 1 90 2 is_stmt 1 view .LVU595
  91:Src/Settings/stepEditor.cpp **** 		track.drum.write_step(pattern, step, DrumTrack::TRIGGER, !state);
 2277              		.loc 1 91 3 view .LVU596
 2278              	.LBB917:
 2279              	.LBI828:
 115:Src/Settings/drumTrack.h **** 		return step_item_[item].read(BaseTrack::pattern.step(pattern_index, step_index));
 2280              		.loc 10 115 6 view .LVU597
 2281              	.LBB855:
 116:Src/Settings/drumTrack.h **** 	}
 2282              		.loc 10 116 3 view .LVU598
 2283              	.LBB851:
 2284              	.LBI830:
  21:Src/Settings/pattern.h **** 		return &data(index).step_[step_index].serial_[0];
 2285              		.loc 6 21 22 view .LVU599
 2286              	.LBB839:
 2287              		.loc 6 22 3 view .LVU600
 2288              	.LBB837:
 2289              	.LBI832:
  17:Src/Settings/pattern.h **** 		return TrackData::pattern_[list_->entry_[index]];
 2290              		.loc 6 17 32 view .LVU601
 2291              	.LBB835:
  18:Src/Settings/pattern.h **** 	}
 2292              		.loc 6 18 3 view .LVU602
  18:Src/Settings/pattern.h **** 	}
 2293              		.loc 6 18 3 is_stmt 0 view .LVU603
 2294              	.LBE835:
 2295              	.LBE837:
 2296              		.loc 6 22 21 view .LVU604
 2297 00f0 0948     		ldr	r0, .L81+32
 2298              	.LBE839:
 2299              	.LBE851:
 116:Src/Settings/drumTrack.h **** 	}
 2300              		.loc 10 116 31 view .LVU605
 2301 00f2 0A4C     		ldr	r4, .L81+36
 2302 00f4 A0E7     		b	.L79
 2303              	.L82:
 2304 00f6 00BF     		.align	2
 2305              	.L81:
 2306 00f8 00000000 		.word	settings
 2307 00fc 9C000000 		.word	settings+156
 2308 0100 00000000 		.word	_ZN9NoteTrack10step_item_E
 2309 0104 00000000 		.word	_ZN9TrackData8pattern_E
 2310 0108 CC000000 		.word	settings+204
ARM GAS  /var/folders/84/_x1cyy_j36g486tldtwl37280000gn/T//cc257jte.s 			page 65


 2311 010c 00000000 		.word	_ZN10CurveTrack10step_item_E
 2312 0110 AC000000 		.word	settings+172
 2313 0114 00000000 		.word	_ZN10ChordTrack10step_item_E
 2314 0118 BC000000 		.word	settings+188
 2315 011c 00000000 		.word	_ZN9DrumTrack10step_item_E
 2316              	.LBE855:
 2317              	.LBE917:
 2318              		.cfi_endproc
 2319              	.LFE2868:
 2321              		.text
 2322              	.Letext0:
 2323              		.file 12 "/usr/local/Caskroom/gcc-arm-embedded/9-2019-q4-major/gcc-arm-none-eabi-9-2019-q4-major/a
 2324              		.file 13 "/usr/local/Caskroom/gcc-arm-embedded/9-2019-q4-major/gcc-arm-none-eabi-9-2019-q4-major/a
 2325              		.file 14 "/usr/local/Caskroom/gcc-arm-embedded/9-2019-q4-major/gcc-arm-none-eabi-9-2019-q4-major/a
 2326              		.file 15 "/Users/joostbooy/STM32Cube/Repository/STM32Cube_FW_F4_V1.26.1/Drivers/CMSIS/Include/core
 2327              		.file 16 "/Users/joostbooy/STM32Cube/Repository/STM32Cube_FW_F4_V1.26.1/Drivers/CMSIS/Device/ST/ST
 2328              		.file 17 "/usr/local/Caskroom/gcc-arm-embedded/9-2019-q4-major/gcc-arm-none-eabi-9-2019-q4-major/l
 2329              		.file 18 "/Users/joostbooy/STM32Cube/Repository/STM32Cube_FW_F4_V1.26.1/Drivers/STM32F4xx_HAL_Driv
 2330              		.file 19 "/usr/local/Caskroom/gcc-arm-embedded/9-2019-q4-major/gcc-arm-none-eabi-9-2019-q4-major/a
 2331              		.file 20 "/usr/local/Caskroom/gcc-arm-embedded/9-2019-q4-major/gcc-arm-none-eabi-9-2019-q4-major/a
 2332              		.file 21 "/usr/local/Caskroom/gcc-arm-embedded/9-2019-q4-major/gcc-arm-none-eabi-9-2019-q4-major/a
 2333              		.file 22 "/usr/local/Caskroom/gcc-arm-embedded/9-2019-q4-major/gcc-arm-none-eabi-9-2019-q4-major/a
 2334              		.file 23 "/usr/local/Caskroom/gcc-arm-embedded/9-2019-q4-major/gcc-arm-none-eabi-9-2019-q4-major/a
 2335              		.file 24 "/usr/local/Caskroom/gcc-arm-embedded/9-2019-q4-major/gcc-arm-none-eabi-9-2019-q4-major/a
 2336              		.file 25 "/usr/local/Caskroom/gcc-arm-embedded/9-2019-q4-major/gcc-arm-none-eabi-9-2019-q4-major/a
 2337              		.file 26 "/usr/local/Caskroom/gcc-arm-embedded/9-2019-q4-major/gcc-arm-none-eabi-9-2019-q4-major/a
 2338              		.file 27 "/usr/local/Caskroom/gcc-arm-embedded/9-2019-q4-major/gcc-arm-none-eabi-9-2019-q4-major/a
 2339              		.file 28 "/usr/local/Caskroom/gcc-arm-embedded/9-2019-q4-major/gcc-arm-none-eabi-9-2019-q4-major/a
 2340              		.file 29 "/usr/local/Caskroom/gcc-arm-embedded/9-2019-q4-major/gcc-arm-none-eabi-9-2019-q4-major/a
 2341              		.file 30 "/usr/local/Caskroom/gcc-arm-embedded/9-2019-q4-major/gcc-arm-none-eabi-9-2019-q4-major/a
 2342              		.file 31 "/usr/local/Caskroom/gcc-arm-embedded/9-2019-q4-major/gcc-arm-none-eabi-9-2019-q4-major/a
 2343              		.file 32 "/usr/local/Caskroom/gcc-arm-embedded/9-2019-q4-major/gcc-arm-none-eabi-9-2019-q4-major/a
 2344              		.file 33 "/usr/local/Caskroom/gcc-arm-embedded/9-2019-q4-major/gcc-arm-none-eabi-9-2019-q4-major/a
 2345              		.file 34 "/usr/local/Caskroom/gcc-arm-embedded/9-2019-q4-major/gcc-arm-none-eabi-9-2019-q4-major/a
 2346              		.file 35 "/usr/local/Caskroom/gcc-arm-embedded/9-2019-q4-major/gcc-arm-none-eabi-9-2019-q4-major/a
 2347              		.file 36 "/usr/local/Caskroom/gcc-arm-embedded/9-2019-q4-major/gcc-arm-none-eabi-9-2019-q4-major/a
 2348              		.file 37 "/usr/local/Caskroom/gcc-arm-embedded/9-2019-q4-major/gcc-arm-none-eabi-9-2019-q4-major/a
 2349              		.file 38 "/usr/local/Caskroom/gcc-arm-embedded/9-2019-q4-major/gcc-arm-none-eabi-9-2019-q4-major/a
 2350              		.file 39 "/usr/local/Caskroom/gcc-arm-embedded/9-2019-q4-major/gcc-arm-none-eabi-9-2019-q4-major/a
 2351              		.file 40 "/usr/local/Caskroom/gcc-arm-embedded/9-2019-q4-major/gcc-arm-none-eabi-9-2019-q4-major/a
 2352              		.file 41 "/usr/local/Caskroom/gcc-arm-embedded/9-2019-q4-major/gcc-arm-none-eabi-9-2019-q4-major/a
 2353              		.file 42 "/usr/local/Caskroom/gcc-arm-embedded/9-2019-q4-major/gcc-arm-none-eabi-9-2019-q4-major/a
 2354              		.file 43 "/usr/local/Caskroom/gcc-arm-embedded/9-2019-q4-major/gcc-arm-none-eabi-9-2019-q4-major/l
 2355              		.file 44 "<built-in>"
 2356              		.file 45 "/usr/local/Caskroom/gcc-arm-embedded/9-2019-q4-major/gcc-arm-none-eabi-9-2019-q4-major/a
 2357              		.file 46 "/usr/local/Caskroom/gcc-arm-embedded/9-2019-q4-major/gcc-arm-none-eabi-9-2019-q4-major/a
 2358              		.file 47 "/usr/local/Caskroom/gcc-arm-embedded/9-2019-q4-major/gcc-arm-none-eabi-9-2019-q4-major/a
 2359              		.file 48 "/usr/local/Caskroom/gcc-arm-embedded/9-2019-q4-major/gcc-arm-none-eabi-9-2019-q4-major/a
 2360              		.file 49 "/usr/local/Caskroom/gcc-arm-embedded/9-2019-q4-major/gcc-arm-none-eabi-9-2019-q4-major/a
 2361              		.file 50 "/usr/local/Caskroom/gcc-arm-embedded/9-2019-q4-major/gcc-arm-none-eabi-9-2019-q4-major/a
 2362              		.file 51 "/usr/local/Caskroom/gcc-arm-embedded/9-2019-q4-major/gcc-arm-none-eabi-9-2019-q4-major/a
 2363              		.file 52 "/usr/local/Caskroom/gcc-arm-embedded/9-2019-q4-major/gcc-arm-none-eabi-9-2019-q4-major/a
 2364              		.file 53 "/usr/local/Caskroom/gcc-arm-embedded/9-2019-q4-major/gcc-arm-none-eabi-9-2019-q4-major/a
 2365              		.file 54 "Src/Settings/trackData.h"
 2366              		.file 55 "/Users/joostbooy/Desktop/Code/stm32/lib/utils/stringBuilder.h"
 2367              		.file 56 "lookupTables/lookUpTables.h"
 2368              		.file 57 "Src/Engine/midiEvent.h"
ARM GAS  /var/folders/84/_x1cyy_j36g486tldtwl37280000gn/T//cc257jte.s 			page 66


 2369              		.file 58 "Drivers/uart.h"
 2370              		.file 59 "Drivers/Usb/usb.h"
 2371              		.file 60 "Src/Engine/midiBuffer.h"
 2372              		.file 61 "/Users/joostbooy/Desktop/Code/stm32/lib/utils/que.h"
 2373              		.file 62 "Src/Engine/midiPort.h"
 2374              		.file 63 "lookupTables/font.h"
 2375              		.file 64 "Src/Engine/clockEngine.h"
 2376              		.file 65 "Src/Engine/positionEngine.h"
 2377              		.file 66 "Src/Engine/repeatEngine.h"
 2378              		.file 67 "/Users/joostbooy/Desktop/Code/stm32/lib/utils/reciprocal.h"
 2379              		.file 68 "/Users/joostbooy/Desktop/Code/stm32/lib/ff14b/source/ff.h"
 2380              		.file 69 "Src/Disk/file.h"
 2381              		.file 70 "/Users/joostbooy/Desktop/Code/stm32/lib/utils/hash.h"
 2382              		.file 71 "Src/Disk/fileWriter.h"
 2383              		.file 72 "Src/Disk/fileReader.h"
 2384              		.file 73 "Src/Settings/scale.h"
 2385              		.file 74 "/Users/joostbooy/Desktop/Code/stm32/lib/utils/stack.h"
 2386              		.file 75 "Src/Settings/arpeggiator.h"
 2387              		.file 76 "Src/Settings/chord.h"
 2388              		.file 77 "Src/Settings/track.h"
 2389              		.file 78 "Src/Settings/midiClock.h"
 2390              		.file 79 "Src/Ui/clipboard.h"
 2391              		.file 80 "Src/Settings/cvOutput.h"
 2392              		.file 81 "Src/Settings/cvInput.h"
 2393              		.file 82 "Src/Settings/midiFilter.h"
 2394              		.file 83 "Src/Settings/midiMonitor.h"
 2395              		.file 84 "Src/Settings/midiInput.h"
 2396              		.file 85 "Src/Settings/midiOutput.h"
 2397              		.file 86 "Drivers/micros.h"
 2398              		.file 87 "Drivers/dac.h"
 2399              		.file 88 "Src/Settings/calibration.h"
 2400              		.file 89 "Src/Settings/drumKit.h"
 2401              		.file 90 "Src/Engine/noteStack.h"
 2402              		.file 91 "Src/Engine/arpeggiatorEngine.h"
 2403              		.file 92 "Drivers/gateIO.h"
 2404              		.file 93 "Src/Engine/cvOutputEngine.h"
 2405              		.file 94 "Src/Engine/midiScheduler.h"
 2406              		.file 95 "Src/Engine/midiOutputEngine.h"
 2407              		.file 96 "Src/Engine/midiInputEngine.h"
 2408              		.file 97 "Src/Engine/midiRecordEngine.h"
 2409              		.file 98 "Drivers/adc.h"
 2410              		.file 99 "Src/Engine/cvInputEngine.h"
 2411              		.file 100 "Src/Engine/trackState.h"
 2412              		.file 101 "Drivers/debug.h"
 2413              		.file 102 "Src/Engine/trackEngine.h"
 2414              		.file 103 "Src/Engine/noteTrackEngine.h"
 2415              		.file 104 "Src/Engine/chordTrackEngine.h"
 2416              		.file 105 "Src/Engine/drumTrackEngine.h"
 2417              		.file 106 "Src/Engine/curveTrackEngine.h"
 2418              		.file 107 "Src/Engine/engine.h"
 2419              		.file 108 "Src/Settings/stepEditor.h"
ARM GAS  /var/folders/84/_x1cyy_j36g486tldtwl37280000gn/T//cc257jte.s 			page 67

