ARM GAS  /var/folders/84/_x1cyy_j36g486tldtwl37280000gn/T//ccE5Un8c.s 			page 1


   1              		.cpu cortex-m4
   2              		.eabi_attribute 27, 1
   3              		.eabi_attribute 28, 1
   4              		.eabi_attribute 20, 1
   5              		.eabi_attribute 21, 1
   6              		.eabi_attribute 23, 3
   7              		.eabi_attribute 24, 1
   8              		.eabi_attribute 25, 1
   9              		.eabi_attribute 26, 1
  10              		.eabi_attribute 30, 2
  11              		.eabi_attribute 34, 1
  12              		.eabi_attribute 18, 4
  13              		.file	"system.cpp"
  14              		.text
  15              	.Ltext0:
  16              		.cfi_sections	.debug_frame
  17              		.section	.text._ZN3Sys4initEv,"ax",%progbits
  18              		.align	1
  19              		.p2align 2,,3
  20              		.global	_ZN3Sys4initEv
  21              		.arch armv7e-m
  22              		.syntax unified
  23              		.thumb
  24              		.thumb_func
  25              		.fpu fpv4-sp-d16
  27              	_ZN3Sys4initEv:
  28              	.LVL0:
  29              	.LFB235:
  30              		.file 1 "Drivers/system.cpp"
   1:Drivers/system.cpp **** #include "system.h"
   2:Drivers/system.cpp **** 
   3:Drivers/system.cpp **** Sys sys;
   4:Drivers/system.cpp **** 
   5:Drivers/system.cpp **** void Sys::init() {
  31              		.loc 1 5 18 view -0
  32              		.cfi_startproc
  33              		@ args = 0, pretend = 0, frame = 168
  34              		@ frame_needed = 0, uses_anonymous_args = 0
   6:Drivers/system.cpp **** 	//GPIO Ports Clock Enable
   7:Drivers/system.cpp **** 	__HAL_RCC_GPIOH_CLK_ENABLE();
  35              		.loc 1 7 2 view .LVU1
  36              	.LBB2:
  37              		.loc 1 7 2 view .LVU2
  38              	.LBE2:
   5:Drivers/system.cpp **** 	//GPIO Ports Clock Enable
  39              		.loc 1 5 18 is_stmt 0 view .LVU3
  40 0000 2DE9F041 		push	{r4, r5, r6, r7, r8, lr}
  41              		.cfi_def_cfa_offset 24
  42              		.cfi_offset 4, -24
  43              		.cfi_offset 5, -20
  44              		.cfi_offset 6, -16
  45              		.cfi_offset 7, -12
  46              		.cfi_offset 8, -8
  47              		.cfi_offset 14, -4
  48 0004 AAB0     		sub	sp, sp, #168
  49              		.cfi_def_cfa_offset 192
  50              	.LBB3:
ARM GAS  /var/folders/84/_x1cyy_j36g486tldtwl37280000gn/T//ccE5Un8c.s 			page 2


  51              		.loc 1 7 2 view .LVU4
  52 0006 A64B     		ldr	r3, .L4
  53              	.LBE3:
  54              	.LBB4:
   8:Drivers/system.cpp **** 	__HAL_RCC_GPIOA_CLK_ENABLE();
   9:Drivers/system.cpp **** 	__HAL_RCC_GPIOB_CLK_ENABLE();
  10:Drivers/system.cpp **** 	__HAL_RCC_GPIOC_CLK_ENABLE();
  11:Drivers/system.cpp **** 	__HAL_RCC_GPIOD_CLK_ENABLE();
  12:Drivers/system.cpp **** 	__HAL_RCC_GPIOE_CLK_ENABLE();
  13:Drivers/system.cpp **** 
  14:Drivers/system.cpp **** 	//Periparel Clock Enable
  15:Drivers/system.cpp **** 	__HAL_RCC_SDIO_CLK_ENABLE();
  16:Drivers/system.cpp **** 	__HAL_RCC_DMA1_CLK_ENABLE();
  17:Drivers/system.cpp **** 	__HAL_RCC_DMA2_CLK_ENABLE();
  18:Drivers/system.cpp **** 	__HAL_RCC_ADC1_CLK_ENABLE();
  19:Drivers/system.cpp **** 	__HAL_RCC_SPI1_CLK_ENABLE();
  20:Drivers/system.cpp **** 	__HAL_RCC_SPI2_CLK_ENABLE();
  21:Drivers/system.cpp **** 	__HAL_RCC_SPI3_CLK_ENABLE();
  22:Drivers/system.cpp **** 	__HAL_RCC_SPI4_CLK_ENABLE();
  23:Drivers/system.cpp **** 	__HAL_RCC_USART6_CLK_ENABLE();
  24:Drivers/system.cpp **** 	__HAL_RCC_USART2_CLK_ENABLE();
  25:Drivers/system.cpp **** 	__HAL_RCC_USART3_CLK_ENABLE();
  26:Drivers/system.cpp **** 	__HAL_RCC_UART7_CLK_ENABLE();
  27:Drivers/system.cpp **** 	__HAL_RCC_TIM2_CLK_ENABLE();
  28:Drivers/system.cpp **** 	__HAL_RCC_TIM3_CLK_ENABLE();
  29:Drivers/system.cpp **** 	__HAL_RCC_TIM4_CLK_ENABLE();
  30:Drivers/system.cpp **** 	__HAL_RCC_TIM5_CLK_ENABLE();
  31:Drivers/system.cpp **** 	__HAL_RCC_USB_OTG_FS_CLK_ENABLE();
  32:Drivers/system.cpp **** 
  33:Drivers/system.cpp **** 	RCC_OscInitTypeDef RCC_OscInitStruct = {0};
  34:Drivers/system.cpp **** 	RCC_ClkInitTypeDef RCC_ClkInitStruct = {0};
  35:Drivers/system.cpp **** 
  36:Drivers/system.cpp **** 	/** Configure the main internal regulator output voltage
  37:Drivers/system.cpp **** 	*/
  38:Drivers/system.cpp **** 	__HAL_RCC_PWR_CLK_ENABLE();
  39:Drivers/system.cpp **** 	__HAL_PWR_VOLTAGESCALING_CONFIG(PWR_REGULATOR_VOLTAGE_SCALE1);
  55              		.loc 1 39 2 view .LVU5
  56 0008 A64A     		ldr	r2, .L4+4
  57              	.LBE4:
  58              	.LBB5:
   7:Drivers/system.cpp **** 	__HAL_RCC_GPIOA_CLK_ENABLE();
  59              		.loc 1 7 2 view .LVU6
  60 000a 0024     		movs	r4, #0
  61 000c 0094     		str	r4, [sp]
   7:Drivers/system.cpp **** 	__HAL_RCC_GPIOA_CLK_ENABLE();
  62              		.loc 1 7 2 is_stmt 1 view .LVU7
  63 000e 196B     		ldr	r1, [r3, #48]
  64 0010 41F08000 		orr	r0, r1, #128
  65              	.LVL1:
   7:Drivers/system.cpp **** 	__HAL_RCC_GPIOA_CLK_ENABLE();
  66              		.loc 1 7 2 is_stmt 0 view .LVU8
  67 0014 1863     		str	r0, [r3, #48]
   7:Drivers/system.cpp **** 	__HAL_RCC_GPIOA_CLK_ENABLE();
  68              		.loc 1 7 2 is_stmt 1 view .LVU9
  69 0016 1D6B     		ldr	r5, [r3, #48]
  70 0018 05F08006 		and	r6, r5, #128
  71 001c 0096     		str	r6, [sp]
ARM GAS  /var/folders/84/_x1cyy_j36g486tldtwl37280000gn/T//ccE5Un8c.s 			page 3


   7:Drivers/system.cpp **** 	__HAL_RCC_GPIOA_CLK_ENABLE();
  72              		.loc 1 7 2 view .LVU10
  73 001e 0099     		ldr	r1, [sp]
  74              	.LBE5:
   8:Drivers/system.cpp **** 	__HAL_RCC_GPIOA_CLK_ENABLE();
  75              		.loc 1 8 2 view .LVU11
  76              	.LBB6:
   8:Drivers/system.cpp **** 	__HAL_RCC_GPIOA_CLK_ENABLE();
  77              		.loc 1 8 2 view .LVU12
  78 0020 0194     		str	r4, [sp, #4]
   8:Drivers/system.cpp **** 	__HAL_RCC_GPIOA_CLK_ENABLE();
  79              		.loc 1 8 2 view .LVU13
  80 0022 1F6B     		ldr	r7, [r3, #48]
  81 0024 47F00101 		orr	r1, r7, #1
  82 0028 1963     		str	r1, [r3, #48]
   8:Drivers/system.cpp **** 	__HAL_RCC_GPIOA_CLK_ENABLE();
  83              		.loc 1 8 2 view .LVU14
  84 002a 186B     		ldr	r0, [r3, #48]
  85 002c 00F00105 		and	r5, r0, #1
  86 0030 0195     		str	r5, [sp, #4]
   8:Drivers/system.cpp **** 	__HAL_RCC_GPIOA_CLK_ENABLE();
  87              		.loc 1 8 2 view .LVU15
  88 0032 0199     		ldr	r1, [sp, #4]
  89              	.LBE6:
   9:Drivers/system.cpp **** 	__HAL_RCC_GPIOC_CLK_ENABLE();
  90              		.loc 1 9 2 view .LVU16
  91              	.LBB7:
   9:Drivers/system.cpp **** 	__HAL_RCC_GPIOC_CLK_ENABLE();
  92              		.loc 1 9 2 view .LVU17
  93 0034 0294     		str	r4, [sp, #8]
   9:Drivers/system.cpp **** 	__HAL_RCC_GPIOC_CLK_ENABLE();
  94              		.loc 1 9 2 view .LVU18
  95 0036 1E6B     		ldr	r6, [r3, #48]
  96 0038 46F00207 		orr	r7, r6, #2
  97 003c 1F63     		str	r7, [r3, #48]
   9:Drivers/system.cpp **** 	__HAL_RCC_GPIOC_CLK_ENABLE();
  98              		.loc 1 9 2 view .LVU19
  99 003e 196B     		ldr	r1, [r3, #48]
 100 0040 01F00200 		and	r0, r1, #2
 101 0044 0290     		str	r0, [sp, #8]
   9:Drivers/system.cpp **** 	__HAL_RCC_GPIOC_CLK_ENABLE();
 102              		.loc 1 9 2 view .LVU20
 103 0046 0299     		ldr	r1, [sp, #8]
 104              	.LBE7:
  10:Drivers/system.cpp **** 	__HAL_RCC_GPIOD_CLK_ENABLE();
 105              		.loc 1 10 2 view .LVU21
 106              	.LBB8:
  10:Drivers/system.cpp **** 	__HAL_RCC_GPIOD_CLK_ENABLE();
 107              		.loc 1 10 2 view .LVU22
 108 0048 0394     		str	r4, [sp, #12]
  10:Drivers/system.cpp **** 	__HAL_RCC_GPIOD_CLK_ENABLE();
 109              		.loc 1 10 2 view .LVU23
 110 004a 1D6B     		ldr	r5, [r3, #48]
 111 004c 45F00406 		orr	r6, r5, #4
 112 0050 1E63     		str	r6, [r3, #48]
  10:Drivers/system.cpp **** 	__HAL_RCC_GPIOD_CLK_ENABLE();
 113              		.loc 1 10 2 view .LVU24
ARM GAS  /var/folders/84/_x1cyy_j36g486tldtwl37280000gn/T//ccE5Un8c.s 			page 4


 114 0052 1F6B     		ldr	r7, [r3, #48]
 115 0054 07F00401 		and	r1, r7, #4
 116 0058 0391     		str	r1, [sp, #12]
  10:Drivers/system.cpp **** 	__HAL_RCC_GPIOD_CLK_ENABLE();
 117              		.loc 1 10 2 view .LVU25
 118 005a 0399     		ldr	r1, [sp, #12]
 119              	.LBE8:
  11:Drivers/system.cpp **** 	__HAL_RCC_GPIOE_CLK_ENABLE();
 120              		.loc 1 11 2 view .LVU26
 121              	.LBB9:
  11:Drivers/system.cpp **** 	__HAL_RCC_GPIOE_CLK_ENABLE();
 122              		.loc 1 11 2 view .LVU27
 123 005c 0494     		str	r4, [sp, #16]
  11:Drivers/system.cpp **** 	__HAL_RCC_GPIOE_CLK_ENABLE();
 124              		.loc 1 11 2 view .LVU28
 125 005e 186B     		ldr	r0, [r3, #48]
 126 0060 40F00805 		orr	r5, r0, #8
 127 0064 1D63     		str	r5, [r3, #48]
  11:Drivers/system.cpp **** 	__HAL_RCC_GPIOE_CLK_ENABLE();
 128              		.loc 1 11 2 view .LVU29
 129 0066 1E6B     		ldr	r6, [r3, #48]
 130 0068 06F00807 		and	r7, r6, #8
 131 006c 0497     		str	r7, [sp, #16]
  11:Drivers/system.cpp **** 	__HAL_RCC_GPIOE_CLK_ENABLE();
 132              		.loc 1 11 2 view .LVU30
 133 006e 0499     		ldr	r1, [sp, #16]
 134              	.LBE9:
  12:Drivers/system.cpp **** 
 135              		.loc 1 12 2 view .LVU31
 136              	.LBB10:
  12:Drivers/system.cpp **** 
 137              		.loc 1 12 2 view .LVU32
 138 0070 0594     		str	r4, [sp, #20]
  12:Drivers/system.cpp **** 
 139              		.loc 1 12 2 view .LVU33
 140 0072 196B     		ldr	r1, [r3, #48]
 141 0074 41F01000 		orr	r0, r1, #16
 142 0078 1863     		str	r0, [r3, #48]
  12:Drivers/system.cpp **** 
 143              		.loc 1 12 2 view .LVU34
 144 007a 1D6B     		ldr	r5, [r3, #48]
 145 007c 05F01006 		and	r6, r5, #16
 146 0080 0596     		str	r6, [sp, #20]
  12:Drivers/system.cpp **** 
 147              		.loc 1 12 2 view .LVU35
 148 0082 0599     		ldr	r1, [sp, #20]
 149              	.LBE10:
  15:Drivers/system.cpp **** 	__HAL_RCC_DMA1_CLK_ENABLE();
 150              		.loc 1 15 2 view .LVU36
 151              	.LBB11:
  15:Drivers/system.cpp **** 	__HAL_RCC_DMA1_CLK_ENABLE();
 152              		.loc 1 15 2 view .LVU37
 153 0084 0694     		str	r4, [sp, #24]
  15:Drivers/system.cpp **** 	__HAL_RCC_DMA1_CLK_ENABLE();
 154              		.loc 1 15 2 view .LVU38
 155 0086 5F6C     		ldr	r7, [r3, #68]
 156 0088 47F40061 		orr	r1, r7, #2048
ARM GAS  /var/folders/84/_x1cyy_j36g486tldtwl37280000gn/T//ccE5Un8c.s 			page 5


 157 008c 5964     		str	r1, [r3, #68]
  15:Drivers/system.cpp **** 	__HAL_RCC_DMA1_CLK_ENABLE();
 158              		.loc 1 15 2 view .LVU39
 159 008e 586C     		ldr	r0, [r3, #68]
 160 0090 00F40065 		and	r5, r0, #2048
 161 0094 0695     		str	r5, [sp, #24]
  15:Drivers/system.cpp **** 	__HAL_RCC_DMA1_CLK_ENABLE();
 162              		.loc 1 15 2 view .LVU40
 163 0096 0699     		ldr	r1, [sp, #24]
 164              	.LBE11:
  16:Drivers/system.cpp **** 	__HAL_RCC_DMA2_CLK_ENABLE();
 165              		.loc 1 16 2 view .LVU41
 166              	.LBB12:
  16:Drivers/system.cpp **** 	__HAL_RCC_DMA2_CLK_ENABLE();
 167              		.loc 1 16 2 view .LVU42
 168 0098 0794     		str	r4, [sp, #28]
  16:Drivers/system.cpp **** 	__HAL_RCC_DMA2_CLK_ENABLE();
 169              		.loc 1 16 2 view .LVU43
 170 009a 1E6B     		ldr	r6, [r3, #48]
 171 009c 46F40017 		orr	r7, r6, #2097152
 172 00a0 1F63     		str	r7, [r3, #48]
  16:Drivers/system.cpp **** 	__HAL_RCC_DMA2_CLK_ENABLE();
 173              		.loc 1 16 2 view .LVU44
 174 00a2 196B     		ldr	r1, [r3, #48]
 175 00a4 01F40010 		and	r0, r1, #2097152
 176 00a8 0790     		str	r0, [sp, #28]
  16:Drivers/system.cpp **** 	__HAL_RCC_DMA2_CLK_ENABLE();
 177              		.loc 1 16 2 view .LVU45
 178 00aa 0799     		ldr	r1, [sp, #28]
 179              	.LBE12:
  17:Drivers/system.cpp **** 	__HAL_RCC_ADC1_CLK_ENABLE();
 180              		.loc 1 17 2 view .LVU46
 181              	.LBB13:
  17:Drivers/system.cpp **** 	__HAL_RCC_ADC1_CLK_ENABLE();
 182              		.loc 1 17 2 view .LVU47
 183 00ac 0894     		str	r4, [sp, #32]
  17:Drivers/system.cpp **** 	__HAL_RCC_ADC1_CLK_ENABLE();
 184              		.loc 1 17 2 view .LVU48
 185 00ae 1D6B     		ldr	r5, [r3, #48]
 186 00b0 45F48006 		orr	r6, r5, #4194304
 187 00b4 1E63     		str	r6, [r3, #48]
  17:Drivers/system.cpp **** 	__HAL_RCC_ADC1_CLK_ENABLE();
 188              		.loc 1 17 2 view .LVU49
 189 00b6 1F6B     		ldr	r7, [r3, #48]
 190 00b8 07F48001 		and	r1, r7, #4194304
 191 00bc 0891     		str	r1, [sp, #32]
  17:Drivers/system.cpp **** 	__HAL_RCC_ADC1_CLK_ENABLE();
 192              		.loc 1 17 2 view .LVU50
 193 00be 0899     		ldr	r1, [sp, #32]
 194              	.LBE13:
  18:Drivers/system.cpp **** 	__HAL_RCC_SPI1_CLK_ENABLE();
 195              		.loc 1 18 2 view .LVU51
 196              	.LBB14:
  18:Drivers/system.cpp **** 	__HAL_RCC_SPI1_CLK_ENABLE();
 197              		.loc 1 18 2 view .LVU52
 198 00c0 0994     		str	r4, [sp, #36]
  18:Drivers/system.cpp **** 	__HAL_RCC_SPI1_CLK_ENABLE();
ARM GAS  /var/folders/84/_x1cyy_j36g486tldtwl37280000gn/T//ccE5Un8c.s 			page 6


 199              		.loc 1 18 2 view .LVU53
 200 00c2 586C     		ldr	r0, [r3, #68]
 201 00c4 40F48075 		orr	r5, r0, #256
 202 00c8 5D64     		str	r5, [r3, #68]
  18:Drivers/system.cpp **** 	__HAL_RCC_SPI1_CLK_ENABLE();
 203              		.loc 1 18 2 view .LVU54
 204 00ca 5E6C     		ldr	r6, [r3, #68]
 205 00cc 06F48077 		and	r7, r6, #256
 206 00d0 0997     		str	r7, [sp, #36]
  18:Drivers/system.cpp **** 	__HAL_RCC_SPI1_CLK_ENABLE();
 207              		.loc 1 18 2 view .LVU55
 208 00d2 0999     		ldr	r1, [sp, #36]
 209              	.LBE14:
  19:Drivers/system.cpp **** 	__HAL_RCC_SPI2_CLK_ENABLE();
 210              		.loc 1 19 2 view .LVU56
 211              	.LBB15:
  19:Drivers/system.cpp **** 	__HAL_RCC_SPI2_CLK_ENABLE();
 212              		.loc 1 19 2 view .LVU57
 213 00d4 0A94     		str	r4, [sp, #40]
  19:Drivers/system.cpp **** 	__HAL_RCC_SPI2_CLK_ENABLE();
 214              		.loc 1 19 2 view .LVU58
 215 00d6 596C     		ldr	r1, [r3, #68]
 216 00d8 41F48050 		orr	r0, r1, #4096
 217 00dc 5864     		str	r0, [r3, #68]
  19:Drivers/system.cpp **** 	__HAL_RCC_SPI2_CLK_ENABLE();
 218              		.loc 1 19 2 view .LVU59
 219 00de 5D6C     		ldr	r5, [r3, #68]
 220 00e0 05F48056 		and	r6, r5, #4096
 221 00e4 0A96     		str	r6, [sp, #40]
  19:Drivers/system.cpp **** 	__HAL_RCC_SPI2_CLK_ENABLE();
 222              		.loc 1 19 2 view .LVU60
 223 00e6 0A99     		ldr	r1, [sp, #40]
 224              	.LBE15:
  20:Drivers/system.cpp **** 	__HAL_RCC_SPI3_CLK_ENABLE();
 225              		.loc 1 20 2 view .LVU61
 226              	.LBB16:
  20:Drivers/system.cpp **** 	__HAL_RCC_SPI3_CLK_ENABLE();
 227              		.loc 1 20 2 view .LVU62
 228 00e8 0B94     		str	r4, [sp, #44]
  20:Drivers/system.cpp **** 	__HAL_RCC_SPI3_CLK_ENABLE();
 229              		.loc 1 20 2 view .LVU63
 230 00ea 1F6C     		ldr	r7, [r3, #64]
 231 00ec 47F48041 		orr	r1, r7, #16384
 232 00f0 1964     		str	r1, [r3, #64]
  20:Drivers/system.cpp **** 	__HAL_RCC_SPI3_CLK_ENABLE();
 233              		.loc 1 20 2 view .LVU64
 234 00f2 186C     		ldr	r0, [r3, #64]
 235 00f4 00F48045 		and	r5, r0, #16384
 236 00f8 0B95     		str	r5, [sp, #44]
  20:Drivers/system.cpp **** 	__HAL_RCC_SPI3_CLK_ENABLE();
 237              		.loc 1 20 2 view .LVU65
 238 00fa 0B99     		ldr	r1, [sp, #44]
 239              	.LBE16:
  21:Drivers/system.cpp **** 	__HAL_RCC_SPI4_CLK_ENABLE();
 240              		.loc 1 21 2 view .LVU66
 241              	.LBB17:
  21:Drivers/system.cpp **** 	__HAL_RCC_SPI4_CLK_ENABLE();
ARM GAS  /var/folders/84/_x1cyy_j36g486tldtwl37280000gn/T//ccE5Un8c.s 			page 7


 242              		.loc 1 21 2 view .LVU67
 243 00fc 0C94     		str	r4, [sp, #48]
  21:Drivers/system.cpp **** 	__HAL_RCC_SPI4_CLK_ENABLE();
 244              		.loc 1 21 2 view .LVU68
 245 00fe 1E6C     		ldr	r6, [r3, #64]
 246 0100 46F40047 		orr	r7, r6, #32768
 247 0104 1F64     		str	r7, [r3, #64]
  21:Drivers/system.cpp **** 	__HAL_RCC_SPI4_CLK_ENABLE();
 248              		.loc 1 21 2 view .LVU69
 249 0106 196C     		ldr	r1, [r3, #64]
 250 0108 01F40040 		and	r0, r1, #32768
 251 010c 0C90     		str	r0, [sp, #48]
  21:Drivers/system.cpp **** 	__HAL_RCC_SPI4_CLK_ENABLE();
 252              		.loc 1 21 2 view .LVU70
 253 010e 0C99     		ldr	r1, [sp, #48]
 254              	.LBE17:
  22:Drivers/system.cpp **** 	__HAL_RCC_USART6_CLK_ENABLE();
 255              		.loc 1 22 2 view .LVU71
 256              	.LBB18:
  22:Drivers/system.cpp **** 	__HAL_RCC_USART6_CLK_ENABLE();
 257              		.loc 1 22 2 view .LVU72
 258 0110 0D94     		str	r4, [sp, #52]
  22:Drivers/system.cpp **** 	__HAL_RCC_USART6_CLK_ENABLE();
 259              		.loc 1 22 2 view .LVU73
 260 0112 5D6C     		ldr	r5, [r3, #68]
 261 0114 45F40056 		orr	r6, r5, #8192
 262 0118 5E64     		str	r6, [r3, #68]
  22:Drivers/system.cpp **** 	__HAL_RCC_USART6_CLK_ENABLE();
 263              		.loc 1 22 2 view .LVU74
 264 011a 5F6C     		ldr	r7, [r3, #68]
 265 011c 07F40051 		and	r1, r7, #8192
 266 0120 0D91     		str	r1, [sp, #52]
  22:Drivers/system.cpp **** 	__HAL_RCC_USART6_CLK_ENABLE();
 267              		.loc 1 22 2 view .LVU75
 268 0122 0D99     		ldr	r1, [sp, #52]
 269              	.LBE18:
  23:Drivers/system.cpp **** 	__HAL_RCC_USART2_CLK_ENABLE();
 270              		.loc 1 23 2 view .LVU76
 271              	.LBB19:
  23:Drivers/system.cpp **** 	__HAL_RCC_USART2_CLK_ENABLE();
 272              		.loc 1 23 2 view .LVU77
 273 0124 0E94     		str	r4, [sp, #56]
  23:Drivers/system.cpp **** 	__HAL_RCC_USART2_CLK_ENABLE();
 274              		.loc 1 23 2 view .LVU78
 275 0126 586C     		ldr	r0, [r3, #68]
 276 0128 40F02005 		orr	r5, r0, #32
 277 012c 5D64     		str	r5, [r3, #68]
  23:Drivers/system.cpp **** 	__HAL_RCC_USART2_CLK_ENABLE();
 278              		.loc 1 23 2 view .LVU79
 279 012e 5E6C     		ldr	r6, [r3, #68]
 280 0130 06F02007 		and	r7, r6, #32
 281 0134 0E97     		str	r7, [sp, #56]
  23:Drivers/system.cpp **** 	__HAL_RCC_USART2_CLK_ENABLE();
 282              		.loc 1 23 2 view .LVU80
 283 0136 0E99     		ldr	r1, [sp, #56]
 284              	.LBE19:
  24:Drivers/system.cpp **** 	__HAL_RCC_USART3_CLK_ENABLE();
ARM GAS  /var/folders/84/_x1cyy_j36g486tldtwl37280000gn/T//ccE5Un8c.s 			page 8


 285              		.loc 1 24 2 view .LVU81
 286              	.LBB20:
  24:Drivers/system.cpp **** 	__HAL_RCC_USART3_CLK_ENABLE();
 287              		.loc 1 24 2 view .LVU82
 288 0138 0F94     		str	r4, [sp, #60]
  24:Drivers/system.cpp **** 	__HAL_RCC_USART3_CLK_ENABLE();
 289              		.loc 1 24 2 view .LVU83
 290 013a 196C     		ldr	r1, [r3, #64]
 291 013c 41F40030 		orr	r0, r1, #131072
 292 0140 1864     		str	r0, [r3, #64]
  24:Drivers/system.cpp **** 	__HAL_RCC_USART3_CLK_ENABLE();
 293              		.loc 1 24 2 view .LVU84
 294 0142 1D6C     		ldr	r5, [r3, #64]
 295 0144 05F40036 		and	r6, r5, #131072
 296 0148 0F96     		str	r6, [sp, #60]
  24:Drivers/system.cpp **** 	__HAL_RCC_USART3_CLK_ENABLE();
 297              		.loc 1 24 2 view .LVU85
 298 014a 0F99     		ldr	r1, [sp, #60]
 299              	.LBE20:
  25:Drivers/system.cpp **** 	__HAL_RCC_UART7_CLK_ENABLE();
 300              		.loc 1 25 2 view .LVU86
 301              	.LBB21:
  25:Drivers/system.cpp **** 	__HAL_RCC_UART7_CLK_ENABLE();
 302              		.loc 1 25 2 view .LVU87
 303 014c 1094     		str	r4, [sp, #64]
  25:Drivers/system.cpp **** 	__HAL_RCC_UART7_CLK_ENABLE();
 304              		.loc 1 25 2 view .LVU88
 305 014e 1F6C     		ldr	r7, [r3, #64]
 306 0150 47F48021 		orr	r1, r7, #262144
 307 0154 1964     		str	r1, [r3, #64]
  25:Drivers/system.cpp **** 	__HAL_RCC_UART7_CLK_ENABLE();
 308              		.loc 1 25 2 view .LVU89
 309 0156 186C     		ldr	r0, [r3, #64]
 310 0158 00F48025 		and	r5, r0, #262144
 311 015c 1095     		str	r5, [sp, #64]
  25:Drivers/system.cpp **** 	__HAL_RCC_UART7_CLK_ENABLE();
 312              		.loc 1 25 2 view .LVU90
 313 015e 1099     		ldr	r1, [sp, #64]
 314              	.LBE21:
  26:Drivers/system.cpp **** 	__HAL_RCC_TIM2_CLK_ENABLE();
 315              		.loc 1 26 2 view .LVU91
 316              	.LBB22:
  26:Drivers/system.cpp **** 	__HAL_RCC_TIM2_CLK_ENABLE();
 317              		.loc 1 26 2 view .LVU92
 318 0160 1194     		str	r4, [sp, #68]
  26:Drivers/system.cpp **** 	__HAL_RCC_TIM2_CLK_ENABLE();
 319              		.loc 1 26 2 view .LVU93
 320 0162 1E6C     		ldr	r6, [r3, #64]
 321 0164 46F08047 		orr	r7, r6, #1073741824
 322 0168 1F64     		str	r7, [r3, #64]
  26:Drivers/system.cpp **** 	__HAL_RCC_TIM2_CLK_ENABLE();
 323              		.loc 1 26 2 view .LVU94
 324 016a 196C     		ldr	r1, [r3, #64]
 325 016c 01F08040 		and	r0, r1, #1073741824
 326 0170 1190     		str	r0, [sp, #68]
  26:Drivers/system.cpp **** 	__HAL_RCC_TIM2_CLK_ENABLE();
 327              		.loc 1 26 2 view .LVU95
ARM GAS  /var/folders/84/_x1cyy_j36g486tldtwl37280000gn/T//ccE5Un8c.s 			page 9


 328 0172 1199     		ldr	r1, [sp, #68]
 329              	.LBE22:
  27:Drivers/system.cpp **** 	__HAL_RCC_TIM3_CLK_ENABLE();
 330              		.loc 1 27 2 view .LVU96
 331              	.LBB23:
  27:Drivers/system.cpp **** 	__HAL_RCC_TIM3_CLK_ENABLE();
 332              		.loc 1 27 2 view .LVU97
 333 0174 1294     		str	r4, [sp, #72]
  27:Drivers/system.cpp **** 	__HAL_RCC_TIM3_CLK_ENABLE();
 334              		.loc 1 27 2 view .LVU98
 335 0176 1D6C     		ldr	r5, [r3, #64]
 336 0178 45F00106 		orr	r6, r5, #1
 337 017c 1E64     		str	r6, [r3, #64]
  27:Drivers/system.cpp **** 	__HAL_RCC_TIM3_CLK_ENABLE();
 338              		.loc 1 27 2 view .LVU99
 339 017e 1F6C     		ldr	r7, [r3, #64]
 340 0180 07F00101 		and	r1, r7, #1
 341 0184 1291     		str	r1, [sp, #72]
  27:Drivers/system.cpp **** 	__HAL_RCC_TIM3_CLK_ENABLE();
 342              		.loc 1 27 2 view .LVU100
 343 0186 1299     		ldr	r1, [sp, #72]
 344              	.LBE23:
  28:Drivers/system.cpp **** 	__HAL_RCC_TIM4_CLK_ENABLE();
 345              		.loc 1 28 2 view .LVU101
 346              	.LBB24:
  28:Drivers/system.cpp **** 	__HAL_RCC_TIM4_CLK_ENABLE();
 347              		.loc 1 28 2 view .LVU102
 348 0188 1394     		str	r4, [sp, #76]
  28:Drivers/system.cpp **** 	__HAL_RCC_TIM4_CLK_ENABLE();
 349              		.loc 1 28 2 view .LVU103
 350 018a 186C     		ldr	r0, [r3, #64]
 351 018c 40F00205 		orr	r5, r0, #2
 352 0190 1D64     		str	r5, [r3, #64]
  28:Drivers/system.cpp **** 	__HAL_RCC_TIM4_CLK_ENABLE();
 353              		.loc 1 28 2 view .LVU104
 354 0192 1E6C     		ldr	r6, [r3, #64]
 355 0194 06F00207 		and	r7, r6, #2
 356 0198 1397     		str	r7, [sp, #76]
  28:Drivers/system.cpp **** 	__HAL_RCC_TIM4_CLK_ENABLE();
 357              		.loc 1 28 2 view .LVU105
 358 019a 1399     		ldr	r1, [sp, #76]
 359              	.LBE24:
  29:Drivers/system.cpp **** 	__HAL_RCC_TIM5_CLK_ENABLE();
 360              		.loc 1 29 2 view .LVU106
 361              	.LBB25:
  29:Drivers/system.cpp **** 	__HAL_RCC_TIM5_CLK_ENABLE();
 362              		.loc 1 29 2 view .LVU107
 363 019c 1494     		str	r4, [sp, #80]
  29:Drivers/system.cpp **** 	__HAL_RCC_TIM5_CLK_ENABLE();
 364              		.loc 1 29 2 view .LVU108
 365 019e 196C     		ldr	r1, [r3, #64]
 366 01a0 41F00400 		orr	r0, r1, #4
 367 01a4 1864     		str	r0, [r3, #64]
  29:Drivers/system.cpp **** 	__HAL_RCC_TIM5_CLK_ENABLE();
 368              		.loc 1 29 2 view .LVU109
 369 01a6 1D6C     		ldr	r5, [r3, #64]
 370 01a8 05F00406 		and	r6, r5, #4
ARM GAS  /var/folders/84/_x1cyy_j36g486tldtwl37280000gn/T//ccE5Un8c.s 			page 10


 371 01ac 1496     		str	r6, [sp, #80]
  29:Drivers/system.cpp **** 	__HAL_RCC_TIM5_CLK_ENABLE();
 372              		.loc 1 29 2 view .LVU110
 373 01ae 1499     		ldr	r1, [sp, #80]
 374              	.LBE25:
  30:Drivers/system.cpp **** 	__HAL_RCC_USB_OTG_FS_CLK_ENABLE();
 375              		.loc 1 30 2 view .LVU111
 376              	.LBB26:
  30:Drivers/system.cpp **** 	__HAL_RCC_USB_OTG_FS_CLK_ENABLE();
 377              		.loc 1 30 2 view .LVU112
 378 01b0 1594     		str	r4, [sp, #84]
  30:Drivers/system.cpp **** 	__HAL_RCC_USB_OTG_FS_CLK_ENABLE();
 379              		.loc 1 30 2 view .LVU113
 380 01b2 1F6C     		ldr	r7, [r3, #64]
 381 01b4 47F00801 		orr	r1, r7, #8
 382 01b8 1964     		str	r1, [r3, #64]
  30:Drivers/system.cpp **** 	__HAL_RCC_USB_OTG_FS_CLK_ENABLE();
 383              		.loc 1 30 2 view .LVU114
 384 01ba 186C     		ldr	r0, [r3, #64]
 385 01bc 00F00805 		and	r5, r0, #8
 386 01c0 1595     		str	r5, [sp, #84]
  30:Drivers/system.cpp **** 	__HAL_RCC_USB_OTG_FS_CLK_ENABLE();
 387              		.loc 1 30 2 view .LVU115
 388 01c2 1599     		ldr	r1, [sp, #84]
 389              	.LBE26:
  31:Drivers/system.cpp **** 
 390              		.loc 1 31 2 view .LVU116
 391              	.LBB27:
  31:Drivers/system.cpp **** 
 392              		.loc 1 31 2 view .LVU117
 393 01c4 5E6B     		ldr	r6, [r3, #52]
 394 01c6 46F08007 		orr	r7, r6, #128
 395 01ca 5F63     		str	r7, [r3, #52]
  31:Drivers/system.cpp **** 
 396              		.loc 1 31 2 view .LVU118
 397              	.LBB28:
  31:Drivers/system.cpp **** 
 398              		.loc 1 31 2 view .LVU119
 399 01cc 1694     		str	r4, [sp, #88]
  31:Drivers/system.cpp **** 
 400              		.loc 1 31 2 view .LVU120
 401 01ce 596C     		ldr	r1, [r3, #68]
 402 01d0 41F48040 		orr	r0, r1, #16384
 403 01d4 5864     		str	r0, [r3, #68]
  31:Drivers/system.cpp **** 
 404              		.loc 1 31 2 view .LVU121
 405 01d6 5D6C     		ldr	r5, [r3, #68]
 406              	.LBE28:
 407              	.LBE27:
  33:Drivers/system.cpp **** 	RCC_ClkInitTypeDef RCC_ClkInitStruct = {0};
 408              		.loc 1 33 21 is_stmt 0 view .LVU122
 409 01d8 2094     		str	r4, [sp, #128]
 410 01da CDE92144 		strd	r4, r4, [sp, #132]
  34:Drivers/system.cpp **** 
 411              		.loc 1 34 21 view .LVU123
 412 01de CDE91A44 		strd	r4, r4, [sp, #104]
 413 01e2 CDE91C44 		strd	r4, r4, [sp, #112]
ARM GAS  /var/folders/84/_x1cyy_j36g486tldtwl37280000gn/T//ccE5Un8c.s 			page 11


 414              	.LBB30:
 415              	.LBB29:
  31:Drivers/system.cpp **** 
 416              		.loc 1 31 2 view .LVU124
 417 01e6 05F48046 		and	r6, r5, #16384
 418 01ea 1696     		str	r6, [sp, #88]
  31:Drivers/system.cpp **** 
 419              		.loc 1 31 2 is_stmt 1 view .LVU125
 420 01ec 1699     		ldr	r1, [sp, #88]
 421              	.LBE29:
 422              	.LBE30:
  33:Drivers/system.cpp **** 	RCC_ClkInitTypeDef RCC_ClkInitStruct = {0};
 423              		.loc 1 33 2 view .LVU126
  34:Drivers/system.cpp **** 
 424              		.loc 1 34 21 is_stmt 0 view .LVU127
 425 01ee 1994     		str	r4, [sp, #100]
 426              	.LBB31:
  38:Drivers/system.cpp **** 	__HAL_PWR_VOLTAGESCALING_CONFIG(PWR_REGULATOR_VOLTAGE_SCALE1);
 427              		.loc 1 38 2 view .LVU128
 428 01f0 1794     		str	r4, [sp, #92]
 429              	.LBE31:
  33:Drivers/system.cpp **** 	RCC_ClkInitTypeDef RCC_ClkInitStruct = {0};
 430              		.loc 1 33 21 view .LVU129
 431 01f2 2394     		str	r4, [sp, #140]
  34:Drivers/system.cpp **** 
 432              		.loc 1 34 2 is_stmt 1 view .LVU130
  38:Drivers/system.cpp **** 	__HAL_PWR_VOLTAGESCALING_CONFIG(PWR_REGULATOR_VOLTAGE_SCALE1);
 433              		.loc 1 38 2 view .LVU131
 434              	.LBB32:
  38:Drivers/system.cpp **** 	__HAL_PWR_VOLTAGESCALING_CONFIG(PWR_REGULATOR_VOLTAGE_SCALE1);
 435              		.loc 1 38 2 view .LVU132
  38:Drivers/system.cpp **** 	__HAL_PWR_VOLTAGESCALING_CONFIG(PWR_REGULATOR_VOLTAGE_SCALE1);
 436              		.loc 1 38 2 view .LVU133
 437 01f4 1F6C     		ldr	r7, [r3, #64]
 438 01f6 47F08051 		orr	r1, r7, #268435456
 439 01fa 1964     		str	r1, [r3, #64]
  38:Drivers/system.cpp **** 	__HAL_PWR_VOLTAGESCALING_CONFIG(PWR_REGULATOR_VOLTAGE_SCALE1);
 440              		.loc 1 38 2 view .LVU134
 441 01fc 1B6C     		ldr	r3, [r3, #64]
 442 01fe 03F08050 		and	r0, r3, #268435456
 443 0202 1790     		str	r0, [sp, #92]
  38:Drivers/system.cpp **** 	__HAL_PWR_VOLTAGESCALING_CONFIG(PWR_REGULATOR_VOLTAGE_SCALE1);
 444              		.loc 1 38 2 view .LVU135
 445 0204 179B     		ldr	r3, [sp, #92]
 446              	.LBE32:
 447              		.loc 1 39 2 view .LVU136
 448              	.LBB33:
 449              		.loc 1 39 2 view .LVU137
 450 0206 1894     		str	r4, [sp, #96]
 451              		.loc 1 39 2 view .LVU138
 452 0208 1568     		ldr	r5, [r2]
 453 020a 45F44046 		orr	r6, r5, #49152
 454 020e 1660     		str	r6, [r2]
 455              		.loc 1 39 2 view .LVU139
 456 0210 1268     		ldr	r2, [r2]
 457 0212 02F44047 		and	r7, r2, #49152
 458 0216 1897     		str	r7, [sp, #96]
ARM GAS  /var/folders/84/_x1cyy_j36g486tldtwl37280000gn/T//ccE5Un8c.s 			page 12


 459              		.loc 1 39 2 view .LVU140
 460              	.LBE33:
  40:Drivers/system.cpp **** 	/** Initializes the RCC Oscillators according to the specified parameters
  41:Drivers/system.cpp **** 	* in the RCC_OscInitTypeDef structure.
  42:Drivers/system.cpp **** 	*/
  43:Drivers/system.cpp **** 	RCC_OscInitStruct.OscillatorType = RCC_OSCILLATORTYPE_HSE;
  44:Drivers/system.cpp **** 	RCC_OscInitStruct.HSEState = RCC_HSE_ON;
  45:Drivers/system.cpp **** 	RCC_OscInitStruct.PLL.PLLState = RCC_PLL_ON;
  46:Drivers/system.cpp **** 	RCC_OscInitStruct.PLL.PLLSource = RCC_PLLSOURCE_HSE;
 461              		.loc 1 46 34 is_stmt 0 view .LVU141
 462 0218 4FF4800E 		mov	lr, #4194304
  47:Drivers/system.cpp **** 	RCC_OscInitStruct.PLL.PLLM = 4;
  48:Drivers/system.cpp **** 	RCC_OscInitStruct.PLL.PLLN = 168;
  49:Drivers/system.cpp **** 	RCC_OscInitStruct.PLL.PLLP = RCC_PLLP_DIV2;
  50:Drivers/system.cpp **** 	RCC_OscInitStruct.PLL.PLLQ = 7;
 463              		.loc 1 50 29 view .LVU142
 464 021c 0723     		movs	r3, #7
  45:Drivers/system.cpp **** 	RCC_OscInitStruct.PLL.PLLSource = RCC_PLLSOURCE_HSE;
 465              		.loc 1 45 33 view .LVU143
 466 021e 0225     		movs	r5, #2
  43:Drivers/system.cpp **** 	RCC_OscInitStruct.HSEState = RCC_HSE_ON;
 467              		.loc 1 43 35 view .LVU144
 468 0220 4FF00108 		mov	r8, #1
  44:Drivers/system.cpp **** 	RCC_OscInitStruct.PLL.PLLState = RCC_PLL_ON;
 469              		.loc 1 44 29 view .LVU145
 470 0224 4FF4803C 		mov	ip, #65536
  47:Drivers/system.cpp **** 	RCC_OscInitStruct.PLL.PLLN = 168;
 471              		.loc 1 47 29 view .LVU146
 472 0228 0427     		movs	r7, #4
  48:Drivers/system.cpp **** 	RCC_OscInitStruct.PLL.PLLP = RCC_PLLP_DIV2;
 473              		.loc 1 48 29 view .LVU147
 474 022a A821     		movs	r1, #168
  51:Drivers/system.cpp **** 	HAL_RCC_OscConfig(&RCC_OscInitStruct);
 475              		.loc 1 51 19 view .LVU148
 476 022c 1EA8     		add	r0, sp, #120
  47:Drivers/system.cpp **** 	RCC_OscInitStruct.PLL.PLLN = 168;
 477              		.loc 1 47 29 view .LVU149
 478 022e CDE925E7 		strd	lr, r7, [sp, #148]
  50:Drivers/system.cpp **** 	HAL_RCC_OscConfig(&RCC_OscInitStruct);
 479              		.loc 1 50 29 view .LVU150
 480 0232 2993     		str	r3, [sp, #164]
  44:Drivers/system.cpp **** 	RCC_OscInitStruct.PLL.PLLState = RCC_PLL_ON;
 481              		.loc 1 44 29 view .LVU151
 482 0234 CDE91E8C 		strd	r8, ip, [sp, #120]
 483              	.LBB34:
  39:Drivers/system.cpp **** 	/** Initializes the RCC Oscillators according to the specified parameters
 484              		.loc 1 39 2 view .LVU152
 485 0238 189E     		ldr	r6, [sp, #96]
 486              	.LBE34:
  43:Drivers/system.cpp **** 	RCC_OscInitStruct.HSEState = RCC_HSE_ON;
 487              		.loc 1 43 2 is_stmt 1 view .LVU153
  45:Drivers/system.cpp **** 	RCC_OscInitStruct.PLL.PLLSource = RCC_PLLSOURCE_HSE;
 488              		.loc 1 45 2 view .LVU154
  48:Drivers/system.cpp **** 	RCC_OscInitStruct.PLL.PLLP = RCC_PLLP_DIV2;
 489              		.loc 1 48 29 is_stmt 0 view .LVU155
 490 023a 2791     		str	r1, [sp, #156]
  52:Drivers/system.cpp **** 	/** Initializes the CPU, AHB and APB buses clocks
ARM GAS  /var/folders/84/_x1cyy_j36g486tldtwl37280000gn/T//ccE5Un8c.s 			page 13


  53:Drivers/system.cpp **** 	*/
  54:Drivers/system.cpp **** 	RCC_ClkInitStruct.ClockType = RCC_CLOCKTYPE_HCLK|RCC_CLOCKTYPE_SYSCLK
 491              		.loc 1 54 30 view .LVU156
 492 023c 0F26     		movs	r6, #15
  45:Drivers/system.cpp **** 	RCC_OscInitStruct.PLL.PLLSource = RCC_PLLSOURCE_HSE;
 493              		.loc 1 45 33 view .LVU157
 494 023e 2495     		str	r5, [sp, #144]
  46:Drivers/system.cpp **** 	RCC_OscInitStruct.PLL.PLLM = 4;
 495              		.loc 1 46 2 is_stmt 1 view .LVU158
  48:Drivers/system.cpp **** 	RCC_OscInitStruct.PLL.PLLP = RCC_PLLP_DIV2;
 496              		.loc 1 48 2 view .LVU159
  49:Drivers/system.cpp **** 	RCC_OscInitStruct.PLL.PLLQ = 7;
 497              		.loc 1 49 2 view .LVU160
  50:Drivers/system.cpp **** 	HAL_RCC_OscConfig(&RCC_OscInitStruct);
 498              		.loc 1 50 2 view .LVU161
  51:Drivers/system.cpp **** 	/** Initializes the CPU, AHB and APB buses clocks
 499              		.loc 1 51 2 view .LVU162
  49:Drivers/system.cpp **** 	RCC_OscInitStruct.PLL.PLLQ = 7;
 500              		.loc 1 49 29 is_stmt 0 view .LVU163
 501 0240 2895     		str	r5, [sp, #160]
  51:Drivers/system.cpp **** 	/** Initializes the CPU, AHB and APB buses clocks
 502              		.loc 1 51 19 view .LVU164
 503 0242 FFF7FEFF 		bl	HAL_RCC_OscConfig
 504              	.LVL2:
 505              		.loc 1 54 2 is_stmt 1 view .LVU165
  55:Drivers/system.cpp **** 	|RCC_CLOCKTYPE_PCLK1|RCC_CLOCKTYPE_PCLK2;
  56:Drivers/system.cpp **** 	RCC_ClkInitStruct.SYSCLKSource = RCC_SYSCLKSOURCE_PLLCLK;
  57:Drivers/system.cpp **** 	RCC_ClkInitStruct.AHBCLKDivider = RCC_SYSCLK_DIV1;
  58:Drivers/system.cpp **** 	RCC_ClkInitStruct.APB1CLKDivider = RCC_HCLK_DIV4;
  59:Drivers/system.cpp **** 	RCC_ClkInitStruct.APB2CLKDivider = RCC_HCLK_DIV2;
 506              		.loc 1 59 35 is_stmt 0 view .LVU166
 507 0246 4FF4805C 		mov	ip, #4096
  58:Drivers/system.cpp **** 	RCC_ClkInitStruct.APB2CLKDivider = RCC_HCLK_DIV2;
 508              		.loc 1 58 35 view .LVU167
 509 024a 4FF4A052 		mov	r2, #5120
  60:Drivers/system.cpp **** 	HAL_RCC_ClockConfig(&RCC_ClkInitStruct, FLASH_LATENCY_5);
 510              		.loc 1 60 21 view .LVU168
 511 024e 0521     		movs	r1, #5
 512 0250 19A8     		add	r0, sp, #100
  59:Drivers/system.cpp **** 	HAL_RCC_ClockConfig(&RCC_ClkInitStruct, FLASH_LATENCY_5);
 513              		.loc 1 59 35 view .LVU169
 514 0252 CDE91C2C 		strd	r2, ip, [sp, #112]
  57:Drivers/system.cpp **** 	RCC_ClkInitStruct.APB1CLKDivider = RCC_HCLK_DIV4;
 515              		.loc 1 57 34 view .LVU170
 516 0256 CDE91A54 		strd	r5, r4, [sp, #104]
  54:Drivers/system.cpp **** 	|RCC_CLOCKTYPE_PCLK1|RCC_CLOCKTYPE_PCLK2;
 517              		.loc 1 54 30 view .LVU171
 518 025a 1996     		str	r6, [sp, #100]
  56:Drivers/system.cpp **** 	RCC_ClkInitStruct.AHBCLKDivider = RCC_SYSCLK_DIV1;
 519              		.loc 1 56 2 is_stmt 1 view .LVU172
  57:Drivers/system.cpp **** 	RCC_ClkInitStruct.APB1CLKDivider = RCC_HCLK_DIV4;
 520              		.loc 1 57 2 view .LVU173
  58:Drivers/system.cpp **** 	RCC_ClkInitStruct.APB2CLKDivider = RCC_HCLK_DIV2;
 521              		.loc 1 58 2 view .LVU174
 522              		.loc 1 60 2 view .LVU175
 523              		.loc 1 60 21 is_stmt 0 view .LVU176
 524 025c FFF7FEFF 		bl	HAL_RCC_ClockConfig
ARM GAS  /var/folders/84/_x1cyy_j36g486tldtwl37280000gn/T//ccE5Un8c.s 			page 14


 525              	.LVL3:
  61:Drivers/system.cpp **** 
  62:Drivers/system.cpp **** 	// Interupt priorities
  63:Drivers/system.cpp **** 	HAL_NVIC_SetPriorityGrouping(NVIC_PRIORITYGROUP_4);
 526              		.loc 1 63 2 is_stmt 1 view .LVU177
 527              		.loc 1 63 30 is_stmt 0 view .LVU178
 528 0260 0320     		movs	r0, #3
 529 0262 FFF7FEFF 		bl	HAL_NVIC_SetPriorityGrouping
 530              	.LVL4:
  64:Drivers/system.cpp **** 	HAL_NVIC_SetPriority(TIM2_IRQn, 0, 0);			// Engine tick
 531              		.loc 1 64 2 is_stmt 1 view .LVU179
 532              		.loc 1 64 22 is_stmt 0 view .LVU180
 533 0266 2246     		mov	r2, r4
 534 0268 2146     		mov	r1, r4
 535 026a 1C20     		movs	r0, #28
 536 026c FFF7FEFF 		bl	HAL_NVIC_SetPriority
 537              	.LVL5:
  65:Drivers/system.cpp **** 	HAL_NVIC_SetPriority(TIM3_IRQn, 1, 0);			// Engine update
 538              		.loc 1 65 2 is_stmt 1 view .LVU181
 539              		.loc 1 65 22 is_stmt 0 view .LVU182
 540 0270 2246     		mov	r2, r4
 541 0272 4146     		mov	r1, r8
 542 0274 1D20     		movs	r0, #29
 543 0276 FFF7FEFF 		bl	HAL_NVIC_SetPriority
 544              	.LVL6:
  66:Drivers/system.cpp **** 	HAL_NVIC_SetPriority(TIM4_IRQn, 2, 0);			// Ui Poll
 545              		.loc 1 66 2 is_stmt 1 view .LVU183
 546              		.loc 1 66 22 is_stmt 0 view .LVU184
 547 027a 2246     		mov	r2, r4
 548 027c 2946     		mov	r1, r5
 549 027e 1E20     		movs	r0, #30
 550 0280 FFF7FEFF 		bl	HAL_NVIC_SetPriority
 551              	.LVL7:
  67:Drivers/system.cpp **** 	HAL_NVIC_SetPriority(DMA2_Stream3_IRQn, 3, 0);	// SDIO
 552              		.loc 1 67 2 is_stmt 1 view .LVU185
 553              		.loc 1 67 22 is_stmt 0 view .LVU186
 554 0284 2246     		mov	r2, r4
 555 0286 0321     		movs	r1, #3
 556 0288 3B20     		movs	r0, #59
 557 028a FFF7FEFF 		bl	HAL_NVIC_SetPriority
 558              	.LVL8:
  68:Drivers/system.cpp **** 	HAL_NVIC_SetPriority(DMA1_Stream4_IRQn, 4, 0);	// LCD
 559              		.loc 1 68 2 is_stmt 1 view .LVU187
 560              		.loc 1 68 22 is_stmt 0 view .LVU188
 561 028e 2246     		mov	r2, r4
 562 0290 3946     		mov	r1, r7
 563 0292 3046     		mov	r0, r6
 564 0294 FFF7FEFF 		bl	HAL_NVIC_SetPriority
 565              	.LVL9:
  69:Drivers/system.cpp **** }
 566              		.loc 1 69 1 view .LVU189
 567 0298 2AB0     		add	sp, sp, #168
 568              		.cfi_def_cfa_offset 24
 569              		@ sp needed
 570 029a BDE8F081 		pop	{r4, r5, r6, r7, r8, pc}
 571              	.L5:
 572 029e 00BF     		.align	2
ARM GAS  /var/folders/84/_x1cyy_j36g486tldtwl37280000gn/T//ccE5Un8c.s 			page 15


 573              	.L4:
 574 02a0 00380240 		.word	1073887232
 575 02a4 00700040 		.word	1073770496
 576              		.cfi_endproc
 577              	.LFE235:
 579              		.global	sys
 580              		.section	.bss.sys,"aw",%nobits
 581              		.align	2
 584              	sys:
 585 0000 00       		.space	1
 586              		.text
 587              	.Letext0:
 588              		.file 2 "/Users/joostbooy/STM32Cube/Repository/STM32Cube_FW_F4_V1.26.1/Drivers/CMSIS/Device/ST/STM
 589              		.file 3 "/usr/local/Caskroom/gcc-arm-embedded/9-2019-q4-major/gcc-arm-none-eabi-9-2019-q4-major/ar
 590              		.file 4 "/usr/local/Caskroom/gcc-arm-embedded/9-2019-q4-major/gcc-arm-none-eabi-9-2019-q4-major/ar
 591              		.file 5 "/Users/joostbooy/STM32Cube/Repository/STM32Cube_FW_F4_V1.26.1/Drivers/CMSIS/Include/core_
 592              		.file 6 "/Users/joostbooy/STM32Cube/Repository/STM32Cube_FW_F4_V1.26.1/Drivers/CMSIS/Device/ST/STM
 593              		.file 7 "/Users/joostbooy/STM32Cube/Repository/STM32Cube_FW_F4_V1.26.1/Drivers/CMSIS/Device/ST/STM
 594              		.file 8 "/Users/joostbooy/STM32Cube/Repository/STM32Cube_FW_F4_V1.26.1/Drivers/STM32F4xx_HAL_Drive
 595              		.file 9 "/Users/joostbooy/STM32Cube/Repository/STM32Cube_FW_F4_V1.26.1/Drivers/STM32F4xx_HAL_Drive
 596              		.file 10 "/Users/joostbooy/STM32Cube/Repository/STM32Cube_FW_F4_V1.26.1/Drivers/STM32F4xx_HAL_Driv
 597              		.file 11 "/Users/joostbooy/STM32Cube/Repository/STM32Cube_FW_F4_V1.26.1/Drivers/STM32F4xx_HAL_Driv
 598              		.file 12 "Drivers/system.h"
ARM GAS  /var/folders/84/_x1cyy_j36g486tldtwl37280000gn/T//ccE5Un8c.s 			page 16

