ARM GAS  /var/folders/84/_x1cyy_j36g486tldtwl37280000gn/T//cckCpRha.s 			page 1


   1              		.cpu cortex-m4
   2              		.eabi_attribute 27, 1
   3              		.eabi_attribute 28, 1
   4              		.eabi_attribute 20, 1
   5              		.eabi_attribute 21, 1
   6              		.eabi_attribute 23, 3
   7              		.eabi_attribute 24, 1
   8              		.eabi_attribute 25, 1
   9              		.eabi_attribute 26, 1
  10              		.eabi_attribute 30, 2
  11              		.eabi_attribute 34, 1
  12              		.eabi_attribute 18, 4
  13              		.file	"trackData.cpp"
  14              		.text
  15              	.Ltext0:
  16              		.cfi_sections	.debug_frame
  17              		.section	.text._ZN9TrackData4initEv,"ax",%progbits
  18              		.align	1
  19              		.p2align 2,,3
  20              		.global	_ZN9TrackData4initEv
  21              		.arch armv7e-m
  22              		.syntax unified
  23              		.thumb
  24              		.thumb_func
  25              		.fpu fpv4-sp-d16
  27              	_ZN9TrackData4initEv:
  28              	.LFB1974:
  29              		.file 1 "Src/Settings/trackData.cpp"
   1:Src/Settings/trackData.cpp **** #include "trackData.h"
   2:Src/Settings/trackData.cpp **** 
   3:Src/Settings/trackData.cpp **** TrackData::List TrackData::pattern_pool_;
   4:Src/Settings/trackData.cpp **** TrackData::Pattern TrackData::pattern_[TrackData::kMaxPatterns];
   5:Src/Settings/trackData.cpp **** 
   6:Src/Settings/trackData.cpp **** void TrackData::init() {
  30              		.loc 1 6 24 view -0
  31              		.cfi_startproc
  32              		@ args = 0, pretend = 0, frame = 0
  33              		@ frame_needed = 0, uses_anonymous_args = 0
   7:Src/Settings/trackData.cpp **** 	pattern_pool_.size_ = kMaxPatterns;
  34              		.loc 1 7 2 view .LVU1
  35              		.loc 1 7 22 is_stmt 0 view .LVU2
  36 0000 1D4A     		ldr	r2, .L17
  37              	.LBB2:
   8:Src/Settings/trackData.cpp **** 
   9:Src/Settings/trackData.cpp **** 	for (int i = 0; i < kMaxPatterns; ++i) {
  10:Src/Settings/trackData.cpp **** 		pattern_pool_.entry_[i] = kMaxPatterns - 1 - i;
  38              		.loc 1 10 27 view .LVU3
  39 0002 1146     		mov	r1, r2
  40              	.LBE2:
   7:Src/Settings/trackData.cpp **** 	pattern_pool_.size_ = kMaxPatterns;
  41              		.loc 1 7 22 view .LVU4
  42 0004 FF23     		movs	r3, #255
  43 0006 FE20     		movs	r0, #254
   6:Src/Settings/trackData.cpp **** 	pattern_pool_.size_ = kMaxPatterns;
  44              		.loc 1 6 24 view .LVU5
  45 0008 2DE9F047 		push	{r4, r5, r6, r7, r8, r9, r10, lr}
  46              		.cfi_def_cfa_offset 32
ARM GAS  /var/folders/84/_x1cyy_j36g486tldtwl37280000gn/T//cckCpRha.s 			page 2


  47              		.cfi_offset 4, -32
  48              		.cfi_offset 5, -28
  49              		.cfi_offset 6, -24
  50              		.cfi_offset 7, -20
  51              		.cfi_offset 8, -16
  52              		.cfi_offset 9, -12
  53              		.cfi_offset 10, -8
  54              		.cfi_offset 14, -4
   7:Src/Settings/trackData.cpp **** 	pattern_pool_.size_ = kMaxPatterns;
  55              		.loc 1 7 22 view .LVU6
  56 000c 82F8FF30 		strb	r3, [r2, #255]
   9:Src/Settings/trackData.cpp **** 		pattern_pool_.entry_[i] = kMaxPatterns - 1 - i;
  57              		.loc 1 9 2 is_stmt 1 view .LVU7
  58              	.LVL0:
  59              	.LBB3:
   9:Src/Settings/trackData.cpp **** 		pattern_pool_.entry_[i] = kMaxPatterns - 1 - i;
  60              		.loc 1 9 20 view .LVU8
  61              		.loc 1 10 27 is_stmt 0 view .LVU9
  62 0010 01F8010B 		strb	r0, [r1], #1
  63 0014 1346     		mov	r3, r2
  64 0016 FD24     		movs	r4, #253
  65 0018 FC25     		movs	r5, #252
  66 001a 0C70     		strb	r4, [r1]
  67 001c 03F8025F 		strb	r5, [r3, #2]!
  68 0020 02F1FE0A 		add	r10, r2, #254
  69 0024 033A     		subs	r2, r2, #3
  70              	.LVL1:
  71              		.loc 1 10 3 is_stmt 1 view .LVU10
   9:Src/Settings/trackData.cpp **** 		pattern_pool_.entry_[i] = kMaxPatterns - 1 - i;
  72              		.loc 1 9 2 view .LVU11
   9:Src/Settings/trackData.cpp **** 		pattern_pool_.entry_[i] = kMaxPatterns - 1 - i;
  73              		.loc 1 9 20 view .LVU12
  74              		.loc 1 10 3 view .LVU13
   9:Src/Settings/trackData.cpp **** 		pattern_pool_.entry_[i] = kMaxPatterns - 1 - i;
  75              		.loc 1 9 2 view .LVU14
   9:Src/Settings/trackData.cpp **** 		pattern_pool_.entry_[i] = kMaxPatterns - 1 - i;
  76              		.loc 1 9 20 view .LVU15
  77              		.loc 1 10 3 view .LVU16
   9:Src/Settings/trackData.cpp **** 		pattern_pool_.entry_[i] = kMaxPatterns - 1 - i;
  78              		.loc 1 9 2 view .LVU17
   9:Src/Settings/trackData.cpp **** 		pattern_pool_.entry_[i] = kMaxPatterns - 1 - i;
  79              		.loc 1 9 20 view .LVU18
  80              	.L2:
  81              		.loc 1 10 3 discriminator 2 view .LVU19
  82 0026 03F1010E 		add	lr, r3, #1
  83 002a 03F1020C 		add	ip, r3, #2
  84 002e DF1C     		adds	r7, r3, #3
  85 0030 1E1D     		adds	r6, r3, #4
  86 0032 5D1D     		adds	r5, r3, #5
  87 0034 9C1D     		adds	r4, r3, #6
  88 0036 D81D     		adds	r0, r3, #7
  89 0038 03F10801 		add	r1, r3, #8
  90 003c A2EB0309 		sub	r9, r2, r3
  91 0040 A2EB0E08 		sub	r8, r2, lr
  92 0044 A2EB0C0C 		sub	ip, r2, ip
  93 0048 D71B     		subs	r7, r2, r7
  94 004a 961B     		subs	r6, r2, r6
ARM GAS  /var/folders/84/_x1cyy_j36g486tldtwl37280000gn/T//cckCpRha.s 			page 3


  95 004c 551B     		subs	r5, r2, r5
  96 004e 141B     		subs	r4, r2, r4
  97 0050 101A     		subs	r0, r2, r0
  98 0052 511A     		subs	r1, r2, r1
  99              		.loc 1 10 27 is_stmt 0 discriminator 2 view .LVU20
 100 0054 83F80190 		strb	r9, [r3, #1]
   9:Src/Settings/trackData.cpp **** 		pattern_pool_.entry_[i] = kMaxPatterns - 1 - i;
 101              		.loc 1 9 2 is_stmt 1 discriminator 2 view .LVU21
   9:Src/Settings/trackData.cpp **** 		pattern_pool_.entry_[i] = kMaxPatterns - 1 - i;
 102              		.loc 1 9 20 discriminator 2 view .LVU22
 103              		.loc 1 10 3 discriminator 2 view .LVU23
 104              		.loc 1 10 27 is_stmt 0 discriminator 2 view .LVU24
 105 0058 83F80280 		strb	r8, [r3, #2]
   9:Src/Settings/trackData.cpp **** 		pattern_pool_.entry_[i] = kMaxPatterns - 1 - i;
 106              		.loc 1 9 2 is_stmt 1 discriminator 2 view .LVU25
   9:Src/Settings/trackData.cpp **** 		pattern_pool_.entry_[i] = kMaxPatterns - 1 - i;
 107              		.loc 1 9 20 discriminator 2 view .LVU26
 108              		.loc 1 10 3 discriminator 2 view .LVU27
 109              		.loc 1 10 27 is_stmt 0 discriminator 2 view .LVU28
 110 005c 83F803C0 		strb	ip, [r3, #3]
   9:Src/Settings/trackData.cpp **** 		pattern_pool_.entry_[i] = kMaxPatterns - 1 - i;
 111              		.loc 1 9 2 is_stmt 1 discriminator 2 view .LVU29
   9:Src/Settings/trackData.cpp **** 		pattern_pool_.entry_[i] = kMaxPatterns - 1 - i;
 112              		.loc 1 9 20 discriminator 2 view .LVU30
 113              		.loc 1 10 3 discriminator 2 view .LVU31
 114              		.loc 1 10 27 is_stmt 0 discriminator 2 view .LVU32
 115 0060 1F71     		strb	r7, [r3, #4]
   9:Src/Settings/trackData.cpp **** 		pattern_pool_.entry_[i] = kMaxPatterns - 1 - i;
 116              		.loc 1 9 2 is_stmt 1 discriminator 2 view .LVU33
   9:Src/Settings/trackData.cpp **** 		pattern_pool_.entry_[i] = kMaxPatterns - 1 - i;
 117              		.loc 1 9 20 discriminator 2 view .LVU34
 118              		.loc 1 10 3 discriminator 2 view .LVU35
 119              		.loc 1 10 27 is_stmt 0 discriminator 2 view .LVU36
 120 0062 5E71     		strb	r6, [r3, #5]
   9:Src/Settings/trackData.cpp **** 		pattern_pool_.entry_[i] = kMaxPatterns - 1 - i;
 121              		.loc 1 9 2 is_stmt 1 discriminator 2 view .LVU37
   9:Src/Settings/trackData.cpp **** 		pattern_pool_.entry_[i] = kMaxPatterns - 1 - i;
 122              		.loc 1 9 20 discriminator 2 view .LVU38
 123              		.loc 1 10 3 discriminator 2 view .LVU39
 124              		.loc 1 10 27 is_stmt 0 discriminator 2 view .LVU40
 125 0064 9D71     		strb	r5, [r3, #6]
   9:Src/Settings/trackData.cpp **** 		pattern_pool_.entry_[i] = kMaxPatterns - 1 - i;
 126              		.loc 1 9 2 is_stmt 1 discriminator 2 view .LVU41
   9:Src/Settings/trackData.cpp **** 		pattern_pool_.entry_[i] = kMaxPatterns - 1 - i;
 127              		.loc 1 9 20 discriminator 2 view .LVU42
 128              		.loc 1 10 3 discriminator 2 view .LVU43
 129              		.loc 1 10 27 is_stmt 0 discriminator 2 view .LVU44
 130 0066 DC71     		strb	r4, [r3, #7]
   9:Src/Settings/trackData.cpp **** 		pattern_pool_.entry_[i] = kMaxPatterns - 1 - i;
 131              		.loc 1 9 2 is_stmt 1 discriminator 2 view .LVU45
   9:Src/Settings/trackData.cpp **** 		pattern_pool_.entry_[i] = kMaxPatterns - 1 - i;
 132              		.loc 1 9 20 discriminator 2 view .LVU46
 133              		.loc 1 10 3 discriminator 2 view .LVU47
 134              		.loc 1 10 27 is_stmt 0 discriminator 2 view .LVU48
 135 0068 1872     		strb	r0, [r3, #8]
   9:Src/Settings/trackData.cpp **** 		pattern_pool_.entry_[i] = kMaxPatterns - 1 - i;
 136              		.loc 1 9 2 is_stmt 1 discriminator 2 view .LVU49
ARM GAS  /var/folders/84/_x1cyy_j36g486tldtwl37280000gn/T//cckCpRha.s 			page 4


   9:Src/Settings/trackData.cpp **** 		pattern_pool_.entry_[i] = kMaxPatterns - 1 - i;
 137              		.loc 1 9 20 discriminator 2 view .LVU50
 138              		.loc 1 10 3 discriminator 2 view .LVU51
 139              		.loc 1 10 27 is_stmt 0 discriminator 2 view .LVU52
 140 006a 03F8091F 		strb	r1, [r3, #9]!
   9:Src/Settings/trackData.cpp **** 		pattern_pool_.entry_[i] = kMaxPatterns - 1 - i;
 141              		.loc 1 9 2 is_stmt 1 discriminator 2 view .LVU53
   9:Src/Settings/trackData.cpp **** 		pattern_pool_.entry_[i] = kMaxPatterns - 1 - i;
 142              		.loc 1 9 20 discriminator 2 view .LVU54
 143 006e 5345     		cmp	r3, r10
 144 0070 D9D1     		bne	.L2
 145              	.LBE3:
  11:Src/Settings/trackData.cpp **** 	}
  12:Src/Settings/trackData.cpp **** }
 146              		.loc 1 12 1 is_stmt 0 view .LVU55
 147 0072 BDE8F087 		pop	{r4, r5, r6, r7, r8, r9, r10, pc}
 148              	.L18:
 149 0076 00BF     		.align	2
 150              	.L17:
 151 0078 00000000 		.word	.LANCHOR0
 152              		.cfi_endproc
 153              	.LFE1974:
 155              		.global	_ZN9TrackData8pattern_E
 156              		.global	_ZN9TrackData13pattern_pool_E
 157              		.section	.bss._ZN9TrackData13pattern_pool_E,"aw",%nobits
 158              		.align	2
 159              		.set	.LANCHOR0,. + 0
 162              	_ZN9TrackData13pattern_pool_E:
 163 0000 00000000 		.space	256
 163      00000000 
 163      00000000 
 163      00000000 
 163      00000000 
 164              		.section	.bss._ZN9TrackData8pattern_E,"aw",%nobits
 165              		.align	2
 168              	_ZN9TrackData8pattern_E:
 169 0000 00000000 		.space	46920
 169      00000000 
 169      00000000 
 169      00000000 
 169      00000000 
 170              		.text
 171              	.Letext0:
 172              		.file 2 "/usr/local/Caskroom/gcc-arm-embedded/9-2019-q4-major/gcc-arm-none-eabi-9-2019-q4-major/ar
 173              		.file 3 "/usr/local/Caskroom/gcc-arm-embedded/9-2019-q4-major/gcc-arm-none-eabi-9-2019-q4-major/ar
 174              		.file 4 "/usr/local/Caskroom/gcc-arm-embedded/9-2019-q4-major/gcc-arm-none-eabi-9-2019-q4-major/ar
 175              		.file 5 "/Users/joostbooy/STM32Cube/Repository/STM32Cube_FW_F4_V1.26.1/Drivers/CMSIS/Include/core_
 176              		.file 6 "/Users/joostbooy/STM32Cube/Repository/STM32Cube_FW_F4_V1.26.1/Drivers/CMSIS/Device/ST/STM
 177              		.file 7 "/usr/local/Caskroom/gcc-arm-embedded/9-2019-q4-major/gcc-arm-none-eabi-9-2019-q4-major/li
 178              		.file 8 "/Users/joostbooy/STM32Cube/Repository/STM32Cube_FW_F4_V1.26.1/Drivers/STM32F4xx_HAL_Drive
 179              		.file 9 "/usr/local/Caskroom/gcc-arm-embedded/9-2019-q4-major/gcc-arm-none-eabi-9-2019-q4-major/ar
 180              		.file 10 "/usr/local/Caskroom/gcc-arm-embedded/9-2019-q4-major/gcc-arm-none-eabi-9-2019-q4-major/a
 181              		.file 11 "/usr/local/Caskroom/gcc-arm-embedded/9-2019-q4-major/gcc-arm-none-eabi-9-2019-q4-major/a
 182              		.file 12 "/usr/local/Caskroom/gcc-arm-embedded/9-2019-q4-major/gcc-arm-none-eabi-9-2019-q4-major/a
 183              		.file 13 "/usr/local/Caskroom/gcc-arm-embedded/9-2019-q4-major/gcc-arm-none-eabi-9-2019-q4-major/a
 184              		.file 14 "/usr/local/Caskroom/gcc-arm-embedded/9-2019-q4-major/gcc-arm-none-eabi-9-2019-q4-major/a
 185              		.file 15 "/usr/local/Caskroom/gcc-arm-embedded/9-2019-q4-major/gcc-arm-none-eabi-9-2019-q4-major/a
ARM GAS  /var/folders/84/_x1cyy_j36g486tldtwl37280000gn/T//cckCpRha.s 			page 5


 186              		.file 16 "/usr/local/Caskroom/gcc-arm-embedded/9-2019-q4-major/gcc-arm-none-eabi-9-2019-q4-major/a
 187              		.file 17 "/usr/local/Caskroom/gcc-arm-embedded/9-2019-q4-major/gcc-arm-none-eabi-9-2019-q4-major/a
 188              		.file 18 "/usr/local/Caskroom/gcc-arm-embedded/9-2019-q4-major/gcc-arm-none-eabi-9-2019-q4-major/a
 189              		.file 19 "/usr/local/Caskroom/gcc-arm-embedded/9-2019-q4-major/gcc-arm-none-eabi-9-2019-q4-major/a
 190              		.file 20 "/usr/local/Caskroom/gcc-arm-embedded/9-2019-q4-major/gcc-arm-none-eabi-9-2019-q4-major/a
 191              		.file 21 "/usr/local/Caskroom/gcc-arm-embedded/9-2019-q4-major/gcc-arm-none-eabi-9-2019-q4-major/a
 192              		.file 22 "/usr/local/Caskroom/gcc-arm-embedded/9-2019-q4-major/gcc-arm-none-eabi-9-2019-q4-major/a
 193              		.file 23 "/usr/local/Caskroom/gcc-arm-embedded/9-2019-q4-major/gcc-arm-none-eabi-9-2019-q4-major/a
 194              		.file 24 "/usr/local/Caskroom/gcc-arm-embedded/9-2019-q4-major/gcc-arm-none-eabi-9-2019-q4-major/a
 195              		.file 25 "/usr/local/Caskroom/gcc-arm-embedded/9-2019-q4-major/gcc-arm-none-eabi-9-2019-q4-major/a
 196              		.file 26 "/usr/local/Caskroom/gcc-arm-embedded/9-2019-q4-major/gcc-arm-none-eabi-9-2019-q4-major/a
 197              		.file 27 "/usr/local/Caskroom/gcc-arm-embedded/9-2019-q4-major/gcc-arm-none-eabi-9-2019-q4-major/a
 198              		.file 28 "/usr/local/Caskroom/gcc-arm-embedded/9-2019-q4-major/gcc-arm-none-eabi-9-2019-q4-major/a
 199              		.file 29 "/usr/local/Caskroom/gcc-arm-embedded/9-2019-q4-major/gcc-arm-none-eabi-9-2019-q4-major/a
 200              		.file 30 "/usr/local/Caskroom/gcc-arm-embedded/9-2019-q4-major/gcc-arm-none-eabi-9-2019-q4-major/a
 201              		.file 31 "/usr/local/Caskroom/gcc-arm-embedded/9-2019-q4-major/gcc-arm-none-eabi-9-2019-q4-major/a
 202              		.file 32 "/usr/local/Caskroom/gcc-arm-embedded/9-2019-q4-major/gcc-arm-none-eabi-9-2019-q4-major/a
 203              		.file 33 "/usr/local/Caskroom/gcc-arm-embedded/9-2019-q4-major/gcc-arm-none-eabi-9-2019-q4-major/l
 204              		.file 34 "<built-in>"
 205              		.file 35 "/usr/local/Caskroom/gcc-arm-embedded/9-2019-q4-major/gcc-arm-none-eabi-9-2019-q4-major/a
 206              		.file 36 "/usr/local/Caskroom/gcc-arm-embedded/9-2019-q4-major/gcc-arm-none-eabi-9-2019-q4-major/a
 207              		.file 37 "/usr/local/Caskroom/gcc-arm-embedded/9-2019-q4-major/gcc-arm-none-eabi-9-2019-q4-major/a
 208              		.file 38 "/usr/local/Caskroom/gcc-arm-embedded/9-2019-q4-major/gcc-arm-none-eabi-9-2019-q4-major/a
 209              		.file 39 "/usr/local/Caskroom/gcc-arm-embedded/9-2019-q4-major/gcc-arm-none-eabi-9-2019-q4-major/a
 210              		.file 40 "/usr/local/Caskroom/gcc-arm-embedded/9-2019-q4-major/gcc-arm-none-eabi-9-2019-q4-major/a
 211              		.file 41 "/usr/local/Caskroom/gcc-arm-embedded/9-2019-q4-major/gcc-arm-none-eabi-9-2019-q4-major/a
 212              		.file 42 "/usr/local/Caskroom/gcc-arm-embedded/9-2019-q4-major/gcc-arm-none-eabi-9-2019-q4-major/a
 213              		.file 43 "/usr/local/Caskroom/gcc-arm-embedded/9-2019-q4-major/gcc-arm-none-eabi-9-2019-q4-major/a
 214              		.file 44 "Src/Settings/trackData.h"
ARM GAS  /var/folders/84/_x1cyy_j36g486tldtwl37280000gn/T//cckCpRha.s 			page 6

