ARM GAS  /var/folders/84/_x1cyy_j36g486tldtwl37280000gn/T//cc3zCcdS.s 			page 1


   1              		.cpu cortex-m4
   2              		.eabi_attribute 27, 1
   3              		.eabi_attribute 28, 1
   4              		.eabi_attribute 20, 1
   5              		.eabi_attribute 21, 1
   6              		.eabi_attribute 23, 3
   7              		.eabi_attribute 24, 1
   8              		.eabi_attribute 25, 1
   9              		.eabi_attribute 26, 1
  10              		.eabi_attribute 30, 2
  11              		.eabi_attribute 34, 1
  12              		.eabi_attribute 18, 4
  13              		.file	"trackEngine.cpp"
  14              		.text
  15              	.Ltext0:
  16              		.cfi_sections	.debug_frame
  17              		.section	.text._ZN11ClockEngine4tickEv,"axG",%progbits,_ZN11ClockEngine4tickEv,comdat
  18              		.align	1
  19              		.p2align 2,,3
  20              		.weak	_ZN11ClockEngine4tickEv
  21              		.arch armv7e-m
  22              		.syntax unified
  23              		.thumb
  24              		.thumb_func
  25              		.fpu fpv4-sp-d16
  27              	_ZN11ClockEngine4tickEv:
  28              	.LVL0:
  29              	.LFB2185:
  30              		.file 1 "Src/Engine/clockEngine.h"
   1:Src/Engine/clockEngine.h **** #ifndef ClockEngine_h
   2:Src/Engine/clockEngine.h **** #define ClockEngine_h
   3:Src/Engine/clockEngine.h **** 
   4:Src/Engine/clockEngine.h **** #include "lookupTables.h"
   5:Src/Engine/clockEngine.h **** #include "stringBuilder.h"
   6:Src/Engine/clockEngine.h **** #include "uiText.h"
   7:Src/Engine/clockEngine.h **** #include "rng.h"
   8:Src/Engine/clockEngine.h **** 
   9:Src/Engine/clockEngine.h **** class ClockEngine {
  10:Src/Engine/clockEngine.h **** 
  11:Src/Engine/clockEngine.h **** public:
  12:Src/Engine/clockEngine.h **** 
  13:Src/Engine/clockEngine.h **** 	enum Speed {
  14:Src/Engine/clockEngine.h **** 		DOTTED_1TH,
  15:Src/Engine/clockEngine.h **** 		WHOLE_1TH,
  16:Src/Engine/clockEngine.h **** 		TRIPLET_1TH,
  17:Src/Engine/clockEngine.h **** 		DOTTED_2TH,
  18:Src/Engine/clockEngine.h **** 		WHOLE_2TH,
  19:Src/Engine/clockEngine.h **** 		TRIPLET_2TH,
  20:Src/Engine/clockEngine.h **** 		DOTTED_4TH,
  21:Src/Engine/clockEngine.h **** 		WHOLE_4TH,
  22:Src/Engine/clockEngine.h **** 		TRIPLET_4TH,
  23:Src/Engine/clockEngine.h **** 		DOTTED_8TH,
  24:Src/Engine/clockEngine.h **** 		WHOLE_8TH,
  25:Src/Engine/clockEngine.h **** 		TRIPLET_8TH,
  26:Src/Engine/clockEngine.h **** 		DOTTED_16TH,
  27:Src/Engine/clockEngine.h **** 		WHOLE_16TH,
  28:Src/Engine/clockEngine.h **** 		TRIPLET_16TH,
ARM GAS  /var/folders/84/_x1cyy_j36g486tldtwl37280000gn/T//cc3zCcdS.s 			page 2


  29:Src/Engine/clockEngine.h **** 		DOTTED_32TH,
  30:Src/Engine/clockEngine.h **** 		WHOLE_32TH,
  31:Src/Engine/clockEngine.h **** 		TRIPLET_32TH,
  32:Src/Engine/clockEngine.h **** 
  33:Src/Engine/clockEngine.h **** 		NUM_SIGNATURES
  34:Src/Engine/clockEngine.h **** 	};
  35:Src/Engine/clockEngine.h **** 
  36:Src/Engine/clockEngine.h **** 	static const char* speed_text_small(int value) {
  37:Src/Engine/clockEngine.h **** 		switch (value)
  38:Src/Engine/clockEngine.h **** 		{
  39:Src/Engine/clockEngine.h **** 		case DOTTED_1TH: 	return "1D";
  40:Src/Engine/clockEngine.h **** 		case WHOLE_1TH:		return "1";
  41:Src/Engine/clockEngine.h **** 		case TRIPLET_1TH:	return "1T";
  42:Src/Engine/clockEngine.h **** 		case DOTTED_2TH: 	return "2D";
  43:Src/Engine/clockEngine.h **** 		case WHOLE_2TH:		return "2";
  44:Src/Engine/clockEngine.h **** 		case TRIPLET_2TH:	return "2T";
  45:Src/Engine/clockEngine.h **** 		case DOTTED_4TH:	return "4D";
  46:Src/Engine/clockEngine.h **** 		case WHOLE_4TH:		return "4";
  47:Src/Engine/clockEngine.h **** 		case TRIPLET_4TH:	return "4T";
  48:Src/Engine/clockEngine.h **** 		case DOTTED_8TH:	return "8D";
  49:Src/Engine/clockEngine.h **** 		case WHOLE_8TH:		return "8";
  50:Src/Engine/clockEngine.h **** 		case TRIPLET_8TH:	return "8T";
  51:Src/Engine/clockEngine.h **** 		case DOTTED_16TH:	return "16D";
  52:Src/Engine/clockEngine.h **** 		case WHOLE_16TH:	return "16";
  53:Src/Engine/clockEngine.h **** 		case TRIPLET_16TH:	return "16T";
  54:Src/Engine/clockEngine.h **** 		case DOTTED_32TH:	return "32D";
  55:Src/Engine/clockEngine.h **** 		case WHOLE_32TH:	return "32";
  56:Src/Engine/clockEngine.h **** 		case TRIPLET_32TH:	return "32T";
  57:Src/Engine/clockEngine.h **** 		default:			return nullptr;
  58:Src/Engine/clockEngine.h **** 			break;
  59:Src/Engine/clockEngine.h **** 		}
  60:Src/Engine/clockEngine.h **** 	}
  61:Src/Engine/clockEngine.h **** 
  62:Src/Engine/clockEngine.h **** 	static const char* speed_text(int value) {
  63:Src/Engine/clockEngine.h **** 		UiText::str.write("1/");
  64:Src/Engine/clockEngine.h **** 		UiText::str.append(speed_text_small(value));
  65:Src/Engine/clockEngine.h **** 		return UiText::str.read();
  66:Src/Engine/clockEngine.h **** 	}
  67:Src/Engine/clockEngine.h **** 
  68:Src/Engine/clockEngine.h **** 	void set_speed(uint8_t speed) {
  69:Src/Engine/clockEngine.h **** 		speed_ = speed;
  70:Src/Engine/clockEngine.h **** 	}
  71:Src/Engine/clockEngine.h **** 
  72:Src/Engine/clockEngine.h **** 	void reset() {
  73:Src/Engine/clockEngine.h **** 		triggered_ = 0;
  74:Src/Engine/clockEngine.h **** 		ticks_passed_ = 0;
  75:Src/Engine/clockEngine.h **** 
  76:Src/Engine/clockEngine.h **** 		prescaler_32th_triplet = 0;
  77:Src/Engine/clockEngine.h **** 		prescaler_32th_whole = 0;
  78:Src/Engine/clockEngine.h **** 		prescaler_32th_dotted = 0;
  79:Src/Engine/clockEngine.h **** 
  80:Src/Engine/clockEngine.h **** 		ticks_32th_triplet = 0;
  81:Src/Engine/clockEngine.h **** 		ticks_32th_whole = 0;
  82:Src/Engine/clockEngine.h **** 		ticks_32th_dotted = 0;
  83:Src/Engine/clockEngine.h **** 	}
  84:Src/Engine/clockEngine.h **** 
  85:Src/Engine/clockEngine.h **** 	bool tick() {
ARM GAS  /var/folders/84/_x1cyy_j36g486tldtwl37280000gn/T//cc3zCcdS.s 			page 3


  31              		.loc 1 85 7 view -0
  32              		.cfi_startproc
  33              		@ args = 0, pretend = 0, frame = 0
  34              		@ frame_needed = 0, uses_anonymous_args = 0
  35              		@ link register save eliminated.
  86:Src/Engine/clockEngine.h **** 		triggered_ = trigger();
  36              		.loc 1 86 3 view .LVU1
  37              	.LBB1253:
  38              	.LBI1253:
  87:Src/Engine/clockEngine.h **** 		ticks_passed_ = ticks();
  88:Src/Engine/clockEngine.h **** 
  89:Src/Engine/clockEngine.h **** 		if (++prescaler_32th_triplet >= step_duration_[TRIPLET_32TH]) {
  90:Src/Engine/clockEngine.h **** 			prescaler_32th_triplet = 0;
  91:Src/Engine/clockEngine.h **** 			++ticks_32th_triplet;
  92:Src/Engine/clockEngine.h **** 		}
  93:Src/Engine/clockEngine.h **** 
  94:Src/Engine/clockEngine.h **** 		if (++prescaler_32th_whole >= step_duration_[WHOLE_32TH]) {
  95:Src/Engine/clockEngine.h **** 			prescaler_32th_whole = 0;
  96:Src/Engine/clockEngine.h **** 			++ticks_32th_whole;
  97:Src/Engine/clockEngine.h **** 		}
  98:Src/Engine/clockEngine.h **** 
  99:Src/Engine/clockEngine.h **** 		if (++prescaler_32th_dotted >= step_duration_[DOTTED_32TH]) {
 100:Src/Engine/clockEngine.h **** 			prescaler_32th_dotted = 0;
 101:Src/Engine/clockEngine.h **** 			++ticks_32th_dotted;
 102:Src/Engine/clockEngine.h **** 		}
 103:Src/Engine/clockEngine.h **** 
 104:Src/Engine/clockEngine.h **** 		return triggered_;
 105:Src/Engine/clockEngine.h **** 	}
 106:Src/Engine/clockEngine.h **** 
 107:Src/Engine/clockEngine.h **** 
 108:Src/Engine/clockEngine.h **** 	inline uint32_t humanise(int amount) {
 109:Src/Engine/clockEngine.h **** 		return Rng::reciprocal() * amount * (step_duration() / 8);
 110:Src/Engine/clockEngine.h **** 	}
 111:Src/Engine/clockEngine.h **** 
 112:Src/Engine/clockEngine.h **** 	inline uint32_t swing(int amount) {
 113:Src/Engine/clockEngine.h **** 		if (amount < 8) {
 114:Src/Engine/clockEngine.h **** 			return (ticks_passed_ & 1) == 0 ? (8 - amount) * (step_duration() / 8) : 0;
 115:Src/Engine/clockEngine.h **** 		} else if (amount > 8) {
 116:Src/Engine/clockEngine.h **** 			return (ticks_passed_ & 1) == 1 ? (amount - 8) * (step_duration() / 8) : 0;
 117:Src/Engine/clockEngine.h **** 		}
 118:Src/Engine/clockEngine.h **** 		return 0;
 119:Src/Engine/clockEngine.h **** 	}
 120:Src/Engine/clockEngine.h **** 
 121:Src/Engine/clockEngine.h **** 	inline bool triggered() {
 122:Src/Engine/clockEngine.h **** 		return triggered_;
 123:Src/Engine/clockEngine.h **** 	}
 124:Src/Engine/clockEngine.h **** 
 125:Src/Engine/clockEngine.h **** 	inline uint32_t ticks_passed() {
 126:Src/Engine/clockEngine.h **** 		return ticks_passed_;
 127:Src/Engine/clockEngine.h **** 	}
 128:Src/Engine/clockEngine.h **** 
 129:Src/Engine/clockEngine.h **** 	inline const uint32_t step_duration() {
 130:Src/Engine/clockEngine.h **** 		return step_duration(speed_);
 131:Src/Engine/clockEngine.h **** 	}
 132:Src/Engine/clockEngine.h **** 
 133:Src/Engine/clockEngine.h **** 	inline const float step_duration_reciprocal() {
 134:Src/Engine/clockEngine.h **** 		return step_duration_reciprocal(speed_);
ARM GAS  /var/folders/84/_x1cyy_j36g486tldtwl37280000gn/T//cc3zCcdS.s 			page 4


 135:Src/Engine/clockEngine.h **** 	}
 136:Src/Engine/clockEngine.h **** 
 137:Src/Engine/clockEngine.h **** 	inline const uint32_t gate_duration(uint8_t index) {
 138:Src/Engine/clockEngine.h **** 		return gate_duration(speed_, index);
 139:Src/Engine/clockEngine.h **** 	}
 140:Src/Engine/clockEngine.h **** 
 141:Src/Engine/clockEngine.h **** 	//static
 142:Src/Engine/clockEngine.h **** 	static inline const uint32_t step_duration(uint8_t speed) {
 143:Src/Engine/clockEngine.h **** 		return step_duration_[speed];
 144:Src/Engine/clockEngine.h **** 	}
 145:Src/Engine/clockEngine.h **** 
 146:Src/Engine/clockEngine.h **** 	static inline const float step_duration_reciprocal(uint8_t speed) {
 147:Src/Engine/clockEngine.h **** 		return step_duration_reciprocal_[speed];
 148:Src/Engine/clockEngine.h **** 	}
 149:Src/Engine/clockEngine.h **** 
 150:Src/Engine/clockEngine.h **** 	static inline const uint32_t gate_duration(uint8_t speed, uint8_t index) {
 151:Src/Engine/clockEngine.h **** 		uint32_t whole_step = step_duration_[speed];
 152:Src/Engine/clockEngine.h **** 		uint32_t quarter_step = whole_step / 4;
 153:Src/Engine/clockEngine.h **** 		return (whole_step * (index / 4)) + (quarter_step * (index % 4));
 154:Src/Engine/clockEngine.h **** 	}
 155:Src/Engine/clockEngine.h **** 
 156:Src/Engine/clockEngine.h **** 	static const char* swing_text(int value) {
 157:Src/Engine/clockEngine.h **** 		return UiText::str.write(value - 8);
 158:Src/Engine/clockEngine.h **** 	}
 159:Src/Engine/clockEngine.h **** 
 160:Src/Engine/clockEngine.h **** 	static const char* gate_duration_text(uint8_t value) {
 161:Src/Engine/clockEngine.h **** 		if (value < 64) {
 162:Src/Engine/clockEngine.h **** 			int steps = value / 4;
 163:Src/Engine/clockEngine.h **** 			int fraction = value % 4;
 164:Src/Engine/clockEngine.h **** 			return UiText::str.write(steps, ".", 25 * fraction);
 165:Src/Engine/clockEngine.h **** 		}
 166:Src/Engine/clockEngine.h **** 		return "TIE";
 167:Src/Engine/clockEngine.h **** 	}
 168:Src/Engine/clockEngine.h **** 
 169:Src/Engine/clockEngine.h **** private:
 170:Src/Engine/clockEngine.h **** 
 171:Src/Engine/clockEngine.h **** 	uint8_t speed_;
 172:Src/Engine/clockEngine.h **** 
 173:Src/Engine/clockEngine.h **** 	bool triggered_;
 174:Src/Engine/clockEngine.h **** 	uint32_t ticks_passed_;
 175:Src/Engine/clockEngine.h **** 
 176:Src/Engine/clockEngine.h **** 	uint8_t prescaler_32th_triplet;
 177:Src/Engine/clockEngine.h **** 	uint8_t prescaler_32th_whole;
 178:Src/Engine/clockEngine.h **** 	uint8_t prescaler_32th_dotted;
 179:Src/Engine/clockEngine.h **** 
 180:Src/Engine/clockEngine.h **** 	uint32_t ticks_32th_triplet;
 181:Src/Engine/clockEngine.h **** 	uint32_t ticks_32th_whole;
 182:Src/Engine/clockEngine.h **** 	uint32_t ticks_32th_dotted;
 183:Src/Engine/clockEngine.h **** 
 184:Src/Engine/clockEngine.h **** 	static const uint32_t step_duration_[NUM_SIGNATURES];
 185:Src/Engine/clockEngine.h **** 	static const float step_duration_reciprocal_[NUM_SIGNATURES];
 186:Src/Engine/clockEngine.h **** 
 187:Src/Engine/clockEngine.h **** 	inline uint32_t ticks() {
 188:Src/Engine/clockEngine.h **** 		switch (speed_)
 189:Src/Engine/clockEngine.h **** 		{
 190:Src/Engine/clockEngine.h **** 		case DOTTED_1TH: 	return ticks_32th_dotted 	/ 32;
 191:Src/Engine/clockEngine.h **** 		case WHOLE_1TH:		return ticks_32th_whole 	/ 32;
ARM GAS  /var/folders/84/_x1cyy_j36g486tldtwl37280000gn/T//cc3zCcdS.s 			page 5


 192:Src/Engine/clockEngine.h **** 		case TRIPLET_1TH:	return ticks_32th_triplet 	/ 32;
 193:Src/Engine/clockEngine.h **** 		case DOTTED_2TH: 	return ticks_32th_dotted 	/ 16;
 194:Src/Engine/clockEngine.h **** 		case WHOLE_2TH:		return ticks_32th_whole 	/ 16;
 195:Src/Engine/clockEngine.h **** 		case TRIPLET_2TH:	return ticks_32th_triplet	/ 16;
 196:Src/Engine/clockEngine.h **** 		case DOTTED_4TH:	return ticks_32th_dotted 	/ 8;
 197:Src/Engine/clockEngine.h **** 		case WHOLE_4TH:		return ticks_32th_whole 	/ 8;
 198:Src/Engine/clockEngine.h **** 		case TRIPLET_4TH:	return ticks_32th_triplet 	/ 8;
 199:Src/Engine/clockEngine.h **** 		case DOTTED_8TH:	return ticks_32th_dotted	/ 4;
 200:Src/Engine/clockEngine.h **** 		case WHOLE_8TH:		return ticks_32th_whole 	/ 4;
 201:Src/Engine/clockEngine.h **** 		case TRIPLET_8TH:	return ticks_32th_triplet	/ 4;
 202:Src/Engine/clockEngine.h **** 		case DOTTED_16TH:	return ticks_32th_dotted 	/ 2;
 203:Src/Engine/clockEngine.h **** 		case WHOLE_16TH:	return ticks_32th_whole 	/ 2;
 204:Src/Engine/clockEngine.h **** 		case TRIPLET_16TH:	return ticks_32th_triplet 	/ 2;
 205:Src/Engine/clockEngine.h **** 		case DOTTED_32TH:	return ticks_32th_dotted;
 206:Src/Engine/clockEngine.h **** 		case WHOLE_32TH:	return ticks_32th_whole;
 207:Src/Engine/clockEngine.h **** 		case TRIPLET_32TH:	return ticks_32th_triplet;
 208:Src/Engine/clockEngine.h **** 		default:			break;
 209:Src/Engine/clockEngine.h **** 		}
 210:Src/Engine/clockEngine.h **** 		return 0;
 211:Src/Engine/clockEngine.h **** 	}
 212:Src/Engine/clockEngine.h **** 
 213:Src/Engine/clockEngine.h **** 	inline bool trigger() {
  39              		.loc 1 213 14 view .LVU2
  40              	.LBB1254:
 214:Src/Engine/clockEngine.h **** 		switch (speed_)
  41              		.loc 1 214 3 view .LVU3
  42              	.LBE1254:
  43              	.LBE1253:
  85:Src/Engine/clockEngine.h **** 		triggered_ = trigger();
  44              		.loc 1 85 7 is_stmt 0 view .LVU4
  45 0000 70B4     		push	{r4, r5, r6}
  46              		.cfi_def_cfa_offset 12
  47              		.cfi_offset 4, -12
  48              		.cfi_offset 5, -8
  49              		.cfi_offset 6, -4
  50 0002 0378     		ldrb	r3, [r0]	@ zero_extendqisi2
  51 0004 112B     		cmp	r3, #17
  52 0006 00F23281 		bhi	.L2
  53 000a DFE813F0 		tbh	[pc, r3, lsl #1]
  54              	.L4:
  55 000e 4000     		.2byte	(.L21-.L4)/2
  56 0010 4A00     		.2byte	(.L20-.L4)/2
  57 0012 5400     		.2byte	(.L19-.L4)/2
  58 0014 5E00     		.2byte	(.L18-.L4)/2
  59 0016 6800     		.2byte	(.L17-.L4)/2
  60 0018 7200     		.2byte	(.L16-.L4)/2
  61 001a 7C00     		.2byte	(.L15-.L4)/2
  62 001c 8600     		.2byte	(.L14-.L4)/2
  63 001e 8E00     		.2byte	(.L13-.L4)/2
  64 0020 9600     		.2byte	(.L12-.L4)/2
  65 0022 9E00     		.2byte	(.L11-.L4)/2
  66 0024 A600     		.2byte	(.L10-.L4)/2
  67 0026 AE00     		.2byte	(.L9-.L4)/2
  68 0028 B600     		.2byte	(.L8-.L4)/2
  69 002a BD00     		.2byte	(.L7-.L4)/2
  70 002c C400     		.2byte	(.L6-.L4)/2
  71 002e CD00     		.2byte	(.L5-.L4)/2
ARM GAS  /var/folders/84/_x1cyy_j36g486tldtwl37280000gn/T//cc3zCcdS.s 			page 6


  72 0030 1200     		.2byte	(.L3-.L4)/2
  73              		.p2align 1
  74              	.L3:
  75              	.LBB1277:
  76              	.LBB1255:
 215:Src/Engine/clockEngine.h **** 		{
 216:Src/Engine/clockEngine.h **** 		case DOTTED_1TH: 	return !prescaler_32th_dotted 	&& !(ticks_32th_dotted 	% 32);
 217:Src/Engine/clockEngine.h **** 		case WHOLE_1TH:		return !prescaler_32th_whole 	&& !(ticks_32th_whole 	% 32);
 218:Src/Engine/clockEngine.h **** 		case TRIPLET_1TH:	return !prescaler_32th_triplet 	&& !(ticks_32th_triplet	% 32);
 219:Src/Engine/clockEngine.h **** 		case DOTTED_2TH: 	return !prescaler_32th_dotted 	&& !(ticks_32th_dotted	% 16);
 220:Src/Engine/clockEngine.h **** 		case WHOLE_2TH:		return !prescaler_32th_whole	&& !(ticks_32th_whole	% 16);
 221:Src/Engine/clockEngine.h **** 		case TRIPLET_2TH:	return !prescaler_32th_triplet	&& !(ticks_32th_triplet % 16);
 222:Src/Engine/clockEngine.h **** 		case DOTTED_4TH:	return !prescaler_32th_dotted	&& !(ticks_32th_dotted 	% 8);
 223:Src/Engine/clockEngine.h **** 		case WHOLE_4TH:		return !prescaler_32th_whole 	&& !(ticks_32th_whole 	% 8);
 224:Src/Engine/clockEngine.h **** 		case TRIPLET_4TH:	return !prescaler_32th_triplet 	&& !(ticks_32th_triplet % 8);
 225:Src/Engine/clockEngine.h **** 		case DOTTED_8TH:	return !prescaler_32th_dotted 	&& !(ticks_32th_dotted 	% 4);
 226:Src/Engine/clockEngine.h **** 		case WHOLE_8TH:		return !prescaler_32th_whole 	&& !(ticks_32th_whole 	% 4);
 227:Src/Engine/clockEngine.h **** 		case TRIPLET_8TH:	return !prescaler_32th_triplet 	&& !(ticks_32th_triplet % 4);
 228:Src/Engine/clockEngine.h **** 		case DOTTED_16TH:	return !prescaler_32th_dotted 	&& !(ticks_32th_dotted 	% 2);
 229:Src/Engine/clockEngine.h **** 		case WHOLE_16TH:	return !prescaler_32th_whole 	&& !(ticks_32th_whole 	% 2);
 230:Src/Engine/clockEngine.h **** 		case TRIPLET_16TH:	return !prescaler_32th_triplet 	&& !(ticks_32th_triplet % 2);
 231:Src/Engine/clockEngine.h **** 		case DOTTED_32TH:	return !prescaler_32th_dotted;
 232:Src/Engine/clockEngine.h **** 		case WHOLE_32TH:	return !prescaler_32th_whole;
 233:Src/Engine/clockEngine.h **** 		case TRIPLET_32TH:	return !prescaler_32th_triplet;
  77              		.loc 1 233 3 is_stmt 1 view .LVU5
  78              		.loc 1 233 22 view .LVU6
  79              		.loc 1 233 30 is_stmt 0 view .LVU7
  80 0032 037A     		ldrb	r3, [r0, #8]	@ zero_extendqisi2
  81              	.LBE1255:
  82              	.LBE1277:
  83              	.LBB1278:
  84              	.LBB1279:
 207:Src/Engine/clockEngine.h **** 		default:			break;
  85              		.loc 1 207 29 view .LVU8
  86 0034 C568     		ldr	r5, [r0, #12]
  87 0036 817A     		ldrb	r1, [r0, #10]	@ zero_extendqisi2
  88 0038 427A     		ldrb	r2, [r0, #9]	@ zero_extendqisi2
  89              	.LBE1279:
  90              	.LBE1278:
  91              	.LBB1308:
  92              	.LBB1256:
  93              		.loc 1 233 30 view .LVU9
  94 003a B3FA83F6 		clz	r6, r3
  95 003e 7609     		lsrs	r6, r6, #5
  96              	.LVL1:
  97              		.loc 1 233 30 view .LVU10
  98              	.LBE1256:
  99              	.LBE1308:
  86:Src/Engine/clockEngine.h **** 		ticks_passed_ = ticks();
 100              		.loc 1 86 14 view .LVU11
 101 0040 4670     		strb	r6, [r0, #1]
  87:Src/Engine/clockEngine.h **** 
 102              		.loc 1 87 3 is_stmt 1 view .LVU12
 103              	.LVL2:
 104              	.LBB1309:
 105              	.LBI1278:
 187:Src/Engine/clockEngine.h **** 		switch (speed_)
ARM GAS  /var/folders/84/_x1cyy_j36g486tldtwl37280000gn/T//cc3zCcdS.s 			page 7


 106              		.loc 1 187 18 view .LVU13
 107              	.LBB1280:
 188:Src/Engine/clockEngine.h **** 		{
 108              		.loc 1 188 3 view .LVU14
 207:Src/Engine/clockEngine.h **** 		default:			break;
 109              		.loc 1 207 3 view .LVU15
 207:Src/Engine/clockEngine.h **** 		default:			break;
 110              		.loc 1 207 22 view .LVU16
 111              	.L67:
 207:Src/Engine/clockEngine.h **** 		default:			break;
 112              		.loc 1 207 22 is_stmt 0 view .LVU17
 113              	.LBE1280:
 114              	.LBE1309:
  89:Src/Engine/clockEngine.h **** 			prescaler_32th_triplet = 0;
 115              		.loc 1 89 62 view .LVU18
 116 0042 8F4C     		ldr	r4, .L89
  87:Src/Engine/clockEngine.h **** 
 117              		.loc 1 87 17 view .LVU19
 118 0044 4560     		str	r5, [r0, #4]
  89:Src/Engine/clockEngine.h **** 			prescaler_32th_triplet = 0;
 119              		.loc 1 89 3 is_stmt 1 view .LVU20
  89:Src/Engine/clockEngine.h **** 			prescaler_32th_triplet = 0;
 120              		.loc 1 89 7 is_stmt 0 view .LVU21
 121 0046 0133     		adds	r3, r3, #1
  89:Src/Engine/clockEngine.h **** 			prescaler_32th_triplet = 0;
 122              		.loc 1 89 3 view .LVU22
 123 0048 656C     		ldr	r5, [r4, #68]
  89:Src/Engine/clockEngine.h **** 			prescaler_32th_triplet = 0;
 124              		.loc 1 89 7 view .LVU23
 125 004a DBB2     		uxtb	r3, r3
  89:Src/Engine/clockEngine.h **** 			prescaler_32th_triplet = 0;
 126              		.loc 1 89 3 view .LVU24
 127 004c AB42     		cmp	r3, r5
  89:Src/Engine/clockEngine.h **** 			prescaler_32th_triplet = 0;
 128              		.loc 1 89 32 view .LVU25
 129 004e 0372     		strb	r3, [r0, #8]
  89:Src/Engine/clockEngine.h **** 			prescaler_32th_triplet = 0;
 130              		.loc 1 89 3 view .LVU26
 131 0050 04D3     		bcc	.L68
  90:Src/Engine/clockEngine.h **** 			++ticks_32th_triplet;
 132              		.loc 1 90 4 is_stmt 1 view .LVU27
  91:Src/Engine/clockEngine.h **** 		}
 133              		.loc 1 91 4 is_stmt 0 view .LVU28
 134 0052 C368     		ldr	r3, [r0, #12]
  90:Src/Engine/clockEngine.h **** 			++ticks_32th_triplet;
 135              		.loc 1 90 27 view .LVU29
 136 0054 0025     		movs	r5, #0
  91:Src/Engine/clockEngine.h **** 		}
 137              		.loc 1 91 4 view .LVU30
 138 0056 0133     		adds	r3, r3, #1
 139 0058 C360     		str	r3, [r0, #12]
  90:Src/Engine/clockEngine.h **** 			++ticks_32th_triplet;
 140              		.loc 1 90 27 view .LVU31
 141 005a 0572     		strb	r5, [r0, #8]
  91:Src/Engine/clockEngine.h **** 		}
 142              		.loc 1 91 4 is_stmt 1 view .LVU32
 143              	.L68:
ARM GAS  /var/folders/84/_x1cyy_j36g486tldtwl37280000gn/T//cc3zCcdS.s 			page 8


  94:Src/Engine/clockEngine.h **** 			prescaler_32th_whole = 0;
 144              		.loc 1 94 3 view .LVU33
 145 005c 236C     		ldr	r3, [r4, #64]
  94:Src/Engine/clockEngine.h **** 			prescaler_32th_whole = 0;
 146              		.loc 1 94 7 is_stmt 0 view .LVU34
 147 005e 0132     		adds	r2, r2, #1
 148 0060 D2B2     		uxtb	r2, r2
  94:Src/Engine/clockEngine.h **** 			prescaler_32th_whole = 0;
 149              		.loc 1 94 3 view .LVU35
 150 0062 9A42     		cmp	r2, r3
  94:Src/Engine/clockEngine.h **** 			prescaler_32th_whole = 0;
 151              		.loc 1 94 30 view .LVU36
 152 0064 4272     		strb	r2, [r0, #9]
  94:Src/Engine/clockEngine.h **** 			prescaler_32th_whole = 0;
 153              		.loc 1 94 3 view .LVU37
 154 0066 04D3     		bcc	.L69
  95:Src/Engine/clockEngine.h **** 			++ticks_32th_whole;
 155              		.loc 1 95 4 is_stmt 1 view .LVU38
  96:Src/Engine/clockEngine.h **** 		}
 156              		.loc 1 96 4 is_stmt 0 view .LVU39
 157 0068 0569     		ldr	r5, [r0, #16]
  95:Src/Engine/clockEngine.h **** 			++ticks_32th_whole;
 158              		.loc 1 95 25 view .LVU40
 159 006a 0023     		movs	r3, #0
  96:Src/Engine/clockEngine.h **** 		}
 160              		.loc 1 96 4 view .LVU41
 161 006c 0135     		adds	r5, r5, #1
 162 006e 0561     		str	r5, [r0, #16]
  95:Src/Engine/clockEngine.h **** 			++ticks_32th_whole;
 163              		.loc 1 95 25 view .LVU42
 164 0070 4372     		strb	r3, [r0, #9]
  96:Src/Engine/clockEngine.h **** 		}
 165              		.loc 1 96 4 is_stmt 1 view .LVU43
 166              	.L69:
  99:Src/Engine/clockEngine.h **** 			prescaler_32th_dotted = 0;
 167              		.loc 1 99 3 view .LVU44
 168 0072 E46B     		ldr	r4, [r4, #60]
  99:Src/Engine/clockEngine.h **** 			prescaler_32th_dotted = 0;
 169              		.loc 1 99 7 is_stmt 0 view .LVU45
 170 0074 0131     		adds	r1, r1, #1
 171 0076 CAB2     		uxtb	r2, r1
  99:Src/Engine/clockEngine.h **** 			prescaler_32th_dotted = 0;
 172              		.loc 1 99 3 view .LVU46
 173 0078 A242     		cmp	r2, r4
  99:Src/Engine/clockEngine.h **** 			prescaler_32th_dotted = 0;
 174              		.loc 1 99 31 view .LVU47
 175 007a 8272     		strb	r2, [r0, #10]
  99:Src/Engine/clockEngine.h **** 			prescaler_32th_dotted = 0;
 176              		.loc 1 99 3 view .LVU48
 177 007c 04D3     		bcc	.L86
 100:Src/Engine/clockEngine.h **** 			++ticks_32th_dotted;
 178              		.loc 1 100 4 is_stmt 1 view .LVU49
 101:Src/Engine/clockEngine.h **** 		}
 179              		.loc 1 101 4 is_stmt 0 view .LVU50
 180 007e 4569     		ldr	r5, [r0, #20]
 100:Src/Engine/clockEngine.h **** 			++ticks_32th_dotted;
 181              		.loc 1 100 26 view .LVU51
ARM GAS  /var/folders/84/_x1cyy_j36g486tldtwl37280000gn/T//cc3zCcdS.s 			page 9


 182 0080 0023     		movs	r3, #0
 101:Src/Engine/clockEngine.h **** 		}
 183              		.loc 1 101 4 view .LVU52
 184 0082 0135     		adds	r5, r5, #1
 185 0084 4561     		str	r5, [r0, #20]
 100:Src/Engine/clockEngine.h **** 			++ticks_32th_dotted;
 186              		.loc 1 100 26 view .LVU53
 187 0086 8372     		strb	r3, [r0, #10]
 101:Src/Engine/clockEngine.h **** 		}
 188              		.loc 1 101 4 is_stmt 1 view .LVU54
 104:Src/Engine/clockEngine.h **** 	}
 189              		.loc 1 104 3 view .LVU55
 190              	.L86:
 105:Src/Engine/clockEngine.h **** 
 191              		.loc 1 105 2 is_stmt 0 view .LVU56
 192 0088 3046     		mov	r0, r6
 193              	.LVL3:
 105:Src/Engine/clockEngine.h **** 
 194              		.loc 1 105 2 view .LVU57
 195 008a 70BC     		pop	{r4, r5, r6}
 196              		.cfi_remember_state
 197              		.cfi_restore 6
 198              		.cfi_restore 5
 199              		.cfi_restore 4
 200              		.cfi_def_cfa_offset 0
 201 008c 7047     		bx	lr
 202              	.LVL4:
 203              	.L21:
 204              		.cfi_restore_state
 205              	.LBB1310:
 206              	.LBB1257:
 216:Src/Engine/clockEngine.h **** 		case WHOLE_1TH:		return !prescaler_32th_whole 	&& !(ticks_32th_whole 	% 32);
 207              		.loc 1 216 3 is_stmt 1 view .LVU58
 216:Src/Engine/clockEngine.h **** 		case WHOLE_1TH:		return !prescaler_32th_whole 	&& !(ticks_32th_whole 	% 32);
 208              		.loc 1 216 21 view .LVU59
 216:Src/Engine/clockEngine.h **** 		case WHOLE_1TH:		return !prescaler_32th_whole 	&& !(ticks_32th_whole 	% 32);
 209              		.loc 1 216 29 is_stmt 0 view .LVU60
 210 008e 817A     		ldrb	r1, [r0, #10]	@ zero_extendqisi2
 216:Src/Engine/clockEngine.h **** 		case WHOLE_1TH:		return !prescaler_32th_whole 	&& !(ticks_32th_whole 	% 32);
 211              		.loc 1 216 57 view .LVU61
 212 0090 4469     		ldr	r4, [r0, #20]
 216:Src/Engine/clockEngine.h **** 		case WHOLE_1TH:		return !prescaler_32th_whole 	&& !(ticks_32th_whole 	% 32);
 213              		.loc 1 216 52 view .LVU62
 214 0092 0029     		cmp	r1, #0
 215 0094 40F0E580 		bne	.L23
 216 0098 E206     		lsls	r2, r4, #27
 217 009a 40F0E280 		bne	.L23
 218 009e 0126     		movs	r6, #1
 219 00a0 E0E0     		b	.L24
 220              	.L20:
 217:Src/Engine/clockEngine.h **** 		case TRIPLET_1TH:	return !prescaler_32th_triplet 	&& !(ticks_32th_triplet	% 32);
 221              		.loc 1 217 3 is_stmt 1 view .LVU63
 217:Src/Engine/clockEngine.h **** 		case TRIPLET_1TH:	return !prescaler_32th_triplet 	&& !(ticks_32th_triplet	% 32);
 222              		.loc 1 217 20 view .LVU64
 217:Src/Engine/clockEngine.h **** 		case TRIPLET_1TH:	return !prescaler_32th_triplet 	&& !(ticks_32th_triplet	% 32);
 223              		.loc 1 217 28 is_stmt 0 view .LVU65
 224 00a2 427A     		ldrb	r2, [r0, #9]	@ zero_extendqisi2
ARM GAS  /var/folders/84/_x1cyy_j36g486tldtwl37280000gn/T//cc3zCcdS.s 			page 10


 217:Src/Engine/clockEngine.h **** 		case TRIPLET_1TH:	return !prescaler_32th_triplet 	&& !(ticks_32th_triplet	% 32);
 225              		.loc 1 217 55 view .LVU66
 226 00a4 0569     		ldr	r5, [r0, #16]
 217:Src/Engine/clockEngine.h **** 		case TRIPLET_1TH:	return !prescaler_32th_triplet 	&& !(ticks_32th_triplet	% 32);
 227              		.loc 1 217 50 view .LVU67
 228 00a6 002A     		cmp	r2, #0
 229 00a8 40F0D580 		bne	.L26
 230 00ac EB06     		lsls	r3, r5, #27
 231 00ae 40F0D280 		bne	.L26
 232 00b2 0126     		movs	r6, #1
 233 00b4 D0E0     		b	.L27
 234              	.L19:
 218:Src/Engine/clockEngine.h **** 		case DOTTED_2TH: 	return !prescaler_32th_dotted 	&& !(ticks_32th_dotted	% 16);
 235              		.loc 1 218 3 is_stmt 1 view .LVU68
 218:Src/Engine/clockEngine.h **** 		case DOTTED_2TH: 	return !prescaler_32th_dotted 	&& !(ticks_32th_dotted	% 16);
 236              		.loc 1 218 21 view .LVU69
 218:Src/Engine/clockEngine.h **** 		case DOTTED_2TH: 	return !prescaler_32th_dotted 	&& !(ticks_32th_dotted	% 16);
 237              		.loc 1 218 29 is_stmt 0 view .LVU70
 238 00b6 037A     		ldrb	r3, [r0, #8]	@ zero_extendqisi2
 218:Src/Engine/clockEngine.h **** 		case DOTTED_2TH: 	return !prescaler_32th_dotted 	&& !(ticks_32th_dotted	% 16);
 239              		.loc 1 218 58 view .LVU71
 240 00b8 C168     		ldr	r1, [r0, #12]
 218:Src/Engine/clockEngine.h **** 		case DOTTED_2TH: 	return !prescaler_32th_dotted 	&& !(ticks_32th_dotted	% 16);
 241              		.loc 1 218 53 view .LVU72
 242 00ba 002B     		cmp	r3, #0
 243 00bc 40F0C580 		bne	.L29
 244 00c0 CE06     		lsls	r6, r1, #27
 245 00c2 40F0C280 		bne	.L29
 246 00c6 0126     		movs	r6, #1
 247 00c8 C0E0     		b	.L30
 248              	.L18:
 219:Src/Engine/clockEngine.h **** 		case WHOLE_2TH:		return !prescaler_32th_whole	&& !(ticks_32th_whole	% 16);
 249              		.loc 1 219 3 is_stmt 1 view .LVU73
 219:Src/Engine/clockEngine.h **** 		case WHOLE_2TH:		return !prescaler_32th_whole	&& !(ticks_32th_whole	% 16);
 250              		.loc 1 219 21 view .LVU74
 219:Src/Engine/clockEngine.h **** 		case WHOLE_2TH:		return !prescaler_32th_whole	&& !(ticks_32th_whole	% 16);
 251              		.loc 1 219 29 is_stmt 0 view .LVU75
 252 00ca 817A     		ldrb	r1, [r0, #10]	@ zero_extendqisi2
 219:Src/Engine/clockEngine.h **** 		case WHOLE_2TH:		return !prescaler_32th_whole	&& !(ticks_32th_whole	% 16);
 253              		.loc 1 219 57 view .LVU76
 254 00cc 4269     		ldr	r2, [r0, #20]
 219:Src/Engine/clockEngine.h **** 		case WHOLE_2TH:		return !prescaler_32th_whole	&& !(ticks_32th_whole	% 16);
 255              		.loc 1 219 52 view .LVU77
 256 00ce 0029     		cmp	r1, #0
 257 00d0 40F0B580 		bne	.L32
 258 00d4 1407     		lsls	r4, r2, #28
 259 00d6 40F0B280 		bne	.L32
 260 00da 0126     		movs	r6, #1
 261 00dc B0E0     		b	.L33
 262              	.L17:
 220:Src/Engine/clockEngine.h **** 		case TRIPLET_2TH:	return !prescaler_32th_triplet	&& !(ticks_32th_triplet % 16);
 263              		.loc 1 220 3 is_stmt 1 view .LVU78
 220:Src/Engine/clockEngine.h **** 		case TRIPLET_2TH:	return !prescaler_32th_triplet	&& !(ticks_32th_triplet % 16);
 264              		.loc 1 220 20 view .LVU79
 220:Src/Engine/clockEngine.h **** 		case TRIPLET_2TH:	return !prescaler_32th_triplet	&& !(ticks_32th_triplet % 16);
 265              		.loc 1 220 28 is_stmt 0 view .LVU80
 266 00de 427A     		ldrb	r2, [r0, #9]	@ zero_extendqisi2
ARM GAS  /var/folders/84/_x1cyy_j36g486tldtwl37280000gn/T//cc3zCcdS.s 			page 11


 220:Src/Engine/clockEngine.h **** 		case TRIPLET_2TH:	return !prescaler_32th_triplet	&& !(ticks_32th_triplet % 16);
 267              		.loc 1 220 54 view .LVU81
 268 00e0 0369     		ldr	r3, [r0, #16]
 220:Src/Engine/clockEngine.h **** 		case TRIPLET_2TH:	return !prescaler_32th_triplet	&& !(ticks_32th_triplet % 16);
 269              		.loc 1 220 49 view .LVU82
 270 00e2 002A     		cmp	r2, #0
 271 00e4 40F0A580 		bne	.L35
 272 00e8 1907     		lsls	r1, r3, #28
 273 00ea 40F0A280 		bne	.L35
 274 00ee 0126     		movs	r6, #1
 275 00f0 A0E0     		b	.L36
 276              	.L16:
 221:Src/Engine/clockEngine.h **** 		case DOTTED_4TH:	return !prescaler_32th_dotted	&& !(ticks_32th_dotted 	% 8);
 277              		.loc 1 221 3 is_stmt 1 view .LVU83
 221:Src/Engine/clockEngine.h **** 		case DOTTED_4TH:	return !prescaler_32th_dotted	&& !(ticks_32th_dotted 	% 8);
 278              		.loc 1 221 21 view .LVU84
 221:Src/Engine/clockEngine.h **** 		case DOTTED_4TH:	return !prescaler_32th_dotted	&& !(ticks_32th_dotted 	% 8);
 279              		.loc 1 221 29 is_stmt 0 view .LVU85
 280 00f2 037A     		ldrb	r3, [r0, #8]	@ zero_extendqisi2
 221:Src/Engine/clockEngine.h **** 		case DOTTED_4TH:	return !prescaler_32th_dotted	&& !(ticks_32th_dotted 	% 8);
 281              		.loc 1 221 57 view .LVU86
 282 00f4 C468     		ldr	r4, [r0, #12]
 221:Src/Engine/clockEngine.h **** 		case DOTTED_4TH:	return !prescaler_32th_dotted	&& !(ticks_32th_dotted 	% 8);
 283              		.loc 1 221 52 view .LVU87
 284 00f6 002B     		cmp	r3, #0
 285 00f8 40F09580 		bne	.L38
 286 00fc 2207     		lsls	r2, r4, #28
 287 00fe 40F09280 		bne	.L38
 288 0102 0126     		movs	r6, #1
 289 0104 90E0     		b	.L39
 290              	.L15:
 222:Src/Engine/clockEngine.h **** 		case WHOLE_4TH:		return !prescaler_32th_whole 	&& !(ticks_32th_whole 	% 8);
 291              		.loc 1 222 3 is_stmt 1 view .LVU88
 222:Src/Engine/clockEngine.h **** 		case WHOLE_4TH:		return !prescaler_32th_whole 	&& !(ticks_32th_whole 	% 8);
 292              		.loc 1 222 20 view .LVU89
 222:Src/Engine/clockEngine.h **** 		case WHOLE_4TH:		return !prescaler_32th_whole 	&& !(ticks_32th_whole 	% 8);
 293              		.loc 1 222 28 is_stmt 0 view .LVU90
 294 0106 817A     		ldrb	r1, [r0, #10]	@ zero_extendqisi2
 222:Src/Engine/clockEngine.h **** 		case WHOLE_4TH:		return !prescaler_32th_whole 	&& !(ticks_32th_whole 	% 8);
 295              		.loc 1 222 55 view .LVU91
 296 0108 4569     		ldr	r5, [r0, #20]
 222:Src/Engine/clockEngine.h **** 		case WHOLE_4TH:		return !prescaler_32th_whole 	&& !(ticks_32th_whole 	% 8);
 297              		.loc 1 222 50 view .LVU92
 298 010a 0029     		cmp	r1, #0
 299 010c 40F08580 		bne	.L41
 300 0110 6E07     		lsls	r6, r5, #29
 301 0112 40F08280 		bne	.L41
 302 0116 0126     		movs	r6, #1
 303 0118 80E0     		b	.L42
 304              	.L14:
 223:Src/Engine/clockEngine.h **** 		case TRIPLET_4TH:	return !prescaler_32th_triplet 	&& !(ticks_32th_triplet % 8);
 305              		.loc 1 223 3 is_stmt 1 view .LVU93
 223:Src/Engine/clockEngine.h **** 		case TRIPLET_4TH:	return !prescaler_32th_triplet 	&& !(ticks_32th_triplet % 8);
 306              		.loc 1 223 20 view .LVU94
 223:Src/Engine/clockEngine.h **** 		case TRIPLET_4TH:	return !prescaler_32th_triplet 	&& !(ticks_32th_triplet % 8);
 307              		.loc 1 223 28 is_stmt 0 view .LVU95
 308 011a 427A     		ldrb	r2, [r0, #9]	@ zero_extendqisi2
ARM GAS  /var/folders/84/_x1cyy_j36g486tldtwl37280000gn/T//cc3zCcdS.s 			page 12


 223:Src/Engine/clockEngine.h **** 		case TRIPLET_4TH:	return !prescaler_32th_triplet 	&& !(ticks_32th_triplet % 8);
 309              		.loc 1 223 55 view .LVU96
 310 011c 0169     		ldr	r1, [r0, #16]
 223:Src/Engine/clockEngine.h **** 		case TRIPLET_4TH:	return !prescaler_32th_triplet 	&& !(ticks_32th_triplet % 8);
 311              		.loc 1 223 50 view .LVU97
 312 011e 002A     		cmp	r2, #0
 313 0120 75D1     		bne	.L44
 314 0122 4C07     		lsls	r4, r1, #29
 315 0124 73D1     		bne	.L44
 316 0126 0126     		movs	r6, #1
 317 0128 72E0     		b	.L45
 318              	.L13:
 224:Src/Engine/clockEngine.h **** 		case DOTTED_8TH:	return !prescaler_32th_dotted 	&& !(ticks_32th_dotted 	% 4);
 319              		.loc 1 224 3 is_stmt 1 view .LVU98
 224:Src/Engine/clockEngine.h **** 		case DOTTED_8TH:	return !prescaler_32th_dotted 	&& !(ticks_32th_dotted 	% 4);
 320              		.loc 1 224 21 view .LVU99
 224:Src/Engine/clockEngine.h **** 		case DOTTED_8TH:	return !prescaler_32th_dotted 	&& !(ticks_32th_dotted 	% 4);
 321              		.loc 1 224 29 is_stmt 0 view .LVU100
 322 012a 037A     		ldrb	r3, [r0, #8]	@ zero_extendqisi2
 224:Src/Engine/clockEngine.h **** 		case DOTTED_8TH:	return !prescaler_32th_dotted 	&& !(ticks_32th_dotted 	% 4);
 323              		.loc 1 224 58 view .LVU101
 324 012c C468     		ldr	r4, [r0, #12]
 224:Src/Engine/clockEngine.h **** 		case DOTTED_8TH:	return !prescaler_32th_dotted 	&& !(ticks_32th_dotted 	% 4);
 325              		.loc 1 224 53 view .LVU102
 326 012e 002B     		cmp	r3, #0
 327 0130 67D1     		bne	.L47
 328 0132 6107     		lsls	r1, r4, #29
 329 0134 65D1     		bne	.L47
 330 0136 0126     		movs	r6, #1
 331 0138 64E0     		b	.L48
 332              	.L12:
 225:Src/Engine/clockEngine.h **** 		case WHOLE_8TH:		return !prescaler_32th_whole 	&& !(ticks_32th_whole 	% 4);
 333              		.loc 1 225 3 is_stmt 1 view .LVU103
 225:Src/Engine/clockEngine.h **** 		case WHOLE_8TH:		return !prescaler_32th_whole 	&& !(ticks_32th_whole 	% 4);
 334              		.loc 1 225 20 view .LVU104
 225:Src/Engine/clockEngine.h **** 		case WHOLE_8TH:		return !prescaler_32th_whole 	&& !(ticks_32th_whole 	% 4);
 335              		.loc 1 225 28 is_stmt 0 view .LVU105
 336 013a 817A     		ldrb	r1, [r0, #10]	@ zero_extendqisi2
 225:Src/Engine/clockEngine.h **** 		case WHOLE_8TH:		return !prescaler_32th_whole 	&& !(ticks_32th_whole 	% 4);
 337              		.loc 1 225 56 view .LVU106
 338 013c 4569     		ldr	r5, [r0, #20]
 225:Src/Engine/clockEngine.h **** 		case WHOLE_8TH:		return !prescaler_32th_whole 	&& !(ticks_32th_whole 	% 4);
 339              		.loc 1 225 51 view .LVU107
 340 013e 0029     		cmp	r1, #0
 341 0140 59D1     		bne	.L50
 342 0142 AA07     		lsls	r2, r5, #30
 343 0144 57D1     		bne	.L50
 344 0146 0126     		movs	r6, #1
 345 0148 56E0     		b	.L51
 346              	.L11:
 226:Src/Engine/clockEngine.h **** 		case TRIPLET_8TH:	return !prescaler_32th_triplet 	&& !(ticks_32th_triplet % 4);
 347              		.loc 1 226 3 is_stmt 1 view .LVU108
 226:Src/Engine/clockEngine.h **** 		case TRIPLET_8TH:	return !prescaler_32th_triplet 	&& !(ticks_32th_triplet % 4);
 348              		.loc 1 226 20 view .LVU109
 226:Src/Engine/clockEngine.h **** 		case TRIPLET_8TH:	return !prescaler_32th_triplet 	&& !(ticks_32th_triplet % 4);
 349              		.loc 1 226 28 is_stmt 0 view .LVU110
 350 014a 427A     		ldrb	r2, [r0, #9]	@ zero_extendqisi2
ARM GAS  /var/folders/84/_x1cyy_j36g486tldtwl37280000gn/T//cc3zCcdS.s 			page 13


 226:Src/Engine/clockEngine.h **** 		case TRIPLET_8TH:	return !prescaler_32th_triplet 	&& !(ticks_32th_triplet % 4);
 351              		.loc 1 226 55 view .LVU111
 352 014c 0469     		ldr	r4, [r0, #16]
 226:Src/Engine/clockEngine.h **** 		case TRIPLET_8TH:	return !prescaler_32th_triplet 	&& !(ticks_32th_triplet % 4);
 353              		.loc 1 226 50 view .LVU112
 354 014e 002A     		cmp	r2, #0
 355 0150 4BD1     		bne	.L53
 356 0152 A307     		lsls	r3, r4, #30
 357 0154 49D1     		bne	.L53
 358 0156 0126     		movs	r6, #1
 359 0158 48E0     		b	.L54
 360              	.L10:
 227:Src/Engine/clockEngine.h **** 		case DOTTED_16TH:	return !prescaler_32th_dotted 	&& !(ticks_32th_dotted 	% 2);
 361              		.loc 1 227 3 is_stmt 1 view .LVU113
 227:Src/Engine/clockEngine.h **** 		case DOTTED_16TH:	return !prescaler_32th_dotted 	&& !(ticks_32th_dotted 	% 2);
 362              		.loc 1 227 21 view .LVU114
 227:Src/Engine/clockEngine.h **** 		case DOTTED_16TH:	return !prescaler_32th_dotted 	&& !(ticks_32th_dotted 	% 2);
 363              		.loc 1 227 29 is_stmt 0 view .LVU115
 364 015a 037A     		ldrb	r3, [r0, #8]	@ zero_extendqisi2
 227:Src/Engine/clockEngine.h **** 		case DOTTED_16TH:	return !prescaler_32th_dotted 	&& !(ticks_32th_dotted 	% 2);
 365              		.loc 1 227 58 view .LVU116
 366 015c C168     		ldr	r1, [r0, #12]
 227:Src/Engine/clockEngine.h **** 		case DOTTED_16TH:	return !prescaler_32th_dotted 	&& !(ticks_32th_dotted 	% 2);
 367              		.loc 1 227 53 view .LVU117
 368 015e 002B     		cmp	r3, #0
 369 0160 3DD1     		bne	.L56
 370 0162 8E07     		lsls	r6, r1, #30
 371 0164 3BD1     		bne	.L56
 372 0166 0126     		movs	r6, #1
 373 0168 3AE0     		b	.L57
 374              	.L9:
 228:Src/Engine/clockEngine.h **** 		case WHOLE_16TH:	return !prescaler_32th_whole 	&& !(ticks_32th_whole 	% 2);
 375              		.loc 1 228 3 is_stmt 1 view .LVU118
 228:Src/Engine/clockEngine.h **** 		case WHOLE_16TH:	return !prescaler_32th_whole 	&& !(ticks_32th_whole 	% 2);
 376              		.loc 1 228 21 view .LVU119
 228:Src/Engine/clockEngine.h **** 		case WHOLE_16TH:	return !prescaler_32th_whole 	&& !(ticks_32th_whole 	% 2);
 377              		.loc 1 228 29 is_stmt 0 view .LVU120
 378 016a 817A     		ldrb	r1, [r0, #10]	@ zero_extendqisi2
 228:Src/Engine/clockEngine.h **** 		case WHOLE_16TH:	return !prescaler_32th_whole 	&& !(ticks_32th_whole 	% 2);
 379              		.loc 1 228 57 view .LVU121
 380 016c 4269     		ldr	r2, [r0, #20]
 228:Src/Engine/clockEngine.h **** 		case WHOLE_16TH:	return !prescaler_32th_whole 	&& !(ticks_32th_whole 	% 2);
 381              		.loc 1 228 52 view .LVU122
 382 016e 0029     		cmp	r1, #0
 383 0170 2FD1     		bne	.L59
 384 0172 D407     		lsls	r4, r2, #31
 385 0174 2DD4     		bmi	.L59
 386 0176 0126     		movs	r6, #1
 387 0178 2CE0     		b	.L60
 388              	.L8:
 229:Src/Engine/clockEngine.h **** 		case TRIPLET_16TH:	return !prescaler_32th_triplet 	&& !(ticks_32th_triplet % 2);
 389              		.loc 1 229 3 is_stmt 1 view .LVU123
 229:Src/Engine/clockEngine.h **** 		case TRIPLET_16TH:	return !prescaler_32th_triplet 	&& !(ticks_32th_triplet % 2);
 390              		.loc 1 229 20 view .LVU124
 229:Src/Engine/clockEngine.h **** 		case TRIPLET_16TH:	return !prescaler_32th_triplet 	&& !(ticks_32th_triplet % 2);
 391              		.loc 1 229 28 is_stmt 0 view .LVU125
 392 017a 427A     		ldrb	r2, [r0, #9]	@ zero_extendqisi2
ARM GAS  /var/folders/84/_x1cyy_j36g486tldtwl37280000gn/T//cc3zCcdS.s 			page 14


 229:Src/Engine/clockEngine.h **** 		case TRIPLET_16TH:	return !prescaler_32th_triplet 	&& !(ticks_32th_triplet % 2);
 393              		.loc 1 229 55 view .LVU126
 394 017c 0369     		ldr	r3, [r0, #16]
 229:Src/Engine/clockEngine.h **** 		case TRIPLET_16TH:	return !prescaler_32th_triplet 	&& !(ticks_32th_triplet % 2);
 395              		.loc 1 229 50 view .LVU127
 396 017e 12BB     		cbnz	r2, .L62
 397 0180 D907     		lsls	r1, r3, #31
 398 0182 20D4     		bmi	.L62
 399 0184 0126     		movs	r6, #1
 400 0186 1FE0     		b	.L63
 401              	.L7:
 230:Src/Engine/clockEngine.h **** 		case DOTTED_32TH:	return !prescaler_32th_dotted;
 402              		.loc 1 230 3 is_stmt 1 view .LVU128
 230:Src/Engine/clockEngine.h **** 		case DOTTED_32TH:	return !prescaler_32th_dotted;
 403              		.loc 1 230 22 view .LVU129
 230:Src/Engine/clockEngine.h **** 		case DOTTED_32TH:	return !prescaler_32th_dotted;
 404              		.loc 1 230 30 is_stmt 0 view .LVU130
 405 0188 037A     		ldrb	r3, [r0, #8]	@ zero_extendqisi2
 230:Src/Engine/clockEngine.h **** 		case DOTTED_32TH:	return !prescaler_32th_dotted;
 406              		.loc 1 230 59 view .LVU131
 407 018a C568     		ldr	r5, [r0, #12]
 230:Src/Engine/clockEngine.h **** 		case DOTTED_32TH:	return !prescaler_32th_dotted;
 408              		.loc 1 230 54 view .LVU132
 409 018c ABB9     		cbnz	r3, .L65
 410 018e EA07     		lsls	r2, r5, #31
 411 0190 13D4     		bmi	.L65
 412 0192 0126     		movs	r6, #1
 413 0194 12E0     		b	.L66
 414              	.L6:
 231:Src/Engine/clockEngine.h **** 		case WHOLE_32TH:	return !prescaler_32th_whole;
 415              		.loc 1 231 3 is_stmt 1 view .LVU133
 231:Src/Engine/clockEngine.h **** 		case WHOLE_32TH:	return !prescaler_32th_whole;
 416              		.loc 1 231 21 view .LVU134
 231:Src/Engine/clockEngine.h **** 		case WHOLE_32TH:	return !prescaler_32th_whole;
 417              		.loc 1 231 29 is_stmt 0 view .LVU135
 418 0196 817A     		ldrb	r1, [r0, #10]	@ zero_extendqisi2
 419              	.LBE1257:
 420              	.LBE1310:
 421              	.LBB1311:
 422              	.LBB1281:
 205:Src/Engine/clockEngine.h **** 		case WHOLE_32TH:	return ticks_32th_whole;
 423              		.loc 1 205 28 view .LVU136
 424 0198 4569     		ldr	r5, [r0, #20]
 425 019a 427A     		ldrb	r2, [r0, #9]	@ zero_extendqisi2
 426 019c 037A     		ldrb	r3, [r0, #8]	@ zero_extendqisi2
 427              	.LBE1281:
 428              	.LBE1311:
 429              	.LBB1312:
 430              	.LBB1258:
 231:Src/Engine/clockEngine.h **** 		case WHOLE_32TH:	return !prescaler_32th_whole;
 431              		.loc 1 231 29 view .LVU137
 432 019e B1FA81F6 		clz	r6, r1
 433 01a2 7609     		lsrs	r6, r6, #5
 434              	.LVL5:
 231:Src/Engine/clockEngine.h **** 		case WHOLE_32TH:	return !prescaler_32th_whole;
 435              		.loc 1 231 29 view .LVU138
 436              	.LBE1258:
ARM GAS  /var/folders/84/_x1cyy_j36g486tldtwl37280000gn/T//cc3zCcdS.s 			page 15


 437              	.LBE1312:
  86:Src/Engine/clockEngine.h **** 		ticks_passed_ = ticks();
 438              		.loc 1 86 14 view .LVU139
 439 01a4 4670     		strb	r6, [r0, #1]
  87:Src/Engine/clockEngine.h **** 
 440              		.loc 1 87 3 is_stmt 1 view .LVU140
 441              	.LVL6:
 442              	.LBB1313:
 187:Src/Engine/clockEngine.h **** 		switch (speed_)
 443              		.loc 1 187 18 view .LVU141
 444              	.LBB1282:
 188:Src/Engine/clockEngine.h **** 		{
 445              		.loc 1 188 3 view .LVU142
 205:Src/Engine/clockEngine.h **** 		case WHOLE_32TH:	return ticks_32th_whole;
 446              		.loc 1 205 3 view .LVU143
 205:Src/Engine/clockEngine.h **** 		case WHOLE_32TH:	return ticks_32th_whole;
 447              		.loc 1 205 21 view .LVU144
 205:Src/Engine/clockEngine.h **** 		case WHOLE_32TH:	return ticks_32th_whole;
 448              		.loc 1 205 28 is_stmt 0 view .LVU145
 449 01a6 4CE7     		b	.L67
 450              	.LVL7:
 451              	.L5:
 205:Src/Engine/clockEngine.h **** 		case WHOLE_32TH:	return ticks_32th_whole;
 452              		.loc 1 205 28 view .LVU146
 453              	.LBE1282:
 454              	.LBE1313:
 455              	.LBB1314:
 456              	.LBB1259:
 232:Src/Engine/clockEngine.h **** 		case TRIPLET_32TH:	return !prescaler_32th_triplet;
 457              		.loc 1 232 3 is_stmt 1 view .LVU147
 232:Src/Engine/clockEngine.h **** 		case TRIPLET_32TH:	return !prescaler_32th_triplet;
 458              		.loc 1 232 20 view .LVU148
 232:Src/Engine/clockEngine.h **** 		case TRIPLET_32TH:	return !prescaler_32th_triplet;
 459              		.loc 1 232 28 is_stmt 0 view .LVU149
 460 01a8 427A     		ldrb	r2, [r0, #9]	@ zero_extendqisi2
 461              	.LBE1259:
 462              	.LBE1314:
 463              	.LBB1315:
 464              	.LBB1283:
 206:Src/Engine/clockEngine.h **** 		case TRIPLET_32TH:	return ticks_32th_triplet;
 465              		.loc 1 206 27 view .LVU150
 466 01aa 0569     		ldr	r5, [r0, #16]
 467 01ac 817A     		ldrb	r1, [r0, #10]	@ zero_extendqisi2
 468 01ae 037A     		ldrb	r3, [r0, #8]	@ zero_extendqisi2
 469              	.LBE1283:
 470              	.LBE1315:
 471              	.LBB1316:
 472              	.LBB1260:
 232:Src/Engine/clockEngine.h **** 		case TRIPLET_32TH:	return !prescaler_32th_triplet;
 473              		.loc 1 232 28 view .LVU151
 474 01b0 B2FA82F4 		clz	r4, r2
 475 01b4 6609     		lsrs	r6, r4, #5
 476              	.LVL8:
 232:Src/Engine/clockEngine.h **** 		case TRIPLET_32TH:	return !prescaler_32th_triplet;
 477              		.loc 1 232 28 view .LVU152
 478              	.LBE1260:
 479              	.LBE1316:
ARM GAS  /var/folders/84/_x1cyy_j36g486tldtwl37280000gn/T//cc3zCcdS.s 			page 16


  86:Src/Engine/clockEngine.h **** 		ticks_passed_ = ticks();
 480              		.loc 1 86 14 view .LVU153
 481 01b6 4670     		strb	r6, [r0, #1]
  87:Src/Engine/clockEngine.h **** 
 482              		.loc 1 87 3 is_stmt 1 view .LVU154
 483              	.LVL9:
 484              	.LBB1317:
 187:Src/Engine/clockEngine.h **** 		switch (speed_)
 485              		.loc 1 187 18 view .LVU155
 486              	.LBB1284:
 188:Src/Engine/clockEngine.h **** 		{
 487              		.loc 1 188 3 view .LVU156
 206:Src/Engine/clockEngine.h **** 		case TRIPLET_32TH:	return ticks_32th_triplet;
 488              		.loc 1 206 3 view .LVU157
 206:Src/Engine/clockEngine.h **** 		case TRIPLET_32TH:	return ticks_32th_triplet;
 489              		.loc 1 206 20 view .LVU158
 206:Src/Engine/clockEngine.h **** 		case TRIPLET_32TH:	return ticks_32th_triplet;
 490              		.loc 1 206 27 is_stmt 0 view .LVU159
 491 01b8 43E7     		b	.L67
 492              	.LVL10:
 493              	.L65:
 206:Src/Engine/clockEngine.h **** 		case TRIPLET_32TH:	return ticks_32th_triplet;
 494              		.loc 1 206 27 view .LVU160
 495              	.LBE1284:
 496              	.LBE1317:
 497              	.LBB1318:
 498              	.LBB1261:
 230:Src/Engine/clockEngine.h **** 		case DOTTED_32TH:	return !prescaler_32th_dotted;
 499              		.loc 1 230 54 view .LVU161
 500 01ba 0026     		movs	r6, #0
 501              	.L66:
 502              	.LVL11:
 230:Src/Engine/clockEngine.h **** 		case DOTTED_32TH:	return !prescaler_32th_dotted;
 503              		.loc 1 230 54 view .LVU162
 504 01bc 817A     		ldrb	r1, [r0, #10]	@ zero_extendqisi2
 505 01be 427A     		ldrb	r2, [r0, #9]	@ zero_extendqisi2
 506              	.LBE1261:
 507              	.LBE1318:
  86:Src/Engine/clockEngine.h **** 		ticks_passed_ = ticks();
 508              		.loc 1 86 14 view .LVU163
 509 01c0 4670     		strb	r6, [r0, #1]
  87:Src/Engine/clockEngine.h **** 
 510              		.loc 1 87 3 is_stmt 1 view .LVU164
 511              	.LVL12:
 512              	.LBB1319:
 187:Src/Engine/clockEngine.h **** 		switch (speed_)
 513              		.loc 1 187 18 view .LVU165
 514              	.LBB1285:
 188:Src/Engine/clockEngine.h **** 		{
 515              		.loc 1 188 3 view .LVU166
 204:Src/Engine/clockEngine.h **** 		case DOTTED_32TH:	return ticks_32th_dotted;
 516              		.loc 1 204 3 view .LVU167
 204:Src/Engine/clockEngine.h **** 		case DOTTED_32TH:	return ticks_32th_dotted;
 517              		.loc 1 204 22 view .LVU168
 204:Src/Engine/clockEngine.h **** 		case DOTTED_32TH:	return ticks_32th_dotted;
 518              		.loc 1 204 51 is_stmt 0 view .LVU169
 519 01c2 6D08     		lsrs	r5, r5, #1
ARM GAS  /var/folders/84/_x1cyy_j36g486tldtwl37280000gn/T//cc3zCcdS.s 			page 17


 520 01c4 3DE7     		b	.L67
 521              	.LVL13:
 522              	.L62:
 204:Src/Engine/clockEngine.h **** 		case DOTTED_32TH:	return ticks_32th_dotted;
 523              		.loc 1 204 51 view .LVU170
 524              	.LBE1285:
 525              	.LBE1319:
 526              	.LBB1320:
 527              	.LBB1262:
 229:Src/Engine/clockEngine.h **** 		case TRIPLET_16TH:	return !prescaler_32th_triplet 	&& !(ticks_32th_triplet % 2);
 528              		.loc 1 229 50 view .LVU171
 529 01c6 0026     		movs	r6, #0
 530              	.L63:
 531              	.LVL14:
 229:Src/Engine/clockEngine.h **** 		case TRIPLET_16TH:	return !prescaler_32th_triplet 	&& !(ticks_32th_triplet % 2);
 532              		.loc 1 229 50 view .LVU172
 533              	.LBE1262:
 534              	.LBE1320:
 535              	.LBB1321:
 536              	.LBB1286:
 203:Src/Engine/clockEngine.h **** 		case TRIPLET_16TH:	return ticks_32th_triplet 	/ 2;
 537              		.loc 1 203 47 view .LVU173
 538 01c8 5D08     		lsrs	r5, r3, #1
 539 01ca 817A     		ldrb	r1, [r0, #10]	@ zero_extendqisi2
 540 01cc 037A     		ldrb	r3, [r0, #8]	@ zero_extendqisi2
 541              	.LBE1286:
 542              	.LBE1321:
  86:Src/Engine/clockEngine.h **** 		ticks_passed_ = ticks();
 543              		.loc 1 86 14 view .LVU174
 544 01ce 4670     		strb	r6, [r0, #1]
  87:Src/Engine/clockEngine.h **** 
 545              		.loc 1 87 3 is_stmt 1 view .LVU175
 546              	.LVL15:
 547              	.LBB1322:
 187:Src/Engine/clockEngine.h **** 		switch (speed_)
 548              		.loc 1 187 18 view .LVU176
 549              	.LBB1287:
 188:Src/Engine/clockEngine.h **** 		{
 550              		.loc 1 188 3 view .LVU177
 203:Src/Engine/clockEngine.h **** 		case TRIPLET_16TH:	return ticks_32th_triplet 	/ 2;
 551              		.loc 1 203 3 view .LVU178
 203:Src/Engine/clockEngine.h **** 		case TRIPLET_16TH:	return ticks_32th_triplet 	/ 2;
 552              		.loc 1 203 20 view .LVU179
 203:Src/Engine/clockEngine.h **** 		case TRIPLET_16TH:	return ticks_32th_triplet 	/ 2;
 553              		.loc 1 203 47 is_stmt 0 view .LVU180
 554 01d0 37E7     		b	.L67
 555              	.LVL16:
 556              	.L59:
 203:Src/Engine/clockEngine.h **** 		case TRIPLET_16TH:	return ticks_32th_triplet 	/ 2;
 557              		.loc 1 203 47 view .LVU181
 558              	.LBE1287:
 559              	.LBE1322:
 560              	.LBB1323:
 561              	.LBB1263:
 228:Src/Engine/clockEngine.h **** 		case WHOLE_16TH:	return !prescaler_32th_whole 	&& !(ticks_32th_whole 	% 2);
 562              		.loc 1 228 52 view .LVU182
 563 01d2 0026     		movs	r6, #0
ARM GAS  /var/folders/84/_x1cyy_j36g486tldtwl37280000gn/T//cc3zCcdS.s 			page 18


 564              	.L60:
 565              	.LVL17:
 228:Src/Engine/clockEngine.h **** 		case WHOLE_16TH:	return !prescaler_32th_whole 	&& !(ticks_32th_whole 	% 2);
 566              		.loc 1 228 52 view .LVU183
 567              	.LBE1263:
 568              	.LBE1323:
 569              	.LBB1324:
 570              	.LBB1288:
 202:Src/Engine/clockEngine.h **** 		case WHOLE_16TH:	return ticks_32th_whole 	/ 2;
 571              		.loc 1 202 49 view .LVU184
 572 01d4 5508     		lsrs	r5, r2, #1
 573 01d6 037A     		ldrb	r3, [r0, #8]	@ zero_extendqisi2
 574 01d8 427A     		ldrb	r2, [r0, #9]	@ zero_extendqisi2
 575              	.LBE1288:
 576              	.LBE1324:
  86:Src/Engine/clockEngine.h **** 		ticks_passed_ = ticks();
 577              		.loc 1 86 14 view .LVU185
 578 01da 4670     		strb	r6, [r0, #1]
  87:Src/Engine/clockEngine.h **** 
 579              		.loc 1 87 3 is_stmt 1 view .LVU186
 580              	.LVL18:
 581              	.LBB1325:
 187:Src/Engine/clockEngine.h **** 		switch (speed_)
 582              		.loc 1 187 18 view .LVU187
 583              	.LBB1289:
 188:Src/Engine/clockEngine.h **** 		{
 584              		.loc 1 188 3 view .LVU188
 202:Src/Engine/clockEngine.h **** 		case WHOLE_16TH:	return ticks_32th_whole 	/ 2;
 585              		.loc 1 202 3 view .LVU189
 202:Src/Engine/clockEngine.h **** 		case WHOLE_16TH:	return ticks_32th_whole 	/ 2;
 586              		.loc 1 202 21 view .LVU190
 202:Src/Engine/clockEngine.h **** 		case WHOLE_16TH:	return ticks_32th_whole 	/ 2;
 587              		.loc 1 202 49 is_stmt 0 view .LVU191
 588 01dc 31E7     		b	.L67
 589              	.LVL19:
 590              	.L56:
 202:Src/Engine/clockEngine.h **** 		case WHOLE_16TH:	return ticks_32th_whole 	/ 2;
 591              		.loc 1 202 49 view .LVU192
 592              	.LBE1289:
 593              	.LBE1325:
 594              	.LBB1326:
 595              	.LBB1264:
 227:Src/Engine/clockEngine.h **** 		case DOTTED_16TH:	return !prescaler_32th_dotted 	&& !(ticks_32th_dotted 	% 2);
 596              		.loc 1 227 53 view .LVU193
 597 01de 0026     		movs	r6, #0
 598              	.L57:
 599              	.LVL20:
 227:Src/Engine/clockEngine.h **** 		case DOTTED_16TH:	return !prescaler_32th_dotted 	&& !(ticks_32th_dotted 	% 2);
 600              		.loc 1 227 53 view .LVU194
 601              	.LBE1264:
 602              	.LBE1326:
 603              	.LBB1327:
 604              	.LBB1290:
 201:Src/Engine/clockEngine.h **** 		case DOTTED_16TH:	return ticks_32th_dotted 	/ 2;
 605              		.loc 1 201 49 view .LVU195
 606 01e0 8D08     		lsrs	r5, r1, #2
 607 01e2 427A     		ldrb	r2, [r0, #9]	@ zero_extendqisi2
ARM GAS  /var/folders/84/_x1cyy_j36g486tldtwl37280000gn/T//cc3zCcdS.s 			page 19


 608 01e4 817A     		ldrb	r1, [r0, #10]	@ zero_extendqisi2
 609              	.LBE1290:
 610              	.LBE1327:
  86:Src/Engine/clockEngine.h **** 		ticks_passed_ = ticks();
 611              		.loc 1 86 14 view .LVU196
 612 01e6 4670     		strb	r6, [r0, #1]
  87:Src/Engine/clockEngine.h **** 
 613              		.loc 1 87 3 is_stmt 1 view .LVU197
 614              	.LVL21:
 615              	.LBB1328:
 187:Src/Engine/clockEngine.h **** 		switch (speed_)
 616              		.loc 1 187 18 view .LVU198
 617              	.LBB1291:
 188:Src/Engine/clockEngine.h **** 		{
 618              		.loc 1 188 3 view .LVU199
 201:Src/Engine/clockEngine.h **** 		case DOTTED_16TH:	return ticks_32th_dotted 	/ 2;
 619              		.loc 1 201 3 view .LVU200
 201:Src/Engine/clockEngine.h **** 		case DOTTED_16TH:	return ticks_32th_dotted 	/ 2;
 620              		.loc 1 201 21 view .LVU201
 201:Src/Engine/clockEngine.h **** 		case DOTTED_16TH:	return ticks_32th_dotted 	/ 2;
 621              		.loc 1 201 49 is_stmt 0 view .LVU202
 622 01e8 2BE7     		b	.L67
 623              	.LVL22:
 624              	.L53:
 201:Src/Engine/clockEngine.h **** 		case DOTTED_16TH:	return ticks_32th_dotted 	/ 2;
 625              		.loc 1 201 49 view .LVU203
 626              	.LBE1291:
 627              	.LBE1328:
 628              	.LBB1329:
 629              	.LBB1265:
 226:Src/Engine/clockEngine.h **** 		case TRIPLET_8TH:	return !prescaler_32th_triplet 	&& !(ticks_32th_triplet % 4);
 630              		.loc 1 226 50 view .LVU204
 631 01ea 0026     		movs	r6, #0
 632              	.L54:
 633              	.LVL23:
 226:Src/Engine/clockEngine.h **** 		case TRIPLET_8TH:	return !prescaler_32th_triplet 	&& !(ticks_32th_triplet % 4);
 634              		.loc 1 226 50 view .LVU205
 635 01ec 817A     		ldrb	r1, [r0, #10]	@ zero_extendqisi2
 636 01ee 037A     		ldrb	r3, [r0, #8]	@ zero_extendqisi2
 637              	.LBE1265:
 638              	.LBE1329:
  86:Src/Engine/clockEngine.h **** 		ticks_passed_ = ticks();
 639              		.loc 1 86 14 view .LVU206
 640 01f0 4670     		strb	r6, [r0, #1]
  87:Src/Engine/clockEngine.h **** 
 641              		.loc 1 87 3 is_stmt 1 view .LVU207
 642              	.LVL24:
 643              	.LBB1330:
 187:Src/Engine/clockEngine.h **** 		switch (speed_)
 644              		.loc 1 187 18 view .LVU208
 645              	.LBB1292:
 188:Src/Engine/clockEngine.h **** 		{
 646              		.loc 1 188 3 view .LVU209
 200:Src/Engine/clockEngine.h **** 		case TRIPLET_8TH:	return ticks_32th_triplet	/ 4;
 647              		.loc 1 200 3 view .LVU210
 200:Src/Engine/clockEngine.h **** 		case TRIPLET_8TH:	return ticks_32th_triplet	/ 4;
 648              		.loc 1 200 20 view .LVU211
ARM GAS  /var/folders/84/_x1cyy_j36g486tldtwl37280000gn/T//cc3zCcdS.s 			page 20


 200:Src/Engine/clockEngine.h **** 		case TRIPLET_8TH:	return ticks_32th_triplet	/ 4;
 649              		.loc 1 200 47 is_stmt 0 view .LVU212
 650 01f2 A508     		lsrs	r5, r4, #2
 651 01f4 25E7     		b	.L67
 652              	.LVL25:
 653              	.L50:
 200:Src/Engine/clockEngine.h **** 		case TRIPLET_8TH:	return ticks_32th_triplet	/ 4;
 654              		.loc 1 200 47 view .LVU213
 655              	.LBE1292:
 656              	.LBE1330:
 657              	.LBB1331:
 658              	.LBB1266:
 225:Src/Engine/clockEngine.h **** 		case WHOLE_8TH:		return !prescaler_32th_whole 	&& !(ticks_32th_whole 	% 4);
 659              		.loc 1 225 51 view .LVU214
 660 01f6 0026     		movs	r6, #0
 661              	.L51:
 662              	.LVL26:
 225:Src/Engine/clockEngine.h **** 		case WHOLE_8TH:		return !prescaler_32th_whole 	&& !(ticks_32th_whole 	% 4);
 663              		.loc 1 225 51 view .LVU215
 664 01f8 427A     		ldrb	r2, [r0, #9]	@ zero_extendqisi2
 665 01fa 037A     		ldrb	r3, [r0, #8]	@ zero_extendqisi2
 666              	.LBE1266:
 667              	.LBE1331:
  86:Src/Engine/clockEngine.h **** 		ticks_passed_ = ticks();
 668              		.loc 1 86 14 view .LVU216
 669 01fc 4670     		strb	r6, [r0, #1]
  87:Src/Engine/clockEngine.h **** 
 670              		.loc 1 87 3 is_stmt 1 view .LVU217
 671              	.LVL27:
 672              	.LBB1332:
 187:Src/Engine/clockEngine.h **** 		switch (speed_)
 673              		.loc 1 187 18 view .LVU218
 674              	.LBB1293:
 188:Src/Engine/clockEngine.h **** 		{
 675              		.loc 1 188 3 view .LVU219
 199:Src/Engine/clockEngine.h **** 		case WHOLE_8TH:		return ticks_32th_whole 	/ 4;
 676              		.loc 1 199 3 view .LVU220
 199:Src/Engine/clockEngine.h **** 		case WHOLE_8TH:		return ticks_32th_whole 	/ 4;
 677              		.loc 1 199 20 view .LVU221
 199:Src/Engine/clockEngine.h **** 		case WHOLE_8TH:		return ticks_32th_whole 	/ 4;
 678              		.loc 1 199 47 is_stmt 0 view .LVU222
 679 01fe AD08     		lsrs	r5, r5, #2
 680 0200 1FE7     		b	.L67
 681              	.LVL28:
 682              	.L47:
 199:Src/Engine/clockEngine.h **** 		case WHOLE_8TH:		return ticks_32th_whole 	/ 4;
 683              		.loc 1 199 47 view .LVU223
 684              	.LBE1293:
 685              	.LBE1332:
 686              	.LBB1333:
 687              	.LBB1267:
 224:Src/Engine/clockEngine.h **** 		case DOTTED_8TH:	return !prescaler_32th_dotted 	&& !(ticks_32th_dotted 	% 4);
 688              		.loc 1 224 53 view .LVU224
 689 0202 0026     		movs	r6, #0
 690              	.L48:
 691              	.LVL29:
 224:Src/Engine/clockEngine.h **** 		case DOTTED_8TH:	return !prescaler_32th_dotted 	&& !(ticks_32th_dotted 	% 4);
ARM GAS  /var/folders/84/_x1cyy_j36g486tldtwl37280000gn/T//cc3zCcdS.s 			page 21


 692              		.loc 1 224 53 view .LVU225
 693 0204 817A     		ldrb	r1, [r0, #10]	@ zero_extendqisi2
 694 0206 427A     		ldrb	r2, [r0, #9]	@ zero_extendqisi2
 695              	.LBE1267:
 696              	.LBE1333:
  86:Src/Engine/clockEngine.h **** 		ticks_passed_ = ticks();
 697              		.loc 1 86 14 view .LVU226
 698 0208 4670     		strb	r6, [r0, #1]
  87:Src/Engine/clockEngine.h **** 
 699              		.loc 1 87 3 is_stmt 1 view .LVU227
 700              	.LVL30:
 701              	.LBB1334:
 187:Src/Engine/clockEngine.h **** 		switch (speed_)
 702              		.loc 1 187 18 view .LVU228
 703              	.LBB1294:
 188:Src/Engine/clockEngine.h **** 		{
 704              		.loc 1 188 3 view .LVU229
 198:Src/Engine/clockEngine.h **** 		case DOTTED_8TH:	return ticks_32th_dotted	/ 4;
 705              		.loc 1 198 3 view .LVU230
 198:Src/Engine/clockEngine.h **** 		case DOTTED_8TH:	return ticks_32th_dotted	/ 4;
 706              		.loc 1 198 21 view .LVU231
 198:Src/Engine/clockEngine.h **** 		case DOTTED_8TH:	return ticks_32th_dotted	/ 4;
 707              		.loc 1 198 50 is_stmt 0 view .LVU232
 708 020a E508     		lsrs	r5, r4, #3
 709 020c 19E7     		b	.L67
 710              	.LVL31:
 711              	.L44:
 198:Src/Engine/clockEngine.h **** 		case DOTTED_8TH:	return ticks_32th_dotted	/ 4;
 712              		.loc 1 198 50 view .LVU233
 713              	.LBE1294:
 714              	.LBE1334:
 715              	.LBB1335:
 716              	.LBB1268:
 223:Src/Engine/clockEngine.h **** 		case TRIPLET_4TH:	return !prescaler_32th_triplet 	&& !(ticks_32th_triplet % 8);
 717              		.loc 1 223 50 view .LVU234
 718 020e 0026     		movs	r6, #0
 719              	.L45:
 720              	.LVL32:
 223:Src/Engine/clockEngine.h **** 		case TRIPLET_4TH:	return !prescaler_32th_triplet 	&& !(ticks_32th_triplet % 8);
 721              		.loc 1 223 50 view .LVU235
 722              	.LBE1268:
 723              	.LBE1335:
 724              	.LBB1336:
 725              	.LBB1295:
 197:Src/Engine/clockEngine.h **** 		case TRIPLET_4TH:	return ticks_32th_triplet 	/ 8;
 726              		.loc 1 197 47 view .LVU236
 727 0210 CD08     		lsrs	r5, r1, #3
 728 0212 037A     		ldrb	r3, [r0, #8]	@ zero_extendqisi2
 729 0214 817A     		ldrb	r1, [r0, #10]	@ zero_extendqisi2
 730              	.LBE1295:
 731              	.LBE1336:
  86:Src/Engine/clockEngine.h **** 		ticks_passed_ = ticks();
 732              		.loc 1 86 14 view .LVU237
 733 0216 4670     		strb	r6, [r0, #1]
  87:Src/Engine/clockEngine.h **** 
 734              		.loc 1 87 3 is_stmt 1 view .LVU238
 735              	.LVL33:
ARM GAS  /var/folders/84/_x1cyy_j36g486tldtwl37280000gn/T//cc3zCcdS.s 			page 22


 736              	.LBB1337:
 187:Src/Engine/clockEngine.h **** 		switch (speed_)
 737              		.loc 1 187 18 view .LVU239
 738              	.LBB1296:
 188:Src/Engine/clockEngine.h **** 		{
 739              		.loc 1 188 3 view .LVU240
 197:Src/Engine/clockEngine.h **** 		case TRIPLET_4TH:	return ticks_32th_triplet 	/ 8;
 740              		.loc 1 197 3 view .LVU241
 197:Src/Engine/clockEngine.h **** 		case TRIPLET_4TH:	return ticks_32th_triplet 	/ 8;
 741              		.loc 1 197 20 view .LVU242
 197:Src/Engine/clockEngine.h **** 		case TRIPLET_4TH:	return ticks_32th_triplet 	/ 8;
 742              		.loc 1 197 47 is_stmt 0 view .LVU243
 743 0218 13E7     		b	.L67
 744              	.LVL34:
 745              	.L41:
 197:Src/Engine/clockEngine.h **** 		case TRIPLET_4TH:	return ticks_32th_triplet 	/ 8;
 746              		.loc 1 197 47 view .LVU244
 747              	.LBE1296:
 748              	.LBE1337:
 749              	.LBB1338:
 750              	.LBB1269:
 222:Src/Engine/clockEngine.h **** 		case WHOLE_4TH:		return !prescaler_32th_whole 	&& !(ticks_32th_whole 	% 8);
 751              		.loc 1 222 50 view .LVU245
 752 021a 0026     		movs	r6, #0
 753              	.L42:
 754              	.LVL35:
 222:Src/Engine/clockEngine.h **** 		case WHOLE_4TH:		return !prescaler_32th_whole 	&& !(ticks_32th_whole 	% 8);
 755              		.loc 1 222 50 view .LVU246
 756 021c 427A     		ldrb	r2, [r0, #9]	@ zero_extendqisi2
 757 021e 037A     		ldrb	r3, [r0, #8]	@ zero_extendqisi2
 758              	.LBE1269:
 759              	.LBE1338:
  86:Src/Engine/clockEngine.h **** 		ticks_passed_ = ticks();
 760              		.loc 1 86 14 view .LVU247
 761 0220 4670     		strb	r6, [r0, #1]
  87:Src/Engine/clockEngine.h **** 
 762              		.loc 1 87 3 is_stmt 1 view .LVU248
 763              	.LVL36:
 764              	.LBB1339:
 187:Src/Engine/clockEngine.h **** 		switch (speed_)
 765              		.loc 1 187 18 view .LVU249
 766              	.LBB1297:
 188:Src/Engine/clockEngine.h **** 		{
 767              		.loc 1 188 3 view .LVU250
 196:Src/Engine/clockEngine.h **** 		case WHOLE_4TH:		return ticks_32th_whole 	/ 8;
 768              		.loc 1 196 3 view .LVU251
 196:Src/Engine/clockEngine.h **** 		case WHOLE_4TH:		return ticks_32th_whole 	/ 8;
 769              		.loc 1 196 20 view .LVU252
 196:Src/Engine/clockEngine.h **** 		case WHOLE_4TH:		return ticks_32th_whole 	/ 8;
 770              		.loc 1 196 48 is_stmt 0 view .LVU253
 771 0222 ED08     		lsrs	r5, r5, #3
 772 0224 0DE7     		b	.L67
 773              	.LVL37:
 774              	.L38:
 196:Src/Engine/clockEngine.h **** 		case WHOLE_4TH:		return ticks_32th_whole 	/ 8;
 775              		.loc 1 196 48 view .LVU254
 776              	.LBE1297:
ARM GAS  /var/folders/84/_x1cyy_j36g486tldtwl37280000gn/T//cc3zCcdS.s 			page 23


 777              	.LBE1339:
 778              	.LBB1340:
 779              	.LBB1270:
 221:Src/Engine/clockEngine.h **** 		case DOTTED_4TH:	return !prescaler_32th_dotted	&& !(ticks_32th_dotted 	% 8);
 780              		.loc 1 221 52 view .LVU255
 781 0226 0026     		movs	r6, #0
 782              	.L39:
 783              	.LVL38:
 221:Src/Engine/clockEngine.h **** 		case DOTTED_4TH:	return !prescaler_32th_dotted	&& !(ticks_32th_dotted 	% 8);
 784              		.loc 1 221 52 view .LVU256
 785 0228 817A     		ldrb	r1, [r0, #10]	@ zero_extendqisi2
 786 022a 427A     		ldrb	r2, [r0, #9]	@ zero_extendqisi2
 787              	.LBE1270:
 788              	.LBE1340:
  86:Src/Engine/clockEngine.h **** 		ticks_passed_ = ticks();
 789              		.loc 1 86 14 view .LVU257
 790 022c 4670     		strb	r6, [r0, #1]
  87:Src/Engine/clockEngine.h **** 
 791              		.loc 1 87 3 is_stmt 1 view .LVU258
 792              	.LVL39:
 793              	.LBB1341:
 187:Src/Engine/clockEngine.h **** 		switch (speed_)
 794              		.loc 1 187 18 view .LVU259
 795              	.LBB1298:
 188:Src/Engine/clockEngine.h **** 		{
 796              		.loc 1 188 3 view .LVU260
 195:Src/Engine/clockEngine.h **** 		case DOTTED_4TH:	return ticks_32th_dotted 	/ 8;
 797              		.loc 1 195 3 view .LVU261
 195:Src/Engine/clockEngine.h **** 		case DOTTED_4TH:	return ticks_32th_dotted 	/ 8;
 798              		.loc 1 195 21 view .LVU262
 195:Src/Engine/clockEngine.h **** 		case DOTTED_4TH:	return ticks_32th_dotted 	/ 8;
 799              		.loc 1 195 49 is_stmt 0 view .LVU263
 800 022e 2509     		lsrs	r5, r4, #4
 801 0230 07E7     		b	.L67
 802              	.LVL40:
 803              	.L35:
 195:Src/Engine/clockEngine.h **** 		case DOTTED_4TH:	return ticks_32th_dotted 	/ 8;
 804              		.loc 1 195 49 view .LVU264
 805              	.LBE1298:
 806              	.LBE1341:
 807              	.LBB1342:
 808              	.LBB1271:
 220:Src/Engine/clockEngine.h **** 		case TRIPLET_2TH:	return !prescaler_32th_triplet	&& !(ticks_32th_triplet % 16);
 809              		.loc 1 220 49 view .LVU265
 810 0232 0026     		movs	r6, #0
 811              	.L36:
 812              	.LVL41:
 220:Src/Engine/clockEngine.h **** 		case TRIPLET_2TH:	return !prescaler_32th_triplet	&& !(ticks_32th_triplet % 16);
 813              		.loc 1 220 49 view .LVU266
 814              	.LBE1271:
 815              	.LBE1342:
 816              	.LBB1343:
 817              	.LBB1299:
 194:Src/Engine/clockEngine.h **** 		case TRIPLET_2TH:	return ticks_32th_triplet	/ 16;
 818              		.loc 1 194 47 view .LVU267
 819 0234 1D09     		lsrs	r5, r3, #4
 820 0236 817A     		ldrb	r1, [r0, #10]	@ zero_extendqisi2
ARM GAS  /var/folders/84/_x1cyy_j36g486tldtwl37280000gn/T//cc3zCcdS.s 			page 24


 821 0238 037A     		ldrb	r3, [r0, #8]	@ zero_extendqisi2
 822              	.LBE1299:
 823              	.LBE1343:
  86:Src/Engine/clockEngine.h **** 		ticks_passed_ = ticks();
 824              		.loc 1 86 14 view .LVU268
 825 023a 4670     		strb	r6, [r0, #1]
  87:Src/Engine/clockEngine.h **** 
 826              		.loc 1 87 3 is_stmt 1 view .LVU269
 827              	.LVL42:
 828              	.LBB1344:
 187:Src/Engine/clockEngine.h **** 		switch (speed_)
 829              		.loc 1 187 18 view .LVU270
 830              	.LBB1300:
 188:Src/Engine/clockEngine.h **** 		{
 831              		.loc 1 188 3 view .LVU271
 194:Src/Engine/clockEngine.h **** 		case TRIPLET_2TH:	return ticks_32th_triplet	/ 16;
 832              		.loc 1 194 3 view .LVU272
 194:Src/Engine/clockEngine.h **** 		case TRIPLET_2TH:	return ticks_32th_triplet	/ 16;
 833              		.loc 1 194 20 view .LVU273
 194:Src/Engine/clockEngine.h **** 		case TRIPLET_2TH:	return ticks_32th_triplet	/ 16;
 834              		.loc 1 194 47 is_stmt 0 view .LVU274
 835 023c 01E7     		b	.L67
 836              	.LVL43:
 837              	.L32:
 194:Src/Engine/clockEngine.h **** 		case TRIPLET_2TH:	return ticks_32th_triplet	/ 16;
 838              		.loc 1 194 47 view .LVU275
 839              	.LBE1300:
 840              	.LBE1344:
 841              	.LBB1345:
 842              	.LBB1272:
 219:Src/Engine/clockEngine.h **** 		case WHOLE_2TH:		return !prescaler_32th_whole	&& !(ticks_32th_whole	% 16);
 843              		.loc 1 219 52 view .LVU276
 844 023e 0026     		movs	r6, #0
 845              	.L33:
 846              	.LVL44:
 219:Src/Engine/clockEngine.h **** 		case WHOLE_2TH:		return !prescaler_32th_whole	&& !(ticks_32th_whole	% 16);
 847              		.loc 1 219 52 view .LVU277
 848              	.LBE1272:
 849              	.LBE1345:
 850              	.LBB1346:
 851              	.LBB1301:
 193:Src/Engine/clockEngine.h **** 		case WHOLE_2TH:		return ticks_32th_whole 	/ 16;
 852              		.loc 1 193 49 view .LVU278
 853 0240 1509     		lsrs	r5, r2, #4
 854 0242 037A     		ldrb	r3, [r0, #8]	@ zero_extendqisi2
 855 0244 427A     		ldrb	r2, [r0, #9]	@ zero_extendqisi2
 856              	.LBE1301:
 857              	.LBE1346:
  86:Src/Engine/clockEngine.h **** 		ticks_passed_ = ticks();
 858              		.loc 1 86 14 view .LVU279
 859 0246 4670     		strb	r6, [r0, #1]
  87:Src/Engine/clockEngine.h **** 
 860              		.loc 1 87 3 is_stmt 1 view .LVU280
 861              	.LVL45:
 862              	.LBB1347:
 187:Src/Engine/clockEngine.h **** 		switch (speed_)
 863              		.loc 1 187 18 view .LVU281
ARM GAS  /var/folders/84/_x1cyy_j36g486tldtwl37280000gn/T//cc3zCcdS.s 			page 25


 864              	.LBB1302:
 188:Src/Engine/clockEngine.h **** 		{
 865              		.loc 1 188 3 view .LVU282
 193:Src/Engine/clockEngine.h **** 		case WHOLE_2TH:		return ticks_32th_whole 	/ 16;
 866              		.loc 1 193 3 view .LVU283
 193:Src/Engine/clockEngine.h **** 		case WHOLE_2TH:		return ticks_32th_whole 	/ 16;
 867              		.loc 1 193 21 view .LVU284
 193:Src/Engine/clockEngine.h **** 		case WHOLE_2TH:		return ticks_32th_whole 	/ 16;
 868              		.loc 1 193 49 is_stmt 0 view .LVU285
 869 0248 FBE6     		b	.L67
 870              	.LVL46:
 871              	.L29:
 193:Src/Engine/clockEngine.h **** 		case WHOLE_2TH:		return ticks_32th_whole 	/ 16;
 872              		.loc 1 193 49 view .LVU286
 873              	.LBE1302:
 874              	.LBE1347:
 875              	.LBB1348:
 876              	.LBB1273:
 218:Src/Engine/clockEngine.h **** 		case DOTTED_2TH: 	return !prescaler_32th_dotted 	&& !(ticks_32th_dotted	% 16);
 877              		.loc 1 218 53 view .LVU287
 878 024a 0026     		movs	r6, #0
 879              	.L30:
 880              	.LVL47:
 218:Src/Engine/clockEngine.h **** 		case DOTTED_2TH: 	return !prescaler_32th_dotted 	&& !(ticks_32th_dotted	% 16);
 881              		.loc 1 218 53 view .LVU288
 882              	.LBE1273:
 883              	.LBE1348:
 884              	.LBB1349:
 885              	.LBB1303:
 192:Src/Engine/clockEngine.h **** 		case DOTTED_2TH: 	return ticks_32th_dotted 	/ 16;
 886              		.loc 1 192 50 view .LVU289
 887 024c 4D09     		lsrs	r5, r1, #5
 888 024e 427A     		ldrb	r2, [r0, #9]	@ zero_extendqisi2
 889 0250 817A     		ldrb	r1, [r0, #10]	@ zero_extendqisi2
 890              	.LBE1303:
 891              	.LBE1349:
  86:Src/Engine/clockEngine.h **** 		ticks_passed_ = ticks();
 892              		.loc 1 86 14 view .LVU290
 893 0252 4670     		strb	r6, [r0, #1]
  87:Src/Engine/clockEngine.h **** 
 894              		.loc 1 87 3 is_stmt 1 view .LVU291
 895              	.LVL48:
 896              	.LBB1350:
 187:Src/Engine/clockEngine.h **** 		switch (speed_)
 897              		.loc 1 187 18 view .LVU292
 898              	.LBB1304:
 188:Src/Engine/clockEngine.h **** 		{
 899              		.loc 1 188 3 view .LVU293
 192:Src/Engine/clockEngine.h **** 		case DOTTED_2TH: 	return ticks_32th_dotted 	/ 16;
 900              		.loc 1 192 3 view .LVU294
 192:Src/Engine/clockEngine.h **** 		case DOTTED_2TH: 	return ticks_32th_dotted 	/ 16;
 901              		.loc 1 192 21 view .LVU295
 192:Src/Engine/clockEngine.h **** 		case DOTTED_2TH: 	return ticks_32th_dotted 	/ 16;
 902              		.loc 1 192 50 is_stmt 0 view .LVU296
 903 0254 F5E6     		b	.L67
 904              	.LVL49:
 905              	.L26:
ARM GAS  /var/folders/84/_x1cyy_j36g486tldtwl37280000gn/T//cc3zCcdS.s 			page 26


 192:Src/Engine/clockEngine.h **** 		case DOTTED_2TH: 	return ticks_32th_dotted 	/ 16;
 906              		.loc 1 192 50 view .LVU297
 907              	.LBE1304:
 908              	.LBE1350:
 909              	.LBB1351:
 910              	.LBB1274:
 217:Src/Engine/clockEngine.h **** 		case TRIPLET_1TH:	return !prescaler_32th_triplet 	&& !(ticks_32th_triplet	% 32);
 911              		.loc 1 217 50 view .LVU298
 912 0256 0026     		movs	r6, #0
 913              	.L27:
 914              	.LVL50:
 217:Src/Engine/clockEngine.h **** 		case TRIPLET_1TH:	return !prescaler_32th_triplet 	&& !(ticks_32th_triplet	% 32);
 915              		.loc 1 217 50 view .LVU299
 916 0258 817A     		ldrb	r1, [r0, #10]	@ zero_extendqisi2
 917 025a 037A     		ldrb	r3, [r0, #8]	@ zero_extendqisi2
 918              	.LBE1274:
 919              	.LBE1351:
  86:Src/Engine/clockEngine.h **** 		ticks_passed_ = ticks();
 920              		.loc 1 86 14 view .LVU300
 921 025c 4670     		strb	r6, [r0, #1]
  87:Src/Engine/clockEngine.h **** 
 922              		.loc 1 87 3 is_stmt 1 view .LVU301
 923              	.LVL51:
 924              	.LBB1352:
 187:Src/Engine/clockEngine.h **** 		switch (speed_)
 925              		.loc 1 187 18 view .LVU302
 926              	.LBB1305:
 188:Src/Engine/clockEngine.h **** 		{
 927              		.loc 1 188 3 view .LVU303
 191:Src/Engine/clockEngine.h **** 		case TRIPLET_1TH:	return ticks_32th_triplet 	/ 32;
 928              		.loc 1 191 3 view .LVU304
 191:Src/Engine/clockEngine.h **** 		case TRIPLET_1TH:	return ticks_32th_triplet 	/ 32;
 929              		.loc 1 191 20 view .LVU305
 191:Src/Engine/clockEngine.h **** 		case TRIPLET_1TH:	return ticks_32th_triplet 	/ 32;
 930              		.loc 1 191 47 is_stmt 0 view .LVU306
 931 025e 6D09     		lsrs	r5, r5, #5
 932 0260 EFE6     		b	.L67
 933              	.LVL52:
 934              	.L23:
 191:Src/Engine/clockEngine.h **** 		case TRIPLET_1TH:	return ticks_32th_triplet 	/ 32;
 935              		.loc 1 191 47 view .LVU307
 936              	.LBE1305:
 937              	.LBE1352:
 938              	.LBB1353:
 939              	.LBB1275:
 216:Src/Engine/clockEngine.h **** 		case WHOLE_1TH:		return !prescaler_32th_whole 	&& !(ticks_32th_whole 	% 32);
 940              		.loc 1 216 52 view .LVU308
 941 0262 0026     		movs	r6, #0
 942              	.L24:
 943              	.LVL53:
 216:Src/Engine/clockEngine.h **** 		case WHOLE_1TH:		return !prescaler_32th_whole 	&& !(ticks_32th_whole 	% 32);
 944              		.loc 1 216 52 view .LVU309
 945 0264 427A     		ldrb	r2, [r0, #9]	@ zero_extendqisi2
 946 0266 037A     		ldrb	r3, [r0, #8]	@ zero_extendqisi2
 947              	.LBE1275:
 948              	.LBE1353:
  86:Src/Engine/clockEngine.h **** 		ticks_passed_ = ticks();
ARM GAS  /var/folders/84/_x1cyy_j36g486tldtwl37280000gn/T//cc3zCcdS.s 			page 27


 949              		.loc 1 86 14 view .LVU310
 950 0268 4670     		strb	r6, [r0, #1]
  87:Src/Engine/clockEngine.h **** 
 951              		.loc 1 87 3 is_stmt 1 view .LVU311
 952              	.LVL54:
 953              	.LBB1354:
 187:Src/Engine/clockEngine.h **** 		switch (speed_)
 954              		.loc 1 187 18 view .LVU312
 955              	.LBB1306:
 188:Src/Engine/clockEngine.h **** 		{
 956              		.loc 1 188 3 view .LVU313
 190:Src/Engine/clockEngine.h **** 		case WHOLE_1TH:		return ticks_32th_whole 	/ 32;
 957              		.loc 1 190 3 view .LVU314
 190:Src/Engine/clockEngine.h **** 		case WHOLE_1TH:		return ticks_32th_whole 	/ 32;
 958              		.loc 1 190 21 view .LVU315
 190:Src/Engine/clockEngine.h **** 		case WHOLE_1TH:		return ticks_32th_whole 	/ 32;
 959              		.loc 1 190 49 is_stmt 0 view .LVU316
 960 026a 6509     		lsrs	r5, r4, #5
 961 026c E9E6     		b	.L67
 962              	.LVL55:
 963              	.L2:
 190:Src/Engine/clockEngine.h **** 		case WHOLE_1TH:		return ticks_32th_whole 	/ 32;
 964              		.loc 1 190 49 view .LVU317
 965              	.LBE1306:
 966              	.LBE1354:
  86:Src/Engine/clockEngine.h **** 		ticks_passed_ = ticks();
 967              		.loc 1 86 14 view .LVU318
 968 026e 0023     		movs	r3, #0
 969              	.LBB1355:
 970              	.LBB1276:
 234:Src/Engine/clockEngine.h **** 		default:			break;
 235:Src/Engine/clockEngine.h **** 		}
 236:Src/Engine/clockEngine.h **** 		return false;
 971              		.loc 1 236 10 view .LVU319
 972 0270 1E46     		mov	r6, r3
 973              	.LBE1276:
 974              	.LBE1355:
  86:Src/Engine/clockEngine.h **** 		ticks_passed_ = ticks();
 975              		.loc 1 86 14 view .LVU320
 976 0272 4370     		strb	r3, [r0, #1]
  87:Src/Engine/clockEngine.h **** 
 977              		.loc 1 87 3 is_stmt 1 view .LVU321
 978              	.LVL56:
 979              	.LBB1356:
 187:Src/Engine/clockEngine.h **** 		switch (speed_)
 980              		.loc 1 187 18 view .LVU322
 981              	.LBB1307:
 188:Src/Engine/clockEngine.h **** 		{
 982              		.loc 1 188 3 view .LVU323
 210:Src/Engine/clockEngine.h **** 	}
 983              		.loc 1 210 10 is_stmt 0 view .LVU324
 984 0274 1D46     		mov	r5, r3
 985 0276 817A     		ldrb	r1, [r0, #10]	@ zero_extendqisi2
 986 0278 427A     		ldrb	r2, [r0, #9]	@ zero_extendqisi2
 987 027a 037A     		ldrb	r3, [r0, #8]	@ zero_extendqisi2
 988 027c E1E6     		b	.L67
 989              	.L90:
ARM GAS  /var/folders/84/_x1cyy_j36g486tldtwl37280000gn/T//cc3zCcdS.s 			page 28


 990 027e 00BF     		.align	2
 991              	.L89:
 992 0280 00000000 		.word	_ZN11ClockEngine14step_duration_E
 993              	.LBE1307:
 994              	.LBE1356:
 995              		.cfi_endproc
 996              	.LFE2185:
 998              		.section	.text._ZN10TrackState4tickEv,"axG",%progbits,_ZN10TrackState4tickEv,comdat
 999              		.align	1
 1000              		.p2align 2,,3
 1001              		.weak	_ZN10TrackState4tickEv
 1002              		.syntax unified
 1003              		.thumb
 1004              		.thumb_func
 1005              		.fpu fpv4-sp-d16
 1007              	_ZN10TrackState4tickEv:
 1008              	.LVL57:
 1009              	.LFB2716:
 1010              		.file 2 "Src/Engine/trackState.h"
   1:Src/Engine/trackState.h **** #ifndef TrackState_h
   2:Src/Engine/trackState.h **** #define TrackState_h
   3:Src/Engine/trackState.h **** 
   4:Src/Engine/trackState.h **** #include "settings.h"
   5:Src/Engine/trackState.h **** #include "midiOutputEngine.h"
   6:Src/Engine/trackState.h **** #include "clockEngine.h"
   7:Src/Engine/trackState.h **** #include "positionEngine.h"
   8:Src/Engine/trackState.h **** #include "repeatEngine.h"
   9:Src/Engine/trackState.h **** #include "reciprocal.h"
  10:Src/Engine/trackState.h **** #include "curve.h"
  11:Src/Engine/trackState.h **** 
  12:Src/Engine/trackState.h **** class TrackState {
  13:Src/Engine/trackState.h **** 
  14:Src/Engine/trackState.h **** public:
  15:Src/Engine/trackState.h **** 
  16:Src/Engine/trackState.h **** 	ClockEngine clock;
  17:Src/Engine/trackState.h **** 	RepeatEngine repeat;
  18:Src/Engine/trackState.h **** 	PositionEngine position;
  19:Src/Engine/trackState.h **** 	MidiEvent::Event event;
  20:Src/Engine/trackState.h **** 
  21:Src/Engine/trackState.h **** 	void init(uint8_t track_index, MidiOutputEngine *outputEngine) {
  22:Src/Engine/trackState.h **** 		outputEngine_ = outputEngine;
  23:Src/Engine/trackState.h **** 
  24:Src/Engine/trackState.h **** 		track_index_ = track_index;
  25:Src/Engine/trackState.h **** 		track_ = &settings.song.track(track_index_);
  26:Src/Engine/trackState.h **** 
  27:Src/Engine/trackState.h **** 		MidiEvent::set_source(&event, MidiEvent::TRACK, track_index_);
  28:Src/Engine/trackState.h **** 	}
  29:Src/Engine/trackState.h **** 
  30:Src/Engine/trackState.h **** 	inline Track *track() {
  31:Src/Engine/trackState.h **** 		return track_;
  32:Src/Engine/trackState.h **** 	}
  33:Src/Engine/trackState.h **** 
  34:Src/Engine/trackState.h **** 	inline uint32_t pattern_index() {
  35:Src/Engine/trackState.h **** 		return pattern_index_;
  36:Src/Engine/trackState.h **** 	}
  37:Src/Engine/trackState.h **** 
  38:Src/Engine/trackState.h **** 	inline uint32_t step_index() {
ARM GAS  /var/folders/84/_x1cyy_j36g486tldtwl37280000gn/T//cc3zCcdS.s 			page 29


  39:Src/Engine/trackState.h **** 		return step_index_;
  40:Src/Engine/trackState.h **** 	}
  41:Src/Engine/trackState.h **** 
  42:Src/Engine/trackState.h **** 	void reset() {
  43:Src/Engine/trackState.h **** 		delay_ = 0;
  44:Src/Engine/trackState.h **** 		pattern_index_ = 0;
  45:Src/Engine/trackState.h **** 		step_index_ = 0;
  46:Src/Engine/trackState.h **** 
  47:Src/Engine/trackState.h **** 		clock.reset();
  48:Src/Engine/trackState.h **** 		position.reset();
  49:Src/Engine/trackState.h **** 		repeat.reset();
  50:Src/Engine/trackState.h **** 	}
  51:Src/Engine/trackState.h **** 
  52:Src/Engine/trackState.h **** 	bool tick() {
 1011              		.loc 2 52 7 is_stmt 1 view -0
 1012              		.cfi_startproc
 1013              		@ args = 0, pretend = 0, frame = 32
 1014              		@ frame_needed = 0, uses_anonymous_args = 0
  53:Src/Engine/trackState.h **** 		// check tick
  54:Src/Engine/trackState.h **** 		clock.set_speed(track_->clock_speed());
 1015              		.loc 2 54 3 view .LVU326
  52:Src/Engine/trackState.h **** 		// check tick
 1016              		.loc 2 52 7 is_stmt 0 view .LVU327
 1017 0000 2DE9F04F 		push	{r4, r5, r6, r7, r8, r9, r10, fp, lr}
 1018              		.cfi_def_cfa_offset 36
 1019              		.cfi_offset 4, -36
 1020              		.cfi_offset 5, -32
 1021              		.cfi_offset 6, -28
 1022              		.cfi_offset 7, -24
 1023              		.cfi_offset 8, -20
 1024              		.cfi_offset 9, -16
 1025              		.cfi_offset 10, -12
 1026              		.cfi_offset 11, -8
 1027              		.cfi_offset 14, -4
 1028              		.loc 2 54 19 view .LVU328
 1029 0004 D0F8A870 		ldr	r7, [r0, #168]
 1030              	.LBB1440:
 1031              	.LBI1440:
 1032              		.file 3 "Src/Settings/baseTrack.h"
   1:Src/Settings/baseTrack.h **** #ifndef BaseTrack_h
   2:Src/Settings/baseTrack.h **** #define BaseTrack_h
   3:Src/Settings/baseTrack.h **** 
   4:Src/Settings/baseTrack.h **** #include "stmf4lib.h"
   5:Src/Settings/baseTrack.h **** #include "stringBuilder.h"
   6:Src/Settings/baseTrack.h **** #include "stringUtils.h"
   7:Src/Settings/baseTrack.h **** #include "trackData.h"
   8:Src/Settings/baseTrack.h **** #include "pattern.h"
   9:Src/Settings/baseTrack.h **** #include "midiPort.h"
  10:Src/Settings/baseTrack.h **** #include "clockEngine.h"
  11:Src/Settings/baseTrack.h **** #include "positionEngine.h"
  12:Src/Settings/baseTrack.h **** #include "repeatEngine.h"
  13:Src/Settings/baseTrack.h **** #include "uiText.h"
  14:Src/Settings/baseTrack.h **** 
  15:Src/Settings/baseTrack.h **** #define ASSERT_STEP_ITEMS(count) static_assert(count < TrackData::kMaxStepItems, "To many step item
  16:Src/Settings/baseTrack.h **** 
  17:Src/Settings/baseTrack.h **** class BaseTrack {
  18:Src/Settings/baseTrack.h **** 
ARM GAS  /var/folders/84/_x1cyy_j36g486tldtwl37280000gn/T//cc3zCcdS.s 			page 30


  19:Src/Settings/baseTrack.h **** public:
  20:Src/Settings/baseTrack.h **** 
  21:Src/Settings/baseTrack.h **** 	enum Type {
  22:Src/Settings/baseTrack.h **** 		NOTE_TRACK,
  23:Src/Settings/baseTrack.h **** 		CHORD_TRACK,
  24:Src/Settings/baseTrack.h **** 		DRUM_TRACK,
  25:Src/Settings/baseTrack.h **** 		CURVE_TRACK,
  26:Src/Settings/baseTrack.h **** 
  27:Src/Settings/baseTrack.h **** 		NUM_TYPES
  28:Src/Settings/baseTrack.h **** 	};
  29:Src/Settings/baseTrack.h **** 
  30:Src/Settings/baseTrack.h **** 	static const char* type_text(uint8_t type) {
  31:Src/Settings/baseTrack.h **** 		switch (type)
  32:Src/Settings/baseTrack.h **** 		{
  33:Src/Settings/baseTrack.h **** 		case NOTE_TRACK:	return "NOTE";
  34:Src/Settings/baseTrack.h **** 		case CHORD_TRACK:	return "CHORD";
  35:Src/Settings/baseTrack.h **** 		case DRUM_TRACK:	return "DRUM";
  36:Src/Settings/baseTrack.h **** 		case CURVE_TRACK:	return "CURVE";
  37:Src/Settings/baseTrack.h **** 		default:			return nullptr;
  38:Src/Settings/baseTrack.h **** 			break;
  39:Src/Settings/baseTrack.h **** 		}
  40:Src/Settings/baseTrack.h **** 	}
  41:Src/Settings/baseTrack.h **** 
  42:Src/Settings/baseTrack.h **** 	Pattern pattern;
  43:Src/Settings/baseTrack.h **** 
  44:Src/Settings/baseTrack.h **** 	void init(TrackData *data) {
  45:Src/Settings/baseTrack.h **** 		data_ = data;
  46:Src/Settings/baseTrack.h **** 
  47:Src/Settings/baseTrack.h **** 		pattern_list = &data_->pattern_list_;
  48:Src/Settings/baseTrack.h **** 		pattern_pool = &data_->pattern_pool_;
  49:Src/Settings/baseTrack.h **** 		pattern_list->size_ = 0;
  50:Src/Settings/baseTrack.h **** 
  51:Src/Settings/baseTrack.h **** 		pattern.init(pattern_list);
  52:Src/Settings/baseTrack.h **** 	}
  53:Src/Settings/baseTrack.h **** 
  54:Src/Settings/baseTrack.h **** 	static constexpr uint8_t max_label_length() {
  55:Src/Settings/baseTrack.h **** 		return TrackData::kMaxLabelLength;
  56:Src/Settings/baseTrack.h **** 	}
  57:Src/Settings/baseTrack.h **** 
  58:Src/Settings/baseTrack.h **** 	static constexpr uint16_t max_patterns() {
  59:Src/Settings/baseTrack.h **** 		return TrackData::kMaxPatterns;
  60:Src/Settings/baseTrack.h **** 	}
  61:Src/Settings/baseTrack.h **** 
  62:Src/Settings/baseTrack.h **** 	static constexpr uint8_t max_steps_per_pattern() {
  63:Src/Settings/baseTrack.h **** 		return TrackData::kMaxStepsPerPattern;
  64:Src/Settings/baseTrack.h **** 	}
  65:Src/Settings/baseTrack.h **** 
  66:Src/Settings/baseTrack.h **** 	constexpr uint32_t* settings() {
  67:Src/Settings/baseTrack.h **** 		return &data_->serial_[0];
  68:Src/Settings/baseTrack.h **** 	}
  69:Src/Settings/baseTrack.h **** 
  70:Src/Settings/baseTrack.h **** 	// type
  71:Src/Settings/baseTrack.h **** 	uint8_t type() {
  72:Src/Settings/baseTrack.h **** 		return data_->type_;
  73:Src/Settings/baseTrack.h **** 	}
  74:Src/Settings/baseTrack.h **** 
  75:Src/Settings/baseTrack.h **** 	void set_type(int value) {
ARM GAS  /var/folders/84/_x1cyy_j36g486tldtwl37280000gn/T//cc3zCcdS.s 			page 31


  76:Src/Settings/baseTrack.h **** 		data_->type_ = stmlib::clip(0, NUM_TYPES - 1, value);
  77:Src/Settings/baseTrack.h **** 	}
  78:Src/Settings/baseTrack.h **** 
  79:Src/Settings/baseTrack.h **** 	const char* type_text() {
  80:Src/Settings/baseTrack.h **** 		return type_text(type());
  81:Src/Settings/baseTrack.h **** 	}
  82:Src/Settings/baseTrack.h **** 
  83:Src/Settings/baseTrack.h **** 	// port
  84:Src/Settings/baseTrack.h **** 	uint8_t port() {
  85:Src/Settings/baseTrack.h **** 		return data_->port_;
  86:Src/Settings/baseTrack.h **** 	}
  87:Src/Settings/baseTrack.h **** 
  88:Src/Settings/baseTrack.h **** 	void set_port(int port) {
  89:Src/Settings/baseTrack.h **** 		data_->port_ = stmlib::clip(0, MidiPort::NUM_PORTS - 1, port);
  90:Src/Settings/baseTrack.h **** 	}
  91:Src/Settings/baseTrack.h **** 
  92:Src/Settings/baseTrack.h **** 	const char* port_text() {
  93:Src/Settings/baseTrack.h **** 		return MidiPort::port_text(port());
  94:Src/Settings/baseTrack.h **** 	}
  95:Src/Settings/baseTrack.h **** 
  96:Src/Settings/baseTrack.h **** 	// channel
  97:Src/Settings/baseTrack.h **** 	int channel() {
  98:Src/Settings/baseTrack.h **** 		return data_->channel_;
  99:Src/Settings/baseTrack.h **** 	}
 100:Src/Settings/baseTrack.h **** 
 101:Src/Settings/baseTrack.h **** 	void set_channel(int channel) {
 102:Src/Settings/baseTrack.h **** 		data_->channel_ = stmlib::clip(0, 15, channel);
 103:Src/Settings/baseTrack.h **** 	}
 104:Src/Settings/baseTrack.h **** 
 105:Src/Settings/baseTrack.h **** 	const char* channel_text() {
 106:Src/Settings/baseTrack.h **** 		return UiText::midi_channel_text(channel());
 107:Src/Settings/baseTrack.h **** 	}
 108:Src/Settings/baseTrack.h **** 
 109:Src/Settings/baseTrack.h **** 	// clock mode
 110:Src/Settings/baseTrack.h **** 	uint8_t clock_mode() {
 111:Src/Settings/baseTrack.h **** 		return data_->clock_mode_;
 112:Src/Settings/baseTrack.h **** 	}
 113:Src/Settings/baseTrack.h **** 
 114:Src/Settings/baseTrack.h **** 	void set_clock_mode(int clock_mode) {
 115:Src/Settings/baseTrack.h **** 		data_->clock_mode_ = stmlib::clip(0, PositionEngine::NUM_MODES - 1, clock_mode);
 116:Src/Settings/baseTrack.h **** 	}
 117:Src/Settings/baseTrack.h **** 
 118:Src/Settings/baseTrack.h **** 	const char* clock_mode_text() {
 119:Src/Settings/baseTrack.h **** 		return PositionEngine::mode_text(clock_mode());
 120:Src/Settings/baseTrack.h **** 	}
 121:Src/Settings/baseTrack.h **** 
 122:Src/Settings/baseTrack.h **** 	// clock speed
 123:Src/Settings/baseTrack.h **** 	uint8_t clock_speed() {
 1033              		.loc 3 123 10 is_stmt 1 view .LVU329
 1034              	.LVL58:
 1035              	.LBB1441:
 124:Src/Settings/baseTrack.h **** 		return data_->clock_speed_;
 1036              		.loc 3 124 3 view .LVU330
 1037              		.loc 3 124 17 is_stmt 0 view .LVU331
 1038 0008 7B68     		ldr	r3, [r7, #4]
 1039 000a 93F804C0 		ldrb	ip, [r3, #4]	@ zero_extendqisi2
 1040              	.LVL59:
ARM GAS  /var/folders/84/_x1cyy_j36g486tldtwl37280000gn/T//cc3zCcdS.s 			page 32


 1041              		.loc 3 124 17 view .LVU332
 1042              	.LBE1441:
 1043              	.LBE1440:
 1044              	.LBB1442:
 1045              	.LBI1442:
  68:Src/Engine/clockEngine.h **** 		speed_ = speed;
 1046              		.loc 1 68 7 is_stmt 1 view .LVU333
 1047              	.LBB1443:
  69:Src/Engine/clockEngine.h **** 	}
 1048              		.loc 1 69 3 view .LVU334
  69:Src/Engine/clockEngine.h **** 	}
 1049              		.loc 1 69 10 is_stmt 0 view .LVU335
 1050 000e 80F800C0 		strb	ip, [r0]
 1051              	.LVL60:
  69:Src/Engine/clockEngine.h **** 	}
 1052              		.loc 1 69 10 view .LVU336
 1053              	.LBE1443:
 1054              	.LBE1442:
  55:Src/Engine/trackState.h **** 		position.set_mode(track_->clock_mode());
 1055              		.loc 2 55 3 is_stmt 1 view .LVU337
 1056              	.LBB1444:
 1057              	.LBI1444:
 110:Src/Settings/baseTrack.h **** 		return data_->clock_mode_;
 1058              		.loc 3 110 10 view .LVU338
 1059              	.LBB1445:
 111:Src/Settings/baseTrack.h **** 	}
 1060              		.loc 3 111 3 view .LVU339
 111:Src/Settings/baseTrack.h **** 	}
 1061              		.loc 3 111 17 is_stmt 0 view .LVU340
 1062 0012 7968     		ldr	r1, [r7, #4]
 1063 0014 91F803E0 		ldrb	lr, [r1, #3]	@ zero_extendqisi2
 1064              	.LVL61:
 111:Src/Settings/baseTrack.h **** 	}
 1065              		.loc 3 111 17 view .LVU341
 1066              	.LBE1445:
 1067              	.LBE1444:
 1068              	.LBB1446:
 1069              	.LBI1446:
 1070              		.file 4 "Src/Engine/positionEngine.h"
   1:Src/Engine/positionEngine.h **** #ifndef PositionEngine_h
   2:Src/Engine/positionEngine.h **** #define PositionEngine_h
   3:Src/Engine/positionEngine.h **** 
   4:Src/Engine/positionEngine.h **** #include "rng.h"
   5:Src/Engine/positionEngine.h **** 
   6:Src/Engine/positionEngine.h **** class PositionEngine {
   7:Src/Engine/positionEngine.h **** 
   8:Src/Engine/positionEngine.h **** public:
   9:Src/Engine/positionEngine.h **** 
  10:Src/Engine/positionEngine.h **** 	enum Mode {
  11:Src/Engine/positionEngine.h **** 		FORWARD,
  12:Src/Engine/positionEngine.h **** 		BACKWARD,
  13:Src/Engine/positionEngine.h **** 		ZIGZAG,
  14:Src/Engine/positionEngine.h **** 		ZIGZAG_REVERSE,
  15:Src/Engine/positionEngine.h **** 		RANDOM,
  16:Src/Engine/positionEngine.h **** 		DRUNKEN_WALK,
  17:Src/Engine/positionEngine.h **** 		SHUFFLE,
  18:Src/Engine/positionEngine.h **** 
ARM GAS  /var/folders/84/_x1cyy_j36g486tldtwl37280000gn/T//cc3zCcdS.s 			page 33


  19:Src/Engine/positionEngine.h **** 		NUM_MODES
  20:Src/Engine/positionEngine.h **** 	};
  21:Src/Engine/positionEngine.h **** 
  22:Src/Engine/positionEngine.h **** 	static const char* mode_text(int mode) {
  23:Src/Engine/positionEngine.h **** 		switch (mode)
  24:Src/Engine/positionEngine.h **** 		{
  25:Src/Engine/positionEngine.h **** 		case FORWARD:			return "FORWARD";
  26:Src/Engine/positionEngine.h **** 		case BACKWARD:			return "BACKWARD";
  27:Src/Engine/positionEngine.h **** 		case ZIGZAG:			return "ZIGZAG";
  28:Src/Engine/positionEngine.h **** 		case ZIGZAG_REVERSE:	return "ZIGZAG REVERSE";
  29:Src/Engine/positionEngine.h **** 		case RANDOM:			return "RANDOM";
  30:Src/Engine/positionEngine.h **** 		case DRUNKEN_WALK:		return "DRUNKEN WALK";
  31:Src/Engine/positionEngine.h **** 		case SHUFFLE:			return "SHUFFLE";
  32:Src/Engine/positionEngine.h **** 		default:				return nullptr;
  33:Src/Engine/positionEngine.h **** 			break;
  34:Src/Engine/positionEngine.h **** 		}
  35:Src/Engine/positionEngine.h **** 	}
  36:Src/Engine/positionEngine.h **** 
  37:Src/Engine/positionEngine.h **** 	void reset() {
  38:Src/Engine/positionEngine.h **** 		step_ = 0;
  39:Src/Engine/positionEngine.h **** 		pattern_ = 0;
  40:Src/Engine/positionEngine.h **** 		random_mask = 0;
  41:Src/Engine/positionEngine.h **** 		exclude_mask = 0;
  42:Src/Engine/positionEngine.h **** 
  43:Src/Engine/positionEngine.h **** 		for (int i = 0; i < 16; ++i) {
  44:Src/Engine/positionEngine.h **** 			shuffle_array[i] = i;
  45:Src/Engine/positionEngine.h **** 		}
  46:Src/Engine/positionEngine.h **** 	}
  47:Src/Engine/positionEngine.h **** 
  48:Src/Engine/positionEngine.h **** 	void set_mode(uint8_t mode) {
 1071              		.loc 4 48 7 is_stmt 1 view .LVU342
 1072              	.LBB1447:
  49:Src/Engine/positionEngine.h **** 		mode_ = Mode(mode);
 1073              		.loc 4 49 3 view .LVU343
 1074              		.loc 4 49 9 is_stmt 0 view .LVU344
 1075 0018 80F884E0 		strb	lr, [r0, #132]
 1076              	.LVL62:
 1077              		.loc 4 49 9 view .LVU345
 1078              	.LBE1447:
 1079              	.LBE1446:
  56:Src/Engine/trackState.h **** 
  57:Src/Engine/trackState.h **** 		if (clock.tick()) {
 1080              		.loc 2 57 3 is_stmt 1 view .LVU346
 1081              	.LBB1448:
 1082              	.LBB1449:
 1083              	.LBI1449:
  85:Src/Engine/clockEngine.h **** 		triggered_ = trigger();
 1084              		.loc 1 85 7 view .LVU347
 1085              	.LBB1450:
  86:Src/Engine/clockEngine.h **** 		ticks_passed_ = ticks();
 1086              		.loc 1 86 3 view .LVU348
 1087              	.LBB1451:
 1088              	.LBI1451:
 213:Src/Engine/clockEngine.h **** 		switch (speed_)
 1089              		.loc 1 213 14 view .LVU349
 1090              	.LBB1452:
 214:Src/Engine/clockEngine.h **** 		{
ARM GAS  /var/folders/84/_x1cyy_j36g486tldtwl37280000gn/T//cc3zCcdS.s 			page 34


 1091              		.loc 1 214 3 view .LVU350
 1092              	.LBE1452:
 1093              	.LBE1451:
 1094              	.LBE1450:
 1095              	.LBE1449:
 1096              	.LBE1448:
  52:Src/Engine/trackState.h **** 		// check tick
 1097              		.loc 2 52 7 is_stmt 0 view .LVU351
 1098 001c 89B0     		sub	sp, sp, #36
 1099              		.cfi_def_cfa_offset 72
 1100 001e BCF1110F 		cmp	ip, #17
 1101 0022 00F20985 		bhi	.L92
 1102 0026 DFE81CF0 		tbh	[pc, ip, lsl #1]
 1103              	.L94:
 1104 002a 4900     		.2byte	(.L111-.L94)/2
 1105 002c 5300     		.2byte	(.L110-.L94)/2
 1106 002e 5D00     		.2byte	(.L109-.L94)/2
 1107 0030 6700     		.2byte	(.L108-.L94)/2
 1108 0032 7100     		.2byte	(.L107-.L94)/2
 1109 0034 7B00     		.2byte	(.L106-.L94)/2
 1110 0036 8500     		.2byte	(.L105-.L94)/2
 1111 0038 8F00     		.2byte	(.L104-.L94)/2
 1112 003a 9900     		.2byte	(.L103-.L94)/2
 1113 003c A300     		.2byte	(.L102-.L94)/2
 1114 003e AD00     		.2byte	(.L101-.L94)/2
 1115 0040 B700     		.2byte	(.L100-.L94)/2
 1116 0042 C100     		.2byte	(.L99-.L94)/2
 1117 0044 CB00     		.2byte	(.L98-.L94)/2
 1118 0046 D500     		.2byte	(.L97-.L94)/2
 1119 0048 DF00     		.2byte	(.L96-.L94)/2
 1120 004a E800     		.2byte	(.L95-.L94)/2
 1121 004c 1200     		.2byte	(.L93-.L94)/2
 1122              		.p2align 1
 1123              	.L93:
 1124              	.LBB1957:
 1125              	.LBB1563:
 1126              	.LBB1559:
 1127              	.LBB1475:
 1128              	.LBB1453:
 233:Src/Engine/clockEngine.h **** 		default:			break;
 1129              		.loc 1 233 3 is_stmt 1 view .LVU352
 233:Src/Engine/clockEngine.h **** 		default:			break;
 1130              		.loc 1 233 22 view .LVU353
 233:Src/Engine/clockEngine.h **** 		default:			break;
 1131              		.loc 1 233 30 is_stmt 0 view .LVU354
 1132 004e 067A     		ldrb	r6, [r0, #8]	@ zero_extendqisi2
 1133              	.LBE1453:
 1134              	.LBE1475:
 1135              	.LBB1476:
 1136              	.LBB1477:
 207:Src/Engine/clockEngine.h **** 		default:			break;
 1137              		.loc 1 207 29 view .LVU355
 1138 0050 C368     		ldr	r3, [r0, #12]
 1139 0052 847A     		ldrb	r4, [r0, #10]	@ zero_extendqisi2
 1140 0054 457A     		ldrb	r5, [r0, #9]	@ zero_extendqisi2
 1141              	.LBE1477:
 1142              	.LBE1476:
ARM GAS  /var/folders/84/_x1cyy_j36g486tldtwl37280000gn/T//cc3zCcdS.s 			page 35


 1143              	.LBB1508:
 1144              	.LBB1454:
 233:Src/Engine/clockEngine.h **** 		default:			break;
 1145              		.loc 1 233 30 view .LVU356
 1146 0056 B6FA86F2 		clz	r2, r6
 1147 005a 5109     		lsrs	r1, r2, #5
 1148              	.LVL63:
 233:Src/Engine/clockEngine.h **** 		default:			break;
 1149              		.loc 1 233 30 view .LVU357
 1150              	.LBE1454:
 1151              	.LBE1508:
  86:Src/Engine/clockEngine.h **** 		ticks_passed_ = ticks();
 1152              		.loc 1 86 14 view .LVU358
 1153 005c 4170     		strb	r1, [r0, #1]
  87:Src/Engine/clockEngine.h **** 
 1154              		.loc 1 87 3 is_stmt 1 view .LVU359
 1155              	.LVL64:
 1156              	.LBB1509:
 1157              	.LBI1476:
 187:Src/Engine/clockEngine.h **** 		switch (speed_)
 1158              		.loc 1 187 18 view .LVU360
 1159              	.LBB1478:
 188:Src/Engine/clockEngine.h **** 		{
 1160              		.loc 1 188 3 view .LVU361
 207:Src/Engine/clockEngine.h **** 		default:			break;
 1161              		.loc 1 207 3 view .LVU362
 207:Src/Engine/clockEngine.h **** 		default:			break;
 1162              		.loc 1 207 22 view .LVU363
 1163              	.L157:
 207:Src/Engine/clockEngine.h **** 		default:			break;
 1164              		.loc 1 207 22 is_stmt 0 view .LVU364
 1165              	.LBE1478:
 1166              	.LBE1509:
  89:Src/Engine/clockEngine.h **** 			prescaler_32th_triplet = 0;
 1167              		.loc 1 89 62 view .LVU365
 1168 005e 7F4A     		ldr	r2, .L237
  87:Src/Engine/clockEngine.h **** 
 1169              		.loc 1 87 17 view .LVU366
 1170 0060 4360     		str	r3, [r0, #4]
  89:Src/Engine/clockEngine.h **** 			prescaler_32th_triplet = 0;
 1171              		.loc 1 89 3 is_stmt 1 view .LVU367
  89:Src/Engine/clockEngine.h **** 			prescaler_32th_triplet = 0;
 1172              		.loc 1 89 7 is_stmt 0 view .LVU368
 1173 0062 06F10108 		add	r8, r6, #1
  89:Src/Engine/clockEngine.h **** 			prescaler_32th_triplet = 0;
 1174              		.loc 1 89 3 view .LVU369
 1175 0066 566C     		ldr	r6, [r2, #68]
  89:Src/Engine/clockEngine.h **** 			prescaler_32th_triplet = 0;
 1176              		.loc 1 89 7 view .LVU370
 1177 0068 5FFA88F9 		uxtb	r9, r8
  89:Src/Engine/clockEngine.h **** 			prescaler_32th_triplet = 0;
 1178              		.loc 1 89 3 view .LVU371
 1179 006c B145     		cmp	r9, r6
  89:Src/Engine/clockEngine.h **** 			prescaler_32th_triplet = 0;
 1180              		.loc 1 89 32 view .LVU372
 1181 006e 80F80890 		strb	r9, [r0, #8]
  89:Src/Engine/clockEngine.h **** 			prescaler_32th_triplet = 0;
ARM GAS  /var/folders/84/_x1cyy_j36g486tldtwl37280000gn/T//cc3zCcdS.s 			page 36


 1182              		.loc 1 89 3 view .LVU373
 1183 0072 06D3     		bcc	.L158
  90:Src/Engine/clockEngine.h **** 			++ticks_32th_triplet;
 1184              		.loc 1 90 4 is_stmt 1 view .LVU374
  91:Src/Engine/clockEngine.h **** 		}
 1185              		.loc 1 91 4 is_stmt 0 view .LVU375
 1186 0074 C668     		ldr	r6, [r0, #12]
  90:Src/Engine/clockEngine.h **** 			++ticks_32th_triplet;
 1187              		.loc 1 90 27 view .LVU376
 1188 0076 4FF0000A 		mov	r10, #0
  91:Src/Engine/clockEngine.h **** 		}
 1189              		.loc 1 91 4 view .LVU377
 1190 007a 0136     		adds	r6, r6, #1
 1191 007c C660     		str	r6, [r0, #12]
  90:Src/Engine/clockEngine.h **** 			++ticks_32th_triplet;
 1192              		.loc 1 90 27 view .LVU378
 1193 007e 80F808A0 		strb	r10, [r0, #8]
  91:Src/Engine/clockEngine.h **** 		}
 1194              		.loc 1 91 4 is_stmt 1 view .LVU379
 1195              	.L158:
  94:Src/Engine/clockEngine.h **** 			prescaler_32th_whole = 0;
 1196              		.loc 1 94 3 view .LVU380
 1197 0082 166C     		ldr	r6, [r2, #64]
  94:Src/Engine/clockEngine.h **** 			prescaler_32th_whole = 0;
 1198              		.loc 1 94 7 is_stmt 0 view .LVU381
 1199 0084 0135     		adds	r5, r5, #1
 1200 0086 EDB2     		uxtb	r5, r5
  94:Src/Engine/clockEngine.h **** 			prescaler_32th_whole = 0;
 1201              		.loc 1 94 3 view .LVU382
 1202 0088 B542     		cmp	r5, r6
  94:Src/Engine/clockEngine.h **** 			prescaler_32th_whole = 0;
 1203              		.loc 1 94 30 view .LVU383
 1204 008a 4572     		strb	r5, [r0, #9]
  94:Src/Engine/clockEngine.h **** 			prescaler_32th_whole = 0;
 1205              		.loc 1 94 3 view .LVU384
 1206 008c 04D3     		bcc	.L159
  95:Src/Engine/clockEngine.h **** 			++ticks_32th_whole;
 1207              		.loc 1 95 4 is_stmt 1 view .LVU385
  96:Src/Engine/clockEngine.h **** 		}
 1208              		.loc 1 96 4 is_stmt 0 view .LVU386
 1209 008e 0569     		ldr	r5, [r0, #16]
  95:Src/Engine/clockEngine.h **** 			++ticks_32th_whole;
 1210              		.loc 1 95 25 view .LVU387
 1211 0090 0026     		movs	r6, #0
  96:Src/Engine/clockEngine.h **** 		}
 1212              		.loc 1 96 4 view .LVU388
 1213 0092 0135     		adds	r5, r5, #1
 1214 0094 0561     		str	r5, [r0, #16]
  95:Src/Engine/clockEngine.h **** 			++ticks_32th_whole;
 1215              		.loc 1 95 25 view .LVU389
 1216 0096 4672     		strb	r6, [r0, #9]
  96:Src/Engine/clockEngine.h **** 		}
 1217              		.loc 1 96 4 is_stmt 1 view .LVU390
 1218              	.L159:
  99:Src/Engine/clockEngine.h **** 			prescaler_32th_dotted = 0;
 1219              		.loc 1 99 3 view .LVU391
 1220 0098 D56B     		ldr	r5, [r2, #60]
ARM GAS  /var/folders/84/_x1cyy_j36g486tldtwl37280000gn/T//cc3zCcdS.s 			page 37


  99:Src/Engine/clockEngine.h **** 			prescaler_32th_dotted = 0;
 1221              		.loc 1 99 7 is_stmt 0 view .LVU392
 1222 009a 0134     		adds	r4, r4, #1
 1223 009c E4B2     		uxtb	r4, r4
  99:Src/Engine/clockEngine.h **** 			prescaler_32th_dotted = 0;
 1224              		.loc 1 99 3 view .LVU393
 1225 009e AC42     		cmp	r4, r5
  99:Src/Engine/clockEngine.h **** 			prescaler_32th_dotted = 0;
 1226              		.loc 1 99 31 view .LVU394
 1227 00a0 8472     		strb	r4, [r0, #10]
  99:Src/Engine/clockEngine.h **** 			prescaler_32th_dotted = 0;
 1228              		.loc 1 99 3 view .LVU395
 1229 00a2 04D3     		bcc	.L160
 100:Src/Engine/clockEngine.h **** 			++ticks_32th_dotted;
 1230              		.loc 1 100 4 is_stmt 1 view .LVU396
 101:Src/Engine/clockEngine.h **** 		}
 1231              		.loc 1 101 4 is_stmt 0 view .LVU397
 1232 00a4 4669     		ldr	r6, [r0, #20]
 100:Src/Engine/clockEngine.h **** 			++ticks_32th_dotted;
 1233              		.loc 1 100 26 view .LVU398
 1234 00a6 0025     		movs	r5, #0
 101:Src/Engine/clockEngine.h **** 		}
 1235              		.loc 1 101 4 view .LVU399
 1236 00a8 0136     		adds	r6, r6, #1
 1237 00aa 4661     		str	r6, [r0, #20]
 100:Src/Engine/clockEngine.h **** 			++ticks_32th_dotted;
 1238              		.loc 1 100 26 view .LVU400
 1239 00ac 8572     		strb	r5, [r0, #10]
 101:Src/Engine/clockEngine.h **** 		}
 1240              		.loc 1 101 4 is_stmt 1 view .LVU401
 1241              	.L160:
 104:Src/Engine/clockEngine.h **** 	}
 1242              		.loc 1 104 3 view .LVU402
 1243              	.LVL65:
 104:Src/Engine/clockEngine.h **** 	}
 1244              		.loc 1 104 3 is_stmt 0 view .LVU403
 1245              	.LBE1559:
 1246              	.LBE1563:
 1247              		.loc 2 57 3 view .LVU404
 1248 00ae 0029     		cmp	r1, #0
 1249 00b0 40F0AC80 		bne	.L234
 1250              	.LBE1957:
  58:Src/Engine/trackState.h **** 			// update pattern position
  59:Src/Engine/trackState.h **** 			uint32_t ticks = clock.ticks_passed();
  60:Src/Engine/trackState.h **** 			uint32_t total = track_->num_patterns();
  61:Src/Engine/trackState.h **** 			pattern_index_ = position.update_pattern(ticks, total);
  62:Src/Engine/trackState.h **** 
  63:Src/Engine/trackState.h **** 			// update step position
  64:Src/Engine/trackState.h **** 			uint16_t mask = *track_->pattern.random_mask(pattern_index_, NoteTrack::TRIGGER);
  65:Src/Engine/trackState.h **** 			position.set_step_random_mask(mask);
  66:Src/Engine/trackState.h **** 			step_index_ = position.update_step(ticks);
  67:Src/Engine/trackState.h **** 
  68:Src/Engine/trackState.h **** 			// update track delay
  69:Src/Engine/trackState.h **** 			delay_ = clock.swing(track_->swing());
  70:Src/Engine/trackState.h **** 			delay_ += clock.humanise(track_->humanise());
  71:Src/Engine/trackState.h **** 			delay_ += clock.gate_duration(track_->delay());
  72:Src/Engine/trackState.h **** 
ARM GAS  /var/folders/84/_x1cyy_j36g486tldtwl37280000gn/T//cc3zCcdS.s 			page 38


  73:Src/Engine/trackState.h **** 			return true;
  74:Src/Engine/trackState.h **** 		}
  75:Src/Engine/trackState.h **** 
  76:Src/Engine/trackState.h **** 		return false;
  77:Src/Engine/trackState.h **** 	}
 1251              		.loc 2 77 2 view .LVU405
 1252 00b4 0846     		mov	r0, r1
 1253              	.LVL66:
 1254              		.loc 2 77 2 view .LVU406
 1255 00b6 09B0     		add	sp, sp, #36
 1256              		.cfi_remember_state
 1257              		.cfi_def_cfa_offset 36
 1258              		@ sp needed
 1259 00b8 BDE8F08F 		pop	{r4, r5, r6, r7, r8, r9, r10, fp, pc}
 1260              	.LVL67:
 1261              	.L111:
 1262              		.cfi_restore_state
 1263              	.LBB1958:
 1264              	.LBB1564:
 1265              	.LBB1560:
 1266              	.LBB1510:
 1267              	.LBB1455:
 216:Src/Engine/clockEngine.h **** 		case WHOLE_1TH:		return !prescaler_32th_whole 	&& !(ticks_32th_whole 	% 32);
 1268              		.loc 1 216 3 is_stmt 1 view .LVU407
 216:Src/Engine/clockEngine.h **** 		case WHOLE_1TH:		return !prescaler_32th_whole 	&& !(ticks_32th_whole 	% 32);
 1269              		.loc 1 216 21 view .LVU408
 216:Src/Engine/clockEngine.h **** 		case WHOLE_1TH:		return !prescaler_32th_whole 	&& !(ticks_32th_whole 	% 32);
 1270              		.loc 1 216 29 is_stmt 0 view .LVU409
 1271 00bc 847A     		ldrb	r4, [r0, #10]	@ zero_extendqisi2
 216:Src/Engine/clockEngine.h **** 		case WHOLE_1TH:		return !prescaler_32th_whole 	&& !(ticks_32th_whole 	% 32);
 1272              		.loc 1 216 57 view .LVU410
 1273 00be 4669     		ldr	r6, [r0, #20]
 216:Src/Engine/clockEngine.h **** 		case WHOLE_1TH:		return !prescaler_32th_whole 	&& !(ticks_32th_whole 	% 32);
 1274              		.loc 1 216 52 view .LVU411
 1275 00c0 002C     		cmp	r4, #0
 1276 00c2 40F09B82 		bne	.L113
 1277 00c6 F506     		lsls	r5, r6, #27
 1278 00c8 40F09882 		bne	.L113
 1279 00cc 0121     		movs	r1, #1
 1280 00ce 96E2     		b	.L114
 1281              	.L110:
 217:Src/Engine/clockEngine.h **** 		case TRIPLET_1TH:	return !prescaler_32th_triplet 	&& !(ticks_32th_triplet	% 32);
 1282              		.loc 1 217 3 is_stmt 1 view .LVU412
 217:Src/Engine/clockEngine.h **** 		case TRIPLET_1TH:	return !prescaler_32th_triplet 	&& !(ticks_32th_triplet	% 32);
 1283              		.loc 1 217 20 view .LVU413
 217:Src/Engine/clockEngine.h **** 		case TRIPLET_1TH:	return !prescaler_32th_triplet 	&& !(ticks_32th_triplet	% 32);
 1284              		.loc 1 217 28 is_stmt 0 view .LVU414
 1285 00d0 457A     		ldrb	r5, [r0, #9]	@ zero_extendqisi2
 217:Src/Engine/clockEngine.h **** 		case TRIPLET_1TH:	return !prescaler_32th_triplet 	&& !(ticks_32th_triplet	% 32);
 1286              		.loc 1 217 55 view .LVU415
 1287 00d2 0369     		ldr	r3, [r0, #16]
 217:Src/Engine/clockEngine.h **** 		case TRIPLET_1TH:	return !prescaler_32th_triplet 	&& !(ticks_32th_triplet	% 32);
 1288              		.loc 1 217 50 view .LVU416
 1289 00d4 002D     		cmp	r5, #0
 1290 00d6 40F08B82 		bne	.L116
 1291 00da D906     		lsls	r1, r3, #27
 1292 00dc 40F08882 		bne	.L116
ARM GAS  /var/folders/84/_x1cyy_j36g486tldtwl37280000gn/T//cc3zCcdS.s 			page 39


 1293 00e0 0121     		movs	r1, #1
 1294 00e2 86E2     		b	.L117
 1295              	.L109:
 218:Src/Engine/clockEngine.h **** 		case DOTTED_2TH: 	return !prescaler_32th_dotted 	&& !(ticks_32th_dotted	% 16);
 1296              		.loc 1 218 3 is_stmt 1 view .LVU417
 218:Src/Engine/clockEngine.h **** 		case DOTTED_2TH: 	return !prescaler_32th_dotted 	&& !(ticks_32th_dotted	% 16);
 1297              		.loc 1 218 21 view .LVU418
 218:Src/Engine/clockEngine.h **** 		case DOTTED_2TH: 	return !prescaler_32th_dotted 	&& !(ticks_32th_dotted	% 16);
 1298              		.loc 1 218 29 is_stmt 0 view .LVU419
 1299 00e4 067A     		ldrb	r6, [r0, #8]	@ zero_extendqisi2
 218:Src/Engine/clockEngine.h **** 		case DOTTED_2TH: 	return !prescaler_32th_dotted 	&& !(ticks_32th_dotted	% 16);
 1300              		.loc 1 218 58 view .LVU420
 1301 00e6 C468     		ldr	r4, [r0, #12]
 218:Src/Engine/clockEngine.h **** 		case DOTTED_2TH: 	return !prescaler_32th_dotted 	&& !(ticks_32th_dotted	% 16);
 1302              		.loc 1 218 53 view .LVU421
 1303 00e8 002E     		cmp	r6, #0
 1304 00ea 40F07B82 		bne	.L119
 1305 00ee E206     		lsls	r2, r4, #27
 1306 00f0 40F07882 		bne	.L119
 1307 00f4 0121     		movs	r1, #1
 1308 00f6 76E2     		b	.L120
 1309              	.L108:
 219:Src/Engine/clockEngine.h **** 		case WHOLE_2TH:		return !prescaler_32th_whole	&& !(ticks_32th_whole	% 16);
 1310              		.loc 1 219 3 is_stmt 1 view .LVU422
 219:Src/Engine/clockEngine.h **** 		case WHOLE_2TH:		return !prescaler_32th_whole	&& !(ticks_32th_whole	% 16);
 1311              		.loc 1 219 21 view .LVU423
 219:Src/Engine/clockEngine.h **** 		case WHOLE_2TH:		return !prescaler_32th_whole	&& !(ticks_32th_whole	% 16);
 1312              		.loc 1 219 29 is_stmt 0 view .LVU424
 1313 00f8 847A     		ldrb	r4, [r0, #10]	@ zero_extendqisi2
 219:Src/Engine/clockEngine.h **** 		case WHOLE_2TH:		return !prescaler_32th_whole	&& !(ticks_32th_whole	% 16);
 1314              		.loc 1 219 57 view .LVU425
 1315 00fa 4269     		ldr	r2, [r0, #20]
 219:Src/Engine/clockEngine.h **** 		case WHOLE_2TH:		return !prescaler_32th_whole	&& !(ticks_32th_whole	% 16);
 1316              		.loc 1 219 52 view .LVU426
 1317 00fc 002C     		cmp	r4, #0
 1318 00fe 40F06B82 		bne	.L122
 1319 0102 1507     		lsls	r5, r2, #28
 1320 0104 40F06882 		bne	.L122
 1321 0108 0121     		movs	r1, #1
 1322 010a 66E2     		b	.L123
 1323              	.L107:
 220:Src/Engine/clockEngine.h **** 		case TRIPLET_2TH:	return !prescaler_32th_triplet	&& !(ticks_32th_triplet % 16);
 1324              		.loc 1 220 3 is_stmt 1 view .LVU427
 220:Src/Engine/clockEngine.h **** 		case TRIPLET_2TH:	return !prescaler_32th_triplet	&& !(ticks_32th_triplet % 16);
 1325              		.loc 1 220 20 view .LVU428
 220:Src/Engine/clockEngine.h **** 		case TRIPLET_2TH:	return !prescaler_32th_triplet	&& !(ticks_32th_triplet % 16);
 1326              		.loc 1 220 28 is_stmt 0 view .LVU429
 1327 010c 457A     		ldrb	r5, [r0, #9]	@ zero_extendqisi2
 220:Src/Engine/clockEngine.h **** 		case TRIPLET_2TH:	return !prescaler_32th_triplet	&& !(ticks_32th_triplet % 16);
 1328              		.loc 1 220 54 view .LVU430
 1329 010e 0669     		ldr	r6, [r0, #16]
 220:Src/Engine/clockEngine.h **** 		case TRIPLET_2TH:	return !prescaler_32th_triplet	&& !(ticks_32th_triplet % 16);
 1330              		.loc 1 220 49 view .LVU431
 1331 0110 002D     		cmp	r5, #0
 1332 0112 40F05782 		bne	.L125
 1333 0116 3107     		lsls	r1, r6, #28
 1334 0118 40F05482 		bne	.L125
ARM GAS  /var/folders/84/_x1cyy_j36g486tldtwl37280000gn/T//cc3zCcdS.s 			page 40


 1335 011c 0121     		movs	r1, #1
 1336 011e 52E2     		b	.L126
 1337              	.L106:
 221:Src/Engine/clockEngine.h **** 		case DOTTED_4TH:	return !prescaler_32th_dotted	&& !(ticks_32th_dotted 	% 8);
 1338              		.loc 1 221 3 is_stmt 1 view .LVU432
 221:Src/Engine/clockEngine.h **** 		case DOTTED_4TH:	return !prescaler_32th_dotted	&& !(ticks_32th_dotted 	% 8);
 1339              		.loc 1 221 21 view .LVU433
 221:Src/Engine/clockEngine.h **** 		case DOTTED_4TH:	return !prescaler_32th_dotted	&& !(ticks_32th_dotted 	% 8);
 1340              		.loc 1 221 29 is_stmt 0 view .LVU434
 1341 0120 067A     		ldrb	r6, [r0, #8]	@ zero_extendqisi2
 221:Src/Engine/clockEngine.h **** 		case DOTTED_4TH:	return !prescaler_32th_dotted	&& !(ticks_32th_dotted 	% 8);
 1342              		.loc 1 221 57 view .LVU435
 1343 0122 C568     		ldr	r5, [r0, #12]
 221:Src/Engine/clockEngine.h **** 		case DOTTED_4TH:	return !prescaler_32th_dotted	&& !(ticks_32th_dotted 	% 8);
 1344              		.loc 1 221 52 view .LVU436
 1345 0124 002E     		cmp	r6, #0
 1346 0126 40F04782 		bne	.L128
 1347 012a 2A07     		lsls	r2, r5, #28
 1348 012c 40F04482 		bne	.L128
 1349 0130 0121     		movs	r1, #1
 1350 0132 42E2     		b	.L129
 1351              	.L105:
 222:Src/Engine/clockEngine.h **** 		case WHOLE_4TH:		return !prescaler_32th_whole 	&& !(ticks_32th_whole 	% 8);
 1352              		.loc 1 222 3 is_stmt 1 view .LVU437
 222:Src/Engine/clockEngine.h **** 		case WHOLE_4TH:		return !prescaler_32th_whole 	&& !(ticks_32th_whole 	% 8);
 1353              		.loc 1 222 20 view .LVU438
 222:Src/Engine/clockEngine.h **** 		case WHOLE_4TH:		return !prescaler_32th_whole 	&& !(ticks_32th_whole 	% 8);
 1354              		.loc 1 222 28 is_stmt 0 view .LVU439
 1355 0134 847A     		ldrb	r4, [r0, #10]	@ zero_extendqisi2
 222:Src/Engine/clockEngine.h **** 		case WHOLE_4TH:		return !prescaler_32th_whole 	&& !(ticks_32th_whole 	% 8);
 1356              		.loc 1 222 55 view .LVU440
 1357 0136 4369     		ldr	r3, [r0, #20]
 222:Src/Engine/clockEngine.h **** 		case WHOLE_4TH:		return !prescaler_32th_whole 	&& !(ticks_32th_whole 	% 8);
 1358              		.loc 1 222 50 view .LVU441
 1359 0138 002C     		cmp	r4, #0
 1360 013a 40F03782 		bne	.L131
 1361 013e 5D07     		lsls	r5, r3, #29
 1362 0140 40F03482 		bne	.L131
 1363 0144 0121     		movs	r1, #1
 1364 0146 32E2     		b	.L132
 1365              	.L104:
 223:Src/Engine/clockEngine.h **** 		case TRIPLET_4TH:	return !prescaler_32th_triplet 	&& !(ticks_32th_triplet % 8);
 1366              		.loc 1 223 3 is_stmt 1 view .LVU442
 223:Src/Engine/clockEngine.h **** 		case TRIPLET_4TH:	return !prescaler_32th_triplet 	&& !(ticks_32th_triplet % 8);
 1367              		.loc 1 223 20 view .LVU443
 223:Src/Engine/clockEngine.h **** 		case TRIPLET_4TH:	return !prescaler_32th_triplet 	&& !(ticks_32th_triplet % 8);
 1368              		.loc 1 223 28 is_stmt 0 view .LVU444
 1369 0148 457A     		ldrb	r5, [r0, #9]	@ zero_extendqisi2
 223:Src/Engine/clockEngine.h **** 		case TRIPLET_4TH:	return !prescaler_32th_triplet 	&& !(ticks_32th_triplet % 8);
 1370              		.loc 1 223 55 view .LVU445
 1371 014a 0269     		ldr	r2, [r0, #16]
 223:Src/Engine/clockEngine.h **** 		case TRIPLET_4TH:	return !prescaler_32th_triplet 	&& !(ticks_32th_triplet % 8);
 1372              		.loc 1 223 50 view .LVU446
 1373 014c 002D     		cmp	r5, #0
 1374 014e 40F02782 		bne	.L134
 1375 0152 5107     		lsls	r1, r2, #29
 1376 0154 40F02482 		bne	.L134
ARM GAS  /var/folders/84/_x1cyy_j36g486tldtwl37280000gn/T//cc3zCcdS.s 			page 41


 1377 0158 0121     		movs	r1, #1
 1378 015a 22E2     		b	.L135
 1379              	.L103:
 224:Src/Engine/clockEngine.h **** 		case DOTTED_8TH:	return !prescaler_32th_dotted 	&& !(ticks_32th_dotted 	% 4);
 1380              		.loc 1 224 3 is_stmt 1 view .LVU447
 224:Src/Engine/clockEngine.h **** 		case DOTTED_8TH:	return !prescaler_32th_dotted 	&& !(ticks_32th_dotted 	% 4);
 1381              		.loc 1 224 21 view .LVU448
 224:Src/Engine/clockEngine.h **** 		case DOTTED_8TH:	return !prescaler_32th_dotted 	&& !(ticks_32th_dotted 	% 4);
 1382              		.loc 1 224 29 is_stmt 0 view .LVU449
 1383 015c 067A     		ldrb	r6, [r0, #8]	@ zero_extendqisi2
 224:Src/Engine/clockEngine.h **** 		case DOTTED_8TH:	return !prescaler_32th_dotted 	&& !(ticks_32th_dotted 	% 4);
 1384              		.loc 1 224 58 view .LVU450
 1385 015e C468     		ldr	r4, [r0, #12]
 224:Src/Engine/clockEngine.h **** 		case DOTTED_8TH:	return !prescaler_32th_dotted 	&& !(ticks_32th_dotted 	% 4);
 1386              		.loc 1 224 53 view .LVU451
 1387 0160 002E     		cmp	r6, #0
 1388 0162 40F01782 		bne	.L137
 1389 0166 6207     		lsls	r2, r4, #29
 1390 0168 40F01482 		bne	.L137
 1391 016c 0121     		movs	r1, #1
 1392 016e 12E2     		b	.L138
 1393              	.L102:
 225:Src/Engine/clockEngine.h **** 		case WHOLE_8TH:		return !prescaler_32th_whole 	&& !(ticks_32th_whole 	% 4);
 1394              		.loc 1 225 3 is_stmt 1 view .LVU452
 225:Src/Engine/clockEngine.h **** 		case WHOLE_8TH:		return !prescaler_32th_whole 	&& !(ticks_32th_whole 	% 4);
 1395              		.loc 1 225 20 view .LVU453
 225:Src/Engine/clockEngine.h **** 		case WHOLE_8TH:		return !prescaler_32th_whole 	&& !(ticks_32th_whole 	% 4);
 1396              		.loc 1 225 28 is_stmt 0 view .LVU454
 1397 0170 847A     		ldrb	r4, [r0, #10]	@ zero_extendqisi2
 225:Src/Engine/clockEngine.h **** 		case WHOLE_8TH:		return !prescaler_32th_whole 	&& !(ticks_32th_whole 	% 4);
 1398              		.loc 1 225 56 view .LVU455
 1399 0172 4669     		ldr	r6, [r0, #20]
 225:Src/Engine/clockEngine.h **** 		case WHOLE_8TH:		return !prescaler_32th_whole 	&& !(ticks_32th_whole 	% 4);
 1400              		.loc 1 225 51 view .LVU456
 1401 0174 002C     		cmp	r4, #0
 1402 0176 40F00782 		bne	.L140
 1403 017a B507     		lsls	r5, r6, #30
 1404 017c 40F00482 		bne	.L140
 1405 0180 0121     		movs	r1, #1
 1406 0182 02E2     		b	.L141
 1407              	.L101:
 226:Src/Engine/clockEngine.h **** 		case TRIPLET_8TH:	return !prescaler_32th_triplet 	&& !(ticks_32th_triplet % 4);
 1408              		.loc 1 226 3 is_stmt 1 view .LVU457
 226:Src/Engine/clockEngine.h **** 		case TRIPLET_8TH:	return !prescaler_32th_triplet 	&& !(ticks_32th_triplet % 4);
 1409              		.loc 1 226 20 view .LVU458
 226:Src/Engine/clockEngine.h **** 		case TRIPLET_8TH:	return !prescaler_32th_triplet 	&& !(ticks_32th_triplet % 4);
 1410              		.loc 1 226 28 is_stmt 0 view .LVU459
 1411 0184 457A     		ldrb	r5, [r0, #9]	@ zero_extendqisi2
 226:Src/Engine/clockEngine.h **** 		case TRIPLET_8TH:	return !prescaler_32th_triplet 	&& !(ticks_32th_triplet % 4);
 1412              		.loc 1 226 55 view .LVU460
 1413 0186 0269     		ldr	r2, [r0, #16]
 226:Src/Engine/clockEngine.h **** 		case TRIPLET_8TH:	return !prescaler_32th_triplet 	&& !(ticks_32th_triplet % 4);
 1414              		.loc 1 226 50 view .LVU461
 1415 0188 002D     		cmp	r5, #0
 1416 018a 40F0F781 		bne	.L143
 1417 018e 9107     		lsls	r1, r2, #30
 1418 0190 40F0F481 		bne	.L143
ARM GAS  /var/folders/84/_x1cyy_j36g486tldtwl37280000gn/T//cc3zCcdS.s 			page 42


 1419 0194 0121     		movs	r1, #1
 1420 0196 F2E1     		b	.L144
 1421              	.L100:
 227:Src/Engine/clockEngine.h **** 		case DOTTED_16TH:	return !prescaler_32th_dotted 	&& !(ticks_32th_dotted 	% 2);
 1422              		.loc 1 227 3 is_stmt 1 view .LVU462
 227:Src/Engine/clockEngine.h **** 		case DOTTED_16TH:	return !prescaler_32th_dotted 	&& !(ticks_32th_dotted 	% 2);
 1423              		.loc 1 227 21 view .LVU463
 227:Src/Engine/clockEngine.h **** 		case DOTTED_16TH:	return !prescaler_32th_dotted 	&& !(ticks_32th_dotted 	% 2);
 1424              		.loc 1 227 29 is_stmt 0 view .LVU464
 1425 0198 067A     		ldrb	r6, [r0, #8]	@ zero_extendqisi2
 227:Src/Engine/clockEngine.h **** 		case DOTTED_16TH:	return !prescaler_32th_dotted 	&& !(ticks_32th_dotted 	% 2);
 1426              		.loc 1 227 58 view .LVU465
 1427 019a C568     		ldr	r5, [r0, #12]
 227:Src/Engine/clockEngine.h **** 		case DOTTED_16TH:	return !prescaler_32th_dotted 	&& !(ticks_32th_dotted 	% 2);
 1428              		.loc 1 227 53 view .LVU466
 1429 019c 002E     		cmp	r6, #0
 1430 019e 40F0E781 		bne	.L146
 1431 01a2 AA07     		lsls	r2, r5, #30
 1432 01a4 40F0E481 		bne	.L146
 1433 01a8 0121     		movs	r1, #1
 1434 01aa E2E1     		b	.L147
 1435              	.L99:
 228:Src/Engine/clockEngine.h **** 		case WHOLE_16TH:	return !prescaler_32th_whole 	&& !(ticks_32th_whole 	% 2);
 1436              		.loc 1 228 3 is_stmt 1 view .LVU467
 228:Src/Engine/clockEngine.h **** 		case WHOLE_16TH:	return !prescaler_32th_whole 	&& !(ticks_32th_whole 	% 2);
 1437              		.loc 1 228 21 view .LVU468
 228:Src/Engine/clockEngine.h **** 		case WHOLE_16TH:	return !prescaler_32th_whole 	&& !(ticks_32th_whole 	% 2);
 1438              		.loc 1 228 29 is_stmt 0 view .LVU469
 1439 01ac 847A     		ldrb	r4, [r0, #10]	@ zero_extendqisi2
 228:Src/Engine/clockEngine.h **** 		case WHOLE_16TH:	return !prescaler_32th_whole 	&& !(ticks_32th_whole 	% 2);
 1440              		.loc 1 228 57 view .LVU470
 1441 01ae 4369     		ldr	r3, [r0, #20]
 228:Src/Engine/clockEngine.h **** 		case WHOLE_16TH:	return !prescaler_32th_whole 	&& !(ticks_32th_whole 	% 2);
 1442              		.loc 1 228 52 view .LVU471
 1443 01b0 002C     		cmp	r4, #0
 1444 01b2 40F0D781 		bne	.L149
 1445 01b6 DD07     		lsls	r5, r3, #31
 1446 01b8 00F1D481 		bmi	.L149
 1447 01bc 0121     		movs	r1, #1
 1448 01be D2E1     		b	.L150
 1449              	.L98:
 229:Src/Engine/clockEngine.h **** 		case TRIPLET_16TH:	return !prescaler_32th_triplet 	&& !(ticks_32th_triplet % 2);
 1450              		.loc 1 229 3 is_stmt 1 view .LVU472
 229:Src/Engine/clockEngine.h **** 		case TRIPLET_16TH:	return !prescaler_32th_triplet 	&& !(ticks_32th_triplet % 2);
 1451              		.loc 1 229 20 view .LVU473
 229:Src/Engine/clockEngine.h **** 		case TRIPLET_16TH:	return !prescaler_32th_triplet 	&& !(ticks_32th_triplet % 2);
 1452              		.loc 1 229 28 is_stmt 0 view .LVU474
 1453 01c0 457A     		ldrb	r5, [r0, #9]	@ zero_extendqisi2
 229:Src/Engine/clockEngine.h **** 		case TRIPLET_16TH:	return !prescaler_32th_triplet 	&& !(ticks_32th_triplet % 2);
 1454              		.loc 1 229 55 view .LVU475
 1455 01c2 0669     		ldr	r6, [r0, #16]
 229:Src/Engine/clockEngine.h **** 		case TRIPLET_16TH:	return !prescaler_32th_triplet 	&& !(ticks_32th_triplet % 2);
 1456              		.loc 1 229 50 view .LVU476
 1457 01c4 002D     		cmp	r5, #0
 1458 01c6 40F0C781 		bne	.L152
 1459 01ca F107     		lsls	r1, r6, #31
 1460 01cc 00F1C481 		bmi	.L152
ARM GAS  /var/folders/84/_x1cyy_j36g486tldtwl37280000gn/T//cc3zCcdS.s 			page 43


 1461 01d0 0121     		movs	r1, #1
 1462 01d2 C2E1     		b	.L153
 1463              	.L97:
 230:Src/Engine/clockEngine.h **** 		case DOTTED_32TH:	return !prescaler_32th_dotted;
 1464              		.loc 1 230 3 is_stmt 1 view .LVU477
 230:Src/Engine/clockEngine.h **** 		case DOTTED_32TH:	return !prescaler_32th_dotted;
 1465              		.loc 1 230 22 view .LVU478
 230:Src/Engine/clockEngine.h **** 		case DOTTED_32TH:	return !prescaler_32th_dotted;
 1466              		.loc 1 230 30 is_stmt 0 view .LVU479
 1467 01d4 067A     		ldrb	r6, [r0, #8]	@ zero_extendqisi2
 230:Src/Engine/clockEngine.h **** 		case DOTTED_32TH:	return !prescaler_32th_dotted;
 1468              		.loc 1 230 59 view .LVU480
 1469 01d6 C468     		ldr	r4, [r0, #12]
 230:Src/Engine/clockEngine.h **** 		case DOTTED_32TH:	return !prescaler_32th_dotted;
 1470              		.loc 1 230 54 view .LVU481
 1471 01d8 002E     		cmp	r6, #0
 1472 01da 40F0B781 		bne	.L155
 1473 01de E207     		lsls	r2, r4, #31
 1474 01e0 00F1B481 		bmi	.L155
 1475 01e4 0121     		movs	r1, #1
 1476 01e6 B2E1     		b	.L156
 1477              	.L96:
 231:Src/Engine/clockEngine.h **** 		case WHOLE_32TH:	return !prescaler_32th_whole;
 1478              		.loc 1 231 3 is_stmt 1 view .LVU482
 231:Src/Engine/clockEngine.h **** 		case WHOLE_32TH:	return !prescaler_32th_whole;
 1479              		.loc 1 231 21 view .LVU483
 231:Src/Engine/clockEngine.h **** 		case WHOLE_32TH:	return !prescaler_32th_whole;
 1480              		.loc 1 231 29 is_stmt 0 view .LVU484
 1481 01e8 847A     		ldrb	r4, [r0, #10]	@ zero_extendqisi2
 1482              	.LBE1455:
 1483              	.LBE1510:
 1484              	.LBB1511:
 1485              	.LBB1479:
 205:Src/Engine/clockEngine.h **** 		case WHOLE_32TH:	return ticks_32th_whole;
 1486              		.loc 1 205 28 view .LVU485
 1487 01ea 4369     		ldr	r3, [r0, #20]
 1488 01ec 457A     		ldrb	r5, [r0, #9]	@ zero_extendqisi2
 1489 01ee 067A     		ldrb	r6, [r0, #8]	@ zero_extendqisi2
 1490              	.LBE1479:
 1491              	.LBE1511:
 1492              	.LBB1512:
 1493              	.LBB1456:
 231:Src/Engine/clockEngine.h **** 		case WHOLE_32TH:	return !prescaler_32th_whole;
 1494              		.loc 1 231 29 view .LVU486
 1495 01f0 B4FA84F2 		clz	r2, r4
 1496 01f4 5109     		lsrs	r1, r2, #5
 1497              	.LVL68:
 231:Src/Engine/clockEngine.h **** 		case WHOLE_32TH:	return !prescaler_32th_whole;
 1498              		.loc 1 231 29 view .LVU487
 1499              	.LBE1456:
 1500              	.LBE1512:
  86:Src/Engine/clockEngine.h **** 		ticks_passed_ = ticks();
 1501              		.loc 1 86 14 view .LVU488
 1502 01f6 4170     		strb	r1, [r0, #1]
  87:Src/Engine/clockEngine.h **** 
 1503              		.loc 1 87 3 is_stmt 1 view .LVU489
 1504              	.LVL69:
ARM GAS  /var/folders/84/_x1cyy_j36g486tldtwl37280000gn/T//cc3zCcdS.s 			page 44


 1505              	.LBB1513:
 187:Src/Engine/clockEngine.h **** 		switch (speed_)
 1506              		.loc 1 187 18 view .LVU490
 1507              	.LBB1480:
 188:Src/Engine/clockEngine.h **** 		{
 1508              		.loc 1 188 3 view .LVU491
 205:Src/Engine/clockEngine.h **** 		case WHOLE_32TH:	return ticks_32th_whole;
 1509              		.loc 1 205 3 view .LVU492
 205:Src/Engine/clockEngine.h **** 		case WHOLE_32TH:	return ticks_32th_whole;
 1510              		.loc 1 205 21 view .LVU493
 205:Src/Engine/clockEngine.h **** 		case WHOLE_32TH:	return ticks_32th_whole;
 1511              		.loc 1 205 28 is_stmt 0 view .LVU494
 1512 01f8 31E7     		b	.L157
 1513              	.LVL70:
 1514              	.L95:
 205:Src/Engine/clockEngine.h **** 		case WHOLE_32TH:	return ticks_32th_whole;
 1515              		.loc 1 205 28 view .LVU495
 1516              	.LBE1480:
 1517              	.LBE1513:
 1518              	.LBB1514:
 1519              	.LBB1457:
 232:Src/Engine/clockEngine.h **** 		case TRIPLET_32TH:	return !prescaler_32th_triplet;
 1520              		.loc 1 232 3 is_stmt 1 view .LVU496
 232:Src/Engine/clockEngine.h **** 		case TRIPLET_32TH:	return !prescaler_32th_triplet;
 1521              		.loc 1 232 20 view .LVU497
 232:Src/Engine/clockEngine.h **** 		case TRIPLET_32TH:	return !prescaler_32th_triplet;
 1522              		.loc 1 232 28 is_stmt 0 view .LVU498
 1523 01fa 457A     		ldrb	r5, [r0, #9]	@ zero_extendqisi2
 1524              	.LBE1457:
 1525              	.LBE1514:
 1526              	.LBB1515:
 1527              	.LBB1481:
 206:Src/Engine/clockEngine.h **** 		case TRIPLET_32TH:	return ticks_32th_triplet;
 1528              		.loc 1 206 27 view .LVU499
 1529 01fc 0369     		ldr	r3, [r0, #16]
 1530 01fe 847A     		ldrb	r4, [r0, #10]	@ zero_extendqisi2
 1531 0200 067A     		ldrb	r6, [r0, #8]	@ zero_extendqisi2
 1532              	.LBE1481:
 1533              	.LBE1515:
 1534              	.LBB1516:
 1535              	.LBB1458:
 232:Src/Engine/clockEngine.h **** 		case TRIPLET_32TH:	return !prescaler_32th_triplet;
 1536              		.loc 1 232 28 view .LVU500
 1537 0202 B5FA85F1 		clz	r1, r5
 1538 0206 4909     		lsrs	r1, r1, #5
 1539              	.LVL71:
 232:Src/Engine/clockEngine.h **** 		case TRIPLET_32TH:	return !prescaler_32th_triplet;
 1540              		.loc 1 232 28 view .LVU501
 1541              	.LBE1458:
 1542              	.LBE1516:
  86:Src/Engine/clockEngine.h **** 		ticks_passed_ = ticks();
 1543              		.loc 1 86 14 view .LVU502
 1544 0208 4170     		strb	r1, [r0, #1]
  87:Src/Engine/clockEngine.h **** 
 1545              		.loc 1 87 3 is_stmt 1 view .LVU503
 1546              	.LVL72:
 1547              	.LBB1517:
ARM GAS  /var/folders/84/_x1cyy_j36g486tldtwl37280000gn/T//cc3zCcdS.s 			page 45


 187:Src/Engine/clockEngine.h **** 		switch (speed_)
 1548              		.loc 1 187 18 view .LVU504
 1549              	.LBB1482:
 188:Src/Engine/clockEngine.h **** 		{
 1550              		.loc 1 188 3 view .LVU505
 206:Src/Engine/clockEngine.h **** 		case TRIPLET_32TH:	return ticks_32th_triplet;
 1551              		.loc 1 206 3 view .LVU506
 206:Src/Engine/clockEngine.h **** 		case TRIPLET_32TH:	return ticks_32th_triplet;
 1552              		.loc 1 206 20 view .LVU507
 206:Src/Engine/clockEngine.h **** 		case TRIPLET_32TH:	return ticks_32th_triplet;
 1553              		.loc 1 206 27 is_stmt 0 view .LVU508
 1554 020a 28E7     		b	.L157
 1555              	.LVL73:
 1556              	.L234:
 206:Src/Engine/clockEngine.h **** 		case TRIPLET_32TH:	return ticks_32th_triplet;
 1557              		.loc 1 206 27 view .LVU509
 1558              	.LBE1482:
 1559              	.LBE1517:
 1560              	.LBE1560:
 1561              	.LBE1564:
 1562              	.LBB1565:
  59:Src/Engine/trackState.h **** 			uint32_t total = track_->num_patterns();
 1563              		.loc 2 59 4 is_stmt 1 view .LVU510
  59:Src/Engine/trackState.h **** 			uint32_t total = track_->num_patterns();
 1564              		.loc 2 59 4 is_stmt 0 view .LVU511
 1565              	.LBE1565:
 1566              	.LBE1958:
 126:Src/Engine/clockEngine.h **** 	}
 1567              		.loc 1 126 3 is_stmt 1 view .LVU512
 1568              	.LBB1959:
 1569              	.LBB1943:
  60:Src/Engine/trackState.h **** 			pattern_index_ = position.update_pattern(ticks, total);
 1570              		.loc 2 60 4 view .LVU513
 1571              	.LBB1566:
 1572              	.LBI1566:
 125:Src/Settings/baseTrack.h **** 	}
 126:Src/Settings/baseTrack.h **** 
 127:Src/Settings/baseTrack.h **** 	void set_clock_speed(int clock_speed) {
 128:Src/Settings/baseTrack.h **** 		data_->clock_speed_ = stmlib::clip(0, ClockEngine::NUM_SIGNATURES - 1, clock_speed);
 129:Src/Settings/baseTrack.h **** 	}
 130:Src/Settings/baseTrack.h **** 
 131:Src/Settings/baseTrack.h **** 	const char* clock_speed_text() {
 132:Src/Settings/baseTrack.h **** 		return ClockEngine::speed_text(clock_speed());
 133:Src/Settings/baseTrack.h **** 	}
 134:Src/Settings/baseTrack.h **** 
 135:Src/Settings/baseTrack.h **** 	// delay
 136:Src/Settings/baseTrack.h **** 	uint8_t delay() {
 137:Src/Settings/baseTrack.h **** 		return data_->delay_;
 138:Src/Settings/baseTrack.h **** 	}
 139:Src/Settings/baseTrack.h **** 
 140:Src/Settings/baseTrack.h **** 	void set_delay(int delay) {
 141:Src/Settings/baseTrack.h **** 		data_->delay_ = stmlib::clip(0, 3, delay);
 142:Src/Settings/baseTrack.h **** 	}
 143:Src/Settings/baseTrack.h **** 
 144:Src/Settings/baseTrack.h **** 	const char* delay_text() {
 145:Src/Settings/baseTrack.h **** 		return ClockEngine::gate_duration_text(delay());
 146:Src/Settings/baseTrack.h **** 	}
ARM GAS  /var/folders/84/_x1cyy_j36g486tldtwl37280000gn/T//cc3zCcdS.s 			page 46


 147:Src/Settings/baseTrack.h **** 
 148:Src/Settings/baseTrack.h **** 	// swing
 149:Src/Settings/baseTrack.h **** 	uint8_t swing() {
 150:Src/Settings/baseTrack.h **** 		return data_->swing_;
 151:Src/Settings/baseTrack.h **** 	}
 152:Src/Settings/baseTrack.h **** 
 153:Src/Settings/baseTrack.h **** 	void set_swing(int value) {
 154:Src/Settings/baseTrack.h **** 		data_->swing_ = stmlib::clip(1, 15, value);
 155:Src/Settings/baseTrack.h **** 	}
 156:Src/Settings/baseTrack.h **** 
 157:Src/Settings/baseTrack.h **** 	const char* swing_text() {
 158:Src/Settings/baseTrack.h **** 		return ClockEngine::swing_text(swing());
 159:Src/Settings/baseTrack.h **** 	}
 160:Src/Settings/baseTrack.h **** 
 161:Src/Settings/baseTrack.h **** 	// humanise
 162:Src/Settings/baseTrack.h **** 	uint8_t humanise() {
 163:Src/Settings/baseTrack.h **** 		return data_->humanise_;
 164:Src/Settings/baseTrack.h **** 	}
 165:Src/Settings/baseTrack.h **** 
 166:Src/Settings/baseTrack.h **** 	void set_humanise(int value) {
 167:Src/Settings/baseTrack.h **** 		data_->humanise_ = stmlib::clip(0, 7, value);
 168:Src/Settings/baseTrack.h **** 	}
 169:Src/Settings/baseTrack.h **** 
 170:Src/Settings/baseTrack.h **** 	const char* humanise_text() {
 171:Src/Settings/baseTrack.h **** 		return UiText::percentage_text(humanise(), 7);
 172:Src/Settings/baseTrack.h **** 	}
 173:Src/Settings/baseTrack.h **** 
 174:Src/Settings/baseTrack.h **** 	// label
 175:Src/Settings/baseTrack.h **** 	const char* label() {
 176:Src/Settings/baseTrack.h **** 		return data_->label_;
 177:Src/Settings/baseTrack.h **** 	};
 178:Src/Settings/baseTrack.h **** 
 179:Src/Settings/baseTrack.h **** 	void set_label(const char* new_label) {
 180:Src/Settings/baseTrack.h **** 		StringUtils::copy(data_->label_, const_cast<char*>(new_label), max_label_length());
 181:Src/Settings/baseTrack.h **** 	}
 182:Src/Settings/baseTrack.h **** 
 183:Src/Settings/baseTrack.h **** 	// grouped steps
 184:Src/Settings/baseTrack.h **** 	uint16_t *grouped_steps() {
 185:Src/Settings/baseTrack.h **** 		return &data_->grouped_steps_;
 186:Src/Settings/baseTrack.h **** 	}
 187:Src/Settings/baseTrack.h **** 
 188:Src/Settings/baseTrack.h **** 	bool step_is_grouped(int step_index) {
 189:Src/Settings/baseTrack.h **** 		return *grouped_steps() & (1 << step_index);
 190:Src/Settings/baseTrack.h **** 	}
 191:Src/Settings/baseTrack.h **** 
 192:Src/Settings/baseTrack.h **** 	void toggle_grouped_step(int step_index) {
 193:Src/Settings/baseTrack.h **** 		uint16_t flags = *grouped_steps();
 194:Src/Settings/baseTrack.h **** 		*grouped_steps() = flags ^ (1 << step_index);
 195:Src/Settings/baseTrack.h **** 	}
 196:Src/Settings/baseTrack.h **** 
 197:Src/Settings/baseTrack.h **** 	/***************
 198:Src/Settings/baseTrack.h **** 	*	Methods
 199:Src/Settings/baseTrack.h **** 	***************/
 200:Src/Settings/baseTrack.h **** 
 201:Src/Settings/baseTrack.h **** 	void clear() {
 202:Src/Settings/baseTrack.h **** 		set_label("");
 203:Src/Settings/baseTrack.h **** 		set_port(0);
ARM GAS  /var/folders/84/_x1cyy_j36g486tldtwl37280000gn/T//cc3zCcdS.s 			page 47


 204:Src/Settings/baseTrack.h **** 		set_channel(0);
 205:Src/Settings/baseTrack.h **** 		set_delay(0);
 206:Src/Settings/baseTrack.h **** 		set_swing(8);
 207:Src/Settings/baseTrack.h **** 		set_humanise(0);
 208:Src/Settings/baseTrack.h **** 		*grouped_steps() = 0xFFFF;
 209:Src/Settings/baseTrack.h **** 		set_clock_mode(PositionEngine::FORWARD);
 210:Src/Settings/baseTrack.h **** 		set_clock_speed(ClockEngine::WHOLE_16TH);
 211:Src/Settings/baseTrack.h **** 		clear_pattern_list();
 212:Src/Settings/baseTrack.h **** 	}
 213:Src/Settings/baseTrack.h **** 
 214:Src/Settings/baseTrack.h **** 	// patterns
 215:Src/Settings/baseTrack.h **** 	inline uint8_t available_patterns() {
 216:Src/Settings/baseTrack.h **** 		return pattern_pool->size_;
 217:Src/Settings/baseTrack.h **** 	}
 218:Src/Settings/baseTrack.h **** 
 219:Src/Settings/baseTrack.h **** 	inline uint8_t num_patterns() {
 1573              		.loc 3 219 17 view .LVU514
 1574              	.LBB1567:
 220:Src/Settings/baseTrack.h **** 		return pattern_list->size_;
 1575              		.loc 3 220 3 view .LVU515
 1576              		.loc 3 220 3 is_stmt 0 view .LVU516
 1577              	.LBE1567:
 1578              	.LBE1566:
  61:Src/Engine/trackState.h **** 
 1579              		.loc 2 61 4 is_stmt 1 view .LVU517
 1580              	.LBB1569:
 1581              	.LBI1569:
  50:Src/Engine/positionEngine.h **** 	}
  51:Src/Engine/positionEngine.h **** 
  52:Src/Engine/positionEngine.h **** 	void set_step_random_mask(uint16_t mask) {
  53:Src/Engine/positionEngine.h **** 		random_mask = mask;
  54:Src/Engine/positionEngine.h **** 	}
  55:Src/Engine/positionEngine.h **** 
  56:Src/Engine/positionEngine.h **** 	uint32_t update_pattern(uint32_t ticks, uint16_t num_patterns) {
 1582              		.loc 4 56 11 view .LVU518
 1583              	.LBB1570:
  57:Src/Engine/positionEngine.h **** 		pattern_ = (ticks / 16) % num_patterns;
 1584              		.loc 4 57 3 view .LVU519
 1585              	.LBE1570:
 1586              	.LBE1569:
 1587              	.LBB1572:
 1588              	.LBB1568:
 1589              		.loc 3 220 24 is_stmt 0 view .LVU520
 1590 020c BC68     		ldr	r4, [r7, #8]
 1591              	.LBE1568:
 1592              	.LBE1572:
  64:Src/Engine/trackState.h **** 			position.set_step_random_mask(mask);
 1593              		.loc 2 64 83 view .LVU521
 1594 020e DFF850B0 		ldr	fp, .L237+4
  60:Src/Engine/trackState.h **** 			pattern_index_ = position.update_pattern(ticks, total);
 1595              		.loc 2 60 42 view .LVU522
 1596 0212 94F8FF80 		ldrb	r8, [r4, #255]	@ zero_extendqisi2
 1597              	.LBB1573:
 1598              	.LBB1571:
 1599              		.loc 4 57 21 view .LVU523
 1600 0216 1E09     		lsrs	r6, r3, #4
 1601              		.loc 4 57 27 view .LVU524
ARM GAS  /var/folders/84/_x1cyy_j36g486tldtwl37280000gn/T//cc3zCcdS.s 			page 48


 1602 0218 B6FBF8F9 		udiv	r9, r6, r8
 1603 021c 08FB196A 		mls	r10, r8, r9, r6
 1604              		.loc 4 57 12 view .LVU525
 1605 0220 5FFA8AF5 		uxtb	r5, r10
 1606 0224 80F88650 		strb	r5, [r0, #134]
 1607              	.LVL74:
  58:Src/Engine/positionEngine.h **** 		return pattern_;
 1608              		.loc 4 58 3 is_stmt 1 view .LVU526
 1609              		.loc 4 58 3 is_stmt 0 view .LVU527
 1610              	.LBE1571:
 1611              	.LBE1573:
  61:Src/Engine/trackState.h **** 
 1612              		.loc 2 61 19 view .LVU528
 1613 0228 80F8B150 		strb	r5, [r0, #177]
  64:Src/Engine/trackState.h **** 			position.set_step_random_mask(mask);
 1614              		.loc 2 64 4 is_stmt 1 view .LVU529
 1615              	.LVL75:
 1616              	.LBB1574:
 1617              	.LBI1574:
 1618              		.file 5 "Src/Settings/pattern.h"
   1:Src/Settings/pattern.h **** #ifndef Pattern_h
   2:Src/Settings/pattern.h **** #define Pattern_h
   3:Src/Settings/pattern.h **** 
   4:Src/Settings/pattern.h **** #include "trackData.h"
   5:Src/Settings/pattern.h **** #include "uiText.h"
   6:Src/Settings/pattern.h **** 
   7:Src/Settings/pattern.h **** // base pattern
   8:Src/Settings/pattern.h **** 
   9:Src/Settings/pattern.h **** class Pattern {
  10:Src/Settings/pattern.h **** 
  11:Src/Settings/pattern.h **** public:
  12:Src/Settings/pattern.h **** 
  13:Src/Settings/pattern.h **** 	void init(TrackData::List *list) {
  14:Src/Settings/pattern.h **** 		list_ = list;
  15:Src/Settings/pattern.h **** 	}
  16:Src/Settings/pattern.h **** 
  17:Src/Settings/pattern.h **** 	constexpr TrackData::Pattern &data(uint8_t index) {
  18:Src/Settings/pattern.h **** 		return TrackData::pattern_[list_->entry_[index]];
  19:Src/Settings/pattern.h **** 	}
  20:Src/Settings/pattern.h **** 
  21:Src/Settings/pattern.h **** 	constexpr uint32_t* step(uint8_t index, uint8_t step_index) {
  22:Src/Settings/pattern.h **** 		return &data(index).step_[step_index].serial_[0];
  23:Src/Settings/pattern.h **** 	}
  24:Src/Settings/pattern.h **** 
  25:Src/Settings/pattern.h **** 	constexpr uint32_t* random_min(uint8_t index) {
  26:Src/Settings/pattern.h **** 		return &data(index).random_min_.serial_[0];
  27:Src/Settings/pattern.h **** 	}
  28:Src/Settings/pattern.h **** 
  29:Src/Settings/pattern.h **** 	constexpr uint32_t* random_max(uint8_t index) {
  30:Src/Settings/pattern.h **** 		return &data(index).random_max_.serial_[0];
  31:Src/Settings/pattern.h **** 	}
  32:Src/Settings/pattern.h **** 
  33:Src/Settings/pattern.h **** 	constexpr uint16_t* random_mask(uint8_t index, int step_item) {
 1619              		.loc 5 33 22 view .LVU530
 1620              	.LBB1575:
  34:Src/Settings/pattern.h **** 		return &data(index).random_mask_[step_item];
 1621              		.loc 5 34 3 view .LVU531
ARM GAS  /var/folders/84/_x1cyy_j36g486tldtwl37280000gn/T//cc3zCcdS.s 			page 49


 1622              	.LBB1576:
 1623              	.LBI1576:
  17:Src/Settings/pattern.h **** 		return TrackData::pattern_[list_->entry_[index]];
 1624              		.loc 5 17 32 view .LVU532
 1625              	.LBB1577:
  18:Src/Settings/pattern.h **** 	}
 1626              		.loc 5 18 3 view .LVU533
  18:Src/Settings/pattern.h **** 	}
 1627              		.loc 5 18 49 is_stmt 0 view .LVU534
 1628 022c 3C68     		ldr	r4, [r7]
 1629 022e 14F80A60 		ldrb	r6, [r4, r10]	@ zero_extendqisi2
 1630              	.LBE1577:
 1631              	.LBE1576:
 1632              	.LBE1575:
 1633              	.LBE1574:
  64:Src/Engine/trackState.h **** 			position.set_step_random_mask(mask);
 1634              		.loc 2 64 83 view .LVU535
 1635 0232 4FF0B808 		mov	r8, #184
 1636 0236 08FB06BB 		mla	fp, r8, r6, fp
 1637 023a BBF89860 		ldrh	r6, [fp, #152]
 1638              	.LVL76:
  65:Src/Engine/trackState.h **** 			step_index_ = position.update_step(ticks);
 1639              		.loc 2 65 4 is_stmt 1 view .LVU536
 1640              	.LBB1578:
 1641              	.LBI1578:
  52:Src/Engine/positionEngine.h **** 		random_mask = mask;
 1642              		.loc 4 52 7 view .LVU537
 1643              	.LBB1579:
  53:Src/Engine/positionEngine.h **** 	}
 1644              		.loc 4 53 3 view .LVU538
  53:Src/Engine/positionEngine.h **** 	}
 1645              		.loc 4 53 15 is_stmt 0 view .LVU539
 1646 023e A0F88860 		strh	r6, [r0, #136]	@ movhi
 1647              	.LVL77:
  53:Src/Engine/positionEngine.h **** 	}
 1648              		.loc 4 53 15 view .LVU540
 1649              	.LBE1579:
 1650              	.LBE1578:
  66:Src/Engine/trackState.h **** 
 1651              		.loc 2 66 4 is_stmt 1 view .LVU541
 1652              	.LBB1580:
 1653              	.LBI1580:
  59:Src/Engine/positionEngine.h **** 	}
  60:Src/Engine/positionEngine.h **** 
  61:Src/Engine/positionEngine.h **** 	uint32_t update_step(uint32_t ticks) {
 1654              		.loc 4 61 11 view .LVU542
 1655              	.LBE1580:
 1656              	.LBE1943:
 1657              	.LBE1959:
  62:Src/Engine/positionEngine.h **** 		switch (mode_)
 1658              		.loc 4 62 3 view .LVU543
 1659 0242 BEF1060F 		cmp	lr, #6
 1660 0246 00F2FF83 		bhi	.L162
 1661 024a DFE81EF0 		tbh	[pc, lr, lsl #1]
 1662              	.L164:
 1663 024e 7501     		.2byte	(.L170-.L164)/2
 1664 0250 4901     		.2byte	(.L169-.L164)/2
ARM GAS  /var/folders/84/_x1cyy_j36g486tldtwl37280000gn/T//cc3zCcdS.s 			page 50


 1665 0252 0901     		.2byte	(.L168-.L164)/2
 1666 0254 F100     		.2byte	(.L167-.L164)/2
 1667 0256 5401     		.2byte	(.L166-.L164)/2
 1668 0258 2301     		.2byte	(.L165-.L164)/2
 1669 025a 0B00     		.2byte	(.L163-.L164)/2
 1670              		.p2align 1
 1671              	.L238:
 1672              		.align	2
 1673              	.L237:
 1674 025c 00000000 		.word	_ZN11ClockEngine14step_duration_E
 1675 0260 00000000 		.word	_ZN9TrackData8pattern_E
 1676              	.L163:
 1677              	.LBB1960:
 1678              	.LBB1944:
 1679              	.LBB1860:
 1680              	.LBB1581:
  63:Src/Engine/positionEngine.h **** 		{
  64:Src/Engine/positionEngine.h **** 		case FORWARD:
  65:Src/Engine/positionEngine.h **** 			step_ = ticks % 16;
  66:Src/Engine/positionEngine.h **** 			break;
  67:Src/Engine/positionEngine.h **** 		case BACKWARD:
  68:Src/Engine/positionEngine.h **** 			step_ = 15 - (ticks % 16);
  69:Src/Engine/positionEngine.h **** 			break;
  70:Src/Engine/positionEngine.h **** 		case ZIGZAG:
  71:Src/Engine/positionEngine.h **** 			ticks %= 16;
  72:Src/Engine/positionEngine.h **** 			step_ = ticks / 2;
  73:Src/Engine/positionEngine.h **** 			if ((ticks % 2) == 1) {
  74:Src/Engine/positionEngine.h **** 				step_ = 15 - step_;
  75:Src/Engine/positionEngine.h **** 			}
  76:Src/Engine/positionEngine.h **** 			break;
  77:Src/Engine/positionEngine.h **** 		case ZIGZAG_REVERSE:
  78:Src/Engine/positionEngine.h **** 			ticks %= 16;
  79:Src/Engine/positionEngine.h **** 			step_ = ticks / 2;
  80:Src/Engine/positionEngine.h **** 			if ((ticks % 2) == 0) {
  81:Src/Engine/positionEngine.h **** 				step_ = 15 - step_;
  82:Src/Engine/positionEngine.h **** 			}
  83:Src/Engine/positionEngine.h **** 			break;
  84:Src/Engine/positionEngine.h **** 		case RANDOM:
  85:Src/Engine/positionEngine.h **** 			step_ = ticks % 16;
  86:Src/Engine/positionEngine.h **** 			if (random_mask & (1 << step_)) {
  87:Src/Engine/positionEngine.h **** 				step_ = Rng::u16() % 16;
  88:Src/Engine/positionEngine.h **** 			}
  89:Src/Engine/positionEngine.h **** 			break;
  90:Src/Engine/positionEngine.h **** 		case DRUNKEN_WALK:
  91:Src/Engine/positionEngine.h **** 			if (random_mask & (1 << (ticks % 16))) {
  92:Src/Engine/positionEngine.h **** 				step_ = next_drunken_walk(step_);
  93:Src/Engine/positionEngine.h **** 			} else {
  94:Src/Engine/positionEngine.h **** 				step_ = ticks % 16;
  95:Src/Engine/positionEngine.h **** 			}
  96:Src/Engine/positionEngine.h **** 			break;
  97:Src/Engine/positionEngine.h **** 		case SHUFFLE:
 1681              		.loc 4 97 3 view .LVU544
  98:Src/Engine/positionEngine.h **** 			step_ = ticks % 16;
 1682              		.loc 4 98 4 view .LVU545
 1683              		.loc 4 98 18 is_stmt 0 view .LVU546
 1684 0264 03F00F04 		and	r4, r3, #15
 1685 0268 D94D     		ldr	r5, .L239
ARM GAS  /var/folders/84/_x1cyy_j36g486tldtwl37280000gn/T//cc3zCcdS.s 			page 51


 1686              		.loc 4 98 10 view .LVU547
 1687 026a 80F88540 		strb	r4, [r0, #133]
  99:Src/Engine/positionEngine.h **** 			if (step_ == 0) {
 1688              		.loc 4 99 4 is_stmt 1 view .LVU548
 1689 026e 002C     		cmp	r4, #0
 1690 0270 00F0EE81 		beq	.L180
 1691 0274 B5F80090 		ldrh	r9, [r5]
 1692 0278 B5F900E0 		ldrsh	lr, [r5]
 1693              	.LVL78:
 1694              	.L181:
 100:Src/Engine/positionEngine.h **** 				shuffle_steps();
 101:Src/Engine/positionEngine.h **** 			}
 102:Src/Engine/positionEngine.h **** 
 103:Src/Engine/positionEngine.h **** 			if (random_mask & (1 << step_)) {
 1695              		.loc 4 103 4 view .LVU549
 1696              	.LBB1582:
 1697              		.loc 4 103 34 is_stmt 0 view .LVU550
 1698 027c 2641     		asrs	r6, r6, r4
 1699              	.LVL79:
 1700              		.loc 4 103 4 view .LVU551
 1701 027e F607     		lsls	r6, r6, #31
 1702 0280 40F18380 		bpl	.L171
 1703              	.LBB1583:
 1704              	.LBB1584:
 1705              	.LBB1585:
 1706              	.LBB1586:
 104:Src/Engine/positionEngine.h **** 				int res = next_shuffled_step();
 105:Src/Engine/positionEngine.h **** 				if (res >= 0) {
 106:Src/Engine/positionEngine.h **** 					step_ = res;
 107:Src/Engine/positionEngine.h **** 				}
 108:Src/Engine/positionEngine.h **** 			}
 109:Src/Engine/positionEngine.h **** 			break;
 110:Src/Engine/positionEngine.h **** 		default:
 111:Src/Engine/positionEngine.h **** 			step_ = 0;
 112:Src/Engine/positionEngine.h **** 			break;
 113:Src/Engine/positionEngine.h **** 		}
 114:Src/Engine/positionEngine.h **** 		return step_;
 115:Src/Engine/positionEngine.h **** 	}
 116:Src/Engine/positionEngine.h **** 
 117:Src/Engine/positionEngine.h **** 
 118:Src/Engine/positionEngine.h **** private:
 119:Src/Engine/positionEngine.h **** 	Mode mode_;
 120:Src/Engine/positionEngine.h **** 
 121:Src/Engine/positionEngine.h **** 	uint8_t step_;
 122:Src/Engine/positionEngine.h **** 	uint8_t pattern_;
 123:Src/Engine/positionEngine.h **** 
 124:Src/Engine/positionEngine.h **** 	uint16_t random_mask;
 125:Src/Engine/positionEngine.h **** 	uint16_t exclude_mask;
 126:Src/Engine/positionEngine.h **** 	uint8_t shuffle_array[16];
 127:Src/Engine/positionEngine.h **** 
 128:Src/Engine/positionEngine.h **** 	void shuffle_steps() {
 129:Src/Engine/positionEngine.h **** 		exclude_mask = ~random_mask;
 130:Src/Engine/positionEngine.h **** 		for (int i = 0; i < 16; ++i) {
 131:Src/Engine/positionEngine.h **** 			uint8_t rng_value = Rng::u16() % 16;
 132:Src/Engine/positionEngine.h **** 			stmlib::swap(shuffle_array[i], shuffle_array[rng_value]);
 133:Src/Engine/positionEngine.h **** 		}
 134:Src/Engine/positionEngine.h **** 	}
ARM GAS  /var/folders/84/_x1cyy_j36g486tldtwl37280000gn/T//cc3zCcdS.s 			page 52


 135:Src/Engine/positionEngine.h **** 
 136:Src/Engine/positionEngine.h **** 	int next_shuffled_step() {
 137:Src/Engine/positionEngine.h **** 		for (int i = 0; i < 16; ++i) {
 138:Src/Engine/positionEngine.h **** 			int step = shuffle_array[i];
 139:Src/Engine/positionEngine.h **** 			if (!(exclude_mask & (1 << step))) {
 1707              		.loc 4 139 10 view .LVU552
 1708 0284 B0F88AC0 		ldrh	ip, [r0, #138]
 1709              	.LVL80:
 138:Src/Engine/positionEngine.h **** 			if (!(exclude_mask & (1 << step))) {
 1710              		.loc 4 138 4 is_stmt 1 view .LVU553
 138:Src/Engine/positionEngine.h **** 			if (!(exclude_mask & (1 << step))) {
 1711              		.loc 4 138 30 is_stmt 0 view .LVU554
 1712 0288 90F88C60 		ldrb	r6, [r0, #140]	@ zero_extendqisi2
 1713              	.LVL81:
 1714              		.loc 4 139 4 is_stmt 1 view .LVU555
 1715              		.loc 4 139 8 is_stmt 0 view .LVU556
 1716 028c 4CFA06FA 		asr	r10, ip, r6
 1717              		.loc 4 139 4 view .LVU557
 1718 0290 1AF0010F 		tst	r10, #1
 1719 0294 00F0B283 		beq	.L217
 1720              	.LBE1586:
 137:Src/Engine/positionEngine.h **** 			int step = shuffle_array[i];
 1721              		.loc 4 137 3 is_stmt 1 view .LVU558
 1722              	.LVL82:
 137:Src/Engine/positionEngine.h **** 			int step = shuffle_array[i];
 1723              		.loc 4 137 21 view .LVU559
 1724              	.LBB1587:
 138:Src/Engine/positionEngine.h **** 			if (!(exclude_mask & (1 << step))) {
 1725              		.loc 4 138 4 view .LVU560
 138:Src/Engine/positionEngine.h **** 			if (!(exclude_mask & (1 << step))) {
 1726              		.loc 4 138 30 is_stmt 0 view .LVU561
 1727 0298 90F88D60 		ldrb	r6, [r0, #141]	@ zero_extendqisi2
 1728              		.loc 4 139 4 is_stmt 1 view .LVU562
 1729              		.loc 4 139 8 is_stmt 0 view .LVU563
 1730 029c 4CFA06F8 		asr	r8, ip, r6
 1731              		.loc 4 139 4 view .LVU564
 1732 02a0 18F0010F 		tst	r8, #1
 1733 02a4 00F0AA83 		beq	.L217
 1734              	.LBE1587:
 137:Src/Engine/positionEngine.h **** 			int step = shuffle_array[i];
 1735              		.loc 4 137 3 is_stmt 1 view .LVU565
 1736              	.LVL83:
 137:Src/Engine/positionEngine.h **** 			int step = shuffle_array[i];
 1737              		.loc 4 137 21 view .LVU566
 1738              	.LBB1588:
 138:Src/Engine/positionEngine.h **** 			if (!(exclude_mask & (1 << step))) {
 1739              		.loc 4 138 4 view .LVU567
 138:Src/Engine/positionEngine.h **** 			if (!(exclude_mask & (1 << step))) {
 1740              		.loc 4 138 30 is_stmt 0 view .LVU568
 1741 02a8 90F88E60 		ldrb	r6, [r0, #142]	@ zero_extendqisi2
 1742              		.loc 4 139 4 is_stmt 1 view .LVU569
 1743              		.loc 4 139 8 is_stmt 0 view .LVU570
 1744 02ac 4CFA06FB 		asr	fp, ip, r6
 1745              		.loc 4 139 4 view .LVU571
 1746 02b0 1BF0010F 		tst	fp, #1
 1747 02b4 00F0A283 		beq	.L217
 1748              	.LBE1588:
ARM GAS  /var/folders/84/_x1cyy_j36g486tldtwl37280000gn/T//cc3zCcdS.s 			page 53


 137:Src/Engine/positionEngine.h **** 			int step = shuffle_array[i];
 1749              		.loc 4 137 3 is_stmt 1 view .LVU572
 1750              	.LVL84:
 137:Src/Engine/positionEngine.h **** 			int step = shuffle_array[i];
 1751              		.loc 4 137 21 view .LVU573
 1752              	.LBB1589:
 138:Src/Engine/positionEngine.h **** 			if (!(exclude_mask & (1 << step))) {
 1753              		.loc 4 138 4 view .LVU574
 138:Src/Engine/positionEngine.h **** 			if (!(exclude_mask & (1 << step))) {
 1754              		.loc 4 138 30 is_stmt 0 view .LVU575
 1755 02b8 90F88F60 		ldrb	r6, [r0, #143]	@ zero_extendqisi2
 1756              		.loc 4 139 4 is_stmt 1 view .LVU576
 1757              		.loc 4 139 8 is_stmt 0 view .LVU577
 1758 02bc 4CFA06FA 		asr	r10, ip, r6
 1759              		.loc 4 139 4 view .LVU578
 1760 02c0 1AF0010F 		tst	r10, #1
 1761 02c4 00F09A83 		beq	.L217
 1762              	.LBE1589:
 137:Src/Engine/positionEngine.h **** 			int step = shuffle_array[i];
 1763              		.loc 4 137 3 is_stmt 1 view .LVU579
 1764              	.LVL85:
 137:Src/Engine/positionEngine.h **** 			int step = shuffle_array[i];
 1765              		.loc 4 137 21 view .LVU580
 1766              	.LBB1590:
 138:Src/Engine/positionEngine.h **** 			if (!(exclude_mask & (1 << step))) {
 1767              		.loc 4 138 4 view .LVU581
 138:Src/Engine/positionEngine.h **** 			if (!(exclude_mask & (1 << step))) {
 1768              		.loc 4 138 30 is_stmt 0 view .LVU582
 1769 02c8 90F89060 		ldrb	r6, [r0, #144]	@ zero_extendqisi2
 1770              		.loc 4 139 4 is_stmt 1 view .LVU583
 1771              		.loc 4 139 8 is_stmt 0 view .LVU584
 1772 02cc 4CFA06F8 		asr	r8, ip, r6
 1773              		.loc 4 139 4 view .LVU585
 1774 02d0 18F0010F 		tst	r8, #1
 1775 02d4 00F09283 		beq	.L217
 1776              	.LBE1590:
 137:Src/Engine/positionEngine.h **** 			int step = shuffle_array[i];
 1777              		.loc 4 137 3 is_stmt 1 view .LVU586
 1778              	.LVL86:
 137:Src/Engine/positionEngine.h **** 			int step = shuffle_array[i];
 1779              		.loc 4 137 21 view .LVU587
 1780              	.LBB1591:
 138:Src/Engine/positionEngine.h **** 			if (!(exclude_mask & (1 << step))) {
 1781              		.loc 4 138 4 view .LVU588
 138:Src/Engine/positionEngine.h **** 			if (!(exclude_mask & (1 << step))) {
 1782              		.loc 4 138 30 is_stmt 0 view .LVU589
 1783 02d8 90F89160 		ldrb	r6, [r0, #145]	@ zero_extendqisi2
 1784              		.loc 4 139 4 is_stmt 1 view .LVU590
 1785              		.loc 4 139 8 is_stmt 0 view .LVU591
 1786 02dc 4CFA06FB 		asr	fp, ip, r6
 1787              		.loc 4 139 4 view .LVU592
 1788 02e0 1BF0010F 		tst	fp, #1
 1789 02e4 00F08A83 		beq	.L217
 1790              	.LBE1591:
 137:Src/Engine/positionEngine.h **** 			int step = shuffle_array[i];
 1791              		.loc 4 137 3 is_stmt 1 view .LVU593
 1792              	.LVL87:
ARM GAS  /var/folders/84/_x1cyy_j36g486tldtwl37280000gn/T//cc3zCcdS.s 			page 54


 137:Src/Engine/positionEngine.h **** 			int step = shuffle_array[i];
 1793              		.loc 4 137 21 view .LVU594
 1794              	.LBB1592:
 138:Src/Engine/positionEngine.h **** 			if (!(exclude_mask & (1 << step))) {
 1795              		.loc 4 138 4 view .LVU595
 138:Src/Engine/positionEngine.h **** 			if (!(exclude_mask & (1 << step))) {
 1796              		.loc 4 138 30 is_stmt 0 view .LVU596
 1797 02e8 90F89260 		ldrb	r6, [r0, #146]	@ zero_extendqisi2
 1798              		.loc 4 139 4 is_stmt 1 view .LVU597
 1799              		.loc 4 139 8 is_stmt 0 view .LVU598
 1800 02ec 4CFA06FA 		asr	r10, ip, r6
 1801              		.loc 4 139 4 view .LVU599
 1802 02f0 1AF0010F 		tst	r10, #1
 1803 02f4 00F08283 		beq	.L217
 1804              	.LBE1592:
 137:Src/Engine/positionEngine.h **** 			int step = shuffle_array[i];
 1805              		.loc 4 137 3 is_stmt 1 view .LVU600
 1806              	.LVL88:
 137:Src/Engine/positionEngine.h **** 			int step = shuffle_array[i];
 1807              		.loc 4 137 21 view .LVU601
 1808              	.LBB1593:
 138:Src/Engine/positionEngine.h **** 			if (!(exclude_mask & (1 << step))) {
 1809              		.loc 4 138 4 view .LVU602
 138:Src/Engine/positionEngine.h **** 			if (!(exclude_mask & (1 << step))) {
 1810              		.loc 4 138 30 is_stmt 0 view .LVU603
 1811 02f8 90F89360 		ldrb	r6, [r0, #147]	@ zero_extendqisi2
 1812              		.loc 4 139 4 is_stmt 1 view .LVU604
 1813              		.loc 4 139 8 is_stmt 0 view .LVU605
 1814 02fc 4CFA06F8 		asr	r8, ip, r6
 1815              		.loc 4 139 4 view .LVU606
 1816 0300 18F0010F 		tst	r8, #1
 1817 0304 00F07A83 		beq	.L217
 1818              	.LBE1593:
 137:Src/Engine/positionEngine.h **** 			int step = shuffle_array[i];
 1819              		.loc 4 137 3 is_stmt 1 view .LVU607
 1820              	.LVL89:
 137:Src/Engine/positionEngine.h **** 			int step = shuffle_array[i];
 1821              		.loc 4 137 21 view .LVU608
 1822              	.LBB1594:
 138:Src/Engine/positionEngine.h **** 			if (!(exclude_mask & (1 << step))) {
 1823              		.loc 4 138 4 view .LVU609
 138:Src/Engine/positionEngine.h **** 			if (!(exclude_mask & (1 << step))) {
 1824              		.loc 4 138 30 is_stmt 0 view .LVU610
 1825 0308 90F894B0 		ldrb	fp, [r0, #148]	@ zero_extendqisi2
 1826              	.LVL90:
 1827              		.loc 4 139 8 view .LVU611
 1828 030c 4CFA0BFA 		asr	r10, ip, fp
 1829              		.loc 4 139 4 view .LVU612
 1830 0310 1AF0010F 		tst	r10, #1
 138:Src/Engine/positionEngine.h **** 			if (!(exclude_mask & (1 << step))) {
 1831              		.loc 4 138 8 view .LVU613
 1832 0314 5E46     		mov	r6, fp
 1833              		.loc 4 139 4 is_stmt 1 view .LVU614
 1834 0316 00F08D83 		beq	.L211
 1835              	.LBE1594:
 137:Src/Engine/positionEngine.h **** 			int step = shuffle_array[i];
 1836              		.loc 4 137 3 view .LVU615
ARM GAS  /var/folders/84/_x1cyy_j36g486tldtwl37280000gn/T//cc3zCcdS.s 			page 55


 1837              	.LVL91:
 137:Src/Engine/positionEngine.h **** 			int step = shuffle_array[i];
 1838              		.loc 4 137 21 view .LVU616
 1839              	.LBB1595:
 138:Src/Engine/positionEngine.h **** 			if (!(exclude_mask & (1 << step))) {
 1840              		.loc 4 138 4 view .LVU617
 138:Src/Engine/positionEngine.h **** 			if (!(exclude_mask & (1 << step))) {
 1841              		.loc 4 138 30 is_stmt 0 view .LVU618
 1842 031a 90F89560 		ldrb	r6, [r0, #149]	@ zero_extendqisi2
 1843              	.LVL92:
 1844              		.loc 4 139 4 is_stmt 1 view .LVU619
 1845              		.loc 4 139 8 is_stmt 0 view .LVU620
 1846 031e 4CFA06F8 		asr	r8, ip, r6
 1847              		.loc 4 139 4 view .LVU621
 1848 0322 18F0010F 		tst	r8, #1
 1849 0326 00F06983 		beq	.L217
 1850              	.LBE1595:
 137:Src/Engine/positionEngine.h **** 			int step = shuffle_array[i];
 1851              		.loc 4 137 3 is_stmt 1 view .LVU622
 1852              	.LVL93:
 137:Src/Engine/positionEngine.h **** 			int step = shuffle_array[i];
 1853              		.loc 4 137 21 view .LVU623
 1854              	.LBB1596:
 138:Src/Engine/positionEngine.h **** 			if (!(exclude_mask & (1 << step))) {
 1855              		.loc 4 138 4 view .LVU624
 138:Src/Engine/positionEngine.h **** 			if (!(exclude_mask & (1 << step))) {
 1856              		.loc 4 138 30 is_stmt 0 view .LVU625
 1857 032a 90F89660 		ldrb	r6, [r0, #150]	@ zero_extendqisi2
 1858              		.loc 4 139 4 is_stmt 1 view .LVU626
 1859              		.loc 4 139 8 is_stmt 0 view .LVU627
 1860 032e 4CFA06FB 		asr	fp, ip, r6
 1861              		.loc 4 139 4 view .LVU628
 1862 0332 1BF0010F 		tst	fp, #1
 1863 0336 00F06183 		beq	.L217
 1864              	.LBE1596:
 137:Src/Engine/positionEngine.h **** 			int step = shuffle_array[i];
 1865              		.loc 4 137 3 is_stmt 1 view .LVU629
 1866              	.LVL94:
 137:Src/Engine/positionEngine.h **** 			int step = shuffle_array[i];
 1867              		.loc 4 137 21 view .LVU630
 1868              	.LBB1597:
 138:Src/Engine/positionEngine.h **** 			if (!(exclude_mask & (1 << step))) {
 1869              		.loc 4 138 4 view .LVU631
 138:Src/Engine/positionEngine.h **** 			if (!(exclude_mask & (1 << step))) {
 1870              		.loc 4 138 30 is_stmt 0 view .LVU632
 1871 033a 90F89760 		ldrb	r6, [r0, #151]	@ zero_extendqisi2
 1872              		.loc 4 139 4 is_stmt 1 view .LVU633
 1873              		.loc 4 139 8 is_stmt 0 view .LVU634
 1874 033e 4CFA06FA 		asr	r10, ip, r6
 1875              		.loc 4 139 4 view .LVU635
 1876 0342 1AF0010F 		tst	r10, #1
 1877 0346 00F05983 		beq	.L217
 1878              	.LBE1597:
 137:Src/Engine/positionEngine.h **** 			int step = shuffle_array[i];
 1879              		.loc 4 137 3 is_stmt 1 view .LVU636
 1880              	.LVL95:
 137:Src/Engine/positionEngine.h **** 			int step = shuffle_array[i];
ARM GAS  /var/folders/84/_x1cyy_j36g486tldtwl37280000gn/T//cc3zCcdS.s 			page 56


 1881              		.loc 4 137 21 view .LVU637
 1882              	.LBB1598:
 138:Src/Engine/positionEngine.h **** 			if (!(exclude_mask & (1 << step))) {
 1883              		.loc 4 138 4 view .LVU638
 138:Src/Engine/positionEngine.h **** 			if (!(exclude_mask & (1 << step))) {
 1884              		.loc 4 138 30 is_stmt 0 view .LVU639
 1885 034a 90F89860 		ldrb	r6, [r0, #152]	@ zero_extendqisi2
 1886              		.loc 4 139 4 is_stmt 1 view .LVU640
 1887              		.loc 4 139 8 is_stmt 0 view .LVU641
 1888 034e 4CFA06F8 		asr	r8, ip, r6
 1889              		.loc 4 139 4 view .LVU642
 1890 0352 18F0010F 		tst	r8, #1
 1891 0356 00F05183 		beq	.L217
 1892              	.LBE1598:
 137:Src/Engine/positionEngine.h **** 			int step = shuffle_array[i];
 1893              		.loc 4 137 3 is_stmt 1 view .LVU643
 1894              	.LVL96:
 137:Src/Engine/positionEngine.h **** 			int step = shuffle_array[i];
 1895              		.loc 4 137 21 view .LVU644
 1896              	.LBB1599:
 138:Src/Engine/positionEngine.h **** 			if (!(exclude_mask & (1 << step))) {
 1897              		.loc 4 138 4 view .LVU645
 138:Src/Engine/positionEngine.h **** 			if (!(exclude_mask & (1 << step))) {
 1898              		.loc 4 138 30 is_stmt 0 view .LVU646
 1899 035a 90F89960 		ldrb	r6, [r0, #153]	@ zero_extendqisi2
 1900              		.loc 4 139 4 is_stmt 1 view .LVU647
 1901              		.loc 4 139 8 is_stmt 0 view .LVU648
 1902 035e 4CFA06FB 		asr	fp, ip, r6
 1903              		.loc 4 139 4 view .LVU649
 1904 0362 1BF0010F 		tst	fp, #1
 1905 0366 00F04983 		beq	.L217
 1906              	.LBE1599:
 137:Src/Engine/positionEngine.h **** 			int step = shuffle_array[i];
 1907              		.loc 4 137 3 is_stmt 1 view .LVU650
 1908              	.LVL97:
 137:Src/Engine/positionEngine.h **** 			int step = shuffle_array[i];
 1909              		.loc 4 137 21 view .LVU651
 1910              	.LBB1600:
 138:Src/Engine/positionEngine.h **** 			if (!(exclude_mask & (1 << step))) {
 1911              		.loc 4 138 4 view .LVU652
 138:Src/Engine/positionEngine.h **** 			if (!(exclude_mask & (1 << step))) {
 1912              		.loc 4 138 30 is_stmt 0 view .LVU653
 1913 036a 90F89A60 		ldrb	r6, [r0, #154]	@ zero_extendqisi2
 1914              		.loc 4 139 4 is_stmt 1 view .LVU654
 1915              		.loc 4 139 8 is_stmt 0 view .LVU655
 1916 036e 4CFA06FA 		asr	r10, ip, r6
 1917              		.loc 4 139 4 view .LVU656
 1918 0372 1AF0010F 		tst	r10, #1
 1919 0376 00F04183 		beq	.L217
 1920              	.LBE1600:
 137:Src/Engine/positionEngine.h **** 			int step = shuffle_array[i];
 1921              		.loc 4 137 3 is_stmt 1 view .LVU657
 1922              	.LVL98:
 137:Src/Engine/positionEngine.h **** 			int step = shuffle_array[i];
 1923              		.loc 4 137 21 view .LVU658
 1924              	.LBB1601:
 138:Src/Engine/positionEngine.h **** 			if (!(exclude_mask & (1 << step))) {
ARM GAS  /var/folders/84/_x1cyy_j36g486tldtwl37280000gn/T//cc3zCcdS.s 			page 57


 1925              		.loc 4 138 4 view .LVU659
 138:Src/Engine/positionEngine.h **** 			if (!(exclude_mask & (1 << step))) {
 1926              		.loc 4 138 30 is_stmt 0 view .LVU660
 1927 037a 90F89B60 		ldrb	r6, [r0, #155]	@ zero_extendqisi2
 1928              		.loc 4 139 4 is_stmt 1 view .LVU661
 1929              		.loc 4 139 8 is_stmt 0 view .LVU662
 1930 037e 4CFA06F8 		asr	r8, ip, r6
 1931              		.loc 4 139 4 view .LVU663
 1932 0382 18F0010F 		tst	r8, #1
 1933 0386 00F03983 		beq	.L217
 1934              	.LVL99:
 1935              	.L171:
 1936              		.loc 4 139 4 view .LVU664
 1937              	.LBE1601:
 1938              	.LBE1585:
 1939              	.LBE1584:
 1940              	.LBE1583:
 1941              	.LBE1582:
 1942              	.LBE1581:
 1943              	.LBE1860:
 1944              	.LBE1944:
 1945              	.LBE1960:
 114:Src/Engine/positionEngine.h **** 	}
 1946              		.loc 4 114 3 is_stmt 1 view .LVU665
 1947              	.LBB1961:
 1948              	.LBB1945:
  66:Src/Engine/trackState.h **** 
 1949              		.loc 2 66 16 is_stmt 0 view .LVU666
 1950 038a 80F8B240 		strb	r4, [r0, #178]
  69:Src/Engine/trackState.h **** 			delay_ += clock.humanise(track_->humanise());
 1951              		.loc 2 69 4 is_stmt 1 view .LVU667
  69:Src/Engine/trackState.h **** 			delay_ += clock.humanise(track_->humanise());
 1952              		.loc 2 69 38 is_stmt 0 view .LVU668
 1953 038e 7E68     		ldr	r6, [r7, #4]
 1954              	.LBB1861:
 1955              	.LBI1861:
 149:Src/Settings/baseTrack.h **** 		return data_->swing_;
 1956              		.loc 3 149 10 is_stmt 1 view .LVU669
 1957              	.LVL100:
 1958              	.LBB1862:
 150:Src/Settings/baseTrack.h **** 	}
 1959              		.loc 3 150 3 view .LVU670
 1960              	.LBE1862:
 1961              	.LBE1861:
  69:Src/Engine/trackState.h **** 			delay_ += clock.humanise(track_->humanise());
 1962              		.loc 2 69 24 is_stmt 0 view .LVU671
 1963 0390 B779     		ldrb	r7, [r6, #6]	@ zero_extendqisi2
 1964              	.LVL101:
 1965              	.LBB1865:
 1966              	.LBI1865:
 112:Src/Engine/clockEngine.h **** 		if (amount < 8) {
 1967              		.loc 1 112 18 is_stmt 1 view .LVU672
 1968              	.LBB1866:
 113:Src/Engine/clockEngine.h **** 			return (ticks_passed_ & 1) == 0 ? (8 - amount) * (step_duration() / 8) : 0;
 1969              		.loc 1 113 3 view .LVU673
 1970 0392 072F     		cmp	r7, #7
 1971 0394 00F33D81 		bgt	.L183
ARM GAS  /var/folders/84/_x1cyy_j36g486tldtwl37280000gn/T//cc3zCcdS.s 			page 58


 114:Src/Engine/clockEngine.h **** 		} else if (amount > 8) {
 1972              		.loc 1 114 4 view .LVU674
 114:Src/Engine/clockEngine.h **** 		} else if (amount > 8) {
 1973              		.loc 1 114 36 is_stmt 0 view .LVU675
 1974 0398 DB07     		lsls	r3, r3, #31
 1975              	.LVL102:
 114:Src/Engine/clockEngine.h **** 		} else if (amount > 8) {
 1976              		.loc 1 114 36 view .LVU676
 1977 039a 00F14881 		bmi	.L219
 1978 039e 90F800C0 		ldrb	ip, [r0]	@ zero_extendqisi2
 1979              	.LVL103:
 1980              	.L186:
 1981              	.LBB1867:
 1982              	.LBI1867:
 129:Src/Engine/clockEngine.h **** 		return step_duration(speed_);
 1983              		.loc 1 129 24 is_stmt 1 view .LVU677
 129:Src/Engine/clockEngine.h **** 		return step_duration(speed_);
 1984              		.loc 1 129 24 is_stmt 0 view .LVU678
 1985              	.LBE1867:
 1986              	.LBE1866:
 1987              	.LBE1865:
 1988              	.LBE1945:
 1989              	.LBE1961:
 130:Src/Engine/clockEngine.h **** 	}
 1990              		.loc 1 130 3 is_stmt 1 view .LVU679
 1991              	.LBB1962:
 1992              	.LBB1946:
 1993              	.LBB1884:
 1994              	.LBB1879:
 1995              	.LBB1870:
 1996              	.LBB1868:
 1997              	.LBI1868:
 142:Src/Engine/clockEngine.h **** 		return step_duration_[speed];
 1998              		.loc 1 142 31 view .LVU680
 1999              	.LBB1869:
 143:Src/Engine/clockEngine.h **** 	}
 2000              		.loc 1 143 3 view .LVU681
 143:Src/Engine/clockEngine.h **** 	}
 2001              		.loc 1 143 3 is_stmt 0 view .LVU682
 2002              	.LBE1869:
 2003              	.LBE1868:
 2004              	.LBE1870:
 114:Src/Engine/clockEngine.h **** 		} else if (amount > 8) {
 2005              		.loc 1 114 70 view .LVU683
 2006 03a2 52F82C40 		ldr	r4, [r2, ip, lsl #2]
 114:Src/Engine/clockEngine.h **** 		} else if (amount > 8) {
 2007              		.loc 1 114 41 view .LVU684
 2008 03a6 C7F10807 		rsb	r7, r7, #8
 2009              	.LVL104:
 114:Src/Engine/clockEngine.h **** 		} else if (amount > 8) {
 2010              		.loc 1 114 70 view .LVU685
 2011 03aa E308     		lsrs	r3, r4, #3
 114:Src/Engine/clockEngine.h **** 		} else if (amount > 8) {
 2012              		.loc 1 114 36 view .LVU686
 2013 03ac 07FB03FA 		mul	r10, r7, r3
 2014              	.LVL105:
 2015              	.L184:
ARM GAS  /var/folders/84/_x1cyy_j36g486tldtwl37280000gn/T//cc3zCcdS.s 			page 59


 114:Src/Engine/clockEngine.h **** 		} else if (amount > 8) {
 2016              		.loc 1 114 36 view .LVU687
 2017              	.LBE1879:
 2018              	.LBE1884:
 2019              	.LBB1885:
 2020              	.LBB1886:
 2021              	.LBB1887:
 2022              	.LBB1888:
 2023              	.LBB1889:
 2024              	.LBB1890:
 2025              		.file 6 "/Users/joostbooy/Desktop/Code/stm32/lib/utils/rng.h"
   1:/Users/joostbooy/Desktop/Code/stm32/lib/utils/rng.h **** #ifndef rng_h
   2:/Users/joostbooy/Desktop/Code/stm32/lib/utils/rng.h **** #define rng_h
   3:/Users/joostbooy/Desktop/Code/stm32/lib/utils/rng.h **** 
   4:/Users/joostbooy/Desktop/Code/stm32/lib/utils/rng.h **** //Random number generation
   5:/Users/joostbooy/Desktop/Code/stm32/lib/utils/rng.h **** 
   6:/Users/joostbooy/Desktop/Code/stm32/lib/utils/rng.h **** #include <stdint.h>
   7:/Users/joostbooy/Desktop/Code/stm32/lib/utils/rng.h **** 
   8:/Users/joostbooy/Desktop/Code/stm32/lib/utils/rng.h **** class Rng {
   9:/Users/joostbooy/Desktop/Code/stm32/lib/utils/rng.h **** 
  10:/Users/joostbooy/Desktop/Code/stm32/lib/utils/rng.h **** public:
  11:/Users/joostbooy/Desktop/Code/stm32/lib/utils/rng.h **** 
  12:/Users/joostbooy/Desktop/Code/stm32/lib/utils/rng.h **** 	static inline void seed(uint16_t value) {
  13:/Users/joostbooy/Desktop/Code/stm32/lib/utils/rng.h **** 		seed_ = value;
  14:/Users/joostbooy/Desktop/Code/stm32/lib/utils/rng.h **** 		if (seed_ == 0) {
  15:/Users/joostbooy/Desktop/Code/stm32/lib/utils/rng.h **** 			seed_ = 1;
  16:/Users/joostbooy/Desktop/Code/stm32/lib/utils/rng.h **** 		}
  17:/Users/joostbooy/Desktop/Code/stm32/lib/utils/rng.h **** 	}
  18:/Users/joostbooy/Desktop/Code/stm32/lib/utils/rng.h **** 
  19:/Users/joostbooy/Desktop/Code/stm32/lib/utils/rng.h **** 	static inline uint16_t u16() {
  20:/Users/joostbooy/Desktop/Code/stm32/lib/utils/rng.h **** 		seed_ ^= seed_ << 7;
 2026              		.loc 6 20 9 view .LVU688
 2027 03b0 8EEAC918 		eor	r8, lr, r9, lsl #7
  21:/Users/joostbooy/Desktop/Code/stm32/lib/utils/rng.h **** 		seed_ ^= seed_ >> 11;
 2028              		.loc 6 21 18 view .LVU689
 2029 03b4 C8F3C427 		ubfx	r7, r8, #11, #5
  20:/Users/joostbooy/Desktop/Code/stm32/lib/utils/rng.h **** 		seed_ ^= seed_ >> 11;
 2030              		.loc 6 20 9 view .LVU690
 2031 03b8 0FFA88F4 		sxth	r4, r8
 2032              		.loc 6 21 9 view .LVU691
 2033 03bc 7C40     		eors	r4, r4, r7
  22:/Users/joostbooy/Desktop/Code/stm32/lib/utils/rng.h **** 		seed_ ^= seed_ << 2;
 2034              		.loc 6 22 9 view .LVU692
 2035 03be 84EA8403 		eor	r3, r4, r4, lsl #2
 2036 03c2 1FFA83FB 		uxth	fp, r3
 2037 03c6 A5F800B0 		strh	fp, [r5]	@ movhi
 2038              	.LBE1890:
 2039              	.LBE1889:
 2040              	.LBE1888:
 2041              	.LBE1887:
 2042              	.LBE1886:
 2043              	.LBE1885:
  69:Src/Engine/trackState.h **** 			delay_ += clock.humanise(track_->humanise());
 2044              		.loc 2 69 11 view .LVU693
 2045 03ca C0F8B4A0 		str	r10, [r0, #180]
  70:Src/Engine/trackState.h **** 			delay_ += clock.gate_duration(track_->delay());
 2046              		.loc 2 70 4 is_stmt 1 view .LVU694
ARM GAS  /var/folders/84/_x1cyy_j36g486tldtwl37280000gn/T//cc3zCcdS.s 			page 60


 2047              	.LBB1916:
 2048              	.LBI1916:
 162:Src/Settings/baseTrack.h **** 		return data_->humanise_;
 2049              		.loc 3 162 10 view .LVU695
 2050              	.LVL106:
 2051              	.LBB1917:
 163:Src/Settings/baseTrack.h **** 	}
 2052              		.loc 3 163 3 view .LVU696
 2053              	.LBE1917:
 2054              	.LBE1916:
 2055              	.LBB1918:
 2056              	.LBB1911:
 2057              	.LBB1897:
 2058              	.LBB1898:
 2059              	.LBB1899:
 143:Src/Engine/clockEngine.h **** 	}
 2060              		.loc 1 143 25 is_stmt 0 view .LVU697
 2061 03ce 0478     		ldrb	r4, [r0]	@ zero_extendqisi2
 2062              	.LBE1899:
 2063              	.LBE1898:
 2064              	.LBE1897:
 2065              	.LBE1911:
 2066              	.LBE1918:
  70:Src/Engine/trackState.h **** 			delay_ += clock.gate_duration(track_->delay());
 2067              		.loc 2 70 28 view .LVU698
 2068 03d0 96F807C0 		ldrb	ip, [r6, #7]	@ zero_extendqisi2
 2069              	.LBB1919:
 2070              	.LBB1912:
 2071              	.LBB1904:
 2072              	.LBB1902:
 2073              	.LBB1900:
 143:Src/Engine/clockEngine.h **** 	}
 2074              		.loc 1 143 30 view .LVU699
 2075 03d4 52F82450 		ldr	r5, [r2, r4, lsl #2]
 2076              	.LBE1900:
 2077              	.LBE1902:
 2078              	.LBE1904:
 2079              	.LBB1905:
 2080              	.LBB1893:
  23:/Users/joostbooy/Desktop/Code/stm32/lib/utils/rng.h **** 		return seed_;
  24:/Users/joostbooy/Desktop/Code/stm32/lib/utils/rng.h **** 	}
  25:/Users/joostbooy/Desktop/Code/stm32/lib/utils/rng.h **** 
  26:/Users/joostbooy/Desktop/Code/stm32/lib/utils/rng.h **** 	static inline float reciprocal() {
  27:/Users/joostbooy/Desktop/Code/stm32/lib/utils/rng.h **** 		return (1.0f / 65535.0f) * u16();
 2081              		.loc 6 27 34 view .LVU700
 2082 03d8 DFED7E6A 		vldr.32	s13, .L239+4
 2083              		.loc 6 27 28 view .LVU701
 2084 03dc 07EE10BA 		vmov	s14, fp	@ int
 2085              	.LBE1893:
 2086              	.LBE1905:
 2087              	.LBE1912:
 2088              	.LBE1919:
  70:Src/Engine/trackState.h **** 			delay_ += clock.gate_duration(track_->delay());
 2089              		.loc 2 70 28 view .LVU702
 2090 03e0 07EE90CA 		vmov	s15, ip	@ int
 2091              	.LVL107:
 2092              	.LBB1920:
ARM GAS  /var/folders/84/_x1cyy_j36g486tldtwl37280000gn/T//cc3zCcdS.s 			page 61


 2093              	.LBI1885:
 108:Src/Engine/clockEngine.h **** 		return Rng::reciprocal() * amount * (step_duration() / 8);
 2094              		.loc 1 108 18 is_stmt 1 view .LVU703
 2095              	.LBB1913:
 109:Src/Engine/clockEngine.h **** 	}
 2096              		.loc 1 109 3 view .LVU704
 2097              	.LBB1906:
 2098              	.LBI1887:
  26:/Users/joostbooy/Desktop/Code/stm32/lib/utils/rng.h **** 		return (1.0f / 65535.0f) * u16();
 2099              		.loc 6 26 22 view .LVU705
 2100              	.LBB1894:
 2101              		.loc 6 27 3 view .LVU706
 2102              	.LBB1892:
 2103              	.LBI1889:
  19:/Users/joostbooy/Desktop/Code/stm32/lib/utils/rng.h **** 		seed_ ^= seed_ << 7;
 2104              		.loc 6 19 25 view .LVU707
 2105              	.LBB1891:
  20:/Users/joostbooy/Desktop/Code/stm32/lib/utils/rng.h **** 		seed_ ^= seed_ >> 11;
 2106              		.loc 6 20 3 view .LVU708
  21:/Users/joostbooy/Desktop/Code/stm32/lib/utils/rng.h **** 		seed_ ^= seed_ << 2;
 2107              		.loc 6 21 3 view .LVU709
  22:/Users/joostbooy/Desktop/Code/stm32/lib/utils/rng.h **** 		return seed_;
 2108              		.loc 6 22 3 view .LVU710
  23:/Users/joostbooy/Desktop/Code/stm32/lib/utils/rng.h **** 	}
 2109              		.loc 6 23 3 view .LVU711
 2110              	.LBE1891:
 2111              	.LBE1892:
 2112              	.LBE1894:
 2113              	.LBE1906:
 2114              	.LBB1907:
 2115              	.LBI1897:
 129:Src/Engine/clockEngine.h **** 		return step_duration(speed_);
 2116              		.loc 1 129 24 view .LVU712
 129:Src/Engine/clockEngine.h **** 		return step_duration(speed_);
 2117              		.loc 1 129 24 is_stmt 0 view .LVU713
 2118              	.LBE1907:
 2119              	.LBE1913:
 2120              	.LBE1920:
 2121              	.LBE1946:
 2122              	.LBE1962:
 130:Src/Engine/clockEngine.h **** 	}
 2123              		.loc 1 130 3 is_stmt 1 view .LVU714
 2124              	.LBB1963:
 2125              	.LBB1947:
 2126              	.LBB1921:
 2127              	.LBB1914:
 2128              	.LBB1908:
 2129              	.LBB1903:
 2130              	.LBI1898:
 142:Src/Engine/clockEngine.h **** 		return step_duration_[speed];
 2131              		.loc 1 142 31 view .LVU715
 2132              	.LBB1901:
 143:Src/Engine/clockEngine.h **** 	}
 2133              		.loc 1 143 3 view .LVU716
 143:Src/Engine/clockEngine.h **** 	}
 2134              		.loc 1 143 3 is_stmt 0 view .LVU717
 2135              	.LBE1901:
ARM GAS  /var/folders/84/_x1cyy_j36g486tldtwl37280000gn/T//cc3zCcdS.s 			page 62


 2136              	.LBE1903:
 2137              	.LBE1908:
 2138              	.LBB1909:
 2139              	.LBB1895:
 2140              		.loc 6 27 28 view .LVU718
 2141 03e4 B8EEC70A 		vcvt.f32.s32	s0, s14
 2142              	.LBE1895:
 2143              	.LBE1909:
 109:Src/Engine/clockEngine.h **** 	}
 2144              		.loc 1 109 56 view .LVU719
 2145 03e8 EA08     		lsrs	r2, r5, #3
 2146 03ea 01EE102A 		vmov	s2, r2	@ int
 109:Src/Engine/clockEngine.h **** 	}
 2147              		.loc 1 109 28 view .LVU720
 2148 03ee B8EEE76A 		vcvt.f32.s32	s12, s15
 2149              	.LBB1910:
 2150              	.LBB1896:
 2151              		.loc 6 27 34 view .LVU721
 2152 03f2 60EE260A 		vmul.f32	s1, s0, s13
 2153              	.LBE1896:
 2154              	.LBE1910:
 109:Src/Engine/clockEngine.h **** 	}
 2155              		.loc 1 109 37 view .LVU722
 2156 03f6 F8EEC11A 		vcvt.f32.s32	s3, s2
 109:Src/Engine/clockEngine.h **** 	}
 2157              		.loc 1 109 28 view .LVU723
 2158 03fa 20EE862A 		vmul.f32	s4, s1, s12
 2159              	.LBE1914:
 2160              	.LBE1921:
 2161              	.LBB1922:
 2162              	.LBB1923:
 2163              	.LBB1924:
 152:Src/Engine/clockEngine.h **** 		return (whole_step * (index / 4)) + (quarter_step * (index % 4));
 2164              		.loc 1 152 12 view .LVU724
 2165 03fe AF08     		lsrs	r7, r5, #2
 2166              	.LBE1924:
 2167              	.LBE1923:
 2168              	.LBE1922:
 2169              	.LBB1927:
 2170              	.LBB1915:
 109:Src/Engine/clockEngine.h **** 	}
 2171              		.loc 1 109 37 view .LVU725
 2172 0400 62EE212A 		vmul.f32	s5, s4, s3
 109:Src/Engine/clockEngine.h **** 	}
 2173              		.loc 1 109 59 view .LVU726
 2174 0404 BCEEE23A 		vcvt.u32.f32	s6, s5
 2175 0408 13EE103A 		vmov	r3, s6	@ int
 2176              	.LBE1915:
 2177              	.LBE1927:
  70:Src/Engine/trackState.h **** 			delay_ += clock.gate_duration(track_->delay());
 2178              		.loc 2 70 11 view .LVU727
 2179 040c 5344     		add	r3, r3, r10
 2180 040e C0F8B430 		str	r3, [r0, #180]
  71:Src/Engine/trackState.h **** 
 2181              		.loc 2 71 4 is_stmt 1 view .LVU728
 2182              	.LBB1928:
 2183              	.LBI1928:
ARM GAS  /var/folders/84/_x1cyy_j36g486tldtwl37280000gn/T//cc3zCcdS.s 			page 63


 136:Src/Settings/baseTrack.h **** 		return data_->delay_;
 2184              		.loc 3 136 10 view .LVU729
 2185              	.LVL108:
 2186              	.LBB1929:
 137:Src/Settings/baseTrack.h **** 	}
 2187              		.loc 3 137 3 view .LVU730
 137:Src/Settings/baseTrack.h **** 	}
 2188              		.loc 3 137 17 is_stmt 0 view .LVU731
 2189 0412 7679     		ldrb	r6, [r6, #5]	@ zero_extendqisi2
 2190              	.LVL109:
 137:Src/Settings/baseTrack.h **** 	}
 2191              		.loc 3 137 17 view .LVU732
 2192              	.LBE1929:
 2193              	.LBE1928:
 2194              	.LBB1930:
 2195              	.LBI1922:
 137:Src/Engine/clockEngine.h **** 		return gate_duration(speed_, index);
 2196              		.loc 1 137 24 is_stmt 1 view .LVU733
 137:Src/Engine/clockEngine.h **** 		return gate_duration(speed_, index);
 2197              		.loc 1 137 24 is_stmt 0 view .LVU734
 2198              	.LBE1930:
 2199              	.LBE1947:
 2200              	.LBE1963:
 138:Src/Engine/clockEngine.h **** 	}
 2201              		.loc 1 138 3 is_stmt 1 view .LVU735
 2202              	.LBB1964:
 2203              	.LBB1948:
 2204              	.LBB1931:
 2205              	.LBB1926:
 2206              	.LBI1923:
 150:Src/Engine/clockEngine.h **** 		uint32_t whole_step = step_duration_[speed];
 2207              		.loc 1 150 31 view .LVU736
 2208              	.LBB1925:
 151:Src/Engine/clockEngine.h **** 		uint32_t quarter_step = whole_step / 4;
 2209              		.loc 1 151 3 view .LVU737
 152:Src/Engine/clockEngine.h **** 		return (whole_step * (index / 4)) + (quarter_step * (index % 4));
 2210              		.loc 1 152 3 view .LVU738
 153:Src/Engine/clockEngine.h **** 	}
 2211              		.loc 1 153 3 view .LVU739
 153:Src/Engine/clockEngine.h **** 	}
 2212              		.loc 1 153 31 is_stmt 0 view .LVU740
 2213 0414 B408     		lsrs	r4, r6, #2
 153:Src/Engine/clockEngine.h **** 	}
 2214              		.loc 1 153 62 view .LVU741
 2215 0416 06F00302 		and	r2, r6, #3
 153:Src/Engine/clockEngine.h **** 	}
 2216              		.loc 1 153 22 view .LVU742
 2217 041a 05FB04F4 		mul	r4, r5, r4
 153:Src/Engine/clockEngine.h **** 	}
 2218              		.loc 1 153 66 view .LVU743
 2219 041e 02FB074A 		mla	r10, r2, r7, r4
 2220              	.LBE1925:
 2221              	.LBE1926:
 2222              	.LBE1931:
  71:Src/Engine/trackState.h **** 
 2223              		.loc 2 71 11 view .LVU744
 2224 0422 5344     		add	r3, r3, r10
ARM GAS  /var/folders/84/_x1cyy_j36g486tldtwl37280000gn/T//cc3zCcdS.s 			page 64


 2225 0424 C0F8B430 		str	r3, [r0, #180]
  73:Src/Engine/trackState.h **** 		}
 2226              		.loc 2 73 4 is_stmt 1 view .LVU745
 2227              	.LBE1948:
 2228              	.LBE1964:
 2229              		.loc 2 77 2 is_stmt 0 view .LVU746
 2230 0428 0846     		mov	r0, r1
 2231              	.LVL110:
 2232              		.loc 2 77 2 view .LVU747
 2233 042a 09B0     		add	sp, sp, #36
 2234              		.cfi_remember_state
 2235              		.cfi_def_cfa_offset 36
 2236              		@ sp needed
 2237 042c BDE8F08F 		pop	{r4, r5, r6, r7, r8, r9, r10, fp, pc}
 2238              	.LVL111:
 2239              	.L167:
 2240              		.cfi_restore_state
 2241              	.LBB1965:
 2242              	.LBB1949:
 2243              	.LBB1932:
 2244              	.LBB1855:
  77:Src/Engine/positionEngine.h **** 			ticks %= 16;
 2245              		.loc 4 77 3 is_stmt 1 view .LVU748
  78:Src/Engine/positionEngine.h **** 			step_ = ticks / 2;
 2246              		.loc 4 78 4 view .LVU749
  79:Src/Engine/positionEngine.h **** 			if ((ticks % 2) == 0) {
 2247              		.loc 4 79 4 view .LVU750
  80:Src/Engine/positionEngine.h **** 				step_ = 15 - step_;
 2248              		.loc 4 80 4 is_stmt 0 view .LVU751
 2249 0430 DD07     		lsls	r5, r3, #31
  79:Src/Engine/positionEngine.h **** 			if ((ticks % 2) == 0) {
 2250              		.loc 4 79 10 view .LVU752
 2251 0432 C3F34208 		ubfx	r8, r3, #1, #3
  80:Src/Engine/positionEngine.h **** 				step_ = 15 - step_;
 2252              		.loc 4 80 4 is_stmt 1 view .LVU753
 2253 0436 00F10581 		bmi	.L174
  81:Src/Engine/positionEngine.h **** 			}
 2254              		.loc 4 81 5 view .LVU754
  81:Src/Engine/positionEngine.h **** 			}
 2255              		.loc 4 81 16 is_stmt 0 view .LVU755
 2256 043a C8F10F05 		rsb	r5, r8, #15
 2257 043e 5FFA85FB 		uxtb	fp, r5
  81:Src/Engine/positionEngine.h **** 			}
 2258              		.loc 4 81 11 view .LVU756
 2259 0442 80F885B0 		strb	fp, [r0, #133]
 2260              	.LVL112:
 2261              	.L175:
  81:Src/Engine/positionEngine.h **** 			}
 2262              		.loc 4 81 11 view .LVU757
 2263              	.LBE1855:
 2264              	.LBE1932:
 2265              	.LBE1949:
 2266              	.LBE1965:
 114:Src/Engine/positionEngine.h **** 	}
 2267              		.loc 4 114 3 is_stmt 1 view .LVU758
 2268              	.LBB1966:
 2269              	.LBB1950:
ARM GAS  /var/folders/84/_x1cyy_j36g486tldtwl37280000gn/T//cc3zCcdS.s 			page 65


  66:Src/Engine/trackState.h **** 
 2270              		.loc 2 66 16 is_stmt 0 view .LVU759
 2271 0446 80F8B2B0 		strb	fp, [r0, #178]
  69:Src/Engine/trackState.h **** 			delay_ += clock.humanise(track_->humanise());
 2272              		.loc 2 69 4 is_stmt 1 view .LVU760
  69:Src/Engine/trackState.h **** 			delay_ += clock.humanise(track_->humanise());
 2273              		.loc 2 69 38 is_stmt 0 view .LVU761
 2274 044a 7E68     		ldr	r6, [r7, #4]
 2275              	.LBB1933:
 149:Src/Settings/baseTrack.h **** 		return data_->swing_;
 2276              		.loc 3 149 10 is_stmt 1 view .LVU762
 2277              	.LVL113:
 2278              	.LBB1863:
 150:Src/Settings/baseTrack.h **** 	}
 2279              		.loc 3 150 3 view .LVU763
 2280              	.LBE1863:
 2281              	.LBE1933:
  69:Src/Engine/trackState.h **** 			delay_ += clock.humanise(track_->humanise());
 2282              		.loc 2 69 24 is_stmt 0 view .LVU764
 2283 044c B779     		ldrb	r7, [r6, #6]	@ zero_extendqisi2
 2284              	.LVL114:
 2285              	.LBB1934:
 112:Src/Engine/clockEngine.h **** 		if (amount < 8) {
 2286              		.loc 1 112 18 is_stmt 1 view .LVU765
 2287              	.LBB1880:
 113:Src/Engine/clockEngine.h **** 			return (ticks_passed_ & 1) == 0 ? (8 - amount) * (step_duration() / 8) : 0;
 2288              		.loc 1 113 3 view .LVU766
 2289 044e 072F     		cmp	r7, #7
 2290 0450 00F3DA80 		bgt	.L233
 2291 0454 5E4D     		ldr	r5, .L239
 2292 0456 B5F80090 		ldrh	r9, [r5]
 2293 045a B5F900E0 		ldrsh	lr, [r5]
 2294 045e A0E7     		b	.L186
 2295              	.LVL115:
 2296              	.L168:
 113:Src/Engine/clockEngine.h **** 			return (ticks_passed_ & 1) == 0 ? (8 - amount) * (step_duration() / 8) : 0;
 2297              		.loc 1 113 3 is_stmt 0 view .LVU767
 2298              	.LBE1880:
 2299              	.LBE1934:
 2300              	.LBB1935:
 2301              	.LBB1856:
  70:Src/Engine/positionEngine.h **** 			ticks %= 16;
 2302              		.loc 4 70 3 is_stmt 1 view .LVU768
  71:Src/Engine/positionEngine.h **** 			step_ = ticks / 2;
 2303              		.loc 4 71 4 view .LVU769
  72:Src/Engine/positionEngine.h **** 			if ((ticks % 2) == 1) {
 2304              		.loc 4 72 4 view .LVU770
  73:Src/Engine/positionEngine.h **** 				step_ = 15 - step_;
 2305              		.loc 4 73 4 is_stmt 0 view .LVU771
 2306 0460 DE07     		lsls	r6, r3, #31
 2307              	.LVL116:
  72:Src/Engine/positionEngine.h **** 			if ((ticks % 2) == 1) {
 2308              		.loc 4 72 10 view .LVU772
 2309 0462 C3F3420B 		ubfx	fp, r3, #1, #3
  73:Src/Engine/positionEngine.h **** 				step_ = 15 - step_;
 2310              		.loc 4 73 4 is_stmt 1 view .LVU773
 2311 0466 40F1C682 		bpl	.L172
ARM GAS  /var/folders/84/_x1cyy_j36g486tldtwl37280000gn/T//cc3zCcdS.s 			page 66


  74:Src/Engine/positionEngine.h **** 			}
 2312              		.loc 4 74 5 view .LVU774
  74:Src/Engine/positionEngine.h **** 			}
 2313              		.loc 4 74 16 is_stmt 0 view .LVU775
 2314 046a CBF10F0C 		rsb	ip, fp, #15
 2315 046e 5FFA8CF8 		uxtb	r8, ip
  74:Src/Engine/positionEngine.h **** 			}
 2316              		.loc 4 74 11 view .LVU776
 2317 0472 80F88580 		strb	r8, [r0, #133]
 2318              	.LVL117:
 2319              	.L173:
  74:Src/Engine/positionEngine.h **** 			}
 2320              		.loc 4 74 11 view .LVU777
 2321              	.LBE1856:
 2322              	.LBE1935:
 2323              	.LBE1950:
 2324              	.LBE1966:
 114:Src/Engine/positionEngine.h **** 	}
 2325              		.loc 4 114 3 is_stmt 1 view .LVU778
 2326              	.LBB1967:
 2327              	.LBB1951:
  66:Src/Engine/trackState.h **** 
 2328              		.loc 2 66 16 is_stmt 0 view .LVU779
 2329 0476 80F8B280 		strb	r8, [r0, #178]
  69:Src/Engine/trackState.h **** 			delay_ += clock.humanise(track_->humanise());
 2330              		.loc 2 69 4 is_stmt 1 view .LVU780
  69:Src/Engine/trackState.h **** 			delay_ += clock.humanise(track_->humanise());
 2331              		.loc 2 69 38 is_stmt 0 view .LVU781
 2332 047a 7E68     		ldr	r6, [r7, #4]
 2333              	.LBB1936:
 149:Src/Settings/baseTrack.h **** 		return data_->swing_;
 2334              		.loc 3 149 10 is_stmt 1 view .LVU782
 2335              	.LVL118:
 2336              	.LBB1864:
 150:Src/Settings/baseTrack.h **** 	}
 2337              		.loc 3 150 3 view .LVU783
 2338              	.LBE1864:
 2339              	.LBE1936:
  69:Src/Engine/trackState.h **** 			delay_ += clock.humanise(track_->humanise());
 2340              		.loc 2 69 24 is_stmt 0 view .LVU784
 2341 047c B779     		ldrb	r7, [r6, #6]	@ zero_extendqisi2
 2342              	.LVL119:
 2343              	.LBB1937:
 112:Src/Engine/clockEngine.h **** 		if (amount < 8) {
 2344              		.loc 1 112 18 is_stmt 1 view .LVU785
 2345              	.LBB1881:
 113:Src/Engine/clockEngine.h **** 			return (ticks_passed_ & 1) == 0 ? (8 - amount) * (step_duration() / 8) : 0;
 2346              		.loc 1 113 3 view .LVU786
 2347 047e 072F     		cmp	r7, #7
 2348 0480 00F3C280 		bgt	.L233
 2349 0484 524D     		ldr	r5, .L239
 114:Src/Engine/clockEngine.h **** 		} else if (amount > 8) {
 2350              		.loc 1 114 36 is_stmt 0 view .LVU787
 2351 0486 4FF0000A 		mov	r10, #0
 2352 048a B5F80090 		ldrh	r9, [r5]
 2353 048e B5F900E0 		ldrsh	lr, [r5]
 2354 0492 8DE7     		b	.L184
ARM GAS  /var/folders/84/_x1cyy_j36g486tldtwl37280000gn/T//cc3zCcdS.s 			page 67


 2355              	.LVL120:
 2356              	.L165:
 114:Src/Engine/clockEngine.h **** 		} else if (amount > 8) {
 2357              		.loc 1 114 36 view .LVU788
 2358              	.LBE1881:
 2359              	.LBE1937:
 2360              	.LBB1938:
 2361              	.LBB1857:
  90:Src/Engine/positionEngine.h **** 			if (random_mask & (1 << (ticks % 16))) {
 2362              		.loc 4 90 3 is_stmt 1 view .LVU789
  91:Src/Engine/positionEngine.h **** 				step_ = next_drunken_walk(step_);
 2363              		.loc 4 91 4 view .LVU790
  91:Src/Engine/positionEngine.h **** 				step_ = next_drunken_walk(step_);
 2364              		.loc 4 91 35 is_stmt 0 view .LVU791
 2365 0494 03F00F04 		and	r4, r3, #15
  91:Src/Engine/positionEngine.h **** 				step_ = next_drunken_walk(step_);
 2366              		.loc 4 91 41 view .LVU792
 2367 0498 2641     		asrs	r6, r6, r4
 2368              	.LVL121:
  91:Src/Engine/positionEngine.h **** 				step_ = next_drunken_walk(step_);
 2369              		.loc 4 91 4 view .LVU793
 2370 049a F607     		lsls	r6, r6, #31
 2371              	.LBB1613:
 2372              	.LBB1614:
 2373              	.LBB1615:
 2374              	.LBB1616:
  20:/Users/joostbooy/Desktop/Code/stm32/lib/utils/rng.h **** 		seed_ ^= seed_ >> 11;
 2375              		.loc 6 20 12 view .LVU794
 2376 049c 4C4D     		ldr	r5, .L239
 2377              	.LBE1616:
 2378              	.LBE1615:
 2379              	.LBE1614:
 2380              	.LBE1613:
  91:Src/Engine/positionEngine.h **** 				step_ = next_drunken_walk(step_);
 2381              		.loc 4 91 4 view .LVU795
 2382 049e 40F1C980 		bpl	.L177
  92:Src/Engine/positionEngine.h **** 			} else {
 2383              		.loc 4 92 5 is_stmt 1 view .LVU796
 2384              	.LBB1628:
 2385              	.LBB1625:
 2386              	.LBB1621:
 2387              	.LBB1617:
  20:/Users/joostbooy/Desktop/Code/stm32/lib/utils/rng.h **** 		seed_ ^= seed_ >> 11;
 2388              		.loc 6 20 12 is_stmt 0 view .LVU797
 2389 04a2 2E88     		ldrh	r6, [r5]
 2390              	.LBE1617:
 2391              	.LBE1621:
 2392              	.LBE1625:
 2393              	.LBE1628:
  92:Src/Engine/positionEngine.h **** 			} else {
 2394              		.loc 4 92 30 view .LVU798
 2395 04a4 90F88540 		ldrb	r4, [r0, #133]	@ zero_extendqisi2
 2396              	.LVL122:
 2397              	.LBB1629:
 2398              	.LBI1613:
 140:Src/Engine/positionEngine.h **** 				exclude_mask |= (1 << step);
 141:Src/Engine/positionEngine.h **** 				return step;
ARM GAS  /var/folders/84/_x1cyy_j36g486tldtwl37280000gn/T//cc3zCcdS.s 			page 68


 142:Src/Engine/positionEngine.h **** 			}
 143:Src/Engine/positionEngine.h **** 		}
 144:Src/Engine/positionEngine.h **** 		return -1;
 145:Src/Engine/positionEngine.h **** 	}
 146:Src/Engine/positionEngine.h **** 
 147:Src/Engine/positionEngine.h **** 	uint8_t next_drunken_walk(uint8_t step) {
 2399              		.loc 4 147 10 is_stmt 1 view .LVU799
 2400              	.LBB1626:
 148:Src/Engine/positionEngine.h **** 		uint8_t dir = Rng::u16() % 4;
 2401              		.loc 4 148 3 view .LVU800
 2402              	.LBB1622:
 2403              	.LBI1615:
  19:/Users/joostbooy/Desktop/Code/stm32/lib/utils/rng.h **** 		seed_ ^= seed_ << 7;
 2404              		.loc 6 19 25 view .LVU801
 2405              	.LBB1618:
  20:/Users/joostbooy/Desktop/Code/stm32/lib/utils/rng.h **** 		seed_ ^= seed_ >> 11;
 2406              		.loc 6 20 3 view .LVU802
  20:/Users/joostbooy/Desktop/Code/stm32/lib/utils/rng.h **** 		seed_ ^= seed_ >> 11;
 2407              		.loc 6 20 9 is_stmt 0 view .LVU803
 2408 04a8 86EAC619 		eor	r9, r6, r6, lsl #7
 2409 04ac 0FFA89FE 		sxth	lr, r9
  21:/Users/joostbooy/Desktop/Code/stm32/lib/utils/rng.h **** 		seed_ ^= seed_ << 2;
 2410              		.loc 6 21 3 is_stmt 1 view .LVU804
  21:/Users/joostbooy/Desktop/Code/stm32/lib/utils/rng.h **** 		seed_ ^= seed_ << 2;
 2411              		.loc 6 21 18 is_stmt 0 view .LVU805
 2412 04b0 C9F3C426 		ubfx	r6, r9, #11, #5
  21:/Users/joostbooy/Desktop/Code/stm32/lib/utils/rng.h **** 		seed_ ^= seed_ << 2;
 2413              		.loc 6 21 9 view .LVU806
 2414 04b4 8EEA0608 		eor	r8, lr, r6
  22:/Users/joostbooy/Desktop/Code/stm32/lib/utils/rng.h **** 		return seed_;
 2415              		.loc 6 22 3 is_stmt 1 view .LVU807
  22:/Users/joostbooy/Desktop/Code/stm32/lib/utils/rng.h **** 		return seed_;
 2416              		.loc 6 22 12 is_stmt 0 view .LVU808
 2417 04b8 1FFA88F6 		uxth	r6, r8
  22:/Users/joostbooy/Desktop/Code/stm32/lib/utils/rng.h **** 		return seed_;
 2418              		.loc 6 22 9 view .LVU809
 2419 04bc 88EA860C 		eor	ip, r8, r6, lsl #2
 2420 04c0 1FFA8CF9 		uxth	r9, ip
 2421              	.LBE1618:
 2422              	.LBE1622:
 149:Src/Engine/positionEngine.h **** 
 150:Src/Engine/positionEngine.h **** 		if (dir == 0) {
 2423              		.loc 4 150 3 view .LVU810
 2424 04c4 1CF00306 		ands	r6, ip, #3
 2425              	.LBB1623:
 2426              	.LBB1619:
  22:/Users/joostbooy/Desktop/Code/stm32/lib/utils/rng.h **** 		return seed_;
 2427              		.loc 6 22 9 view .LVU811
 2428 04c8 A5F80090 		strh	r9, [r5]	@ movhi
  23:/Users/joostbooy/Desktop/Code/stm32/lib/utils/rng.h **** 	}
 2429              		.loc 6 23 3 is_stmt 1 view .LVU812
 2430              	.LVL123:
  23:/Users/joostbooy/Desktop/Code/stm32/lib/utils/rng.h **** 	}
 2431              		.loc 6 23 3 is_stmt 0 view .LVU813
 2432              	.LBE1619:
 2433              	.LBE1623:
 2434              		.loc 4 150 3 is_stmt 1 view .LVU814
ARM GAS  /var/folders/84/_x1cyy_j36g486tldtwl37280000gn/T//cc3zCcdS.s 			page 69


 2435              	.LBB1624:
 2436              	.LBB1620:
  22:/Users/joostbooy/Desktop/Code/stm32/lib/utils/rng.h **** 		return seed_;
 2437              		.loc 6 22 9 is_stmt 0 view .LVU815
 2438 04cc 0FFA8CFE 		sxth	lr, ip
 2439              	.LBE1620:
 2440              	.LBE1624:
 2441              		.loc 4 150 3 view .LVU816
 2442 04d0 00F0A082 		beq	.L235
 151:Src/Engine/positionEngine.h **** 			return (step - 1) % 16;
 152:Src/Engine/positionEngine.h **** 		} else if (dir == 1){
 2443              		.loc 4 152 10 is_stmt 1 view .LVU817
 2444 04d4 012E     		cmp	r6, #1
 2445 04d6 00F0A982 		beq	.L236
 2446              	.LVL124:
 2447              	.L231:
 2448              		.loc 4 152 10 is_stmt 0 view .LVU818
 2449              	.LBE1626:
 2450              	.LBE1629:
 111:Src/Engine/positionEngine.h **** 			break;
 2451              		.loc 4 111 10 view .LVU819
 2452 04da 80F88540 		strb	r4, [r0, #133]
 112:Src/Engine/positionEngine.h **** 		}
 2453              		.loc 4 112 4 is_stmt 1 view .LVU820
 2454 04de 54E7     		b	.L171
 2455              	.LVL125:
 2456              	.L169:
  67:Src/Engine/positionEngine.h **** 			step_ = 15 - (ticks % 16);
 2457              		.loc 4 67 3 view .LVU821
  68:Src/Engine/positionEngine.h **** 			break;
 2458              		.loc 4 68 4 view .LVU822
 2459 04e0 3B4D     		ldr	r5, .L239
  68:Src/Engine/positionEngine.h **** 			break;
 2460              		.loc 4 68 15 is_stmt 0 view .LVU823
 2461 04e2 DC43     		mvns	r4, r3
 2462 04e4 04F00F04 		and	r4, r4, #15
 2463 04e8 B5F80090 		ldrh	r9, [r5]
 2464 04ec B5F900E0 		ldrsh	lr, [r5]
  68:Src/Engine/positionEngine.h **** 			break;
 2465              		.loc 4 68 10 view .LVU824
 2466 04f0 80F88540 		strb	r4, [r0, #133]
  69:Src/Engine/positionEngine.h **** 		case ZIGZAG:
 2467              		.loc 4 69 4 is_stmt 1 view .LVU825
 2468 04f4 49E7     		b	.L171
 2469              	.L166:
  84:Src/Engine/positionEngine.h **** 			step_ = ticks % 16;
 2470              		.loc 4 84 3 view .LVU826
  85:Src/Engine/positionEngine.h **** 			if (random_mask & (1 << step_)) {
 2471              		.loc 4 85 4 view .LVU827
  85:Src/Engine/positionEngine.h **** 			if (random_mask & (1 << step_)) {
 2472              		.loc 4 85 18 is_stmt 0 view .LVU828
 2473 04f6 03F00F04 		and	r4, r3, #15
  86:Src/Engine/positionEngine.h **** 				step_ = Rng::u16() % 16;
 2474              		.loc 4 86 34 view .LVU829
 2475 04fa 2641     		asrs	r6, r6, r4
 2476              	.LVL126:
  86:Src/Engine/positionEngine.h **** 				step_ = Rng::u16() % 16;
ARM GAS  /var/folders/84/_x1cyy_j36g486tldtwl37280000gn/T//cc3zCcdS.s 			page 70


 2477              		.loc 4 86 4 view .LVU830
 2478 04fc F607     		lsls	r6, r6, #31
 2479              	.LBB1630:
 2480              	.LBB1631:
  20:/Users/joostbooy/Desktop/Code/stm32/lib/utils/rng.h **** 		seed_ ^= seed_ >> 11;
 2481              		.loc 6 20 12 view .LVU831
 2482 04fe 344D     		ldr	r5, .L239
 2483              	.LBE1631:
 2484              	.LBE1630:
  85:Src/Engine/positionEngine.h **** 			if (random_mask & (1 << step_)) {
 2485              		.loc 4 85 10 view .LVU832
 2486 0500 80F88540 		strb	r4, [r0, #133]
  86:Src/Engine/positionEngine.h **** 				step_ = Rng::u16() % 16;
 2487              		.loc 4 86 4 is_stmt 1 view .LVU833
 2488 0504 40F19980 		bpl	.L232
  87:Src/Engine/positionEngine.h **** 			}
 2489              		.loc 4 87 5 view .LVU834
 2490              	.LBB1635:
 2491              	.LBI1630:
  19:/Users/joostbooy/Desktop/Code/stm32/lib/utils/rng.h **** 		seed_ ^= seed_ << 7;
 2492              		.loc 6 19 25 view .LVU835
 2493              	.LBB1632:
  20:/Users/joostbooy/Desktop/Code/stm32/lib/utils/rng.h **** 		seed_ ^= seed_ >> 11;
 2494              		.loc 6 20 3 view .LVU836
  20:/Users/joostbooy/Desktop/Code/stm32/lib/utils/rng.h **** 		seed_ ^= seed_ >> 11;
 2495              		.loc 6 20 12 is_stmt 0 view .LVU837
 2496 0508 2E88     		ldrh	r6, [r5]
  20:/Users/joostbooy/Desktop/Code/stm32/lib/utils/rng.h **** 		seed_ ^= seed_ >> 11;
 2497              		.loc 6 20 9 view .LVU838
 2498 050a 86EAC61A 		eor	r10, r6, r6, lsl #7
  21:/Users/joostbooy/Desktop/Code/stm32/lib/utils/rng.h **** 		seed_ ^= seed_ << 2;
 2499              		.loc 6 21 18 view .LVU839
 2500 050e CAF3C429 		ubfx	r9, r10, #11, #5
  20:/Users/joostbooy/Desktop/Code/stm32/lib/utils/rng.h **** 		seed_ ^= seed_ >> 11;
 2501              		.loc 6 20 9 view .LVU840
 2502 0512 0FFA8AF6 		sxth	r6, r10
  21:/Users/joostbooy/Desktop/Code/stm32/lib/utils/rng.h **** 		seed_ ^= seed_ << 2;
 2503              		.loc 6 21 3 is_stmt 1 view .LVU841
  21:/Users/joostbooy/Desktop/Code/stm32/lib/utils/rng.h **** 		seed_ ^= seed_ << 2;
 2504              		.loc 6 21 9 is_stmt 0 view .LVU842
 2505 0516 86EA0906 		eor	r6, r6, r9
  22:/Users/joostbooy/Desktop/Code/stm32/lib/utils/rng.h **** 		return seed_;
 2506              		.loc 6 22 3 is_stmt 1 view .LVU843
  22:/Users/joostbooy/Desktop/Code/stm32/lib/utils/rng.h **** 		return seed_;
 2507              		.loc 6 22 12 is_stmt 0 view .LVU844
 2508 051a 1FFA86FE 		uxth	lr, r6
  22:/Users/joostbooy/Desktop/Code/stm32/lib/utils/rng.h **** 		return seed_;
 2509              		.loc 6 22 9 view .LVU845
 2510 051e 86EA8E06 		eor	r6, r6, lr, lsl #2
 2511 0522 1FFA86F9 		uxth	r9, r6
 2512              	.LBE1632:
 2513              	.LBE1635:
  87:Src/Engine/positionEngine.h **** 			}
 2514              		.loc 4 87 24 view .LVU846
 2515 0526 06F00F04 		and	r4, r6, #15
 2516              	.LBB1636:
 2517              	.LBB1633:
ARM GAS  /var/folders/84/_x1cyy_j36g486tldtwl37280000gn/T//cc3zCcdS.s 			page 71


  22:/Users/joostbooy/Desktop/Code/stm32/lib/utils/rng.h **** 		return seed_;
 2518              		.loc 6 22 9 view .LVU847
 2519 052a A5F80090 		strh	r9, [r5]	@ movhi
  23:/Users/joostbooy/Desktop/Code/stm32/lib/utils/rng.h **** 	}
 2520              		.loc 6 23 3 is_stmt 1 view .LVU848
 2521              	.LBE1633:
 2522              	.LBE1636:
  87:Src/Engine/positionEngine.h **** 			}
 2523              		.loc 4 87 11 is_stmt 0 view .LVU849
 2524 052e 80F88540 		strb	r4, [r0, #133]
 2525              	.LBB1637:
 2526              	.LBB1634:
  22:/Users/joostbooy/Desktop/Code/stm32/lib/utils/rng.h **** 		return seed_;
 2527              		.loc 6 22 9 view .LVU850
 2528 0532 0FFA86FE 		sxth	lr, r6
 2529              	.LBE1634:
 2530              	.LBE1637:
 2531 0536 28E7     		b	.L171
 2532              	.LVL127:
 2533              	.L170:
  64:Src/Engine/positionEngine.h **** 			step_ = ticks % 16;
 2534              		.loc 4 64 3 is_stmt 1 view .LVU851
  65:Src/Engine/positionEngine.h **** 			break;
 2535              		.loc 4 65 4 view .LVU852
 2536 0538 254D     		ldr	r5, .L239
  65:Src/Engine/positionEngine.h **** 			break;
 2537              		.loc 4 65 18 is_stmt 0 view .LVU853
 2538 053a 03F00F04 		and	r4, r3, #15
 2539 053e B5F80090 		ldrh	r9, [r5]
 2540 0542 B5F900E0 		ldrsh	lr, [r5]
  65:Src/Engine/positionEngine.h **** 			break;
 2541              		.loc 4 65 10 view .LVU854
 2542 0546 80F88540 		strb	r4, [r0, #133]
  66:Src/Engine/positionEngine.h **** 		case BACKWARD:
 2543              		.loc 4 66 4 is_stmt 1 view .LVU855
 2544 054a 1EE7     		b	.L171
 2545              	.LVL128:
 2546              	.L155:
  66:Src/Engine/positionEngine.h **** 		case BACKWARD:
 2547              		.loc 4 66 4 is_stmt 0 view .LVU856
 2548              	.LBE1857:
 2549              	.LBE1938:
 2550              	.LBE1951:
 2551              	.LBB1952:
 2552              	.LBB1561:
 2553              	.LBB1518:
 2554              	.LBB1459:
 230:Src/Engine/clockEngine.h **** 		case DOTTED_32TH:	return !prescaler_32th_dotted;
 2555              		.loc 1 230 54 view .LVU857
 2556 054c 0021     		movs	r1, #0
 2557              	.L156:
 2558              	.LVL129:
 230:Src/Engine/clockEngine.h **** 		case DOTTED_32TH:	return !prescaler_32th_dotted;
 2559              		.loc 1 230 54 view .LVU858
 2560              	.LBE1459:
 2561              	.LBE1518:
 2562              	.LBB1519:
ARM GAS  /var/folders/84/_x1cyy_j36g486tldtwl37280000gn/T//cc3zCcdS.s 			page 72


 2563              	.LBB1483:
 204:Src/Engine/clockEngine.h **** 		case DOTTED_32TH:	return ticks_32th_dotted;
 2564              		.loc 1 204 51 view .LVU859
 2565 054e 6308     		lsrs	r3, r4, #1
 2566 0550 457A     		ldrb	r5, [r0, #9]	@ zero_extendqisi2
 2567 0552 847A     		ldrb	r4, [r0, #10]	@ zero_extendqisi2
 2568              	.LBE1483:
 2569              	.LBE1519:
  86:Src/Engine/clockEngine.h **** 		ticks_passed_ = ticks();
 2570              		.loc 1 86 14 view .LVU860
 2571 0554 4170     		strb	r1, [r0, #1]
  87:Src/Engine/clockEngine.h **** 
 2572              		.loc 1 87 3 is_stmt 1 view .LVU861
 2573              	.LVL130:
 2574              	.LBB1520:
 187:Src/Engine/clockEngine.h **** 		switch (speed_)
 2575              		.loc 1 187 18 view .LVU862
 2576              	.LBB1484:
 188:Src/Engine/clockEngine.h **** 		{
 2577              		.loc 1 188 3 view .LVU863
 204:Src/Engine/clockEngine.h **** 		case DOTTED_32TH:	return ticks_32th_dotted;
 2578              		.loc 1 204 3 view .LVU864
 204:Src/Engine/clockEngine.h **** 		case DOTTED_32TH:	return ticks_32th_dotted;
 2579              		.loc 1 204 22 view .LVU865
 204:Src/Engine/clockEngine.h **** 		case DOTTED_32TH:	return ticks_32th_dotted;
 2580              		.loc 1 204 51 is_stmt 0 view .LVU866
 2581 0556 82E5     		b	.L157
 2582              	.LVL131:
 2583              	.L152:
 204:Src/Engine/clockEngine.h **** 		case DOTTED_32TH:	return ticks_32th_dotted;
 2584              		.loc 1 204 51 view .LVU867
 2585              	.LBE1484:
 2586              	.LBE1520:
 2587              	.LBB1521:
 2588              	.LBB1460:
 229:Src/Engine/clockEngine.h **** 		case TRIPLET_16TH:	return !prescaler_32th_triplet 	&& !(ticks_32th_triplet % 2);
 2589              		.loc 1 229 50 view .LVU868
 2590 0558 0021     		movs	r1, #0
 2591              	.L153:
 2592              	.LVL132:
 229:Src/Engine/clockEngine.h **** 		case TRIPLET_16TH:	return !prescaler_32th_triplet 	&& !(ticks_32th_triplet % 2);
 2593              		.loc 1 229 50 view .LVU869
 2594              	.LBE1460:
 2595              	.LBE1521:
 2596              	.LBB1522:
 2597              	.LBB1485:
 203:Src/Engine/clockEngine.h **** 		case TRIPLET_16TH:	return ticks_32th_triplet 	/ 2;
 2598              		.loc 1 203 47 view .LVU870
 2599 055a 7308     		lsrs	r3, r6, #1
 2600 055c 847A     		ldrb	r4, [r0, #10]	@ zero_extendqisi2
 2601 055e 067A     		ldrb	r6, [r0, #8]	@ zero_extendqisi2
 2602              	.LBE1485:
 2603              	.LBE1522:
  86:Src/Engine/clockEngine.h **** 		ticks_passed_ = ticks();
 2604              		.loc 1 86 14 view .LVU871
 2605 0560 4170     		strb	r1, [r0, #1]
  87:Src/Engine/clockEngine.h **** 
ARM GAS  /var/folders/84/_x1cyy_j36g486tldtwl37280000gn/T//cc3zCcdS.s 			page 73


 2606              		.loc 1 87 3 is_stmt 1 view .LVU872
 2607              	.LVL133:
 2608              	.LBB1523:
 187:Src/Engine/clockEngine.h **** 		switch (speed_)
 2609              		.loc 1 187 18 view .LVU873
 2610              	.LBB1486:
 188:Src/Engine/clockEngine.h **** 		{
 2611              		.loc 1 188 3 view .LVU874
 203:Src/Engine/clockEngine.h **** 		case TRIPLET_16TH:	return ticks_32th_triplet 	/ 2;
 2612              		.loc 1 203 3 view .LVU875
 203:Src/Engine/clockEngine.h **** 		case TRIPLET_16TH:	return ticks_32th_triplet 	/ 2;
 2613              		.loc 1 203 20 view .LVU876
 203:Src/Engine/clockEngine.h **** 		case TRIPLET_16TH:	return ticks_32th_triplet 	/ 2;
 2614              		.loc 1 203 47 is_stmt 0 view .LVU877
 2615 0562 7CE5     		b	.L157
 2616              	.LVL134:
 2617              	.L149:
 203:Src/Engine/clockEngine.h **** 		case TRIPLET_16TH:	return ticks_32th_triplet 	/ 2;
 2618              		.loc 1 203 47 view .LVU878
 2619              	.LBE1486:
 2620              	.LBE1523:
 2621              	.LBB1524:
 2622              	.LBB1461:
 228:Src/Engine/clockEngine.h **** 		case WHOLE_16TH:	return !prescaler_32th_whole 	&& !(ticks_32th_whole 	% 2);
 2623              		.loc 1 228 52 view .LVU879
 2624 0564 0021     		movs	r1, #0
 2625              	.L150:
 2626              	.LVL135:
 228:Src/Engine/clockEngine.h **** 		case WHOLE_16TH:	return !prescaler_32th_whole 	&& !(ticks_32th_whole 	% 2);
 2627              		.loc 1 228 52 view .LVU880
 2628 0566 457A     		ldrb	r5, [r0, #9]	@ zero_extendqisi2
 2629 0568 067A     		ldrb	r6, [r0, #8]	@ zero_extendqisi2
 2630              	.LBE1461:
 2631              	.LBE1524:
  86:Src/Engine/clockEngine.h **** 		ticks_passed_ = ticks();
 2632              		.loc 1 86 14 view .LVU881
 2633 056a 4170     		strb	r1, [r0, #1]
  87:Src/Engine/clockEngine.h **** 
 2634              		.loc 1 87 3 is_stmt 1 view .LVU882
 2635              	.LVL136:
 2636              	.LBB1525:
 187:Src/Engine/clockEngine.h **** 		switch (speed_)
 2637              		.loc 1 187 18 view .LVU883
 2638              	.LBB1487:
 188:Src/Engine/clockEngine.h **** 		{
 2639              		.loc 1 188 3 view .LVU884
 202:Src/Engine/clockEngine.h **** 		case WHOLE_16TH:	return ticks_32th_whole 	/ 2;
 2640              		.loc 1 202 3 view .LVU885
 202:Src/Engine/clockEngine.h **** 		case WHOLE_16TH:	return ticks_32th_whole 	/ 2;
 2641              		.loc 1 202 21 view .LVU886
 202:Src/Engine/clockEngine.h **** 		case WHOLE_16TH:	return ticks_32th_whole 	/ 2;
 2642              		.loc 1 202 49 is_stmt 0 view .LVU887
 2643 056c 5B08     		lsrs	r3, r3, #1
 2644 056e 76E5     		b	.L157
 2645              	.LVL137:
 2646              	.L146:
 202:Src/Engine/clockEngine.h **** 		case WHOLE_16TH:	return ticks_32th_whole 	/ 2;
ARM GAS  /var/folders/84/_x1cyy_j36g486tldtwl37280000gn/T//cc3zCcdS.s 			page 74


 2647              		.loc 1 202 49 view .LVU888
 2648              	.LBE1487:
 2649              	.LBE1525:
 2650              	.LBB1526:
 2651              	.LBB1462:
 227:Src/Engine/clockEngine.h **** 		case DOTTED_16TH:	return !prescaler_32th_dotted 	&& !(ticks_32th_dotted 	% 2);
 2652              		.loc 1 227 53 view .LVU889
 2653 0570 0021     		movs	r1, #0
 2654              	.L147:
 2655              	.LVL138:
 227:Src/Engine/clockEngine.h **** 		case DOTTED_16TH:	return !prescaler_32th_dotted 	&& !(ticks_32th_dotted 	% 2);
 2656              		.loc 1 227 53 view .LVU890
 2657              	.LBE1462:
 2658              	.LBE1526:
 2659              	.LBB1527:
 2660              	.LBB1488:
 201:Src/Engine/clockEngine.h **** 		case DOTTED_16TH:	return ticks_32th_dotted 	/ 2;
 2661              		.loc 1 201 49 view .LVU891
 2662 0572 AB08     		lsrs	r3, r5, #2
 2663 0574 847A     		ldrb	r4, [r0, #10]	@ zero_extendqisi2
 2664 0576 457A     		ldrb	r5, [r0, #9]	@ zero_extendqisi2
 2665              	.LBE1488:
 2666              	.LBE1527:
  86:Src/Engine/clockEngine.h **** 		ticks_passed_ = ticks();
 2667              		.loc 1 86 14 view .LVU892
 2668 0578 4170     		strb	r1, [r0, #1]
  87:Src/Engine/clockEngine.h **** 
 2669              		.loc 1 87 3 is_stmt 1 view .LVU893
 2670              	.LVL139:
 2671              	.LBB1528:
 187:Src/Engine/clockEngine.h **** 		switch (speed_)
 2672              		.loc 1 187 18 view .LVU894
 2673              	.LBB1489:
 188:Src/Engine/clockEngine.h **** 		{
 2674              		.loc 1 188 3 view .LVU895
 201:Src/Engine/clockEngine.h **** 		case DOTTED_16TH:	return ticks_32th_dotted 	/ 2;
 2675              		.loc 1 201 3 view .LVU896
 201:Src/Engine/clockEngine.h **** 		case DOTTED_16TH:	return ticks_32th_dotted 	/ 2;
 2676              		.loc 1 201 21 view .LVU897
 201:Src/Engine/clockEngine.h **** 		case DOTTED_16TH:	return ticks_32th_dotted 	/ 2;
 2677              		.loc 1 201 49 is_stmt 0 view .LVU898
 2678 057a 70E5     		b	.L157
 2679              	.LVL140:
 2680              	.L143:
 201:Src/Engine/clockEngine.h **** 		case DOTTED_16TH:	return ticks_32th_dotted 	/ 2;
 2681              		.loc 1 201 49 view .LVU899
 2682              	.LBE1489:
 2683              	.LBE1528:
 2684              	.LBB1529:
 2685              	.LBB1463:
 226:Src/Engine/clockEngine.h **** 		case TRIPLET_8TH:	return !prescaler_32th_triplet 	&& !(ticks_32th_triplet % 4);
 2686              		.loc 1 226 50 view .LVU900
 2687 057c 0021     		movs	r1, #0
 2688              	.L144:
 2689              	.LVL141:
 226:Src/Engine/clockEngine.h **** 		case TRIPLET_8TH:	return !prescaler_32th_triplet 	&& !(ticks_32th_triplet % 4);
 2690              		.loc 1 226 50 view .LVU901
ARM GAS  /var/folders/84/_x1cyy_j36g486tldtwl37280000gn/T//cc3zCcdS.s 			page 75


 2691 057e 847A     		ldrb	r4, [r0, #10]	@ zero_extendqisi2
 2692 0580 067A     		ldrb	r6, [r0, #8]	@ zero_extendqisi2
 2693              	.LBE1463:
 2694              	.LBE1529:
  86:Src/Engine/clockEngine.h **** 		ticks_passed_ = ticks();
 2695              		.loc 1 86 14 view .LVU902
 2696 0582 4170     		strb	r1, [r0, #1]
  87:Src/Engine/clockEngine.h **** 
 2697              		.loc 1 87 3 is_stmt 1 view .LVU903
 2698              	.LVL142:
 2699              	.LBB1530:
 187:Src/Engine/clockEngine.h **** 		switch (speed_)
 2700              		.loc 1 187 18 view .LVU904
 2701              	.LBB1490:
 188:Src/Engine/clockEngine.h **** 		{
 2702              		.loc 1 188 3 view .LVU905
 200:Src/Engine/clockEngine.h **** 		case TRIPLET_8TH:	return ticks_32th_triplet	/ 4;
 2703              		.loc 1 200 3 view .LVU906
 200:Src/Engine/clockEngine.h **** 		case TRIPLET_8TH:	return ticks_32th_triplet	/ 4;
 2704              		.loc 1 200 20 view .LVU907
 200:Src/Engine/clockEngine.h **** 		case TRIPLET_8TH:	return ticks_32th_triplet	/ 4;
 2705              		.loc 1 200 47 is_stmt 0 view .LVU908
 2706 0584 9308     		lsrs	r3, r2, #2
 2707 0586 6AE5     		b	.L157
 2708              	.LVL143:
 2709              	.L140:
 200:Src/Engine/clockEngine.h **** 		case TRIPLET_8TH:	return ticks_32th_triplet	/ 4;
 2710              		.loc 1 200 47 view .LVU909
 2711              	.LBE1490:
 2712              	.LBE1530:
 2713              	.LBB1531:
 2714              	.LBB1464:
 225:Src/Engine/clockEngine.h **** 		case WHOLE_8TH:		return !prescaler_32th_whole 	&& !(ticks_32th_whole 	% 4);
 2715              		.loc 1 225 51 view .LVU910
 2716 0588 0021     		movs	r1, #0
 2717              	.L141:
 2718              	.LVL144:
 225:Src/Engine/clockEngine.h **** 		case WHOLE_8TH:		return !prescaler_32th_whole 	&& !(ticks_32th_whole 	% 4);
 2719              		.loc 1 225 51 view .LVU911
 2720              	.LBE1464:
 2721              	.LBE1531:
 2722              	.LBB1532:
 2723              	.LBB1491:
 199:Src/Engine/clockEngine.h **** 		case WHOLE_8TH:		return ticks_32th_whole 	/ 4;
 2724              		.loc 1 199 47 view .LVU912
 2725 058a B308     		lsrs	r3, r6, #2
 2726 058c 457A     		ldrb	r5, [r0, #9]	@ zero_extendqisi2
 2727 058e 067A     		ldrb	r6, [r0, #8]	@ zero_extendqisi2
 2728              	.LBE1491:
 2729              	.LBE1532:
  86:Src/Engine/clockEngine.h **** 		ticks_passed_ = ticks();
 2730              		.loc 1 86 14 view .LVU913
 2731 0590 4170     		strb	r1, [r0, #1]
  87:Src/Engine/clockEngine.h **** 
 2732              		.loc 1 87 3 is_stmt 1 view .LVU914
 2733              	.LVL145:
 2734              	.LBB1533:
ARM GAS  /var/folders/84/_x1cyy_j36g486tldtwl37280000gn/T//cc3zCcdS.s 			page 76


 187:Src/Engine/clockEngine.h **** 		switch (speed_)
 2735              		.loc 1 187 18 view .LVU915
 2736              	.LBB1492:
 188:Src/Engine/clockEngine.h **** 		{
 2737              		.loc 1 188 3 view .LVU916
 199:Src/Engine/clockEngine.h **** 		case WHOLE_8TH:		return ticks_32th_whole 	/ 4;
 2738              		.loc 1 199 3 view .LVU917
 199:Src/Engine/clockEngine.h **** 		case WHOLE_8TH:		return ticks_32th_whole 	/ 4;
 2739              		.loc 1 199 20 view .LVU918
 199:Src/Engine/clockEngine.h **** 		case WHOLE_8TH:		return ticks_32th_whole 	/ 4;
 2740              		.loc 1 199 47 is_stmt 0 view .LVU919
 2741 0592 64E5     		b	.L157
 2742              	.LVL146:
 2743              	.L137:
 199:Src/Engine/clockEngine.h **** 		case WHOLE_8TH:		return ticks_32th_whole 	/ 4;
 2744              		.loc 1 199 47 view .LVU920
 2745              	.LBE1492:
 2746              	.LBE1533:
 2747              	.LBB1534:
 2748              	.LBB1465:
 224:Src/Engine/clockEngine.h **** 		case DOTTED_8TH:	return !prescaler_32th_dotted 	&& !(ticks_32th_dotted 	% 4);
 2749              		.loc 1 224 53 view .LVU921
 2750 0594 0021     		movs	r1, #0
 2751              	.L138:
 2752              	.LVL147:
 224:Src/Engine/clockEngine.h **** 		case DOTTED_8TH:	return !prescaler_32th_dotted 	&& !(ticks_32th_dotted 	% 4);
 2753              		.loc 1 224 53 view .LVU922
 2754              	.LBE1465:
 2755              	.LBE1534:
 2756              	.LBB1535:
 2757              	.LBB1493:
 198:Src/Engine/clockEngine.h **** 		case DOTTED_8TH:	return ticks_32th_dotted	/ 4;
 2758              		.loc 1 198 50 view .LVU923
 2759 0596 E308     		lsrs	r3, r4, #3
 2760 0598 457A     		ldrb	r5, [r0, #9]	@ zero_extendqisi2
 2761 059a 847A     		ldrb	r4, [r0, #10]	@ zero_extendqisi2
 2762              	.LBE1493:
 2763              	.LBE1535:
  86:Src/Engine/clockEngine.h **** 		ticks_passed_ = ticks();
 2764              		.loc 1 86 14 view .LVU924
 2765 059c 4170     		strb	r1, [r0, #1]
  87:Src/Engine/clockEngine.h **** 
 2766              		.loc 1 87 3 is_stmt 1 view .LVU925
 2767              	.LVL148:
 2768              	.LBB1536:
 187:Src/Engine/clockEngine.h **** 		switch (speed_)
 2769              		.loc 1 187 18 view .LVU926
 2770              	.LBB1494:
 188:Src/Engine/clockEngine.h **** 		{
 2771              		.loc 1 188 3 view .LVU927
 198:Src/Engine/clockEngine.h **** 		case DOTTED_8TH:	return ticks_32th_dotted	/ 4;
 2772              		.loc 1 198 3 view .LVU928
 198:Src/Engine/clockEngine.h **** 		case DOTTED_8TH:	return ticks_32th_dotted	/ 4;
 2773              		.loc 1 198 21 view .LVU929
 198:Src/Engine/clockEngine.h **** 		case DOTTED_8TH:	return ticks_32th_dotted	/ 4;
 2774              		.loc 1 198 50 is_stmt 0 view .LVU930
 2775 059e 5EE5     		b	.L157
ARM GAS  /var/folders/84/_x1cyy_j36g486tldtwl37280000gn/T//cc3zCcdS.s 			page 77


 2776              	.LVL149:
 2777              	.L134:
 198:Src/Engine/clockEngine.h **** 		case DOTTED_8TH:	return ticks_32th_dotted	/ 4;
 2778              		.loc 1 198 50 view .LVU931
 2779              	.LBE1494:
 2780              	.LBE1536:
 2781              	.LBB1537:
 2782              	.LBB1466:
 223:Src/Engine/clockEngine.h **** 		case TRIPLET_4TH:	return !prescaler_32th_triplet 	&& !(ticks_32th_triplet % 8);
 2783              		.loc 1 223 50 view .LVU932
 2784 05a0 0021     		movs	r1, #0
 2785              	.L135:
 2786              	.LVL150:
 223:Src/Engine/clockEngine.h **** 		case TRIPLET_4TH:	return !prescaler_32th_triplet 	&& !(ticks_32th_triplet % 8);
 2787              		.loc 1 223 50 view .LVU933
 2788 05a2 847A     		ldrb	r4, [r0, #10]	@ zero_extendqisi2
 2789 05a4 067A     		ldrb	r6, [r0, #8]	@ zero_extendqisi2
 2790              	.LBE1466:
 2791              	.LBE1537:
  86:Src/Engine/clockEngine.h **** 		ticks_passed_ = ticks();
 2792              		.loc 1 86 14 view .LVU934
 2793 05a6 4170     		strb	r1, [r0, #1]
  87:Src/Engine/clockEngine.h **** 
 2794              		.loc 1 87 3 is_stmt 1 view .LVU935
 2795              	.LVL151:
 2796              	.LBB1538:
 187:Src/Engine/clockEngine.h **** 		switch (speed_)
 2797              		.loc 1 187 18 view .LVU936
 2798              	.LBB1495:
 188:Src/Engine/clockEngine.h **** 		{
 2799              		.loc 1 188 3 view .LVU937
 197:Src/Engine/clockEngine.h **** 		case TRIPLET_4TH:	return ticks_32th_triplet 	/ 8;
 2800              		.loc 1 197 3 view .LVU938
 197:Src/Engine/clockEngine.h **** 		case TRIPLET_4TH:	return ticks_32th_triplet 	/ 8;
 2801              		.loc 1 197 20 view .LVU939
 197:Src/Engine/clockEngine.h **** 		case TRIPLET_4TH:	return ticks_32th_triplet 	/ 8;
 2802              		.loc 1 197 47 is_stmt 0 view .LVU940
 2803 05a8 D308     		lsrs	r3, r2, #3
 2804 05aa 58E5     		b	.L157
 2805              	.LVL152:
 2806              	.L131:
 197:Src/Engine/clockEngine.h **** 		case TRIPLET_4TH:	return ticks_32th_triplet 	/ 8;
 2807              		.loc 1 197 47 view .LVU941
 2808              	.LBE1495:
 2809              	.LBE1538:
 2810              	.LBB1539:
 2811              	.LBB1467:
 222:Src/Engine/clockEngine.h **** 		case WHOLE_4TH:		return !prescaler_32th_whole 	&& !(ticks_32th_whole 	% 8);
 2812              		.loc 1 222 50 view .LVU942
 2813 05ac 0021     		movs	r1, #0
 2814              	.L132:
 2815              	.LVL153:
 222:Src/Engine/clockEngine.h **** 		case WHOLE_4TH:		return !prescaler_32th_whole 	&& !(ticks_32th_whole 	% 8);
 2816              		.loc 1 222 50 view .LVU943
 2817 05ae 457A     		ldrb	r5, [r0, #9]	@ zero_extendqisi2
 2818 05b0 067A     		ldrb	r6, [r0, #8]	@ zero_extendqisi2
 2819              	.LBE1467:
ARM GAS  /var/folders/84/_x1cyy_j36g486tldtwl37280000gn/T//cc3zCcdS.s 			page 78


 2820              	.LBE1539:
  86:Src/Engine/clockEngine.h **** 		ticks_passed_ = ticks();
 2821              		.loc 1 86 14 view .LVU944
 2822 05b2 4170     		strb	r1, [r0, #1]
  87:Src/Engine/clockEngine.h **** 
 2823              		.loc 1 87 3 is_stmt 1 view .LVU945
 2824              	.LVL154:
 2825              	.LBB1540:
 187:Src/Engine/clockEngine.h **** 		switch (speed_)
 2826              		.loc 1 187 18 view .LVU946
 2827              	.LBB1496:
 188:Src/Engine/clockEngine.h **** 		{
 2828              		.loc 1 188 3 view .LVU947
 196:Src/Engine/clockEngine.h **** 		case WHOLE_4TH:		return ticks_32th_whole 	/ 8;
 2829              		.loc 1 196 3 view .LVU948
 196:Src/Engine/clockEngine.h **** 		case WHOLE_4TH:		return ticks_32th_whole 	/ 8;
 2830              		.loc 1 196 20 view .LVU949
 196:Src/Engine/clockEngine.h **** 		case WHOLE_4TH:		return ticks_32th_whole 	/ 8;
 2831              		.loc 1 196 48 is_stmt 0 view .LVU950
 2832 05b4 DB08     		lsrs	r3, r3, #3
 2833 05b6 52E5     		b	.L157
 2834              	.LVL155:
 2835              	.L128:
 196:Src/Engine/clockEngine.h **** 		case WHOLE_4TH:		return ticks_32th_whole 	/ 8;
 2836              		.loc 1 196 48 view .LVU951
 2837              	.LBE1496:
 2838              	.LBE1540:
 2839              	.LBB1541:
 2840              	.LBB1468:
 221:Src/Engine/clockEngine.h **** 		case DOTTED_4TH:	return !prescaler_32th_dotted	&& !(ticks_32th_dotted 	% 8);
 2841              		.loc 1 221 52 view .LVU952
 2842 05b8 0021     		movs	r1, #0
 2843              	.L129:
 2844              	.LVL156:
 221:Src/Engine/clockEngine.h **** 		case DOTTED_4TH:	return !prescaler_32th_dotted	&& !(ticks_32th_dotted 	% 8);
 2845              		.loc 1 221 52 view .LVU953
 2846              	.LBE1468:
 2847              	.LBE1541:
 2848              	.LBB1542:
 2849              	.LBB1497:
 195:Src/Engine/clockEngine.h **** 		case DOTTED_4TH:	return ticks_32th_dotted 	/ 8;
 2850              		.loc 1 195 49 view .LVU954
 2851 05ba 2B09     		lsrs	r3, r5, #4
 2852 05bc 847A     		ldrb	r4, [r0, #10]	@ zero_extendqisi2
 2853 05be 457A     		ldrb	r5, [r0, #9]	@ zero_extendqisi2
 2854              	.LBE1497:
 2855              	.LBE1542:
  86:Src/Engine/clockEngine.h **** 		ticks_passed_ = ticks();
 2856              		.loc 1 86 14 view .LVU955
 2857 05c0 4170     		strb	r1, [r0, #1]
  87:Src/Engine/clockEngine.h **** 
 2858              		.loc 1 87 3 is_stmt 1 view .LVU956
 2859              	.LVL157:
 2860              	.LBB1543:
 187:Src/Engine/clockEngine.h **** 		switch (speed_)
 2861              		.loc 1 187 18 view .LVU957
 2862              	.LBB1498:
ARM GAS  /var/folders/84/_x1cyy_j36g486tldtwl37280000gn/T//cc3zCcdS.s 			page 79


 188:Src/Engine/clockEngine.h **** 		{
 2863              		.loc 1 188 3 view .LVU958
 195:Src/Engine/clockEngine.h **** 		case DOTTED_4TH:	return ticks_32th_dotted 	/ 8;
 2864              		.loc 1 195 3 view .LVU959
 195:Src/Engine/clockEngine.h **** 		case DOTTED_4TH:	return ticks_32th_dotted 	/ 8;
 2865              		.loc 1 195 21 view .LVU960
 195:Src/Engine/clockEngine.h **** 		case DOTTED_4TH:	return ticks_32th_dotted 	/ 8;
 2866              		.loc 1 195 49 is_stmt 0 view .LVU961
 2867 05c2 4CE5     		b	.L157
 2868              	.LVL158:
 2869              	.L125:
 195:Src/Engine/clockEngine.h **** 		case DOTTED_4TH:	return ticks_32th_dotted 	/ 8;
 2870              		.loc 1 195 49 view .LVU962
 2871              	.LBE1498:
 2872              	.LBE1543:
 2873              	.LBB1544:
 2874              	.LBB1469:
 220:Src/Engine/clockEngine.h **** 		case TRIPLET_2TH:	return !prescaler_32th_triplet	&& !(ticks_32th_triplet % 16);
 2875              		.loc 1 220 49 view .LVU963
 2876 05c4 0021     		movs	r1, #0
 2877              	.L126:
 2878              	.LVL159:
 220:Src/Engine/clockEngine.h **** 		case TRIPLET_2TH:	return !prescaler_32th_triplet	&& !(ticks_32th_triplet % 16);
 2879              		.loc 1 220 49 view .LVU964
 2880              	.LBE1469:
 2881              	.LBE1544:
 2882              	.LBB1545:
 2883              	.LBB1499:
 194:Src/Engine/clockEngine.h **** 		case TRIPLET_2TH:	return ticks_32th_triplet	/ 16;
 2884              		.loc 1 194 47 view .LVU965
 2885 05c6 3309     		lsrs	r3, r6, #4
 2886 05c8 847A     		ldrb	r4, [r0, #10]	@ zero_extendqisi2
 2887 05ca 067A     		ldrb	r6, [r0, #8]	@ zero_extendqisi2
 2888              	.LBE1499:
 2889              	.LBE1545:
  86:Src/Engine/clockEngine.h **** 		ticks_passed_ = ticks();
 2890              		.loc 1 86 14 view .LVU966
 2891 05cc 4170     		strb	r1, [r0, #1]
  87:Src/Engine/clockEngine.h **** 
 2892              		.loc 1 87 3 is_stmt 1 view .LVU967
 2893              	.LVL160:
 2894              	.LBB1546:
 187:Src/Engine/clockEngine.h **** 		switch (speed_)
 2895              		.loc 1 187 18 view .LVU968
 2896              	.LBB1500:
 188:Src/Engine/clockEngine.h **** 		{
 2897              		.loc 1 188 3 view .LVU969
 194:Src/Engine/clockEngine.h **** 		case TRIPLET_2TH:	return ticks_32th_triplet	/ 16;
 2898              		.loc 1 194 3 view .LVU970
 194:Src/Engine/clockEngine.h **** 		case TRIPLET_2TH:	return ticks_32th_triplet	/ 16;
 2899              		.loc 1 194 20 view .LVU971
 194:Src/Engine/clockEngine.h **** 		case TRIPLET_2TH:	return ticks_32th_triplet	/ 16;
 2900              		.loc 1 194 47 is_stmt 0 view .LVU972
 2901 05ce 46E5     		b	.L157
 2902              	.L240:
 2903              		.align	2
 2904              	.L239:
ARM GAS  /var/folders/84/_x1cyy_j36g486tldtwl37280000gn/T//cc3zCcdS.s 			page 80


 2905 05d0 00000000 		.word	_ZN3Rng5seed_E
 2906 05d4 80008037 		.word	931135616
 2907              	.LVL161:
 2908              	.L122:
 194:Src/Engine/clockEngine.h **** 		case TRIPLET_2TH:	return ticks_32th_triplet	/ 16;
 2909              		.loc 1 194 47 view .LVU973
 2910              	.LBE1500:
 2911              	.LBE1546:
 2912              	.LBB1547:
 2913              	.LBB1470:
 219:Src/Engine/clockEngine.h **** 		case WHOLE_2TH:		return !prescaler_32th_whole	&& !(ticks_32th_whole	% 16);
 2914              		.loc 1 219 52 view .LVU974
 2915 05d8 0021     		movs	r1, #0
 2916              	.L123:
 2917              	.LVL162:
 219:Src/Engine/clockEngine.h **** 		case WHOLE_2TH:		return !prescaler_32th_whole	&& !(ticks_32th_whole	% 16);
 2918              		.loc 1 219 52 view .LVU975
 2919 05da 457A     		ldrb	r5, [r0, #9]	@ zero_extendqisi2
 2920 05dc 067A     		ldrb	r6, [r0, #8]	@ zero_extendqisi2
 2921              	.LBE1470:
 2922              	.LBE1547:
  86:Src/Engine/clockEngine.h **** 		ticks_passed_ = ticks();
 2923              		.loc 1 86 14 view .LVU976
 2924 05de 4170     		strb	r1, [r0, #1]
  87:Src/Engine/clockEngine.h **** 
 2925              		.loc 1 87 3 is_stmt 1 view .LVU977
 2926              	.LVL163:
 2927              	.LBB1548:
 187:Src/Engine/clockEngine.h **** 		switch (speed_)
 2928              		.loc 1 187 18 view .LVU978
 2929              	.LBB1501:
 188:Src/Engine/clockEngine.h **** 		{
 2930              		.loc 1 188 3 view .LVU979
 193:Src/Engine/clockEngine.h **** 		case WHOLE_2TH:		return ticks_32th_whole 	/ 16;
 2931              		.loc 1 193 3 view .LVU980
 193:Src/Engine/clockEngine.h **** 		case WHOLE_2TH:		return ticks_32th_whole 	/ 16;
 2932              		.loc 1 193 21 view .LVU981
 193:Src/Engine/clockEngine.h **** 		case WHOLE_2TH:		return ticks_32th_whole 	/ 16;
 2933              		.loc 1 193 49 is_stmt 0 view .LVU982
 2934 05e0 1309     		lsrs	r3, r2, #4
 2935 05e2 3CE5     		b	.L157
 2936              	.LVL164:
 2937              	.L119:
 193:Src/Engine/clockEngine.h **** 		case WHOLE_2TH:		return ticks_32th_whole 	/ 16;
 2938              		.loc 1 193 49 view .LVU983
 2939              	.LBE1501:
 2940              	.LBE1548:
 2941              	.LBB1549:
 2942              	.LBB1471:
 218:Src/Engine/clockEngine.h **** 		case DOTTED_2TH: 	return !prescaler_32th_dotted 	&& !(ticks_32th_dotted	% 16);
 2943              		.loc 1 218 53 view .LVU984
 2944 05e4 0021     		movs	r1, #0
 2945              	.L120:
 2946              	.LVL165:
 218:Src/Engine/clockEngine.h **** 		case DOTTED_2TH: 	return !prescaler_32th_dotted 	&& !(ticks_32th_dotted	% 16);
 2947              		.loc 1 218 53 view .LVU985
 2948              	.LBE1471:
ARM GAS  /var/folders/84/_x1cyy_j36g486tldtwl37280000gn/T//cc3zCcdS.s 			page 81


 2949              	.LBE1549:
 2950              	.LBB1550:
 2951              	.LBB1502:
 192:Src/Engine/clockEngine.h **** 		case DOTTED_2TH: 	return ticks_32th_dotted 	/ 16;
 2952              		.loc 1 192 50 view .LVU986
 2953 05e6 6309     		lsrs	r3, r4, #5
 2954 05e8 457A     		ldrb	r5, [r0, #9]	@ zero_extendqisi2
 2955 05ea 847A     		ldrb	r4, [r0, #10]	@ zero_extendqisi2
 2956              	.LBE1502:
 2957              	.LBE1550:
  86:Src/Engine/clockEngine.h **** 		ticks_passed_ = ticks();
 2958              		.loc 1 86 14 view .LVU987
 2959 05ec 4170     		strb	r1, [r0, #1]
  87:Src/Engine/clockEngine.h **** 
 2960              		.loc 1 87 3 is_stmt 1 view .LVU988
 2961              	.LVL166:
 2962              	.LBB1551:
 187:Src/Engine/clockEngine.h **** 		switch (speed_)
 2963              		.loc 1 187 18 view .LVU989
 2964              	.LBB1503:
 188:Src/Engine/clockEngine.h **** 		{
 2965              		.loc 1 188 3 view .LVU990
 192:Src/Engine/clockEngine.h **** 		case DOTTED_2TH: 	return ticks_32th_dotted 	/ 16;
 2966              		.loc 1 192 3 view .LVU991
 192:Src/Engine/clockEngine.h **** 		case DOTTED_2TH: 	return ticks_32th_dotted 	/ 16;
 2967              		.loc 1 192 21 view .LVU992
 192:Src/Engine/clockEngine.h **** 		case DOTTED_2TH: 	return ticks_32th_dotted 	/ 16;
 2968              		.loc 1 192 50 is_stmt 0 view .LVU993
 2969 05ee 36E5     		b	.L157
 2970              	.LVL167:
 2971              	.L116:
 192:Src/Engine/clockEngine.h **** 		case DOTTED_2TH: 	return ticks_32th_dotted 	/ 16;
 2972              		.loc 1 192 50 view .LVU994
 2973              	.LBE1503:
 2974              	.LBE1551:
 2975              	.LBB1552:
 2976              	.LBB1472:
 217:Src/Engine/clockEngine.h **** 		case TRIPLET_1TH:	return !prescaler_32th_triplet 	&& !(ticks_32th_triplet	% 32);
 2977              		.loc 1 217 50 view .LVU995
 2978 05f0 0021     		movs	r1, #0
 2979              	.L117:
 2980              	.LVL168:
 217:Src/Engine/clockEngine.h **** 		case TRIPLET_1TH:	return !prescaler_32th_triplet 	&& !(ticks_32th_triplet	% 32);
 2981              		.loc 1 217 50 view .LVU996
 2982 05f2 847A     		ldrb	r4, [r0, #10]	@ zero_extendqisi2
 2983 05f4 067A     		ldrb	r6, [r0, #8]	@ zero_extendqisi2
 2984              	.LBE1472:
 2985              	.LBE1552:
  86:Src/Engine/clockEngine.h **** 		ticks_passed_ = ticks();
 2986              		.loc 1 86 14 view .LVU997
 2987 05f6 4170     		strb	r1, [r0, #1]
  87:Src/Engine/clockEngine.h **** 
 2988              		.loc 1 87 3 is_stmt 1 view .LVU998
 2989              	.LVL169:
 2990              	.LBB1553:
 187:Src/Engine/clockEngine.h **** 		switch (speed_)
 2991              		.loc 1 187 18 view .LVU999
ARM GAS  /var/folders/84/_x1cyy_j36g486tldtwl37280000gn/T//cc3zCcdS.s 			page 82


 2992              	.LBB1504:
 188:Src/Engine/clockEngine.h **** 		{
 2993              		.loc 1 188 3 view .LVU1000
 191:Src/Engine/clockEngine.h **** 		case TRIPLET_1TH:	return ticks_32th_triplet 	/ 32;
 2994              		.loc 1 191 3 view .LVU1001
 191:Src/Engine/clockEngine.h **** 		case TRIPLET_1TH:	return ticks_32th_triplet 	/ 32;
 2995              		.loc 1 191 20 view .LVU1002
 191:Src/Engine/clockEngine.h **** 		case TRIPLET_1TH:	return ticks_32th_triplet 	/ 32;
 2996              		.loc 1 191 47 is_stmt 0 view .LVU1003
 2997 05f8 5B09     		lsrs	r3, r3, #5
 2998 05fa 30E5     		b	.L157
 2999              	.LVL170:
 3000              	.L113:
 191:Src/Engine/clockEngine.h **** 		case TRIPLET_1TH:	return ticks_32th_triplet 	/ 32;
 3001              		.loc 1 191 47 view .LVU1004
 3002              	.LBE1504:
 3003              	.LBE1553:
 3004              	.LBB1554:
 3005              	.LBB1473:
 216:Src/Engine/clockEngine.h **** 		case WHOLE_1TH:		return !prescaler_32th_whole 	&& !(ticks_32th_whole 	% 32);
 3006              		.loc 1 216 52 view .LVU1005
 3007 05fc 0021     		movs	r1, #0
 3008              	.L114:
 3009              	.LVL171:
 216:Src/Engine/clockEngine.h **** 		case WHOLE_1TH:		return !prescaler_32th_whole 	&& !(ticks_32th_whole 	% 32);
 3010              		.loc 1 216 52 view .LVU1006
 3011              	.LBE1473:
 3012              	.LBE1554:
 3013              	.LBB1555:
 3014              	.LBB1505:
 190:Src/Engine/clockEngine.h **** 		case WHOLE_1TH:		return ticks_32th_whole 	/ 32;
 3015              		.loc 1 190 49 view .LVU1007
 3016 05fe 7309     		lsrs	r3, r6, #5
 3017 0600 457A     		ldrb	r5, [r0, #9]	@ zero_extendqisi2
 3018 0602 067A     		ldrb	r6, [r0, #8]	@ zero_extendqisi2
 3019              	.LBE1505:
 3020              	.LBE1555:
  86:Src/Engine/clockEngine.h **** 		ticks_passed_ = ticks();
 3021              		.loc 1 86 14 view .LVU1008
 3022 0604 4170     		strb	r1, [r0, #1]
  87:Src/Engine/clockEngine.h **** 
 3023              		.loc 1 87 3 is_stmt 1 view .LVU1009
 3024              	.LVL172:
 3025              	.LBB1556:
 187:Src/Engine/clockEngine.h **** 		switch (speed_)
 3026              		.loc 1 187 18 view .LVU1010
 3027              	.LBB1506:
 188:Src/Engine/clockEngine.h **** 		{
 3028              		.loc 1 188 3 view .LVU1011
 190:Src/Engine/clockEngine.h **** 		case WHOLE_1TH:		return ticks_32th_whole 	/ 32;
 3029              		.loc 1 190 3 view .LVU1012
 190:Src/Engine/clockEngine.h **** 		case WHOLE_1TH:		return ticks_32th_whole 	/ 32;
 3030              		.loc 1 190 21 view .LVU1013
 190:Src/Engine/clockEngine.h **** 		case WHOLE_1TH:		return ticks_32th_whole 	/ 32;
 3031              		.loc 1 190 49 is_stmt 0 view .LVU1014
 3032 0606 2AE5     		b	.L157
 3033              	.LVL173:
ARM GAS  /var/folders/84/_x1cyy_j36g486tldtwl37280000gn/T//cc3zCcdS.s 			page 83


 3034              	.L233:
 190:Src/Engine/clockEngine.h **** 		case WHOLE_1TH:		return ticks_32th_whole 	/ 32;
 3035              		.loc 1 190 49 view .LVU1015
 3036 0608 104D     		ldr	r5, .L241
 3037 060a B5F80090 		ldrh	r9, [r5]
 3038 060e B5F900E0 		ldrsh	lr, [r5]
 3039              	.LVL174:
 3040              	.L183:
 190:Src/Engine/clockEngine.h **** 		case WHOLE_1TH:		return ticks_32th_whole 	/ 32;
 3041              		.loc 1 190 49 view .LVU1016
 3042              	.LBE1506:
 3043              	.LBE1556:
 3044              	.LBE1561:
 3045              	.LBE1952:
 3046              	.LBB1953:
 3047              	.LBB1939:
 3048              	.LBB1882:
 115:Src/Engine/clockEngine.h **** 			return (ticks_passed_ & 1) == 1 ? (amount - 8) * (step_duration() / 8) : 0;
 3049              		.loc 1 115 10 is_stmt 1 view .LVU1017
 3050 0612 082F     		cmp	r7, #8
 3051 0614 0BD0     		beq	.L219
 3052              	.LVL175:
 3053              	.LBB1871:
 3054              	.LBI1871:
 112:Src/Engine/clockEngine.h **** 		if (amount < 8) {
 3055              		.loc 1 112 18 view .LVU1018
 3056              	.LBB1872:
 116:Src/Engine/clockEngine.h **** 		}
 3057              		.loc 1 116 4 view .LVU1019
 116:Src/Engine/clockEngine.h **** 		}
 3058              		.loc 1 116 36 is_stmt 0 view .LVU1020
 3059 0616 13F0010A 		ands	r10, r3, #1
 3060 061a 3FF4C9AE 		beq	.L184
 3061              	.LBB1873:
 3062              	.LBI1873:
 129:Src/Engine/clockEngine.h **** 		return step_duration(speed_);
 3063              		.loc 1 129 24 is_stmt 1 view .LVU1021
 3064              	.LVL176:
 129:Src/Engine/clockEngine.h **** 		return step_duration(speed_);
 3065              		.loc 1 129 24 is_stmt 0 view .LVU1022
 3066              	.LBE1873:
 3067              	.LBE1872:
 3068              	.LBE1871:
 3069              	.LBE1882:
 3070              	.LBE1939:
 3071              	.LBE1953:
 3072              	.LBE1967:
 130:Src/Engine/clockEngine.h **** 	}
 3073              		.loc 1 130 3 is_stmt 1 view .LVU1023
 3074              	.LBB1968:
 3075              	.LBB1954:
 3076              	.LBB1940:
 3077              	.LBB1883:
 3078              	.LBB1878:
 3079              	.LBB1877:
 3080              	.LBB1876:
 3081              	.LBB1874:
ARM GAS  /var/folders/84/_x1cyy_j36g486tldtwl37280000gn/T//cc3zCcdS.s 			page 84


 3082              	.LBI1874:
 142:Src/Engine/clockEngine.h **** 		return step_duration_[speed];
 3083              		.loc 1 142 31 view .LVU1024
 3084              	.LBB1875:
 143:Src/Engine/clockEngine.h **** 	}
 3085              		.loc 1 143 3 view .LVU1025
 143:Src/Engine/clockEngine.h **** 	}
 3086              		.loc 1 143 25 is_stmt 0 view .LVU1026
 3087 061e 0378     		ldrb	r3, [r0]	@ zero_extendqisi2
 3088              	.LVL177:
 143:Src/Engine/clockEngine.h **** 	}
 3089              		.loc 1 143 25 view .LVU1027
 3090              	.LBE1875:
 3091              	.LBE1874:
 3092              	.LBE1876:
 116:Src/Engine/clockEngine.h **** 		}
 3093              		.loc 1 116 70 view .LVU1028
 3094 0620 52F82340 		ldr	r4, [r2, r3, lsl #2]
 116:Src/Engine/clockEngine.h **** 		}
 3095              		.loc 1 116 46 view .LVU1029
 3096 0624 083F     		subs	r7, r7, #8
 3097              	.LVL178:
 116:Src/Engine/clockEngine.h **** 		}
 3098              		.loc 1 116 70 view .LVU1030
 3099 0626 E308     		lsrs	r3, r4, #3
 116:Src/Engine/clockEngine.h **** 		}
 3100              		.loc 1 116 36 view .LVU1031
 3101 0628 07FB03FA 		mul	r10, r7, r3
 3102 062c C0E6     		b	.L184
 3103              	.LVL179:
 3104              	.L219:
 116:Src/Engine/clockEngine.h **** 		}
 3105              		.loc 1 116 36 view .LVU1032
 3106              	.LBE1877:
 3107              	.LBE1878:
 118:Src/Engine/clockEngine.h **** 	}
 3108              		.loc 1 118 10 view .LVU1033
 3109 062e 4FF0000A 		mov	r10, #0
 3110 0632 BDE6     		b	.L184
 3111              	.LVL180:
 3112              	.L177:
 118:Src/Engine/clockEngine.h **** 	}
 3113              		.loc 1 118 10 view .LVU1034
 3114              	.LBE1883:
 3115              	.LBE1940:
 3116              	.LBB1941:
 3117              	.LBB1858:
  94:Src/Engine/positionEngine.h **** 			}
 3118              		.loc 4 94 5 is_stmt 1 view .LVU1035
  94:Src/Engine/positionEngine.h **** 			}
 3119              		.loc 4 94 19 is_stmt 0 view .LVU1036
 3120 0634 E4B2     		uxtb	r4, r4
  94:Src/Engine/positionEngine.h **** 			}
 3121              		.loc 4 94 11 view .LVU1037
 3122 0636 80F88540 		strb	r4, [r0, #133]
 3123              	.L232:
  94:Src/Engine/positionEngine.h **** 			}
ARM GAS  /var/folders/84/_x1cyy_j36g486tldtwl37280000gn/T//cc3zCcdS.s 			page 85


 3124              		.loc 4 94 11 view .LVU1038
 3125 063a B5F80090 		ldrh	r9, [r5]
 3126 063e B5F900E0 		ldrsh	lr, [r5]
 3127 0642 A2E6     		b	.L171
 3128              	.LVL181:
 3129              	.L174:
  79:Src/Engine/positionEngine.h **** 			if ((ticks % 2) == 0) {
 3130              		.loc 4 79 10 view .LVU1039
 3131 0644 80F88580 		strb	r8, [r0, #133]
 3132 0648 15E7     		b	.L173
 3133              	.L242:
 3134 064a 00BF     		.align	2
 3135              	.L241:
 3136 064c 00000000 		.word	_ZN3Rng5seed_E
 3137              	.LVL182:
 3138              	.L180:
 100:Src/Engine/positionEngine.h **** 			}
 3139              		.loc 4 100 5 is_stmt 1 view .LVU1040
 3140              	.LBB1638:
 3141              	.LBI1638:
 128:Src/Engine/positionEngine.h **** 		exclude_mask = ~random_mask;
 3142              		.loc 4 128 7 view .LVU1041
 3143              	.LBB1639:
 129:Src/Engine/positionEngine.h **** 		for (int i = 0; i < 16; ++i) {
 3144              		.loc 4 129 3 view .LVU1042
 3145 0650 B5F800E0 		ldrh	lr, [r5]
 3146              	.LBB1640:
 3147              	.LBB1641:
 3148              	.LBB1642:
 3149              	.LBB1643:
 3150              		.file 7 "stm32/stmf4lib.h"
   1:stm32/stmf4lib.h **** #ifndef STM32F4Lib_h
   2:stm32/stmf4lib.h **** #define STM32F4Lib_h
   3:stm32/stmf4lib.h **** 
   4:stm32/stmf4lib.h **** #include "stm32f4xx.h"
   5:stm32/stmf4lib.h **** #include <functional>
   6:stm32/stmf4lib.h **** #include <stdlib.h>
   7:stm32/stmf4lib.h **** #include <stdint.h>
   8:stm32/stmf4lib.h **** #include <limits>
   9:stm32/stmf4lib.h **** #include <cstring>
  10:stm32/stmf4lib.h **** #include <cmath>
  11:stm32/stmf4lib.h **** 
  12:stm32/stmf4lib.h **** //#include <assert.h>
  13:stm32/stmf4lib.h **** //#include <algorithm>
  14:stm32/stmf4lib.h **** 
  15:stm32/stmf4lib.h **** #define CCM_RAM __attribute__((section(".ccmram")))
  16:stm32/stmf4lib.h **** #define FORCE_INLINE __attribute__((always_inline))
  17:stm32/stmf4lib.h **** 
  18:stm32/stmf4lib.h **** class stmlib {
  19:stm32/stmf4lib.h **** 
  20:stm32/stmf4lib.h **** public:
  21:stm32/stmf4lib.h **** 
  22:stm32/stmf4lib.h **** 	static inline int clip_min(int min, int value) {
  23:stm32/stmf4lib.h **** 		return value > min ? value : min;
  24:stm32/stmf4lib.h **** 	}
  25:stm32/stmf4lib.h **** 
  26:stm32/stmf4lib.h **** 	static inline int clip_max(int max, int value) {
ARM GAS  /var/folders/84/_x1cyy_j36g486tldtwl37280000gn/T//cc3zCcdS.s 			page 86


  27:stm32/stmf4lib.h **** 		return value < max ? value : max;
  28:stm32/stmf4lib.h **** 	}
  29:stm32/stmf4lib.h **** 
  30:stm32/stmf4lib.h **** 	static inline int clip(int min, int max, int value) {
  31:stm32/stmf4lib.h **** 		return value > max ? max : (value < min ? min : value);
  32:stm32/stmf4lib.h **** 	}
  33:stm32/stmf4lib.h **** 
  34:stm32/stmf4lib.h **** 	template <typename type>
  35:stm32/stmf4lib.h **** 	static inline type difference(type a, type b) {
  36:stm32/stmf4lib.h **** 		return a > b ? a - b : b - a;
  37:stm32/stmf4lib.h **** 	}
  38:stm32/stmf4lib.h **** 
  39:stm32/stmf4lib.h **** 	template <typename type>
  40:stm32/stmf4lib.h **** 	static inline void swap(type &a,type &b) {
  41:stm32/stmf4lib.h **** 		type temp = a;
 3151              		.loc 7 41 8 is_stmt 0 view .LVU1043
 3152 0654 90F88C70 		ldrb	r7, [r0, #140]	@ zero_extendqisi2
 3153              	.LVL183:
 3154              		.loc 7 41 8 view .LVU1044
 3155 0658 0797     		str	r7, [sp, #28]
 3156              	.LBE1643:
 3157              	.LBE1642:
 3158              	.LBB1684:
 3159              	.LBB1685:
  20:/Users/joostbooy/Desktop/Code/stm32/lib/utils/rng.h **** 		seed_ ^= seed_ >> 11;
 3160              		.loc 6 20 9 view .LVU1045
 3161 065a 8EEACE1C 		eor	ip, lr, lr, lsl #7
 3162 065e 0FFA8CF9 		sxth	r9, ip
  21:/Users/joostbooy/Desktop/Code/stm32/lib/utils/rng.h **** 		seed_ ^= seed_ << 2;
 3163              		.loc 6 21 18 view .LVU1046
 3164 0662 CCF3C42A 		ubfx	r10, ip, #11, #5
  21:/Users/joostbooy/Desktop/Code/stm32/lib/utils/rng.h **** 		seed_ ^= seed_ << 2;
 3165              		.loc 6 21 9 view .LVU1047
 3166 0666 89EA0A08 		eor	r8, r9, r10
  22:/Users/joostbooy/Desktop/Code/stm32/lib/utils/rng.h **** 		return seed_;
 3167              		.loc 6 22 12 view .LVU1048
 3168 066a 1FFA88F7 		uxth	r7, r8
  22:/Users/joostbooy/Desktop/Code/stm32/lib/utils/rng.h **** 		return seed_;
 3169              		.loc 6 22 9 view .LVU1049
 3170 066e 88EA8709 		eor	r9, r8, r7, lsl #2
 3171 0672 0FFA89FB 		sxth	fp, r9
  20:/Users/joostbooy/Desktop/Code/stm32/lib/utils/rng.h **** 		seed_ ^= seed_ >> 11;
 3172              		.loc 6 20 12 view .LVU1050
 3173 0676 1FFA89F7 		uxth	r7, r9
  20:/Users/joostbooy/Desktop/Code/stm32/lib/utils/rng.h **** 		seed_ ^= seed_ >> 11;
 3174              		.loc 6 20 9 view .LVU1051
 3175 067a 8BEAC71E 		eor	lr, fp, r7, lsl #7
 3176 067e 0FFA8EFC 		sxth	ip, lr
  21:/Users/joostbooy/Desktop/Code/stm32/lib/utils/rng.h **** 		seed_ ^= seed_ << 2;
 3177              		.loc 6 21 18 view .LVU1052
 3178 0682 CEF3C42A 		ubfx	r10, lr, #11, #5
  21:/Users/joostbooy/Desktop/Code/stm32/lib/utils/rng.h **** 		seed_ ^= seed_ << 2;
 3179              		.loc 6 21 9 view .LVU1053
 3180 0686 8CEA0A0B 		eor	fp, ip, r10
  22:/Users/joostbooy/Desktop/Code/stm32/lib/utils/rng.h **** 		return seed_;
 3181              		.loc 6 22 12 view .LVU1054
 3182 068a 1FFA8BF7 		uxth	r7, fp
ARM GAS  /var/folders/84/_x1cyy_j36g486tldtwl37280000gn/T//cc3zCcdS.s 			page 87


  22:/Users/joostbooy/Desktop/Code/stm32/lib/utils/rng.h **** 		return seed_;
 3183              		.loc 6 22 9 view .LVU1055
 3184 068e 8BEA8708 		eor	r8, fp, r7, lsl #2
 3185 0692 0FFA88FE 		sxth	lr, r8
  20:/Users/joostbooy/Desktop/Code/stm32/lib/utils/rng.h **** 		seed_ ^= seed_ >> 11;
 3186              		.loc 6 20 12 view .LVU1056
 3187 0696 1FFA88F7 		uxth	r7, r8
  20:/Users/joostbooy/Desktop/Code/stm32/lib/utils/rng.h **** 		seed_ ^= seed_ >> 11;
 3188              		.loc 6 20 9 view .LVU1057
 3189 069a 8EEAC71C 		eor	ip, lr, r7, lsl #7
 3190 069e 0FFA8CFA 		sxth	r10, ip
  21:/Users/joostbooy/Desktop/Code/stm32/lib/utils/rng.h **** 		seed_ ^= seed_ << 2;
 3191              		.loc 6 21 18 view .LVU1058
 3192 06a2 CCF3C42B 		ubfx	fp, ip, #11, #5
  21:/Users/joostbooy/Desktop/Code/stm32/lib/utils/rng.h **** 		seed_ ^= seed_ << 2;
 3193              		.loc 6 21 9 view .LVU1059
 3194 06a6 8AEA0B07 		eor	r7, r10, fp
  22:/Users/joostbooy/Desktop/Code/stm32/lib/utils/rng.h **** 		return seed_;
 3195              		.loc 6 22 12 view .LVU1060
 3196 06aa 1FFA87FE 		uxth	lr, r7
  22:/Users/joostbooy/Desktop/Code/stm32/lib/utils/rng.h **** 		return seed_;
 3197              		.loc 6 22 9 view .LVU1061
 3198 06ae 87EA8E0E 		eor	lr, r7, lr, lsl #2
 3199 06b2 0FFA8EFA 		sxth	r10, lr
  20:/Users/joostbooy/Desktop/Code/stm32/lib/utils/rng.h **** 		seed_ ^= seed_ >> 11;
 3200              		.loc 6 20 12 view .LVU1062
 3201 06b6 1FFA8EF7 		uxth	r7, lr
