ARM GAS  /var/folders/84/_x1cyy_j36g486tldtwl37280000gn/T//cc3kgv9b.s 			page 1


   1              		.cpu cortex-m4
   2              		.eabi_attribute 27, 1
   3              		.eabi_attribute 28, 1
   4              		.eabi_attribute 20, 1
   5              		.eabi_attribute 21, 1
   6              		.eabi_attribute 23, 3
   7              		.eabi_attribute 24, 1
   8              		.eabi_attribute 25, 1
   9              		.eabi_attribute 26, 1
  10              		.eabi_attribute 30, 2
  11              		.eabi_attribute 34, 1
  12              		.eabi_attribute 18, 4
  13              		.file	"tusb_fifo.c"
  14              		.text
  15              	.Ltext0:
  16              		.cfi_sections	.debug_frame
  17              		.section	.text._tu_fifo_peek,"ax",%progbits
  18              		.align	1
  19              		.p2align 2,,3
  20              		.arch armv7e-m
  21              		.syntax unified
  22              		.thumb
  23              		.thumb_func
  24              		.fpu fpv4-sp-d16
  26              	_tu_fifo_peek:
  27              	.LVL0:
  28              	.LFB70:
  29              		.file 1 "/Users/joostbooy/Desktop/Code/stm32/lib/tinyusb/src/common/tusb_fifo.c"
   1:/Users/joostbooy/Desktop/Code/stm32/lib/tinyusb/src/common/tusb_fifo.c **** /*
   2:/Users/joostbooy/Desktop/Code/stm32/lib/tinyusb/src/common/tusb_fifo.c ****  * The MIT License (MIT)
   3:/Users/joostbooy/Desktop/Code/stm32/lib/tinyusb/src/common/tusb_fifo.c ****  *
   4:/Users/joostbooy/Desktop/Code/stm32/lib/tinyusb/src/common/tusb_fifo.c ****  * Copyright (c) 2019 Ha Thach (tinyusb.org)
   5:/Users/joostbooy/Desktop/Code/stm32/lib/tinyusb/src/common/tusb_fifo.c ****  * Copyright (c) 2020 Reinhard Panhuber - rework to unmasked pointers
   6:/Users/joostbooy/Desktop/Code/stm32/lib/tinyusb/src/common/tusb_fifo.c ****  *
   7:/Users/joostbooy/Desktop/Code/stm32/lib/tinyusb/src/common/tusb_fifo.c ****  * Permission is hereby granted, free of charge, to any person obtaining a copy
   8:/Users/joostbooy/Desktop/Code/stm32/lib/tinyusb/src/common/tusb_fifo.c ****  * of this software and associated documentation files (the "Software"), to deal
   9:/Users/joostbooy/Desktop/Code/stm32/lib/tinyusb/src/common/tusb_fifo.c ****  * in the Software without restriction, including without limitation the rights
  10:/Users/joostbooy/Desktop/Code/stm32/lib/tinyusb/src/common/tusb_fifo.c ****  * to use, copy, modify, merge, publish, distribute, sublicense, and/or sell
  11:/Users/joostbooy/Desktop/Code/stm32/lib/tinyusb/src/common/tusb_fifo.c ****  * copies of the Software, and to permit persons to whom the Software is
  12:/Users/joostbooy/Desktop/Code/stm32/lib/tinyusb/src/common/tusb_fifo.c ****  * furnished to do so, subject to the following conditions:
  13:/Users/joostbooy/Desktop/Code/stm32/lib/tinyusb/src/common/tusb_fifo.c ****  *
  14:/Users/joostbooy/Desktop/Code/stm32/lib/tinyusb/src/common/tusb_fifo.c ****  * The above copyright notice and this permission notice shall be included in
  15:/Users/joostbooy/Desktop/Code/stm32/lib/tinyusb/src/common/tusb_fifo.c ****  * all copies or substantial portions of the Software.
  16:/Users/joostbooy/Desktop/Code/stm32/lib/tinyusb/src/common/tusb_fifo.c ****  *
  17:/Users/joostbooy/Desktop/Code/stm32/lib/tinyusb/src/common/tusb_fifo.c ****  * THE SOFTWARE IS PROVIDED "AS IS", WITHOUT WARRANTY OF ANY KIND, EXPRESS OR
  18:/Users/joostbooy/Desktop/Code/stm32/lib/tinyusb/src/common/tusb_fifo.c ****  * IMPLIED, INCLUDING BUT NOT LIMITED TO THE WARRANTIES OF MERCHANTABILITY,
  19:/Users/joostbooy/Desktop/Code/stm32/lib/tinyusb/src/common/tusb_fifo.c ****  * FITNESS FOR A PARTICULAR PURPOSE AND NONINFRINGEMENT. IN NO EVENT SHALL THE
  20:/Users/joostbooy/Desktop/Code/stm32/lib/tinyusb/src/common/tusb_fifo.c ****  * AUTHORS OR COPYRIGHT HOLDERS BE LIABLE FOR ANY CLAIM, DAMAGES OR OTHER
  21:/Users/joostbooy/Desktop/Code/stm32/lib/tinyusb/src/common/tusb_fifo.c ****  * LIABILITY, WHETHER IN AN ACTION OF CONTRACT, TORT OR OTHERWISE, ARISING FROM,
  22:/Users/joostbooy/Desktop/Code/stm32/lib/tinyusb/src/common/tusb_fifo.c ****  * OUT OF OR IN CONNECTION WITH THE SOFTWARE OR THE USE OR OTHER DEALINGS IN
  23:/Users/joostbooy/Desktop/Code/stm32/lib/tinyusb/src/common/tusb_fifo.c ****  * THE SOFTWARE.
  24:/Users/joostbooy/Desktop/Code/stm32/lib/tinyusb/src/common/tusb_fifo.c ****  *
  25:/Users/joostbooy/Desktop/Code/stm32/lib/tinyusb/src/common/tusb_fifo.c ****  * This file is part of the TinyUSB stack.
  26:/Users/joostbooy/Desktop/Code/stm32/lib/tinyusb/src/common/tusb_fifo.c ****  */
  27:/Users/joostbooy/Desktop/Code/stm32/lib/tinyusb/src/common/tusb_fifo.c **** 
  28:/Users/joostbooy/Desktop/Code/stm32/lib/tinyusb/src/common/tusb_fifo.c **** #include "osal/osal.h"
  29:/Users/joostbooy/Desktop/Code/stm32/lib/tinyusb/src/common/tusb_fifo.c **** #include "tusb_fifo.h"
ARM GAS  /var/folders/84/_x1cyy_j36g486tldtwl37280000gn/T//cc3kgv9b.s 			page 2


  30:/Users/joostbooy/Desktop/Code/stm32/lib/tinyusb/src/common/tusb_fifo.c **** 
  31:/Users/joostbooy/Desktop/Code/stm32/lib/tinyusb/src/common/tusb_fifo.c **** #define TU_FIFO_DBG   0
  32:/Users/joostbooy/Desktop/Code/stm32/lib/tinyusb/src/common/tusb_fifo.c **** 
  33:/Users/joostbooy/Desktop/Code/stm32/lib/tinyusb/src/common/tusb_fifo.c **** // Suppress IAR warning
  34:/Users/joostbooy/Desktop/Code/stm32/lib/tinyusb/src/common/tusb_fifo.c **** // Warning[Pa082]: undefined behavior: the order of volatile accesses is undefined in this statemen
  35:/Users/joostbooy/Desktop/Code/stm32/lib/tinyusb/src/common/tusb_fifo.c **** #if defined(__ICCARM__)
  36:/Users/joostbooy/Desktop/Code/stm32/lib/tinyusb/src/common/tusb_fifo.c **** #pragma diag_suppress = Pa082
  37:/Users/joostbooy/Desktop/Code/stm32/lib/tinyusb/src/common/tusb_fifo.c **** #endif
  38:/Users/joostbooy/Desktop/Code/stm32/lib/tinyusb/src/common/tusb_fifo.c **** 
  39:/Users/joostbooy/Desktop/Code/stm32/lib/tinyusb/src/common/tusb_fifo.c **** #if OSAL_MUTEX_REQUIRED
  40:/Users/joostbooy/Desktop/Code/stm32/lib/tinyusb/src/common/tusb_fifo.c **** 
  41:/Users/joostbooy/Desktop/Code/stm32/lib/tinyusb/src/common/tusb_fifo.c **** TU_ATTR_ALWAYS_INLINE static inline void _ff_lock(osal_mutex_t mutex)
  42:/Users/joostbooy/Desktop/Code/stm32/lib/tinyusb/src/common/tusb_fifo.c **** {
  43:/Users/joostbooy/Desktop/Code/stm32/lib/tinyusb/src/common/tusb_fifo.c ****   if (mutex) osal_mutex_lock(mutex, OSAL_TIMEOUT_WAIT_FOREVER);
  44:/Users/joostbooy/Desktop/Code/stm32/lib/tinyusb/src/common/tusb_fifo.c **** }
  45:/Users/joostbooy/Desktop/Code/stm32/lib/tinyusb/src/common/tusb_fifo.c **** 
  46:/Users/joostbooy/Desktop/Code/stm32/lib/tinyusb/src/common/tusb_fifo.c **** TU_ATTR_ALWAYS_INLINE static inline void _ff_unlock(osal_mutex_t mutex)
  47:/Users/joostbooy/Desktop/Code/stm32/lib/tinyusb/src/common/tusb_fifo.c **** {
  48:/Users/joostbooy/Desktop/Code/stm32/lib/tinyusb/src/common/tusb_fifo.c ****   if (mutex) osal_mutex_unlock(mutex);
  49:/Users/joostbooy/Desktop/Code/stm32/lib/tinyusb/src/common/tusb_fifo.c **** }
  50:/Users/joostbooy/Desktop/Code/stm32/lib/tinyusb/src/common/tusb_fifo.c **** 
  51:/Users/joostbooy/Desktop/Code/stm32/lib/tinyusb/src/common/tusb_fifo.c **** #else
  52:/Users/joostbooy/Desktop/Code/stm32/lib/tinyusb/src/common/tusb_fifo.c **** 
  53:/Users/joostbooy/Desktop/Code/stm32/lib/tinyusb/src/common/tusb_fifo.c **** #define _ff_lock(_mutex)
  54:/Users/joostbooy/Desktop/Code/stm32/lib/tinyusb/src/common/tusb_fifo.c **** #define _ff_unlock(_mutex)
  55:/Users/joostbooy/Desktop/Code/stm32/lib/tinyusb/src/common/tusb_fifo.c **** 
  56:/Users/joostbooy/Desktop/Code/stm32/lib/tinyusb/src/common/tusb_fifo.c **** #endif
  57:/Users/joostbooy/Desktop/Code/stm32/lib/tinyusb/src/common/tusb_fifo.c **** 
  58:/Users/joostbooy/Desktop/Code/stm32/lib/tinyusb/src/common/tusb_fifo.c **** /** \enum tu_fifo_copy_mode_t
  59:/Users/joostbooy/Desktop/Code/stm32/lib/tinyusb/src/common/tusb_fifo.c ****  * \brief Write modes intended to allow special read and write functions to be able to
  60:/Users/joostbooy/Desktop/Code/stm32/lib/tinyusb/src/common/tusb_fifo.c ****  *        copy data to and from USB hardware FIFOs as needed for e.g. STM32s and others
  61:/Users/joostbooy/Desktop/Code/stm32/lib/tinyusb/src/common/tusb_fifo.c ****  */
  62:/Users/joostbooy/Desktop/Code/stm32/lib/tinyusb/src/common/tusb_fifo.c **** typedef enum
  63:/Users/joostbooy/Desktop/Code/stm32/lib/tinyusb/src/common/tusb_fifo.c **** {
  64:/Users/joostbooy/Desktop/Code/stm32/lib/tinyusb/src/common/tusb_fifo.c ****   TU_FIFO_COPY_INC,            ///< Copy from/to an increasing source/destination address - default
  65:/Users/joostbooy/Desktop/Code/stm32/lib/tinyusb/src/common/tusb_fifo.c ****   TU_FIFO_COPY_CST_FULL_WORDS, ///< Copy from/to a constant source/destination address - required f
  66:/Users/joostbooy/Desktop/Code/stm32/lib/tinyusb/src/common/tusb_fifo.c **** } tu_fifo_copy_mode_t;
  67:/Users/joostbooy/Desktop/Code/stm32/lib/tinyusb/src/common/tusb_fifo.c **** 
  68:/Users/joostbooy/Desktop/Code/stm32/lib/tinyusb/src/common/tusb_fifo.c **** bool tu_fifo_config(tu_fifo_t *f, void* buffer, uint16_t depth, uint16_t item_size, bool overwritab
  69:/Users/joostbooy/Desktop/Code/stm32/lib/tinyusb/src/common/tusb_fifo.c **** {
  70:/Users/joostbooy/Desktop/Code/stm32/lib/tinyusb/src/common/tusb_fifo.c ****   // Limit index space to 2*depth - this allows for a fast "modulo" calculation
  71:/Users/joostbooy/Desktop/Code/stm32/lib/tinyusb/src/common/tusb_fifo.c ****   // but limits the maximum depth to 2^16/2 = 2^15 and buffer overflows are detectable
  72:/Users/joostbooy/Desktop/Code/stm32/lib/tinyusb/src/common/tusb_fifo.c ****   // only if overflow happens once (important for unsupervised DMA applications)
  73:/Users/joostbooy/Desktop/Code/stm32/lib/tinyusb/src/common/tusb_fifo.c ****   if (depth > 0x8000) return false;
  74:/Users/joostbooy/Desktop/Code/stm32/lib/tinyusb/src/common/tusb_fifo.c **** 
  75:/Users/joostbooy/Desktop/Code/stm32/lib/tinyusb/src/common/tusb_fifo.c ****   _ff_lock(f->mutex_wr);
  76:/Users/joostbooy/Desktop/Code/stm32/lib/tinyusb/src/common/tusb_fifo.c ****   _ff_lock(f->mutex_rd);
  77:/Users/joostbooy/Desktop/Code/stm32/lib/tinyusb/src/common/tusb_fifo.c **** 
  78:/Users/joostbooy/Desktop/Code/stm32/lib/tinyusb/src/common/tusb_fifo.c ****   f->buffer       = (uint8_t*) buffer;
  79:/Users/joostbooy/Desktop/Code/stm32/lib/tinyusb/src/common/tusb_fifo.c ****   f->depth        = depth;
  80:/Users/joostbooy/Desktop/Code/stm32/lib/tinyusb/src/common/tusb_fifo.c ****   f->item_size    = (uint16_t) (item_size & 0x7FFF);
  81:/Users/joostbooy/Desktop/Code/stm32/lib/tinyusb/src/common/tusb_fifo.c ****   f->overwritable = overwritable;
  82:/Users/joostbooy/Desktop/Code/stm32/lib/tinyusb/src/common/tusb_fifo.c ****   f->rd_idx       = 0;
  83:/Users/joostbooy/Desktop/Code/stm32/lib/tinyusb/src/common/tusb_fifo.c ****   f->wr_idx       = 0;
  84:/Users/joostbooy/Desktop/Code/stm32/lib/tinyusb/src/common/tusb_fifo.c **** 
  85:/Users/joostbooy/Desktop/Code/stm32/lib/tinyusb/src/common/tusb_fifo.c ****   _ff_unlock(f->mutex_wr);
  86:/Users/joostbooy/Desktop/Code/stm32/lib/tinyusb/src/common/tusb_fifo.c ****   _ff_unlock(f->mutex_rd);
ARM GAS  /var/folders/84/_x1cyy_j36g486tldtwl37280000gn/T//cc3kgv9b.s 			page 3


  87:/Users/joostbooy/Desktop/Code/stm32/lib/tinyusb/src/common/tusb_fifo.c **** 
  88:/Users/joostbooy/Desktop/Code/stm32/lib/tinyusb/src/common/tusb_fifo.c ****   return true;
  89:/Users/joostbooy/Desktop/Code/stm32/lib/tinyusb/src/common/tusb_fifo.c **** }
  90:/Users/joostbooy/Desktop/Code/stm32/lib/tinyusb/src/common/tusb_fifo.c **** 
  91:/Users/joostbooy/Desktop/Code/stm32/lib/tinyusb/src/common/tusb_fifo.c **** //--------------------------------------------------------------------+
  92:/Users/joostbooy/Desktop/Code/stm32/lib/tinyusb/src/common/tusb_fifo.c **** // Pull & Push
  93:/Users/joostbooy/Desktop/Code/stm32/lib/tinyusb/src/common/tusb_fifo.c **** //--------------------------------------------------------------------+
  94:/Users/joostbooy/Desktop/Code/stm32/lib/tinyusb/src/common/tusb_fifo.c **** 
  95:/Users/joostbooy/Desktop/Code/stm32/lib/tinyusb/src/common/tusb_fifo.c **** // Intended to be used to read from hardware USB FIFO in e.g. STM32 where all data is read from a c
  96:/Users/joostbooy/Desktop/Code/stm32/lib/tinyusb/src/common/tusb_fifo.c **** // Code adapted from dcd_synopsys.c
  97:/Users/joostbooy/Desktop/Code/stm32/lib/tinyusb/src/common/tusb_fifo.c **** // TODO generalize with configurable 1 byte or 4 byte each read
  98:/Users/joostbooy/Desktop/Code/stm32/lib/tinyusb/src/common/tusb_fifo.c **** static void _ff_push_const_addr(uint8_t * ff_buf, const void * app_buf, uint16_t len)
  99:/Users/joostbooy/Desktop/Code/stm32/lib/tinyusb/src/common/tusb_fifo.c **** {
 100:/Users/joostbooy/Desktop/Code/stm32/lib/tinyusb/src/common/tusb_fifo.c ****   volatile const uint32_t * reg_rx = (volatile const uint32_t *) app_buf;
 101:/Users/joostbooy/Desktop/Code/stm32/lib/tinyusb/src/common/tusb_fifo.c **** 
 102:/Users/joostbooy/Desktop/Code/stm32/lib/tinyusb/src/common/tusb_fifo.c ****   // Reading full available 32 bit words from const app address
 103:/Users/joostbooy/Desktop/Code/stm32/lib/tinyusb/src/common/tusb_fifo.c ****   uint16_t full_words = len >> 2;
 104:/Users/joostbooy/Desktop/Code/stm32/lib/tinyusb/src/common/tusb_fifo.c ****   while(full_words--)
 105:/Users/joostbooy/Desktop/Code/stm32/lib/tinyusb/src/common/tusb_fifo.c ****   {
 106:/Users/joostbooy/Desktop/Code/stm32/lib/tinyusb/src/common/tusb_fifo.c ****     tu_unaligned_write32(ff_buf, *reg_rx);
 107:/Users/joostbooy/Desktop/Code/stm32/lib/tinyusb/src/common/tusb_fifo.c ****     ff_buf += 4;
 108:/Users/joostbooy/Desktop/Code/stm32/lib/tinyusb/src/common/tusb_fifo.c ****   }
 109:/Users/joostbooy/Desktop/Code/stm32/lib/tinyusb/src/common/tusb_fifo.c **** 
 110:/Users/joostbooy/Desktop/Code/stm32/lib/tinyusb/src/common/tusb_fifo.c ****   // Read the remaining 1-3 bytes from const app address
 111:/Users/joostbooy/Desktop/Code/stm32/lib/tinyusb/src/common/tusb_fifo.c ****   uint8_t const bytes_rem = len & 0x03;
 112:/Users/joostbooy/Desktop/Code/stm32/lib/tinyusb/src/common/tusb_fifo.c ****   if ( bytes_rem )
 113:/Users/joostbooy/Desktop/Code/stm32/lib/tinyusb/src/common/tusb_fifo.c ****   {
 114:/Users/joostbooy/Desktop/Code/stm32/lib/tinyusb/src/common/tusb_fifo.c ****     uint32_t tmp32 = *reg_rx;
 115:/Users/joostbooy/Desktop/Code/stm32/lib/tinyusb/src/common/tusb_fifo.c ****     memcpy(ff_buf, &tmp32, bytes_rem);
 116:/Users/joostbooy/Desktop/Code/stm32/lib/tinyusb/src/common/tusb_fifo.c ****   }
 117:/Users/joostbooy/Desktop/Code/stm32/lib/tinyusb/src/common/tusb_fifo.c **** }
 118:/Users/joostbooy/Desktop/Code/stm32/lib/tinyusb/src/common/tusb_fifo.c **** 
 119:/Users/joostbooy/Desktop/Code/stm32/lib/tinyusb/src/common/tusb_fifo.c **** // Intended to be used to write to hardware USB FIFO in e.g. STM32
 120:/Users/joostbooy/Desktop/Code/stm32/lib/tinyusb/src/common/tusb_fifo.c **** // where all data is written to a constant address in full word copies
 121:/Users/joostbooy/Desktop/Code/stm32/lib/tinyusb/src/common/tusb_fifo.c **** static void _ff_pull_const_addr(void * app_buf, const uint8_t * ff_buf, uint16_t len)
 122:/Users/joostbooy/Desktop/Code/stm32/lib/tinyusb/src/common/tusb_fifo.c **** {
 123:/Users/joostbooy/Desktop/Code/stm32/lib/tinyusb/src/common/tusb_fifo.c ****   volatile uint32_t * reg_tx = (volatile uint32_t *) app_buf;
 124:/Users/joostbooy/Desktop/Code/stm32/lib/tinyusb/src/common/tusb_fifo.c **** 
 125:/Users/joostbooy/Desktop/Code/stm32/lib/tinyusb/src/common/tusb_fifo.c ****   // Write full available 32 bit words to const address
 126:/Users/joostbooy/Desktop/Code/stm32/lib/tinyusb/src/common/tusb_fifo.c ****   uint16_t full_words = len >> 2;
 127:/Users/joostbooy/Desktop/Code/stm32/lib/tinyusb/src/common/tusb_fifo.c ****   while(full_words--)
 128:/Users/joostbooy/Desktop/Code/stm32/lib/tinyusb/src/common/tusb_fifo.c ****   {
 129:/Users/joostbooy/Desktop/Code/stm32/lib/tinyusb/src/common/tusb_fifo.c ****     *reg_tx = tu_unaligned_read32(ff_buf);
 130:/Users/joostbooy/Desktop/Code/stm32/lib/tinyusb/src/common/tusb_fifo.c ****     ff_buf += 4;
 131:/Users/joostbooy/Desktop/Code/stm32/lib/tinyusb/src/common/tusb_fifo.c ****   }
 132:/Users/joostbooy/Desktop/Code/stm32/lib/tinyusb/src/common/tusb_fifo.c **** 
 133:/Users/joostbooy/Desktop/Code/stm32/lib/tinyusb/src/common/tusb_fifo.c ****   // Write the remaining 1-3 bytes into const address
 134:/Users/joostbooy/Desktop/Code/stm32/lib/tinyusb/src/common/tusb_fifo.c ****   uint8_t const bytes_rem = len & 0x03;
 135:/Users/joostbooy/Desktop/Code/stm32/lib/tinyusb/src/common/tusb_fifo.c ****   if ( bytes_rem )
 136:/Users/joostbooy/Desktop/Code/stm32/lib/tinyusb/src/common/tusb_fifo.c ****   {
 137:/Users/joostbooy/Desktop/Code/stm32/lib/tinyusb/src/common/tusb_fifo.c ****     uint32_t tmp32 = 0;
 138:/Users/joostbooy/Desktop/Code/stm32/lib/tinyusb/src/common/tusb_fifo.c ****     memcpy(&tmp32, ff_buf, bytes_rem);
 139:/Users/joostbooy/Desktop/Code/stm32/lib/tinyusb/src/common/tusb_fifo.c **** 
 140:/Users/joostbooy/Desktop/Code/stm32/lib/tinyusb/src/common/tusb_fifo.c ****     *reg_tx = tmp32;
 141:/Users/joostbooy/Desktop/Code/stm32/lib/tinyusb/src/common/tusb_fifo.c ****   }
 142:/Users/joostbooy/Desktop/Code/stm32/lib/tinyusb/src/common/tusb_fifo.c **** }
 143:/Users/joostbooy/Desktop/Code/stm32/lib/tinyusb/src/common/tusb_fifo.c **** 
ARM GAS  /var/folders/84/_x1cyy_j36g486tldtwl37280000gn/T//cc3kgv9b.s 			page 4


 144:/Users/joostbooy/Desktop/Code/stm32/lib/tinyusb/src/common/tusb_fifo.c **** // send one item to fifo WITHOUT updating write pointer
 145:/Users/joostbooy/Desktop/Code/stm32/lib/tinyusb/src/common/tusb_fifo.c **** static inline void _ff_push(tu_fifo_t* f, void const * app_buf, uint16_t rel)
 146:/Users/joostbooy/Desktop/Code/stm32/lib/tinyusb/src/common/tusb_fifo.c **** {
 147:/Users/joostbooy/Desktop/Code/stm32/lib/tinyusb/src/common/tusb_fifo.c ****   memcpy(f->buffer + (rel * f->item_size), app_buf, f->item_size);
 148:/Users/joostbooy/Desktop/Code/stm32/lib/tinyusb/src/common/tusb_fifo.c **** }
 149:/Users/joostbooy/Desktop/Code/stm32/lib/tinyusb/src/common/tusb_fifo.c **** 
 150:/Users/joostbooy/Desktop/Code/stm32/lib/tinyusb/src/common/tusb_fifo.c **** // send n items to fifo WITHOUT updating write pointer
 151:/Users/joostbooy/Desktop/Code/stm32/lib/tinyusb/src/common/tusb_fifo.c **** static void _ff_push_n(tu_fifo_t* f, void const * app_buf, uint16_t n, uint16_t wr_ptr, tu_fifo_cop
 152:/Users/joostbooy/Desktop/Code/stm32/lib/tinyusb/src/common/tusb_fifo.c **** {
 153:/Users/joostbooy/Desktop/Code/stm32/lib/tinyusb/src/common/tusb_fifo.c ****   uint16_t const lin_count = f->depth - wr_ptr;
 154:/Users/joostbooy/Desktop/Code/stm32/lib/tinyusb/src/common/tusb_fifo.c ****   uint16_t const wrap_count = n - lin_count;
 155:/Users/joostbooy/Desktop/Code/stm32/lib/tinyusb/src/common/tusb_fifo.c **** 
 156:/Users/joostbooy/Desktop/Code/stm32/lib/tinyusb/src/common/tusb_fifo.c ****   uint16_t lin_bytes = lin_count * f->item_size;
 157:/Users/joostbooy/Desktop/Code/stm32/lib/tinyusb/src/common/tusb_fifo.c ****   uint16_t wrap_bytes = wrap_count * f->item_size;
 158:/Users/joostbooy/Desktop/Code/stm32/lib/tinyusb/src/common/tusb_fifo.c **** 
 159:/Users/joostbooy/Desktop/Code/stm32/lib/tinyusb/src/common/tusb_fifo.c ****   // current buffer of fifo
 160:/Users/joostbooy/Desktop/Code/stm32/lib/tinyusb/src/common/tusb_fifo.c ****   uint8_t* ff_buf = f->buffer + (wr_ptr * f->item_size);
 161:/Users/joostbooy/Desktop/Code/stm32/lib/tinyusb/src/common/tusb_fifo.c **** 
 162:/Users/joostbooy/Desktop/Code/stm32/lib/tinyusb/src/common/tusb_fifo.c ****   switch (copy_mode)
 163:/Users/joostbooy/Desktop/Code/stm32/lib/tinyusb/src/common/tusb_fifo.c ****   {
 164:/Users/joostbooy/Desktop/Code/stm32/lib/tinyusb/src/common/tusb_fifo.c ****     case TU_FIFO_COPY_INC:
 165:/Users/joostbooy/Desktop/Code/stm32/lib/tinyusb/src/common/tusb_fifo.c ****       if(n <= lin_count)
 166:/Users/joostbooy/Desktop/Code/stm32/lib/tinyusb/src/common/tusb_fifo.c ****       {
 167:/Users/joostbooy/Desktop/Code/stm32/lib/tinyusb/src/common/tusb_fifo.c ****         // Linear only
 168:/Users/joostbooy/Desktop/Code/stm32/lib/tinyusb/src/common/tusb_fifo.c ****         memcpy(ff_buf, app_buf, n*f->item_size);
 169:/Users/joostbooy/Desktop/Code/stm32/lib/tinyusb/src/common/tusb_fifo.c ****       }
 170:/Users/joostbooy/Desktop/Code/stm32/lib/tinyusb/src/common/tusb_fifo.c ****       else
 171:/Users/joostbooy/Desktop/Code/stm32/lib/tinyusb/src/common/tusb_fifo.c ****       {
 172:/Users/joostbooy/Desktop/Code/stm32/lib/tinyusb/src/common/tusb_fifo.c ****         // Wrap around
 173:/Users/joostbooy/Desktop/Code/stm32/lib/tinyusb/src/common/tusb_fifo.c **** 
 174:/Users/joostbooy/Desktop/Code/stm32/lib/tinyusb/src/common/tusb_fifo.c ****         // Write data to linear part of buffer
 175:/Users/joostbooy/Desktop/Code/stm32/lib/tinyusb/src/common/tusb_fifo.c ****         memcpy(ff_buf, app_buf, lin_bytes);
 176:/Users/joostbooy/Desktop/Code/stm32/lib/tinyusb/src/common/tusb_fifo.c **** 
 177:/Users/joostbooy/Desktop/Code/stm32/lib/tinyusb/src/common/tusb_fifo.c ****         // Write data wrapped around
 178:/Users/joostbooy/Desktop/Code/stm32/lib/tinyusb/src/common/tusb_fifo.c ****         // TU_ASSERT(nWrap_bytes <= f->depth, );
 179:/Users/joostbooy/Desktop/Code/stm32/lib/tinyusb/src/common/tusb_fifo.c ****         memcpy(f->buffer, ((uint8_t const*) app_buf) + lin_bytes, wrap_bytes);
 180:/Users/joostbooy/Desktop/Code/stm32/lib/tinyusb/src/common/tusb_fifo.c ****       }
 181:/Users/joostbooy/Desktop/Code/stm32/lib/tinyusb/src/common/tusb_fifo.c ****       break;
 182:/Users/joostbooy/Desktop/Code/stm32/lib/tinyusb/src/common/tusb_fifo.c **** 
 183:/Users/joostbooy/Desktop/Code/stm32/lib/tinyusb/src/common/tusb_fifo.c ****     case TU_FIFO_COPY_CST_FULL_WORDS:
 184:/Users/joostbooy/Desktop/Code/stm32/lib/tinyusb/src/common/tusb_fifo.c ****       // Intended for hardware buffers from which it can be read word by word only
 185:/Users/joostbooy/Desktop/Code/stm32/lib/tinyusb/src/common/tusb_fifo.c ****       if(n <= lin_count)
 186:/Users/joostbooy/Desktop/Code/stm32/lib/tinyusb/src/common/tusb_fifo.c ****       {
 187:/Users/joostbooy/Desktop/Code/stm32/lib/tinyusb/src/common/tusb_fifo.c ****         // Linear only
 188:/Users/joostbooy/Desktop/Code/stm32/lib/tinyusb/src/common/tusb_fifo.c ****         _ff_push_const_addr(ff_buf, app_buf, n*f->item_size);
 189:/Users/joostbooy/Desktop/Code/stm32/lib/tinyusb/src/common/tusb_fifo.c ****       }
 190:/Users/joostbooy/Desktop/Code/stm32/lib/tinyusb/src/common/tusb_fifo.c ****       else
 191:/Users/joostbooy/Desktop/Code/stm32/lib/tinyusb/src/common/tusb_fifo.c ****       {
 192:/Users/joostbooy/Desktop/Code/stm32/lib/tinyusb/src/common/tusb_fifo.c ****         // Wrap around case
 193:/Users/joostbooy/Desktop/Code/stm32/lib/tinyusb/src/common/tusb_fifo.c **** 
 194:/Users/joostbooy/Desktop/Code/stm32/lib/tinyusb/src/common/tusb_fifo.c ****         // Write full words to linear part of buffer
 195:/Users/joostbooy/Desktop/Code/stm32/lib/tinyusb/src/common/tusb_fifo.c ****         uint16_t nLin_4n_bytes = lin_bytes & 0xFFFC;
 196:/Users/joostbooy/Desktop/Code/stm32/lib/tinyusb/src/common/tusb_fifo.c ****         _ff_push_const_addr(ff_buf, app_buf, nLin_4n_bytes);
 197:/Users/joostbooy/Desktop/Code/stm32/lib/tinyusb/src/common/tusb_fifo.c ****         ff_buf += nLin_4n_bytes;
 198:/Users/joostbooy/Desktop/Code/stm32/lib/tinyusb/src/common/tusb_fifo.c **** 
 199:/Users/joostbooy/Desktop/Code/stm32/lib/tinyusb/src/common/tusb_fifo.c ****         // There could be odd 1-3 bytes before the wrap-around boundary
 200:/Users/joostbooy/Desktop/Code/stm32/lib/tinyusb/src/common/tusb_fifo.c ****         uint8_t rem = lin_bytes & 0x03;
ARM GAS  /var/folders/84/_x1cyy_j36g486tldtwl37280000gn/T//cc3kgv9b.s 			page 5


 201:/Users/joostbooy/Desktop/Code/stm32/lib/tinyusb/src/common/tusb_fifo.c ****         if (rem > 0)
 202:/Users/joostbooy/Desktop/Code/stm32/lib/tinyusb/src/common/tusb_fifo.c ****         {
 203:/Users/joostbooy/Desktop/Code/stm32/lib/tinyusb/src/common/tusb_fifo.c ****           volatile const uint32_t * rx_fifo = (volatile const uint32_t *) app_buf;
 204:/Users/joostbooy/Desktop/Code/stm32/lib/tinyusb/src/common/tusb_fifo.c **** 
 205:/Users/joostbooy/Desktop/Code/stm32/lib/tinyusb/src/common/tusb_fifo.c ****           uint8_t remrem = (uint8_t) tu_min16(wrap_bytes, 4-rem);
 206:/Users/joostbooy/Desktop/Code/stm32/lib/tinyusb/src/common/tusb_fifo.c ****           wrap_bytes -= remrem;
 207:/Users/joostbooy/Desktop/Code/stm32/lib/tinyusb/src/common/tusb_fifo.c **** 
 208:/Users/joostbooy/Desktop/Code/stm32/lib/tinyusb/src/common/tusb_fifo.c ****           uint32_t tmp32 = *rx_fifo;
 209:/Users/joostbooy/Desktop/Code/stm32/lib/tinyusb/src/common/tusb_fifo.c ****           uint8_t * src_u8 = ((uint8_t *) &tmp32);
 210:/Users/joostbooy/Desktop/Code/stm32/lib/tinyusb/src/common/tusb_fifo.c **** 
 211:/Users/joostbooy/Desktop/Code/stm32/lib/tinyusb/src/common/tusb_fifo.c ****           // Write 1-3 bytes before wrapped boundary
 212:/Users/joostbooy/Desktop/Code/stm32/lib/tinyusb/src/common/tusb_fifo.c ****           while(rem--) *ff_buf++ = *src_u8++;
 213:/Users/joostbooy/Desktop/Code/stm32/lib/tinyusb/src/common/tusb_fifo.c **** 
 214:/Users/joostbooy/Desktop/Code/stm32/lib/tinyusb/src/common/tusb_fifo.c ****           // Read more bytes to beginning to complete a word
 215:/Users/joostbooy/Desktop/Code/stm32/lib/tinyusb/src/common/tusb_fifo.c ****           ff_buf = f->buffer;
 216:/Users/joostbooy/Desktop/Code/stm32/lib/tinyusb/src/common/tusb_fifo.c ****           while(remrem--) *ff_buf++ = *src_u8++;
 217:/Users/joostbooy/Desktop/Code/stm32/lib/tinyusb/src/common/tusb_fifo.c ****         }
 218:/Users/joostbooy/Desktop/Code/stm32/lib/tinyusb/src/common/tusb_fifo.c ****         else
 219:/Users/joostbooy/Desktop/Code/stm32/lib/tinyusb/src/common/tusb_fifo.c ****         {
 220:/Users/joostbooy/Desktop/Code/stm32/lib/tinyusb/src/common/tusb_fifo.c ****           ff_buf = f->buffer; // wrap around to beginning
 221:/Users/joostbooy/Desktop/Code/stm32/lib/tinyusb/src/common/tusb_fifo.c ****         }
 222:/Users/joostbooy/Desktop/Code/stm32/lib/tinyusb/src/common/tusb_fifo.c **** 
 223:/Users/joostbooy/Desktop/Code/stm32/lib/tinyusb/src/common/tusb_fifo.c ****         // Write data wrapped part
 224:/Users/joostbooy/Desktop/Code/stm32/lib/tinyusb/src/common/tusb_fifo.c ****         if (wrap_bytes > 0) _ff_push_const_addr(ff_buf, app_buf, wrap_bytes);
 225:/Users/joostbooy/Desktop/Code/stm32/lib/tinyusb/src/common/tusb_fifo.c ****       }
 226:/Users/joostbooy/Desktop/Code/stm32/lib/tinyusb/src/common/tusb_fifo.c ****       break;
 227:/Users/joostbooy/Desktop/Code/stm32/lib/tinyusb/src/common/tusb_fifo.c ****   }
 228:/Users/joostbooy/Desktop/Code/stm32/lib/tinyusb/src/common/tusb_fifo.c **** }
 229:/Users/joostbooy/Desktop/Code/stm32/lib/tinyusb/src/common/tusb_fifo.c **** 
 230:/Users/joostbooy/Desktop/Code/stm32/lib/tinyusb/src/common/tusb_fifo.c **** // get one item from fifo WITHOUT updating read pointer
 231:/Users/joostbooy/Desktop/Code/stm32/lib/tinyusb/src/common/tusb_fifo.c **** static inline void _ff_pull(tu_fifo_t* f, void * app_buf, uint16_t rel)
 232:/Users/joostbooy/Desktop/Code/stm32/lib/tinyusb/src/common/tusb_fifo.c **** {
 233:/Users/joostbooy/Desktop/Code/stm32/lib/tinyusb/src/common/tusb_fifo.c ****   memcpy(app_buf, f->buffer + (rel * f->item_size), f->item_size);
 234:/Users/joostbooy/Desktop/Code/stm32/lib/tinyusb/src/common/tusb_fifo.c **** }
 235:/Users/joostbooy/Desktop/Code/stm32/lib/tinyusb/src/common/tusb_fifo.c **** 
 236:/Users/joostbooy/Desktop/Code/stm32/lib/tinyusb/src/common/tusb_fifo.c **** // get n items from fifo WITHOUT updating read pointer
 237:/Users/joostbooy/Desktop/Code/stm32/lib/tinyusb/src/common/tusb_fifo.c **** static void _ff_pull_n(tu_fifo_t* f, void* app_buf, uint16_t n, uint16_t rd_ptr, tu_fifo_copy_mode_
 238:/Users/joostbooy/Desktop/Code/stm32/lib/tinyusb/src/common/tusb_fifo.c **** {
 239:/Users/joostbooy/Desktop/Code/stm32/lib/tinyusb/src/common/tusb_fifo.c ****   uint16_t const lin_count = f->depth - rd_ptr;
 240:/Users/joostbooy/Desktop/Code/stm32/lib/tinyusb/src/common/tusb_fifo.c ****   uint16_t const wrap_count = n - lin_count; // only used if wrapped
 241:/Users/joostbooy/Desktop/Code/stm32/lib/tinyusb/src/common/tusb_fifo.c **** 
 242:/Users/joostbooy/Desktop/Code/stm32/lib/tinyusb/src/common/tusb_fifo.c ****   uint16_t lin_bytes = lin_count * f->item_size;
 243:/Users/joostbooy/Desktop/Code/stm32/lib/tinyusb/src/common/tusb_fifo.c ****   uint16_t wrap_bytes = wrap_count * f->item_size;
 244:/Users/joostbooy/Desktop/Code/stm32/lib/tinyusb/src/common/tusb_fifo.c **** 
 245:/Users/joostbooy/Desktop/Code/stm32/lib/tinyusb/src/common/tusb_fifo.c ****   // current buffer of fifo
 246:/Users/joostbooy/Desktop/Code/stm32/lib/tinyusb/src/common/tusb_fifo.c ****   uint8_t* ff_buf = f->buffer + (rd_ptr * f->item_size);
 247:/Users/joostbooy/Desktop/Code/stm32/lib/tinyusb/src/common/tusb_fifo.c **** 
 248:/Users/joostbooy/Desktop/Code/stm32/lib/tinyusb/src/common/tusb_fifo.c ****   switch (copy_mode)
 249:/Users/joostbooy/Desktop/Code/stm32/lib/tinyusb/src/common/tusb_fifo.c ****   {
 250:/Users/joostbooy/Desktop/Code/stm32/lib/tinyusb/src/common/tusb_fifo.c ****     case TU_FIFO_COPY_INC:
 251:/Users/joostbooy/Desktop/Code/stm32/lib/tinyusb/src/common/tusb_fifo.c ****       if ( n <= lin_count )
 252:/Users/joostbooy/Desktop/Code/stm32/lib/tinyusb/src/common/tusb_fifo.c ****       {
 253:/Users/joostbooy/Desktop/Code/stm32/lib/tinyusb/src/common/tusb_fifo.c ****         // Linear only
 254:/Users/joostbooy/Desktop/Code/stm32/lib/tinyusb/src/common/tusb_fifo.c ****         memcpy(app_buf, ff_buf, n*f->item_size);
 255:/Users/joostbooy/Desktop/Code/stm32/lib/tinyusb/src/common/tusb_fifo.c ****       }
 256:/Users/joostbooy/Desktop/Code/stm32/lib/tinyusb/src/common/tusb_fifo.c ****       else
 257:/Users/joostbooy/Desktop/Code/stm32/lib/tinyusb/src/common/tusb_fifo.c ****       {
ARM GAS  /var/folders/84/_x1cyy_j36g486tldtwl37280000gn/T//cc3kgv9b.s 			page 6


 258:/Users/joostbooy/Desktop/Code/stm32/lib/tinyusb/src/common/tusb_fifo.c ****         // Wrap around
 259:/Users/joostbooy/Desktop/Code/stm32/lib/tinyusb/src/common/tusb_fifo.c **** 
 260:/Users/joostbooy/Desktop/Code/stm32/lib/tinyusb/src/common/tusb_fifo.c ****         // Read data from linear part of buffer
 261:/Users/joostbooy/Desktop/Code/stm32/lib/tinyusb/src/common/tusb_fifo.c ****         memcpy(app_buf, ff_buf, lin_bytes);
 262:/Users/joostbooy/Desktop/Code/stm32/lib/tinyusb/src/common/tusb_fifo.c **** 
 263:/Users/joostbooy/Desktop/Code/stm32/lib/tinyusb/src/common/tusb_fifo.c ****         // Read data wrapped part
 264:/Users/joostbooy/Desktop/Code/stm32/lib/tinyusb/src/common/tusb_fifo.c ****         memcpy((uint8_t*) app_buf + lin_bytes, f->buffer, wrap_bytes);
 265:/Users/joostbooy/Desktop/Code/stm32/lib/tinyusb/src/common/tusb_fifo.c ****       }
 266:/Users/joostbooy/Desktop/Code/stm32/lib/tinyusb/src/common/tusb_fifo.c ****     break;
 267:/Users/joostbooy/Desktop/Code/stm32/lib/tinyusb/src/common/tusb_fifo.c **** 
 268:/Users/joostbooy/Desktop/Code/stm32/lib/tinyusb/src/common/tusb_fifo.c ****     case TU_FIFO_COPY_CST_FULL_WORDS:
 269:/Users/joostbooy/Desktop/Code/stm32/lib/tinyusb/src/common/tusb_fifo.c ****       if ( n <= lin_count )
 270:/Users/joostbooy/Desktop/Code/stm32/lib/tinyusb/src/common/tusb_fifo.c ****       {
 271:/Users/joostbooy/Desktop/Code/stm32/lib/tinyusb/src/common/tusb_fifo.c ****         // Linear only
 272:/Users/joostbooy/Desktop/Code/stm32/lib/tinyusb/src/common/tusb_fifo.c ****         _ff_pull_const_addr(app_buf, ff_buf, n*f->item_size);
 273:/Users/joostbooy/Desktop/Code/stm32/lib/tinyusb/src/common/tusb_fifo.c ****       }
 274:/Users/joostbooy/Desktop/Code/stm32/lib/tinyusb/src/common/tusb_fifo.c ****       else
 275:/Users/joostbooy/Desktop/Code/stm32/lib/tinyusb/src/common/tusb_fifo.c ****       {
 276:/Users/joostbooy/Desktop/Code/stm32/lib/tinyusb/src/common/tusb_fifo.c ****         // Wrap around case
 277:/Users/joostbooy/Desktop/Code/stm32/lib/tinyusb/src/common/tusb_fifo.c **** 
 278:/Users/joostbooy/Desktop/Code/stm32/lib/tinyusb/src/common/tusb_fifo.c ****         // Read full words from linear part of buffer
 279:/Users/joostbooy/Desktop/Code/stm32/lib/tinyusb/src/common/tusb_fifo.c ****         uint16_t lin_4n_bytes = lin_bytes & 0xFFFC;
 280:/Users/joostbooy/Desktop/Code/stm32/lib/tinyusb/src/common/tusb_fifo.c ****         _ff_pull_const_addr(app_buf, ff_buf, lin_4n_bytes);
 281:/Users/joostbooy/Desktop/Code/stm32/lib/tinyusb/src/common/tusb_fifo.c ****         ff_buf += lin_4n_bytes;
 282:/Users/joostbooy/Desktop/Code/stm32/lib/tinyusb/src/common/tusb_fifo.c **** 
 283:/Users/joostbooy/Desktop/Code/stm32/lib/tinyusb/src/common/tusb_fifo.c ****         // There could be odd 1-3 bytes before the wrap-around boundary
 284:/Users/joostbooy/Desktop/Code/stm32/lib/tinyusb/src/common/tusb_fifo.c ****         uint8_t rem = lin_bytes & 0x03;
 285:/Users/joostbooy/Desktop/Code/stm32/lib/tinyusb/src/common/tusb_fifo.c ****         if (rem > 0)
 286:/Users/joostbooy/Desktop/Code/stm32/lib/tinyusb/src/common/tusb_fifo.c ****         {
 287:/Users/joostbooy/Desktop/Code/stm32/lib/tinyusb/src/common/tusb_fifo.c ****           volatile uint32_t * reg_tx = (volatile uint32_t *) app_buf;
 288:/Users/joostbooy/Desktop/Code/stm32/lib/tinyusb/src/common/tusb_fifo.c **** 
 289:/Users/joostbooy/Desktop/Code/stm32/lib/tinyusb/src/common/tusb_fifo.c ****           uint8_t remrem = (uint8_t) tu_min16(wrap_bytes, 4-rem);
 290:/Users/joostbooy/Desktop/Code/stm32/lib/tinyusb/src/common/tusb_fifo.c ****           wrap_bytes -= remrem;
 291:/Users/joostbooy/Desktop/Code/stm32/lib/tinyusb/src/common/tusb_fifo.c **** 
 292:/Users/joostbooy/Desktop/Code/stm32/lib/tinyusb/src/common/tusb_fifo.c ****           uint32_t tmp32=0;
 293:/Users/joostbooy/Desktop/Code/stm32/lib/tinyusb/src/common/tusb_fifo.c ****           uint8_t * dst_u8 = (uint8_t *)&tmp32;
 294:/Users/joostbooy/Desktop/Code/stm32/lib/tinyusb/src/common/tusb_fifo.c **** 
 295:/Users/joostbooy/Desktop/Code/stm32/lib/tinyusb/src/common/tusb_fifo.c ****           // Read 1-3 bytes before wrapped boundary
 296:/Users/joostbooy/Desktop/Code/stm32/lib/tinyusb/src/common/tusb_fifo.c ****           while(rem--) *dst_u8++ = *ff_buf++;
 297:/Users/joostbooy/Desktop/Code/stm32/lib/tinyusb/src/common/tusb_fifo.c **** 
 298:/Users/joostbooy/Desktop/Code/stm32/lib/tinyusb/src/common/tusb_fifo.c ****           // Read more bytes from beginning to complete a word
 299:/Users/joostbooy/Desktop/Code/stm32/lib/tinyusb/src/common/tusb_fifo.c ****           ff_buf = f->buffer;
 300:/Users/joostbooy/Desktop/Code/stm32/lib/tinyusb/src/common/tusb_fifo.c ****           while(remrem--) *dst_u8++ = *ff_buf++;
 301:/Users/joostbooy/Desktop/Code/stm32/lib/tinyusb/src/common/tusb_fifo.c **** 
 302:/Users/joostbooy/Desktop/Code/stm32/lib/tinyusb/src/common/tusb_fifo.c ****           *reg_tx = tmp32;
 303:/Users/joostbooy/Desktop/Code/stm32/lib/tinyusb/src/common/tusb_fifo.c ****         }
 304:/Users/joostbooy/Desktop/Code/stm32/lib/tinyusb/src/common/tusb_fifo.c ****         else
 305:/Users/joostbooy/Desktop/Code/stm32/lib/tinyusb/src/common/tusb_fifo.c ****         {
 306:/Users/joostbooy/Desktop/Code/stm32/lib/tinyusb/src/common/tusb_fifo.c ****           ff_buf = f->buffer; // wrap around to beginning
 307:/Users/joostbooy/Desktop/Code/stm32/lib/tinyusb/src/common/tusb_fifo.c ****         }
 308:/Users/joostbooy/Desktop/Code/stm32/lib/tinyusb/src/common/tusb_fifo.c **** 
 309:/Users/joostbooy/Desktop/Code/stm32/lib/tinyusb/src/common/tusb_fifo.c ****         // Read data wrapped part
 310:/Users/joostbooy/Desktop/Code/stm32/lib/tinyusb/src/common/tusb_fifo.c ****         if (wrap_bytes > 0) _ff_pull_const_addr(app_buf, ff_buf, wrap_bytes);
 311:/Users/joostbooy/Desktop/Code/stm32/lib/tinyusb/src/common/tusb_fifo.c ****       }
 312:/Users/joostbooy/Desktop/Code/stm32/lib/tinyusb/src/common/tusb_fifo.c ****     break;
 313:/Users/joostbooy/Desktop/Code/stm32/lib/tinyusb/src/common/tusb_fifo.c **** 
 314:/Users/joostbooy/Desktop/Code/stm32/lib/tinyusb/src/common/tusb_fifo.c ****     default: break;
ARM GAS  /var/folders/84/_x1cyy_j36g486tldtwl37280000gn/T//cc3kgv9b.s 			page 7


 315:/Users/joostbooy/Desktop/Code/stm32/lib/tinyusb/src/common/tusb_fifo.c ****   }
 316:/Users/joostbooy/Desktop/Code/stm32/lib/tinyusb/src/common/tusb_fifo.c **** }
 317:/Users/joostbooy/Desktop/Code/stm32/lib/tinyusb/src/common/tusb_fifo.c **** 
 318:/Users/joostbooy/Desktop/Code/stm32/lib/tinyusb/src/common/tusb_fifo.c **** //--------------------------------------------------------------------+
 319:/Users/joostbooy/Desktop/Code/stm32/lib/tinyusb/src/common/tusb_fifo.c **** // Helper
 320:/Users/joostbooy/Desktop/Code/stm32/lib/tinyusb/src/common/tusb_fifo.c **** //--------------------------------------------------------------------+
 321:/Users/joostbooy/Desktop/Code/stm32/lib/tinyusb/src/common/tusb_fifo.c **** 
 322:/Users/joostbooy/Desktop/Code/stm32/lib/tinyusb/src/common/tusb_fifo.c **** // return only the index difference and as such can be used to determine an overflow i.e overflowab
 323:/Users/joostbooy/Desktop/Code/stm32/lib/tinyusb/src/common/tusb_fifo.c **** TU_ATTR_ALWAYS_INLINE static inline
 324:/Users/joostbooy/Desktop/Code/stm32/lib/tinyusb/src/common/tusb_fifo.c **** uint16_t _ff_count(uint16_t depth, uint16_t wr_idx, uint16_t rd_idx)
 325:/Users/joostbooy/Desktop/Code/stm32/lib/tinyusb/src/common/tusb_fifo.c **** {
 326:/Users/joostbooy/Desktop/Code/stm32/lib/tinyusb/src/common/tusb_fifo.c ****   // In case we have non-power of two depth we need a further modification
 327:/Users/joostbooy/Desktop/Code/stm32/lib/tinyusb/src/common/tusb_fifo.c ****   if (wr_idx >= rd_idx)
 328:/Users/joostbooy/Desktop/Code/stm32/lib/tinyusb/src/common/tusb_fifo.c ****   {
 329:/Users/joostbooy/Desktop/Code/stm32/lib/tinyusb/src/common/tusb_fifo.c ****     return (uint16_t) (wr_idx - rd_idx);
 330:/Users/joostbooy/Desktop/Code/stm32/lib/tinyusb/src/common/tusb_fifo.c ****   } else
 331:/Users/joostbooy/Desktop/Code/stm32/lib/tinyusb/src/common/tusb_fifo.c ****   {
 332:/Users/joostbooy/Desktop/Code/stm32/lib/tinyusb/src/common/tusb_fifo.c ****     return (uint16_t) (2*depth - (rd_idx - wr_idx));
 333:/Users/joostbooy/Desktop/Code/stm32/lib/tinyusb/src/common/tusb_fifo.c ****   }
 334:/Users/joostbooy/Desktop/Code/stm32/lib/tinyusb/src/common/tusb_fifo.c **** }
 335:/Users/joostbooy/Desktop/Code/stm32/lib/tinyusb/src/common/tusb_fifo.c **** 
 336:/Users/joostbooy/Desktop/Code/stm32/lib/tinyusb/src/common/tusb_fifo.c **** // return remaining slot in fifo
 337:/Users/joostbooy/Desktop/Code/stm32/lib/tinyusb/src/common/tusb_fifo.c **** TU_ATTR_ALWAYS_INLINE static inline
 338:/Users/joostbooy/Desktop/Code/stm32/lib/tinyusb/src/common/tusb_fifo.c **** uint16_t _ff_remaining(uint16_t depth, uint16_t wr_idx, uint16_t rd_idx)
 339:/Users/joostbooy/Desktop/Code/stm32/lib/tinyusb/src/common/tusb_fifo.c **** {
 340:/Users/joostbooy/Desktop/Code/stm32/lib/tinyusb/src/common/tusb_fifo.c ****   uint16_t const count = _ff_count(depth, wr_idx, rd_idx);
 341:/Users/joostbooy/Desktop/Code/stm32/lib/tinyusb/src/common/tusb_fifo.c ****   return (depth > count) ? (depth - count) : 0;
 342:/Users/joostbooy/Desktop/Code/stm32/lib/tinyusb/src/common/tusb_fifo.c **** }
 343:/Users/joostbooy/Desktop/Code/stm32/lib/tinyusb/src/common/tusb_fifo.c **** 
 344:/Users/joostbooy/Desktop/Code/stm32/lib/tinyusb/src/common/tusb_fifo.c **** //--------------------------------------------------------------------+
 345:/Users/joostbooy/Desktop/Code/stm32/lib/tinyusb/src/common/tusb_fifo.c **** // Index Helper
 346:/Users/joostbooy/Desktop/Code/stm32/lib/tinyusb/src/common/tusb_fifo.c **** //--------------------------------------------------------------------+
 347:/Users/joostbooy/Desktop/Code/stm32/lib/tinyusb/src/common/tusb_fifo.c **** 
 348:/Users/joostbooy/Desktop/Code/stm32/lib/tinyusb/src/common/tusb_fifo.c **** // Advance an absolute index
 349:/Users/joostbooy/Desktop/Code/stm32/lib/tinyusb/src/common/tusb_fifo.c **** // "absolute" index is only in the range of [0..2*depth)
 350:/Users/joostbooy/Desktop/Code/stm32/lib/tinyusb/src/common/tusb_fifo.c **** static uint16_t advance_index(uint16_t depth, uint16_t idx, uint16_t offset)
 351:/Users/joostbooy/Desktop/Code/stm32/lib/tinyusb/src/common/tusb_fifo.c **** {
 352:/Users/joostbooy/Desktop/Code/stm32/lib/tinyusb/src/common/tusb_fifo.c ****   // We limit the index space of p such that a correct wrap around happens
 353:/Users/joostbooy/Desktop/Code/stm32/lib/tinyusb/src/common/tusb_fifo.c ****   // Check for a wrap around or if we are in unused index space - This has to be checked first!!
 354:/Users/joostbooy/Desktop/Code/stm32/lib/tinyusb/src/common/tusb_fifo.c ****   // We are exploiting the wrap around to the correct index
 355:/Users/joostbooy/Desktop/Code/stm32/lib/tinyusb/src/common/tusb_fifo.c ****   uint16_t new_idx = (uint16_t) (idx + offset);
 356:/Users/joostbooy/Desktop/Code/stm32/lib/tinyusb/src/common/tusb_fifo.c ****   if ( (idx > new_idx) || (new_idx >= 2*depth) )
 357:/Users/joostbooy/Desktop/Code/stm32/lib/tinyusb/src/common/tusb_fifo.c ****   {
 358:/Users/joostbooy/Desktop/Code/stm32/lib/tinyusb/src/common/tusb_fifo.c ****     uint16_t const non_used_index_space = (uint16_t) (UINT16_MAX - (2*depth-1));
 359:/Users/joostbooy/Desktop/Code/stm32/lib/tinyusb/src/common/tusb_fifo.c ****     new_idx = (uint16_t) (new_idx + non_used_index_space);
 360:/Users/joostbooy/Desktop/Code/stm32/lib/tinyusb/src/common/tusb_fifo.c ****   }
 361:/Users/joostbooy/Desktop/Code/stm32/lib/tinyusb/src/common/tusb_fifo.c **** 
 362:/Users/joostbooy/Desktop/Code/stm32/lib/tinyusb/src/common/tusb_fifo.c ****   return new_idx;
 363:/Users/joostbooy/Desktop/Code/stm32/lib/tinyusb/src/common/tusb_fifo.c **** }
 364:/Users/joostbooy/Desktop/Code/stm32/lib/tinyusb/src/common/tusb_fifo.c **** 
 365:/Users/joostbooy/Desktop/Code/stm32/lib/tinyusb/src/common/tusb_fifo.c **** #if 0 // not used but
 366:/Users/joostbooy/Desktop/Code/stm32/lib/tinyusb/src/common/tusb_fifo.c **** // Backward an absolute index
 367:/Users/joostbooy/Desktop/Code/stm32/lib/tinyusb/src/common/tusb_fifo.c **** static uint16_t backward_index(uint16_t depth, uint16_t idx, uint16_t offset)
 368:/Users/joostbooy/Desktop/Code/stm32/lib/tinyusb/src/common/tusb_fifo.c **** {
 369:/Users/joostbooy/Desktop/Code/stm32/lib/tinyusb/src/common/tusb_fifo.c ****   // We limit the index space of p such that a correct wrap around happens
 370:/Users/joostbooy/Desktop/Code/stm32/lib/tinyusb/src/common/tusb_fifo.c ****   // Check for a wrap around or if we are in unused index space - This has to be checked first!!
 371:/Users/joostbooy/Desktop/Code/stm32/lib/tinyusb/src/common/tusb_fifo.c ****   // We are exploiting the wrap around to the correct index
ARM GAS  /var/folders/84/_x1cyy_j36g486tldtwl37280000gn/T//cc3kgv9b.s 			page 8


 372:/Users/joostbooy/Desktop/Code/stm32/lib/tinyusb/src/common/tusb_fifo.c ****   uint16_t new_idx = (uint16_t) (idx - offset);
 373:/Users/joostbooy/Desktop/Code/stm32/lib/tinyusb/src/common/tusb_fifo.c ****   if ( (idx < new_idx) || (new_idx >= 2*depth) )
 374:/Users/joostbooy/Desktop/Code/stm32/lib/tinyusb/src/common/tusb_fifo.c ****   {
 375:/Users/joostbooy/Desktop/Code/stm32/lib/tinyusb/src/common/tusb_fifo.c ****     uint16_t const non_used_index_space = (uint16_t) (UINT16_MAX - (2*depth-1));
 376:/Users/joostbooy/Desktop/Code/stm32/lib/tinyusb/src/common/tusb_fifo.c ****     new_idx = (uint16_t) (new_idx - non_used_index_space);
 377:/Users/joostbooy/Desktop/Code/stm32/lib/tinyusb/src/common/tusb_fifo.c ****   }
 378:/Users/joostbooy/Desktop/Code/stm32/lib/tinyusb/src/common/tusb_fifo.c **** 
 379:/Users/joostbooy/Desktop/Code/stm32/lib/tinyusb/src/common/tusb_fifo.c ****   return new_idx;
 380:/Users/joostbooy/Desktop/Code/stm32/lib/tinyusb/src/common/tusb_fifo.c **** }
 381:/Users/joostbooy/Desktop/Code/stm32/lib/tinyusb/src/common/tusb_fifo.c **** #endif
 382:/Users/joostbooy/Desktop/Code/stm32/lib/tinyusb/src/common/tusb_fifo.c **** 
 383:/Users/joostbooy/Desktop/Code/stm32/lib/tinyusb/src/common/tusb_fifo.c **** // index to pointer, simply an modulo with minus.
 384:/Users/joostbooy/Desktop/Code/stm32/lib/tinyusb/src/common/tusb_fifo.c **** TU_ATTR_ALWAYS_INLINE static inline
 385:/Users/joostbooy/Desktop/Code/stm32/lib/tinyusb/src/common/tusb_fifo.c **** uint16_t idx2ptr(uint16_t depth, uint16_t idx)
 386:/Users/joostbooy/Desktop/Code/stm32/lib/tinyusb/src/common/tusb_fifo.c **** {
 387:/Users/joostbooy/Desktop/Code/stm32/lib/tinyusb/src/common/tusb_fifo.c ****   // Only run at most 3 times since index is limit in the range of [0..2*depth)
 388:/Users/joostbooy/Desktop/Code/stm32/lib/tinyusb/src/common/tusb_fifo.c ****   while ( idx >= depth ) idx -= depth;
 389:/Users/joostbooy/Desktop/Code/stm32/lib/tinyusb/src/common/tusb_fifo.c ****   return idx;
 390:/Users/joostbooy/Desktop/Code/stm32/lib/tinyusb/src/common/tusb_fifo.c **** }
 391:/Users/joostbooy/Desktop/Code/stm32/lib/tinyusb/src/common/tusb_fifo.c **** 
 392:/Users/joostbooy/Desktop/Code/stm32/lib/tinyusb/src/common/tusb_fifo.c **** // Works on local copies of w
 393:/Users/joostbooy/Desktop/Code/stm32/lib/tinyusb/src/common/tusb_fifo.c **** // When an overwritable fifo is overflowed, rd_idx will be re-index so that it forms
 394:/Users/joostbooy/Desktop/Code/stm32/lib/tinyusb/src/common/tusb_fifo.c **** // an full fifo i.e _ff_count() = depth
 395:/Users/joostbooy/Desktop/Code/stm32/lib/tinyusb/src/common/tusb_fifo.c **** TU_ATTR_ALWAYS_INLINE static inline
 396:/Users/joostbooy/Desktop/Code/stm32/lib/tinyusb/src/common/tusb_fifo.c **** uint16_t _ff_correct_read_index(tu_fifo_t* f, uint16_t wr_idx)
 397:/Users/joostbooy/Desktop/Code/stm32/lib/tinyusb/src/common/tusb_fifo.c **** {
 398:/Users/joostbooy/Desktop/Code/stm32/lib/tinyusb/src/common/tusb_fifo.c ****   uint16_t rd_idx;
 399:/Users/joostbooy/Desktop/Code/stm32/lib/tinyusb/src/common/tusb_fifo.c ****   if ( wr_idx >= f->depth )
 400:/Users/joostbooy/Desktop/Code/stm32/lib/tinyusb/src/common/tusb_fifo.c ****   {
 401:/Users/joostbooy/Desktop/Code/stm32/lib/tinyusb/src/common/tusb_fifo.c ****     rd_idx = wr_idx - f->depth;
 402:/Users/joostbooy/Desktop/Code/stm32/lib/tinyusb/src/common/tusb_fifo.c ****   }else
 403:/Users/joostbooy/Desktop/Code/stm32/lib/tinyusb/src/common/tusb_fifo.c ****   {
 404:/Users/joostbooy/Desktop/Code/stm32/lib/tinyusb/src/common/tusb_fifo.c ****     rd_idx = wr_idx + f->depth;
 405:/Users/joostbooy/Desktop/Code/stm32/lib/tinyusb/src/common/tusb_fifo.c ****   }
 406:/Users/joostbooy/Desktop/Code/stm32/lib/tinyusb/src/common/tusb_fifo.c **** 
 407:/Users/joostbooy/Desktop/Code/stm32/lib/tinyusb/src/common/tusb_fifo.c ****   f->rd_idx = rd_idx;
 408:/Users/joostbooy/Desktop/Code/stm32/lib/tinyusb/src/common/tusb_fifo.c **** 
 409:/Users/joostbooy/Desktop/Code/stm32/lib/tinyusb/src/common/tusb_fifo.c ****   return rd_idx;
 410:/Users/joostbooy/Desktop/Code/stm32/lib/tinyusb/src/common/tusb_fifo.c **** }
 411:/Users/joostbooy/Desktop/Code/stm32/lib/tinyusb/src/common/tusb_fifo.c **** 
 412:/Users/joostbooy/Desktop/Code/stm32/lib/tinyusb/src/common/tusb_fifo.c **** // Works on local copies of w and r
 413:/Users/joostbooy/Desktop/Code/stm32/lib/tinyusb/src/common/tusb_fifo.c **** // Must be protected by mutexes since in case of an overflow read pointer gets modified
 414:/Users/joostbooy/Desktop/Code/stm32/lib/tinyusb/src/common/tusb_fifo.c **** static bool _tu_fifo_peek(tu_fifo_t* f, void * p_buffer, uint16_t wr_idx, uint16_t rd_idx)
 415:/Users/joostbooy/Desktop/Code/stm32/lib/tinyusb/src/common/tusb_fifo.c **** {
  30              		.loc 1 415 1 view -0
  31              		.cfi_startproc
  32              		@ args = 0, pretend = 0, frame = 0
  33              		@ frame_needed = 0, uses_anonymous_args = 0
 416:/Users/joostbooy/Desktop/Code/stm32/lib/tinyusb/src/common/tusb_fifo.c ****   uint16_t cnt = _ff_count(f->depth, wr_idx, rd_idx);
  34              		.loc 1 416 3 view .LVU1
 415:/Users/joostbooy/Desktop/Code/stm32/lib/tinyusb/src/common/tusb_fifo.c ****   uint16_t cnt = _ff_count(f->depth, wr_idx, rd_idx);
  35              		.loc 1 415 1 is_stmt 0 view .LVU2
  36 0000 38B5     		push	{r3, r4, r5, lr}
  37              		.cfi_def_cfa_offset 16
  38              		.cfi_offset 3, -16
  39              		.cfi_offset 4, -12
  40              		.cfi_offset 5, -8
ARM GAS  /var/folders/84/_x1cyy_j36g486tldtwl37280000gn/T//cc3kgv9b.s 			page 9


  41              		.cfi_offset 14, -4
  42              		.loc 1 416 18 view .LVU3
  43 0002 8488     		ldrh	r4, [r0, #4]
  44              	.LVL1:
  45              	.LBB150:
  46              	.LBI150:
 324:/Users/joostbooy/Desktop/Code/stm32/lib/tinyusb/src/common/tusb_fifo.c **** {
  47              		.loc 1 324 10 is_stmt 1 view .LVU4
  48              	.LBB151:
 327:/Users/joostbooy/Desktop/Code/stm32/lib/tinyusb/src/common/tusb_fifo.c ****   {
  49              		.loc 1 327 3 view .LVU5
 329:/Users/joostbooy/Desktop/Code/stm32/lib/tinyusb/src/common/tusb_fifo.c ****   } else
  50              		.loc 1 329 12 is_stmt 0 view .LVU6
  51 0004 D51A     		subs	r5, r2, r3
 327:/Users/joostbooy/Desktop/Code/stm32/lib/tinyusb/src/common/tusb_fifo.c ****   {
  52              		.loc 1 327 6 view .LVU7
  53 0006 9A42     		cmp	r2, r3
 329:/Users/joostbooy/Desktop/Code/stm32/lib/tinyusb/src/common/tusb_fifo.c ****   } else
  54              		.loc 1 329 5 is_stmt 1 view .LVU8
 332:/Users/joostbooy/Desktop/Code/stm32/lib/tinyusb/src/common/tusb_fifo.c ****   }
  55              		.loc 1 332 5 view .LVU9
  56              	.LVL2:
 332:/Users/joostbooy/Desktop/Code/stm32/lib/tinyusb/src/common/tusb_fifo.c ****   }
  57              		.loc 1 332 12 is_stmt 0 view .LVU10
  58 0008 38BF     		it	cc
  59 000a 05EB4405 		addcc	r5, r5, r4, lsl #1
  60 000e ADB2     		uxth	r5, r5
  61              	.LVL3:
 332:/Users/joostbooy/Desktop/Code/stm32/lib/tinyusb/src/common/tusb_fifo.c ****   }
  62              		.loc 1 332 12 view .LVU11
  63              	.LBE151:
  64              	.LBE150:
 417:/Users/joostbooy/Desktop/Code/stm32/lib/tinyusb/src/common/tusb_fifo.c **** 
 418:/Users/joostbooy/Desktop/Code/stm32/lib/tinyusb/src/common/tusb_fifo.c ****   // nothing to peek
 419:/Users/joostbooy/Desktop/Code/stm32/lib/tinyusb/src/common/tusb_fifo.c ****   if ( cnt == 0 ) return false;
  65              		.loc 1 419 3 is_stmt 1 view .LVU12
  66              		.loc 1 419 6 is_stmt 0 view .LVU13
  67 0010 C5B1     		cbz	r5, .L10
 420:/Users/joostbooy/Desktop/Code/stm32/lib/tinyusb/src/common/tusb_fifo.c **** 
 421:/Users/joostbooy/Desktop/Code/stm32/lib/tinyusb/src/common/tusb_fifo.c ****   // Check overflow and correct if required
 422:/Users/joostbooy/Desktop/Code/stm32/lib/tinyusb/src/common/tusb_fifo.c ****   if ( cnt > f->depth )
  68              		.loc 1 422 3 is_stmt 1 view .LVU14
  69              		.loc 1 422 6 is_stmt 0 view .LVU15
  70 0012 AC42     		cmp	r4, r5
  71 0014 09D2     		bcs	.L14
 423:/Users/joostbooy/Desktop/Code/stm32/lib/tinyusb/src/common/tusb_fifo.c ****   {
 424:/Users/joostbooy/Desktop/Code/stm32/lib/tinyusb/src/common/tusb_fifo.c ****     rd_idx = _ff_correct_read_index(f, wr_idx);
  72              		.loc 1 424 5 is_stmt 1 view .LVU16
  73              	.LVL4:
  74              	.LBB152:
  75              	.LBI152:
 396:/Users/joostbooy/Desktop/Code/stm32/lib/tinyusb/src/common/tusb_fifo.c **** {
  76              		.loc 1 396 10 view .LVU17
  77              	.LBB153:
 398:/Users/joostbooy/Desktop/Code/stm32/lib/tinyusb/src/common/tusb_fifo.c ****   if ( wr_idx >= f->depth )
  78              		.loc 1 398 3 view .LVU18
 399:/Users/joostbooy/Desktop/Code/stm32/lib/tinyusb/src/common/tusb_fifo.c ****   {
ARM GAS  /var/folders/84/_x1cyy_j36g486tldtwl37280000gn/T//cc3kgv9b.s 			page 10


  79              		.loc 1 399 3 view .LVU19
 399:/Users/joostbooy/Desktop/Code/stm32/lib/tinyusb/src/common/tusb_fifo.c ****   {
  80              		.loc 1 399 6 is_stmt 0 view .LVU20
  81 0016 9442     		cmp	r4, r2
 401:/Users/joostbooy/Desktop/Code/stm32/lib/tinyusb/src/common/tusb_fifo.c ****   }else
  82              		.loc 1 401 5 is_stmt 1 view .LVU21
 401:/Users/joostbooy/Desktop/Code/stm32/lib/tinyusb/src/common/tusb_fifo.c ****   }else
  83              		.loc 1 401 12 is_stmt 0 view .LVU22
  84 0018 94BF     		ite	ls
  85 001a 131B     		subls	r3, r2, r4
  86              	.LVL5:
 404:/Users/joostbooy/Desktop/Code/stm32/lib/tinyusb/src/common/tusb_fifo.c ****   }
  87              		.loc 1 404 5 is_stmt 1 view .LVU23
 404:/Users/joostbooy/Desktop/Code/stm32/lib/tinyusb/src/common/tusb_fifo.c ****   }
  88              		.loc 1 404 12 is_stmt 0 view .LVU24
  89 001c A318     		addhi	r3, r4, r2
  90 001e 9BB2     		uxth	r3, r3
  91              	.LVL6:
 407:/Users/joostbooy/Desktop/Code/stm32/lib/tinyusb/src/common/tusb_fifo.c **** 
  92              		.loc 1 407 3 is_stmt 1 view .LVU25
  93              	.LBE153:
  94              	.LBE152:
  95              	.LBB155:
  96              	.LBB156:
 388:/Users/joostbooy/Desktop/Code/stm32/lib/tinyusb/src/common/tusb_fifo.c ****   return idx;
  97              		.loc 1 388 9 is_stmt 0 view .LVU26
  98 0020 9C42     		cmp	r4, r3
  99              	.LBE156:
 100              	.LBE155:
 101              	.LBB158:
 102              	.LBB154:
 407:/Users/joostbooy/Desktop/Code/stm32/lib/tinyusb/src/common/tusb_fifo.c **** 
 103              		.loc 1 407 13 view .LVU27
 104 0022 4381     		strh	r3, [r0, #10]	@ movhi
 409:/Users/joostbooy/Desktop/Code/stm32/lib/tinyusb/src/common/tusb_fifo.c **** }
 105              		.loc 1 409 3 is_stmt 1 view .LVU28
 106              	.LVL7:
 409:/Users/joostbooy/Desktop/Code/stm32/lib/tinyusb/src/common/tusb_fifo.c **** }
 107              		.loc 1 409 3 is_stmt 0 view .LVU29
 108              	.LBE154:
 109              	.LBE158:
 425:/Users/joostbooy/Desktop/Code/stm32/lib/tinyusb/src/common/tusb_fifo.c ****     cnt = f->depth;
 110              		.loc 1 425 5 is_stmt 1 view .LVU30
 426:/Users/joostbooy/Desktop/Code/stm32/lib/tinyusb/src/common/tusb_fifo.c ****   }
 427:/Users/joostbooy/Desktop/Code/stm32/lib/tinyusb/src/common/tusb_fifo.c **** 
 428:/Users/joostbooy/Desktop/Code/stm32/lib/tinyusb/src/common/tusb_fifo.c ****   uint16_t rd_ptr = idx2ptr(f->depth, rd_idx);
 111              		.loc 1 428 3 view .LVU31
 112              	.LBB159:
 113              	.LBI155:
 385:/Users/joostbooy/Desktop/Code/stm32/lib/tinyusb/src/common/tusb_fifo.c **** {
 114              		.loc 1 385 10 view .LVU32
 115              	.LBB157:
 388:/Users/joostbooy/Desktop/Code/stm32/lib/tinyusb/src/common/tusb_fifo.c ****   return idx;
 116              		.loc 1 388 3 view .LVU33
 388:/Users/joostbooy/Desktop/Code/stm32/lib/tinyusb/src/common/tusb_fifo.c ****   return idx;
 117              		.loc 1 388 9 view .LVU34
 388:/Users/joostbooy/Desktop/Code/stm32/lib/tinyusb/src/common/tusb_fifo.c ****   return idx;
ARM GAS  /var/folders/84/_x1cyy_j36g486tldtwl37280000gn/T//cc3kgv9b.s 			page 11


 118              		.loc 1 388 9 view .LVU35
 119 0024 03D8     		bhi	.L16
 120              	.LVL8:
 121              	.L9:
 388:/Users/joostbooy/Desktop/Code/stm32/lib/tinyusb/src/common/tusb_fifo.c ****   return idx;
 122              		.loc 1 388 26 view .LVU36
 388:/Users/joostbooy/Desktop/Code/stm32/lib/tinyusb/src/common/tusb_fifo.c ****   return idx;
 123              		.loc 1 388 30 is_stmt 0 view .LVU37
 124 0026 1B1B     		subs	r3, r3, r4
 125              	.LVL9:
 388:/Users/joostbooy/Desktop/Code/stm32/lib/tinyusb/src/common/tusb_fifo.c ****   return idx;
 126              		.loc 1 388 30 view .LVU38
 127 0028 9BB2     		uxth	r3, r3
 128              	.L14:
 129              	.LVL10:
 388:/Users/joostbooy/Desktop/Code/stm32/lib/tinyusb/src/common/tusb_fifo.c ****   return idx;
 130              		.loc 1 388 9 is_stmt 1 view .LVU39
 131 002a 9C42     		cmp	r4, r3
 132 002c FBD9     		bls	.L9
 133              	.L16:
 389:/Users/joostbooy/Desktop/Code/stm32/lib/tinyusb/src/common/tusb_fifo.c **** }
 134              		.loc 1 389 3 view .LVU40
 135              	.LVL11:
 389:/Users/joostbooy/Desktop/Code/stm32/lib/tinyusb/src/common/tusb_fifo.c **** }
 136              		.loc 1 389 3 is_stmt 0 view .LVU41
 137              	.LBE157:
 138              	.LBE159:
 429:/Users/joostbooy/Desktop/Code/stm32/lib/tinyusb/src/common/tusb_fifo.c **** 
 430:/Users/joostbooy/Desktop/Code/stm32/lib/tinyusb/src/common/tusb_fifo.c ****   // Peek data
 431:/Users/joostbooy/Desktop/Code/stm32/lib/tinyusb/src/common/tusb_fifo.c ****   _ff_pull(f, p_buffer, rd_ptr);
 139              		.loc 1 431 3 is_stmt 1 view .LVU42
 140              	.LBB160:
 141              	.LBI160:
 231:/Users/joostbooy/Desktop/Code/stm32/lib/tinyusb/src/common/tusb_fifo.c **** {
 142              		.loc 1 231 20 view .LVU43
 143              	.LBB161:
 233:/Users/joostbooy/Desktop/Code/stm32/lib/tinyusb/src/common/tusb_fifo.c **** }
 144              		.loc 1 233 3 view .LVU44
 233:/Users/joostbooy/Desktop/Code/stm32/lib/tinyusb/src/common/tusb_fifo.c **** }
 145              		.loc 1 233 39 is_stmt 0 view .LVU45
 146 002e C288     		ldrh	r2, [r0, #6]
 147              	.LVL12:
 233:/Users/joostbooy/Desktop/Code/stm32/lib/tinyusb/src/common/tusb_fifo.c **** }
 148              		.loc 1 233 29 view .LVU46
 149 0030 0468     		ldr	r4, [r0]
 233:/Users/joostbooy/Desktop/Code/stm32/lib/tinyusb/src/common/tusb_fifo.c **** }
 150              		.loc 1 233 39 view .LVU47
 151 0032 C2F30E02 		ubfx	r2, r2, #0, #15
 233:/Users/joostbooy/Desktop/Code/stm32/lib/tinyusb/src/common/tusb_fifo.c **** }
 152              		.loc 1 233 3 view .LVU48
 153 0036 0846     		mov	r0, r1
 154              	.LVL13:
 233:/Users/joostbooy/Desktop/Code/stm32/lib/tinyusb/src/common/tusb_fifo.c **** }
 155              		.loc 1 233 3 view .LVU49
 156 0038 02FB0341 		mla	r1, r2, r3, r4
 157              	.LVL14:
 233:/Users/joostbooy/Desktop/Code/stm32/lib/tinyusb/src/common/tusb_fifo.c **** }
ARM GAS  /var/folders/84/_x1cyy_j36g486tldtwl37280000gn/T//cc3kgv9b.s 			page 12


 158              		.loc 1 233 3 view .LVU50
 159 003c FFF7FEFF 		bl	memcpy
 160              	.LVL15:
 233:/Users/joostbooy/Desktop/Code/stm32/lib/tinyusb/src/common/tusb_fifo.c **** }
 161              		.loc 1 233 3 view .LVU51
 162              	.LBE161:
 163              	.LBE160:
 432:/Users/joostbooy/Desktop/Code/stm32/lib/tinyusb/src/common/tusb_fifo.c **** 
 433:/Users/joostbooy/Desktop/Code/stm32/lib/tinyusb/src/common/tusb_fifo.c ****   return true;
 164              		.loc 1 433 3 is_stmt 1 view .LVU52
 165              		.loc 1 433 10 is_stmt 0 view .LVU53
 166 0040 0120     		movs	r0, #1
 434:/Users/joostbooy/Desktop/Code/stm32/lib/tinyusb/src/common/tusb_fifo.c **** }
 167              		.loc 1 434 1 view .LVU54
 168 0042 38BD     		pop	{r3, r4, r5, pc}
 169              	.LVL16:
 170              	.L10:
 419:/Users/joostbooy/Desktop/Code/stm32/lib/tinyusb/src/common/tusb_fifo.c **** 
 171              		.loc 1 419 26 view .LVU55
 172 0044 2846     		mov	r0, r5
 173              	.LVL17:
 174              		.loc 1 434 1 view .LVU56
 175 0046 38BD     		pop	{r3, r4, r5, pc}
 176              		.loc 1 434 1 view .LVU57
 177              		.cfi_endproc
 178              	.LFE70:
 180              		.section	.text._ff_pull_const_addr,"ax",%progbits
 181              		.align	1
 182              		.p2align 2,,3
 183              		.syntax unified
 184              		.thumb
 185              		.thumb_func
 186              		.fpu fpv4-sp-d16
 188              	_ff_pull_const_addr:
 189              	.LVL18:
 190              	.LFB60:
 122:/Users/joostbooy/Desktop/Code/stm32/lib/tinyusb/src/common/tusb_fifo.c ****   volatile uint32_t * reg_tx = (volatile uint32_t *) app_buf;
 191              		.loc 1 122 1 is_stmt 1 view -0
 192              		.cfi_startproc
 193              		@ args = 0, pretend = 0, frame = 8
 194              		@ frame_needed = 0, uses_anonymous_args = 0
 122:/Users/joostbooy/Desktop/Code/stm32/lib/tinyusb/src/common/tusb_fifo.c ****   volatile uint32_t * reg_tx = (volatile uint32_t *) app_buf;
 195              		.loc 1 122 1 is_stmt 0 view .LVU59
 196 0000 30B5     		push	{r4, r5, lr}
 197              		.cfi_def_cfa_offset 12
 198              		.cfi_offset 4, -12
 199              		.cfi_offset 5, -8
 200              		.cfi_offset 14, -4
 126:/Users/joostbooy/Desktop/Code/stm32/lib/tinyusb/src/common/tusb_fifo.c ****   while(full_words--)
 201              		.loc 1 126 12 view .LVU60
 202 0002 9508     		lsrs	r5, r2, #2
 122:/Users/joostbooy/Desktop/Code/stm32/lib/tinyusb/src/common/tusb_fifo.c ****   volatile uint32_t * reg_tx = (volatile uint32_t *) app_buf;
 203              		.loc 1 122 1 view .LVU61
 204 0004 83B0     		sub	sp, sp, #12
 205              		.cfi_def_cfa_offset 24
 122:/Users/joostbooy/Desktop/Code/stm32/lib/tinyusb/src/common/tusb_fifo.c ****   volatile uint32_t * reg_tx = (volatile uint32_t *) app_buf;
 206              		.loc 1 122 1 view .LVU62
ARM GAS  /var/folders/84/_x1cyy_j36g486tldtwl37280000gn/T//cc3kgv9b.s 			page 13


 207 0006 0446     		mov	r4, r0
 123:/Users/joostbooy/Desktop/Code/stm32/lib/tinyusb/src/common/tusb_fifo.c **** 
 208              		.loc 1 123 3 is_stmt 1 view .LVU63
 209              	.LVL19:
 126:/Users/joostbooy/Desktop/Code/stm32/lib/tinyusb/src/common/tusb_fifo.c ****   while(full_words--)
 210              		.loc 1 126 3 view .LVU64
 127:/Users/joostbooy/Desktop/Code/stm32/lib/tinyusb/src/common/tusb_fifo.c ****   {
 211              		.loc 1 127 3 view .LVU65
 127:/Users/joostbooy/Desktop/Code/stm32/lib/tinyusb/src/common/tusb_fifo.c ****   {
 212              		.loc 1 127 8 view .LVU66
 127:/Users/joostbooy/Desktop/Code/stm32/lib/tinyusb/src/common/tusb_fifo.c ****   {
 213              		.loc 1 127 8 is_stmt 0 view .LVU67
 214 0008 002D     		cmp	r5, #0
 215 000a 5AD0     		beq	.L21
 216 000c 6B1E     		subs	r3, r5, #1
 217 000e 9DB2     		uxth	r5, r3
 218              	.LVL20:
 127:/Users/joostbooy/Desktop/Code/stm32/lib/tinyusb/src/common/tusb_fifo.c ****   {
 219              		.loc 1 127 8 view .LVU68
 220 0010 0135     		adds	r5, r5, #1
 221 0012 A800     		lsls	r0, r5, #2
 222              	.LVL21:
 127:/Users/joostbooy/Desktop/Code/stm32/lib/tinyusb/src/common/tusb_fifo.c ****   {
 223              		.loc 1 127 8 view .LVU69
 224 0014 031F     		subs	r3, r0, #4
 225              	.LVL22:
 127:/Users/joostbooy/Desktop/Code/stm32/lib/tinyusb/src/common/tusb_fifo.c ****   {
 226              		.loc 1 127 8 view .LVU70
 227 0016 9B08     		lsrs	r3, r3, #2
 228 0018 0133     		adds	r3, r3, #1
 229 001a 01EB8500 		add	r0, r1, r5, lsl #2
 230 001e 13F00705 		ands	r5, r3, #7
 231 0022 1FD0     		beq	.L19
 232 0024 012D     		cmp	r5, #1
 233 0026 18D0     		beq	.L46
 234 0028 022D     		cmp	r5, #2
 235 002a 13D0     		beq	.L47
 236 002c 032D     		cmp	r5, #3
 237 002e 0ED0     		beq	.L48
 238 0030 042D     		cmp	r5, #4
 239 0032 09D0     		beq	.L49
 240 0034 052D     		cmp	r5, #5
 241 0036 04D0     		beq	.L50
 242 0038 062D     		cmp	r5, #6
 243 003a 3ED1     		bne	.L62
 244              	.LVL23:
 245              	.L51:
 129:/Users/joostbooy/Desktop/Code/stm32/lib/tinyusb/src/common/tusb_fifo.c ****     ff_buf += 4;
 246              		.loc 1 129 5 is_stmt 1 view .LVU71
 247              	.LBB162:
 248              	.LBI162:
 249              		.file 2 "/Users/joostbooy/Desktop/Code/stm32/lib/tinyusb/src/common/tusb_common.h"
   1:/Users/joostbooy/Desktop/Code/stm32/lib/tinyusb/src/common/tusb_common.h **** /*
   2:/Users/joostbooy/Desktop/Code/stm32/lib/tinyusb/src/common/tusb_common.h ****  * The MIT License (MIT)
   3:/Users/joostbooy/Desktop/Code/stm32/lib/tinyusb/src/common/tusb_common.h ****  *
   4:/Users/joostbooy/Desktop/Code/stm32/lib/tinyusb/src/common/tusb_common.h ****  * Copyright (c) 2019 Ha Thach (tinyusb.org)
   5:/Users/joostbooy/Desktop/Code/stm32/lib/tinyusb/src/common/tusb_common.h ****  *
ARM GAS  /var/folders/84/_x1cyy_j36g486tldtwl37280000gn/T//cc3kgv9b.s 			page 14


   6:/Users/joostbooy/Desktop/Code/stm32/lib/tinyusb/src/common/tusb_common.h ****  * Permission is hereby granted, free of charge, to any person obtaining a copy
   7:/Users/joostbooy/Desktop/Code/stm32/lib/tinyusb/src/common/tusb_common.h ****  * of this software and associated documentation files (the "Software"), to deal
   8:/Users/joostbooy/Desktop/Code/stm32/lib/tinyusb/src/common/tusb_common.h ****  * in the Software without restriction, including without limitation the rights
   9:/Users/joostbooy/Desktop/Code/stm32/lib/tinyusb/src/common/tusb_common.h ****  * to use, copy, modify, merge, publish, distribute, sublicense, and/or sell
  10:/Users/joostbooy/Desktop/Code/stm32/lib/tinyusb/src/common/tusb_common.h ****  * copies of the Software, and to permit persons to whom the Software is
  11:/Users/joostbooy/Desktop/Code/stm32/lib/tinyusb/src/common/tusb_common.h ****  * furnished to do so, subject to the following conditions:
  12:/Users/joostbooy/Desktop/Code/stm32/lib/tinyusb/src/common/tusb_common.h ****  *
  13:/Users/joostbooy/Desktop/Code/stm32/lib/tinyusb/src/common/tusb_common.h ****  * The above copyright notice and this permission notice shall be included in
  14:/Users/joostbooy/Desktop/Code/stm32/lib/tinyusb/src/common/tusb_common.h ****  * all copies or substantial portions of the Software.
  15:/Users/joostbooy/Desktop/Code/stm32/lib/tinyusb/src/common/tusb_common.h ****  *
  16:/Users/joostbooy/Desktop/Code/stm32/lib/tinyusb/src/common/tusb_common.h ****  * THE SOFTWARE IS PROVIDED "AS IS", WITHOUT WARRANTY OF ANY KIND, EXPRESS OR
  17:/Users/joostbooy/Desktop/Code/stm32/lib/tinyusb/src/common/tusb_common.h ****  * IMPLIED, INCLUDING BUT NOT LIMITED TO THE WARRANTIES OF MERCHANTABILITY,
  18:/Users/joostbooy/Desktop/Code/stm32/lib/tinyusb/src/common/tusb_common.h ****  * FITNESS FOR A PARTICULAR PURPOSE AND NONINFRINGEMENT. IN NO EVENT SHALL THE
  19:/Users/joostbooy/Desktop/Code/stm32/lib/tinyusb/src/common/tusb_common.h ****  * AUTHORS OR COPYRIGHT HOLDERS BE LIABLE FOR ANY CLAIM, DAMAGES OR OTHER
  20:/Users/joostbooy/Desktop/Code/stm32/lib/tinyusb/src/common/tusb_common.h ****  * LIABILITY, WHETHER IN AN ACTION OF CONTRACT, TORT OR OTHERWISE, ARISING FROM,
  21:/Users/joostbooy/Desktop/Code/stm32/lib/tinyusb/src/common/tusb_common.h ****  * OUT OF OR IN CONNECTION WITH THE SOFTWARE OR THE USE OR OTHER DEALINGS IN
  22:/Users/joostbooy/Desktop/Code/stm32/lib/tinyusb/src/common/tusb_common.h ****  * THE SOFTWARE.
  23:/Users/joostbooy/Desktop/Code/stm32/lib/tinyusb/src/common/tusb_common.h ****  *
  24:/Users/joostbooy/Desktop/Code/stm32/lib/tinyusb/src/common/tusb_common.h ****  * This file is part of the TinyUSB stack.
  25:/Users/joostbooy/Desktop/Code/stm32/lib/tinyusb/src/common/tusb_common.h ****  */
  26:/Users/joostbooy/Desktop/Code/stm32/lib/tinyusb/src/common/tusb_common.h **** 
  27:/Users/joostbooy/Desktop/Code/stm32/lib/tinyusb/src/common/tusb_common.h **** #ifndef _TUSB_COMMON_H_
  28:/Users/joostbooy/Desktop/Code/stm32/lib/tinyusb/src/common/tusb_common.h **** #define _TUSB_COMMON_H_
  29:/Users/joostbooy/Desktop/Code/stm32/lib/tinyusb/src/common/tusb_common.h **** 
  30:/Users/joostbooy/Desktop/Code/stm32/lib/tinyusb/src/common/tusb_common.h **** #ifdef __cplusplus
  31:/Users/joostbooy/Desktop/Code/stm32/lib/tinyusb/src/common/tusb_common.h ****  extern "C" {
  32:/Users/joostbooy/Desktop/Code/stm32/lib/tinyusb/src/common/tusb_common.h **** #endif
  33:/Users/joostbooy/Desktop/Code/stm32/lib/tinyusb/src/common/tusb_common.h **** 
  34:/Users/joostbooy/Desktop/Code/stm32/lib/tinyusb/src/common/tusb_common.h **** //--------------------------------------------------------------------+
  35:/Users/joostbooy/Desktop/Code/stm32/lib/tinyusb/src/common/tusb_common.h **** // Macros Helper
  36:/Users/joostbooy/Desktop/Code/stm32/lib/tinyusb/src/common/tusb_common.h **** //--------------------------------------------------------------------+
  37:/Users/joostbooy/Desktop/Code/stm32/lib/tinyusb/src/common/tusb_common.h **** #define TU_ARRAY_SIZE(_arr)   ( sizeof(_arr) / sizeof(_arr[0]) )
  38:/Users/joostbooy/Desktop/Code/stm32/lib/tinyusb/src/common/tusb_common.h **** #define TU_MIN(_x, _y)        ( ( (_x) < (_y) ) ? (_x) : (_y) )
  39:/Users/joostbooy/Desktop/Code/stm32/lib/tinyusb/src/common/tusb_common.h **** #define TU_MAX(_x, _y)        ( ( (_x) > (_y) ) ? (_x) : (_y) )
  40:/Users/joostbooy/Desktop/Code/stm32/lib/tinyusb/src/common/tusb_common.h **** 
  41:/Users/joostbooy/Desktop/Code/stm32/lib/tinyusb/src/common/tusb_common.h **** #define TU_U16(_high, _low)   ((uint16_t) (((_high) << 8) | (_low)))
  42:/Users/joostbooy/Desktop/Code/stm32/lib/tinyusb/src/common/tusb_common.h **** #define TU_U16_HIGH(_u16)     ((uint8_t) (((_u16) >> 8) & 0x00ff))
  43:/Users/joostbooy/Desktop/Code/stm32/lib/tinyusb/src/common/tusb_common.h **** #define TU_U16_LOW(_u16)      ((uint8_t) ((_u16)       & 0x00ff))
  44:/Users/joostbooy/Desktop/Code/stm32/lib/tinyusb/src/common/tusb_common.h **** #define U16_TO_U8S_BE(_u16)   TU_U16_HIGH(_u16), TU_U16_LOW(_u16)
  45:/Users/joostbooy/Desktop/Code/stm32/lib/tinyusb/src/common/tusb_common.h **** #define U16_TO_U8S_LE(_u16)   TU_U16_LOW(_u16), TU_U16_HIGH(_u16)
  46:/Users/joostbooy/Desktop/Code/stm32/lib/tinyusb/src/common/tusb_common.h **** 
  47:/Users/joostbooy/Desktop/Code/stm32/lib/tinyusb/src/common/tusb_common.h **** #define TU_U32_BYTE3(_u32)    ((uint8_t) ((((uint32_t) _u32) >> 24) & 0x000000ff)) // MSB
  48:/Users/joostbooy/Desktop/Code/stm32/lib/tinyusb/src/common/tusb_common.h **** #define TU_U32_BYTE2(_u32)    ((uint8_t) ((((uint32_t) _u32) >> 16) & 0x000000ff))
  49:/Users/joostbooy/Desktop/Code/stm32/lib/tinyusb/src/common/tusb_common.h **** #define TU_U32_BYTE1(_u32)    ((uint8_t) ((((uint32_t) _u32) >>  8) & 0x000000ff))
  50:/Users/joostbooy/Desktop/Code/stm32/lib/tinyusb/src/common/tusb_common.h **** #define TU_U32_BYTE0(_u32)    ((uint8_t) (((uint32_t)  _u32)        & 0x000000ff)) // LSB
  51:/Users/joostbooy/Desktop/Code/stm32/lib/tinyusb/src/common/tusb_common.h **** 
  52:/Users/joostbooy/Desktop/Code/stm32/lib/tinyusb/src/common/tusb_common.h **** #define U32_TO_U8S_BE(_u32)   TU_U32_BYTE3(_u32), TU_U32_BYTE2(_u32), TU_U32_BYTE1(_u32), TU_U32_BY
  53:/Users/joostbooy/Desktop/Code/stm32/lib/tinyusb/src/common/tusb_common.h **** #define U32_TO_U8S_LE(_u32)   TU_U32_BYTE0(_u32), TU_U32_BYTE1(_u32), TU_U32_BYTE2(_u32), TU_U32_BY
  54:/Users/joostbooy/Desktop/Code/stm32/lib/tinyusb/src/common/tusb_common.h **** 
  55:/Users/joostbooy/Desktop/Code/stm32/lib/tinyusb/src/common/tusb_common.h **** #define TU_BIT(n)             (1UL << (n))
  56:/Users/joostbooy/Desktop/Code/stm32/lib/tinyusb/src/common/tusb_common.h **** 
  57:/Users/joostbooy/Desktop/Code/stm32/lib/tinyusb/src/common/tusb_common.h **** // Generate a mask with bit from high (31) to low (0) set, e.g TU_GENMASK(3, 0) = 0b1111
  58:/Users/joostbooy/Desktop/Code/stm32/lib/tinyusb/src/common/tusb_common.h **** #define TU_GENMASK(h, l)      ( (UINT32_MAX << (l)) & (UINT32_MAX >> (31 - (h))) )
  59:/Users/joostbooy/Desktop/Code/stm32/lib/tinyusb/src/common/tusb_common.h **** 
  60:/Users/joostbooy/Desktop/Code/stm32/lib/tinyusb/src/common/tusb_common.h **** //--------------------------------------------------------------------+
  61:/Users/joostbooy/Desktop/Code/stm32/lib/tinyusb/src/common/tusb_common.h **** // Includes
  62:/Users/joostbooy/Desktop/Code/stm32/lib/tinyusb/src/common/tusb_common.h **** //--------------------------------------------------------------------+
ARM GAS  /var/folders/84/_x1cyy_j36g486tldtwl37280000gn/T//cc3kgv9b.s 			page 15


  63:/Users/joostbooy/Desktop/Code/stm32/lib/tinyusb/src/common/tusb_common.h **** 
  64:/Users/joostbooy/Desktop/Code/stm32/lib/tinyusb/src/common/tusb_common.h **** // Standard Headers
  65:/Users/joostbooy/Desktop/Code/stm32/lib/tinyusb/src/common/tusb_common.h **** #include <stdbool.h>
  66:/Users/joostbooy/Desktop/Code/stm32/lib/tinyusb/src/common/tusb_common.h **** #include <stdint.h>
  67:/Users/joostbooy/Desktop/Code/stm32/lib/tinyusb/src/common/tusb_common.h **** #include <stddef.h>
  68:/Users/joostbooy/Desktop/Code/stm32/lib/tinyusb/src/common/tusb_common.h **** #include <string.h>
  69:/Users/joostbooy/Desktop/Code/stm32/lib/tinyusb/src/common/tusb_common.h **** #include <stdio.h>
  70:/Users/joostbooy/Desktop/Code/stm32/lib/tinyusb/src/common/tusb_common.h **** 
  71:/Users/joostbooy/Desktop/Code/stm32/lib/tinyusb/src/common/tusb_common.h **** // Tinyusb Common Headers
  72:/Users/joostbooy/Desktop/Code/stm32/lib/tinyusb/src/common/tusb_common.h **** #include "tusb_option.h"
  73:/Users/joostbooy/Desktop/Code/stm32/lib/tinyusb/src/common/tusb_common.h **** #include "tusb_compiler.h"
  74:/Users/joostbooy/Desktop/Code/stm32/lib/tinyusb/src/common/tusb_common.h **** #include "tusb_verify.h"
  75:/Users/joostbooy/Desktop/Code/stm32/lib/tinyusb/src/common/tusb_common.h **** #include "tusb_types.h"
  76:/Users/joostbooy/Desktop/Code/stm32/lib/tinyusb/src/common/tusb_common.h **** #include "tusb_debug.h"
  77:/Users/joostbooy/Desktop/Code/stm32/lib/tinyusb/src/common/tusb_common.h **** 
  78:/Users/joostbooy/Desktop/Code/stm32/lib/tinyusb/src/common/tusb_common.h **** //--------------------------------------------------------------------+
  79:/Users/joostbooy/Desktop/Code/stm32/lib/tinyusb/src/common/tusb_common.h **** // Optional API implemented by application if needed
  80:/Users/joostbooy/Desktop/Code/stm32/lib/tinyusb/src/common/tusb_common.h **** // TODO move to a more ovious place/file
  81:/Users/joostbooy/Desktop/Code/stm32/lib/tinyusb/src/common/tusb_common.h **** //--------------------------------------------------------------------+
  82:/Users/joostbooy/Desktop/Code/stm32/lib/tinyusb/src/common/tusb_common.h **** 
  83:/Users/joostbooy/Desktop/Code/stm32/lib/tinyusb/src/common/tusb_common.h **** // flush data cache
  84:/Users/joostbooy/Desktop/Code/stm32/lib/tinyusb/src/common/tusb_common.h **** TU_ATTR_WEAK extern void tusb_app_dcache_flush(uintptr_t addr, uint32_t data_size);
  85:/Users/joostbooy/Desktop/Code/stm32/lib/tinyusb/src/common/tusb_common.h **** 
  86:/Users/joostbooy/Desktop/Code/stm32/lib/tinyusb/src/common/tusb_common.h **** // invalidate data cache
  87:/Users/joostbooy/Desktop/Code/stm32/lib/tinyusb/src/common/tusb_common.h **** TU_ATTR_WEAK extern void tusb_app_dcache_invalidate(uintptr_t addr, uint32_t data_size);
  88:/Users/joostbooy/Desktop/Code/stm32/lib/tinyusb/src/common/tusb_common.h **** 
  89:/Users/joostbooy/Desktop/Code/stm32/lib/tinyusb/src/common/tusb_common.h **** // Optional physical <-> virtual address translation
  90:/Users/joostbooy/Desktop/Code/stm32/lib/tinyusb/src/common/tusb_common.h **** TU_ATTR_WEAK extern void* tusb_app_virt_to_phys(void *virt_addr);
  91:/Users/joostbooy/Desktop/Code/stm32/lib/tinyusb/src/common/tusb_common.h **** TU_ATTR_WEAK extern void* tusb_app_phys_to_virt(void *phys_addr);
  92:/Users/joostbooy/Desktop/Code/stm32/lib/tinyusb/src/common/tusb_common.h **** 
  93:/Users/joostbooy/Desktop/Code/stm32/lib/tinyusb/src/common/tusb_common.h **** //--------------------------------------------------------------------+
  94:/Users/joostbooy/Desktop/Code/stm32/lib/tinyusb/src/common/tusb_common.h **** // Internal Inline Functions
  95:/Users/joostbooy/Desktop/Code/stm32/lib/tinyusb/src/common/tusb_common.h **** //--------------------------------------------------------------------+
  96:/Users/joostbooy/Desktop/Code/stm32/lib/tinyusb/src/common/tusb_common.h **** 
  97:/Users/joostbooy/Desktop/Code/stm32/lib/tinyusb/src/common/tusb_common.h **** //------------- Mem -------------//
  98:/Users/joostbooy/Desktop/Code/stm32/lib/tinyusb/src/common/tusb_common.h **** #define tu_memclr(buffer, size)  memset((buffer), 0, (size))
  99:/Users/joostbooy/Desktop/Code/stm32/lib/tinyusb/src/common/tusb_common.h **** #define tu_varclr(_var)          tu_memclr(_var, sizeof(*(_var)))
 100:/Users/joostbooy/Desktop/Code/stm32/lib/tinyusb/src/common/tusb_common.h **** 
 101:/Users/joostbooy/Desktop/Code/stm32/lib/tinyusb/src/common/tusb_common.h **** // This is a backport of memset_s from c11
 102:/Users/joostbooy/Desktop/Code/stm32/lib/tinyusb/src/common/tusb_common.h **** TU_ATTR_ALWAYS_INLINE static inline int tu_memset_s(void *dest, size_t destsz, int ch, size_t count
 103:/Users/joostbooy/Desktop/Code/stm32/lib/tinyusb/src/common/tusb_common.h ****   // TODO may check if desst and src is not NULL
 104:/Users/joostbooy/Desktop/Code/stm32/lib/tinyusb/src/common/tusb_common.h ****   if ( count > destsz ) {
 105:/Users/joostbooy/Desktop/Code/stm32/lib/tinyusb/src/common/tusb_common.h ****     return -1;
 106:/Users/joostbooy/Desktop/Code/stm32/lib/tinyusb/src/common/tusb_common.h ****   }
 107:/Users/joostbooy/Desktop/Code/stm32/lib/tinyusb/src/common/tusb_common.h ****   memset(dest, ch, count);
 108:/Users/joostbooy/Desktop/Code/stm32/lib/tinyusb/src/common/tusb_common.h ****   return 0;
 109:/Users/joostbooy/Desktop/Code/stm32/lib/tinyusb/src/common/tusb_common.h **** }
 110:/Users/joostbooy/Desktop/Code/stm32/lib/tinyusb/src/common/tusb_common.h **** 
 111:/Users/joostbooy/Desktop/Code/stm32/lib/tinyusb/src/common/tusb_common.h **** // This is a backport of memcpy_s from c11
 112:/Users/joostbooy/Desktop/Code/stm32/lib/tinyusb/src/common/tusb_common.h **** TU_ATTR_ALWAYS_INLINE static inline int tu_memcpy_s(void *dest, size_t destsz, const void *src, siz
 113:/Users/joostbooy/Desktop/Code/stm32/lib/tinyusb/src/common/tusb_common.h ****   // TODO may check if desst and src is not NULL
 114:/Users/joostbooy/Desktop/Code/stm32/lib/tinyusb/src/common/tusb_common.h ****   if ( count > destsz ) {
 115:/Users/joostbooy/Desktop/Code/stm32/lib/tinyusb/src/common/tusb_common.h ****     return -1;
 116:/Users/joostbooy/Desktop/Code/stm32/lib/tinyusb/src/common/tusb_common.h ****   }
 117:/Users/joostbooy/Desktop/Code/stm32/lib/tinyusb/src/common/tusb_common.h ****   memcpy(dest, src, count);
 118:/Users/joostbooy/Desktop/Code/stm32/lib/tinyusb/src/common/tusb_common.h ****   return 0;
 119:/Users/joostbooy/Desktop/Code/stm32/lib/tinyusb/src/common/tusb_common.h **** }
ARM GAS  /var/folders/84/_x1cyy_j36g486tldtwl37280000gn/T//cc3kgv9b.s 			page 16


 120:/Users/joostbooy/Desktop/Code/stm32/lib/tinyusb/src/common/tusb_common.h **** 
 121:/Users/joostbooy/Desktop/Code/stm32/lib/tinyusb/src/common/tusb_common.h **** 
 122:/Users/joostbooy/Desktop/Code/stm32/lib/tinyusb/src/common/tusb_common.h **** //------------- Bytes -------------//
 123:/Users/joostbooy/Desktop/Code/stm32/lib/tinyusb/src/common/tusb_common.h **** TU_ATTR_ALWAYS_INLINE static inline uint32_t tu_u32(uint8_t b3, uint8_t b2, uint8_t b1, uint8_t b0)
 124:/Users/joostbooy/Desktop/Code/stm32/lib/tinyusb/src/common/tusb_common.h ****   return ( ((uint32_t) b3) << 24) | ( ((uint32_t) b2) << 16) | ( ((uint32_t) b1) << 8) | b0;
 125:/Users/joostbooy/Desktop/Code/stm32/lib/tinyusb/src/common/tusb_common.h **** }
 126:/Users/joostbooy/Desktop/Code/stm32/lib/tinyusb/src/common/tusb_common.h **** 
 127:/Users/joostbooy/Desktop/Code/stm32/lib/tinyusb/src/common/tusb_common.h **** TU_ATTR_ALWAYS_INLINE static inline uint16_t tu_u16(uint8_t high, uint8_t low) {
 128:/Users/joostbooy/Desktop/Code/stm32/lib/tinyusb/src/common/tusb_common.h ****   return (uint16_t) ((((uint16_t) high) << 8) | low);
 129:/Users/joostbooy/Desktop/Code/stm32/lib/tinyusb/src/common/tusb_common.h **** }
 130:/Users/joostbooy/Desktop/Code/stm32/lib/tinyusb/src/common/tusb_common.h **** 
 131:/Users/joostbooy/Desktop/Code/stm32/lib/tinyusb/src/common/tusb_common.h **** TU_ATTR_ALWAYS_INLINE static inline uint8_t tu_u32_byte3(uint32_t ui32) { return TU_U32_BYTE3(ui32)
 132:/Users/joostbooy/Desktop/Code/stm32/lib/tinyusb/src/common/tusb_common.h **** TU_ATTR_ALWAYS_INLINE static inline uint8_t tu_u32_byte2(uint32_t ui32) { return TU_U32_BYTE2(ui32)
 133:/Users/joostbooy/Desktop/Code/stm32/lib/tinyusb/src/common/tusb_common.h **** TU_ATTR_ALWAYS_INLINE static inline uint8_t tu_u32_byte1(uint32_t ui32) { return TU_U32_BYTE1(ui32)
 134:/Users/joostbooy/Desktop/Code/stm32/lib/tinyusb/src/common/tusb_common.h **** TU_ATTR_ALWAYS_INLINE static inline uint8_t tu_u32_byte0(uint32_t ui32) { return TU_U32_BYTE0(ui32)
 135:/Users/joostbooy/Desktop/Code/stm32/lib/tinyusb/src/common/tusb_common.h **** 
 136:/Users/joostbooy/Desktop/Code/stm32/lib/tinyusb/src/common/tusb_common.h **** TU_ATTR_ALWAYS_INLINE static inline uint16_t tu_u32_high16(uint32_t ui32) { return (uint16_t) (ui32
 137:/Users/joostbooy/Desktop/Code/stm32/lib/tinyusb/src/common/tusb_common.h **** TU_ATTR_ALWAYS_INLINE static inline uint16_t tu_u32_low16 (uint32_t ui32) { return (uint16_t) (ui32
 138:/Users/joostbooy/Desktop/Code/stm32/lib/tinyusb/src/common/tusb_common.h **** 
 139:/Users/joostbooy/Desktop/Code/stm32/lib/tinyusb/src/common/tusb_common.h **** TU_ATTR_ALWAYS_INLINE static inline uint8_t tu_u16_high(uint16_t ui16) { return TU_U16_HIGH(ui16); 
 140:/Users/joostbooy/Desktop/Code/stm32/lib/tinyusb/src/common/tusb_common.h **** TU_ATTR_ALWAYS_INLINE static inline uint8_t tu_u16_low (uint16_t ui16) { return TU_U16_LOW(ui16); }
 141:/Users/joostbooy/Desktop/Code/stm32/lib/tinyusb/src/common/tusb_common.h **** 
 142:/Users/joostbooy/Desktop/Code/stm32/lib/tinyusb/src/common/tusb_common.h **** //------------- Bits -------------//
 143:/Users/joostbooy/Desktop/Code/stm32/lib/tinyusb/src/common/tusb_common.h **** TU_ATTR_ALWAYS_INLINE static inline uint32_t tu_bit_set  (uint32_t value, uint8_t pos) { return val
 144:/Users/joostbooy/Desktop/Code/stm32/lib/tinyusb/src/common/tusb_common.h **** TU_ATTR_ALWAYS_INLINE static inline uint32_t tu_bit_clear(uint32_t value, uint8_t pos) { return val
 145:/Users/joostbooy/Desktop/Code/stm32/lib/tinyusb/src/common/tusb_common.h **** TU_ATTR_ALWAYS_INLINE static inline bool     tu_bit_test (uint32_t value, uint8_t pos) { return (va
 146:/Users/joostbooy/Desktop/Code/stm32/lib/tinyusb/src/common/tusb_common.h **** 
 147:/Users/joostbooy/Desktop/Code/stm32/lib/tinyusb/src/common/tusb_common.h **** //------------- Min -------------//
 148:/Users/joostbooy/Desktop/Code/stm32/lib/tinyusb/src/common/tusb_common.h **** TU_ATTR_ALWAYS_INLINE static inline uint8_t  tu_min8  (uint8_t  x, uint8_t y ) { return (x < y) ? x
 149:/Users/joostbooy/Desktop/Code/stm32/lib/tinyusb/src/common/tusb_common.h **** TU_ATTR_ALWAYS_INLINE static inline uint16_t tu_min16 (uint16_t x, uint16_t y) { return (x < y) ? x
 150:/Users/joostbooy/Desktop/Code/stm32/lib/tinyusb/src/common/tusb_common.h **** TU_ATTR_ALWAYS_INLINE static inline uint32_t tu_min32 (uint32_t x, uint32_t y) { return (x < y) ? x
 151:/Users/joostbooy/Desktop/Code/stm32/lib/tinyusb/src/common/tusb_common.h **** 
 152:/Users/joostbooy/Desktop/Code/stm32/lib/tinyusb/src/common/tusb_common.h **** //------------- Max -------------//
 153:/Users/joostbooy/Desktop/Code/stm32/lib/tinyusb/src/common/tusb_common.h **** TU_ATTR_ALWAYS_INLINE static inline uint8_t  tu_max8  (uint8_t  x, uint8_t y ) { return (x > y) ? x
 154:/Users/joostbooy/Desktop/Code/stm32/lib/tinyusb/src/common/tusb_common.h **** TU_ATTR_ALWAYS_INLINE static inline uint16_t tu_max16 (uint16_t x, uint16_t y) { return (x > y) ? x
 155:/Users/joostbooy/Desktop/Code/stm32/lib/tinyusb/src/common/tusb_common.h **** TU_ATTR_ALWAYS_INLINE static inline uint32_t tu_max32 (uint32_t x, uint32_t y) { return (x > y) ? x
 156:/Users/joostbooy/Desktop/Code/stm32/lib/tinyusb/src/common/tusb_common.h **** 
 157:/Users/joostbooy/Desktop/Code/stm32/lib/tinyusb/src/common/tusb_common.h **** //------------- Align -------------//
 158:/Users/joostbooy/Desktop/Code/stm32/lib/tinyusb/src/common/tusb_common.h **** TU_ATTR_ALWAYS_INLINE static inline uint32_t tu_align(uint32_t value, uint32_t alignment) {
 159:/Users/joostbooy/Desktop/Code/stm32/lib/tinyusb/src/common/tusb_common.h ****   return value & ((uint32_t) ~(alignment-1));
 160:/Users/joostbooy/Desktop/Code/stm32/lib/tinyusb/src/common/tusb_common.h **** }
 161:/Users/joostbooy/Desktop/Code/stm32/lib/tinyusb/src/common/tusb_common.h **** 
 162:/Users/joostbooy/Desktop/Code/stm32/lib/tinyusb/src/common/tusb_common.h **** TU_ATTR_ALWAYS_INLINE static inline uint32_t tu_align4  (uint32_t value) { return (value & 0xFFFFFF
 163:/Users/joostbooy/Desktop/Code/stm32/lib/tinyusb/src/common/tusb_common.h **** TU_ATTR_ALWAYS_INLINE static inline uint32_t tu_align8  (uint32_t value) { return (value & 0xFFFFFF
 164:/Users/joostbooy/Desktop/Code/stm32/lib/tinyusb/src/common/tusb_common.h **** TU_ATTR_ALWAYS_INLINE static inline uint32_t tu_align16 (uint32_t value) { return (value & 0xFFFFFF
 165:/Users/joostbooy/Desktop/Code/stm32/lib/tinyusb/src/common/tusb_common.h **** TU_ATTR_ALWAYS_INLINE static inline uint32_t tu_align32 (uint32_t value) { return (value & 0xFFFFFF
 166:/Users/joostbooy/Desktop/Code/stm32/lib/tinyusb/src/common/tusb_common.h **** TU_ATTR_ALWAYS_INLINE static inline uint32_t tu_align4k (uint32_t value) { return (value & 0xFFFFF0
 167:/Users/joostbooy/Desktop/Code/stm32/lib/tinyusb/src/common/tusb_common.h **** TU_ATTR_ALWAYS_INLINE static inline uint32_t tu_offset4k(uint32_t value) { return (value & 0xFFFUL)
 168:/Users/joostbooy/Desktop/Code/stm32/lib/tinyusb/src/common/tusb_common.h **** 
 169:/Users/joostbooy/Desktop/Code/stm32/lib/tinyusb/src/common/tusb_common.h **** TU_ATTR_ALWAYS_INLINE static inline bool tu_is_aligned32(uint32_t value) { return (value & 0x1FUL) 
 170:/Users/joostbooy/Desktop/Code/stm32/lib/tinyusb/src/common/tusb_common.h **** TU_ATTR_ALWAYS_INLINE static inline bool tu_is_aligned64(uint64_t value) { return (value & 0x3FUL) 
 171:/Users/joostbooy/Desktop/Code/stm32/lib/tinyusb/src/common/tusb_common.h **** 
 172:/Users/joostbooy/Desktop/Code/stm32/lib/tinyusb/src/common/tusb_common.h **** //------------- Mathematics -------------//
 173:/Users/joostbooy/Desktop/Code/stm32/lib/tinyusb/src/common/tusb_common.h **** TU_ATTR_ALWAYS_INLINE static inline uint32_t tu_div_ceil(uint32_t v, uint32_t d) { return (v + d -1
 174:/Users/joostbooy/Desktop/Code/stm32/lib/tinyusb/src/common/tusb_common.h **** 
 175:/Users/joostbooy/Desktop/Code/stm32/lib/tinyusb/src/common/tusb_common.h **** // log2 of a value is its MSB's position
 176:/Users/joostbooy/Desktop/Code/stm32/lib/tinyusb/src/common/tusb_common.h **** // TODO use clz TODO remove
ARM GAS  /var/folders/84/_x1cyy_j36g486tldtwl37280000gn/T//cc3kgv9b.s 			page 17


 177:/Users/joostbooy/Desktop/Code/stm32/lib/tinyusb/src/common/tusb_common.h **** static inline uint8_t tu_log2(uint32_t value)
 178:/Users/joostbooy/Desktop/Code/stm32/lib/tinyusb/src/common/tusb_common.h **** {
 179:/Users/joostbooy/Desktop/Code/stm32/lib/tinyusb/src/common/tusb_common.h ****   uint8_t result = 0;
 180:/Users/joostbooy/Desktop/Code/stm32/lib/tinyusb/src/common/tusb_common.h ****   while (value >>= 1) { result++; }
 181:/Users/joostbooy/Desktop/Code/stm32/lib/tinyusb/src/common/tusb_common.h ****   return result;
 182:/Users/joostbooy/Desktop/Code/stm32/lib/tinyusb/src/common/tusb_common.h **** }
 183:/Users/joostbooy/Desktop/Code/stm32/lib/tinyusb/src/common/tusb_common.h **** 
 184:/Users/joostbooy/Desktop/Code/stm32/lib/tinyusb/src/common/tusb_common.h **** //static inline uint8_t tu_log2(uint32_t value)
 185:/Users/joostbooy/Desktop/Code/stm32/lib/tinyusb/src/common/tusb_common.h **** //{
 186:/Users/joostbooy/Desktop/Code/stm32/lib/tinyusb/src/common/tusb_common.h **** //   return sizeof(uint32_t) * CHAR_BIT - __builtin_clz(x) - 1;
 187:/Users/joostbooy/Desktop/Code/stm32/lib/tinyusb/src/common/tusb_common.h **** //}
 188:/Users/joostbooy/Desktop/Code/stm32/lib/tinyusb/src/common/tusb_common.h **** 
 189:/Users/joostbooy/Desktop/Code/stm32/lib/tinyusb/src/common/tusb_common.h **** static inline bool tu_is_power_of_two(uint32_t value)
 190:/Users/joostbooy/Desktop/Code/stm32/lib/tinyusb/src/common/tusb_common.h **** {
 191:/Users/joostbooy/Desktop/Code/stm32/lib/tinyusb/src/common/tusb_common.h ****    return (value != 0) && ((value & (value - 1)) == 0);
 192:/Users/joostbooy/Desktop/Code/stm32/lib/tinyusb/src/common/tusb_common.h **** }
 193:/Users/joostbooy/Desktop/Code/stm32/lib/tinyusb/src/common/tusb_common.h **** 
 194:/Users/joostbooy/Desktop/Code/stm32/lib/tinyusb/src/common/tusb_common.h **** //------------- Unaligned Access -------------//
 195:/Users/joostbooy/Desktop/Code/stm32/lib/tinyusb/src/common/tusb_common.h **** #if TUP_ARCH_STRICT_ALIGN
 196:/Users/joostbooy/Desktop/Code/stm32/lib/tinyusb/src/common/tusb_common.h **** 
 197:/Users/joostbooy/Desktop/Code/stm32/lib/tinyusb/src/common/tusb_common.h **** // Rely on compiler to generate correct code for unaligned access
 198:/Users/joostbooy/Desktop/Code/stm32/lib/tinyusb/src/common/tusb_common.h **** typedef struct { uint16_t val; } TU_ATTR_PACKED tu_unaligned_uint16_t;
 199:/Users/joostbooy/Desktop/Code/stm32/lib/tinyusb/src/common/tusb_common.h **** typedef struct { uint32_t val; } TU_ATTR_PACKED tu_unaligned_uint32_t;
 200:/Users/joostbooy/Desktop/Code/stm32/lib/tinyusb/src/common/tusb_common.h **** 
 201:/Users/joostbooy/Desktop/Code/stm32/lib/tinyusb/src/common/tusb_common.h **** TU_ATTR_ALWAYS_INLINE static inline uint32_t tu_unaligned_read32(const void* mem)
 202:/Users/joostbooy/Desktop/Code/stm32/lib/tinyusb/src/common/tusb_common.h **** {
 203:/Users/joostbooy/Desktop/Code/stm32/lib/tinyusb/src/common/tusb_common.h ****   tu_unaligned_uint32_t const* ua32 = (tu_unaligned_uint32_t const*) mem;
 204:/Users/joostbooy/Desktop/Code/stm32/lib/tinyusb/src/common/tusb_common.h ****   return ua32->val;
 205:/Users/joostbooy/Desktop/Code/stm32/lib/tinyusb/src/common/tusb_common.h **** }
 206:/Users/joostbooy/Desktop/Code/stm32/lib/tinyusb/src/common/tusb_common.h **** 
 207:/Users/joostbooy/Desktop/Code/stm32/lib/tinyusb/src/common/tusb_common.h **** TU_ATTR_ALWAYS_INLINE static inline void tu_unaligned_write32(void* mem, uint32_t value)
 208:/Users/joostbooy/Desktop/Code/stm32/lib/tinyusb/src/common/tusb_common.h **** {
 209:/Users/joostbooy/Desktop/Code/stm32/lib/tinyusb/src/common/tusb_common.h ****   tu_unaligned_uint32_t* ua32 = (tu_unaligned_uint32_t*) mem;
 210:/Users/joostbooy/Desktop/Code/stm32/lib/tinyusb/src/common/tusb_common.h ****   ua32->val = value;
 211:/Users/joostbooy/Desktop/Code/stm32/lib/tinyusb/src/common/tusb_common.h **** }
 212:/Users/joostbooy/Desktop/Code/stm32/lib/tinyusb/src/common/tusb_common.h **** 
 213:/Users/joostbooy/Desktop/Code/stm32/lib/tinyusb/src/common/tusb_common.h **** TU_ATTR_ALWAYS_INLINE static inline uint16_t tu_unaligned_read16(const void* mem)
 214:/Users/joostbooy/Desktop/Code/stm32/lib/tinyusb/src/common/tusb_common.h **** {
 215:/Users/joostbooy/Desktop/Code/stm32/lib/tinyusb/src/common/tusb_common.h ****   tu_unaligned_uint16_t const* ua16 = (tu_unaligned_uint16_t const*) mem;
 216:/Users/joostbooy/Desktop/Code/stm32/lib/tinyusb/src/common/tusb_common.h ****   return ua16->val;
 217:/Users/joostbooy/Desktop/Code/stm32/lib/tinyusb/src/common/tusb_common.h **** }
 218:/Users/joostbooy/Desktop/Code/stm32/lib/tinyusb/src/common/tusb_common.h **** 
 219:/Users/joostbooy/Desktop/Code/stm32/lib/tinyusb/src/common/tusb_common.h **** TU_ATTR_ALWAYS_INLINE static inline void tu_unaligned_write16(void* mem, uint16_t value)
 220:/Users/joostbooy/Desktop/Code/stm32/lib/tinyusb/src/common/tusb_common.h **** {
 221:/Users/joostbooy/Desktop/Code/stm32/lib/tinyusb/src/common/tusb_common.h ****   tu_unaligned_uint16_t* ua16 = (tu_unaligned_uint16_t*) mem;
 222:/Users/joostbooy/Desktop/Code/stm32/lib/tinyusb/src/common/tusb_common.h ****   ua16->val = value;
 223:/Users/joostbooy/Desktop/Code/stm32/lib/tinyusb/src/common/tusb_common.h **** }
 224:/Users/joostbooy/Desktop/Code/stm32/lib/tinyusb/src/common/tusb_common.h **** 
 225:/Users/joostbooy/Desktop/Code/stm32/lib/tinyusb/src/common/tusb_common.h **** #elif TUP_MCU_STRICT_ALIGN
 226:/Users/joostbooy/Desktop/Code/stm32/lib/tinyusb/src/common/tusb_common.h **** 
 227:/Users/joostbooy/Desktop/Code/stm32/lib/tinyusb/src/common/tusb_common.h **** // MCU such as LPC_IP3511 Highspeed cannot access unaligned memory on USB_RAM although it is ARM M4
 228:/Users/joostbooy/Desktop/Code/stm32/lib/tinyusb/src/common/tusb_common.h **** // We have to manually pick up bytes since tu_unaligned_uint32_t will still generate unaligned code
 229:/Users/joostbooy/Desktop/Code/stm32/lib/tinyusb/src/common/tusb_common.h **** // NOTE: volatile cast to memory to prevent compiler to optimize and generate unaligned code
 230:/Users/joostbooy/Desktop/Code/stm32/lib/tinyusb/src/common/tusb_common.h **** // TODO Big Endian may need minor changes
 231:/Users/joostbooy/Desktop/Code/stm32/lib/tinyusb/src/common/tusb_common.h **** TU_ATTR_ALWAYS_INLINE static inline uint32_t tu_unaligned_read32(const void* mem)
 232:/Users/joostbooy/Desktop/Code/stm32/lib/tinyusb/src/common/tusb_common.h **** {
 233:/Users/joostbooy/Desktop/Code/stm32/lib/tinyusb/src/common/tusb_common.h ****   volatile uint8_t const* buf8 = (uint8_t const*) mem;
ARM GAS  /var/folders/84/_x1cyy_j36g486tldtwl37280000gn/T//cc3kgv9b.s 			page 18


 234:/Users/joostbooy/Desktop/Code/stm32/lib/tinyusb/src/common/tusb_common.h ****   return tu_u32(buf8[3], buf8[2], buf8[1], buf8[0]);
 235:/Users/joostbooy/Desktop/Code/stm32/lib/tinyusb/src/common/tusb_common.h **** }
 236:/Users/joostbooy/Desktop/Code/stm32/lib/tinyusb/src/common/tusb_common.h **** 
 237:/Users/joostbooy/Desktop/Code/stm32/lib/tinyusb/src/common/tusb_common.h **** TU_ATTR_ALWAYS_INLINE static inline void tu_unaligned_write32(void* mem, uint32_t value)
 238:/Users/joostbooy/Desktop/Code/stm32/lib/tinyusb/src/common/tusb_common.h **** {
 239:/Users/joostbooy/Desktop/Code/stm32/lib/tinyusb/src/common/tusb_common.h ****   volatile uint8_t* buf8 = (uint8_t*) mem;
 240:/Users/joostbooy/Desktop/Code/stm32/lib/tinyusb/src/common/tusb_common.h ****   buf8[0] = tu_u32_byte0(value);
 241:/Users/joostbooy/Desktop/Code/stm32/lib/tinyusb/src/common/tusb_common.h ****   buf8[1] = tu_u32_byte1(value);
 242:/Users/joostbooy/Desktop/Code/stm32/lib/tinyusb/src/common/tusb_common.h ****   buf8[2] = tu_u32_byte2(value);
 243:/Users/joostbooy/Desktop/Code/stm32/lib/tinyusb/src/common/tusb_common.h ****   buf8[3] = tu_u32_byte3(value);
 244:/Users/joostbooy/Desktop/Code/stm32/lib/tinyusb/src/common/tusb_common.h **** }
 245:/Users/joostbooy/Desktop/Code/stm32/lib/tinyusb/src/common/tusb_common.h **** 
 246:/Users/joostbooy/Desktop/Code/stm32/lib/tinyusb/src/common/tusb_common.h **** TU_ATTR_ALWAYS_INLINE static inline uint16_t tu_unaligned_read16(const void* mem)
 247:/Users/joostbooy/Desktop/Code/stm32/lib/tinyusb/src/common/tusb_common.h **** {
 248:/Users/joostbooy/Desktop/Code/stm32/lib/tinyusb/src/common/tusb_common.h ****   volatile uint8_t const* buf8 = (uint8_t const*) mem;
 249:/Users/joostbooy/Desktop/Code/stm32/lib/tinyusb/src/common/tusb_common.h ****   return tu_u16(buf8[1], buf8[0]);
 250:/Users/joostbooy/Desktop/Code/stm32/lib/tinyusb/src/common/tusb_common.h **** }
 251:/Users/joostbooy/Desktop/Code/stm32/lib/tinyusb/src/common/tusb_common.h **** 
 252:/Users/joostbooy/Desktop/Code/stm32/lib/tinyusb/src/common/tusb_common.h **** TU_ATTR_ALWAYS_INLINE static inline void tu_unaligned_write16(void* mem, uint16_t value)
 253:/Users/joostbooy/Desktop/Code/stm32/lib/tinyusb/src/common/tusb_common.h **** {
 254:/Users/joostbooy/Desktop/Code/stm32/lib/tinyusb/src/common/tusb_common.h ****   volatile uint8_t* buf8 = (uint8_t*) mem;
 255:/Users/joostbooy/Desktop/Code/stm32/lib/tinyusb/src/common/tusb_common.h ****   buf8[0] = tu_u16_low(value);
 256:/Users/joostbooy/Desktop/Code/stm32/lib/tinyusb/src/common/tusb_common.h ****   buf8[1] = tu_u16_high(value);
 257:/Users/joostbooy/Desktop/Code/stm32/lib/tinyusb/src/common/tusb_common.h **** }
 258:/Users/joostbooy/Desktop/Code/stm32/lib/tinyusb/src/common/tusb_common.h **** 
 259:/Users/joostbooy/Desktop/Code/stm32/lib/tinyusb/src/common/tusb_common.h **** 
 260:/Users/joostbooy/Desktop/Code/stm32/lib/tinyusb/src/common/tusb_common.h **** #else
 261:/Users/joostbooy/Desktop/Code/stm32/lib/tinyusb/src/common/tusb_common.h **** 
 262:/Users/joostbooy/Desktop/Code/stm32/lib/tinyusb/src/common/tusb_common.h **** // MCU that could access unaligned memory natively
 263:/Users/joostbooy/Desktop/Code/stm32/lib/tinyusb/src/common/tusb_common.h **** TU_ATTR_ALWAYS_INLINE static inline uint32_t tu_unaligned_read32(const void *mem) {
 250              		.loc 2 263 46 view .LVU72
 251              	.LBB163:
 264:/Users/joostbooy/Desktop/Code/stm32/lib/tinyusb/src/common/tusb_common.h ****   return *((uint32_t const *) mem);
 252              		.loc 2 264 3 view .LVU73
 253              		.loc 2 264 10 is_stmt 0 view .LVU74
 254 003c 51F8045B 		ldr	r5, [r1], #4
 255              		.loc 2 264 10 view .LVU75
 256              	.LBE163:
 257              	.LBE162:
 129:/Users/joostbooy/Desktop/Code/stm32/lib/tinyusb/src/common/tusb_fifo.c ****     ff_buf += 4;
 258              		.loc 1 129 13 view .LVU76
 259 0040 2560     		str	r5, [r4]
 130:/Users/joostbooy/Desktop/Code/stm32/lib/tinyusb/src/common/tusb_fifo.c ****   }
 260              		.loc 1 130 5 is_stmt 1 view .LVU77
 261              	.LVL24:
 127:/Users/joostbooy/Desktop/Code/stm32/lib/tinyusb/src/common/tusb_fifo.c ****   {
 262              		.loc 1 127 8 view .LVU78
 263              	.L50:
 129:/Users/joostbooy/Desktop/Code/stm32/lib/tinyusb/src/common/tusb_fifo.c ****     ff_buf += 4;
 264              		.loc 1 129 5 view .LVU79
 265              	.LBB179:
 263:/Users/joostbooy/Desktop/Code/stm32/lib/tinyusb/src/common/tusb_common.h ****   return *((uint32_t const *) mem);
 266              		.loc 2 263 46 view .LVU80
 267              	.LBB164:
 268              		.loc 2 264 3 view .LVU81
 269              		.loc 2 264 10 is_stmt 0 view .LVU82
 270 0042 51F8043B 		ldr	r3, [r1], #4
ARM GAS  /var/folders/84/_x1cyy_j36g486tldtwl37280000gn/T//cc3kgv9b.s 			page 19


 271              		.loc 2 264 10 view .LVU83
 272              	.LBE164:
 273              	.LBE179:
 129:/Users/joostbooy/Desktop/Code/stm32/lib/tinyusb/src/common/tusb_fifo.c ****     ff_buf += 4;
 274              		.loc 1 129 13 view .LVU84
 275 0046 2360     		str	r3, [r4]
 130:/Users/joostbooy/Desktop/Code/stm32/lib/tinyusb/src/common/tusb_fifo.c ****   }
 276              		.loc 1 130 5 is_stmt 1 view .LVU85
 277              	.LVL25:
 127:/Users/joostbooy/Desktop/Code/stm32/lib/tinyusb/src/common/tusb_fifo.c ****   {
 278              		.loc 1 127 8 view .LVU86
 279              	.L49:
 129:/Users/joostbooy/Desktop/Code/stm32/lib/tinyusb/src/common/tusb_fifo.c ****     ff_buf += 4;
 280              		.loc 1 129 5 view .LVU87
 281              	.LBB180:
 263:/Users/joostbooy/Desktop/Code/stm32/lib/tinyusb/src/common/tusb_common.h ****   return *((uint32_t const *) mem);
 282              		.loc 2 263 46 view .LVU88
 283              	.LBB165:
 284              		.loc 2 264 3 view .LVU89
 285              		.loc 2 264 10 is_stmt 0 view .LVU90
 286 0048 51F8045B 		ldr	r5, [r1], #4
 287              		.loc 2 264 10 view .LVU91
 288              	.LBE165:
 289              	.LBE180:
 129:/Users/joostbooy/Desktop/Code/stm32/lib/tinyusb/src/common/tusb_fifo.c ****     ff_buf += 4;
 290              		.loc 1 129 13 view .LVU92
 291 004c 2560     		str	r5, [r4]
 130:/Users/joostbooy/Desktop/Code/stm32/lib/tinyusb/src/common/tusb_fifo.c ****   }
 292              		.loc 1 130 5 is_stmt 1 view .LVU93
 293              	.LVL26:
 127:/Users/joostbooy/Desktop/Code/stm32/lib/tinyusb/src/common/tusb_fifo.c ****   {
 294              		.loc 1 127 8 view .LVU94
 295              	.L48:
 129:/Users/joostbooy/Desktop/Code/stm32/lib/tinyusb/src/common/tusb_fifo.c ****     ff_buf += 4;
 296              		.loc 1 129 5 view .LVU95
 297              	.LBB181:
 263:/Users/joostbooy/Desktop/Code/stm32/lib/tinyusb/src/common/tusb_common.h ****   return *((uint32_t const *) mem);
 298              		.loc 2 263 46 view .LVU96
 299              	.LBB166:
 300              		.loc 2 264 3 view .LVU97
 301              		.loc 2 264 10 is_stmt 0 view .LVU98
 302 004e 51F8043B 		ldr	r3, [r1], #4
 303              		.loc 2 264 10 view .LVU99
 304              	.LBE166:
 305              	.LBE181:
 129:/Users/joostbooy/Desktop/Code/stm32/lib/tinyusb/src/common/tusb_fifo.c ****     ff_buf += 4;
 306              		.loc 1 129 13 view .LVU100
 307 0052 2360     		str	r3, [r4]
 130:/Users/joostbooy/Desktop/Code/stm32/lib/tinyusb/src/common/tusb_fifo.c ****   }
 308              		.loc 1 130 5 is_stmt 1 view .LVU101
 309              	.LVL27:
 127:/Users/joostbooy/Desktop/Code/stm32/lib/tinyusb/src/common/tusb_fifo.c ****   {
 310              		.loc 1 127 8 view .LVU102
 311              	.L47:
 129:/Users/joostbooy/Desktop/Code/stm32/lib/tinyusb/src/common/tusb_fifo.c ****     ff_buf += 4;
 312              		.loc 1 129 5 view .LVU103
 313              	.LBB182:
ARM GAS  /var/folders/84/_x1cyy_j36g486tldtwl37280000gn/T//cc3kgv9b.s 			page 20


 263:/Users/joostbooy/Desktop/Code/stm32/lib/tinyusb/src/common/tusb_common.h ****   return *((uint32_t const *) mem);
 314              		.loc 2 263 46 view .LVU104
 315              	.LBB167:
 316              		.loc 2 264 3 view .LVU105
 317              		.loc 2 264 10 is_stmt 0 view .LVU106
 318 0054 51F8045B 		ldr	r5, [r1], #4
 319              		.loc 2 264 10 view .LVU107
 320              	.LBE167:
 321              	.LBE182:
 129:/Users/joostbooy/Desktop/Code/stm32/lib/tinyusb/src/common/tusb_fifo.c ****     ff_buf += 4;
 322              		.loc 1 129 13 view .LVU108
 323 0058 2560     		str	r5, [r4]
 130:/Users/joostbooy/Desktop/Code/stm32/lib/tinyusb/src/common/tusb_fifo.c ****   }
 324              		.loc 1 130 5 is_stmt 1 view .LVU109
 325              	.LVL28:
 127:/Users/joostbooy/Desktop/Code/stm32/lib/tinyusb/src/common/tusb_fifo.c ****   {
 326              		.loc 1 127 8 view .LVU110
 327              	.L46:
 129:/Users/joostbooy/Desktop/Code/stm32/lib/tinyusb/src/common/tusb_fifo.c ****     ff_buf += 4;
 328              		.loc 1 129 5 view .LVU111
 329              	.LBB183:
 263:/Users/joostbooy/Desktop/Code/stm32/lib/tinyusb/src/common/tusb_common.h ****   return *((uint32_t const *) mem);
 330              		.loc 2 263 46 view .LVU112
 331              	.LBB168:
 332              		.loc 2 264 3 view .LVU113
 333              		.loc 2 264 10 is_stmt 0 view .LVU114
 334 005a 51F8043B 		ldr	r3, [r1], #4
 335              		.loc 2 264 10 view .LVU115
 336              	.LBE168:
 337              	.LBE183:
 129:/Users/joostbooy/Desktop/Code/stm32/lib/tinyusb/src/common/tusb_fifo.c ****     ff_buf += 4;
 338              		.loc 1 129 13 view .LVU116
 339 005e 2360     		str	r3, [r4]
 130:/Users/joostbooy/Desktop/Code/stm32/lib/tinyusb/src/common/tusb_fifo.c ****   }
 340              		.loc 1 130 5 is_stmt 1 view .LVU117
 341              	.LVL29:
 127:/Users/joostbooy/Desktop/Code/stm32/lib/tinyusb/src/common/tusb_fifo.c ****   {
 342              		.loc 1 127 8 view .LVU118
 343 0060 8142     		cmp	r1, r0
 344 0062 1BD0     		beq	.L18
 345              	.LVL30:
 346              	.L19:
 129:/Users/joostbooy/Desktop/Code/stm32/lib/tinyusb/src/common/tusb_fifo.c ****     ff_buf += 4;
 347              		.loc 1 129 5 view .LVU119
 348              	.LBB184:
 263:/Users/joostbooy/Desktop/Code/stm32/lib/tinyusb/src/common/tusb_common.h ****   return *((uint32_t const *) mem);
 349              		.loc 2 263 46 view .LVU120
 350              	.LBB169:
 351              		.loc 2 264 3 view .LVU121
 352              		.loc 2 264 10 is_stmt 0 view .LVU122
 353 0064 8C46     		mov	ip, r1
 354              	.LBE169:
 355              	.LBE184:
 130:/Users/joostbooy/Desktop/Code/stm32/lib/tinyusb/src/common/tusb_fifo.c ****   }
 356              		.loc 1 130 12 view .LVU123
 357 0066 2031     		adds	r1, r1, #32
 358              	.LBB185:
ARM GAS  /var/folders/84/_x1cyy_j36g486tldtwl37280000gn/T//cc3kgv9b.s 			page 21


 359              	.LBB170:
 360              		.loc 2 264 10 view .LVU124
 361 0068 5CF8045B 		ldr	r5, [ip], #4
 362              		.loc 2 264 10 view .LVU125
 363              	.LBE170:
 364              	.LBE185:
 129:/Users/joostbooy/Desktop/Code/stm32/lib/tinyusb/src/common/tusb_fifo.c ****     ff_buf += 4;
 365              		.loc 1 129 13 view .LVU126
 366 006c 2560     		str	r5, [r4]
 130:/Users/joostbooy/Desktop/Code/stm32/lib/tinyusb/src/common/tusb_fifo.c ****   }
 367              		.loc 1 130 5 is_stmt 1 view .LVU127
 127:/Users/joostbooy/Desktop/Code/stm32/lib/tinyusb/src/common/tusb_fifo.c ****   {
 368              		.loc 1 127 8 view .LVU128
 129:/Users/joostbooy/Desktop/Code/stm32/lib/tinyusb/src/common/tusb_fifo.c ****     ff_buf += 4;
 369              		.loc 1 129 5 view .LVU129
 370              	.LBB186:
 263:/Users/joostbooy/Desktop/Code/stm32/lib/tinyusb/src/common/tusb_common.h ****   return *((uint32_t const *) mem);
 371              		.loc 2 263 46 view .LVU130
 372              	.LBB171:
 373              		.loc 2 264 3 view .LVU131
 374              		.loc 2 264 10 is_stmt 0 view .LVU132
 375 006e 51F81C3C 		ldr	r3, [r1, #-28]
 376              		.loc 2 264 10 view .LVU133
 377              	.LBE171:
 378              	.LBE186:
 129:/Users/joostbooy/Desktop/Code/stm32/lib/tinyusb/src/common/tusb_fifo.c ****     ff_buf += 4;
 379              		.loc 1 129 13 view .LVU134
 380 0072 2360     		str	r3, [r4]
 130:/Users/joostbooy/Desktop/Code/stm32/lib/tinyusb/src/common/tusb_fifo.c ****   }
 381              		.loc 1 130 5 is_stmt 1 view .LVU135
 127:/Users/joostbooy/Desktop/Code/stm32/lib/tinyusb/src/common/tusb_fifo.c ****   {
 382              		.loc 1 127 8 view .LVU136
 129:/Users/joostbooy/Desktop/Code/stm32/lib/tinyusb/src/common/tusb_fifo.c ****     ff_buf += 4;
 383              		.loc 1 129 5 view .LVU137
 384              	.LBB187:
 263:/Users/joostbooy/Desktop/Code/stm32/lib/tinyusb/src/common/tusb_common.h ****   return *((uint32_t const *) mem);
 385              		.loc 2 263 46 view .LVU138
 386              	.LBB172:
 387              		.loc 2 264 3 view .LVU139
 388              		.loc 2 264 10 is_stmt 0 view .LVU140
 389 0074 DCF80450 		ldr	r5, [ip, #4]
 390              		.loc 2 264 10 view .LVU141
 391              	.LBE172:
 392              	.LBE187:
 129:/Users/joostbooy/Desktop/Code/stm32/lib/tinyusb/src/common/tusb_fifo.c ****     ff_buf += 4;
 393              		.loc 1 129 13 view .LVU142
 394 0078 2560     		str	r5, [r4]
 130:/Users/joostbooy/Desktop/Code/stm32/lib/tinyusb/src/common/tusb_fifo.c ****   }
 395              		.loc 1 130 5 is_stmt 1 view .LVU143
 127:/Users/joostbooy/Desktop/Code/stm32/lib/tinyusb/src/common/tusb_fifo.c ****   {
 396              		.loc 1 127 8 view .LVU144
 129:/Users/joostbooy/Desktop/Code/stm32/lib/tinyusb/src/common/tusb_fifo.c ****     ff_buf += 4;
 397              		.loc 1 129 5 view .LVU145
 398              	.LBB188:
 263:/Users/joostbooy/Desktop/Code/stm32/lib/tinyusb/src/common/tusb_common.h ****   return *((uint32_t const *) mem);
 399              		.loc 2 263 46 view .LVU146
 400              	.LBB173:
ARM GAS  /var/folders/84/_x1cyy_j36g486tldtwl37280000gn/T//cc3kgv9b.s 			page 22


 401              		.loc 2 264 3 view .LVU147
 402              		.loc 2 264 10 is_stmt 0 view .LVU148
 403 007a 51F8143C 		ldr	r3, [r1, #-20]
 404              		.loc 2 264 10 view .LVU149
 405              	.LBE173:
 406              	.LBE188:
 129:/Users/joostbooy/Desktop/Code/stm32/lib/tinyusb/src/common/tusb_fifo.c ****     ff_buf += 4;
 407              		.loc 1 129 13 view .LVU150
 408 007e 2360     		str	r3, [r4]
 130:/Users/joostbooy/Desktop/Code/stm32/lib/tinyusb/src/common/tusb_fifo.c ****   }
 409              		.loc 1 130 5 is_stmt 1 view .LVU151
 127:/Users/joostbooy/Desktop/Code/stm32/lib/tinyusb/src/common/tusb_fifo.c ****   {
 410              		.loc 1 127 8 view .LVU152
 129:/Users/joostbooy/Desktop/Code/stm32/lib/tinyusb/src/common/tusb_fifo.c ****     ff_buf += 4;
 411              		.loc 1 129 5 view .LVU153
 412              	.LBB189:
 263:/Users/joostbooy/Desktop/Code/stm32/lib/tinyusb/src/common/tusb_common.h ****   return *((uint32_t const *) mem);
 413              		.loc 2 263 46 view .LVU154
 414              	.LBB174:
 415              		.loc 2 264 3 view .LVU155
 416              		.loc 2 264 10 is_stmt 0 view .LVU156
 417 0080 51F8105C 		ldr	r5, [r1, #-16]
 418              		.loc 2 264 10 view .LVU157
 419              	.LBE174:
 420              	.LBE189:
 129:/Users/joostbooy/Desktop/Code/stm32/lib/tinyusb/src/common/tusb_fifo.c ****     ff_buf += 4;
 421              		.loc 1 129 13 view .LVU158
 422 0084 2560     		str	r5, [r4]
 130:/Users/joostbooy/Desktop/Code/stm32/lib/tinyusb/src/common/tusb_fifo.c ****   }
 423              		.loc 1 130 5 is_stmt 1 view .LVU159
 127:/Users/joostbooy/Desktop/Code/stm32/lib/tinyusb/src/common/tusb_fifo.c ****   {
 424              		.loc 1 127 8 view .LVU160
 129:/Users/joostbooy/Desktop/Code/stm32/lib/tinyusb/src/common/tusb_fifo.c ****     ff_buf += 4;
 425              		.loc 1 129 5 view .LVU161
 426              	.LBB190:
 263:/Users/joostbooy/Desktop/Code/stm32/lib/tinyusb/src/common/tusb_common.h ****   return *((uint32_t const *) mem);
 427              		.loc 2 263 46 view .LVU162
 428              	.LBB175:
 429              		.loc 2 264 3 view .LVU163
 430              		.loc 2 264 10 is_stmt 0 view .LVU164
 431 0086 51F80C3C 		ldr	r3, [r1, #-12]
 432              		.loc 2 264 10 view .LVU165
 433              	.LBE175:
 434              	.LBE190:
 129:/Users/joostbooy/Desktop/Code/stm32/lib/tinyusb/src/common/tusb_fifo.c ****     ff_buf += 4;
 435              		.loc 1 129 13 view .LVU166
 436 008a 2360     		str	r3, [r4]
 130:/Users/joostbooy/Desktop/Code/stm32/lib/tinyusb/src/common/tusb_fifo.c ****   }
 437              		.loc 1 130 5 is_stmt 1 view .LVU167
 127:/Users/joostbooy/Desktop/Code/stm32/lib/tinyusb/src/common/tusb_fifo.c ****   {
 438              		.loc 1 127 8 view .LVU168
 129:/Users/joostbooy/Desktop/Code/stm32/lib/tinyusb/src/common/tusb_fifo.c ****     ff_buf += 4;
 439              		.loc 1 129 5 view .LVU169
 440              	.LBB191:
 263:/Users/joostbooy/Desktop/Code/stm32/lib/tinyusb/src/common/tusb_common.h ****   return *((uint32_t const *) mem);
 441              		.loc 2 263 46 view .LVU170
 442              	.LBB176:
ARM GAS  /var/folders/84/_x1cyy_j36g486tldtwl37280000gn/T//cc3kgv9b.s 			page 23


 443              		.loc 2 264 3 view .LVU171
 444              		.loc 2 264 10 is_stmt 0 view .LVU172
 445 008c 51F8085C 		ldr	r5, [r1, #-8]
 446              		.loc 2 264 10 view .LVU173
 447              	.LBE176:
 448              	.LBE191:
 129:/Users/joostbooy/Desktop/Code/stm32/lib/tinyusb/src/common/tusb_fifo.c ****     ff_buf += 4;
 449              		.loc 1 129 13 view .LVU174
 450 0090 2560     		str	r5, [r4]
 130:/Users/joostbooy/Desktop/Code/stm32/lib/tinyusb/src/common/tusb_fifo.c ****   }
 451              		.loc 1 130 5 is_stmt 1 view .LVU175
 127:/Users/joostbooy/Desktop/Code/stm32/lib/tinyusb/src/common/tusb_fifo.c ****   {
 452              		.loc 1 127 8 view .LVU176
 129:/Users/joostbooy/Desktop/Code/stm32/lib/tinyusb/src/common/tusb_fifo.c ****     ff_buf += 4;
 453              		.loc 1 129 5 view .LVU177
 454              	.LBB192:
 263:/Users/joostbooy/Desktop/Code/stm32/lib/tinyusb/src/common/tusb_common.h ****   return *((uint32_t const *) mem);
 455              		.loc 2 263 46 view .LVU178
 456              	.LBB177:
 457              		.loc 2 264 3 view .LVU179
 458              		.loc 2 264 10 is_stmt 0 view .LVU180
 459 0092 51F8043C 		ldr	r3, [r1, #-4]
 460              		.loc 2 264 10 view .LVU181
 461              	.LBE177:
 462              	.LBE192:
 129:/Users/joostbooy/Desktop/Code/stm32/lib/tinyusb/src/common/tusb_fifo.c ****     ff_buf += 4;
 463              		.loc 1 129 13 view .LVU182
 464 0096 2360     		str	r3, [r4]
 130:/Users/joostbooy/Desktop/Code/stm32/lib/tinyusb/src/common/tusb_fifo.c ****   }
 465              		.loc 1 130 5 is_stmt 1 view .LVU183
 466              	.LVL31:
 127:/Users/joostbooy/Desktop/Code/stm32/lib/tinyusb/src/common/tusb_fifo.c ****   {
 467              		.loc 1 127 8 view .LVU184
 468 0098 8142     		cmp	r1, r0
 469 009a E3D1     		bne	.L19
 470              	.LVL32:
 471              	.L18:
 134:/Users/joostbooy/Desktop/Code/stm32/lib/tinyusb/src/common/tusb_fifo.c ****   if ( bytes_rem )
 472              		.loc 1 134 3 view .LVU185
 135:/Users/joostbooy/Desktop/Code/stm32/lib/tinyusb/src/common/tusb_fifo.c ****   {
 473              		.loc 1 135 3 view .LVU186
 135:/Users/joostbooy/Desktop/Code/stm32/lib/tinyusb/src/common/tusb_fifo.c ****   {
 474              		.loc 1 135 6 is_stmt 0 view .LVU187
 475 009c 12F00302 		ands	r2, r2, #3
 476              	.LVL33:
 135:/Users/joostbooy/Desktop/Code/stm32/lib/tinyusb/src/common/tusb_fifo.c ****   {
 477              		.loc 1 135 6 view .LVU188
 478 00a0 01D1     		bne	.L63
 142:/Users/joostbooy/Desktop/Code/stm32/lib/tinyusb/src/common/tusb_fifo.c **** 
 479              		.loc 1 142 1 view .LVU189
 480 00a2 03B0     		add	sp, sp, #12
 481              		.cfi_remember_state
 482              		.cfi_def_cfa_offset 12
 483              		@ sp needed
 484 00a4 30BD     		pop	{r4, r5, pc}
 485              	.LVL34:
 486              	.L63:
ARM GAS  /var/folders/84/_x1cyy_j36g486tldtwl37280000gn/T//cc3kgv9b.s 			page 24


 487              		.cfi_restore_state
 488              	.LBB193:
 137:/Users/joostbooy/Desktop/Code/stm32/lib/tinyusb/src/common/tusb_fifo.c ****     memcpy(&tmp32, ff_buf, bytes_rem);
 489              		.loc 1 137 5 is_stmt 1 view .LVU190
 138:/Users/joostbooy/Desktop/Code/stm32/lib/tinyusb/src/common/tusb_fifo.c **** 
 490              		.loc 1 138 5 is_stmt 0 view .LVU191
 491 00a6 0146     		mov	r1, r0
 137:/Users/joostbooy/Desktop/Code/stm32/lib/tinyusb/src/common/tusb_fifo.c ****     memcpy(&tmp32, ff_buf, bytes_rem);
 492              		.loc 1 137 14 view .LVU192
 493 00a8 0025     		movs	r5, #0
 138:/Users/joostbooy/Desktop/Code/stm32/lib/tinyusb/src/common/tusb_fifo.c **** 
 494              		.loc 1 138 5 view .LVU193
 495 00aa 01A8     		add	r0, sp, #4
 137:/Users/joostbooy/Desktop/Code/stm32/lib/tinyusb/src/common/tusb_fifo.c ****     memcpy(&tmp32, ff_buf, bytes_rem);
 496              		.loc 1 137 14 view .LVU194
 497 00ac 0195     		str	r5, [sp, #4]
 138:/Users/joostbooy/Desktop/Code/stm32/lib/tinyusb/src/common/tusb_fifo.c **** 
 498              		.loc 1 138 5 is_stmt 1 view .LVU195
 499 00ae FFF7FEFF 		bl	memcpy
 500              	.LVL35:
 140:/Users/joostbooy/Desktop/Code/stm32/lib/tinyusb/src/common/tusb_fifo.c ****   }
 501              		.loc 1 140 5 view .LVU196
 140:/Users/joostbooy/Desktop/Code/stm32/lib/tinyusb/src/common/tusb_fifo.c ****   }
 502              		.loc 1 140 13 is_stmt 0 view .LVU197
 503 00b2 0199     		ldr	r1, [sp, #4]
 504 00b4 2160     		str	r1, [r4]
 505              	.LBE193:
 142:/Users/joostbooy/Desktop/Code/stm32/lib/tinyusb/src/common/tusb_fifo.c **** 
 506              		.loc 1 142 1 view .LVU198
 507 00b6 03B0     		add	sp, sp, #12
 508              		.cfi_remember_state
 509              		.cfi_def_cfa_offset 12
 510              		@ sp needed
 511 00b8 30BD     		pop	{r4, r5, pc}
 512              	.LVL36:
 513              	.L62:
 514              		.cfi_restore_state
 129:/Users/joostbooy/Desktop/Code/stm32/lib/tinyusb/src/common/tusb_fifo.c ****     ff_buf += 4;
 515              		.loc 1 129 5 is_stmt 1 view .LVU199
 516              	.LBB194:
 263:/Users/joostbooy/Desktop/Code/stm32/lib/tinyusb/src/common/tusb_common.h ****   return *((uint32_t const *) mem);
 517              		.loc 2 263 46 view .LVU200
 518              	.LBB178:
 519              		.loc 2 264 3 view .LVU201
 520              		.loc 2 264 10 is_stmt 0 view .LVU202
 521 00ba 51F8043B 		ldr	r3, [r1], #4
 522              	.LVL37:
 523              		.loc 2 264 10 view .LVU203
 524              	.LBE178:
 525              	.LBE194:
 129:/Users/joostbooy/Desktop/Code/stm32/lib/tinyusb/src/common/tusb_fifo.c ****     ff_buf += 4;
 526              		.loc 1 129 13 view .LVU204
 527 00be 2360     		str	r3, [r4]
 130:/Users/joostbooy/Desktop/Code/stm32/lib/tinyusb/src/common/tusb_fifo.c ****   }
 528              		.loc 1 130 5 is_stmt 1 view .LVU205
 529              	.LVL38:
 127:/Users/joostbooy/Desktop/Code/stm32/lib/tinyusb/src/common/tusb_fifo.c ****   {
ARM GAS  /var/folders/84/_x1cyy_j36g486tldtwl37280000gn/T//cc3kgv9b.s 			page 25


 530              		.loc 1 127 8 view .LVU206
 531 00c0 BCE7     		b	.L51
 532              	.LVL39:
 533              	.L21:
 127:/Users/joostbooy/Desktop/Code/stm32/lib/tinyusb/src/common/tusb_fifo.c ****   {
 534              		.loc 1 127 8 is_stmt 0 view .LVU207
 535 00c2 0846     		mov	r0, r1
 536              	.LVL40:
 127:/Users/joostbooy/Desktop/Code/stm32/lib/tinyusb/src/common/tusb_fifo.c ****   {
 537              		.loc 1 127 8 view .LVU208
 538 00c4 EAE7     		b	.L18
 539              		.cfi_endproc
 540              	.LFE60:
 542 00c6 00BF     		.section	.text._tu_fifo_peek_n,"ax",%progbits
 543              		.align	1
 544              		.p2align 2,,3
 545              		.syntax unified
 546              		.thumb
 547              		.thumb_func
 548              		.fpu fpv4-sp-d16
 550              	_tu_fifo_peek_n:
 551              	.LVL41:
 552              	.LFB71:
 435:/Users/joostbooy/Desktop/Code/stm32/lib/tinyusb/src/common/tusb_fifo.c **** 
 436:/Users/joostbooy/Desktop/Code/stm32/lib/tinyusb/src/common/tusb_fifo.c **** // Works on local copies of w and r
 437:/Users/joostbooy/Desktop/Code/stm32/lib/tinyusb/src/common/tusb_fifo.c **** // Must be protected by mutexes since in case of an overflow read pointer gets modified
 438:/Users/joostbooy/Desktop/Code/stm32/lib/tinyusb/src/common/tusb_fifo.c **** static uint16_t _tu_fifo_peek_n(tu_fifo_t* f, void * p_buffer, uint16_t n, uint16_t wr_idx, uint16_
 439:/Users/joostbooy/Desktop/Code/stm32/lib/tinyusb/src/common/tusb_fifo.c **** {
 553              		.loc 1 439 1 is_stmt 1 view -0
 554              		.cfi_startproc
 555              		@ args = 8, pretend = 0, frame = 8
 556              		@ frame_needed = 0, uses_anonymous_args = 0
 440:/Users/joostbooy/Desktop/Code/stm32/lib/tinyusb/src/common/tusb_fifo.c ****   uint16_t cnt = _ff_count(f->depth, wr_idx, rd_idx);
 557              		.loc 1 440 3 view .LVU210
 439:/Users/joostbooy/Desktop/Code/stm32/lib/tinyusb/src/common/tusb_fifo.c ****   uint16_t cnt = _ff_count(f->depth, wr_idx, rd_idx);
 558              		.loc 1 439 1 is_stmt 0 view .LVU211
 559 0000 2DE9F047 		push	{r4, r5, r6, r7, r8, r9, r10, lr}
 560              		.cfi_def_cfa_offset 32
 561              		.cfi_offset 4, -32
 562              		.cfi_offset 5, -28
 563              		.cfi_offset 6, -24
 564              		.cfi_offset 7, -20
 565              		.cfi_offset 8, -16
 566              		.cfi_offset 9, -12
 567              		.cfi_offset 10, -8
 568              		.cfi_offset 14, -4
 569 0004 82B0     		sub	sp, sp, #8
 570              		.cfi_def_cfa_offset 40
 571              		.loc 1 440 18 view .LVU212
 572 0006 8588     		ldrh	r5, [r0, #4]
 573              	.LVL42:
 439:/Users/joostbooy/Desktop/Code/stm32/lib/tinyusb/src/common/tusb_fifo.c ****   uint16_t cnt = _ff_count(f->depth, wr_idx, rd_idx);
 574              		.loc 1 439 1 view .LVU213
 575 0008 BDF82840 		ldrh	r4, [sp, #40]
 576              	.LBB207:
 577              	.LBB208:
 329:/Users/joostbooy/Desktop/Code/stm32/lib/tinyusb/src/common/tusb_fifo.c ****   } else
ARM GAS  /var/folders/84/_x1cyy_j36g486tldtwl37280000gn/T//cc3kgv9b.s 			page 26


 578              		.loc 1 329 12 view .LVU214
 579 000c 1E1B     		subs	r6, r3, r4
 327:/Users/joostbooy/Desktop/Code/stm32/lib/tinyusb/src/common/tusb_fifo.c ****   {
 580              		.loc 1 327 6 view .LVU215
 581 000e A342     		cmp	r3, r4
 332:/Users/joostbooy/Desktop/Code/stm32/lib/tinyusb/src/common/tusb_fifo.c ****   }
 582              		.loc 1 332 12 view .LVU216
 583 0010 38BF     		it	cc
 584 0012 06EB4506 		addcc	r6, r6, r5, lsl #1
 585 0016 B6B2     		uxth	r6, r6
 586              	.LBE208:
 587              	.LBE207:
 439:/Users/joostbooy/Desktop/Code/stm32/lib/tinyusb/src/common/tusb_fifo.c ****   uint16_t cnt = _ff_count(f->depth, wr_idx, rd_idx);
 588              		.loc 1 439 1 view .LVU217
 589 0018 0746     		mov	r7, r0
 590 001a 8846     		mov	r8, r1
 591 001c 9DF82C00 		ldrb	r0, [sp, #44]	@ zero_extendqisi2
 592              	.LVL43:
 593              	.LBB210:
 594              	.LBI207:
 324:/Users/joostbooy/Desktop/Code/stm32/lib/tinyusb/src/common/tusb_fifo.c **** {
 595              		.loc 1 324 10 is_stmt 1 view .LVU218
 596              	.LBB209:
 327:/Users/joostbooy/Desktop/Code/stm32/lib/tinyusb/src/common/tusb_fifo.c ****   {
 597              		.loc 1 327 3 view .LVU219
 329:/Users/joostbooy/Desktop/Code/stm32/lib/tinyusb/src/common/tusb_fifo.c ****   } else
 598              		.loc 1 329 5 view .LVU220
 332:/Users/joostbooy/Desktop/Code/stm32/lib/tinyusb/src/common/tusb_fifo.c ****   }
 599              		.loc 1 332 5 view .LVU221
 332:/Users/joostbooy/Desktop/Code/stm32/lib/tinyusb/src/common/tusb_fifo.c ****   }
 600              		.loc 1 332 5 is_stmt 0 view .LVU222
 601              	.LBE209:
 602              	.LBE210:
 441:/Users/joostbooy/Desktop/Code/stm32/lib/tinyusb/src/common/tusb_fifo.c **** 
 442:/Users/joostbooy/Desktop/Code/stm32/lib/tinyusb/src/common/tusb_fifo.c ****   // nothing to peek
 443:/Users/joostbooy/Desktop/Code/stm32/lib/tinyusb/src/common/tusb_fifo.c ****   if ( cnt == 0 ) return 0;
 603              		.loc 1 443 3 is_stmt 1 view .LVU223
 604              		.loc 1 443 6 is_stmt 0 view .LVU224
 605 0020 002E     		cmp	r6, #0
 606 0022 00F0B880 		beq	.L67
 444:/Users/joostbooy/Desktop/Code/stm32/lib/tinyusb/src/common/tusb_fifo.c **** 
 445:/Users/joostbooy/Desktop/Code/stm32/lib/tinyusb/src/common/tusb_fifo.c ****   // Check overflow and correct if required
 446:/Users/joostbooy/Desktop/Code/stm32/lib/tinyusb/src/common/tusb_fifo.c ****   if ( cnt > f->depth )
 607              		.loc 1 446 3 is_stmt 1 view .LVU225
 608              		.loc 1 446 6 is_stmt 0 view .LVU226
 609 0026 B542     		cmp	r5, r6
 610 0028 C0F0B980 		bcc	.L133
 611              	.LVL44:
 612              	.L68:
 447:/Users/joostbooy/Desktop/Code/stm32/lib/tinyusb/src/common/tusb_fifo.c ****   {
 448:/Users/joostbooy/Desktop/Code/stm32/lib/tinyusb/src/common/tusb_fifo.c ****     rd_idx = _ff_correct_read_index(f, wr_idx);
 449:/Users/joostbooy/Desktop/Code/stm32/lib/tinyusb/src/common/tusb_fifo.c ****     cnt = f->depth;
 450:/Users/joostbooy/Desktop/Code/stm32/lib/tinyusb/src/common/tusb_fifo.c ****   }
 451:/Users/joostbooy/Desktop/Code/stm32/lib/tinyusb/src/common/tusb_fifo.c **** 
 452:/Users/joostbooy/Desktop/Code/stm32/lib/tinyusb/src/common/tusb_fifo.c ****   // Check if we can read something at and after offset - if too less is available we read what rem
 453:/Users/joostbooy/Desktop/Code/stm32/lib/tinyusb/src/common/tusb_fifo.c ****   if ( cnt < n ) n = cnt;
 613              		.loc 1 453 3 is_stmt 1 view .LVU227
ARM GAS  /var/folders/84/_x1cyy_j36g486tldtwl37280000gn/T//cc3kgv9b.s 			page 27


 614 002c 9642     		cmp	r6, r2
 615 002e 28BF     		it	cs
 616 0030 1646     		movcs	r6, r2
 617              	.LVL45:
 454:/Users/joostbooy/Desktop/Code/stm32/lib/tinyusb/src/common/tusb_fifo.c **** 
 455:/Users/joostbooy/Desktop/Code/stm32/lib/tinyusb/src/common/tusb_fifo.c ****   uint16_t rd_ptr = idx2ptr(f->depth, rd_idx);
 618              		.loc 1 455 3 view .LVU228
 619              	.LBB211:
 620              	.LBI211:
 385:/Users/joostbooy/Desktop/Code/stm32/lib/tinyusb/src/common/tusb_fifo.c **** {
 621              		.loc 1 385 10 view .LVU229
 622              	.LBB212:
 388:/Users/joostbooy/Desktop/Code/stm32/lib/tinyusb/src/common/tusb_fifo.c ****   return idx;
 623              		.loc 1 388 3 view .LVU230
 388:/Users/joostbooy/Desktop/Code/stm32/lib/tinyusb/src/common/tusb_fifo.c ****   return idx;
 624              		.loc 1 388 9 view .LVU231
 625 0032 A542     		cmp	r5, r4
 626 0034 03D8     		bhi	.L71
 627              	.LVL46:
 628              	.L72:
 388:/Users/joostbooy/Desktop/Code/stm32/lib/tinyusb/src/common/tusb_fifo.c ****   return idx;
 629              		.loc 1 388 26 view .LVU232
 388:/Users/joostbooy/Desktop/Code/stm32/lib/tinyusb/src/common/tusb_fifo.c ****   return idx;
 630              		.loc 1 388 30 is_stmt 0 view .LVU233
 631 0036 641B     		subs	r4, r4, r5
 632              	.LVL47:
 388:/Users/joostbooy/Desktop/Code/stm32/lib/tinyusb/src/common/tusb_fifo.c ****   return idx;
 633              		.loc 1 388 30 view .LVU234
 634 0038 A4B2     		uxth	r4, r4
 635              	.LVL48:
 388:/Users/joostbooy/Desktop/Code/stm32/lib/tinyusb/src/common/tusb_fifo.c ****   return idx;
 636              		.loc 1 388 9 is_stmt 1 view .LVU235
 637 003a A542     		cmp	r5, r4
 638 003c FBD9     		bls	.L72
 639              	.L71:
 389:/Users/joostbooy/Desktop/Code/stm32/lib/tinyusb/src/common/tusb_fifo.c **** }
 640              		.loc 1 389 3 view .LVU236
 641              	.LVL49:
 389:/Users/joostbooy/Desktop/Code/stm32/lib/tinyusb/src/common/tusb_fifo.c **** }
 642              		.loc 1 389 3 is_stmt 0 view .LVU237
 643              	.LBE212:
 644              	.LBE211:
 456:/Users/joostbooy/Desktop/Code/stm32/lib/tinyusb/src/common/tusb_fifo.c **** 
 457:/Users/joostbooy/Desktop/Code/stm32/lib/tinyusb/src/common/tusb_fifo.c ****   // Peek data
 458:/Users/joostbooy/Desktop/Code/stm32/lib/tinyusb/src/common/tusb_fifo.c ****   _ff_pull_n(f, p_buffer, n, rd_ptr, copy_mode);
 645              		.loc 1 458 3 is_stmt 1 view .LVU238
 646              	.LBB213:
 647              	.LBI213:
 237:/Users/joostbooy/Desktop/Code/stm32/lib/tinyusb/src/common/tusb_fifo.c **** {
 648              		.loc 1 237 13 view .LVU239
 649              	.LBB214:
 239:/Users/joostbooy/Desktop/Code/stm32/lib/tinyusb/src/common/tusb_fifo.c ****   uint16_t const wrap_count = n - lin_count; // only used if wrapped
 650              		.loc 1 239 3 view .LVU240
 242:/Users/joostbooy/Desktop/Code/stm32/lib/tinyusb/src/common/tusb_fifo.c ****   uint16_t wrap_bytes = wrap_count * f->item_size;
 651              		.loc 1 242 37 is_stmt 0 view .LVU241
 652 003e FA88     		ldrh	r2, [r7, #6]
 246:/Users/joostbooy/Desktop/Code/stm32/lib/tinyusb/src/common/tusb_fifo.c **** 
ARM GAS  /var/folders/84/_x1cyy_j36g486tldtwl37280000gn/T//cc3kgv9b.s 			page 28


 653              		.loc 1 246 12 view .LVU242
 654 0040 3968     		ldr	r1, [r7]
 655              	.LVL50:
 240:/Users/joostbooy/Desktop/Code/stm32/lib/tinyusb/src/common/tusb_fifo.c **** 
 656              		.loc 1 240 18 view .LVU243
 657 0042 731B     		subs	r3, r6, r5
 658              	.LVL51:
 242:/Users/joostbooy/Desktop/Code/stm32/lib/tinyusb/src/common/tusb_fifo.c ****   uint16_t wrap_bytes = wrap_count * f->item_size;
 659              		.loc 1 242 37 view .LVU244
 660 0044 C2F30E0E 		ubfx	lr, r2, #0, #15
 239:/Users/joostbooy/Desktop/Code/stm32/lib/tinyusb/src/common/tusb_fifo.c ****   uint16_t const wrap_count = n - lin_count; // only used if wrapped
 661              		.loc 1 239 18 view .LVU245
 662 0048 2D1B     		subs	r5, r5, r4
 240:/Users/joostbooy/Desktop/Code/stm32/lib/tinyusb/src/common/tusb_fifo.c **** 
 663              		.loc 1 240 18 view .LVU246
 664 004a 2344     		add	r3, r3, r4
 243:/Users/joostbooy/Desktop/Code/stm32/lib/tinyusb/src/common/tusb_fifo.c **** 
 665              		.loc 1 243 12 view .LVU247
 666 004c 13FB0EF2 		smulbb	r2, r3, lr
 248:/Users/joostbooy/Desktop/Code/stm32/lib/tinyusb/src/common/tusb_fifo.c ****   {
 667              		.loc 1 248 3 view .LVU248
 668 0050 0128     		cmp	r0, #1
 242:/Users/joostbooy/Desktop/Code/stm32/lib/tinyusb/src/common/tusb_fifo.c ****   uint16_t wrap_bytes = wrap_count * f->item_size;
 669              		.loc 1 242 12 view .LVU249
 670 0052 15FB0EF3 		smulbb	r3, r5, lr
 243:/Users/joostbooy/Desktop/Code/stm32/lib/tinyusb/src/common/tusb_fifo.c **** 
 671              		.loc 1 243 12 view .LVU250
 672 0056 1FFA82F9 		uxth	r9, r2
 242:/Users/joostbooy/Desktop/Code/stm32/lib/tinyusb/src/common/tusb_fifo.c ****   uint16_t wrap_bytes = wrap_count * f->item_size;
 673              		.loc 1 242 12 view .LVU251
 674 005a 1FFA83FA 		uxth	r10, r3
 239:/Users/joostbooy/Desktop/Code/stm32/lib/tinyusb/src/common/tusb_fifo.c ****   uint16_t const wrap_count = n - lin_count; // only used if wrapped
 675              		.loc 1 239 18 view .LVU252
 676 005e ADB2     		uxth	r5, r5
 677              	.LVL52:
 240:/Users/joostbooy/Desktop/Code/stm32/lib/tinyusb/src/common/tusb_fifo.c **** 
 678              		.loc 1 240 3 is_stmt 1 view .LVU253
 242:/Users/joostbooy/Desktop/Code/stm32/lib/tinyusb/src/common/tusb_fifo.c ****   uint16_t wrap_bytes = wrap_count * f->item_size;
 679              		.loc 1 242 3 view .LVU254
 243:/Users/joostbooy/Desktop/Code/stm32/lib/tinyusb/src/common/tusb_fifo.c **** 
 680              		.loc 1 243 3 view .LVU255
 246:/Users/joostbooy/Desktop/Code/stm32/lib/tinyusb/src/common/tusb_fifo.c **** 
 681              		.loc 1 246 3 view .LVU256
 246:/Users/joostbooy/Desktop/Code/stm32/lib/tinyusb/src/common/tusb_fifo.c **** 
 682              		.loc 1 246 12 is_stmt 0 view .LVU257
 683 0060 0EFB0414 		mla	r4, lr, r4, r1
 684              	.LVL53:
 248:/Users/joostbooy/Desktop/Code/stm32/lib/tinyusb/src/common/tusb_fifo.c ****   {
 685              		.loc 1 248 3 is_stmt 1 view .LVU258
 686 0064 40F08A80 		bne	.L134
 269:/Users/joostbooy/Desktop/Code/stm32/lib/tinyusb/src/common/tusb_fifo.c ****       {
 687              		.loc 1 269 7 view .LVU259
 269:/Users/joostbooy/Desktop/Code/stm32/lib/tinyusb/src/common/tusb_fifo.c ****       {
 688              		.loc 1 269 10 is_stmt 0 view .LVU260
 689 0068 AE42     		cmp	r6, r5
 690 006a 40F2A080 		bls	.L135
 691              	.LBB215:
ARM GAS  /var/folders/84/_x1cyy_j36g486tldtwl37280000gn/T//cc3kgv9b.s 			page 29


 279:/Users/joostbooy/Desktop/Code/stm32/lib/tinyusb/src/common/tusb_fifo.c ****         _ff_pull_const_addr(app_buf, ff_buf, lin_4n_bytes);
 692              		.loc 1 279 9 is_stmt 1 view .LVU261
 279:/Users/joostbooy/Desktop/Code/stm32/lib/tinyusb/src/common/tusb_fifo.c ****         _ff_pull_const_addr(app_buf, ff_buf, lin_4n_bytes);
 693              		.loc 1 279 18 is_stmt 0 view .LVU262
 694 006e 2AF00300 		bic	r0, r10, #3
 695              	.LVL54:
 279:/Users/joostbooy/Desktop/Code/stm32/lib/tinyusb/src/common/tusb_fifo.c ****         _ff_pull_const_addr(app_buf, ff_buf, lin_4n_bytes);
 696              		.loc 1 279 18 view .LVU263
 697 0072 85B2     		uxth	r5, r0
 698              	.LVL55:
 280:/Users/joostbooy/Desktop/Code/stm32/lib/tinyusb/src/common/tusb_fifo.c ****         ff_buf += lin_4n_bytes;
 699              		.loc 1 280 9 is_stmt 1 view .LVU264
 700 0074 2A46     		mov	r2, r5
 701 0076 2146     		mov	r1, r4
 702 0078 4046     		mov	r0, r8
 703 007a FFF7FEFF 		bl	_ff_pull_const_addr
 704              	.LVL56:
 281:/Users/joostbooy/Desktop/Code/stm32/lib/tinyusb/src/common/tusb_fifo.c **** 
 705              		.loc 1 281 9 view .LVU265
 284:/Users/joostbooy/Desktop/Code/stm32/lib/tinyusb/src/common/tusb_fifo.c ****         if (rem > 0)
 706              		.loc 1 284 9 view .LVU266
 285:/Users/joostbooy/Desktop/Code/stm32/lib/tinyusb/src/common/tusb_fifo.c ****         {
 707              		.loc 1 285 9 view .LVU267
 285:/Users/joostbooy/Desktop/Code/stm32/lib/tinyusb/src/common/tusb_fifo.c ****         {
 708              		.loc 1 285 12 is_stmt 0 view .LVU268
 709 007e 1AF0030C 		ands	ip, r10, #3
 710 0082 00F0A980 		beq	.L76
 711              	.LBB216:
 289:/Users/joostbooy/Desktop/Code/stm32/lib/tinyusb/src/common/tusb_fifo.c ****           wrap_bytes -= remrem;
 712              		.loc 1 289 38 view .LVU269
 713 0086 CCF10401 		rsb	r1, ip, #4
 714              	.LBB217:
 715              	.LBB218:
 149:/Users/joostbooy/Desktop/Code/stm32/lib/tinyusb/src/common/tusb_common.h **** TU_ATTR_ALWAYS_INLINE static inline uint32_t tu_min32 (uint32_t x, uint32_t y) { return (x < y) ? x
 716              		.loc 2 149 101 view .LVU270
 717 008a 8AB2     		uxth	r2, r1
 718 008c 4A45     		cmp	r2, r9
 719 008e 28BF     		it	cs
 720 0090 4A46     		movcs	r2, r9
 721              	.LBE218:
 722              	.LBE217:
 296:/Users/joostbooy/Desktop/Code/stm32/lib/tinyusb/src/common/tusb_fifo.c **** 
 723              		.loc 1 296 20 view .LVU271
 724 0092 0CF1FF30 		add	r0, ip, #-1
 296:/Users/joostbooy/Desktop/Code/stm32/lib/tinyusb/src/common/tusb_fifo.c **** 
 725              		.loc 1 296 34 view .LVU272
 726 0096 14F805A0 		ldrb	r10, [r4, r5]	@ zero_extendqisi2
 727              	.LVL57:
 290:/Users/joostbooy/Desktop/Code/stm32/lib/tinyusb/src/common/tusb_fifo.c **** 
 728              		.loc 1 290 22 view .LVU273
 729 009a A9EB020E 		sub	lr, r9, r2
 292:/Users/joostbooy/Desktop/Code/stm32/lib/tinyusb/src/common/tusb_fifo.c ****           uint8_t * dst_u8 = (uint8_t *)&tmp32;
 730              		.loc 1 292 20 view .LVU274
 731 009e 0023     		movs	r3, #0
 732              	.LBE216:
 281:/Users/joostbooy/Desktop/Code/stm32/lib/tinyusb/src/common/tusb_fifo.c **** 
 733              		.loc 1 281 16 view .LVU275
ARM GAS  /var/folders/84/_x1cyy_j36g486tldtwl37280000gn/T//cc3kgv9b.s 			page 30


 734 00a0 2C44     		add	r4, r4, r5
 735              	.LVL58:
 736              	.LBB221:
 287:/Users/joostbooy/Desktop/Code/stm32/lib/tinyusb/src/common/tusb_fifo.c **** 
 737              		.loc 1 287 11 is_stmt 1 view .LVU276
 289:/Users/joostbooy/Desktop/Code/stm32/lib/tinyusb/src/common/tusb_fifo.c ****           wrap_bytes -= remrem;
 738              		.loc 1 289 11 view .LVU277
 739              	.LBB220:
 740              	.LBI217:
 149:/Users/joostbooy/Desktop/Code/stm32/lib/tinyusb/src/common/tusb_common.h **** TU_ATTR_ALWAYS_INLINE static inline uint32_t tu_min32 (uint32_t x, uint32_t y) { return (x < y) ? x
 741              		.loc 2 149 46 view .LVU278
 742              	.LBB219:
 149:/Users/joostbooy/Desktop/Code/stm32/lib/tinyusb/src/common/tusb_common.h **** TU_ATTR_ALWAYS_INLINE static inline uint32_t tu_min32 (uint32_t x, uint32_t y) { return (x < y) ? x
 743              		.loc 2 149 82 view .LVU279
 149:/Users/joostbooy/Desktop/Code/stm32/lib/tinyusb/src/common/tusb_common.h **** TU_ATTR_ALWAYS_INLINE static inline uint32_t tu_min32 (uint32_t x, uint32_t y) { return (x < y) ? x
 744              		.loc 2 149 82 is_stmt 0 view .LVU280
 745              	.LBE219:
 746              	.LBE220:
 296:/Users/joostbooy/Desktop/Code/stm32/lib/tinyusb/src/common/tusb_fifo.c **** 
 747              		.loc 1 296 16 view .LVU281
 748 00a2 10F0FF05 		ands	r5, r0, #255
 749              	.LVL59:
 292:/Users/joostbooy/Desktop/Code/stm32/lib/tinyusb/src/common/tusb_fifo.c ****           uint8_t * dst_u8 = (uint8_t *)&tmp32;
 750              		.loc 1 292 20 view .LVU282
 751 00a6 0193     		str	r3, [sp, #4]
 290:/Users/joostbooy/Desktop/Code/stm32/lib/tinyusb/src/common/tusb_fifo.c **** 
 752              		.loc 1 290 22 view .LVU283
 753 00a8 1FFA8EF9 		uxth	r9, lr
 754              	.LVL60:
 296:/Users/joostbooy/Desktop/Code/stm32/lib/tinyusb/src/common/tusb_fifo.c **** 
 755              		.loc 1 296 34 view .LVU284
 756 00ac 8DF804A0 		strb	r10, [sp, #4]
 289:/Users/joostbooy/Desktop/Code/stm32/lib/tinyusb/src/common/tusb_fifo.c ****           wrap_bytes -= remrem;
 757              		.loc 1 289 19 view .LVU285
 758 00b0 5FFA82FE 		uxtb	lr, r2
 759              	.LVL61:
 290:/Users/joostbooy/Desktop/Code/stm32/lib/tinyusb/src/common/tusb_fifo.c **** 
 760              		.loc 1 290 11 is_stmt 1 view .LVU286
 292:/Users/joostbooy/Desktop/Code/stm32/lib/tinyusb/src/common/tusb_fifo.c ****           uint8_t * dst_u8 = (uint8_t *)&tmp32;
 761              		.loc 1 292 11 view .LVU287
 293:/Users/joostbooy/Desktop/Code/stm32/lib/tinyusb/src/common/tusb_fifo.c **** 
 762              		.loc 1 293 11 view .LVU288
 296:/Users/joostbooy/Desktop/Code/stm32/lib/tinyusb/src/common/tusb_fifo.c **** 
 763              		.loc 1 296 11 view .LVU289
 296:/Users/joostbooy/Desktop/Code/stm32/lib/tinyusb/src/common/tusb_fifo.c **** 
 764              		.loc 1 296 16 view .LVU290
 296:/Users/joostbooy/Desktop/Code/stm32/lib/tinyusb/src/common/tusb_fifo.c **** 
 765              		.loc 1 296 24 view .LVU291
 296:/Users/joostbooy/Desktop/Code/stm32/lib/tinyusb/src/common/tusb_fifo.c **** 
 766              		.loc 1 296 16 view .LVU292
 296:/Users/joostbooy/Desktop/Code/stm32/lib/tinyusb/src/common/tusb_fifo.c **** 
 767              		.loc 1 296 16 is_stmt 0 view .LVU293
 768 00b4 08D0     		beq	.L77
 296:/Users/joostbooy/Desktop/Code/stm32/lib/tinyusb/src/common/tusb_fifo.c **** 
 769              		.loc 1 296 24 is_stmt 1 view .LVU294
 770              	.LVL62:
 296:/Users/joostbooy/Desktop/Code/stm32/lib/tinyusb/src/common/tusb_fifo.c **** 
ARM GAS  /var/folders/84/_x1cyy_j36g486tldtwl37280000gn/T//cc3kgv9b.s 			page 31


 771              		.loc 1 296 34 is_stmt 0 view .LVU295
 772 00b6 6178     		ldrb	r1, [r4, #1]	@ zero_extendqisi2
 773 00b8 8DF80510 		strb	r1, [sp, #5]
 296:/Users/joostbooy/Desktop/Code/stm32/lib/tinyusb/src/common/tusb_fifo.c **** 
 774              		.loc 1 296 16 is_stmt 1 view .LVU296
 775              	.LVL63:
 296:/Users/joostbooy/Desktop/Code/stm32/lib/tinyusb/src/common/tusb_fifo.c **** 
 776              		.loc 1 296 16 is_stmt 0 view .LVU297
 777 00bc BCF1020F 		cmp	ip, #2
 778              	.LVL64:
 296:/Users/joostbooy/Desktop/Code/stm32/lib/tinyusb/src/common/tusb_fifo.c **** 
 779              		.loc 1 296 24 is_stmt 1 view .LVU298
 296:/Users/joostbooy/Desktop/Code/stm32/lib/tinyusb/src/common/tusb_fifo.c **** 
 780              		.loc 1 296 34 is_stmt 0 view .LVU299
 781 00c0 1CBF     		itt	ne
 782 00c2 A178     		ldrbne	r1, [r4, #2]	@ zero_extendqisi2
 783 00c4 8DF80610 		strbne	r1, [sp, #6]
 296:/Users/joostbooy/Desktop/Code/stm32/lib/tinyusb/src/common/tusb_fifo.c **** 
 784              		.loc 1 296 16 is_stmt 1 view .LVU300
 785              	.LVL65:
 786              	.L77:
 299:/Users/joostbooy/Desktop/Code/stm32/lib/tinyusb/src/common/tusb_fifo.c ****           while(remrem--) *dst_u8++ = *ff_buf++;
 787              		.loc 1 299 11 view .LVU301
 300:/Users/joostbooy/Desktop/Code/stm32/lib/tinyusb/src/common/tusb_fifo.c **** 
 788              		.loc 1 300 23 is_stmt 0 view .LVU302
 789 00c8 0EF1FF34 		add	r4, lr, #-1
 299:/Users/joostbooy/Desktop/Code/stm32/lib/tinyusb/src/common/tusb_fifo.c ****           while(remrem--) *dst_u8++ = *ff_buf++;
 790              		.loc 1 299 18 view .LVU303
 791 00cc 3B68     		ldr	r3, [r7]
 792              	.LVL66:
 300:/Users/joostbooy/Desktop/Code/stm32/lib/tinyusb/src/common/tusb_fifo.c **** 
 793              		.loc 1 300 11 is_stmt 1 view .LVU304
 300:/Users/joostbooy/Desktop/Code/stm32/lib/tinyusb/src/common/tusb_fifo.c **** 
 794              		.loc 1 300 16 view .LVU305
 300:/Users/joostbooy/Desktop/Code/stm32/lib/tinyusb/src/common/tusb_fifo.c **** 
 795              		.loc 1 300 23 is_stmt 0 view .LVU306
 796 00ce E0B2     		uxtb	r0, r4
 797              	.LVL67:
 300:/Users/joostbooy/Desktop/Code/stm32/lib/tinyusb/src/common/tusb_fifo.c **** 
 798              		.loc 1 300 16 view .LVU307
 799 00d0 002A     		cmp	r2, #0
 800 00d2 00F08A80 		beq	.L81
 801 00d6 0130     		adds	r0, r0, #1
 802              	.LVL68:
 300:/Users/joostbooy/Desktop/Code/stm32/lib/tinyusb/src/common/tusb_fifo.c **** 
 803              		.loc 1 300 16 view .LVU308
 804 00d8 0DF1040C 		add	ip, sp, #4
 805 00dc 10F00707 		ands	r7, r0, #7
 806              	.LVL69:
 300:/Users/joostbooy/Desktop/Code/stm32/lib/tinyusb/src/common/tusb_fifo.c **** 
 807              		.loc 1 300 16 view .LVU309
 808 00e0 03EB0001 		add	r1, r3, r0
 809 00e4 AC44     		add	ip, ip, r5
 810 00e6 29D0     		beq	.L79
 811 00e8 012F     		cmp	r7, #1
 812 00ea 21D0     		beq	.L113
 813 00ec 022F     		cmp	r7, #2
ARM GAS  /var/folders/84/_x1cyy_j36g486tldtwl37280000gn/T//cc3kgv9b.s 			page 32


 814 00ee 1BD0     		beq	.L114
 815 00f0 032F     		cmp	r7, #3
 816 00f2 15D0     		beq	.L115
 817 00f4 042F     		cmp	r7, #4
 818 00f6 0FD0     		beq	.L116
 819 00f8 052F     		cmp	r7, #5
 820 00fa 09D0     		beq	.L117
 821 00fc 062F     		cmp	r7, #6
 822 00fe 03D0     		beq	.L118
 823              	.LVL70:
 300:/Users/joostbooy/Desktop/Code/stm32/lib/tinyusb/src/common/tusb_fifo.c **** 
 824              		.loc 1 300 27 is_stmt 1 view .LVU310
 300:/Users/joostbooy/Desktop/Code/stm32/lib/tinyusb/src/common/tusb_fifo.c **** 
 825              		.loc 1 300 37 is_stmt 0 view .LVU311
 826 0100 13F8012B 		ldrb	r2, [r3], #1	@ zero_extendqisi2
 827              	.LVL71:
 300:/Users/joostbooy/Desktop/Code/stm32/lib/tinyusb/src/common/tusb_fifo.c **** 
 828              		.loc 1 300 37 view .LVU312
 829 0104 0CF8012F 		strb	r2, [ip, #1]!
 300:/Users/joostbooy/Desktop/Code/stm32/lib/tinyusb/src/common/tusb_fifo.c **** 
 830              		.loc 1 300 16 is_stmt 1 view .LVU313
 831              	.LVL72:
 832              	.L118:
 300:/Users/joostbooy/Desktop/Code/stm32/lib/tinyusb/src/common/tusb_fifo.c **** 
 833              		.loc 1 300 27 view .LVU314
 300:/Users/joostbooy/Desktop/Code/stm32/lib/tinyusb/src/common/tusb_fifo.c **** 
 834              		.loc 1 300 37 is_stmt 0 view .LVU315
 835 0108 13F8015B 		ldrb	r5, [r3], #1	@ zero_extendqisi2
 836              	.LVL73:
 300:/Users/joostbooy/Desktop/Code/stm32/lib/tinyusb/src/common/tusb_fifo.c **** 
 837              		.loc 1 300 37 view .LVU316
 838 010c 0CF8015F 		strb	r5, [ip, #1]!
 300:/Users/joostbooy/Desktop/Code/stm32/lib/tinyusb/src/common/tusb_fifo.c **** 
 839              		.loc 1 300 16 is_stmt 1 view .LVU317
 840              	.L117:
 300:/Users/joostbooy/Desktop/Code/stm32/lib/tinyusb/src/common/tusb_fifo.c **** 
 841              		.loc 1 300 27 view .LVU318
 842              	.LVL74:
 300:/Users/joostbooy/Desktop/Code/stm32/lib/tinyusb/src/common/tusb_fifo.c **** 
 843              		.loc 1 300 37 is_stmt 0 view .LVU319
 844 0110 13F8014B 		ldrb	r4, [r3], #1	@ zero_extendqisi2
 845              	.LVL75:
 300:/Users/joostbooy/Desktop/Code/stm32/lib/tinyusb/src/common/tusb_fifo.c **** 
 846              		.loc 1 300 37 view .LVU320
 847 0114 0CF8014F 		strb	r4, [ip, #1]!
 300:/Users/joostbooy/Desktop/Code/stm32/lib/tinyusb/src/common/tusb_fifo.c **** 
 848              		.loc 1 300 16 is_stmt 1 view .LVU321
 849              	.L116:
 300:/Users/joostbooy/Desktop/Code/stm32/lib/tinyusb/src/common/tusb_fifo.c **** 
 850              		.loc 1 300 27 view .LVU322
 851              	.LVL76:
 300:/Users/joostbooy/Desktop/Code/stm32/lib/tinyusb/src/common/tusb_fifo.c **** 
 852              		.loc 1 300 37 is_stmt 0 view .LVU323
 853 0118 13F801AB 		ldrb	r10, [r3], #1	@ zero_extendqisi2
 854              	.LVL77:
 300:/Users/joostbooy/Desktop/Code/stm32/lib/tinyusb/src/common/tusb_fifo.c **** 
 855              		.loc 1 300 37 view .LVU324
ARM GAS  /var/folders/84/_x1cyy_j36g486tldtwl37280000gn/T//cc3kgv9b.s 			page 33


 856 011c 0CF801AF 		strb	r10, [ip, #1]!
 300:/Users/joostbooy/Desktop/Code/stm32/lib/tinyusb/src/common/tusb_fifo.c **** 
 857              		.loc 1 300 16 is_stmt 1 view .LVU325
 858              	.L115:
 300:/Users/joostbooy/Desktop/Code/stm32/lib/tinyusb/src/common/tusb_fifo.c **** 
 859              		.loc 1 300 27 view .LVU326
 860              	.LVL78:
 300:/Users/joostbooy/Desktop/Code/stm32/lib/tinyusb/src/common/tusb_fifo.c **** 
 861              		.loc 1 300 37 is_stmt 0 view .LVU327
 862 0120 13F801EB 		ldrb	lr, [r3], #1	@ zero_extendqisi2
 863              	.LVL79:
 300:/Users/joostbooy/Desktop/Code/stm32/lib/tinyusb/src/common/tusb_fifo.c **** 
 864              		.loc 1 300 37 view .LVU328
 865 0124 0CF801EF 		strb	lr, [ip, #1]!
 300:/Users/joostbooy/Desktop/Code/stm32/lib/tinyusb/src/common/tusb_fifo.c **** 
 866              		.loc 1 300 16 is_stmt 1 view .LVU329
 867              	.L114:
 300:/Users/joostbooy/Desktop/Code/stm32/lib/tinyusb/src/common/tusb_fifo.c **** 
 868              		.loc 1 300 27 view .LVU330
 869              	.LVL80:
 300:/Users/joostbooy/Desktop/Code/stm32/lib/tinyusb/src/common/tusb_fifo.c **** 
 870              		.loc 1 300 37 is_stmt 0 view .LVU331
 871 0128 13F8010B 		ldrb	r0, [r3], #1	@ zero_extendqisi2
 872              	.LVL81:
 300:/Users/joostbooy/Desktop/Code/stm32/lib/tinyusb/src/common/tusb_fifo.c **** 
 873              		.loc 1 300 37 view .LVU332
 874 012c 0CF8010F 		strb	r0, [ip, #1]!
 300:/Users/joostbooy/Desktop/Code/stm32/lib/tinyusb/src/common/tusb_fifo.c **** 
 875              		.loc 1 300 16 is_stmt 1 view .LVU333
 876              	.L113:
 300:/Users/joostbooy/Desktop/Code/stm32/lib/tinyusb/src/common/tusb_fifo.c **** 
 877              		.loc 1 300 27 view .LVU334
 878              	.LVL82:
 300:/Users/joostbooy/Desktop/Code/stm32/lib/tinyusb/src/common/tusb_fifo.c **** 
 879              		.loc 1 300 37 is_stmt 0 view .LVU335
 880 0130 13F8017B 		ldrb	r7, [r3], #1	@ zero_extendqisi2
 881              	.LVL83:
 300:/Users/joostbooy/Desktop/Code/stm32/lib/tinyusb/src/common/tusb_fifo.c **** 
 882              		.loc 1 300 37 view .LVU336
 883 0134 0CF8017F 		strb	r7, [ip, #1]!
 300:/Users/joostbooy/Desktop/Code/stm32/lib/tinyusb/src/common/tusb_fifo.c **** 
 884              		.loc 1 300 16 is_stmt 1 view .LVU337
 300:/Users/joostbooy/Desktop/Code/stm32/lib/tinyusb/src/common/tusb_fifo.c **** 
 885              		.loc 1 300 16 is_stmt 0 view .LVU338
 886 0138 8B42     		cmp	r3, r1
 887 013a 57D0     		beq	.L78
 888              	.LVL84:
 889              	.L79:
 300:/Users/joostbooy/Desktop/Code/stm32/lib/tinyusb/src/common/tusb_fifo.c **** 
 890              		.loc 1 300 27 is_stmt 1 view .LVU339
 300:/Users/joostbooy/Desktop/Code/stm32/lib/tinyusb/src/common/tusb_fifo.c **** 
 891              		.loc 1 300 46 is_stmt 0 view .LVU340
 892 013c 1A46     		mov	r2, r3
 300:/Users/joostbooy/Desktop/Code/stm32/lib/tinyusb/src/common/tusb_fifo.c **** 
 893              		.loc 1 300 37 view .LVU341
 894 013e 9C78     		ldrb	r4, [r3, #2]	@ zero_extendqisi2
 895 0140 12F8015B 		ldrb	r5, [r2], #1	@ zero_extendqisi2
ARM GAS  /var/folders/84/_x1cyy_j36g486tldtwl37280000gn/T//cc3kgv9b.s 			page 34


 896 0144 DF78     		ldrb	r7, [r3, #3]	@ zero_extendqisi2
 897 0146 1078     		ldrb	r0, [r2]	@ zero_extendqisi2
 898 0148 8CF80150 		strb	r5, [ip, #1]
 300:/Users/joostbooy/Desktop/Code/stm32/lib/tinyusb/src/common/tusb_fifo.c **** 
 899              		.loc 1 300 16 is_stmt 1 view .LVU342
 300:/Users/joostbooy/Desktop/Code/stm32/lib/tinyusb/src/common/tusb_fifo.c **** 
 900              		.loc 1 300 27 view .LVU343
 300:/Users/joostbooy/Desktop/Code/stm32/lib/tinyusb/src/common/tusb_fifo.c **** 
 901              		.loc 1 300 16 view .LVU344
 300:/Users/joostbooy/Desktop/Code/stm32/lib/tinyusb/src/common/tusb_fifo.c **** 
 902              		.loc 1 300 27 view .LVU345
 300:/Users/joostbooy/Desktop/Code/stm32/lib/tinyusb/src/common/tusb_fifo.c **** 
 903              		.loc 1 300 37 is_stmt 0 view .LVU346
 904 014c 1A79     		ldrb	r2, [r3, #4]	@ zero_extendqisi2
 905 014e 5D79     		ldrb	r5, [r3, #5]	@ zero_extendqisi2
 906 0150 8CF80340 		strb	r4, [ip, #3]
 300:/Users/joostbooy/Desktop/Code/stm32/lib/tinyusb/src/common/tusb_fifo.c **** 
 907              		.loc 1 300 16 is_stmt 1 view .LVU347
 300:/Users/joostbooy/Desktop/Code/stm32/lib/tinyusb/src/common/tusb_fifo.c **** 
 908              		.loc 1 300 27 view .LVU348
 300:/Users/joostbooy/Desktop/Code/stm32/lib/tinyusb/src/common/tusb_fifo.c **** 
 909              		.loc 1 300 46 is_stmt 0 view .LVU349
 910 0154 0833     		adds	r3, r3, #8
 300:/Users/joostbooy/Desktop/Code/stm32/lib/tinyusb/src/common/tusb_fifo.c **** 
 911              		.loc 1 300 37 view .LVU350
 912 0156 13F8024C 		ldrb	r4, [r3, #-2]	@ zero_extendqisi2
 913 015a 8CF80470 		strb	r7, [ip, #4]
 300:/Users/joostbooy/Desktop/Code/stm32/lib/tinyusb/src/common/tusb_fifo.c **** 
 914              		.loc 1 300 16 is_stmt 1 view .LVU351
 300:/Users/joostbooy/Desktop/Code/stm32/lib/tinyusb/src/common/tusb_fifo.c **** 
 915              		.loc 1 300 27 view .LVU352
 300:/Users/joostbooy/Desktop/Code/stm32/lib/tinyusb/src/common/tusb_fifo.c **** 
 916              		.loc 1 300 16 is_stmt 0 view .LVU353
 917 015e 8B42     		cmp	r3, r1
 300:/Users/joostbooy/Desktop/Code/stm32/lib/tinyusb/src/common/tusb_fifo.c **** 
 918              		.loc 1 300 37 view .LVU354
 919 0160 13F8017C 		ldrb	r7, [r3, #-1]	@ zero_extendqisi2
 920 0164 8CF80200 		strb	r0, [ip, #2]
 921 0168 8CF80520 		strb	r2, [ip, #5]
 300:/Users/joostbooy/Desktop/Code/stm32/lib/tinyusb/src/common/tusb_fifo.c **** 
 922              		.loc 1 300 16 is_stmt 1 view .LVU355
 300:/Users/joostbooy/Desktop/Code/stm32/lib/tinyusb/src/common/tusb_fifo.c **** 
 923              		.loc 1 300 27 view .LVU356
 300:/Users/joostbooy/Desktop/Code/stm32/lib/tinyusb/src/common/tusb_fifo.c **** 
 924              		.loc 1 300 37 is_stmt 0 view .LVU357
 925 016c 8CF80650 		strb	r5, [ip, #6]
 300:/Users/joostbooy/Desktop/Code/stm32/lib/tinyusb/src/common/tusb_fifo.c **** 
 926              		.loc 1 300 16 is_stmt 1 view .LVU358
 300:/Users/joostbooy/Desktop/Code/stm32/lib/tinyusb/src/common/tusb_fifo.c **** 
 927              		.loc 1 300 27 view .LVU359
 300:/Users/joostbooy/Desktop/Code/stm32/lib/tinyusb/src/common/tusb_fifo.c **** 
 928              		.loc 1 300 37 is_stmt 0 view .LVU360
 929 0170 8CF80740 		strb	r4, [ip, #7]
 300:/Users/joostbooy/Desktop/Code/stm32/lib/tinyusb/src/common/tusb_fifo.c **** 
 930              		.loc 1 300 16 is_stmt 1 view .LVU361
 300:/Users/joostbooy/Desktop/Code/stm32/lib/tinyusb/src/common/tusb_fifo.c **** 
 931              		.loc 1 300 27 view .LVU362
ARM GAS  /var/folders/84/_x1cyy_j36g486tldtwl37280000gn/T//cc3kgv9b.s 			page 35


 932              	.LVL85:
 300:/Users/joostbooy/Desktop/Code/stm32/lib/tinyusb/src/common/tusb_fifo.c **** 
 933              		.loc 1 300 37 is_stmt 0 view .LVU363
 934 0174 0CF8087F 		strb	r7, [ip, #8]!
 300:/Users/joostbooy/Desktop/Code/stm32/lib/tinyusb/src/common/tusb_fifo.c **** 
 935              		.loc 1 300 16 is_stmt 1 view .LVU364
 300:/Users/joostbooy/Desktop/Code/stm32/lib/tinyusb/src/common/tusb_fifo.c **** 
 936              		.loc 1 300 16 is_stmt 0 view .LVU365
 937 0178 E0D1     		bne	.L79
 938 017a 37E0     		b	.L78
 939              	.LVL86:
 940              	.L134:
 300:/Users/joostbooy/Desktop/Code/stm32/lib/tinyusb/src/common/tusb_fifo.c **** 
 941              		.loc 1 300 16 view .LVU366
 942              	.LBE221:
 943              	.LBE215:
 251:/Users/joostbooy/Desktop/Code/stm32/lib/tinyusb/src/common/tusb_fifo.c ****       {
 944              		.loc 1 251 7 is_stmt 1 view .LVU367
 251:/Users/joostbooy/Desktop/Code/stm32/lib/tinyusb/src/common/tusb_fifo.c ****       {
 945              		.loc 1 251 10 is_stmt 0 view .LVU368
 946 017c AE42     		cmp	r6, r5
 947 017e 21D9     		bls	.L136
 261:/Users/joostbooy/Desktop/Code/stm32/lib/tinyusb/src/common/tusb_fifo.c **** 
 948              		.loc 1 261 9 is_stmt 1 view .LVU369
 949 0180 2146     		mov	r1, r4
 950 0182 5246     		mov	r2, r10
 951 0184 4046     		mov	r0, r8
 952              	.LVL87:
 261:/Users/joostbooy/Desktop/Code/stm32/lib/tinyusb/src/common/tusb_fifo.c **** 
 953              		.loc 1 261 9 is_stmt 0 view .LVU370
 954 0186 FFF7FEFF 		bl	memcpy
 955              	.LVL88:
 264:/Users/joostbooy/Desktop/Code/stm32/lib/tinyusb/src/common/tusb_fifo.c ****       }
 956              		.loc 1 264 9 is_stmt 1 view .LVU371
 957 018a 3968     		ldr	r1, [r7]
 958 018c 4A46     		mov	r2, r9
 959 018e 08EB0A00 		add	r0, r8, r10
 960 0192 FFF7FEFF 		bl	memcpy
 961              	.LVL89:
 962              	.L67:
 264:/Users/joostbooy/Desktop/Code/stm32/lib/tinyusb/src/common/tusb_fifo.c ****       }
 963              		.loc 1 264 9 is_stmt 0 view .LVU372
 964              	.LBE214:
 965              	.LBE213:
 459:/Users/joostbooy/Desktop/Code/stm32/lib/tinyusb/src/common/tusb_fifo.c **** 
 460:/Users/joostbooy/Desktop/Code/stm32/lib/tinyusb/src/common/tusb_fifo.c ****   return n;
 461:/Users/joostbooy/Desktop/Code/stm32/lib/tinyusb/src/common/tusb_fifo.c **** }
 966              		.loc 1 461 1 view .LVU373
 967 0196 3046     		mov	r0, r6
 968 0198 02B0     		add	sp, sp, #8
 969              		.cfi_remember_state
 970              		.cfi_def_cfa_offset 32
 971              		@ sp needed
 972 019a BDE8F087 		pop	{r4, r5, r6, r7, r8, r9, r10, pc}
 973              	.LVL90:
 974              	.L133:
 975              		.cfi_restore_state
ARM GAS  /var/folders/84/_x1cyy_j36g486tldtwl37280000gn/T//cc3kgv9b.s 			page 36


 448:/Users/joostbooy/Desktop/Code/stm32/lib/tinyusb/src/common/tusb_fifo.c ****     cnt = f->depth;
 976              		.loc 1 448 5 is_stmt 1 view .LVU374
 977              	.LBB227:
 978              	.LBI227:
 396:/Users/joostbooy/Desktop/Code/stm32/lib/tinyusb/src/common/tusb_fifo.c **** {
 979              		.loc 1 396 10 view .LVU375
 980              	.LBB228:
 398:/Users/joostbooy/Desktop/Code/stm32/lib/tinyusb/src/common/tusb_fifo.c ****   if ( wr_idx >= f->depth )
 981              		.loc 1 398 3 view .LVU376
 399:/Users/joostbooy/Desktop/Code/stm32/lib/tinyusb/src/common/tusb_fifo.c ****   {
 982              		.loc 1 399 3 view .LVU377
 399:/Users/joostbooy/Desktop/Code/stm32/lib/tinyusb/src/common/tusb_fifo.c ****   {
 983              		.loc 1 399 6 is_stmt 0 view .LVU378
 984 019e 9D42     		cmp	r5, r3
 401:/Users/joostbooy/Desktop/Code/stm32/lib/tinyusb/src/common/tusb_fifo.c ****   }else
 985              		.loc 1 401 5 is_stmt 1 view .LVU379
 401:/Users/joostbooy/Desktop/Code/stm32/lib/tinyusb/src/common/tusb_fifo.c ****   }else
 986              		.loc 1 401 12 is_stmt 0 view .LVU380
 987 01a0 94BF     		ite	ls
 988 01a2 5C1B     		subls	r4, r3, r5
 404:/Users/joostbooy/Desktop/Code/stm32/lib/tinyusb/src/common/tusb_fifo.c ****   }
 989              		.loc 1 404 5 is_stmt 1 view .LVU381
 404:/Users/joostbooy/Desktop/Code/stm32/lib/tinyusb/src/common/tusb_fifo.c ****   }
 990              		.loc 1 404 12 is_stmt 0 view .LVU382
 991 01a4 EC18     		addhi	r4, r5, r3
 992 01a6 A4B2     		uxth	r4, r4
 993              	.LVL91:
 407:/Users/joostbooy/Desktop/Code/stm32/lib/tinyusb/src/common/tusb_fifo.c **** 
 994              		.loc 1 407 3 is_stmt 1 view .LVU383
 407:/Users/joostbooy/Desktop/Code/stm32/lib/tinyusb/src/common/tusb_fifo.c **** 
 995              		.loc 1 407 13 is_stmt 0 view .LVU384
 996 01a8 7C81     		strh	r4, [r7, #10]	@ movhi
 409:/Users/joostbooy/Desktop/Code/stm32/lib/tinyusb/src/common/tusb_fifo.c **** }
 997              		.loc 1 409 3 is_stmt 1 view .LVU385
 998              	.LVL92:
 409:/Users/joostbooy/Desktop/Code/stm32/lib/tinyusb/src/common/tusb_fifo.c **** }
 999              		.loc 1 409 3 is_stmt 0 view .LVU386
 1000              	.LBE228:
 1001              	.LBE227:
 449:/Users/joostbooy/Desktop/Code/stm32/lib/tinyusb/src/common/tusb_fifo.c ****   }
 1002              		.loc 1 449 5 is_stmt 1 view .LVU387
 1003              	.LBB230:
 1004              	.LBB229:
 407:/Users/joostbooy/Desktop/Code/stm32/lib/tinyusb/src/common/tusb_fifo.c **** 
 1005              		.loc 1 407 13 is_stmt 0 view .LVU388
 1006 01aa 2E46     		mov	r6, r5
 1007 01ac 3EE7     		b	.L68
 1008              	.LVL93:
 1009              	.L135:
 407:/Users/joostbooy/Desktop/Code/stm32/lib/tinyusb/src/common/tusb_fifo.c **** 
 1010              		.loc 1 407 13 view .LVU389
 1011              	.LBE229:
 1012              	.LBE230:
 1013              	.LBB231:
 1014              	.LBB224:
 272:/Users/joostbooy/Desktop/Code/stm32/lib/tinyusb/src/common/tusb_fifo.c ****       }
 1015              		.loc 1 272 9 is_stmt 1 view .LVU390
ARM GAS  /var/folders/84/_x1cyy_j36g486tldtwl37280000gn/T//cc3kgv9b.s 			page 37


 1016 01ae 16FB0EF1 		smulbb	r1, r6, lr
 1017 01b2 8AB2     		uxth	r2, r1
 1018 01b4 4046     		mov	r0, r8
 1019              	.LVL94:
 272:/Users/joostbooy/Desktop/Code/stm32/lib/tinyusb/src/common/tusb_fifo.c ****       }
 1020              		.loc 1 272 9 is_stmt 0 view .LVU391
 1021 01b6 2146     		mov	r1, r4
 1022 01b8 FFF7FEFF 		bl	_ff_pull_const_addr
 1023              	.LVL95:
 272:/Users/joostbooy/Desktop/Code/stm32/lib/tinyusb/src/common/tusb_fifo.c ****       }
 1024              		.loc 1 272 9 view .LVU392
 1025              	.LBE224:
 1026              	.LBE231:
 1027              		.loc 1 461 1 view .LVU393
 1028 01bc 3046     		mov	r0, r6
 1029 01be 02B0     		add	sp, sp, #8
 1030              		.cfi_remember_state
 1031              		.cfi_def_cfa_offset 32
 1032              		@ sp needed
 1033 01c0 BDE8F087 		pop	{r4, r5, r6, r7, r8, r9, r10, pc}
 1034              	.LVL96:
 1035              	.L136:
 1036              		.cfi_restore_state
 1037              	.LBB232:
 1038              	.LBB225:
 254:/Users/joostbooy/Desktop/Code/stm32/lib/tinyusb/src/common/tusb_fifo.c ****       }
 1039              		.loc 1 254 9 is_stmt 1 view .LVU394
 1040 01c4 0EFB06F2 		mul	r2, lr, r6
 1041 01c8 2146     		mov	r1, r4
 1042 01ca 4046     		mov	r0, r8
 1043              	.LVL97:
 254:/Users/joostbooy/Desktop/Code/stm32/lib/tinyusb/src/common/tusb_fifo.c ****       }
 1044              		.loc 1 254 9 is_stmt 0 view .LVU395
 1045 01cc FFF7FEFF 		bl	memcpy
 1046              	.LVL98:
 254:/Users/joostbooy/Desktop/Code/stm32/lib/tinyusb/src/common/tusb_fifo.c ****       }
 1047              		.loc 1 254 9 view .LVU396
 1048              	.LBE225:
 1049              	.LBE232:
 1050              		.loc 1 461 1 view .LVU397
 1051 01d0 3046     		mov	r0, r6
 1052 01d2 02B0     		add	sp, sp, #8
 1053              		.cfi_remember_state
 1054              		.cfi_def_cfa_offset 32
 1055              		@ sp needed
 1056 01d4 BDE8F087 		pop	{r4, r5, r6, r7, r8, r9, r10, pc}
 1057              	.LVL99:
 1058              	.L76:
 1059              		.cfi_restore_state
 1060              	.LBB233:
 1061              	.LBB226:
 1062              	.LBB223:
 306:/Users/joostbooy/Desktop/Code/stm32/lib/tinyusb/src/common/tusb_fifo.c ****         }
 1063              		.loc 1 306 11 is_stmt 1 view .LVU398
 306:/Users/joostbooy/Desktop/Code/stm32/lib/tinyusb/src/common/tusb_fifo.c ****         }
 1064              		.loc 1 306 18 is_stmt 0 view .LVU399
 1065 01d8 3968     		ldr	r1, [r7]
ARM GAS  /var/folders/84/_x1cyy_j36g486tldtwl37280000gn/T//cc3kgv9b.s 			page 38


 1066              	.LVL100:
 310:/Users/joostbooy/Desktop/Code/stm32/lib/tinyusb/src/common/tusb_fifo.c ****       }
 1067              		.loc 1 310 9 is_stmt 1 view .LVU400
 310:/Users/joostbooy/Desktop/Code/stm32/lib/tinyusb/src/common/tusb_fifo.c ****       }
 1068              		.loc 1 310 12 is_stmt 0 view .LVU401
 1069 01da B9F1000F 		cmp	r9, #0
 1070 01de DAD0     		beq	.L67
 1071              	.LVL101:
 1072              	.L137:
 310:/Users/joostbooy/Desktop/Code/stm32/lib/tinyusb/src/common/tusb_fifo.c ****       }
 1073              		.loc 1 310 29 is_stmt 1 view .LVU402
 1074 01e0 4A46     		mov	r2, r9
 1075 01e2 4046     		mov	r0, r8
 1076 01e4 FFF7FEFF 		bl	_ff_pull_const_addr
 1077              	.LVL102:
 310:/Users/joostbooy/Desktop/Code/stm32/lib/tinyusb/src/common/tusb_fifo.c ****       }
 1078              		.loc 1 310 29 is_stmt 0 view .LVU403
 1079 01e8 D5E7     		b	.L67
 1080              	.LVL103:
 1081              	.L81:
 1082              	.LBB222:
 299:/Users/joostbooy/Desktop/Code/stm32/lib/tinyusb/src/common/tusb_fifo.c ****           while(remrem--) *dst_u8++ = *ff_buf++;
 1083              		.loc 1 299 18 view .LVU404
 1084 01ea 1946     		mov	r1, r3
 1085              	.LVL104:
 1086              	.L78:
 302:/Users/joostbooy/Desktop/Code/stm32/lib/tinyusb/src/common/tusb_fifo.c ****         }
 1087              		.loc 1 302 11 is_stmt 1 view .LVU405
 302:/Users/joostbooy/Desktop/Code/stm32/lib/tinyusb/src/common/tusb_fifo.c ****         }
 1088              		.loc 1 302 19 is_stmt 0 view .LVU406
 1089 01ec 019B     		ldr	r3, [sp, #4]
 1090 01ee C8F80030 		str	r3, [r8]
 1091              	.LVL105:
 302:/Users/joostbooy/Desktop/Code/stm32/lib/tinyusb/src/common/tusb_fifo.c ****         }
 1092              		.loc 1 302 19 view .LVU407
 1093              	.LBE222:
 310:/Users/joostbooy/Desktop/Code/stm32/lib/tinyusb/src/common/tusb_fifo.c ****       }
 1094              		.loc 1 310 9 is_stmt 1 view .LVU408
 310:/Users/joostbooy/Desktop/Code/stm32/lib/tinyusb/src/common/tusb_fifo.c ****       }
 1095              		.loc 1 310 12 is_stmt 0 view .LVU409
 1096 01f2 B9F1000F 		cmp	r9, #0
 1097 01f6 CED0     		beq	.L67
 1098 01f8 F2E7     		b	.L137
 1099              	.LBE223:
 1100              	.LBE226:
 1101              	.LBE233:
 1102              		.cfi_endproc
 1103              	.LFE71:
 1105 01fa 00BF     		.section	.text._tu_fifo_read_n,"ax",%progbits
 1106              		.align	1
 1107              		.p2align 2,,3
 1108              		.syntax unified
 1109              		.thumb
 1110              		.thumb_func
 1111              		.fpu fpv4-sp-d16
 1113              	_tu_fifo_read_n:
 1114              	.LVL106:
ARM GAS  /var/folders/84/_x1cyy_j36g486tldtwl37280000gn/T//cc3kgv9b.s 			page 39


 1115              	.LFB73:
 462:/Users/joostbooy/Desktop/Code/stm32/lib/tinyusb/src/common/tusb_fifo.c **** 
 463:/Users/joostbooy/Desktop/Code/stm32/lib/tinyusb/src/common/tusb_fifo.c **** static uint16_t _tu_fifo_write_n(tu_fifo_t* f, const void * data, uint16_t n, tu_fifo_copy_mode_t c
 464:/Users/joostbooy/Desktop/Code/stm32/lib/tinyusb/src/common/tusb_fifo.c **** {
 465:/Users/joostbooy/Desktop/Code/stm32/lib/tinyusb/src/common/tusb_fifo.c ****   if ( n == 0 ) return 0;
 466:/Users/joostbooy/Desktop/Code/stm32/lib/tinyusb/src/common/tusb_fifo.c **** 
 467:/Users/joostbooy/Desktop/Code/stm32/lib/tinyusb/src/common/tusb_fifo.c ****   _ff_lock(f->mutex_wr);
 468:/Users/joostbooy/Desktop/Code/stm32/lib/tinyusb/src/common/tusb_fifo.c **** 
 469:/Users/joostbooy/Desktop/Code/stm32/lib/tinyusb/src/common/tusb_fifo.c ****   uint16_t wr_idx = f->wr_idx;
 470:/Users/joostbooy/Desktop/Code/stm32/lib/tinyusb/src/common/tusb_fifo.c ****   uint16_t rd_idx = f->rd_idx;
 471:/Users/joostbooy/Desktop/Code/stm32/lib/tinyusb/src/common/tusb_fifo.c **** 
 472:/Users/joostbooy/Desktop/Code/stm32/lib/tinyusb/src/common/tusb_fifo.c ****   uint8_t const* buf8 = (uint8_t const*) data;
 473:/Users/joostbooy/Desktop/Code/stm32/lib/tinyusb/src/common/tusb_fifo.c **** 
 474:/Users/joostbooy/Desktop/Code/stm32/lib/tinyusb/src/common/tusb_fifo.c ****   TU_LOG(TU_FIFO_DBG, "rd = %3u, wr = %3u, count = %3u, remain = %3u, n = %3u:  ",
 475:/Users/joostbooy/Desktop/Code/stm32/lib/tinyusb/src/common/tusb_fifo.c ****                        rd_idx, wr_idx, _ff_count(f->depth, wr_idx, rd_idx), _ff_remaining(f->depth,
 476:/Users/joostbooy/Desktop/Code/stm32/lib/tinyusb/src/common/tusb_fifo.c **** 
 477:/Users/joostbooy/Desktop/Code/stm32/lib/tinyusb/src/common/tusb_fifo.c ****   if ( !f->overwritable )
 478:/Users/joostbooy/Desktop/Code/stm32/lib/tinyusb/src/common/tusb_fifo.c ****   {
 479:/Users/joostbooy/Desktop/Code/stm32/lib/tinyusb/src/common/tusb_fifo.c ****     // limit up to full
 480:/Users/joostbooy/Desktop/Code/stm32/lib/tinyusb/src/common/tusb_fifo.c ****     uint16_t const remain = _ff_remaining(f->depth, wr_idx, rd_idx);
 481:/Users/joostbooy/Desktop/Code/stm32/lib/tinyusb/src/common/tusb_fifo.c ****     n = tu_min16(n, remain);
 482:/Users/joostbooy/Desktop/Code/stm32/lib/tinyusb/src/common/tusb_fifo.c ****   }
 483:/Users/joostbooy/Desktop/Code/stm32/lib/tinyusb/src/common/tusb_fifo.c ****   else
 484:/Users/joostbooy/Desktop/Code/stm32/lib/tinyusb/src/common/tusb_fifo.c ****   {
 485:/Users/joostbooy/Desktop/Code/stm32/lib/tinyusb/src/common/tusb_fifo.c ****     // In over-writable mode, fifo_write() is allowed even when fifo is full. In such case,
 486:/Users/joostbooy/Desktop/Code/stm32/lib/tinyusb/src/common/tusb_fifo.c ****     // oldest data in fifo i.e at read pointer data will be overwritten
 487:/Users/joostbooy/Desktop/Code/stm32/lib/tinyusb/src/common/tusb_fifo.c ****     // Note: we can modify read buffer contents but we must not modify the read index itself within
 488:/Users/joostbooy/Desktop/Code/stm32/lib/tinyusb/src/common/tusb_fifo.c ****     // Since it would end up in a race condition with read functions!
 489:/Users/joostbooy/Desktop/Code/stm32/lib/tinyusb/src/common/tusb_fifo.c ****     if ( n >= f->depth )
 490:/Users/joostbooy/Desktop/Code/stm32/lib/tinyusb/src/common/tusb_fifo.c ****     {
 491:/Users/joostbooy/Desktop/Code/stm32/lib/tinyusb/src/common/tusb_fifo.c ****       // Only copy last part
 492:/Users/joostbooy/Desktop/Code/stm32/lib/tinyusb/src/common/tusb_fifo.c ****       if ( copy_mode == TU_FIFO_COPY_INC )
 493:/Users/joostbooy/Desktop/Code/stm32/lib/tinyusb/src/common/tusb_fifo.c ****       {
 494:/Users/joostbooy/Desktop/Code/stm32/lib/tinyusb/src/common/tusb_fifo.c ****         buf8 += (n - f->depth) * f->item_size;
 495:/Users/joostbooy/Desktop/Code/stm32/lib/tinyusb/src/common/tusb_fifo.c ****       }else
 496:/Users/joostbooy/Desktop/Code/stm32/lib/tinyusb/src/common/tusb_fifo.c ****       {
 497:/Users/joostbooy/Desktop/Code/stm32/lib/tinyusb/src/common/tusb_fifo.c ****         // TODO should read from hw fifo to discard data, however reading an odd number could
 498:/Users/joostbooy/Desktop/Code/stm32/lib/tinyusb/src/common/tusb_fifo.c ****         // accidentally discard data.
 499:/Users/joostbooy/Desktop/Code/stm32/lib/tinyusb/src/common/tusb_fifo.c ****       }
 500:/Users/joostbooy/Desktop/Code/stm32/lib/tinyusb/src/common/tusb_fifo.c **** 
 501:/Users/joostbooy/Desktop/Code/stm32/lib/tinyusb/src/common/tusb_fifo.c ****       n = f->depth;
 502:/Users/joostbooy/Desktop/Code/stm32/lib/tinyusb/src/common/tusb_fifo.c **** 
 503:/Users/joostbooy/Desktop/Code/stm32/lib/tinyusb/src/common/tusb_fifo.c ****       // We start writing at the read pointer's position since we fill the whole buffer
 504:/Users/joostbooy/Desktop/Code/stm32/lib/tinyusb/src/common/tusb_fifo.c ****       wr_idx = rd_idx;
 505:/Users/joostbooy/Desktop/Code/stm32/lib/tinyusb/src/common/tusb_fifo.c ****     }
 506:/Users/joostbooy/Desktop/Code/stm32/lib/tinyusb/src/common/tusb_fifo.c ****     else
 507:/Users/joostbooy/Desktop/Code/stm32/lib/tinyusb/src/common/tusb_fifo.c ****     {
 508:/Users/joostbooy/Desktop/Code/stm32/lib/tinyusb/src/common/tusb_fifo.c ****       uint16_t const overflowable_count = _ff_count(f->depth, wr_idx, rd_idx);
 509:/Users/joostbooy/Desktop/Code/stm32/lib/tinyusb/src/common/tusb_fifo.c ****       if (overflowable_count + n >= 2*f->depth)
 510:/Users/joostbooy/Desktop/Code/stm32/lib/tinyusb/src/common/tusb_fifo.c ****       {
 511:/Users/joostbooy/Desktop/Code/stm32/lib/tinyusb/src/common/tusb_fifo.c ****         // Double overflowed
 512:/Users/joostbooy/Desktop/Code/stm32/lib/tinyusb/src/common/tusb_fifo.c ****         // Index is bigger than the allowed range [0,2*depth)
 513:/Users/joostbooy/Desktop/Code/stm32/lib/tinyusb/src/common/tusb_fifo.c ****         // re-position write index to have a full fifo after pushed
 514:/Users/joostbooy/Desktop/Code/stm32/lib/tinyusb/src/common/tusb_fifo.c ****         wr_idx = advance_index(f->depth, rd_idx, f->depth - n);
 515:/Users/joostbooy/Desktop/Code/stm32/lib/tinyusb/src/common/tusb_fifo.c **** 
 516:/Users/joostbooy/Desktop/Code/stm32/lib/tinyusb/src/common/tusb_fifo.c ****         // TODO we should also shift out n bytes from read index since we avoid changing rd index !
 517:/Users/joostbooy/Desktop/Code/stm32/lib/tinyusb/src/common/tusb_fifo.c ****         // However memmove() is expensive due to actual copying + wrapping consideration.
ARM GAS  /var/folders/84/_x1cyy_j36g486tldtwl37280000gn/T//cc3kgv9b.s 			page 40


 518:/Users/joostbooy/Desktop/Code/stm32/lib/tinyusb/src/common/tusb_fifo.c ****         // Also race condition could happen anyway if read() is invoke while moving result in corru
 519:/Users/joostbooy/Desktop/Code/stm32/lib/tinyusb/src/common/tusb_fifo.c ****         // currently deliberately not implemented --> result in incorrect data read back
 520:/Users/joostbooy/Desktop/Code/stm32/lib/tinyusb/src/common/tusb_fifo.c ****       }else
 521:/Users/joostbooy/Desktop/Code/stm32/lib/tinyusb/src/common/tusb_fifo.c ****       {
 522:/Users/joostbooy/Desktop/Code/stm32/lib/tinyusb/src/common/tusb_fifo.c ****         // normal + single overflowed:
 523:/Users/joostbooy/Desktop/Code/stm32/lib/tinyusb/src/common/tusb_fifo.c ****         // Index is in the range of [0,2*depth) and thus detect and recoverable. Recovering is hand
 524:/Users/joostbooy/Desktop/Code/stm32/lib/tinyusb/src/common/tusb_fifo.c ****         // Therefore we just increase write index
 525:/Users/joostbooy/Desktop/Code/stm32/lib/tinyusb/src/common/tusb_fifo.c ****         // we will correct (re-position) read index later on in fifo_read() function
 526:/Users/joostbooy/Desktop/Code/stm32/lib/tinyusb/src/common/tusb_fifo.c ****       }
 527:/Users/joostbooy/Desktop/Code/stm32/lib/tinyusb/src/common/tusb_fifo.c ****     }
 528:/Users/joostbooy/Desktop/Code/stm32/lib/tinyusb/src/common/tusb_fifo.c ****   }
 529:/Users/joostbooy/Desktop/Code/stm32/lib/tinyusb/src/common/tusb_fifo.c **** 
 530:/Users/joostbooy/Desktop/Code/stm32/lib/tinyusb/src/common/tusb_fifo.c ****   if (n)
 531:/Users/joostbooy/Desktop/Code/stm32/lib/tinyusb/src/common/tusb_fifo.c ****   {
 532:/Users/joostbooy/Desktop/Code/stm32/lib/tinyusb/src/common/tusb_fifo.c ****     uint16_t wr_ptr = idx2ptr(f->depth, wr_idx);
 533:/Users/joostbooy/Desktop/Code/stm32/lib/tinyusb/src/common/tusb_fifo.c **** 
 534:/Users/joostbooy/Desktop/Code/stm32/lib/tinyusb/src/common/tusb_fifo.c ****     TU_LOG(TU_FIFO_DBG, "actual_n = %u, wr_ptr = %u", n, wr_ptr);
 535:/Users/joostbooy/Desktop/Code/stm32/lib/tinyusb/src/common/tusb_fifo.c **** 
 536:/Users/joostbooy/Desktop/Code/stm32/lib/tinyusb/src/common/tusb_fifo.c ****     // Write data
 537:/Users/joostbooy/Desktop/Code/stm32/lib/tinyusb/src/common/tusb_fifo.c ****     _ff_push_n(f, buf8, n, wr_ptr, copy_mode);
 538:/Users/joostbooy/Desktop/Code/stm32/lib/tinyusb/src/common/tusb_fifo.c **** 
 539:/Users/joostbooy/Desktop/Code/stm32/lib/tinyusb/src/common/tusb_fifo.c ****     // Advance index
 540:/Users/joostbooy/Desktop/Code/stm32/lib/tinyusb/src/common/tusb_fifo.c ****     f->wr_idx = advance_index(f->depth, wr_idx, n);
 541:/Users/joostbooy/Desktop/Code/stm32/lib/tinyusb/src/common/tusb_fifo.c **** 
 542:/Users/joostbooy/Desktop/Code/stm32/lib/tinyusb/src/common/tusb_fifo.c ****     TU_LOG(TU_FIFO_DBG, "\tnew_wr = %u\r\n", f->wr_idx);
 543:/Users/joostbooy/Desktop/Code/stm32/lib/tinyusb/src/common/tusb_fifo.c ****   }
 544:/Users/joostbooy/Desktop/Code/stm32/lib/tinyusb/src/common/tusb_fifo.c **** 
 545:/Users/joostbooy/Desktop/Code/stm32/lib/tinyusb/src/common/tusb_fifo.c ****   _ff_unlock(f->mutex_wr);
 546:/Users/joostbooy/Desktop/Code/stm32/lib/tinyusb/src/common/tusb_fifo.c **** 
 547:/Users/joostbooy/Desktop/Code/stm32/lib/tinyusb/src/common/tusb_fifo.c ****   return n;
 548:/Users/joostbooy/Desktop/Code/stm32/lib/tinyusb/src/common/tusb_fifo.c **** }
 549:/Users/joostbooy/Desktop/Code/stm32/lib/tinyusb/src/common/tusb_fifo.c **** 
 550:/Users/joostbooy/Desktop/Code/stm32/lib/tinyusb/src/common/tusb_fifo.c **** static uint16_t _tu_fifo_read_n(tu_fifo_t* f, void * buffer, uint16_t n, tu_fifo_copy_mode_t copy_m
 551:/Users/joostbooy/Desktop/Code/stm32/lib/tinyusb/src/common/tusb_fifo.c **** {
 1116              		.loc 1 551 1 is_stmt 1 view -0
 1117              		.cfi_startproc
 1118              		@ args = 0, pretend = 0, frame = 0
 1119              		@ frame_needed = 0, uses_anonymous_args = 0
 552:/Users/joostbooy/Desktop/Code/stm32/lib/tinyusb/src/common/tusb_fifo.c ****   _ff_lock(f->mutex_rd);
 1120              		.loc 1 552 24 view .LVU411
 553:/Users/joostbooy/Desktop/Code/stm32/lib/tinyusb/src/common/tusb_fifo.c **** 
 554:/Users/joostbooy/Desktop/Code/stm32/lib/tinyusb/src/common/tusb_fifo.c ****   // Peek the data
 555:/Users/joostbooy/Desktop/Code/stm32/lib/tinyusb/src/common/tusb_fifo.c ****   // f->rd_idx might get modified in case of an overflow so we can not use a local variable
 556:/Users/joostbooy/Desktop/Code/stm32/lib/tinyusb/src/common/tusb_fifo.c ****   n = _tu_fifo_peek_n(f, buffer, n, f->wr_idx, f->rd_idx, copy_mode);
 1121              		.loc 1 556 3 view .LVU412
 551:/Users/joostbooy/Desktop/Code/stm32/lib/tinyusb/src/common/tusb_fifo.c ****   _ff_lock(f->mutex_rd);
 1122              		.loc 1 551 1 is_stmt 0 view .LVU413
 1123 0000 70B5     		push	{r4, r5, r6, lr}
 1124              		.cfi_def_cfa_offset 16
 1125              		.cfi_offset 4, -16
 1126              		.cfi_offset 5, -12
 1127              		.cfi_offset 6, -8
 1128              		.cfi_offset 14, -4
 1129              		.loc 1 556 7 view .LVU414
 1130 0002 0689     		ldrh	r6, [r0, #8]
 1131 0004 4589     		ldrh	r5, [r0, #10]
 551:/Users/joostbooy/Desktop/Code/stm32/lib/tinyusb/src/common/tusb_fifo.c ****   _ff_lock(f->mutex_rd);
ARM GAS  /var/folders/84/_x1cyy_j36g486tldtwl37280000gn/T//cc3kgv9b.s 			page 41


 1132              		.loc 1 551 1 view .LVU415
 1133 0006 82B0     		sub	sp, sp, #8
 1134              		.cfi_def_cfa_offset 24
 551:/Users/joostbooy/Desktop/Code/stm32/lib/tinyusb/src/common/tusb_fifo.c ****   _ff_lock(f->mutex_rd);
 1135              		.loc 1 551 1 view .LVU416
 1136 0008 0446     		mov	r4, r0
 1137              		.loc 1 556 7 view .LVU417
 1138 000a ADB2     		uxth	r5, r5
 1139 000c 0193     		str	r3, [sp, #4]
 1140 000e 0095     		str	r5, [sp]
 1141 0010 B3B2     		uxth	r3, r6
 1142              	.LVL107:
 1143              		.loc 1 556 7 view .LVU418
 1144 0012 FFF7FEFF 		bl	_tu_fifo_peek_n
 1145              	.LVL108:
 557:/Users/joostbooy/Desktop/Code/stm32/lib/tinyusb/src/common/tusb_fifo.c **** 
 558:/Users/joostbooy/Desktop/Code/stm32/lib/tinyusb/src/common/tusb_fifo.c ****   // Advance read pointer
 559:/Users/joostbooy/Desktop/Code/stm32/lib/tinyusb/src/common/tusb_fifo.c ****   f->rd_idx = advance_index(f->depth, f->rd_idx, n);
 1146              		.loc 1 559 15 view .LVU419
 1147 0016 6289     		ldrh	r2, [r4, #10]
 1148 0018 A188     		ldrh	r1, [r4, #4]
 1149              	.LVL109:
 1150              		.loc 1 559 3 is_stmt 1 view .LVU420
 1151              		.loc 1 559 15 is_stmt 0 view .LVU421
 1152 001a 96B2     		uxth	r6, r2
 1153              	.LVL110:
 1154              	.LBB234:
 1155              	.LBI234:
 350:/Users/joostbooy/Desktop/Code/stm32/lib/tinyusb/src/common/tusb_fifo.c **** {
 1156              		.loc 1 350 17 is_stmt 1 view .LVU422
 1157              	.LBB235:
 355:/Users/joostbooy/Desktop/Code/stm32/lib/tinyusb/src/common/tusb_fifo.c ****   if ( (idx > new_idx) || (new_idx >= 2*depth) )
 1158              		.loc 1 355 3 view .LVU423
 355:/Users/joostbooy/Desktop/Code/stm32/lib/tinyusb/src/common/tusb_fifo.c ****   if ( (idx > new_idx) || (new_idx >= 2*depth) )
 1159              		.loc 1 355 12 is_stmt 0 view .LVU424
 1160 001c 3318     		adds	r3, r6, r0
 1161 001e 9BB2     		uxth	r3, r3
 1162              	.LVL111:
 356:/Users/joostbooy/Desktop/Code/stm32/lib/tinyusb/src/common/tusb_fifo.c ****   {
 1163              		.loc 1 356 3 is_stmt 1 view .LVU425
 356:/Users/joostbooy/Desktop/Code/stm32/lib/tinyusb/src/common/tusb_fifo.c ****   {
 1164              		.loc 1 356 6 is_stmt 0 view .LVU426
 1165 0020 9E42     		cmp	r6, r3
 1166 0022 4FEA4105 		lsl	r5, r1, #1
 1167 0026 02D8     		bhi	.L139
 356:/Users/joostbooy/Desktop/Code/stm32/lib/tinyusb/src/common/tusb_fifo.c ****   {
 1168              		.loc 1 356 24 view .LVU427
 1169 0028 B3EB410F 		cmp	r3, r1, lsl #1
 1170 002c 01DB     		blt	.L140
 1171              	.L139:
 1172              	.LBB236:
 358:/Users/joostbooy/Desktop/Code/stm32/lib/tinyusb/src/common/tusb_fifo.c ****     new_idx = (uint16_t) (new_idx + non_used_index_space);
 1173              		.loc 1 358 5 is_stmt 1 view .LVU428
 1174              	.LVL112:
 359:/Users/joostbooy/Desktop/Code/stm32/lib/tinyusb/src/common/tusb_fifo.c ****   }
 1175              		.loc 1 359 5 view .LVU429
 1176 002e 5A1B     		subs	r2, r3, r5
ARM GAS  /var/folders/84/_x1cyy_j36g486tldtwl37280000gn/T//cc3kgv9b.s 			page 42


 1177 0030 93B2     		uxth	r3, r2
 1178              	.LVL113:
 1179              	.L140:
 359:/Users/joostbooy/Desktop/Code/stm32/lib/tinyusb/src/common/tusb_fifo.c ****   }
 1180              		.loc 1 359 5 is_stmt 0 view .LVU430
 1181              	.LBE236:
 362:/Users/joostbooy/Desktop/Code/stm32/lib/tinyusb/src/common/tusb_fifo.c **** }
 1182              		.loc 1 362 3 is_stmt 1 view .LVU431
 362:/Users/joostbooy/Desktop/Code/stm32/lib/tinyusb/src/common/tusb_fifo.c **** }
 1183              		.loc 1 362 3 is_stmt 0 view .LVU432
 1184              	.LBE235:
 1185              	.LBE234:
 1186              		.loc 1 559 13 view .LVU433
 1187 0032 6381     		strh	r3, [r4, #10]	@ movhi
 560:/Users/joostbooy/Desktop/Code/stm32/lib/tinyusb/src/common/tusb_fifo.c **** 
 561:/Users/joostbooy/Desktop/Code/stm32/lib/tinyusb/src/common/tusb_fifo.c ****   _ff_unlock(f->mutex_rd);
 1188              		.loc 1 561 26 is_stmt 1 view .LVU434
 562:/Users/joostbooy/Desktop/Code/stm32/lib/tinyusb/src/common/tusb_fifo.c ****   return n;
 1189              		.loc 1 562 3 view .LVU435
 563:/Users/joostbooy/Desktop/Code/stm32/lib/tinyusb/src/common/tusb_fifo.c **** }
 1190              		.loc 1 563 1 is_stmt 0 view .LVU436
 1191 0034 02B0     		add	sp, sp, #8
 1192              		.cfi_def_cfa_offset 16
 1193              		@ sp needed
 1194 0036 70BD     		pop	{r4, r5, r6, pc}
 1195              		.loc 1 563 1 view .LVU437
 1196              		.cfi_endproc
 1197              	.LFE73:
 1199              		.section	.text._ff_push_const_addr,"ax",%progbits
 1200              		.align	1
 1201              		.p2align 2,,3
 1202              		.syntax unified
 1203              		.thumb
 1204              		.thumb_func
 1205              		.fpu fpv4-sp-d16
 1207              	_ff_push_const_addr:
 1208              	.LVL114:
 1209              	.LFB59:
  99:/Users/joostbooy/Desktop/Code/stm32/lib/tinyusb/src/common/tusb_fifo.c ****   volatile const uint32_t * reg_rx = (volatile const uint32_t *) app_buf;
 1210              		.loc 1 99 1 is_stmt 1 view -0
 1211              		.cfi_startproc
 1212              		@ args = 0, pretend = 0, frame = 8
 1213              		@ frame_needed = 0, uses_anonymous_args = 0
 100:/Users/joostbooy/Desktop/Code/stm32/lib/tinyusb/src/common/tusb_fifo.c **** 
 1214              		.loc 1 100 3 view .LVU439
  99:/Users/joostbooy/Desktop/Code/stm32/lib/tinyusb/src/common/tusb_fifo.c ****   volatile const uint32_t * reg_rx = (volatile const uint32_t *) app_buf;
 1215              		.loc 1 99 1 is_stmt 0 view .LVU440
 1216 0000 30B5     		push	{r4, r5, lr}
 1217              		.cfi_def_cfa_offset 12
 1218              		.cfi_offset 4, -12
 1219              		.cfi_offset 5, -8
 1220              		.cfi_offset 14, -4
 103:/Users/joostbooy/Desktop/Code/stm32/lib/tinyusb/src/common/tusb_fifo.c ****   while(full_words--)
 1221              		.loc 1 103 12 view .LVU441
 1222 0002 9308     		lsrs	r3, r2, #2
 1223              	.LVL115:
 103:/Users/joostbooy/Desktop/Code/stm32/lib/tinyusb/src/common/tusb_fifo.c ****   while(full_words--)
ARM GAS  /var/folders/84/_x1cyy_j36g486tldtwl37280000gn/T//cc3kgv9b.s 			page 43


 1224              		.loc 1 103 3 is_stmt 1 view .LVU442
 104:/Users/joostbooy/Desktop/Code/stm32/lib/tinyusb/src/common/tusb_fifo.c ****   {
 1225              		.loc 1 104 3 view .LVU443
 104:/Users/joostbooy/Desktop/Code/stm32/lib/tinyusb/src/common/tusb_fifo.c ****   {
 1226              		.loc 1 104 8 view .LVU444
  99:/Users/joostbooy/Desktop/Code/stm32/lib/tinyusb/src/common/tusb_fifo.c ****   volatile const uint32_t * reg_rx = (volatile const uint32_t *) app_buf;
 1227              		.loc 1 99 1 is_stmt 0 view .LVU445
 1228 0004 83B0     		sub	sp, sp, #12
 1229              		.cfi_def_cfa_offset 24
 104:/Users/joostbooy/Desktop/Code/stm32/lib/tinyusb/src/common/tusb_fifo.c ****   {
 1230              		.loc 1 104 8 view .LVU446
 1231 0006 002B     		cmp	r3, #0
 1232 0008 52D0     		beq	.L148
 1233 000a 5D1E     		subs	r5, r3, #1
 1234 000c ACB2     		uxth	r4, r5
 1235 000e 0134     		adds	r4, r4, #1
 1236 0010 A300     		lsls	r3, r4, #2
 1237              	.LVL116:
 104:/Users/joostbooy/Desktop/Code/stm32/lib/tinyusb/src/common/tusb_fifo.c ****   {
 1238              		.loc 1 104 8 view .LVU447
 1239 0012 1D1F     		subs	r5, r3, #4
 1240              	.LVL117:
 104:/Users/joostbooy/Desktop/Code/stm32/lib/tinyusb/src/common/tusb_fifo.c ****   {
 1241              		.loc 1 104 8 view .LVU448
 1242 0014 AB08     		lsrs	r3, r5, #2
 1243 0016 0133     		adds	r3, r3, #1
 1244 0018 13F00705 		ands	r5, r3, #7
 1245 001c 00EB8404 		add	r4, r0, r4, lsl #2
 1246 0020 1FD0     		beq	.L146
 1247 0022 012D     		cmp	r5, #1
 1248 0024 18D0     		beq	.L173
 1249 0026 022D     		cmp	r5, #2
 1250 0028 13D0     		beq	.L174
 1251 002a 032D     		cmp	r5, #3
 1252 002c 0ED0     		beq	.L175
 1253 002e 042D     		cmp	r5, #4
 1254 0030 09D0     		beq	.L176
 1255 0032 052D     		cmp	r5, #5
 1256 0034 04D0     		beq	.L177
 1257 0036 062D     		cmp	r5, #6
 1258 0038 36D1     		bne	.L189
 1259              	.LVL118:
 1260              	.L178:
 106:/Users/joostbooy/Desktop/Code/stm32/lib/tinyusb/src/common/tusb_fifo.c ****     ff_buf += 4;
 1261              		.loc 1 106 5 is_stmt 1 view .LVU449
 1262 003a 0D68     		ldr	r5, [r1]
 1263              	.LVL119:
 1264              	.LBB237:
 1265              	.LBI237:
 265:/Users/joostbooy/Desktop/Code/stm32/lib/tinyusb/src/common/tusb_common.h **** }
 266:/Users/joostbooy/Desktop/Code/stm32/lib/tinyusb/src/common/tusb_common.h **** 
 267:/Users/joostbooy/Desktop/Code/stm32/lib/tinyusb/src/common/tusb_common.h **** TU_ATTR_ALWAYS_INLINE static inline uint16_t tu_unaligned_read16(const void *mem) {
 268:/Users/joostbooy/Desktop/Code/stm32/lib/tinyusb/src/common/tusb_common.h ****   return *((uint16_t const *) mem);
 269:/Users/joostbooy/Desktop/Code/stm32/lib/tinyusb/src/common/tusb_common.h **** }
 270:/Users/joostbooy/Desktop/Code/stm32/lib/tinyusb/src/common/tusb_common.h **** 
 271:/Users/joostbooy/Desktop/Code/stm32/lib/tinyusb/src/common/tusb_common.h **** TU_ATTR_ALWAYS_INLINE static inline void tu_unaligned_write32(void *mem, uint32_t value) {
 1266              		.loc 2 271 42 view .LVU450
ARM GAS  /var/folders/84/_x1cyy_j36g486tldtwl37280000gn/T//cc3kgv9b.s 			page 44


 1267              	.LBB238:
 272:/Users/joostbooy/Desktop/Code/stm32/lib/tinyusb/src/common/tusb_common.h ****   *((uint32_t *) mem) = value;
 1268              		.loc 2 272 3 view .LVU451
 1269              		.loc 2 272 23 is_stmt 0 view .LVU452
 1270 003c 40F8045B 		str	r5, [r0], #4
 1271              	.LVL120:
 1272              		.loc 2 272 23 view .LVU453
 1273              	.LBE238:
 1274              	.LBE237:
 107:/Users/joostbooy/Desktop/Code/stm32/lib/tinyusb/src/common/tusb_fifo.c ****   }
 1275              		.loc 1 107 5 is_stmt 1 view .LVU454
 104:/Users/joostbooy/Desktop/Code/stm32/lib/tinyusb/src/common/tusb_fifo.c ****   {
 1276              		.loc 1 104 8 view .LVU455
 1277              	.L177:
 106:/Users/joostbooy/Desktop/Code/stm32/lib/tinyusb/src/common/tusb_fifo.c ****     ff_buf += 4;
 1278              		.loc 1 106 5 view .LVU456
 1279 0040 0B68     		ldr	r3, [r1]
 1280              	.LVL121:
 1281              	.LBB254:
 271:/Users/joostbooy/Desktop/Code/stm32/lib/tinyusb/src/common/tusb_common.h ****   *((uint32_t *) mem) = value;
 1282              		.loc 2 271 42 view .LVU457
 1283              	.LBB239:
 1284              		.loc 2 272 3 view .LVU458
 1285              		.loc 2 272 23 is_stmt 0 view .LVU459
 1286 0042 40F8043B 		str	r3, [r0], #4
 1287              	.LVL122:
 1288              		.loc 2 272 23 view .LVU460
 1289              	.LBE239:
 1290              	.LBE254:
 107:/Users/joostbooy/Desktop/Code/stm32/lib/tinyusb/src/common/tusb_fifo.c ****   }
 1291              		.loc 1 107 5 is_stmt 1 view .LVU461
 104:/Users/joostbooy/Desktop/Code/stm32/lib/tinyusb/src/common/tusb_fifo.c ****   {
 1292              		.loc 1 104 8 view .LVU462
 1293              	.L176:
 106:/Users/joostbooy/Desktop/Code/stm32/lib/tinyusb/src/common/tusb_fifo.c ****     ff_buf += 4;
 1294              		.loc 1 106 5 view .LVU463
 1295 0046 0D68     		ldr	r5, [r1]
 1296              	.LVL123:
 1297              	.LBB255:
 271:/Users/joostbooy/Desktop/Code/stm32/lib/tinyusb/src/common/tusb_common.h ****   *((uint32_t *) mem) = value;
 1298              		.loc 2 271 42 view .LVU464
 1299              	.LBB240:
 1300              		.loc 2 272 3 view .LVU465
 1301              		.loc 2 272 23 is_stmt 0 view .LVU466
 1302 0048 40F8045B 		str	r5, [r0], #4
 1303              	.LVL124:
 1304              		.loc 2 272 23 view .LVU467
 1305              	.LBE240:
 1306              	.LBE255:
 107:/Users/joostbooy/Desktop/Code/stm32/lib/tinyusb/src/common/tusb_fifo.c ****   }
 1307              		.loc 1 107 5 is_stmt 1 view .LVU468
 104:/Users/joostbooy/Desktop/Code/stm32/lib/tinyusb/src/common/tusb_fifo.c ****   {
 1308              		.loc 1 104 8 view .LVU469
 1309              	.L175:
 106:/Users/joostbooy/Desktop/Code/stm32/lib/tinyusb/src/common/tusb_fifo.c ****     ff_buf += 4;
 1310              		.loc 1 106 5 view .LVU470
 1311 004c 0B68     		ldr	r3, [r1]
ARM GAS  /var/folders/84/_x1cyy_j36g486tldtwl37280000gn/T//cc3kgv9b.s 			page 45


 1312              	.LVL125:
 1313              	.LBB256:
 271:/Users/joostbooy/Desktop/Code/stm32/lib/tinyusb/src/common/tusb_common.h ****   *((uint32_t *) mem) = value;
 1314              		.loc 2 271 42 view .LVU471
 1315              	.LBB241:
 1316              		.loc 2 272 3 view .LVU472
 1317              		.loc 2 272 23 is_stmt 0 view .LVU473
 1318 004e 40F8043B 		str	r3, [r0], #4
 1319              	.LVL126:
 1320              		.loc 2 272 23 view .LVU474
 1321              	.LBE241:
 1322              	.LBE256:
 107:/Users/joostbooy/Desktop/Code/stm32/lib/tinyusb/src/common/tusb_fifo.c ****   }
 1323              		.loc 1 107 5 is_stmt 1 view .LVU475
 104:/Users/joostbooy/Desktop/Code/stm32/lib/tinyusb/src/common/tusb_fifo.c ****   {
 1324              		.loc 1 104 8 view .LVU476
 1325              	.L174:
 106:/Users/joostbooy/Desktop/Code/stm32/lib/tinyusb/src/common/tusb_fifo.c ****     ff_buf += 4;
 1326              		.loc 1 106 5 view .LVU477
 1327 0052 0D68     		ldr	r5, [r1]
 1328              	.LVL127:
 1329              	.LBB257:
 271:/Users/joostbooy/Desktop/Code/stm32/lib/tinyusb/src/common/tusb_common.h ****   *((uint32_t *) mem) = value;
 1330              		.loc 2 271 42 view .LVU478
 1331              	.LBB242:
 1332              		.loc 2 272 3 view .LVU479
 1333              		.loc 2 272 23 is_stmt 0 view .LVU480
 1334 0054 40F8045B 		str	r5, [r0], #4
 1335              	.LVL128:
 1336              		.loc 2 272 23 view .LVU481
 1337              	.LBE242:
 1338              	.LBE257:
 107:/Users/joostbooy/Desktop/Code/stm32/lib/tinyusb/src/common/tusb_fifo.c ****   }
 1339              		.loc 1 107 5 is_stmt 1 view .LVU482
 104:/Users/joostbooy/Desktop/Code/stm32/lib/tinyusb/src/common/tusb_fifo.c ****   {
 1340              		.loc 1 104 8 view .LVU483
 1341              	.L173:
 106:/Users/joostbooy/Desktop/Code/stm32/lib/tinyusb/src/common/tusb_fifo.c ****     ff_buf += 4;
 1342              		.loc 1 106 5 view .LVU484
 1343 0058 0B68     		ldr	r3, [r1]
 1344              	.LVL129:
 1345              	.LBB258:
 271:/Users/joostbooy/Desktop/Code/stm32/lib/tinyusb/src/common/tusb_common.h ****   *((uint32_t *) mem) = value;
 1346              		.loc 2 271 42 view .LVU485
 1347              	.LBB243:
 1348              		.loc 2 272 3 view .LVU486
 1349              		.loc 2 272 23 is_stmt 0 view .LVU487
 1350 005a 40F8043B 		str	r3, [r0], #4
 1351              	.LVL130:
 1352              		.loc 2 272 23 view .LVU488
 1353              	.LBE243:
 1354              	.LBE258:
 107:/Users/joostbooy/Desktop/Code/stm32/lib/tinyusb/src/common/tusb_fifo.c ****   }
 1355              		.loc 1 107 5 is_stmt 1 view .LVU489
 104:/Users/joostbooy/Desktop/Code/stm32/lib/tinyusb/src/common/tusb_fifo.c ****   {
 1356              		.loc 1 104 8 view .LVU490
 1357 005e A042     		cmp	r0, r4
ARM GAS  /var/folders/84/_x1cyy_j36g486tldtwl37280000gn/T//cc3kgv9b.s 			page 46


 1358 0060 15D0     		beq	.L145
 1359              	.LVL131:
 1360              	.L146:
 106:/Users/joostbooy/Desktop/Code/stm32/lib/tinyusb/src/common/tusb_fifo.c ****     ff_buf += 4;
 1361              		.loc 1 106 5 view .LVU491
 1362              	.LBB259:
 1363              	.LBB244:
 1364              		.loc 2 272 23 is_stmt 0 view .LVU492
 1365 0062 8446     		mov	ip, r0
 1366              	.LBE244:
 1367              	.LBE259:
 106:/Users/joostbooy/Desktop/Code/stm32/lib/tinyusb/src/common/tusb_fifo.c ****     ff_buf += 4;
 1368              		.loc 1 106 5 view .LVU493
 1369 0064 0D68     		ldr	r5, [r1]
 1370              	.LBB260:
 271:/Users/joostbooy/Desktop/Code/stm32/lib/tinyusb/src/common/tusb_common.h ****   *((uint32_t *) mem) = value;
 1371              		.loc 2 271 42 is_stmt 1 view .LVU494
 1372              	.LBB245:
 1373              		.loc 2 272 3 view .LVU495
 1374              		.loc 2 272 23 is_stmt 0 view .LVU496
 1375 0066 4CF8045B 		str	r5, [ip], #4
 1376              		.loc 2 272 23 view .LVU497
 1377              	.LBE245:
 1378              	.LBE260:
 107:/Users/joostbooy/Desktop/Code/stm32/lib/tinyusb/src/common/tusb_fifo.c ****   }
 1379              		.loc 1 107 5 is_stmt 1 view .LVU498
 104:/Users/joostbooy/Desktop/Code/stm32/lib/tinyusb/src/common/tusb_fifo.c ****   {
 1380              		.loc 1 104 8 view .LVU499
 106:/Users/joostbooy/Desktop/Code/stm32/lib/tinyusb/src/common/tusb_fifo.c ****     ff_buf += 4;
 1381              		.loc 1 106 5 view .LVU500
 1382 006a 0B68     		ldr	r3, [r1]
 1383              	.LBB261:
 271:/Users/joostbooy/Desktop/Code/stm32/lib/tinyusb/src/common/tusb_common.h ****   *((uint32_t *) mem) = value;
 1384              		.loc 2 271 42 view .LVU501
 1385              	.LBB246:
 1386              		.loc 2 272 3 view .LVU502
 1387              		.loc 2 272 23 is_stmt 0 view .LVU503
 1388 006c 4360     		str	r3, [r0, #4]
 1389              		.loc 2 272 23 view .LVU504
 1390              	.LBE246:
 1391              	.LBE261:
 107:/Users/joostbooy/Desktop/Code/stm32/lib/tinyusb/src/common/tusb_fifo.c ****   }
 1392              		.loc 1 107 5 is_stmt 1 view .LVU505
 104:/Users/joostbooy/Desktop/Code/stm32/lib/tinyusb/src/common/tusb_fifo.c ****   {
 1393              		.loc 1 104 8 view .LVU506
 106:/Users/joostbooy/Desktop/Code/stm32/lib/tinyusb/src/common/tusb_fifo.c ****     ff_buf += 4;
 1394              		.loc 1 106 5 view .LVU507
 1395 006e 0D68     		ldr	r5, [r1]
 1396              	.LBB262:
 271:/Users/joostbooy/Desktop/Code/stm32/lib/tinyusb/src/common/tusb_common.h ****   *((uint32_t *) mem) = value;
 1397              		.loc 2 271 42 view .LVU508
 1398              	.LBB247:
 1399              		.loc 2 272 3 view .LVU509
 1400              		.loc 2 272 23 is_stmt 0 view .LVU510
 1401 0070 CCF80450 		str	r5, [ip, #4]
 1402              		.loc 2 272 23 view .LVU511
 1403              	.LBE247:
ARM GAS  /var/folders/84/_x1cyy_j36g486tldtwl37280000gn/T//cc3kgv9b.s 			page 47


 1404              	.LBE262:
 107:/Users/joostbooy/Desktop/Code/stm32/lib/tinyusb/src/common/tusb_fifo.c ****   }
 1405              		.loc 1 107 5 is_stmt 1 view .LVU512
 104:/Users/joostbooy/Desktop/Code/stm32/lib/tinyusb/src/common/tusb_fifo.c ****   {
 1406              		.loc 1 104 8 view .LVU513
 106:/Users/joostbooy/Desktop/Code/stm32/lib/tinyusb/src/common/tusb_fifo.c ****     ff_buf += 4;
 1407              		.loc 1 106 5 view .LVU514
 1408 0074 0B68     		ldr	r3, [r1]
 1409              	.LBB263:
 271:/Users/joostbooy/Desktop/Code/stm32/lib/tinyusb/src/common/tusb_common.h ****   *((uint32_t *) mem) = value;
 1410              		.loc 2 271 42 view .LVU515
 1411              	.LBB248:
 1412              		.loc 2 272 3 view .LVU516
 1413              		.loc 2 272 23 is_stmt 0 view .LVU517
 1414 0076 C360     		str	r3, [r0, #12]
 1415              		.loc 2 272 23 view .LVU518
 1416              	.LBE248:
 1417              	.LBE263:
 107:/Users/joostbooy/Desktop/Code/stm32/lib/tinyusb/src/common/tusb_fifo.c ****   }
 1418              		.loc 1 107 5 is_stmt 1 view .LVU519
 104:/Users/joostbooy/Desktop/Code/stm32/lib/tinyusb/src/common/tusb_fifo.c ****   {
 1419              		.loc 1 104 8 view .LVU520
 106:/Users/joostbooy/Desktop/Code/stm32/lib/tinyusb/src/common/tusb_fifo.c ****     ff_buf += 4;
 1420              		.loc 1 106 5 view .LVU521
 1421 0078 0D68     		ldr	r5, [r1]
 1422              	.LBB264:
 271:/Users/joostbooy/Desktop/Code/stm32/lib/tinyusb/src/common/tusb_common.h ****   *((uint32_t *) mem) = value;
 1423              		.loc 2 271 42 view .LVU522
 1424              	.LBB249:
 1425              		.loc 2 272 3 view .LVU523
 1426              		.loc 2 272 23 is_stmt 0 view .LVU524
 1427 007a 0561     		str	r5, [r0, #16]
 1428              		.loc 2 272 23 view .LVU525
 1429              	.LBE249:
 1430              	.LBE264:
 107:/Users/joostbooy/Desktop/Code/stm32/lib/tinyusb/src/common/tusb_fifo.c ****   }
 1431              		.loc 1 107 5 is_stmt 1 view .LVU526
 104:/Users/joostbooy/Desktop/Code/stm32/lib/tinyusb/src/common/tusb_fifo.c ****   {
 1432              		.loc 1 104 8 view .LVU527
 106:/Users/joostbooy/Desktop/Code/stm32/lib/tinyusb/src/common/tusb_fifo.c ****     ff_buf += 4;
 1433              		.loc 1 106 5 view .LVU528
 1434 007c 0B68     		ldr	r3, [r1]
 1435              	.LBB265:
 271:/Users/joostbooy/Desktop/Code/stm32/lib/tinyusb/src/common/tusb_common.h ****   *((uint32_t *) mem) = value;
 1436              		.loc 2 271 42 view .LVU529
 1437              	.LBB250:
 1438              		.loc 2 272 3 view .LVU530
 1439              		.loc 2 272 23 is_stmt 0 view .LVU531
 1440 007e 4361     		str	r3, [r0, #20]
 1441              		.loc 2 272 23 view .LVU532
 1442              	.LBE250:
 1443              	.LBE265:
 107:/Users/joostbooy/Desktop/Code/stm32/lib/tinyusb/src/common/tusb_fifo.c ****   }
 1444              		.loc 1 107 5 is_stmt 1 view .LVU533
 104:/Users/joostbooy/Desktop/Code/stm32/lib/tinyusb/src/common/tusb_fifo.c ****   {
 1445              		.loc 1 104 8 view .LVU534
 106:/Users/joostbooy/Desktop/Code/stm32/lib/tinyusb/src/common/tusb_fifo.c ****     ff_buf += 4;
ARM GAS  /var/folders/84/_x1cyy_j36g486tldtwl37280000gn/T//cc3kgv9b.s 			page 48


 1446              		.loc 1 106 5 view .LVU535
 1447 0080 0D68     		ldr	r5, [r1]
 1448              	.LBB266:
 271:/Users/joostbooy/Desktop/Code/stm32/lib/tinyusb/src/common/tusb_common.h ****   *((uint32_t *) mem) = value;
 1449              		.loc 2 271 42 view .LVU536
 1450              	.LBB251:
 1451              		.loc 2 272 3 view .LVU537
 1452              		.loc 2 272 23 is_stmt 0 view .LVU538
 1453 0082 8561     		str	r5, [r0, #24]
 1454              		.loc 2 272 23 view .LVU539
 1455              	.LBE251:
 1456              	.LBE266:
 107:/Users/joostbooy/Desktop/Code/stm32/lib/tinyusb/src/common/tusb_fifo.c ****   }
 1457              		.loc 1 107 5 is_stmt 1 view .LVU540
 104:/Users/joostbooy/Desktop/Code/stm32/lib/tinyusb/src/common/tusb_fifo.c ****   {
 1458              		.loc 1 104 8 view .LVU541
 106:/Users/joostbooy/Desktop/Code/stm32/lib/tinyusb/src/common/tusb_fifo.c ****     ff_buf += 4;
 1459              		.loc 1 106 5 view .LVU542
 1460 0084 0B68     		ldr	r3, [r1]
 1461              	.LBB267:
 271:/Users/joostbooy/Desktop/Code/stm32/lib/tinyusb/src/common/tusb_common.h ****   *((uint32_t *) mem) = value;
 1462              		.loc 2 271 42 view .LVU543
 1463              	.LBB252:
 1464              		.loc 2 272 3 view .LVU544
 1465              		.loc 2 272 23 is_stmt 0 view .LVU545
 1466 0086 C361     		str	r3, [r0, #28]
 1467              		.loc 2 272 23 view .LVU546
 1468              	.LBE252:
 1469              	.LBE267:
 107:/Users/joostbooy/Desktop/Code/stm32/lib/tinyusb/src/common/tusb_fifo.c ****   }
 1470              		.loc 1 107 5 is_stmt 1 view .LVU547
 1471              	.LVL132:
 107:/Users/joostbooy/Desktop/Code/stm32/lib/tinyusb/src/common/tusb_fifo.c ****   }
 1472              		.loc 1 107 12 is_stmt 0 view .LVU548
 1473 0088 2030     		adds	r0, r0, #32
 104:/Users/joostbooy/Desktop/Code/stm32/lib/tinyusb/src/common/tusb_fifo.c ****   {
 1474              		.loc 1 104 8 is_stmt 1 view .LVU549
 1475 008a A042     		cmp	r0, r4
 1476 008c E9D1     		bne	.L146
 1477              	.LVL133:
 1478              	.L145:
 111:/Users/joostbooy/Desktop/Code/stm32/lib/tinyusb/src/common/tusb_fifo.c ****   if ( bytes_rem )
 1479              		.loc 1 111 3 view .LVU550
 112:/Users/joostbooy/Desktop/Code/stm32/lib/tinyusb/src/common/tusb_fifo.c ****   {
 1480              		.loc 1 112 3 view .LVU551
 112:/Users/joostbooy/Desktop/Code/stm32/lib/tinyusb/src/common/tusb_fifo.c ****   {
 1481              		.loc 1 112 6 is_stmt 0 view .LVU552
 1482 008e 12F00302 		ands	r2, r2, #3
 1483              	.LVL134:
 112:/Users/joostbooy/Desktop/Code/stm32/lib/tinyusb/src/common/tusb_fifo.c ****   {
 1484              		.loc 1 112 6 view .LVU553
 1485 0092 01D1     		bne	.L190
 117:/Users/joostbooy/Desktop/Code/stm32/lib/tinyusb/src/common/tusb_fifo.c **** 
 1486              		.loc 1 117 1 view .LVU554
 1487 0094 03B0     		add	sp, sp, #12
 1488              		.cfi_remember_state
 1489              		.cfi_def_cfa_offset 12
ARM GAS  /var/folders/84/_x1cyy_j36g486tldtwl37280000gn/T//cc3kgv9b.s 			page 49


 1490              		@ sp needed
 1491 0096 30BD     		pop	{r4, r5, pc}
 1492              	.L190:
 1493              		.cfi_restore_state
 1494              	.LBB268:
 114:/Users/joostbooy/Desktop/Code/stm32/lib/tinyusb/src/common/tusb_fifo.c ****     memcpy(ff_buf, &tmp32, bytes_rem);
 1495              		.loc 1 114 5 is_stmt 1 view .LVU555
 114:/Users/joostbooy/Desktop/Code/stm32/lib/tinyusb/src/common/tusb_fifo.c ****     memcpy(ff_buf, &tmp32, bytes_rem);
 1496              		.loc 1 114 22 is_stmt 0 view .LVU556
 1497 0098 0868     		ldr	r0, [r1]
 114:/Users/joostbooy/Desktop/Code/stm32/lib/tinyusb/src/common/tusb_fifo.c ****     memcpy(ff_buf, &tmp32, bytes_rem);
 1498              		.loc 1 114 14 view .LVU557
 1499 009a 0190     		str	r0, [sp, #4]
 115:/Users/joostbooy/Desktop/Code/stm32/lib/tinyusb/src/common/tusb_fifo.c ****   }
 1500              		.loc 1 115 5 is_stmt 1 view .LVU558
 1501 009c 01A9     		add	r1, sp, #4
 1502              	.LVL135:
 115:/Users/joostbooy/Desktop/Code/stm32/lib/tinyusb/src/common/tusb_fifo.c ****   }
 1503              		.loc 1 115 5 is_stmt 0 view .LVU559
 1504 009e 2046     		mov	r0, r4
 1505 00a0 FFF7FEFF 		bl	memcpy
 1506              	.LVL136:
 1507              	.LBE268:
 117:/Users/joostbooy/Desktop/Code/stm32/lib/tinyusb/src/common/tusb_fifo.c **** 
 1508              		.loc 1 117 1 view .LVU560
 1509 00a4 03B0     		add	sp, sp, #12
 1510              		.cfi_remember_state
 1511              		.cfi_def_cfa_offset 12
 1512              		@ sp needed
 1513 00a6 30BD     		pop	{r4, r5, pc}
 1514              	.LVL137:
 1515              	.L189:
 1516              		.cfi_restore_state
 106:/Users/joostbooy/Desktop/Code/stm32/lib/tinyusb/src/common/tusb_fifo.c ****     ff_buf += 4;
 1517              		.loc 1 106 5 is_stmt 1 view .LVU561
 1518 00a8 0B68     		ldr	r3, [r1]
 1519              	.LVL138:
 1520              	.LBB269:
 271:/Users/joostbooy/Desktop/Code/stm32/lib/tinyusb/src/common/tusb_common.h ****   *((uint32_t *) mem) = value;
 1521              		.loc 2 271 42 view .LVU562
 1522              	.LBB253:
 1523              		.loc 2 272 3 view .LVU563
 1524              		.loc 2 272 23 is_stmt 0 view .LVU564
 1525 00aa 40F8043B 		str	r3, [r0], #4
 1526              	.LVL139:
 1527              		.loc 2 272 23 view .LVU565
 1528              	.LBE253:
 1529              	.LBE269:
 107:/Users/joostbooy/Desktop/Code/stm32/lib/tinyusb/src/common/tusb_fifo.c ****   }
 1530              		.loc 1 107 5 is_stmt 1 view .LVU566
 104:/Users/joostbooy/Desktop/Code/stm32/lib/tinyusb/src/common/tusb_fifo.c ****   {
 1531              		.loc 1 104 8 view .LVU567
 1532 00ae C4E7     		b	.L178
 1533              	.LVL140:
 1534              	.L148:
 104:/Users/joostbooy/Desktop/Code/stm32/lib/tinyusb/src/common/tusb_fifo.c ****   {
 1535              		.loc 1 104 8 is_stmt 0 view .LVU568
ARM GAS  /var/folders/84/_x1cyy_j36g486tldtwl37280000gn/T//cc3kgv9b.s 			page 50


 1536 00b0 0446     		mov	r4, r0
 1537 00b2 ECE7     		b	.L145
 1538              		.cfi_endproc
 1539              	.LFE59:
 1541              		.section	.text._tu_fifo_write_n.part.0,"ax",%progbits
 1542              		.align	1
 1543              		.p2align 2,,3
 1544              		.syntax unified
 1545              		.thumb
 1546              		.thumb_func
 1547              		.fpu fpv4-sp-d16
 1549              	_tu_fifo_write_n.part.0:
 1550              	.LVL141:
 1551              	.LFB94:
 463:/Users/joostbooy/Desktop/Code/stm32/lib/tinyusb/src/common/tusb_fifo.c **** {
 1552              		.loc 1 463 17 is_stmt 1 view -0
 1553              		.cfi_startproc
 1554              		@ args = 0, pretend = 0, frame = 16
 1555              		@ frame_needed = 0, uses_anonymous_args = 0
 463:/Users/joostbooy/Desktop/Code/stm32/lib/tinyusb/src/common/tusb_fifo.c **** {
 1556              		.loc 1 463 17 is_stmt 0 view .LVU570
 1557 0000 2DE9F04F 		push	{r4, r5, r6, r7, r8, r9, r10, fp, lr}
 1558              		.cfi_def_cfa_offset 36
 1559              		.cfi_offset 4, -36
 1560              		.cfi_offset 5, -32
 1561              		.cfi_offset 6, -28
 1562              		.cfi_offset 7, -24
 1563              		.cfi_offset 8, -20
 1564              		.cfi_offset 9, -16
 1565              		.cfi_offset 10, -12
 1566              		.cfi_offset 11, -8
 1567              		.cfi_offset 14, -4
 1568 0004 0646     		mov	r6, r0
 469:/Users/joostbooy/Desktop/Code/stm32/lib/tinyusb/src/common/tusb_fifo.c ****   uint16_t rd_idx = f->rd_idx;
 1569              		.loc 1 469 12 view .LVU571
 1570 0006 0789     		ldrh	r7, [r0, #8]
 477:/Users/joostbooy/Desktop/Code/stm32/lib/tinyusb/src/common/tusb_fifo.c ****   {
 1571              		.loc 1 477 10 view .LVU572
 1572 0008 C079     		ldrb	r0, [r0, #7]	@ zero_extendqisi2
 1573              	.LVL142:
 470:/Users/joostbooy/Desktop/Code/stm32/lib/tinyusb/src/common/tusb_fifo.c **** 
 1574              		.loc 1 470 12 view .LVU573
 1575 000a 7489     		ldrh	r4, [r6, #10]
 467:/Users/joostbooy/Desktop/Code/stm32/lib/tinyusb/src/common/tusb_fifo.c **** 
 1576              		.loc 1 467 24 is_stmt 1 view .LVU574
 469:/Users/joostbooy/Desktop/Code/stm32/lib/tinyusb/src/common/tusb_fifo.c ****   uint16_t rd_idx = f->rd_idx;
 1577              		.loc 1 469 3 view .LVU575
 1578              	.LBB295:
 480:/Users/joostbooy/Desktop/Code/stm32/lib/tinyusb/src/common/tusb_fifo.c ****     n = tu_min16(n, remain);
 1579              		.loc 1 480 29 is_stmt 0 view .LVU576
 1580 000c B588     		ldrh	r5, [r6, #4]
 1581              	.LBE295:
 477:/Users/joostbooy/Desktop/Code/stm32/lib/tinyusb/src/common/tusb_fifo.c ****   {
 1582              		.loc 1 477 6 view .LVU577
 1583 000e C009     		lsrs	r0, r0, #7
 463:/Users/joostbooy/Desktop/Code/stm32/lib/tinyusb/src/common/tusb_fifo.c **** {
 1584              		.loc 1 463 17 view .LVU578
ARM GAS  /var/folders/84/_x1cyy_j36g486tldtwl37280000gn/T//cc3kgv9b.s 			page 51


 1585 0010 85B0     		sub	sp, sp, #20
 1586              		.cfi_def_cfa_offset 56
 469:/Users/joostbooy/Desktop/Code/stm32/lib/tinyusb/src/common/tusb_fifo.c ****   uint16_t rd_idx = f->rd_idx;
 1587              		.loc 1 469 12 view .LVU579
 1588 0012 BFB2     		uxth	r7, r7
 1589              	.LVL143:
 470:/Users/joostbooy/Desktop/Code/stm32/lib/tinyusb/src/common/tusb_fifo.c **** 
 1590              		.loc 1 470 3 is_stmt 1 view .LVU580
 470:/Users/joostbooy/Desktop/Code/stm32/lib/tinyusb/src/common/tusb_fifo.c **** 
 1591              		.loc 1 470 12 is_stmt 0 view .LVU581
 1592 0014 A4B2     		uxth	r4, r4
 1593              	.LVL144:
 472:/Users/joostbooy/Desktop/Code/stm32/lib/tinyusb/src/common/tusb_fifo.c **** 
 1594              		.loc 1 472 3 is_stmt 1 view .LVU582
 475:/Users/joostbooy/Desktop/Code/stm32/lib/tinyusb/src/common/tusb_fifo.c **** 
 1595              		.loc 1 475 120 view .LVU583
 477:/Users/joostbooy/Desktop/Code/stm32/lib/tinyusb/src/common/tusb_fifo.c ****   {
 1596              		.loc 1 477 3 view .LVU584
 477:/Users/joostbooy/Desktop/Code/stm32/lib/tinyusb/src/common/tusb_fifo.c ****   {
 1597              		.loc 1 477 6 is_stmt 0 view .LVU585
 1598 0016 0ED1     		bne	.L192
 1599              	.LBB302:
 480:/Users/joostbooy/Desktop/Code/stm32/lib/tinyusb/src/common/tusb_fifo.c ****     n = tu_min16(n, remain);
 1600              		.loc 1 480 5 is_stmt 1 view .LVU586
 1601              	.LVL145:
 1602              	.LBB296:
 1603              	.LBI296:
 338:/Users/joostbooy/Desktop/Code/stm32/lib/tinyusb/src/common/tusb_fifo.c **** {
 1604              		.loc 1 338 10 view .LVU587
 1605              	.LBB297:
 340:/Users/joostbooy/Desktop/Code/stm32/lib/tinyusb/src/common/tusb_fifo.c ****   return (depth > count) ? (depth - count) : 0;
 1606              		.loc 1 340 3 view .LVU588
 1607              	.LBB298:
 1608              	.LBI298:
 324:/Users/joostbooy/Desktop/Code/stm32/lib/tinyusb/src/common/tusb_fifo.c **** {
 1609              		.loc 1 324 10 view .LVU589
 1610              	.LBB299:
 327:/Users/joostbooy/Desktop/Code/stm32/lib/tinyusb/src/common/tusb_fifo.c ****   {
 1611              		.loc 1 327 3 view .LVU590
 327:/Users/joostbooy/Desktop/Code/stm32/lib/tinyusb/src/common/tusb_fifo.c ****   {
 1612              		.loc 1 327 6 is_stmt 0 view .LVU591
 1613 0018 A742     		cmp	r7, r4
 329:/Users/joostbooy/Desktop/Code/stm32/lib/tinyusb/src/common/tusb_fifo.c ****   } else
 1614              		.loc 1 329 5 is_stmt 1 view .LVU592
 332:/Users/joostbooy/Desktop/Code/stm32/lib/tinyusb/src/common/tusb_fifo.c ****   }
 1615              		.loc 1 332 5 view .LVU593
 332:/Users/joostbooy/Desktop/Code/stm32/lib/tinyusb/src/common/tusb_fifo.c ****   }
 1616              		.loc 1 332 12 is_stmt 0 view .LVU594
 1617 001a 36BF     		itet	cc
 1618 001c C4EB4504 		rsbcc	r4, r4, r5, lsl #1
 1619              	.LVL146:
 329:/Users/joostbooy/Desktop/Code/stm32/lib/tinyusb/src/common/tusb_fifo.c ****   } else
 1620              		.loc 1 329 12 view .LVU595
 1621 0020 3C1B     		subcs	r4, r7, r4
 332:/Users/joostbooy/Desktop/Code/stm32/lib/tinyusb/src/common/tusb_fifo.c ****   }
 1622              		.loc 1 332 12 view .LVU596
 1623 0022 E419     		addcc	r4, r4, r7
ARM GAS  /var/folders/84/_x1cyy_j36g486tldtwl37280000gn/T//cc3kgv9b.s 			page 52


 1624 0024 A0B2     		uxth	r0, r4
 1625              	.LVL147:
 332:/Users/joostbooy/Desktop/Code/stm32/lib/tinyusb/src/common/tusb_fifo.c ****   }
 1626              		.loc 1 332 12 view .LVU597
 1627              	.LBE299:
 1628              	.LBE298:
 341:/Users/joostbooy/Desktop/Code/stm32/lib/tinyusb/src/common/tusb_fifo.c **** }
 1629              		.loc 1 341 3 is_stmt 1 view .LVU598
 341:/Users/joostbooy/Desktop/Code/stm32/lib/tinyusb/src/common/tusb_fifo.c **** }
 1630              		.loc 1 341 44 is_stmt 0 view .LVU599
 1631 0026 8542     		cmp	r5, r0
 1632 0028 63D8     		bhi	.L275
 1633 002a 4FF00008 		mov	r8, #0
 1634              	.LVL148:
 1635              	.L195:
 341:/Users/joostbooy/Desktop/Code/stm32/lib/tinyusb/src/common/tusb_fifo.c **** }
 1636              		.loc 1 341 44 view .LVU600
 1637              	.LBE297:
 1638              	.LBE296:
 1639              	.LBE302:
 548:/Users/joostbooy/Desktop/Code/stm32/lib/tinyusb/src/common/tusb_fifo.c **** 
 1640              		.loc 1 548 1 view .LVU601
 1641 002e 4046     		mov	r0, r8
 1642 0030 05B0     		add	sp, sp, #20
 1643              		.cfi_remember_state
 1644              		.cfi_def_cfa_offset 36
 1645              		@ sp needed
 1646 0032 BDE8F08F 		pop	{r4, r5, r6, r7, r8, r9, r10, fp, pc}
 1647              	.LVL149:
 1648              	.L192:
 1649              		.cfi_restore_state
 489:/Users/joostbooy/Desktop/Code/stm32/lib/tinyusb/src/common/tusb_fifo.c ****     {
 1650              		.loc 1 489 5 is_stmt 1 view .LVU602
 489:/Users/joostbooy/Desktop/Code/stm32/lib/tinyusb/src/common/tusb_fifo.c ****     {
 1651              		.loc 1 489 8 is_stmt 0 view .LVU603
 1652 0036 AA42     		cmp	r2, r5
 489:/Users/joostbooy/Desktop/Code/stm32/lib/tinyusb/src/common/tusb_fifo.c ****     {
 1653              		.loc 1 489 16 view .LVU604
 1654 0038 A846     		mov	r8, r5
 489:/Users/joostbooy/Desktop/Code/stm32/lib/tinyusb/src/common/tusb_fifo.c ****     {
 1655              		.loc 1 489 8 view .LVU605
 1656 003a 43D3     		bcc	.L197
 492:/Users/joostbooy/Desktop/Code/stm32/lib/tinyusb/src/common/tusb_fifo.c ****       {
 1657              		.loc 1 492 7 is_stmt 1 view .LVU606
 492:/Users/joostbooy/Desktop/Code/stm32/lib/tinyusb/src/common/tusb_fifo.c ****       {
 1658              		.loc 1 492 10 is_stmt 0 view .LVU607
 1659 003c 002B     		cmp	r3, #0
 1660 003e 6AD1     		bne	.L215
 494:/Users/joostbooy/Desktop/Code/stm32/lib/tinyusb/src/common/tusb_fifo.c ****       }else
 1661              		.loc 1 494 9 is_stmt 1 view .LVU608
 494:/Users/joostbooy/Desktop/Code/stm32/lib/tinyusb/src/common/tusb_fifo.c ****       }else
 1662              		.loc 1 494 35 is_stmt 0 view .LVU609
 1663 0040 B6F80690 		ldrh	r9, [r6, #6]
 494:/Users/joostbooy/Desktop/Code/stm32/lib/tinyusb/src/common/tusb_fifo.c ****       }else
 1664              		.loc 1 494 20 view .LVU610
 1665 0044 521B     		subs	r2, r2, r5
 1666              	.LVL150:
ARM GAS  /var/folders/84/_x1cyy_j36g486tldtwl37280000gn/T//cc3kgv9b.s 			page 53


 494:/Users/joostbooy/Desktop/Code/stm32/lib/tinyusb/src/common/tusb_fifo.c ****       }else
 1667              		.loc 1 494 35 view .LVU611
 1668 0046 C9F30E0A 		ubfx	r10, r9, #0, #15
 470:/Users/joostbooy/Desktop/Code/stm32/lib/tinyusb/src/common/tusb_fifo.c **** 
 1669              		.loc 1 470 12 view .LVU612
 1670 004a 2746     		mov	r7, r4
 1671              	.LVL151:
 494:/Users/joostbooy/Desktop/Code/stm32/lib/tinyusb/src/common/tusb_fifo.c ****       }else
 1672              		.loc 1 494 14 view .LVU613
 1673 004c 0AFB0211 		mla	r1, r10, r2, r1
 1674              	.LVL152:
 1675              	.L196:
 1676              	.LBB303:
 526:/Users/joostbooy/Desktop/Code/stm32/lib/tinyusb/src/common/tusb_fifo.c ****     }
 1677              		.loc 1 526 7 is_stmt 1 view .LVU614
 1678              	.LBE303:
 530:/Users/joostbooy/Desktop/Code/stm32/lib/tinyusb/src/common/tusb_fifo.c ****   {
 1679              		.loc 1 530 3 view .LVU615
 530:/Users/joostbooy/Desktop/Code/stm32/lib/tinyusb/src/common/tusb_fifo.c ****   {
 1680              		.loc 1 530 6 is_stmt 0 view .LVU616
 1681 0050 B8F1000F 		cmp	r8, #0
 1682 0054 EBD0     		beq	.L195
 1683              	.LBB313:
 532:/Users/joostbooy/Desktop/Code/stm32/lib/tinyusb/src/common/tusb_fifo.c **** 
 1684              		.loc 1 532 5 is_stmt 1 view .LVU617
 1685              	.LVL153:
 1686              	.LBB314:
 1687              	.LBI314:
 385:/Users/joostbooy/Desktop/Code/stm32/lib/tinyusb/src/common/tusb_fifo.c **** {
 1688              		.loc 1 385 10 view .LVU618
 1689              	.LBB315:
 388:/Users/joostbooy/Desktop/Code/stm32/lib/tinyusb/src/common/tusb_fifo.c ****   return idx;
 1690              		.loc 1 388 3 view .LVU619
 388:/Users/joostbooy/Desktop/Code/stm32/lib/tinyusb/src/common/tusb_fifo.c ****   return idx;
 1691              		.loc 1 388 9 view .LVU620
 1692 0056 BD42     		cmp	r5, r7
 1693 0058 3C46     		mov	r4, r7
 1694 005a 03D8     		bhi	.L201
 1695              	.LVL154:
 1696              	.L202:
 388:/Users/joostbooy/Desktop/Code/stm32/lib/tinyusb/src/common/tusb_fifo.c ****   return idx;
 1697              		.loc 1 388 26 view .LVU621
 388:/Users/joostbooy/Desktop/Code/stm32/lib/tinyusb/src/common/tusb_fifo.c ****   return idx;
 1698              		.loc 1 388 30 is_stmt 0 view .LVU622
 1699 005c 621B     		subs	r2, r4, r5
 1700 005e 94B2     		uxth	r4, r2
 1701              	.LVL155:
 388:/Users/joostbooy/Desktop/Code/stm32/lib/tinyusb/src/common/tusb_fifo.c ****   return idx;
 1702              		.loc 1 388 9 is_stmt 1 view .LVU623
 1703 0060 A542     		cmp	r5, r4
 1704 0062 FBD9     		bls	.L202
 1705              	.LVL156:
 1706              	.L201:
 389:/Users/joostbooy/Desktop/Code/stm32/lib/tinyusb/src/common/tusb_fifo.c **** }
 1707              		.loc 1 389 3 view .LVU624
 389:/Users/joostbooy/Desktop/Code/stm32/lib/tinyusb/src/common/tusb_fifo.c **** }
 1708              		.loc 1 389 3 is_stmt 0 view .LVU625
ARM GAS  /var/folders/84/_x1cyy_j36g486tldtwl37280000gn/T//cc3kgv9b.s 			page 54


 1709              	.LBE315:
 1710              	.LBE314:
 534:/Users/joostbooy/Desktop/Code/stm32/lib/tinyusb/src/common/tusb_fifo.c **** 
 1711              		.loc 1 534 65 is_stmt 1 view .LVU626
 537:/Users/joostbooy/Desktop/Code/stm32/lib/tinyusb/src/common/tusb_fifo.c **** 
 1712              		.loc 1 537 5 view .LVU627
 1713              	.LBB316:
 1714              	.LBI316:
 151:/Users/joostbooy/Desktop/Code/stm32/lib/tinyusb/src/common/tusb_fifo.c **** {
 1715              		.loc 1 151 13 view .LVU628
 1716              	.LBB317:
 153:/Users/joostbooy/Desktop/Code/stm32/lib/tinyusb/src/common/tusb_fifo.c ****   uint16_t const wrap_count = n - lin_count;
 1717              		.loc 1 153 3 view .LVU629
 156:/Users/joostbooy/Desktop/Code/stm32/lib/tinyusb/src/common/tusb_fifo.c ****   uint16_t wrap_bytes = wrap_count * f->item_size;
 1718              		.loc 1 156 37 is_stmt 0 view .LVU630
 1719 0064 B6F806B0 		ldrh	fp, [r6, #6]
 160:/Users/joostbooy/Desktop/Code/stm32/lib/tinyusb/src/common/tusb_fifo.c **** 
 1720              		.loc 1 160 12 view .LVU631
 1721 0068 3068     		ldr	r0, [r6]
 154:/Users/joostbooy/Desktop/Code/stm32/lib/tinyusb/src/common/tusb_fifo.c **** 
 1722              		.loc 1 154 18 view .LVU632
 1723 006a A8EB050C 		sub	ip, r8, r5
 156:/Users/joostbooy/Desktop/Code/stm32/lib/tinyusb/src/common/tusb_fifo.c ****   uint16_t wrap_bytes = wrap_count * f->item_size;
 1724              		.loc 1 156 37 view .LVU633
 1725 006e CBF30E0E 		ubfx	lr, fp, #0, #15
 153:/Users/joostbooy/Desktop/Code/stm32/lib/tinyusb/src/common/tusb_fifo.c ****   uint16_t const wrap_count = n - lin_count;
 1726              		.loc 1 153 18 view .LVU634
 1727 0072 A5EB040A 		sub	r10, r5, r4
 154:/Users/joostbooy/Desktop/Code/stm32/lib/tinyusb/src/common/tusb_fifo.c **** 
 1728              		.loc 1 154 18 view .LVU635
 1729 0076 A444     		add	ip, ip, r4
 157:/Users/joostbooy/Desktop/Code/stm32/lib/tinyusb/src/common/tusb_fifo.c **** 
 1730              		.loc 1 157 12 view .LVU636
 1731 0078 1CFB0EF5 		smulbb	r5, ip, lr
 156:/Users/joostbooy/Desktop/Code/stm32/lib/tinyusb/src/common/tusb_fifo.c ****   uint16_t wrap_bytes = wrap_count * f->item_size;
 1732              		.loc 1 156 12 view .LVU637
 1733 007c 1AFB0EF9 		smulbb	r9, r10, lr
 162:/Users/joostbooy/Desktop/Code/stm32/lib/tinyusb/src/common/tusb_fifo.c ****   {
 1734              		.loc 1 162 3 view .LVU638
 1735 0080 012B     		cmp	r3, #1
 157:/Users/joostbooy/Desktop/Code/stm32/lib/tinyusb/src/common/tusb_fifo.c **** 
 1736              		.loc 1 157 12 view .LVU639
 1737 0082 ADB2     		uxth	r5, r5
 156:/Users/joostbooy/Desktop/Code/stm32/lib/tinyusb/src/common/tusb_fifo.c ****   uint16_t wrap_bytes = wrap_count * f->item_size;
 1738              		.loc 1 156 12 view .LVU640
 1739 0084 1FFA89FB 		uxth	fp, r9
 153:/Users/joostbooy/Desktop/Code/stm32/lib/tinyusb/src/common/tusb_fifo.c ****   uint16_t const wrap_count = n - lin_count;
 1740              		.loc 1 153 18 view .LVU641
 1741 0088 1FFA8AFC 		uxth	ip, r10
 1742              	.LVL157:
 154:/Users/joostbooy/Desktop/Code/stm32/lib/tinyusb/src/common/tusb_fifo.c **** 
 1743              		.loc 1 154 3 is_stmt 1 view .LVU642
 156:/Users/joostbooy/Desktop/Code/stm32/lib/tinyusb/src/common/tusb_fifo.c ****   uint16_t wrap_bytes = wrap_count * f->item_size;
 1744              		.loc 1 156 3 view .LVU643
 157:/Users/joostbooy/Desktop/Code/stm32/lib/tinyusb/src/common/tusb_fifo.c **** 
 1745              		.loc 1 157 3 view .LVU644
 160:/Users/joostbooy/Desktop/Code/stm32/lib/tinyusb/src/common/tusb_fifo.c **** 
ARM GAS  /var/folders/84/_x1cyy_j36g486tldtwl37280000gn/T//cc3kgv9b.s 			page 55


 1746              		.loc 1 160 3 view .LVU645
 160:/Users/joostbooy/Desktop/Code/stm32/lib/tinyusb/src/common/tusb_fifo.c **** 
 1747              		.loc 1 160 12 is_stmt 0 view .LVU646
 1748 008c 0EFB0404 		mla	r4, lr, r4, r0
 1749              	.LVL158:
 162:/Users/joostbooy/Desktop/Code/stm32/lib/tinyusb/src/common/tusb_fifo.c ****   {
 1750              		.loc 1 162 3 is_stmt 1 view .LVU647
 1751 0090 36D0     		beq	.L203
 165:/Users/joostbooy/Desktop/Code/stm32/lib/tinyusb/src/common/tusb_fifo.c ****       {
 1752              		.loc 1 165 7 view .LVU648
 165:/Users/joostbooy/Desktop/Code/stm32/lib/tinyusb/src/common/tusb_fifo.c ****       {
 1753              		.loc 1 165 9 is_stmt 0 view .LVU649
 1754 0092 E045     		cmp	r8, ip
 1755 0094 41D8     		bhi	.L204
 168:/Users/joostbooy/Desktop/Code/stm32/lib/tinyusb/src/common/tusb_fifo.c ****       }
 1756              		.loc 1 168 9 is_stmt 1 view .LVU650
 1757 0096 0EFB08F2 		mul	r2, lr, r8
 1758 009a 2046     		mov	r0, r4
 1759 009c FFF7FEFF 		bl	memcpy
 1760              	.LVL159:
 1761              	.L205:
 168:/Users/joostbooy/Desktop/Code/stm32/lib/tinyusb/src/common/tusb_fifo.c ****       }
 1762              		.loc 1 168 9 is_stmt 0 view .LVU651
 1763              	.LBE317:
 1764              	.LBE316:
 540:/Users/joostbooy/Desktop/Code/stm32/lib/tinyusb/src/common/tusb_fifo.c **** 
 1765              		.loc 1 540 5 is_stmt 1 view .LVU652
 1766              	.LBB327:
 1767              	.LBB328:
 355:/Users/joostbooy/Desktop/Code/stm32/lib/tinyusb/src/common/tusb_fifo.c ****   if ( (idx > new_idx) || (new_idx >= 2*depth) )
 1768              		.loc 1 355 12 is_stmt 0 view .LVU653
 1769 00a0 08EB0701 		add	r1, r8, r7
 1770              	.LBE328:
 1771              	.LBE327:
 540:/Users/joostbooy/Desktop/Code/stm32/lib/tinyusb/src/common/tusb_fifo.c **** 
 1772              		.loc 1 540 17 view .LVU654
 1773 00a4 B088     		ldrh	r0, [r6, #4]
 1774              	.LVL160:
 1775              	.LBB331:
 1776              	.LBI327:
 350:/Users/joostbooy/Desktop/Code/stm32/lib/tinyusb/src/common/tusb_fifo.c **** {
 1777              		.loc 1 350 17 is_stmt 1 view .LVU655
 1778              	.LBB330:
 355:/Users/joostbooy/Desktop/Code/stm32/lib/tinyusb/src/common/tusb_fifo.c ****   if ( (idx > new_idx) || (new_idx >= 2*depth) )
 1779              		.loc 1 355 3 view .LVU656
 355:/Users/joostbooy/Desktop/Code/stm32/lib/tinyusb/src/common/tusb_fifo.c ****   if ( (idx > new_idx) || (new_idx >= 2*depth) )
 1780              		.loc 1 355 12 is_stmt 0 view .LVU657
 1781 00a6 8BB2     		uxth	r3, r1
 1782              	.LVL161:
 356:/Users/joostbooy/Desktop/Code/stm32/lib/tinyusb/src/common/tusb_fifo.c ****   {
 1783              		.loc 1 356 3 is_stmt 1 view .LVU658
 356:/Users/joostbooy/Desktop/Code/stm32/lib/tinyusb/src/common/tusb_fifo.c ****   {
 1784              		.loc 1 356 6 is_stmt 0 view .LVU659
 1785 00a8 9F42     		cmp	r7, r3
 1786 00aa 4FEA4004 		lsl	r4, r0, #1
 1787 00ae 02D8     		bhi	.L212
 356:/Users/joostbooy/Desktop/Code/stm32/lib/tinyusb/src/common/tusb_fifo.c ****   {
ARM GAS  /var/folders/84/_x1cyy_j36g486tldtwl37280000gn/T//cc3kgv9b.s 			page 56


 1788              		.loc 1 356 24 view .LVU660
 1789 00b0 B3EB400F 		cmp	r3, r0, lsl #1
 1790 00b4 01DB     		blt	.L213
 1791              	.L212:
 1792              	.LBB329:
 358:/Users/joostbooy/Desktop/Code/stm32/lib/tinyusb/src/common/tusb_fifo.c ****     new_idx = (uint16_t) (new_idx + non_used_index_space);
 1793              		.loc 1 358 5 is_stmt 1 view .LVU661
 1794              	.LVL162:
 359:/Users/joostbooy/Desktop/Code/stm32/lib/tinyusb/src/common/tusb_fifo.c ****   }
 1795              		.loc 1 359 5 view .LVU662
 1796 00b6 1F1B     		subs	r7, r3, r4
 1797              	.LVL163:
 359:/Users/joostbooy/Desktop/Code/stm32/lib/tinyusb/src/common/tusb_fifo.c ****   }
 1798              		.loc 1 359 5 is_stmt 0 view .LVU663
 1799 00b8 BBB2     		uxth	r3, r7
 1800              	.LVL164:
 1801              	.L213:
 359:/Users/joostbooy/Desktop/Code/stm32/lib/tinyusb/src/common/tusb_fifo.c ****   }
 1802              		.loc 1 359 5 view .LVU664
 1803              	.LBE329:
 362:/Users/joostbooy/Desktop/Code/stm32/lib/tinyusb/src/common/tusb_fifo.c **** }
 1804              		.loc 1 362 3 is_stmt 1 view .LVU665
 362:/Users/joostbooy/Desktop/Code/stm32/lib/tinyusb/src/common/tusb_fifo.c **** }
 1805              		.loc 1 362 3 is_stmt 0 view .LVU666
 1806              	.LBE330:
 1807              	.LBE331:
 1808              	.LBE313:
 548:/Users/joostbooy/Desktop/Code/stm32/lib/tinyusb/src/common/tusb_fifo.c **** 
 1809              		.loc 1 548 1 view .LVU667
 1810 00ba 4046     		mov	r0, r8
 1811              	.LBB334:
 540:/Users/joostbooy/Desktop/Code/stm32/lib/tinyusb/src/common/tusb_fifo.c **** 
 1812              		.loc 1 540 15 view .LVU668
 1813 00bc 3381     		strh	r3, [r6, #8]	@ movhi
 540:/Users/joostbooy/Desktop/Code/stm32/lib/tinyusb/src/common/tusb_fifo.c **** 
 1814              		.loc 1 540 15 view .LVU669
 1815              	.LBE334:
 548:/Users/joostbooy/Desktop/Code/stm32/lib/tinyusb/src/common/tusb_fifo.c **** 
 1816              		.loc 1 548 1 view .LVU670
 1817 00be 05B0     		add	sp, sp, #20
 1818              		.cfi_remember_state
 1819              		.cfi_def_cfa_offset 36
 1820              		@ sp needed
 1821 00c0 BDE8F08F 		pop	{r4, r5, r6, r7, r8, r9, r10, fp, pc}
 1822              	.LVL165:
 1823              	.L197:
 1824              		.cfi_restore_state
 1825              	.LBB335:
 508:/Users/joostbooy/Desktop/Code/stm32/lib/tinyusb/src/common/tusb_fifo.c ****       if (overflowable_count + n >= 2*f->depth)
 1826              		.loc 1 508 7 is_stmt 1 view .LVU671
 1827              	.LBB304:
 1828              	.LBI304:
 324:/Users/joostbooy/Desktop/Code/stm32/lib/tinyusb/src/common/tusb_fifo.c **** {
 1829              		.loc 1 324 10 view .LVU672
 1830              	.LBB305:
 327:/Users/joostbooy/Desktop/Code/stm32/lib/tinyusb/src/common/tusb_fifo.c ****   {
 1831              		.loc 1 327 3 view .LVU673
ARM GAS  /var/folders/84/_x1cyy_j36g486tldtwl37280000gn/T//cc3kgv9b.s 			page 57


 327:/Users/joostbooy/Desktop/Code/stm32/lib/tinyusb/src/common/tusb_fifo.c ****   {
 1832              		.loc 1 327 6 is_stmt 0 view .LVU674
 1833 00c4 A742     		cmp	r7, r4
 329:/Users/joostbooy/Desktop/Code/stm32/lib/tinyusb/src/common/tusb_fifo.c ****   } else
 1834              		.loc 1 329 5 is_stmt 1 view .LVU675
 332:/Users/joostbooy/Desktop/Code/stm32/lib/tinyusb/src/common/tusb_fifo.c ****   }
 1835              		.loc 1 332 12 is_stmt 0 view .LVU676
 1836 00c6 36BF     		itet	cc
 1837 00c8 C4EB4500 		rsbcc	r0, r4, r5, lsl #1
 329:/Users/joostbooy/Desktop/Code/stm32/lib/tinyusb/src/common/tusb_fifo.c ****   } else
 1838              		.loc 1 329 12 view .LVU677
 1839 00cc 381B     		subcs	r0, r7, r4
 332:/Users/joostbooy/Desktop/Code/stm32/lib/tinyusb/src/common/tusb_fifo.c ****   }
 1840              		.loc 1 332 5 is_stmt 1 view .LVU678
 332:/Users/joostbooy/Desktop/Code/stm32/lib/tinyusb/src/common/tusb_fifo.c ****   }
 1841              		.loc 1 332 12 is_stmt 0 view .LVU679
 1842 00ce C019     		addcc	r0, r0, r7
 1843 00d0 1FFA80F8 		uxth	r8, r0
 1844              	.LBE305:
 1845              	.LBE304:
 509:/Users/joostbooy/Desktop/Code/stm32/lib/tinyusb/src/common/tusb_fifo.c ****       {
 1846              		.loc 1 509 30 view .LVU680
 1847 00d4 9044     		add	r8, r8, r2
 1848              	.LBB307:
 1849              	.LBB306:
 332:/Users/joostbooy/Desktop/Code/stm32/lib/tinyusb/src/common/tusb_fifo.c ****   }
 1850              		.loc 1 332 12 view .LVU681
 1851 00d6 6800     		lsls	r0, r5, #1
 1852              	.LVL166:
 332:/Users/joostbooy/Desktop/Code/stm32/lib/tinyusb/src/common/tusb_fifo.c ****   }
 1853              		.loc 1 332 12 view .LVU682
 1854              	.LBE306:
 1855              	.LBE307:
 509:/Users/joostbooy/Desktop/Code/stm32/lib/tinyusb/src/common/tusb_fifo.c ****       {
 1856              		.loc 1 509 7 is_stmt 1 view .LVU683
 509:/Users/joostbooy/Desktop/Code/stm32/lib/tinyusb/src/common/tusb_fifo.c ****       {
 1857              		.loc 1 509 10 is_stmt 0 view .LVU684
 1858 00d8 8045     		cmp	r8, r0
 1859 00da 1ADB     		blt	.L217
 514:/Users/joostbooy/Desktop/Code/stm32/lib/tinyusb/src/common/tusb_fifo.c **** 
 1860              		.loc 1 514 9 is_stmt 1 view .LVU685
 1861              	.LVL167:
 1862              	.LBB308:
 1863              	.LBI308:
 350:/Users/joostbooy/Desktop/Code/stm32/lib/tinyusb/src/common/tusb_fifo.c **** {
 1864              		.loc 1 350 17 view .LVU686
 1865              	.LBB309:
 355:/Users/joostbooy/Desktop/Code/stm32/lib/tinyusb/src/common/tusb_fifo.c ****   if ( (idx > new_idx) || (new_idx >= 2*depth) )
 1866              		.loc 1 355 3 view .LVU687
 355:/Users/joostbooy/Desktop/Code/stm32/lib/tinyusb/src/common/tusb_fifo.c ****   if ( (idx > new_idx) || (new_idx >= 2*depth) )
 1867              		.loc 1 355 12 is_stmt 0 view .LVU688
 1868 00dc 6719     		adds	r7, r4, r5
 1869              	.LVL168:
 355:/Users/joostbooy/Desktop/Code/stm32/lib/tinyusb/src/common/tusb_fifo.c ****   if ( (idx > new_idx) || (new_idx >= 2*depth) )
 1870              		.loc 1 355 12 view .LVU689
 1871 00de BF1A     		subs	r7, r7, r2
 1872 00e0 BFB2     		uxth	r7, r7
ARM GAS  /var/folders/84/_x1cyy_j36g486tldtwl37280000gn/T//cc3kgv9b.s 			page 58


 1873              	.LVL169:
 356:/Users/joostbooy/Desktop/Code/stm32/lib/tinyusb/src/common/tusb_fifo.c ****   {
 1874              		.loc 1 356 3 is_stmt 1 view .LVU690
 356:/Users/joostbooy/Desktop/Code/stm32/lib/tinyusb/src/common/tusb_fifo.c ****   {
 1875              		.loc 1 356 6 is_stmt 0 view .LVU691
 1876 00e2 BC42     		cmp	r4, r7
 1877 00e4 01D8     		bhi	.L200
 356:/Users/joostbooy/Desktop/Code/stm32/lib/tinyusb/src/common/tusb_fifo.c ****   {
 1878              		.loc 1 356 24 view .LVU692
 1879 00e6 B842     		cmp	r0, r7
 1880 00e8 13DC     		bgt	.L217
 1881              	.L200:
 1882              	.LBB310:
 358:/Users/joostbooy/Desktop/Code/stm32/lib/tinyusb/src/common/tusb_fifo.c ****     new_idx = (uint16_t) (new_idx + non_used_index_space);
 1883              		.loc 1 358 5 is_stmt 1 view .LVU693
 1884              	.LVL170:
 359:/Users/joostbooy/Desktop/Code/stm32/lib/tinyusb/src/common/tusb_fifo.c ****   }
 1885              		.loc 1 359 5 view .LVU694
 1886 00ea 3C1A     		subs	r4, r7, r0
 1887              	.LVL171:
 359:/Users/joostbooy/Desktop/Code/stm32/lib/tinyusb/src/common/tusb_fifo.c ****   }
 1888              		.loc 1 359 5 is_stmt 0 view .LVU695
 1889 00ec A7B2     		uxth	r7, r4
 1890              	.LVL172:
 358:/Users/joostbooy/Desktop/Code/stm32/lib/tinyusb/src/common/tusb_fifo.c ****     new_idx = (uint16_t) (new_idx + non_used_index_space);
 1891              		.loc 1 358 43 view .LVU696
 1892 00ee 9046     		mov	r8, r2
 1893 00f0 AEE7     		b	.L196
 1894              	.LVL173:
 1895              	.L275:
 358:/Users/joostbooy/Desktop/Code/stm32/lib/tinyusb/src/common/tusb_fifo.c ****     new_idx = (uint16_t) (new_idx + non_used_index_space);
 1896              		.loc 1 358 43 view .LVU697
 1897              	.LBE310:
 1898              	.LBE309:
 1899              	.LBE308:
 1900              	.LBE335:
 1901              	.LBB336:
 1902              	.LBB301:
 1903              	.LBB300:
 341:/Users/joostbooy/Desktop/Code/stm32/lib/tinyusb/src/common/tusb_fifo.c **** }
 1904              		.loc 1 341 44 view .LVU698
 1905 00f2 2C1A     		subs	r4, r5, r0
 1906 00f4 1FFA84F8 		uxth	r8, r4
 1907 00f8 9045     		cmp	r8, r2
 1908 00fa 28BF     		it	cs
 1909 00fc 9046     		movcs	r8, r2
 1910              	.LVL174:
 341:/Users/joostbooy/Desktop/Code/stm32/lib/tinyusb/src/common/tusb_fifo.c **** }
 1911              		.loc 1 341 44 view .LVU699
 1912              	.LBE300:
 1913              	.LBE301:
 481:/Users/joostbooy/Desktop/Code/stm32/lib/tinyusb/src/common/tusb_fifo.c ****   }
 1914              		.loc 1 481 5 is_stmt 1 view .LVU700
 481:/Users/joostbooy/Desktop/Code/stm32/lib/tinyusb/src/common/tusb_fifo.c ****   }
 1915              		.loc 1 481 5 is_stmt 0 view .LVU701
 1916              	.LBE336:
 149:/Users/joostbooy/Desktop/Code/stm32/lib/tinyusb/src/common/tusb_common.h **** TU_ATTR_ALWAYS_INLINE static inline uint32_t tu_min32 (uint32_t x, uint32_t y) { return (x < y) ? x
ARM GAS  /var/folders/84/_x1cyy_j36g486tldtwl37280000gn/T//cc3kgv9b.s 			page 59


 1917              		.loc 2 149 82 is_stmt 1 view .LVU702
 149:/Users/joostbooy/Desktop/Code/stm32/lib/tinyusb/src/common/tusb_common.h **** TU_ATTR_ALWAYS_INLINE static inline uint32_t tu_min32 (uint32_t x, uint32_t y) { return (x < y) ? x
 1918              		.loc 2 149 82 is_stmt 0 view .LVU703
 1919 00fe A7E7     		b	.L196
 1920              	.LVL175:
 1921              	.L203:
 1922              	.LBB337:
 1923              	.LBB332:
 1924              	.LBB325:
 185:/Users/joostbooy/Desktop/Code/stm32/lib/tinyusb/src/common/tusb_fifo.c ****       {
 1925              		.loc 1 185 7 is_stmt 1 view .LVU704
 185:/Users/joostbooy/Desktop/Code/stm32/lib/tinyusb/src/common/tusb_fifo.c ****       {
 1926              		.loc 1 185 9 is_stmt 0 view .LVU705
 1927 0100 E045     		cmp	r8, ip
 1928 0102 16D8     		bhi	.L206
 188:/Users/joostbooy/Desktop/Code/stm32/lib/tinyusb/src/common/tusb_fifo.c ****       }
 1929              		.loc 1 188 9 is_stmt 1 view .LVU706
 1930 0104 18FB0EF5 		smulbb	r5, r8, lr
 1931              	.LVL176:
 188:/Users/joostbooy/Desktop/Code/stm32/lib/tinyusb/src/common/tusb_fifo.c ****       }
 1932              		.loc 1 188 9 is_stmt 0 view .LVU707
 1933 0108 AAB2     		uxth	r2, r5
 1934 010a 2046     		mov	r0, r4
 1935 010c FFF7FEFF 		bl	_ff_push_const_addr
 1936              	.LVL177:
 188:/Users/joostbooy/Desktop/Code/stm32/lib/tinyusb/src/common/tusb_fifo.c ****       }
 1937              		.loc 1 188 9 view .LVU708
 1938 0110 C6E7     		b	.L205
 1939              	.LVL178:
 1940              	.L217:
 188:/Users/joostbooy/Desktop/Code/stm32/lib/tinyusb/src/common/tusb_fifo.c ****       }
 1941              		.loc 1 188 9 view .LVU709
 1942              	.LBE325:
 1943              	.LBE332:
 1944              	.LBE337:
 1945              	.LBB338:
 1946              	.LBB312:
 1947              	.LBB311:
 1948 0112 9046     		mov	r8, r2
 1949 0114 9CE7     		b	.L196
 1950              	.LVL179:
 1951              	.L215:
 188:/Users/joostbooy/Desktop/Code/stm32/lib/tinyusb/src/common/tusb_fifo.c ****       }
 1952              		.loc 1 188 9 view .LVU710
 1953              	.LBE311:
 1954              	.LBE312:
 1955              	.LBE338:
 470:/Users/joostbooy/Desktop/Code/stm32/lib/tinyusb/src/common/tusb_fifo.c **** 
 1956              		.loc 1 470 12 view .LVU711
 1957 0116 2746     		mov	r7, r4
 1958              	.LVL180:
 470:/Users/joostbooy/Desktop/Code/stm32/lib/tinyusb/src/common/tusb_fifo.c **** 
 1959              		.loc 1 470 12 view .LVU712
 1960 0118 9AE7     		b	.L196
 1961              	.LVL181:
 1962              	.L204:
 1963              	.LBB339:
ARM GAS  /var/folders/84/_x1cyy_j36g486tldtwl37280000gn/T//cc3kgv9b.s 			page 60


 1964              	.LBB333:
 1965              	.LBB326:
 175:/Users/joostbooy/Desktop/Code/stm32/lib/tinyusb/src/common/tusb_fifo.c **** 
 1966              		.loc 1 175 9 is_stmt 1 view .LVU713
 1967 011a 5A46     		mov	r2, fp
 1968 011c 2046     		mov	r0, r4
 1969 011e 0191     		str	r1, [sp, #4]
 1970 0120 FFF7FEFF 		bl	memcpy
 1971              	.LVL182:
 179:/Users/joostbooy/Desktop/Code/stm32/lib/tinyusb/src/common/tusb_fifo.c ****       }
 1972              		.loc 1 179 9 view .LVU714
 1973 0124 0199     		ldr	r1, [sp, #4]
 1974 0126 3068     		ldr	r0, [r6]
 1975 0128 2A46     		mov	r2, r5
 1976 012a 5944     		add	r1, r1, fp
 1977 012c FFF7FEFF 		bl	memcpy
 1978              	.LVL183:
 1979 0130 B6E7     		b	.L205
 1980              	.LVL184:
 1981              	.L206:
 1982              	.LBB318:
 195:/Users/joostbooy/Desktop/Code/stm32/lib/tinyusb/src/common/tusb_fifo.c ****         _ff_push_const_addr(ff_buf, app_buf, nLin_4n_bytes);
 1983              		.loc 1 195 9 view .LVU715
 195:/Users/joostbooy/Desktop/Code/stm32/lib/tinyusb/src/common/tusb_fifo.c ****         _ff_push_const_addr(ff_buf, app_buf, nLin_4n_bytes);
 1984              		.loc 1 195 18 is_stmt 0 view .LVU716
 1985 0132 2BF00303 		bic	r3, fp, #3
 1986              	.LVL185:
 195:/Users/joostbooy/Desktop/Code/stm32/lib/tinyusb/src/common/tusb_fifo.c ****         _ff_push_const_addr(ff_buf, app_buf, nLin_4n_bytes);
 1987              		.loc 1 195 18 view .LVU717
 1988 0136 1FFA83FA 		uxth	r10, r3
 1989              	.LVL186:
 196:/Users/joostbooy/Desktop/Code/stm32/lib/tinyusb/src/common/tusb_fifo.c ****         ff_buf += nLin_4n_bytes;
 1990              		.loc 1 196 9 is_stmt 1 view .LVU718
 1991 013a 5246     		mov	r2, r10
 1992 013c 2046     		mov	r0, r4
 1993 013e 0191     		str	r1, [sp, #4]
 1994 0140 FFF7FEFF 		bl	_ff_push_const_addr
 1995              	.LVL187:
 197:/Users/joostbooy/Desktop/Code/stm32/lib/tinyusb/src/common/tusb_fifo.c **** 
 1996              		.loc 1 197 9 view .LVU719
 200:/Users/joostbooy/Desktop/Code/stm32/lib/tinyusb/src/common/tusb_fifo.c ****         if (rem > 0)
 1997              		.loc 1 200 9 view .LVU720
 201:/Users/joostbooy/Desktop/Code/stm32/lib/tinyusb/src/common/tusb_fifo.c ****         {
 1998              		.loc 1 201 9 view .LVU721
 201:/Users/joostbooy/Desktop/Code/stm32/lib/tinyusb/src/common/tusb_fifo.c ****         {
 1999              		.loc 1 201 12 is_stmt 0 view .LVU722
 2000 0144 1BF00309 		ands	r9, fp, #3
 2001 0148 0199     		ldr	r1, [sp, #4]
 2002 014a 00F08E80 		beq	.L207
 2003              	.LBB319:
 205:/Users/joostbooy/Desktop/Code/stm32/lib/tinyusb/src/common/tusb_fifo.c ****           wrap_bytes -= remrem;
 2004              		.loc 1 205 38 view .LVU723
 2005 014e C9F10400 		rsb	r0, r9, #4
 2006              	.LBB320:
 2007              	.LBB321:
 149:/Users/joostbooy/Desktop/Code/stm32/lib/tinyusb/src/common/tusb_common.h **** TU_ATTR_ALWAYS_INLINE static inline uint32_t tu_min32 (uint32_t x, uint32_t y) { return (x < y) ? x
 2008              		.loc 2 149 101 view .LVU724
ARM GAS  /var/folders/84/_x1cyy_j36g486tldtwl37280000gn/T//cc3kgv9b.s 			page 61


 2009 0152 82B2     		uxth	r2, r0
 2010 0154 AA42     		cmp	r2, r5
 2011 0156 28BF     		it	cs
 2012 0158 2A46     		movcs	r2, r5
 2013              	.LBE321:
 2014              	.LBE320:
 212:/Users/joostbooy/Desktop/Code/stm32/lib/tinyusb/src/common/tusb_fifo.c **** 
 2015              		.loc 1 212 20 view .LVU725
 2016 015a 09F1FF3B 		add	fp, r9, #-1
 2017              	.LVL188:
 208:/Users/joostbooy/Desktop/Code/stm32/lib/tinyusb/src/common/tusb_fifo.c ****           uint8_t * src_u8 = ((uint8_t *) &tmp32);
 2018              		.loc 1 208 28 view .LVU726
 2019 015e D1F800E0 		ldr	lr, [r1]
 212:/Users/joostbooy/Desktop/Code/stm32/lib/tinyusb/src/common/tusb_fifo.c **** 
 2020              		.loc 1 212 34 view .LVU727
 2021 0162 04F80AE0 		strb	lr, [r4, r10]
 206:/Users/joostbooy/Desktop/Code/stm32/lib/tinyusb/src/common/tusb_fifo.c **** 
 2022              		.loc 1 206 22 view .LVU728
 2023 0166 AD1A     		subs	r5, r5, r2
 2024              	.LVL189:
 212:/Users/joostbooy/Desktop/Code/stm32/lib/tinyusb/src/common/tusb_fifo.c **** 
 2025              		.loc 1 212 16 view .LVU729
 2026 0168 1BF0FF03 		ands	r3, fp, #255
 208:/Users/joostbooy/Desktop/Code/stm32/lib/tinyusb/src/common/tusb_fifo.c ****           uint8_t * src_u8 = ((uint8_t *) &tmp32);
 2027              		.loc 1 208 20 view .LVU730
 2028 016c CDF80CE0 		str	lr, [sp, #12]
 206:/Users/joostbooy/Desktop/Code/stm32/lib/tinyusb/src/common/tusb_fifo.c **** 
 2029              		.loc 1 206 22 view .LVU731
 2030 0170 ADB2     		uxth	r5, r5
 205:/Users/joostbooy/Desktop/Code/stm32/lib/tinyusb/src/common/tusb_fifo.c ****           wrap_bytes -= remrem;
 2031              		.loc 1 205 19 view .LVU732
 2032 0172 D0B2     		uxtb	r0, r2
 2033              	.LBE319:
 197:/Users/joostbooy/Desktop/Code/stm32/lib/tinyusb/src/common/tusb_fifo.c **** 
 2034              		.loc 1 197 16 view .LVU733
 2035 0174 5444     		add	r4, r4, r10
 2036              	.LVL190:
 2037              	.LBB324:
 203:/Users/joostbooy/Desktop/Code/stm32/lib/tinyusb/src/common/tusb_fifo.c **** 
 2038              		.loc 1 203 11 is_stmt 1 view .LVU734
 205:/Users/joostbooy/Desktop/Code/stm32/lib/tinyusb/src/common/tusb_fifo.c ****           wrap_bytes -= remrem;
 2039              		.loc 1 205 11 view .LVU735
 2040              	.LBB323:
 2041              	.LBI320:
 149:/Users/joostbooy/Desktop/Code/stm32/lib/tinyusb/src/common/tusb_common.h **** TU_ATTR_ALWAYS_INLINE static inline uint32_t tu_min32 (uint32_t x, uint32_t y) { return (x < y) ? x
 2042              		.loc 2 149 46 view .LVU736
 2043              	.LBB322:
 149:/Users/joostbooy/Desktop/Code/stm32/lib/tinyusb/src/common/tusb_common.h **** TU_ATTR_ALWAYS_INLINE static inline uint32_t tu_min32 (uint32_t x, uint32_t y) { return (x < y) ? x
 2044              		.loc 2 149 82 view .LVU737
 149:/Users/joostbooy/Desktop/Code/stm32/lib/tinyusb/src/common/tusb_common.h **** TU_ATTR_ALWAYS_INLINE static inline uint32_t tu_min32 (uint32_t x, uint32_t y) { return (x < y) ? x
 2045              		.loc 2 149 82 is_stmt 0 view .LVU738
 2046              	.LBE322:
 2047              	.LBE323:
 206:/Users/joostbooy/Desktop/Code/stm32/lib/tinyusb/src/common/tusb_fifo.c **** 
 2048              		.loc 1 206 11 is_stmt 1 view .LVU739
 208:/Users/joostbooy/Desktop/Code/stm32/lib/tinyusb/src/common/tusb_fifo.c ****           uint8_t * src_u8 = ((uint8_t *) &tmp32);
 2049              		.loc 1 208 11 view .LVU740
ARM GAS  /var/folders/84/_x1cyy_j36g486tldtwl37280000gn/T//cc3kgv9b.s 			page 62


 209:/Users/joostbooy/Desktop/Code/stm32/lib/tinyusb/src/common/tusb_fifo.c **** 
 2050              		.loc 1 209 11 view .LVU741
 212:/Users/joostbooy/Desktop/Code/stm32/lib/tinyusb/src/common/tusb_fifo.c **** 
 2051              		.loc 1 212 11 view .LVU742
 212:/Users/joostbooy/Desktop/Code/stm32/lib/tinyusb/src/common/tusb_fifo.c **** 
 2052              		.loc 1 212 16 view .LVU743
 212:/Users/joostbooy/Desktop/Code/stm32/lib/tinyusb/src/common/tusb_fifo.c **** 
 2053              		.loc 1 212 24 view .LVU744
 212:/Users/joostbooy/Desktop/Code/stm32/lib/tinyusb/src/common/tusb_fifo.c **** 
 2054              		.loc 1 212 16 view .LVU745
 212:/Users/joostbooy/Desktop/Code/stm32/lib/tinyusb/src/common/tusb_fifo.c **** 
 2055              		.loc 1 212 16 is_stmt 0 view .LVU746
 2056 0176 0AD0     		beq	.L208
 212:/Users/joostbooy/Desktop/Code/stm32/lib/tinyusb/src/common/tusb_fifo.c **** 
 2057              		.loc 1 212 24 is_stmt 1 view .LVU747
 2058              	.LVL191:
 212:/Users/joostbooy/Desktop/Code/stm32/lib/tinyusb/src/common/tusb_fifo.c **** 
 2059              		.loc 1 212 34 is_stmt 0 view .LVU748
 2060 0178 9DF80DC0 		ldrb	ip, [sp, #13]	@ zero_extendqisi2
 2061 017c 84F801C0 		strb	ip, [r4, #1]
 212:/Users/joostbooy/Desktop/Code/stm32/lib/tinyusb/src/common/tusb_fifo.c **** 
 2062              		.loc 1 212 16 is_stmt 1 view .LVU749
 2063              	.LVL192:
 212:/Users/joostbooy/Desktop/Code/stm32/lib/tinyusb/src/common/tusb_fifo.c **** 
 2064              		.loc 1 212 16 is_stmt 0 view .LVU750
 2065 0180 B9F1020F 		cmp	r9, #2
 2066              	.LVL193:
 212:/Users/joostbooy/Desktop/Code/stm32/lib/tinyusb/src/common/tusb_fifo.c **** 
 2067              		.loc 1 212 24 is_stmt 1 view .LVU751
 212:/Users/joostbooy/Desktop/Code/stm32/lib/tinyusb/src/common/tusb_fifo.c **** 
 2068              		.loc 1 212 34 is_stmt 0 view .LVU752
 2069 0184 1CBF     		itt	ne
 2070 0186 9DF80EC0 		ldrbne	ip, [sp, #14]	@ zero_extendqisi2
 2071 018a 84F802C0 		strbne	ip, [r4, #2]
 212:/Users/joostbooy/Desktop/Code/stm32/lib/tinyusb/src/common/tusb_fifo.c **** 
 2072              		.loc 1 212 16 is_stmt 1 view .LVU753
 2073              	.LVL194:
 2074              	.L208:
 212:/Users/joostbooy/Desktop/Code/stm32/lib/tinyusb/src/common/tusb_fifo.c **** 
 2075              		.loc 1 212 16 is_stmt 0 view .LVU754
 2076 018e 04AC     		add	r4, sp, #16
 2077 0190 2344     		add	r3, r3, r4
 216:/Users/joostbooy/Desktop/Code/stm32/lib/tinyusb/src/common/tusb_fifo.c ****         }
 2078              		.loc 1 216 23 view .LVU755
 2079 0192 00F1FF3A 		add	r10, r0, #-1
 2080              	.LVL195:
 216:/Users/joostbooy/Desktop/Code/stm32/lib/tinyusb/src/common/tusb_fifo.c ****         }
 2081              		.loc 1 216 23 view .LVU756
 2082 0196 033B     		subs	r3, r3, #3
 215:/Users/joostbooy/Desktop/Code/stm32/lib/tinyusb/src/common/tusb_fifo.c ****           while(remrem--) *ff_buf++ = *src_u8++;
 2083              		.loc 1 215 11 is_stmt 1 view .LVU757
 215:/Users/joostbooy/Desktop/Code/stm32/lib/tinyusb/src/common/tusb_fifo.c ****           while(remrem--) *ff_buf++ = *src_u8++;
 2084              		.loc 1 215 18 is_stmt 0 view .LVU758
 2085 0198 3068     		ldr	r0, [r6]
 2086              	.LVL196:
 216:/Users/joostbooy/Desktop/Code/stm32/lib/tinyusb/src/common/tusb_fifo.c ****         }
 2087              		.loc 1 216 11 is_stmt 1 view .LVU759
ARM GAS  /var/folders/84/_x1cyy_j36g486tldtwl37280000gn/T//cc3kgv9b.s 			page 63


 216:/Users/joostbooy/Desktop/Code/stm32/lib/tinyusb/src/common/tusb_fifo.c ****         }
 2088              		.loc 1 216 16 view .LVU760
 216:/Users/joostbooy/Desktop/Code/stm32/lib/tinyusb/src/common/tusb_fifo.c ****         }
 2089              		.loc 1 216 23 is_stmt 0 view .LVU761
 2090 019a 5FFA8AF4 		uxtb	r4, r10
 2091              	.LVL197:
 216:/Users/joostbooy/Desktop/Code/stm32/lib/tinyusb/src/common/tusb_fifo.c ****         }
 2092              		.loc 1 216 16 view .LVU762
 2093 019e 002A     		cmp	r2, #0
 2094 01a0 5CD0     		beq	.L211
 2095 01a2 0134     		adds	r4, r4, #1
 2096              	.LVL198:
 216:/Users/joostbooy/Desktop/Code/stm32/lib/tinyusb/src/common/tusb_fifo.c ****         }
 2097              		.loc 1 216 16 view .LVU763
 2098 01a4 14F00709 		ands	r9, r4, #7
 2099 01a8 03EB040E 		add	lr, r3, r4
 2100 01ac 00F1FF32 		add	r2, r0, #-1
 2101 01b0 2FD0     		beq	.L210
 2102 01b2 B9F1010F 		cmp	r9, #1
 2103 01b6 26D0     		beq	.L253
 2104 01b8 B9F1020F 		cmp	r9, #2
 2105 01bc 1FD0     		beq	.L254
 2106 01be B9F1030F 		cmp	r9, #3
 2107 01c2 18D0     		beq	.L255
 2108 01c4 B9F1040F 		cmp	r9, #4
 2109 01c8 11D0     		beq	.L256
 2110 01ca B9F1050F 		cmp	r9, #5
 2111 01ce 0AD0     		beq	.L257
 2112 01d0 B9F1060F 		cmp	r9, #6
 2113 01d4 03D0     		beq	.L258
 2114              	.LVL199:
 216:/Users/joostbooy/Desktop/Code/stm32/lib/tinyusb/src/common/tusb_fifo.c ****         }
 2115              		.loc 1 216 27 is_stmt 1 view .LVU764
 216:/Users/joostbooy/Desktop/Code/stm32/lib/tinyusb/src/common/tusb_fifo.c ****         }
 2116              		.loc 1 216 37 is_stmt 0 view .LVU765
 2117 01d6 13F8012B 		ldrb	r2, [r3], #1	@ zero_extendqisi2
 2118              	.LVL200:
 216:/Users/joostbooy/Desktop/Code/stm32/lib/tinyusb/src/common/tusb_fifo.c ****         }
 2119              		.loc 1 216 37 view .LVU766
 2120 01da 0270     		strb	r2, [r0]
 216:/Users/joostbooy/Desktop/Code/stm32/lib/tinyusb/src/common/tusb_fifo.c ****         }
 2121              		.loc 1 216 16 is_stmt 1 view .LVU767
 216:/Users/joostbooy/Desktop/Code/stm32/lib/tinyusb/src/common/tusb_fifo.c ****         }
 2122              		.loc 1 216 16 is_stmt 0 view .LVU768
 2123 01dc 0246     		mov	r2, r0
 2124              	.LVL201:
 2125              	.L258:
 216:/Users/joostbooy/Desktop/Code/stm32/lib/tinyusb/src/common/tusb_fifo.c ****         }
 2126              		.loc 1 216 27 is_stmt 1 view .LVU769
 216:/Users/joostbooy/Desktop/Code/stm32/lib/tinyusb/src/common/tusb_fifo.c ****         }
 2127              		.loc 1 216 37 is_stmt 0 view .LVU770
 2128 01de 13F801BB 		ldrb	fp, [r3], #1	@ zero_extendqisi2
 2129              	.LVL202:
 216:/Users/joostbooy/Desktop/Code/stm32/lib/tinyusb/src/common/tusb_fifo.c ****         }
 2130              		.loc 1 216 37 view .LVU771
 2131 01e2 02F801BF 		strb	fp, [r2, #1]!
 216:/Users/joostbooy/Desktop/Code/stm32/lib/tinyusb/src/common/tusb_fifo.c ****         }
ARM GAS  /var/folders/84/_x1cyy_j36g486tldtwl37280000gn/T//cc3kgv9b.s 			page 64


 2132              		.loc 1 216 16 is_stmt 1 view .LVU772
 2133              	.LVL203:
 2134              	.L257:
 216:/Users/joostbooy/Desktop/Code/stm32/lib/tinyusb/src/common/tusb_fifo.c ****         }
 2135              		.loc 1 216 27 view .LVU773
 216:/Users/joostbooy/Desktop/Code/stm32/lib/tinyusb/src/common/tusb_fifo.c ****         }
 2136              		.loc 1 216 37 is_stmt 0 view .LVU774
 2137 01e6 13F801CB 		ldrb	ip, [r3], #1	@ zero_extendqisi2
 2138              	.LVL204:
 216:/Users/joostbooy/Desktop/Code/stm32/lib/tinyusb/src/common/tusb_fifo.c ****         }
 2139              		.loc 1 216 37 view .LVU775
 2140 01ea 02F801CF 		strb	ip, [r2, #1]!
 216:/Users/joostbooy/Desktop/Code/stm32/lib/tinyusb/src/common/tusb_fifo.c ****         }
 2141              		.loc 1 216 16 is_stmt 1 view .LVU776
 2142              	.LVL205:
 2143              	.L256:
 216:/Users/joostbooy/Desktop/Code/stm32/lib/tinyusb/src/common/tusb_fifo.c ****         }
 2144              		.loc 1 216 27 view .LVU777
 216:/Users/joostbooy/Desktop/Code/stm32/lib/tinyusb/src/common/tusb_fifo.c ****         }
 2145              		.loc 1 216 37 is_stmt 0 view .LVU778
 2146 01ee 13F801AB 		ldrb	r10, [r3], #1	@ zero_extendqisi2
 2147              	.LVL206:
 216:/Users/joostbooy/Desktop/Code/stm32/lib/tinyusb/src/common/tusb_fifo.c ****         }
 2148              		.loc 1 216 37 view .LVU779
 2149 01f2 02F801AF 		strb	r10, [r2, #1]!
 216:/Users/joostbooy/Desktop/Code/stm32/lib/tinyusb/src/common/tusb_fifo.c ****         }
 2150              		.loc 1 216 16 is_stmt 1 view .LVU780
 2151              	.LVL207:
 2152              	.L255:
 216:/Users/joostbooy/Desktop/Code/stm32/lib/tinyusb/src/common/tusb_fifo.c ****         }
 2153              		.loc 1 216 27 view .LVU781
 216:/Users/joostbooy/Desktop/Code/stm32/lib/tinyusb/src/common/tusb_fifo.c ****         }
 2154              		.loc 1 216 37 is_stmt 0 view .LVU782
 2155 01f6 13F8019B 		ldrb	r9, [r3], #1	@ zero_extendqisi2
 2156              	.LVL208:
 216:/Users/joostbooy/Desktop/Code/stm32/lib/tinyusb/src/common/tusb_fifo.c ****         }
 2157              		.loc 1 216 37 view .LVU783
 2158 01fa 02F8019F 		strb	r9, [r2, #1]!
 216:/Users/joostbooy/Desktop/Code/stm32/lib/tinyusb/src/common/tusb_fifo.c ****         }
 2159              		.loc 1 216 16 is_stmt 1 view .LVU784
 2160              	.LVL209:
 2161              	.L254:
 216:/Users/joostbooy/Desktop/Code/stm32/lib/tinyusb/src/common/tusb_fifo.c ****         }
 2162              		.loc 1 216 27 view .LVU785
 216:/Users/joostbooy/Desktop/Code/stm32/lib/tinyusb/src/common/tusb_fifo.c ****         }
 2163              		.loc 1 216 37 is_stmt 0 view .LVU786
 2164 01fe 13F801BB 		ldrb	fp, [r3], #1	@ zero_extendqisi2
 2165              	.LVL210:
 216:/Users/joostbooy/Desktop/Code/stm32/lib/tinyusb/src/common/tusb_fifo.c ****         }
 2166              		.loc 1 216 37 view .LVU787
 2167 0202 02F801BF 		strb	fp, [r2, #1]!
 216:/Users/joostbooy/Desktop/Code/stm32/lib/tinyusb/src/common/tusb_fifo.c ****         }
 2168              		.loc 1 216 16 is_stmt 1 view .LVU788
 2169              	.LVL211:
 2170              	.L253:
 216:/Users/joostbooy/Desktop/Code/stm32/lib/tinyusb/src/common/tusb_fifo.c ****         }
 2171              		.loc 1 216 27 view .LVU789
ARM GAS  /var/folders/84/_x1cyy_j36g486tldtwl37280000gn/T//cc3kgv9b.s 			page 65


 216:/Users/joostbooy/Desktop/Code/stm32/lib/tinyusb/src/common/tusb_fifo.c ****         }
 2172              		.loc 1 216 37 is_stmt 0 view .LVU790
