ARM GAS  /var/folders/84/_x1cyy_j36g486tldtwl37280000gn/T//cc1u9wTp.s 			page 1


   1              		.cpu cortex-m4
   2              		.eabi_attribute 27, 1
   3              		.eabi_attribute 28, 1
   4              		.eabi_attribute 20, 1
   5              		.eabi_attribute 21, 1
   6              		.eabi_attribute 23, 3
   7              		.eabi_attribute 24, 1
   8              		.eabi_attribute 25, 1
   9              		.eabi_attribute 26, 1
  10              		.eabi_attribute 30, 2
  11              		.eabi_attribute 34, 1
  12              		.eabi_attribute 18, 4
  13              		.file	"tusb.c"
  14              		.text
  15              	.Ltext0:
  16              		.cfi_sections	.debug_frame
  17              		.section	.text.tusb_init,"ax",%progbits
  18              		.align	1
  19              		.p2align 2,,3
  20              		.global	tusb_init
  21              		.arch armv7e-m
  22              		.syntax unified
  23              		.thumb
  24              		.thumb_func
  25              		.fpu fpv4-sp-d16
  27              	tusb_init:
  28              	.LFB79:
  29              		.file 1 "/Users/joostbooy/Desktop/Code/stm32/lib/tinyusb/src/tusb.c"
   1:/Users/joostbooy/Desktop/Code/stm32/lib/tinyusb/src/tusb.c **** /*
   2:/Users/joostbooy/Desktop/Code/stm32/lib/tinyusb/src/tusb.c ****  * The MIT License (MIT)
   3:/Users/joostbooy/Desktop/Code/stm32/lib/tinyusb/src/tusb.c ****  *
   4:/Users/joostbooy/Desktop/Code/stm32/lib/tinyusb/src/tusb.c ****  * Copyright (c) 2019 Ha Thach (tinyusb.org)
   5:/Users/joostbooy/Desktop/Code/stm32/lib/tinyusb/src/tusb.c ****  *
   6:/Users/joostbooy/Desktop/Code/stm32/lib/tinyusb/src/tusb.c ****  * Permission is hereby granted, free of charge, to any person obtaining a copy
   7:/Users/joostbooy/Desktop/Code/stm32/lib/tinyusb/src/tusb.c ****  * of this software and associated documentation files (the "Software"), to deal
   8:/Users/joostbooy/Desktop/Code/stm32/lib/tinyusb/src/tusb.c ****  * in the Software without restriction, including without limitation the rights
   9:/Users/joostbooy/Desktop/Code/stm32/lib/tinyusb/src/tusb.c ****  * to use, copy, modify, merge, publish, distribute, sublicense, and/or sell
  10:/Users/joostbooy/Desktop/Code/stm32/lib/tinyusb/src/tusb.c ****  * copies of the Software, and to permit persons to whom the Software is
  11:/Users/joostbooy/Desktop/Code/stm32/lib/tinyusb/src/tusb.c ****  * furnished to do so, subject to the following conditions:
  12:/Users/joostbooy/Desktop/Code/stm32/lib/tinyusb/src/tusb.c ****  *
  13:/Users/joostbooy/Desktop/Code/stm32/lib/tinyusb/src/tusb.c ****  * The above copyright notice and this permission notice shall be included in
  14:/Users/joostbooy/Desktop/Code/stm32/lib/tinyusb/src/tusb.c ****  * all copies or substantial portions of the Software.
  15:/Users/joostbooy/Desktop/Code/stm32/lib/tinyusb/src/tusb.c ****  *
  16:/Users/joostbooy/Desktop/Code/stm32/lib/tinyusb/src/tusb.c ****  * THE SOFTWARE IS PROVIDED "AS IS", WITHOUT WARRANTY OF ANY KIND, EXPRESS OR
  17:/Users/joostbooy/Desktop/Code/stm32/lib/tinyusb/src/tusb.c ****  * IMPLIED, INCLUDING BUT NOT LIMITED TO THE WARRANTIES OF MERCHANTABILITY,
  18:/Users/joostbooy/Desktop/Code/stm32/lib/tinyusb/src/tusb.c ****  * FITNESS FOR A PARTICULAR PURPOSE AND NONINFRINGEMENT. IN NO EVENT SHALL THE
  19:/Users/joostbooy/Desktop/Code/stm32/lib/tinyusb/src/tusb.c ****  * AUTHORS OR COPYRIGHT HOLDERS BE LIABLE FOR ANY CLAIM, DAMAGES OR OTHER
  20:/Users/joostbooy/Desktop/Code/stm32/lib/tinyusb/src/tusb.c ****  * LIABILITY, WHETHER IN AN ACTION OF CONTRACT, TORT OR OTHERWISE, ARISING FROM,
  21:/Users/joostbooy/Desktop/Code/stm32/lib/tinyusb/src/tusb.c ****  * OUT OF OR IN CONNECTION WITH THE SOFTWARE OR THE USE OR OTHER DEALINGS IN
  22:/Users/joostbooy/Desktop/Code/stm32/lib/tinyusb/src/tusb.c ****  * THE SOFTWARE.
  23:/Users/joostbooy/Desktop/Code/stm32/lib/tinyusb/src/tusb.c ****  *
  24:/Users/joostbooy/Desktop/Code/stm32/lib/tinyusb/src/tusb.c ****  * This file is part of the TinyUSB stack.
  25:/Users/joostbooy/Desktop/Code/stm32/lib/tinyusb/src/tusb.c ****  */
  26:/Users/joostbooy/Desktop/Code/stm32/lib/tinyusb/src/tusb.c **** 
  27:/Users/joostbooy/Desktop/Code/stm32/lib/tinyusb/src/tusb.c **** #include "tusb_option.h"
  28:/Users/joostbooy/Desktop/Code/stm32/lib/tinyusb/src/tusb.c **** 
  29:/Users/joostbooy/Desktop/Code/stm32/lib/tinyusb/src/tusb.c **** #if CFG_TUH_ENABLED || CFG_TUD_ENABLED
ARM GAS  /var/folders/84/_x1cyy_j36g486tldtwl37280000gn/T//cc1u9wTp.s 			page 2


  30:/Users/joostbooy/Desktop/Code/stm32/lib/tinyusb/src/tusb.c **** 
  31:/Users/joostbooy/Desktop/Code/stm32/lib/tinyusb/src/tusb.c **** #include "tusb.h"
  32:/Users/joostbooy/Desktop/Code/stm32/lib/tinyusb/src/tusb.c **** #include "common/tusb_private.h"
  33:/Users/joostbooy/Desktop/Code/stm32/lib/tinyusb/src/tusb.c **** 
  34:/Users/joostbooy/Desktop/Code/stm32/lib/tinyusb/src/tusb.c **** #if CFG_TUD_ENABLED
  35:/Users/joostbooy/Desktop/Code/stm32/lib/tinyusb/src/tusb.c **** #include "device/usbd_pvt.h"
  36:/Users/joostbooy/Desktop/Code/stm32/lib/tinyusb/src/tusb.c **** #endif
  37:/Users/joostbooy/Desktop/Code/stm32/lib/tinyusb/src/tusb.c **** 
  38:/Users/joostbooy/Desktop/Code/stm32/lib/tinyusb/src/tusb.c **** #if CFG_TUH_ENABLED
  39:/Users/joostbooy/Desktop/Code/stm32/lib/tinyusb/src/tusb.c **** #include "host/usbh_pvt.h"
  40:/Users/joostbooy/Desktop/Code/stm32/lib/tinyusb/src/tusb.c **** #endif
  41:/Users/joostbooy/Desktop/Code/stm32/lib/tinyusb/src/tusb.c **** 
  42:/Users/joostbooy/Desktop/Code/stm32/lib/tinyusb/src/tusb.c **** //--------------------------------------------------------------------+
  43:/Users/joostbooy/Desktop/Code/stm32/lib/tinyusb/src/tusb.c **** // Public API
  44:/Users/joostbooy/Desktop/Code/stm32/lib/tinyusb/src/tusb.c **** //--------------------------------------------------------------------+
  45:/Users/joostbooy/Desktop/Code/stm32/lib/tinyusb/src/tusb.c **** 
  46:/Users/joostbooy/Desktop/Code/stm32/lib/tinyusb/src/tusb.c **** bool tusb_init(void)
  47:/Users/joostbooy/Desktop/Code/stm32/lib/tinyusb/src/tusb.c **** {
  30              		.loc 1 47 1 view -0
  31              		.cfi_startproc
  32              		@ args = 0, pretend = 0, frame = 0
  33              		@ frame_needed = 0, uses_anonymous_args = 0
  34              		@ link register save eliminated.
  48:/Users/joostbooy/Desktop/Code/stm32/lib/tinyusb/src/tusb.c **** #if CFG_TUD_ENABLED && defined(TUD_OPT_RHPORT)
  49:/Users/joostbooy/Desktop/Code/stm32/lib/tinyusb/src/tusb.c ****   // init device stack CFG_TUSB_RHPORTx_MODE must be defined
  50:/Users/joostbooy/Desktop/Code/stm32/lib/tinyusb/src/tusb.c ****   TU_ASSERT ( tud_init(TUD_OPT_RHPORT) );
  51:/Users/joostbooy/Desktop/Code/stm32/lib/tinyusb/src/tusb.c **** #endif
  52:/Users/joostbooy/Desktop/Code/stm32/lib/tinyusb/src/tusb.c **** 
  53:/Users/joostbooy/Desktop/Code/stm32/lib/tinyusb/src/tusb.c **** #if CFG_TUH_ENABLED && defined(TUH_OPT_RHPORT)
  54:/Users/joostbooy/Desktop/Code/stm32/lib/tinyusb/src/tusb.c ****   // init host stack CFG_TUSB_RHPORTx_MODE must be defined
  55:/Users/joostbooy/Desktop/Code/stm32/lib/tinyusb/src/tusb.c ****   TU_ASSERT( tuh_init(TUH_OPT_RHPORT) );
  56:/Users/joostbooy/Desktop/Code/stm32/lib/tinyusb/src/tusb.c **** #endif
  57:/Users/joostbooy/Desktop/Code/stm32/lib/tinyusb/src/tusb.c **** 
  58:/Users/joostbooy/Desktop/Code/stm32/lib/tinyusb/src/tusb.c ****   return true;
  35              		.loc 1 58 3 view .LVU1
  59:/Users/joostbooy/Desktop/Code/stm32/lib/tinyusb/src/tusb.c **** }
  36              		.loc 1 59 1 is_stmt 0 view .LVU2
  37 0000 0120     		movs	r0, #1
  38 0002 7047     		bx	lr
  39              		.cfi_endproc
  40              	.LFE79:
  42              		.section	.text.tusb_inited,"ax",%progbits
  43              		.align	1
  44              		.p2align 2,,3
  45              		.global	tusb_inited
  46              		.syntax unified
  47              		.thumb
  48              		.thumb_func
  49              		.fpu fpv4-sp-d16
  51              	tusb_inited:
  52              	.LFB80:
  60:/Users/joostbooy/Desktop/Code/stm32/lib/tinyusb/src/tusb.c **** 
  61:/Users/joostbooy/Desktop/Code/stm32/lib/tinyusb/src/tusb.c **** bool tusb_inited(void)
  62:/Users/joostbooy/Desktop/Code/stm32/lib/tinyusb/src/tusb.c **** {
  53              		.loc 1 62 1 is_stmt 1 view -0
  54              		.cfi_startproc
  55              		@ args = 0, pretend = 0, frame = 0
ARM GAS  /var/folders/84/_x1cyy_j36g486tldtwl37280000gn/T//cc1u9wTp.s 			page 3


  56              		@ frame_needed = 0, uses_anonymous_args = 0
  57              		@ link register save eliminated.
  63:/Users/joostbooy/Desktop/Code/stm32/lib/tinyusb/src/tusb.c ****   bool ret = false;
  58              		.loc 1 63 3 view .LVU4
  59              	.LVL0:
  64:/Users/joostbooy/Desktop/Code/stm32/lib/tinyusb/src/tusb.c **** 
  65:/Users/joostbooy/Desktop/Code/stm32/lib/tinyusb/src/tusb.c **** #if CFG_TUD_ENABLED
  66:/Users/joostbooy/Desktop/Code/stm32/lib/tinyusb/src/tusb.c ****   ret = ret || tud_inited();
  60              		.loc 1 66 3 view .LVU5
  61              		.loc 1 66 16 is_stmt 0 view .LVU6
  62 0000 FFF7FEBF 		b	tud_inited
  63              	.LVL1:
  64              		.cfi_endproc
  65              	.LFE80:
  67              		.section	.text.tu_desc_find,"ax",%progbits
  68              		.align	1
  69              		.p2align 2,,3
  70              		.global	tu_desc_find
  71              		.syntax unified
  72              		.thumb
  73              		.thumb_func
  74              		.fpu fpv4-sp-d16
  76              	tu_desc_find:
  77              	.LVL2:
  78              	.LFB81:
  67:/Users/joostbooy/Desktop/Code/stm32/lib/tinyusb/src/tusb.c **** #endif
  68:/Users/joostbooy/Desktop/Code/stm32/lib/tinyusb/src/tusb.c **** 
  69:/Users/joostbooy/Desktop/Code/stm32/lib/tinyusb/src/tusb.c **** #if CFG_TUH_ENABLED
  70:/Users/joostbooy/Desktop/Code/stm32/lib/tinyusb/src/tusb.c ****   ret = ret || tuh_inited();
  71:/Users/joostbooy/Desktop/Code/stm32/lib/tinyusb/src/tusb.c **** #endif
  72:/Users/joostbooy/Desktop/Code/stm32/lib/tinyusb/src/tusb.c **** 
  73:/Users/joostbooy/Desktop/Code/stm32/lib/tinyusb/src/tusb.c ****   return ret;
  74:/Users/joostbooy/Desktop/Code/stm32/lib/tinyusb/src/tusb.c **** }
  75:/Users/joostbooy/Desktop/Code/stm32/lib/tinyusb/src/tusb.c **** 
  76:/Users/joostbooy/Desktop/Code/stm32/lib/tinyusb/src/tusb.c **** //--------------------------------------------------------------------+
  77:/Users/joostbooy/Desktop/Code/stm32/lib/tinyusb/src/tusb.c **** // Descriptor helper
  78:/Users/joostbooy/Desktop/Code/stm32/lib/tinyusb/src/tusb.c **** //--------------------------------------------------------------------+
  79:/Users/joostbooy/Desktop/Code/stm32/lib/tinyusb/src/tusb.c **** 
  80:/Users/joostbooy/Desktop/Code/stm32/lib/tinyusb/src/tusb.c **** uint8_t const * tu_desc_find(uint8_t const* desc, uint8_t const* end, uint8_t byte1)
  81:/Users/joostbooy/Desktop/Code/stm32/lib/tinyusb/src/tusb.c **** {
  79              		.loc 1 81 1 is_stmt 1 view -0
  80              		.cfi_startproc
  81              		@ args = 0, pretend = 0, frame = 0
  82              		@ frame_needed = 0, uses_anonymous_args = 0
  83              		@ link register save eliminated.
  84              		.loc 1 81 1 is_stmt 0 view .LVU8
  85 0000 05E0     		b	.L10
  86              	.L6:
  82:/Users/joostbooy/Desktop/Code/stm32/lib/tinyusb/src/tusb.c ****   while(desc+1 < end)
  83:/Users/joostbooy/Desktop/Code/stm32/lib/tinyusb/src/tusb.c ****   {
  84:/Users/joostbooy/Desktop/Code/stm32/lib/tinyusb/src/tusb.c ****     if ( desc[1] == byte1 ) return desc;
  87              		.loc 1 84 5 is_stmt 1 view .LVU9
  85:/Users/joostbooy/Desktop/Code/stm32/lib/tinyusb/src/tusb.c ****     desc += desc[DESC_OFFSET_LEN];
  88              		.loc 1 85 5 view .LVU10
  84:/Users/joostbooy/Desktop/Code/stm32/lib/tinyusb/src/tusb.c ****     desc += desc[DESC_OFFSET_LEN];
  89              		.loc 1 84 8 is_stmt 0 view .LVU11
  90 0002 90F801C0 		ldrb	ip, [r0, #1]	@ zero_extendqisi2
ARM GAS  /var/folders/84/_x1cyy_j36g486tldtwl37280000gn/T//cc1u9wTp.s 			page 4


  91 0006 9445     		cmp	ip, r2
  92 0008 05D0     		beq	.L4
  93              		.loc 1 85 17 view .LVU12
  94 000a 0378     		ldrb	r3, [r0]	@ zero_extendqisi2
  95              		.loc 1 85 10 view .LVU13
  96 000c 1844     		add	r0, r0, r3
  97              	.LVL3:
  98              	.L10:
  82:/Users/joostbooy/Desktop/Code/stm32/lib/tinyusb/src/tusb.c ****   while(desc+1 < end)
  99              		.loc 1 82 8 is_stmt 1 view .LVU14
  82:/Users/joostbooy/Desktop/Code/stm32/lib/tinyusb/src/tusb.c ****   while(desc+1 < end)
 100              		.loc 1 82 13 is_stmt 0 view .LVU15
 101 000e 431C     		adds	r3, r0, #1
  82:/Users/joostbooy/Desktop/Code/stm32/lib/tinyusb/src/tusb.c ****   while(desc+1 < end)
 102              		.loc 1 82 8 view .LVU16
 103 0010 9942     		cmp	r1, r3
 104 0012 F6D8     		bhi	.L6
  86:/Users/joostbooy/Desktop/Code/stm32/lib/tinyusb/src/tusb.c ****   }
  87:/Users/joostbooy/Desktop/Code/stm32/lib/tinyusb/src/tusb.c ****   return NULL;
 105              		.loc 1 87 10 view .LVU17
 106 0014 0020     		movs	r0, #0
 107              	.LVL4:
 108              	.L4:
  88:/Users/joostbooy/Desktop/Code/stm32/lib/tinyusb/src/tusb.c **** }
 109              		.loc 1 88 1 view .LVU18
 110 0016 7047     		bx	lr
 111              		.cfi_endproc
 112              	.LFE81:
 114              		.section	.text.tu_desc_find2,"ax",%progbits
 115              		.align	1
 116              		.p2align 2,,3
 117              		.global	tu_desc_find2
 118              		.syntax unified
 119              		.thumb
 120              		.thumb_func
 121              		.fpu fpv4-sp-d16
 123              	tu_desc_find2:
 124              	.LVL5:
 125              	.LFB82:
  89:/Users/joostbooy/Desktop/Code/stm32/lib/tinyusb/src/tusb.c **** 
  90:/Users/joostbooy/Desktop/Code/stm32/lib/tinyusb/src/tusb.c **** uint8_t const * tu_desc_find2(uint8_t const* desc, uint8_t const* end, uint8_t byte1, uint8_t byte2
  91:/Users/joostbooy/Desktop/Code/stm32/lib/tinyusb/src/tusb.c **** {
 126              		.loc 1 91 1 is_stmt 1 view -0
 127              		.cfi_startproc
 128              		@ args = 0, pretend = 0, frame = 0
 129              		@ frame_needed = 0, uses_anonymous_args = 0
 130              		@ link register save eliminated.
  92:/Users/joostbooy/Desktop/Code/stm32/lib/tinyusb/src/tusb.c ****   while(desc+2 < end)
 131              		.loc 1 92 3 view .LVU20
 132              		.loc 1 92 8 view .LVU21
  91:/Users/joostbooy/Desktop/Code/stm32/lib/tinyusb/src/tusb.c ****   while(desc+2 < end)
 133              		.loc 1 91 1 is_stmt 0 view .LVU22
 134 0000 10B4     		push	{r4}
 135              		.cfi_def_cfa_offset 4
 136              		.cfi_offset 4, -4
 137              		.loc 1 92 13 view .LVU23
 138 0002 841C     		adds	r4, r0, #2
ARM GAS  /var/folders/84/_x1cyy_j36g486tldtwl37280000gn/T//cc1u9wTp.s 			page 5


 139              		.loc 1 92 8 view .LVU24
 140 0004 A142     		cmp	r1, r4
 141 0006 06D8     		bhi	.L14
 142 0008 0FE0     		b	.L15
 143              	.L13:
  93:/Users/joostbooy/Desktop/Code/stm32/lib/tinyusb/src/tusb.c ****   {
  94:/Users/joostbooy/Desktop/Code/stm32/lib/tinyusb/src/tusb.c ****     if ( desc[1] == byte1 && desc[2] == byte2) return desc;
  95:/Users/joostbooy/Desktop/Code/stm32/lib/tinyusb/src/tusb.c ****     desc += desc[DESC_OFFSET_LEN];
 144              		.loc 1 95 17 view .LVU25
 145 000a 90F800C0 		ldrb	ip, [r0]	@ zero_extendqisi2
 146              		.loc 1 95 10 view .LVU26
 147 000e 6044     		add	r0, r0, ip
 148              	.LVL6:
  92:/Users/joostbooy/Desktop/Code/stm32/lib/tinyusb/src/tusb.c ****   {
 149              		.loc 1 92 8 is_stmt 1 view .LVU27
  92:/Users/joostbooy/Desktop/Code/stm32/lib/tinyusb/src/tusb.c ****   {
 150              		.loc 1 92 13 is_stmt 0 view .LVU28
 151 0010 841C     		adds	r4, r0, #2
  92:/Users/joostbooy/Desktop/Code/stm32/lib/tinyusb/src/tusb.c ****   {
 152              		.loc 1 92 8 view .LVU29
 153 0012 A142     		cmp	r1, r4
 154 0014 09D9     		bls	.L15
 155              	.L14:
  94:/Users/joostbooy/Desktop/Code/stm32/lib/tinyusb/src/tusb.c ****     desc += desc[DESC_OFFSET_LEN];
 156              		.loc 1 94 5 is_stmt 1 view .LVU30
 157              		.loc 1 95 5 view .LVU31
  94:/Users/joostbooy/Desktop/Code/stm32/lib/tinyusb/src/tusb.c ****     desc += desc[DESC_OFFSET_LEN];
 158              		.loc 1 94 8 is_stmt 0 view .LVU32
 159 0016 90F801C0 		ldrb	ip, [r0, #1]	@ zero_extendqisi2
 160 001a 9445     		cmp	ip, r2
 161 001c F5D1     		bne	.L13
  94:/Users/joostbooy/Desktop/Code/stm32/lib/tinyusb/src/tusb.c ****     desc += desc[DESC_OFFSET_LEN];
 162              		.loc 1 94 27 discriminator 1 view .LVU33
 163 001e 8478     		ldrb	r4, [r0, #2]	@ zero_extendqisi2
 164 0020 9C42     		cmp	r4, r3
 165 0022 F2D1     		bne	.L13
  96:/Users/joostbooy/Desktop/Code/stm32/lib/tinyusb/src/tusb.c ****   }
  97:/Users/joostbooy/Desktop/Code/stm32/lib/tinyusb/src/tusb.c ****   return NULL;
  98:/Users/joostbooy/Desktop/Code/stm32/lib/tinyusb/src/tusb.c **** }
 166              		.loc 1 98 1 view .LVU34
 167 0024 5DF8044B 		ldr	r4, [sp], #4
 168              		.cfi_remember_state
 169              		.cfi_restore 4
 170              		.cfi_def_cfa_offset 0
 171 0028 7047     		bx	lr
 172              	.L15:
 173              		.cfi_restore_state
  97:/Users/joostbooy/Desktop/Code/stm32/lib/tinyusb/src/tusb.c **** }
 174              		.loc 1 97 10 view .LVU35
 175 002a 0020     		movs	r0, #0
 176              	.LVL7:
 177              		.loc 1 98 1 view .LVU36
 178 002c 5DF8044B 		ldr	r4, [sp], #4
 179              		.cfi_restore 4
 180              		.cfi_def_cfa_offset 0
 181 0030 7047     		bx	lr
 182              		.cfi_endproc
ARM GAS  /var/folders/84/_x1cyy_j36g486tldtwl37280000gn/T//cc1u9wTp.s 			page 6


 183              	.LFE82:
 185 0032 00BF     		.section	.text.tu_desc_find3,"ax",%progbits
 186              		.align	1
 187              		.p2align 2,,3
 188              		.global	tu_desc_find3
 189              		.syntax unified
 190              		.thumb
 191              		.thumb_func
 192              		.fpu fpv4-sp-d16
 194              	tu_desc_find3:
 195              	.LVL8:
 196              	.LFB83:
  99:/Users/joostbooy/Desktop/Code/stm32/lib/tinyusb/src/tusb.c **** 
 100:/Users/joostbooy/Desktop/Code/stm32/lib/tinyusb/src/tusb.c **** uint8_t const * tu_desc_find3(uint8_t const* desc, uint8_t const* end, uint8_t byte1, uint8_t byte2
 101:/Users/joostbooy/Desktop/Code/stm32/lib/tinyusb/src/tusb.c **** {
 197              		.loc 1 101 1 is_stmt 1 view -0
 198              		.cfi_startproc
 199              		@ args = 4, pretend = 0, frame = 0
 200              		@ frame_needed = 0, uses_anonymous_args = 0
 201              		@ link register save eliminated.
 102:/Users/joostbooy/Desktop/Code/stm32/lib/tinyusb/src/tusb.c ****   while(desc+3 < end)
 202              		.loc 1 102 3 view .LVU38
 203              		.loc 1 102 8 view .LVU39
 101:/Users/joostbooy/Desktop/Code/stm32/lib/tinyusb/src/tusb.c ****   while(desc+3 < end)
 204              		.loc 1 101 1 is_stmt 0 view .LVU40
 205 0000 30B4     		push	{r4, r5}
 206              		.cfi_def_cfa_offset 8
 207              		.cfi_offset 4, -8
 208              		.cfi_offset 5, -4
 209              		.loc 1 102 13 view .LVU41
 210 0002 C41C     		adds	r4, r0, #3
 211              		.loc 1 102 8 view .LVU42
 212 0004 A142     		cmp	r1, r4
 101:/Users/joostbooy/Desktop/Code/stm32/lib/tinyusb/src/tusb.c ****   while(desc+3 < end)
 213              		.loc 1 101 1 view .LVU43
 214 0006 9DF80850 		ldrb	r5, [sp, #8]	@ zero_extendqisi2
 215              		.loc 1 102 8 view .LVU44
 216 000a 05D8     		bhi	.L22
 217 000c 11E0     		b	.L23
 218              	.L21:
 103:/Users/joostbooy/Desktop/Code/stm32/lib/tinyusb/src/tusb.c ****   {
 104:/Users/joostbooy/Desktop/Code/stm32/lib/tinyusb/src/tusb.c ****     if (desc[1] == byte1 && desc[2] == byte2 && desc[3] == byte3) return desc;
 105:/Users/joostbooy/Desktop/Code/stm32/lib/tinyusb/src/tusb.c ****     desc += desc[DESC_OFFSET_LEN];
 219              		.loc 1 105 17 view .LVU45
 220 000e 0478     		ldrb	r4, [r0]	@ zero_extendqisi2
 221              		.loc 1 105 10 view .LVU46
 222 0010 2044     		add	r0, r0, r4
 223              	.LVL9:
 102:/Users/joostbooy/Desktop/Code/stm32/lib/tinyusb/src/tusb.c ****   {
 224              		.loc 1 102 8 is_stmt 1 view .LVU47
 102:/Users/joostbooy/Desktop/Code/stm32/lib/tinyusb/src/tusb.c ****   {
 225              		.loc 1 102 13 is_stmt 0 view .LVU48
 226 0012 C41C     		adds	r4, r0, #3
 102:/Users/joostbooy/Desktop/Code/stm32/lib/tinyusb/src/tusb.c ****   {
 227              		.loc 1 102 8 view .LVU49
 228 0014 A142     		cmp	r1, r4
 229 0016 0CD9     		bls	.L23
ARM GAS  /var/folders/84/_x1cyy_j36g486tldtwl37280000gn/T//cc1u9wTp.s 			page 7


 230              	.L22:
 104:/Users/joostbooy/Desktop/Code/stm32/lib/tinyusb/src/tusb.c ****     desc += desc[DESC_OFFSET_LEN];
 231              		.loc 1 104 5 is_stmt 1 view .LVU50
 232              		.loc 1 105 5 view .LVU51
 104:/Users/joostbooy/Desktop/Code/stm32/lib/tinyusb/src/tusb.c ****     desc += desc[DESC_OFFSET_LEN];
 233              		.loc 1 104 8 is_stmt 0 view .LVU52
 234 0018 90F801C0 		ldrb	ip, [r0, #1]	@ zero_extendqisi2
 235 001c 9445     		cmp	ip, r2
 236 001e F6D1     		bne	.L21
 104:/Users/joostbooy/Desktop/Code/stm32/lib/tinyusb/src/tusb.c ****     desc += desc[DESC_OFFSET_LEN];
 237              		.loc 1 104 26 discriminator 1 view .LVU53
 238 0020 8478     		ldrb	r4, [r0, #2]	@ zero_extendqisi2
 239 0022 9C42     		cmp	r4, r3
 240 0024 F3D1     		bne	.L21
 104:/Users/joostbooy/Desktop/Code/stm32/lib/tinyusb/src/tusb.c ****     desc += desc[DESC_OFFSET_LEN];
 241              		.loc 1 104 46 discriminator 2 view .LVU54
 242 0026 90F803C0 		ldrb	ip, [r0, #3]	@ zero_extendqisi2
 243 002a AC45     		cmp	ip, r5
 244 002c EFD1     		bne	.L21
 106:/Users/joostbooy/Desktop/Code/stm32/lib/tinyusb/src/tusb.c ****   }
 107:/Users/joostbooy/Desktop/Code/stm32/lib/tinyusb/src/tusb.c ****   return NULL;
 108:/Users/joostbooy/Desktop/Code/stm32/lib/tinyusb/src/tusb.c **** }
 245              		.loc 1 108 1 view .LVU55
 246 002e 30BC     		pop	{r4, r5}
 247              		.cfi_remember_state
 248              		.cfi_restore 5
 249              		.cfi_restore 4
 250              		.cfi_def_cfa_offset 0
 251              	.LVL10:
 252              		.loc 1 108 1 view .LVU56
 253 0030 7047     		bx	lr
 254              	.LVL11:
 255              	.L23:
 256              		.cfi_restore_state
 107:/Users/joostbooy/Desktop/Code/stm32/lib/tinyusb/src/tusb.c **** }
 257              		.loc 1 107 10 view .LVU57
 258 0032 0020     		movs	r0, #0
 259              	.LVL12:
 260              		.loc 1 108 1 view .LVU58
 261 0034 30BC     		pop	{r4, r5}
 262              		.cfi_restore 5
 263              		.cfi_restore 4
 264              		.cfi_def_cfa_offset 0
 265              	.LVL13:
 266              		.loc 1 108 1 view .LVU59
 267 0036 7047     		bx	lr
 268              		.cfi_endproc
 269              	.LFE83:
 271              		.section	.text.tu_edpt_claim,"ax",%progbits
 272              		.align	1
 273              		.p2align 2,,3
 274              		.global	tu_edpt_claim
 275              		.syntax unified
 276              		.thumb
 277              		.thumb_func
 278              		.fpu fpv4-sp-d16
 280              	tu_edpt_claim:
ARM GAS  /var/folders/84/_x1cyy_j36g486tldtwl37280000gn/T//cc1u9wTp.s 			page 8


 281              	.LVL14:
 282              	.LFB84:
 109:/Users/joostbooy/Desktop/Code/stm32/lib/tinyusb/src/tusb.c **** 
 110:/Users/joostbooy/Desktop/Code/stm32/lib/tinyusb/src/tusb.c **** 
 111:/Users/joostbooy/Desktop/Code/stm32/lib/tinyusb/src/tusb.c **** //--------------------------------------------------------------------+
 112:/Users/joostbooy/Desktop/Code/stm32/lib/tinyusb/src/tusb.c **** // Endpoint Helper for both Host and Device stack
 113:/Users/joostbooy/Desktop/Code/stm32/lib/tinyusb/src/tusb.c **** //--------------------------------------------------------------------+
 114:/Users/joostbooy/Desktop/Code/stm32/lib/tinyusb/src/tusb.c **** 
 115:/Users/joostbooy/Desktop/Code/stm32/lib/tinyusb/src/tusb.c **** bool tu_edpt_claim(tu_edpt_state_t* ep_state, osal_mutex_t mutex)
 116:/Users/joostbooy/Desktop/Code/stm32/lib/tinyusb/src/tusb.c **** {
 283              		.loc 1 116 1 is_stmt 1 view -0
 284              		.cfi_startproc
 285              		@ args = 0, pretend = 0, frame = 0
 286              		@ frame_needed = 0, uses_anonymous_args = 0
 287              		@ link register save eliminated.
 117:/Users/joostbooy/Desktop/Code/stm32/lib/tinyusb/src/tusb.c ****   (void) mutex;
 288              		.loc 1 117 3 view .LVU61
 118:/Users/joostbooy/Desktop/Code/stm32/lib/tinyusb/src/tusb.c **** 
 119:/Users/joostbooy/Desktop/Code/stm32/lib/tinyusb/src/tusb.c ****   // pre-check to help reducing mutex lock
 120:/Users/joostbooy/Desktop/Code/stm32/lib/tinyusb/src/tusb.c ****   TU_VERIFY((ep_state->busy == 0) && (ep_state->claimed == 0));
 289              		.loc 1 120 3 view .LVU62
 290              		.loc 1 120 3 view .LVU63
 291 0000 0378     		ldrb	r3, [r0]	@ zero_extendqisi2
 116:/Users/joostbooy/Desktop/Code/stm32/lib/tinyusb/src/tusb.c ****   (void) mutex;
 292              		.loc 1 116 1 is_stmt 0 view .LVU64
 293 0002 0246     		mov	r2, r0
 294              		.loc 1 120 3 view .LVU65
 295 0004 13F00100 		ands	r0, r3, #1
 296              	.LVL15:
 297              		.loc 1 120 3 view .LVU66
 298 0008 11D1     		bne	.L30
 299              		.loc 1 120 3 discriminator 2 view .LVU67
 300 000a 1178     		ldrb	r1, [r2]	@ zero_extendqisi2
 301              	.LVL16:
 302              		.loc 1 120 3 discriminator 2 view .LVU68
 303 000c 4907     		lsls	r1, r1, #29
 304 000e 0DD4     		bmi	.L32
 305              		.loc 1 120 3 is_stmt 1 discriminator 4 view .LVU69
 121:/Users/joostbooy/Desktop/Code/stm32/lib/tinyusb/src/tusb.c ****   (void) osal_mutex_lock(mutex, OSAL_TIMEOUT_WAIT_FOREVER);
 306              		.loc 1 121 3 discriminator 4 view .LVU70
 122:/Users/joostbooy/Desktop/Code/stm32/lib/tinyusb/src/tusb.c **** 
 123:/Users/joostbooy/Desktop/Code/stm32/lib/tinyusb/src/tusb.c ****   // can only claim the endpoint if it is not busy and not claimed yet.
 124:/Users/joostbooy/Desktop/Code/stm32/lib/tinyusb/src/tusb.c ****   bool const available = (ep_state->busy == 0) && (ep_state->claimed == 0);
 307              		.loc 1 124 3 discriminator 4 view .LVU71
 308              		.loc 1 124 35 is_stmt 0 discriminator 4 view .LVU72
 309 0010 1078     		ldrb	r0, [r2]	@ zero_extendqisi2
 310              		.loc 1 124 48 discriminator 4 view .LVU73
 311 0012 10F00100 		ands	r0, r0, #1
 312 0016 0AD1     		bne	.L30
 313              		.loc 1 124 60 discriminator 1 view .LVU74
 314 0018 92F800C0 		ldrb	ip, [r2]	@ zero_extendqisi2
 315              		.loc 1 124 48 discriminator 1 view .LVU75
 316 001c 5FEA4C73 		lsls	r3, ip, #29
 317 0020 07D4     		bmi	.L33
 318              	.LVL17:
 125:/Users/joostbooy/Desktop/Code/stm32/lib/tinyusb/src/tusb.c ****   if (available)
 319              		.loc 1 125 3 is_stmt 1 view .LVU76
ARM GAS  /var/folders/84/_x1cyy_j36g486tldtwl37280000gn/T//cc1u9wTp.s 			page 9


 126:/Users/joostbooy/Desktop/Code/stm32/lib/tinyusb/src/tusb.c ****   {
 127:/Users/joostbooy/Desktop/Code/stm32/lib/tinyusb/src/tusb.c ****     ep_state->claimed = 1;
 320              		.loc 1 127 5 view .LVU77
 321              		.loc 1 127 23 is_stmt 0 view .LVU78
 322 0022 1378     		ldrb	r3, [r2]	@ zero_extendqisi2
 323 0024 43F00401 		orr	r1, r3, #4
 324 0028 1170     		strb	r1, [r2]
 325 002a 0120     		movs	r0, #1
 326              	.LVL18:
 327              	.L32:
 128:/Users/joostbooy/Desktop/Code/stm32/lib/tinyusb/src/tusb.c ****   }
 129:/Users/joostbooy/Desktop/Code/stm32/lib/tinyusb/src/tusb.c **** 
 130:/Users/joostbooy/Desktop/Code/stm32/lib/tinyusb/src/tusb.c ****   (void) osal_mutex_unlock(mutex);
 131:/Users/joostbooy/Desktop/Code/stm32/lib/tinyusb/src/tusb.c **** 
 132:/Users/joostbooy/Desktop/Code/stm32/lib/tinyusb/src/tusb.c ****   return available;
 133:/Users/joostbooy/Desktop/Code/stm32/lib/tinyusb/src/tusb.c **** }
 328              		.loc 1 133 1 view .LVU79
 329 002c 7047     		bx	lr
 330              	.L30:
 120:/Users/joostbooy/Desktop/Code/stm32/lib/tinyusb/src/tusb.c ****   (void) osal_mutex_lock(mutex, OSAL_TIMEOUT_WAIT_FOREVER);
 331              		.loc 1 120 3 view .LVU80
 332 002e 0020     		movs	r0, #0
 333 0030 7047     		bx	lr
 334              	.L33:
 335 0032 7047     		bx	lr
 336              		.cfi_endproc
 337              	.LFE84:
 339              		.section	.text.tu_edpt_release,"ax",%progbits
 340              		.align	1
 341              		.p2align 2,,3
 342              		.global	tu_edpt_release
 343              		.syntax unified
 344              		.thumb
 345              		.thumb_func
 346              		.fpu fpv4-sp-d16
 348              	tu_edpt_release:
 349              	.LVL19:
 350              	.LFB85:
 134:/Users/joostbooy/Desktop/Code/stm32/lib/tinyusb/src/tusb.c **** 
 135:/Users/joostbooy/Desktop/Code/stm32/lib/tinyusb/src/tusb.c **** bool tu_edpt_release(tu_edpt_state_t* ep_state, osal_mutex_t mutex)
 136:/Users/joostbooy/Desktop/Code/stm32/lib/tinyusb/src/tusb.c **** {
 351              		.loc 1 136 1 is_stmt 1 view -0
 352              		.cfi_startproc
 353              		@ args = 0, pretend = 0, frame = 0
 354              		@ frame_needed = 0, uses_anonymous_args = 0
 355              		@ link register save eliminated.
 137:/Users/joostbooy/Desktop/Code/stm32/lib/tinyusb/src/tusb.c ****   (void) mutex;
 356              		.loc 1 137 3 view .LVU82
 138:/Users/joostbooy/Desktop/Code/stm32/lib/tinyusb/src/tusb.c **** 
 139:/Users/joostbooy/Desktop/Code/stm32/lib/tinyusb/src/tusb.c ****   (void) osal_mutex_lock(mutex, OSAL_TIMEOUT_WAIT_FOREVER);
 357              		.loc 1 139 3 view .LVU83
 140:/Users/joostbooy/Desktop/Code/stm32/lib/tinyusb/src/tusb.c **** 
 141:/Users/joostbooy/Desktop/Code/stm32/lib/tinyusb/src/tusb.c ****   // can only release the endpoint if it is claimed and not busy
 142:/Users/joostbooy/Desktop/Code/stm32/lib/tinyusb/src/tusb.c ****   bool const ret = (ep_state->claimed == 1) && (ep_state->busy == 0);
 358              		.loc 1 142 3 view .LVU84
 359              		.loc 1 142 29 is_stmt 0 view .LVU85
 360 0000 0378     		ldrb	r3, [r0]	@ zero_extendqisi2
ARM GAS  /var/folders/84/_x1cyy_j36g486tldtwl37280000gn/T//cc1u9wTp.s 			page 10


 361 0002 C3F38002 		ubfx	r2, r3, #2, #1
 362              		.loc 1 142 45 view .LVU86
 363 0006 5B07     		lsls	r3, r3, #29
 364 0008 08D5     		bpl	.L37
 365              		.loc 1 142 57 discriminator 1 view .LVU87
 366 000a 0378     		ldrb	r3, [r0]	@ zero_extendqisi2
 367              		.loc 1 142 45 discriminator 1 view .LVU88
 368 000c 13F00101 		ands	r1, r3, #1
 369              	.LVL20:
 143:/Users/joostbooy/Desktop/Code/stm32/lib/tinyusb/src/tusb.c ****   if (ret)
 144:/Users/joostbooy/Desktop/Code/stm32/lib/tinyusb/src/tusb.c ****   {
 145:/Users/joostbooy/Desktop/Code/stm32/lib/tinyusb/src/tusb.c ****     ep_state->claimed = 0;
 370              		.loc 1 145 23 discriminator 1 view .LVU89
 371 0010 05BF     		ittet	eq
 372 0012 0378     		ldrbeq	r3, [r0]	@ zero_extendqisi2
 373 0014 61F38203 		bfieq	r3, r1, #2, #1
 142:/Users/joostbooy/Desktop/Code/stm32/lib/tinyusb/src/tusb.c ****   if (ret)
 374              		.loc 1 142 14 discriminator 1 view .LVU90
 375 0018 0022     		movne	r2, #0
 376              	.LVL21:
 143:/Users/joostbooy/Desktop/Code/stm32/lib/tinyusb/src/tusb.c ****   if (ret)
 377              		.loc 1 143 3 is_stmt 1 discriminator 1 view .LVU91
 378              		.loc 1 145 5 discriminator 1 view .LVU92
 379              		.loc 1 145 23 is_stmt 0 discriminator 1 view .LVU93
 380 001a 0370     		strbeq	r3, [r0]
 381              	.LVL22:
 146:/Users/joostbooy/Desktop/Code/stm32/lib/tinyusb/src/tusb.c ****   }
 147:/Users/joostbooy/Desktop/Code/stm32/lib/tinyusb/src/tusb.c **** 
 148:/Users/joostbooy/Desktop/Code/stm32/lib/tinyusb/src/tusb.c ****   (void) osal_mutex_unlock(mutex);
 382              		.loc 1 148 3 is_stmt 1 discriminator 1 view .LVU94
 149:/Users/joostbooy/Desktop/Code/stm32/lib/tinyusb/src/tusb.c **** 
 150:/Users/joostbooy/Desktop/Code/stm32/lib/tinyusb/src/tusb.c ****   return ret;
 383              		.loc 1 150 3 discriminator 1 view .LVU95
 384              	.L37:
 151:/Users/joostbooy/Desktop/Code/stm32/lib/tinyusb/src/tusb.c **** }
 385              		.loc 1 151 1 is_stmt 0 view .LVU96
 386 001c 1046     		mov	r0, r2
 387              	.LVL23:
 388              		.loc 1 151 1 view .LVU97
 389 001e 7047     		bx	lr
 390              		.cfi_endproc
 391              	.LFE85:
 393              		.section	.text.tu_edpt_validate,"ax",%progbits
 394              		.align	1
 395              		.p2align 2,,3
 396              		.global	tu_edpt_validate
 397              		.syntax unified
 398              		.thumb
 399              		.thumb_func
 400              		.fpu fpv4-sp-d16
 402              	tu_edpt_validate:
 403              	.LVL24:
 404              	.LFB86:
 152:/Users/joostbooy/Desktop/Code/stm32/lib/tinyusb/src/tusb.c **** 
 153:/Users/joostbooy/Desktop/Code/stm32/lib/tinyusb/src/tusb.c **** bool tu_edpt_validate(tusb_desc_endpoint_t const * desc_ep, tusb_speed_t speed)
 154:/Users/joostbooy/Desktop/Code/stm32/lib/tinyusb/src/tusb.c **** {
 405              		.loc 1 154 1 is_stmt 1 view -0
ARM GAS  /var/folders/84/_x1cyy_j36g486tldtwl37280000gn/T//cc1u9wTp.s 			page 11


 406              		.cfi_startproc
 407              		@ args = 0, pretend = 0, frame = 0
 408              		@ frame_needed = 0, uses_anonymous_args = 0
 409              		@ link register save eliminated.
 155:/Users/joostbooy/Desktop/Code/stm32/lib/tinyusb/src/tusb.c ****   uint16_t const max_packet_size = tu_edpt_packet_size(desc_ep);
 410              		.loc 1 155 3 view .LVU99
 411              	.LBB55:
 412              	.LBI55:
 413              		.file 2 "/Users/joostbooy/Desktop/Code/stm32/lib/tinyusb/src/common/tusb_types.h"
   1:/Users/joostbooy/Desktop/Code/stm32/lib/tinyusb/src/common/tusb_types.h **** /*
   2:/Users/joostbooy/Desktop/Code/stm32/lib/tinyusb/src/common/tusb_types.h ****  * The MIT License (MIT)
   3:/Users/joostbooy/Desktop/Code/stm32/lib/tinyusb/src/common/tusb_types.h ****  *
   4:/Users/joostbooy/Desktop/Code/stm32/lib/tinyusb/src/common/tusb_types.h ****  * Copyright (c) 2019 Ha Thach (tinyusb.org)
   5:/Users/joostbooy/Desktop/Code/stm32/lib/tinyusb/src/common/tusb_types.h ****  *
   6:/Users/joostbooy/Desktop/Code/stm32/lib/tinyusb/src/common/tusb_types.h ****  * Permission is hereby granted, free of charge, to any person obtaining a copy
   7:/Users/joostbooy/Desktop/Code/stm32/lib/tinyusb/src/common/tusb_types.h ****  * of this software and associated documentation files (the "Software"), to deal
   8:/Users/joostbooy/Desktop/Code/stm32/lib/tinyusb/src/common/tusb_types.h ****  * in the Software without restriction, including without limitation the rights
   9:/Users/joostbooy/Desktop/Code/stm32/lib/tinyusb/src/common/tusb_types.h ****  * to use, copy, modify, merge, publish, distribute, sublicense, and/or sell
  10:/Users/joostbooy/Desktop/Code/stm32/lib/tinyusb/src/common/tusb_types.h ****  * copies of the Software, and to permit persons to whom the Software is
  11:/Users/joostbooy/Desktop/Code/stm32/lib/tinyusb/src/common/tusb_types.h ****  * furnished to do so, subject to the following conditions:
  12:/Users/joostbooy/Desktop/Code/stm32/lib/tinyusb/src/common/tusb_types.h ****  *
  13:/Users/joostbooy/Desktop/Code/stm32/lib/tinyusb/src/common/tusb_types.h ****  * The above copyright notice and this permission notice shall be included in
  14:/Users/joostbooy/Desktop/Code/stm32/lib/tinyusb/src/common/tusb_types.h ****  * all copies or substantial portions of the Software.
  15:/Users/joostbooy/Desktop/Code/stm32/lib/tinyusb/src/common/tusb_types.h ****  *
  16:/Users/joostbooy/Desktop/Code/stm32/lib/tinyusb/src/common/tusb_types.h ****  * THE SOFTWARE IS PROVIDED "AS IS", WITHOUT WARRANTY OF ANY KIND, EXPRESS OR
  17:/Users/joostbooy/Desktop/Code/stm32/lib/tinyusb/src/common/tusb_types.h ****  * IMPLIED, INCLUDING BUT NOT LIMITED TO THE WARRANTIES OF MERCHANTABILITY,
  18:/Users/joostbooy/Desktop/Code/stm32/lib/tinyusb/src/common/tusb_types.h ****  * FITNESS FOR A PARTICULAR PURPOSE AND NONINFRINGEMENT. IN NO EVENT SHALL THE
  19:/Users/joostbooy/Desktop/Code/stm32/lib/tinyusb/src/common/tusb_types.h ****  * AUTHORS OR COPYRIGHT HOLDERS BE LIABLE FOR ANY CLAIM, DAMAGES OR OTHER
  20:/Users/joostbooy/Desktop/Code/stm32/lib/tinyusb/src/common/tusb_types.h ****  * LIABILITY, WHETHER IN AN ACTION OF CONTRACT, TORT OR OTHERWISE, ARISING FROM,
  21:/Users/joostbooy/Desktop/Code/stm32/lib/tinyusb/src/common/tusb_types.h ****  * OUT OF OR IN CONNECTION WITH THE SOFTWARE OR THE USE OR OTHER DEALINGS IN
  22:/Users/joostbooy/Desktop/Code/stm32/lib/tinyusb/src/common/tusb_types.h ****  * THE SOFTWARE.
  23:/Users/joostbooy/Desktop/Code/stm32/lib/tinyusb/src/common/tusb_types.h ****  *
  24:/Users/joostbooy/Desktop/Code/stm32/lib/tinyusb/src/common/tusb_types.h ****  * This file is part of the TinyUSB stack.
  25:/Users/joostbooy/Desktop/Code/stm32/lib/tinyusb/src/common/tusb_types.h ****  */
  26:/Users/joostbooy/Desktop/Code/stm32/lib/tinyusb/src/common/tusb_types.h **** 
  27:/Users/joostbooy/Desktop/Code/stm32/lib/tinyusb/src/common/tusb_types.h **** /** \ingroup group_usb_definitions
  28:/Users/joostbooy/Desktop/Code/stm32/lib/tinyusb/src/common/tusb_types.h ****  *  \defgroup USBDef_Type USB Types
  29:/Users/joostbooy/Desktop/Code/stm32/lib/tinyusb/src/common/tusb_types.h ****  *  @{ */
  30:/Users/joostbooy/Desktop/Code/stm32/lib/tinyusb/src/common/tusb_types.h **** 
  31:/Users/joostbooy/Desktop/Code/stm32/lib/tinyusb/src/common/tusb_types.h **** #ifndef _TUSB_TYPES_H_
  32:/Users/joostbooy/Desktop/Code/stm32/lib/tinyusb/src/common/tusb_types.h **** #define _TUSB_TYPES_H_
  33:/Users/joostbooy/Desktop/Code/stm32/lib/tinyusb/src/common/tusb_types.h **** 
  34:/Users/joostbooy/Desktop/Code/stm32/lib/tinyusb/src/common/tusb_types.h **** #include <stdbool.h>
  35:/Users/joostbooy/Desktop/Code/stm32/lib/tinyusb/src/common/tusb_types.h **** #include <stdint.h>
  36:/Users/joostbooy/Desktop/Code/stm32/lib/tinyusb/src/common/tusb_types.h **** #include "tusb_compiler.h"
  37:/Users/joostbooy/Desktop/Code/stm32/lib/tinyusb/src/common/tusb_types.h **** 
  38:/Users/joostbooy/Desktop/Code/stm32/lib/tinyusb/src/common/tusb_types.h **** #ifdef __cplusplus
  39:/Users/joostbooy/Desktop/Code/stm32/lib/tinyusb/src/common/tusb_types.h ****  extern "C" {
  40:/Users/joostbooy/Desktop/Code/stm32/lib/tinyusb/src/common/tusb_types.h **** #endif
  41:/Users/joostbooy/Desktop/Code/stm32/lib/tinyusb/src/common/tusb_types.h **** 
  42:/Users/joostbooy/Desktop/Code/stm32/lib/tinyusb/src/common/tusb_types.h **** /*------------------------------------------------------------------*/
  43:/Users/joostbooy/Desktop/Code/stm32/lib/tinyusb/src/common/tusb_types.h **** /* CONSTANTS
  44:/Users/joostbooy/Desktop/Code/stm32/lib/tinyusb/src/common/tusb_types.h ****  *------------------------------------------------------------------*/
  45:/Users/joostbooy/Desktop/Code/stm32/lib/tinyusb/src/common/tusb_types.h **** 
  46:/Users/joostbooy/Desktop/Code/stm32/lib/tinyusb/src/common/tusb_types.h **** /// defined base on EHCI specs value for Endpoint Speed
  47:/Users/joostbooy/Desktop/Code/stm32/lib/tinyusb/src/common/tusb_types.h **** typedef enum
  48:/Users/joostbooy/Desktop/Code/stm32/lib/tinyusb/src/common/tusb_types.h **** {
ARM GAS  /var/folders/84/_x1cyy_j36g486tldtwl37280000gn/T//cc1u9wTp.s 			page 12


  49:/Users/joostbooy/Desktop/Code/stm32/lib/tinyusb/src/common/tusb_types.h ****   TUSB_SPEED_FULL = 0,
  50:/Users/joostbooy/Desktop/Code/stm32/lib/tinyusb/src/common/tusb_types.h ****   TUSB_SPEED_LOW  = 1,
  51:/Users/joostbooy/Desktop/Code/stm32/lib/tinyusb/src/common/tusb_types.h ****   TUSB_SPEED_HIGH = 2,
  52:/Users/joostbooy/Desktop/Code/stm32/lib/tinyusb/src/common/tusb_types.h ****   TUSB_SPEED_INVALID = 0xff,
  53:/Users/joostbooy/Desktop/Code/stm32/lib/tinyusb/src/common/tusb_types.h **** }tusb_speed_t;
  54:/Users/joostbooy/Desktop/Code/stm32/lib/tinyusb/src/common/tusb_types.h **** 
  55:/Users/joostbooy/Desktop/Code/stm32/lib/tinyusb/src/common/tusb_types.h **** /// defined base on USB Specs Endpoint's bmAttributes
  56:/Users/joostbooy/Desktop/Code/stm32/lib/tinyusb/src/common/tusb_types.h **** typedef enum
  57:/Users/joostbooy/Desktop/Code/stm32/lib/tinyusb/src/common/tusb_types.h **** {
  58:/Users/joostbooy/Desktop/Code/stm32/lib/tinyusb/src/common/tusb_types.h ****   TUSB_XFER_CONTROL = 0 ,
  59:/Users/joostbooy/Desktop/Code/stm32/lib/tinyusb/src/common/tusb_types.h ****   TUSB_XFER_ISOCHRONOUS ,
  60:/Users/joostbooy/Desktop/Code/stm32/lib/tinyusb/src/common/tusb_types.h ****   TUSB_XFER_BULK        ,
  61:/Users/joostbooy/Desktop/Code/stm32/lib/tinyusb/src/common/tusb_types.h ****   TUSB_XFER_INTERRUPT
  62:/Users/joostbooy/Desktop/Code/stm32/lib/tinyusb/src/common/tusb_types.h **** }tusb_xfer_type_t;
  63:/Users/joostbooy/Desktop/Code/stm32/lib/tinyusb/src/common/tusb_types.h **** 
  64:/Users/joostbooy/Desktop/Code/stm32/lib/tinyusb/src/common/tusb_types.h **** typedef enum
  65:/Users/joostbooy/Desktop/Code/stm32/lib/tinyusb/src/common/tusb_types.h **** {
  66:/Users/joostbooy/Desktop/Code/stm32/lib/tinyusb/src/common/tusb_types.h ****   TUSB_DIR_OUT = 0,
  67:/Users/joostbooy/Desktop/Code/stm32/lib/tinyusb/src/common/tusb_types.h ****   TUSB_DIR_IN  = 1,
  68:/Users/joostbooy/Desktop/Code/stm32/lib/tinyusb/src/common/tusb_types.h **** 
  69:/Users/joostbooy/Desktop/Code/stm32/lib/tinyusb/src/common/tusb_types.h ****   TUSB_DIR_IN_MASK = 0x80
  70:/Users/joostbooy/Desktop/Code/stm32/lib/tinyusb/src/common/tusb_types.h **** }tusb_dir_t;
  71:/Users/joostbooy/Desktop/Code/stm32/lib/tinyusb/src/common/tusb_types.h **** 
  72:/Users/joostbooy/Desktop/Code/stm32/lib/tinyusb/src/common/tusb_types.h **** enum
  73:/Users/joostbooy/Desktop/Code/stm32/lib/tinyusb/src/common/tusb_types.h **** {
  74:/Users/joostbooy/Desktop/Code/stm32/lib/tinyusb/src/common/tusb_types.h ****   TUSB_EPSIZE_BULK_FS = 64,
  75:/Users/joostbooy/Desktop/Code/stm32/lib/tinyusb/src/common/tusb_types.h ****   TUSB_EPSIZE_BULK_HS= 512,
  76:/Users/joostbooy/Desktop/Code/stm32/lib/tinyusb/src/common/tusb_types.h **** 
  77:/Users/joostbooy/Desktop/Code/stm32/lib/tinyusb/src/common/tusb_types.h ****   TUSB_EPSIZE_ISO_FS_MAX = 1023,
  78:/Users/joostbooy/Desktop/Code/stm32/lib/tinyusb/src/common/tusb_types.h ****   TUSB_EPSIZE_ISO_HS_MAX = 1024,
  79:/Users/joostbooy/Desktop/Code/stm32/lib/tinyusb/src/common/tusb_types.h **** };
  80:/Users/joostbooy/Desktop/Code/stm32/lib/tinyusb/src/common/tusb_types.h **** 
  81:/Users/joostbooy/Desktop/Code/stm32/lib/tinyusb/src/common/tusb_types.h **** /// Isochronous End Point Attributes
  82:/Users/joostbooy/Desktop/Code/stm32/lib/tinyusb/src/common/tusb_types.h **** typedef enum
  83:/Users/joostbooy/Desktop/Code/stm32/lib/tinyusb/src/common/tusb_types.h **** {
  84:/Users/joostbooy/Desktop/Code/stm32/lib/tinyusb/src/common/tusb_types.h ****   TUSB_ISO_EP_ATT_NO_SYNC         = 0x00,
  85:/Users/joostbooy/Desktop/Code/stm32/lib/tinyusb/src/common/tusb_types.h ****   TUSB_ISO_EP_ATT_ASYNCHRONOUS    = 0x04,
  86:/Users/joostbooy/Desktop/Code/stm32/lib/tinyusb/src/common/tusb_types.h ****   TUSB_ISO_EP_ATT_ADAPTIVE        = 0x08,
  87:/Users/joostbooy/Desktop/Code/stm32/lib/tinyusb/src/common/tusb_types.h ****   TUSB_ISO_EP_ATT_SYNCHRONOUS     = 0x0C,
  88:/Users/joostbooy/Desktop/Code/stm32/lib/tinyusb/src/common/tusb_types.h ****   TUSB_ISO_EP_ATT_DATA            = 0x00, ///< Data End Point
  89:/Users/joostbooy/Desktop/Code/stm32/lib/tinyusb/src/common/tusb_types.h ****   TUSB_ISO_EP_ATT_EXPLICIT_FB     = 0x10, ///< Feedback End Point
  90:/Users/joostbooy/Desktop/Code/stm32/lib/tinyusb/src/common/tusb_types.h ****   TUSB_ISO_EP_ATT_IMPLICIT_FB     = 0x20, ///< Data endpoint that also serves as an implicit feedba
  91:/Users/joostbooy/Desktop/Code/stm32/lib/tinyusb/src/common/tusb_types.h **** }tusb_iso_ep_attribute_t;
  92:/Users/joostbooy/Desktop/Code/stm32/lib/tinyusb/src/common/tusb_types.h **** 
  93:/Users/joostbooy/Desktop/Code/stm32/lib/tinyusb/src/common/tusb_types.h **** /// USB Descriptor Types
  94:/Users/joostbooy/Desktop/Code/stm32/lib/tinyusb/src/common/tusb_types.h **** typedef enum
  95:/Users/joostbooy/Desktop/Code/stm32/lib/tinyusb/src/common/tusb_types.h **** {
  96:/Users/joostbooy/Desktop/Code/stm32/lib/tinyusb/src/common/tusb_types.h ****   TUSB_DESC_DEVICE                = 0x01,
  97:/Users/joostbooy/Desktop/Code/stm32/lib/tinyusb/src/common/tusb_types.h ****   TUSB_DESC_CONFIGURATION         = 0x02,
  98:/Users/joostbooy/Desktop/Code/stm32/lib/tinyusb/src/common/tusb_types.h ****   TUSB_DESC_STRING                = 0x03,
  99:/Users/joostbooy/Desktop/Code/stm32/lib/tinyusb/src/common/tusb_types.h ****   TUSB_DESC_INTERFACE             = 0x04,
 100:/Users/joostbooy/Desktop/Code/stm32/lib/tinyusb/src/common/tusb_types.h ****   TUSB_DESC_ENDPOINT              = 0x05,
 101:/Users/joostbooy/Desktop/Code/stm32/lib/tinyusb/src/common/tusb_types.h ****   TUSB_DESC_DEVICE_QUALIFIER      = 0x06,
 102:/Users/joostbooy/Desktop/Code/stm32/lib/tinyusb/src/common/tusb_types.h ****   TUSB_DESC_OTHER_SPEED_CONFIG    = 0x07,
 103:/Users/joostbooy/Desktop/Code/stm32/lib/tinyusb/src/common/tusb_types.h ****   TUSB_DESC_INTERFACE_POWER       = 0x08,
 104:/Users/joostbooy/Desktop/Code/stm32/lib/tinyusb/src/common/tusb_types.h ****   TUSB_DESC_OTG                   = 0x09,
 105:/Users/joostbooy/Desktop/Code/stm32/lib/tinyusb/src/common/tusb_types.h ****   TUSB_DESC_DEBUG                 = 0x0A,
ARM GAS  /var/folders/84/_x1cyy_j36g486tldtwl37280000gn/T//cc1u9wTp.s 			page 13


 106:/Users/joostbooy/Desktop/Code/stm32/lib/tinyusb/src/common/tusb_types.h ****   TUSB_DESC_INTERFACE_ASSOCIATION = 0x0B,
 107:/Users/joostbooy/Desktop/Code/stm32/lib/tinyusb/src/common/tusb_types.h **** 
 108:/Users/joostbooy/Desktop/Code/stm32/lib/tinyusb/src/common/tusb_types.h ****   TUSB_DESC_BOS                   = 0x0F,
 109:/Users/joostbooy/Desktop/Code/stm32/lib/tinyusb/src/common/tusb_types.h ****   TUSB_DESC_DEVICE_CAPABILITY     = 0x10,
 110:/Users/joostbooy/Desktop/Code/stm32/lib/tinyusb/src/common/tusb_types.h **** 
 111:/Users/joostbooy/Desktop/Code/stm32/lib/tinyusb/src/common/tusb_types.h ****   TUSB_DESC_FUNCTIONAL            = 0x21,
 112:/Users/joostbooy/Desktop/Code/stm32/lib/tinyusb/src/common/tusb_types.h **** 
 113:/Users/joostbooy/Desktop/Code/stm32/lib/tinyusb/src/common/tusb_types.h ****   // Class Specific Descriptor
 114:/Users/joostbooy/Desktop/Code/stm32/lib/tinyusb/src/common/tusb_types.h ****   TUSB_DESC_CS_DEVICE             = 0x21,
 115:/Users/joostbooy/Desktop/Code/stm32/lib/tinyusb/src/common/tusb_types.h ****   TUSB_DESC_CS_CONFIGURATION      = 0x22,
 116:/Users/joostbooy/Desktop/Code/stm32/lib/tinyusb/src/common/tusb_types.h ****   TUSB_DESC_CS_STRING             = 0x23,
 117:/Users/joostbooy/Desktop/Code/stm32/lib/tinyusb/src/common/tusb_types.h ****   TUSB_DESC_CS_INTERFACE          = 0x24,
 118:/Users/joostbooy/Desktop/Code/stm32/lib/tinyusb/src/common/tusb_types.h ****   TUSB_DESC_CS_ENDPOINT           = 0x25,
 119:/Users/joostbooy/Desktop/Code/stm32/lib/tinyusb/src/common/tusb_types.h **** 
 120:/Users/joostbooy/Desktop/Code/stm32/lib/tinyusb/src/common/tusb_types.h ****   TUSB_DESC_SUPERSPEED_ENDPOINT_COMPANION     = 0x30,
 121:/Users/joostbooy/Desktop/Code/stm32/lib/tinyusb/src/common/tusb_types.h ****   TUSB_DESC_SUPERSPEED_ISO_ENDPOINT_COMPANION = 0x31
 122:/Users/joostbooy/Desktop/Code/stm32/lib/tinyusb/src/common/tusb_types.h **** }tusb_desc_type_t;
 123:/Users/joostbooy/Desktop/Code/stm32/lib/tinyusb/src/common/tusb_types.h **** 
 124:/Users/joostbooy/Desktop/Code/stm32/lib/tinyusb/src/common/tusb_types.h **** typedef enum
 125:/Users/joostbooy/Desktop/Code/stm32/lib/tinyusb/src/common/tusb_types.h **** {
 126:/Users/joostbooy/Desktop/Code/stm32/lib/tinyusb/src/common/tusb_types.h ****   TUSB_REQ_GET_STATUS        = 0  ,
 127:/Users/joostbooy/Desktop/Code/stm32/lib/tinyusb/src/common/tusb_types.h ****   TUSB_REQ_CLEAR_FEATURE     = 1  ,
 128:/Users/joostbooy/Desktop/Code/stm32/lib/tinyusb/src/common/tusb_types.h ****   TUSB_REQ_RESERVED          = 2  ,
 129:/Users/joostbooy/Desktop/Code/stm32/lib/tinyusb/src/common/tusb_types.h ****   TUSB_REQ_SET_FEATURE       = 3  ,
 130:/Users/joostbooy/Desktop/Code/stm32/lib/tinyusb/src/common/tusb_types.h ****   TUSB_REQ_RESERVED2         = 4  ,
 131:/Users/joostbooy/Desktop/Code/stm32/lib/tinyusb/src/common/tusb_types.h ****   TUSB_REQ_SET_ADDRESS       = 5  ,
 132:/Users/joostbooy/Desktop/Code/stm32/lib/tinyusb/src/common/tusb_types.h ****   TUSB_REQ_GET_DESCRIPTOR    = 6  ,
 133:/Users/joostbooy/Desktop/Code/stm32/lib/tinyusb/src/common/tusb_types.h ****   TUSB_REQ_SET_DESCRIPTOR    = 7  ,
 134:/Users/joostbooy/Desktop/Code/stm32/lib/tinyusb/src/common/tusb_types.h ****   TUSB_REQ_GET_CONFIGURATION = 8  ,
 135:/Users/joostbooy/Desktop/Code/stm32/lib/tinyusb/src/common/tusb_types.h ****   TUSB_REQ_SET_CONFIGURATION = 9  ,
 136:/Users/joostbooy/Desktop/Code/stm32/lib/tinyusb/src/common/tusb_types.h ****   TUSB_REQ_GET_INTERFACE     = 10 ,
 137:/Users/joostbooy/Desktop/Code/stm32/lib/tinyusb/src/common/tusb_types.h ****   TUSB_REQ_SET_INTERFACE     = 11 ,
 138:/Users/joostbooy/Desktop/Code/stm32/lib/tinyusb/src/common/tusb_types.h ****   TUSB_REQ_SYNCH_FRAME       = 12
 139:/Users/joostbooy/Desktop/Code/stm32/lib/tinyusb/src/common/tusb_types.h **** }tusb_request_code_t;
 140:/Users/joostbooy/Desktop/Code/stm32/lib/tinyusb/src/common/tusb_types.h **** 
 141:/Users/joostbooy/Desktop/Code/stm32/lib/tinyusb/src/common/tusb_types.h **** typedef enum
 142:/Users/joostbooy/Desktop/Code/stm32/lib/tinyusb/src/common/tusb_types.h **** {
 143:/Users/joostbooy/Desktop/Code/stm32/lib/tinyusb/src/common/tusb_types.h ****   TUSB_REQ_FEATURE_EDPT_HALT     = 0,
 144:/Users/joostbooy/Desktop/Code/stm32/lib/tinyusb/src/common/tusb_types.h ****   TUSB_REQ_FEATURE_REMOTE_WAKEUP = 1,
 145:/Users/joostbooy/Desktop/Code/stm32/lib/tinyusb/src/common/tusb_types.h ****   TUSB_REQ_FEATURE_TEST_MODE     = 2
 146:/Users/joostbooy/Desktop/Code/stm32/lib/tinyusb/src/common/tusb_types.h **** }tusb_request_feature_selector_t;
 147:/Users/joostbooy/Desktop/Code/stm32/lib/tinyusb/src/common/tusb_types.h **** 
 148:/Users/joostbooy/Desktop/Code/stm32/lib/tinyusb/src/common/tusb_types.h **** typedef enum
 149:/Users/joostbooy/Desktop/Code/stm32/lib/tinyusb/src/common/tusb_types.h **** {
 150:/Users/joostbooy/Desktop/Code/stm32/lib/tinyusb/src/common/tusb_types.h ****   TUSB_REQ_TYPE_STANDARD = 0,
 151:/Users/joostbooy/Desktop/Code/stm32/lib/tinyusb/src/common/tusb_types.h ****   TUSB_REQ_TYPE_CLASS,
 152:/Users/joostbooy/Desktop/Code/stm32/lib/tinyusb/src/common/tusb_types.h ****   TUSB_REQ_TYPE_VENDOR,
 153:/Users/joostbooy/Desktop/Code/stm32/lib/tinyusb/src/common/tusb_types.h ****   TUSB_REQ_TYPE_INVALID
 154:/Users/joostbooy/Desktop/Code/stm32/lib/tinyusb/src/common/tusb_types.h **** } tusb_request_type_t;
 155:/Users/joostbooy/Desktop/Code/stm32/lib/tinyusb/src/common/tusb_types.h **** 
 156:/Users/joostbooy/Desktop/Code/stm32/lib/tinyusb/src/common/tusb_types.h **** typedef enum
 157:/Users/joostbooy/Desktop/Code/stm32/lib/tinyusb/src/common/tusb_types.h **** {
 158:/Users/joostbooy/Desktop/Code/stm32/lib/tinyusb/src/common/tusb_types.h ****   TUSB_REQ_RCPT_DEVICE =0,
 159:/Users/joostbooy/Desktop/Code/stm32/lib/tinyusb/src/common/tusb_types.h ****   TUSB_REQ_RCPT_INTERFACE,
 160:/Users/joostbooy/Desktop/Code/stm32/lib/tinyusb/src/common/tusb_types.h ****   TUSB_REQ_RCPT_ENDPOINT,
 161:/Users/joostbooy/Desktop/Code/stm32/lib/tinyusb/src/common/tusb_types.h ****   TUSB_REQ_RCPT_OTHER
 162:/Users/joostbooy/Desktop/Code/stm32/lib/tinyusb/src/common/tusb_types.h **** } tusb_request_recipient_t;
ARM GAS  /var/folders/84/_x1cyy_j36g486tldtwl37280000gn/T//cc1u9wTp.s 			page 14


 163:/Users/joostbooy/Desktop/Code/stm32/lib/tinyusb/src/common/tusb_types.h **** 
 164:/Users/joostbooy/Desktop/Code/stm32/lib/tinyusb/src/common/tusb_types.h **** // https://www.usb.org/defined-class-codes
 165:/Users/joostbooy/Desktop/Code/stm32/lib/tinyusb/src/common/tusb_types.h **** typedef enum
 166:/Users/joostbooy/Desktop/Code/stm32/lib/tinyusb/src/common/tusb_types.h **** {
 167:/Users/joostbooy/Desktop/Code/stm32/lib/tinyusb/src/common/tusb_types.h ****   TUSB_CLASS_UNSPECIFIED          = 0    ,
 168:/Users/joostbooy/Desktop/Code/stm32/lib/tinyusb/src/common/tusb_types.h ****   TUSB_CLASS_AUDIO                = 1    ,
 169:/Users/joostbooy/Desktop/Code/stm32/lib/tinyusb/src/common/tusb_types.h ****   TUSB_CLASS_CDC                  = 2    ,
 170:/Users/joostbooy/Desktop/Code/stm32/lib/tinyusb/src/common/tusb_types.h ****   TUSB_CLASS_HID                  = 3    ,
 171:/Users/joostbooy/Desktop/Code/stm32/lib/tinyusb/src/common/tusb_types.h ****   TUSB_CLASS_RESERVED_4           = 4    ,
 172:/Users/joostbooy/Desktop/Code/stm32/lib/tinyusb/src/common/tusb_types.h ****   TUSB_CLASS_PHYSICAL             = 5    ,
 173:/Users/joostbooy/Desktop/Code/stm32/lib/tinyusb/src/common/tusb_types.h ****   TUSB_CLASS_IMAGE                = 6    ,
 174:/Users/joostbooy/Desktop/Code/stm32/lib/tinyusb/src/common/tusb_types.h ****   TUSB_CLASS_PRINTER              = 7    ,
 175:/Users/joostbooy/Desktop/Code/stm32/lib/tinyusb/src/common/tusb_types.h ****   TUSB_CLASS_MSC                  = 8    ,
 176:/Users/joostbooy/Desktop/Code/stm32/lib/tinyusb/src/common/tusb_types.h ****   TUSB_CLASS_HUB                  = 9    ,
 177:/Users/joostbooy/Desktop/Code/stm32/lib/tinyusb/src/common/tusb_types.h ****   TUSB_CLASS_CDC_DATA             = 10   ,
 178:/Users/joostbooy/Desktop/Code/stm32/lib/tinyusb/src/common/tusb_types.h ****   TUSB_CLASS_SMART_CARD           = 11   ,
 179:/Users/joostbooy/Desktop/Code/stm32/lib/tinyusb/src/common/tusb_types.h ****   TUSB_CLASS_RESERVED_12          = 12   ,
 180:/Users/joostbooy/Desktop/Code/stm32/lib/tinyusb/src/common/tusb_types.h ****   TUSB_CLASS_CONTENT_SECURITY     = 13   ,
 181:/Users/joostbooy/Desktop/Code/stm32/lib/tinyusb/src/common/tusb_types.h ****   TUSB_CLASS_VIDEO                = 14   ,
 182:/Users/joostbooy/Desktop/Code/stm32/lib/tinyusb/src/common/tusb_types.h ****   TUSB_CLASS_PERSONAL_HEALTHCARE  = 15   ,
 183:/Users/joostbooy/Desktop/Code/stm32/lib/tinyusb/src/common/tusb_types.h ****   TUSB_CLASS_AUDIO_VIDEO          = 16   ,
 184:/Users/joostbooy/Desktop/Code/stm32/lib/tinyusb/src/common/tusb_types.h **** 
 185:/Users/joostbooy/Desktop/Code/stm32/lib/tinyusb/src/common/tusb_types.h ****   TUSB_CLASS_DIAGNOSTIC           = 0xDC ,
 186:/Users/joostbooy/Desktop/Code/stm32/lib/tinyusb/src/common/tusb_types.h ****   TUSB_CLASS_WIRELESS_CONTROLLER  = 0xE0 ,
 187:/Users/joostbooy/Desktop/Code/stm32/lib/tinyusb/src/common/tusb_types.h ****   TUSB_CLASS_MISC                 = 0xEF ,
 188:/Users/joostbooy/Desktop/Code/stm32/lib/tinyusb/src/common/tusb_types.h ****   TUSB_CLASS_APPLICATION_SPECIFIC = 0xFE ,
 189:/Users/joostbooy/Desktop/Code/stm32/lib/tinyusb/src/common/tusb_types.h ****   TUSB_CLASS_VENDOR_SPECIFIC      = 0xFF
 190:/Users/joostbooy/Desktop/Code/stm32/lib/tinyusb/src/common/tusb_types.h **** }tusb_class_code_t;
 191:/Users/joostbooy/Desktop/Code/stm32/lib/tinyusb/src/common/tusb_types.h **** 
 192:/Users/joostbooy/Desktop/Code/stm32/lib/tinyusb/src/common/tusb_types.h **** typedef enum
 193:/Users/joostbooy/Desktop/Code/stm32/lib/tinyusb/src/common/tusb_types.h **** {
 194:/Users/joostbooy/Desktop/Code/stm32/lib/tinyusb/src/common/tusb_types.h ****   MISC_SUBCLASS_COMMON = 2
 195:/Users/joostbooy/Desktop/Code/stm32/lib/tinyusb/src/common/tusb_types.h **** }misc_subclass_type_t;
 196:/Users/joostbooy/Desktop/Code/stm32/lib/tinyusb/src/common/tusb_types.h **** 
 197:/Users/joostbooy/Desktop/Code/stm32/lib/tinyusb/src/common/tusb_types.h **** typedef enum
 198:/Users/joostbooy/Desktop/Code/stm32/lib/tinyusb/src/common/tusb_types.h **** {
 199:/Users/joostbooy/Desktop/Code/stm32/lib/tinyusb/src/common/tusb_types.h ****   MISC_PROTOCOL_IAD = 1
 200:/Users/joostbooy/Desktop/Code/stm32/lib/tinyusb/src/common/tusb_types.h **** }misc_protocol_type_t;
 201:/Users/joostbooy/Desktop/Code/stm32/lib/tinyusb/src/common/tusb_types.h **** 
 202:/Users/joostbooy/Desktop/Code/stm32/lib/tinyusb/src/common/tusb_types.h **** typedef enum
 203:/Users/joostbooy/Desktop/Code/stm32/lib/tinyusb/src/common/tusb_types.h **** {
 204:/Users/joostbooy/Desktop/Code/stm32/lib/tinyusb/src/common/tusb_types.h ****   APP_SUBCLASS_USBTMC = 0x03,
 205:/Users/joostbooy/Desktop/Code/stm32/lib/tinyusb/src/common/tusb_types.h ****   APP_SUBCLASS_DFU_RUNTIME = 0x01
 206:/Users/joostbooy/Desktop/Code/stm32/lib/tinyusb/src/common/tusb_types.h **** } app_subclass_type_t;
 207:/Users/joostbooy/Desktop/Code/stm32/lib/tinyusb/src/common/tusb_types.h **** 
 208:/Users/joostbooy/Desktop/Code/stm32/lib/tinyusb/src/common/tusb_types.h **** typedef enum
 209:/Users/joostbooy/Desktop/Code/stm32/lib/tinyusb/src/common/tusb_types.h **** {
 210:/Users/joostbooy/Desktop/Code/stm32/lib/tinyusb/src/common/tusb_types.h ****   DEVICE_CAPABILITY_WIRELESS_USB               = 0x01,
 211:/Users/joostbooy/Desktop/Code/stm32/lib/tinyusb/src/common/tusb_types.h ****   DEVICE_CAPABILITY_USB20_EXTENSION            = 0x02,
 212:/Users/joostbooy/Desktop/Code/stm32/lib/tinyusb/src/common/tusb_types.h ****   DEVICE_CAPABILITY_SUPERSPEED_USB             = 0x03,
 213:/Users/joostbooy/Desktop/Code/stm32/lib/tinyusb/src/common/tusb_types.h ****   DEVICE_CAPABILITY_CONTAINER_id               = 0x04,
 214:/Users/joostbooy/Desktop/Code/stm32/lib/tinyusb/src/common/tusb_types.h ****   DEVICE_CAPABILITY_PLATFORM                   = 0x05,
 215:/Users/joostbooy/Desktop/Code/stm32/lib/tinyusb/src/common/tusb_types.h ****   DEVICE_CAPABILITY_POWER_DELIVERY             = 0x06,
 216:/Users/joostbooy/Desktop/Code/stm32/lib/tinyusb/src/common/tusb_types.h ****   DEVICE_CAPABILITY_BATTERY_INFO               = 0x07,
 217:/Users/joostbooy/Desktop/Code/stm32/lib/tinyusb/src/common/tusb_types.h ****   DEVICE_CAPABILITY_PD_CONSUMER_PORT           = 0x08,
 218:/Users/joostbooy/Desktop/Code/stm32/lib/tinyusb/src/common/tusb_types.h ****   DEVICE_CAPABILITY_PD_PROVIDER_PORT           = 0x09,
 219:/Users/joostbooy/Desktop/Code/stm32/lib/tinyusb/src/common/tusb_types.h ****   DEVICE_CAPABILITY_SUPERSPEED_PLUS            = 0x0A,
ARM GAS  /var/folders/84/_x1cyy_j36g486tldtwl37280000gn/T//cc1u9wTp.s 			page 15


 220:/Users/joostbooy/Desktop/Code/stm32/lib/tinyusb/src/common/tusb_types.h ****   DEVICE_CAPABILITY_PRECESION_TIME_MEASUREMENT = 0x0B,
 221:/Users/joostbooy/Desktop/Code/stm32/lib/tinyusb/src/common/tusb_types.h ****   DEVICE_CAPABILITY_WIRELESS_USB_EXT           = 0x0C,
 222:/Users/joostbooy/Desktop/Code/stm32/lib/tinyusb/src/common/tusb_types.h ****   DEVICE_CAPABILITY_BILLBOARD                  = 0x0D,
 223:/Users/joostbooy/Desktop/Code/stm32/lib/tinyusb/src/common/tusb_types.h ****   DEVICE_CAPABILITY_AUTHENTICATION             = 0x0E,
 224:/Users/joostbooy/Desktop/Code/stm32/lib/tinyusb/src/common/tusb_types.h ****   DEVICE_CAPABILITY_BILLBOARD_EX               = 0x0F,
 225:/Users/joostbooy/Desktop/Code/stm32/lib/tinyusb/src/common/tusb_types.h ****   DEVICE_CAPABILITY_CONFIGURATION_SUMMARY      = 0x10
 226:/Users/joostbooy/Desktop/Code/stm32/lib/tinyusb/src/common/tusb_types.h **** }device_capability_type_t;
 227:/Users/joostbooy/Desktop/Code/stm32/lib/tinyusb/src/common/tusb_types.h **** 
 228:/Users/joostbooy/Desktop/Code/stm32/lib/tinyusb/src/common/tusb_types.h **** enum {
 229:/Users/joostbooy/Desktop/Code/stm32/lib/tinyusb/src/common/tusb_types.h ****   TUSB_DESC_CONFIG_ATT_REMOTE_WAKEUP = TU_BIT(5),
 230:/Users/joostbooy/Desktop/Code/stm32/lib/tinyusb/src/common/tusb_types.h ****   TUSB_DESC_CONFIG_ATT_SELF_POWERED  = TU_BIT(6),
 231:/Users/joostbooy/Desktop/Code/stm32/lib/tinyusb/src/common/tusb_types.h **** };
 232:/Users/joostbooy/Desktop/Code/stm32/lib/tinyusb/src/common/tusb_types.h **** 
 233:/Users/joostbooy/Desktop/Code/stm32/lib/tinyusb/src/common/tusb_types.h **** #define TUSB_DESC_CONFIG_POWER_MA(x)  ((x)/2)
 234:/Users/joostbooy/Desktop/Code/stm32/lib/tinyusb/src/common/tusb_types.h **** 
 235:/Users/joostbooy/Desktop/Code/stm32/lib/tinyusb/src/common/tusb_types.h **** //--------------------------------------------------------------------+
 236:/Users/joostbooy/Desktop/Code/stm32/lib/tinyusb/src/common/tusb_types.h **** //
 237:/Users/joostbooy/Desktop/Code/stm32/lib/tinyusb/src/common/tusb_types.h **** //--------------------------------------------------------------------+
 238:/Users/joostbooy/Desktop/Code/stm32/lib/tinyusb/src/common/tusb_types.h **** typedef enum
 239:/Users/joostbooy/Desktop/Code/stm32/lib/tinyusb/src/common/tusb_types.h **** {
 240:/Users/joostbooy/Desktop/Code/stm32/lib/tinyusb/src/common/tusb_types.h ****   XFER_RESULT_SUCCESS = 0,
 241:/Users/joostbooy/Desktop/Code/stm32/lib/tinyusb/src/common/tusb_types.h ****   XFER_RESULT_FAILED,
 242:/Users/joostbooy/Desktop/Code/stm32/lib/tinyusb/src/common/tusb_types.h ****   XFER_RESULT_STALLED,
 243:/Users/joostbooy/Desktop/Code/stm32/lib/tinyusb/src/common/tusb_types.h ****   XFER_RESULT_TIMEOUT,
 244:/Users/joostbooy/Desktop/Code/stm32/lib/tinyusb/src/common/tusb_types.h ****   XFER_RESULT_INVALID
 245:/Users/joostbooy/Desktop/Code/stm32/lib/tinyusb/src/common/tusb_types.h **** }xfer_result_t;
 246:/Users/joostbooy/Desktop/Code/stm32/lib/tinyusb/src/common/tusb_types.h **** 
 247:/Users/joostbooy/Desktop/Code/stm32/lib/tinyusb/src/common/tusb_types.h **** enum // TODO remove
 248:/Users/joostbooy/Desktop/Code/stm32/lib/tinyusb/src/common/tusb_types.h **** {
 249:/Users/joostbooy/Desktop/Code/stm32/lib/tinyusb/src/common/tusb_types.h ****   DESC_OFFSET_LEN  = 0,
 250:/Users/joostbooy/Desktop/Code/stm32/lib/tinyusb/src/common/tusb_types.h ****   DESC_OFFSET_TYPE = 1
 251:/Users/joostbooy/Desktop/Code/stm32/lib/tinyusb/src/common/tusb_types.h **** };
 252:/Users/joostbooy/Desktop/Code/stm32/lib/tinyusb/src/common/tusb_types.h **** 
 253:/Users/joostbooy/Desktop/Code/stm32/lib/tinyusb/src/common/tusb_types.h **** enum
 254:/Users/joostbooy/Desktop/Code/stm32/lib/tinyusb/src/common/tusb_types.h **** {
 255:/Users/joostbooy/Desktop/Code/stm32/lib/tinyusb/src/common/tusb_types.h ****   INTERFACE_INVALID_NUMBER = 0xff
 256:/Users/joostbooy/Desktop/Code/stm32/lib/tinyusb/src/common/tusb_types.h **** };
 257:/Users/joostbooy/Desktop/Code/stm32/lib/tinyusb/src/common/tusb_types.h **** 
 258:/Users/joostbooy/Desktop/Code/stm32/lib/tinyusb/src/common/tusb_types.h **** typedef enum
 259:/Users/joostbooy/Desktop/Code/stm32/lib/tinyusb/src/common/tusb_types.h **** {
 260:/Users/joostbooy/Desktop/Code/stm32/lib/tinyusb/src/common/tusb_types.h ****   MS_OS_20_SET_HEADER_DESCRIPTOR       = 0x00,
 261:/Users/joostbooy/Desktop/Code/stm32/lib/tinyusb/src/common/tusb_types.h ****   MS_OS_20_SUBSET_HEADER_CONFIGURATION = 0x01,
 262:/Users/joostbooy/Desktop/Code/stm32/lib/tinyusb/src/common/tusb_types.h ****   MS_OS_20_SUBSET_HEADER_FUNCTION      = 0x02,
 263:/Users/joostbooy/Desktop/Code/stm32/lib/tinyusb/src/common/tusb_types.h ****   MS_OS_20_FEATURE_COMPATBLE_ID        = 0x03,
 264:/Users/joostbooy/Desktop/Code/stm32/lib/tinyusb/src/common/tusb_types.h ****   MS_OS_20_FEATURE_REG_PROPERTY        = 0x04,
 265:/Users/joostbooy/Desktop/Code/stm32/lib/tinyusb/src/common/tusb_types.h ****   MS_OS_20_FEATURE_MIN_RESUME_TIME     = 0x05,
 266:/Users/joostbooy/Desktop/Code/stm32/lib/tinyusb/src/common/tusb_types.h ****   MS_OS_20_FEATURE_MODEL_ID            = 0x06,
 267:/Users/joostbooy/Desktop/Code/stm32/lib/tinyusb/src/common/tusb_types.h ****   MS_OS_20_FEATURE_CCGP_DEVICE         = 0x07,
 268:/Users/joostbooy/Desktop/Code/stm32/lib/tinyusb/src/common/tusb_types.h ****   MS_OS_20_FEATURE_VENDOR_REVISION     = 0x08
 269:/Users/joostbooy/Desktop/Code/stm32/lib/tinyusb/src/common/tusb_types.h **** } microsoft_os_20_type_t;
 270:/Users/joostbooy/Desktop/Code/stm32/lib/tinyusb/src/common/tusb_types.h **** 
 271:/Users/joostbooy/Desktop/Code/stm32/lib/tinyusb/src/common/tusb_types.h **** enum
 272:/Users/joostbooy/Desktop/Code/stm32/lib/tinyusb/src/common/tusb_types.h **** {
 273:/Users/joostbooy/Desktop/Code/stm32/lib/tinyusb/src/common/tusb_types.h ****   CONTROL_STAGE_IDLE,
 274:/Users/joostbooy/Desktop/Code/stm32/lib/tinyusb/src/common/tusb_types.h ****   CONTROL_STAGE_SETUP,
 275:/Users/joostbooy/Desktop/Code/stm32/lib/tinyusb/src/common/tusb_types.h ****   CONTROL_STAGE_DATA,
 276:/Users/joostbooy/Desktop/Code/stm32/lib/tinyusb/src/common/tusb_types.h ****   CONTROL_STAGE_ACK
ARM GAS  /var/folders/84/_x1cyy_j36g486tldtwl37280000gn/T//cc1u9wTp.s 			page 16


 277:/Users/joostbooy/Desktop/Code/stm32/lib/tinyusb/src/common/tusb_types.h **** };
 278:/Users/joostbooy/Desktop/Code/stm32/lib/tinyusb/src/common/tusb_types.h **** 
 279:/Users/joostbooy/Desktop/Code/stm32/lib/tinyusb/src/common/tusb_types.h **** enum
 280:/Users/joostbooy/Desktop/Code/stm32/lib/tinyusb/src/common/tusb_types.h **** {
 281:/Users/joostbooy/Desktop/Code/stm32/lib/tinyusb/src/common/tusb_types.h ****   TUSB_INDEX_INVALID_8 = 0xFFu
 282:/Users/joostbooy/Desktop/Code/stm32/lib/tinyusb/src/common/tusb_types.h **** };
 283:/Users/joostbooy/Desktop/Code/stm32/lib/tinyusb/src/common/tusb_types.h **** 
 284:/Users/joostbooy/Desktop/Code/stm32/lib/tinyusb/src/common/tusb_types.h **** //--------------------------------------------------------------------+
 285:/Users/joostbooy/Desktop/Code/stm32/lib/tinyusb/src/common/tusb_types.h **** // USB Descriptors
 286:/Users/joostbooy/Desktop/Code/stm32/lib/tinyusb/src/common/tusb_types.h **** //--------------------------------------------------------------------+
 287:/Users/joostbooy/Desktop/Code/stm32/lib/tinyusb/src/common/tusb_types.h **** 
 288:/Users/joostbooy/Desktop/Code/stm32/lib/tinyusb/src/common/tusb_types.h **** // Start of all packed definitions for compiler without per-type packed
 289:/Users/joostbooy/Desktop/Code/stm32/lib/tinyusb/src/common/tusb_types.h **** TU_ATTR_PACKED_BEGIN
 290:/Users/joostbooy/Desktop/Code/stm32/lib/tinyusb/src/common/tusb_types.h **** TU_ATTR_BIT_FIELD_ORDER_BEGIN
 291:/Users/joostbooy/Desktop/Code/stm32/lib/tinyusb/src/common/tusb_types.h **** 
 292:/Users/joostbooy/Desktop/Code/stm32/lib/tinyusb/src/common/tusb_types.h **** /// USB Device Descriptor
 293:/Users/joostbooy/Desktop/Code/stm32/lib/tinyusb/src/common/tusb_types.h **** typedef struct TU_ATTR_PACKED
 294:/Users/joostbooy/Desktop/Code/stm32/lib/tinyusb/src/common/tusb_types.h **** {
 295:/Users/joostbooy/Desktop/Code/stm32/lib/tinyusb/src/common/tusb_types.h ****   uint8_t  bLength            ; ///< Size of this descriptor in bytes.
 296:/Users/joostbooy/Desktop/Code/stm32/lib/tinyusb/src/common/tusb_types.h ****   uint8_t  bDescriptorType    ; ///< DEVICE Descriptor Type.
 297:/Users/joostbooy/Desktop/Code/stm32/lib/tinyusb/src/common/tusb_types.h ****   uint16_t bcdUSB             ; ///< BUSB Specification Release Number in Binary-Coded Decimal (i.e
 298:/Users/joostbooy/Desktop/Code/stm32/lib/tinyusb/src/common/tusb_types.h **** 
 299:/Users/joostbooy/Desktop/Code/stm32/lib/tinyusb/src/common/tusb_types.h ****   uint8_t  bDeviceClass       ; ///< Class code (assigned by the USB-IF). \li If this field is rese
 300:/Users/joostbooy/Desktop/Code/stm32/lib/tinyusb/src/common/tusb_types.h ****   uint8_t  bDeviceSubClass    ; ///< Subclass code (assigned by the USB-IF). These codes are qualif
 301:/Users/joostbooy/Desktop/Code/stm32/lib/tinyusb/src/common/tusb_types.h ****   uint8_t  bDeviceProtocol    ; ///< Protocol code (assigned by the USB-IF). These codes are qualif
 302:/Users/joostbooy/Desktop/Code/stm32/lib/tinyusb/src/common/tusb_types.h ****   uint8_t  bMaxPacketSize0    ; ///< Maximum packet size for endpoint zero (only 8, 16, 32, or 64 a
 303:/Users/joostbooy/Desktop/Code/stm32/lib/tinyusb/src/common/tusb_types.h **** 
 304:/Users/joostbooy/Desktop/Code/stm32/lib/tinyusb/src/common/tusb_types.h ****   uint16_t idVendor           ; ///< Vendor ID (assigned by the USB-IF).
 305:/Users/joostbooy/Desktop/Code/stm32/lib/tinyusb/src/common/tusb_types.h ****   uint16_t idProduct          ; ///< Product ID (assigned by the manufacturer).
 306:/Users/joostbooy/Desktop/Code/stm32/lib/tinyusb/src/common/tusb_types.h ****   uint16_t bcdDevice          ; ///< Device release number in binary-coded decimal.
 307:/Users/joostbooy/Desktop/Code/stm32/lib/tinyusb/src/common/tusb_types.h ****   uint8_t  iManufacturer      ; ///< Index of string descriptor describing manufacturer.
 308:/Users/joostbooy/Desktop/Code/stm32/lib/tinyusb/src/common/tusb_types.h ****   uint8_t  iProduct           ; ///< Index of string descriptor describing product.
 309:/Users/joostbooy/Desktop/Code/stm32/lib/tinyusb/src/common/tusb_types.h ****   uint8_t  iSerialNumber      ; ///< Index of string descriptor describing the device's serial numb
 310:/Users/joostbooy/Desktop/Code/stm32/lib/tinyusb/src/common/tusb_types.h **** 
 311:/Users/joostbooy/Desktop/Code/stm32/lib/tinyusb/src/common/tusb_types.h ****   uint8_t  bNumConfigurations ; ///< Number of possible configurations.
 312:/Users/joostbooy/Desktop/Code/stm32/lib/tinyusb/src/common/tusb_types.h **** } tusb_desc_device_t;
 313:/Users/joostbooy/Desktop/Code/stm32/lib/tinyusb/src/common/tusb_types.h **** 
 314:/Users/joostbooy/Desktop/Code/stm32/lib/tinyusb/src/common/tusb_types.h **** TU_VERIFY_STATIC( sizeof(tusb_desc_device_t) == 18, "size is not correct");
 315:/Users/joostbooy/Desktop/Code/stm32/lib/tinyusb/src/common/tusb_types.h **** 
 316:/Users/joostbooy/Desktop/Code/stm32/lib/tinyusb/src/common/tusb_types.h **** // USB Binary Device Object Store (BOS) Descriptor
 317:/Users/joostbooy/Desktop/Code/stm32/lib/tinyusb/src/common/tusb_types.h **** typedef struct TU_ATTR_PACKED
 318:/Users/joostbooy/Desktop/Code/stm32/lib/tinyusb/src/common/tusb_types.h **** {
 319:/Users/joostbooy/Desktop/Code/stm32/lib/tinyusb/src/common/tusb_types.h ****   uint8_t  bLength         ; ///< Size of this descriptor in bytes
 320:/Users/joostbooy/Desktop/Code/stm32/lib/tinyusb/src/common/tusb_types.h ****   uint8_t  bDescriptorType ; ///< CONFIGURATION Descriptor Type
 321:/Users/joostbooy/Desktop/Code/stm32/lib/tinyusb/src/common/tusb_types.h ****   uint16_t wTotalLength    ; ///< Total length of data returned for this descriptor
 322:/Users/joostbooy/Desktop/Code/stm32/lib/tinyusb/src/common/tusb_types.h ****   uint8_t  bNumDeviceCaps  ; ///< Number of device capability descriptors in the BOS
 323:/Users/joostbooy/Desktop/Code/stm32/lib/tinyusb/src/common/tusb_types.h **** } tusb_desc_bos_t;
 324:/Users/joostbooy/Desktop/Code/stm32/lib/tinyusb/src/common/tusb_types.h **** 
 325:/Users/joostbooy/Desktop/Code/stm32/lib/tinyusb/src/common/tusb_types.h **** TU_VERIFY_STATIC( sizeof(tusb_desc_bos_t) == 5, "size is not correct");
 326:/Users/joostbooy/Desktop/Code/stm32/lib/tinyusb/src/common/tusb_types.h **** 
 327:/Users/joostbooy/Desktop/Code/stm32/lib/tinyusb/src/common/tusb_types.h **** /// USB Configuration Descriptor
 328:/Users/joostbooy/Desktop/Code/stm32/lib/tinyusb/src/common/tusb_types.h **** typedef struct TU_ATTR_PACKED
 329:/Users/joostbooy/Desktop/Code/stm32/lib/tinyusb/src/common/tusb_types.h **** {
 330:/Users/joostbooy/Desktop/Code/stm32/lib/tinyusb/src/common/tusb_types.h ****   uint8_t  bLength             ; ///< Size of this descriptor in bytes
 331:/Users/joostbooy/Desktop/Code/stm32/lib/tinyusb/src/common/tusb_types.h ****   uint8_t  bDescriptorType     ; ///< CONFIGURATION Descriptor Type
 332:/Users/joostbooy/Desktop/Code/stm32/lib/tinyusb/src/common/tusb_types.h ****   uint16_t wTotalLength        ; ///< Total length of data returned for this configuration. Include
 333:/Users/joostbooy/Desktop/Code/stm32/lib/tinyusb/src/common/tusb_types.h **** 
ARM GAS  /var/folders/84/_x1cyy_j36g486tldtwl37280000gn/T//cc1u9wTp.s 			page 17


 334:/Users/joostbooy/Desktop/Code/stm32/lib/tinyusb/src/common/tusb_types.h ****   uint8_t  bNumInterfaces      ; ///< Number of interfaces supported by this configuration
 335:/Users/joostbooy/Desktop/Code/stm32/lib/tinyusb/src/common/tusb_types.h ****   uint8_t  bConfigurationValue ; ///< Value to use as an argument to the SetConfiguration() request
 336:/Users/joostbooy/Desktop/Code/stm32/lib/tinyusb/src/common/tusb_types.h ****   uint8_t  iConfiguration      ; ///< Index of string descriptor describing this configuration
 337:/Users/joostbooy/Desktop/Code/stm32/lib/tinyusb/src/common/tusb_types.h ****   uint8_t  bmAttributes        ; ///< Configuration characteristics \n D7: Reserved (set to one)\n 
 338:/Users/joostbooy/Desktop/Code/stm32/lib/tinyusb/src/common/tusb_types.h ****   uint8_t  bMaxPower           ; ///< Maximum power consumption of the USB device from the bus in t
 339:/Users/joostbooy/Desktop/Code/stm32/lib/tinyusb/src/common/tusb_types.h **** } tusb_desc_configuration_t;
 340:/Users/joostbooy/Desktop/Code/stm32/lib/tinyusb/src/common/tusb_types.h **** 
 341:/Users/joostbooy/Desktop/Code/stm32/lib/tinyusb/src/common/tusb_types.h **** TU_VERIFY_STATIC( sizeof(tusb_desc_configuration_t) == 9, "size is not correct");
 342:/Users/joostbooy/Desktop/Code/stm32/lib/tinyusb/src/common/tusb_types.h **** 
 343:/Users/joostbooy/Desktop/Code/stm32/lib/tinyusb/src/common/tusb_types.h **** /// USB Interface Descriptor
 344:/Users/joostbooy/Desktop/Code/stm32/lib/tinyusb/src/common/tusb_types.h **** typedef struct TU_ATTR_PACKED
 345:/Users/joostbooy/Desktop/Code/stm32/lib/tinyusb/src/common/tusb_types.h **** {
 346:/Users/joostbooy/Desktop/Code/stm32/lib/tinyusb/src/common/tusb_types.h ****   uint8_t  bLength            ; ///< Size of this descriptor in bytes
 347:/Users/joostbooy/Desktop/Code/stm32/lib/tinyusb/src/common/tusb_types.h ****   uint8_t  bDescriptorType    ; ///< INTERFACE Descriptor Type
 348:/Users/joostbooy/Desktop/Code/stm32/lib/tinyusb/src/common/tusb_types.h **** 
 349:/Users/joostbooy/Desktop/Code/stm32/lib/tinyusb/src/common/tusb_types.h ****   uint8_t  bInterfaceNumber   ; ///< Number of this interface. Zero-based value identifying the ind
 350:/Users/joostbooy/Desktop/Code/stm32/lib/tinyusb/src/common/tusb_types.h ****   uint8_t  bAlternateSetting  ; ///< Value used to select this alternate setting for the interface 
 351:/Users/joostbooy/Desktop/Code/stm32/lib/tinyusb/src/common/tusb_types.h ****   uint8_t  bNumEndpoints      ; ///< Number of endpoints used by this interface (excluding endpoint
 352:/Users/joostbooy/Desktop/Code/stm32/lib/tinyusb/src/common/tusb_types.h ****   uint8_t  bInterfaceClass    ; ///< Class code (assigned by the USB-IF). \li A value of zero is re
 353:/Users/joostbooy/Desktop/Code/stm32/lib/tinyusb/src/common/tusb_types.h ****   uint8_t  bInterfaceSubClass ; ///< Subclass code (assigned by the USB-IF). \n These codes are qua
 354:/Users/joostbooy/Desktop/Code/stm32/lib/tinyusb/src/common/tusb_types.h ****   uint8_t  bInterfaceProtocol ; ///< Protocol code (assigned by the USB). \n These codes are qualif
 355:/Users/joostbooy/Desktop/Code/stm32/lib/tinyusb/src/common/tusb_types.h ****   uint8_t  iInterface         ; ///< Index of string descriptor describing this interface
 356:/Users/joostbooy/Desktop/Code/stm32/lib/tinyusb/src/common/tusb_types.h **** } tusb_desc_interface_t;
 357:/Users/joostbooy/Desktop/Code/stm32/lib/tinyusb/src/common/tusb_types.h **** 
 358:/Users/joostbooy/Desktop/Code/stm32/lib/tinyusb/src/common/tusb_types.h **** TU_VERIFY_STATIC( sizeof(tusb_desc_interface_t) == 9, "size is not correct");
 359:/Users/joostbooy/Desktop/Code/stm32/lib/tinyusb/src/common/tusb_types.h **** 
 360:/Users/joostbooy/Desktop/Code/stm32/lib/tinyusb/src/common/tusb_types.h **** /// USB Endpoint Descriptor
 361:/Users/joostbooy/Desktop/Code/stm32/lib/tinyusb/src/common/tusb_types.h **** typedef struct TU_ATTR_PACKED
 362:/Users/joostbooy/Desktop/Code/stm32/lib/tinyusb/src/common/tusb_types.h **** {
 363:/Users/joostbooy/Desktop/Code/stm32/lib/tinyusb/src/common/tusb_types.h ****   uint8_t  bLength          ; // Size of this descriptor in bytes
 364:/Users/joostbooy/Desktop/Code/stm32/lib/tinyusb/src/common/tusb_types.h ****   uint8_t  bDescriptorType  ; // ENDPOINT Descriptor Type
 365:/Users/joostbooy/Desktop/Code/stm32/lib/tinyusb/src/common/tusb_types.h **** 
 366:/Users/joostbooy/Desktop/Code/stm32/lib/tinyusb/src/common/tusb_types.h ****   uint8_t  bEndpointAddress ; // The address of the endpoint
 367:/Users/joostbooy/Desktop/Code/stm32/lib/tinyusb/src/common/tusb_types.h **** 
 368:/Users/joostbooy/Desktop/Code/stm32/lib/tinyusb/src/common/tusb_types.h ****   struct TU_ATTR_PACKED {
 369:/Users/joostbooy/Desktop/Code/stm32/lib/tinyusb/src/common/tusb_types.h ****     uint8_t xfer  : 2;        // Control, ISO, Bulk, Interrupt
 370:/Users/joostbooy/Desktop/Code/stm32/lib/tinyusb/src/common/tusb_types.h ****     uint8_t sync  : 2;        // None, Asynchronous, Adaptive, Synchronous
 371:/Users/joostbooy/Desktop/Code/stm32/lib/tinyusb/src/common/tusb_types.h ****     uint8_t usage : 2;        // Data, Feedback, Implicit feedback
 372:/Users/joostbooy/Desktop/Code/stm32/lib/tinyusb/src/common/tusb_types.h ****     uint8_t       : 2;
 373:/Users/joostbooy/Desktop/Code/stm32/lib/tinyusb/src/common/tusb_types.h ****   } bmAttributes;
 374:/Users/joostbooy/Desktop/Code/stm32/lib/tinyusb/src/common/tusb_types.h **** 
 375:/Users/joostbooy/Desktop/Code/stm32/lib/tinyusb/src/common/tusb_types.h ****   uint16_t wMaxPacketSize   ; // Bit 10..0 : max packet size, bit 12..11 additional transaction per
 376:/Users/joostbooy/Desktop/Code/stm32/lib/tinyusb/src/common/tusb_types.h ****   uint8_t  bInterval        ; // Polling interval, in frames or microframes depending on the operat
 377:/Users/joostbooy/Desktop/Code/stm32/lib/tinyusb/src/common/tusb_types.h **** } tusb_desc_endpoint_t;
 378:/Users/joostbooy/Desktop/Code/stm32/lib/tinyusb/src/common/tusb_types.h **** 
 379:/Users/joostbooy/Desktop/Code/stm32/lib/tinyusb/src/common/tusb_types.h **** TU_VERIFY_STATIC( sizeof(tusb_desc_endpoint_t) == 7, "size is not correct");
 380:/Users/joostbooy/Desktop/Code/stm32/lib/tinyusb/src/common/tusb_types.h **** 
 381:/Users/joostbooy/Desktop/Code/stm32/lib/tinyusb/src/common/tusb_types.h **** /// USB Other Speed Configuration Descriptor
 382:/Users/joostbooy/Desktop/Code/stm32/lib/tinyusb/src/common/tusb_types.h **** typedef struct TU_ATTR_PACKED
 383:/Users/joostbooy/Desktop/Code/stm32/lib/tinyusb/src/common/tusb_types.h **** {
 384:/Users/joostbooy/Desktop/Code/stm32/lib/tinyusb/src/common/tusb_types.h ****   uint8_t  bLength             ; ///< Size of descriptor
 385:/Users/joostbooy/Desktop/Code/stm32/lib/tinyusb/src/common/tusb_types.h ****   uint8_t  bDescriptorType     ; ///< Other_speed_Configuration Type
 386:/Users/joostbooy/Desktop/Code/stm32/lib/tinyusb/src/common/tusb_types.h ****   uint16_t wTotalLength        ; ///< Total length of data returned
 387:/Users/joostbooy/Desktop/Code/stm32/lib/tinyusb/src/common/tusb_types.h **** 
 388:/Users/joostbooy/Desktop/Code/stm32/lib/tinyusb/src/common/tusb_types.h ****   uint8_t  bNumInterfaces      ; ///< Number of interfaces supported by this speed configuration
 389:/Users/joostbooy/Desktop/Code/stm32/lib/tinyusb/src/common/tusb_types.h ****   uint8_t  bConfigurationValue ; ///< Value to use to select configuration
 390:/Users/joostbooy/Desktop/Code/stm32/lib/tinyusb/src/common/tusb_types.h ****   uint8_t  iConfiguration      ; ///< Index of string descriptor
ARM GAS  /var/folders/84/_x1cyy_j36g486tldtwl37280000gn/T//cc1u9wTp.s 			page 18


 391:/Users/joostbooy/Desktop/Code/stm32/lib/tinyusb/src/common/tusb_types.h ****   uint8_t  bmAttributes        ; ///< Same as Configuration descriptor
 392:/Users/joostbooy/Desktop/Code/stm32/lib/tinyusb/src/common/tusb_types.h ****   uint8_t  bMaxPower           ; ///< Same as Configuration descriptor
 393:/Users/joostbooy/Desktop/Code/stm32/lib/tinyusb/src/common/tusb_types.h **** } tusb_desc_other_speed_t;
 394:/Users/joostbooy/Desktop/Code/stm32/lib/tinyusb/src/common/tusb_types.h **** 
 395:/Users/joostbooy/Desktop/Code/stm32/lib/tinyusb/src/common/tusb_types.h **** /// USB Device Qualifier Descriptor
 396:/Users/joostbooy/Desktop/Code/stm32/lib/tinyusb/src/common/tusb_types.h **** typedef struct TU_ATTR_PACKED
 397:/Users/joostbooy/Desktop/Code/stm32/lib/tinyusb/src/common/tusb_types.h **** {
 398:/Users/joostbooy/Desktop/Code/stm32/lib/tinyusb/src/common/tusb_types.h ****   uint8_t  bLength            ; ///< Size of descriptor
 399:/Users/joostbooy/Desktop/Code/stm32/lib/tinyusb/src/common/tusb_types.h ****   uint8_t  bDescriptorType    ; ///< Device Qualifier Type
 400:/Users/joostbooy/Desktop/Code/stm32/lib/tinyusb/src/common/tusb_types.h ****   uint16_t bcdUSB             ; ///< USB specification version number (e.g., 0200H for V2.00)
 401:/Users/joostbooy/Desktop/Code/stm32/lib/tinyusb/src/common/tusb_types.h **** 
 402:/Users/joostbooy/Desktop/Code/stm32/lib/tinyusb/src/common/tusb_types.h ****   uint8_t  bDeviceClass       ; ///< Class Code
 403:/Users/joostbooy/Desktop/Code/stm32/lib/tinyusb/src/common/tusb_types.h ****   uint8_t  bDeviceSubClass    ; ///< SubClass Code
 404:/Users/joostbooy/Desktop/Code/stm32/lib/tinyusb/src/common/tusb_types.h ****   uint8_t  bDeviceProtocol    ; ///< Protocol Code
 405:/Users/joostbooy/Desktop/Code/stm32/lib/tinyusb/src/common/tusb_types.h **** 
 406:/Users/joostbooy/Desktop/Code/stm32/lib/tinyusb/src/common/tusb_types.h ****   uint8_t  bMaxPacketSize0    ; ///< Maximum packet size for other speed
 407:/Users/joostbooy/Desktop/Code/stm32/lib/tinyusb/src/common/tusb_types.h ****   uint8_t  bNumConfigurations ; ///< Number of Other-speed Configurations
 408:/Users/joostbooy/Desktop/Code/stm32/lib/tinyusb/src/common/tusb_types.h ****   uint8_t  bReserved          ; ///< Reserved for future use, must be zero
 409:/Users/joostbooy/Desktop/Code/stm32/lib/tinyusb/src/common/tusb_types.h **** } tusb_desc_device_qualifier_t;
 410:/Users/joostbooy/Desktop/Code/stm32/lib/tinyusb/src/common/tusb_types.h **** 
 411:/Users/joostbooy/Desktop/Code/stm32/lib/tinyusb/src/common/tusb_types.h **** TU_VERIFY_STATIC( sizeof(tusb_desc_device_qualifier_t) == 10, "size is not correct");
 412:/Users/joostbooy/Desktop/Code/stm32/lib/tinyusb/src/common/tusb_types.h **** 
 413:/Users/joostbooy/Desktop/Code/stm32/lib/tinyusb/src/common/tusb_types.h **** /// USB Interface Association Descriptor (IAD ECN)
 414:/Users/joostbooy/Desktop/Code/stm32/lib/tinyusb/src/common/tusb_types.h **** typedef struct TU_ATTR_PACKED
 415:/Users/joostbooy/Desktop/Code/stm32/lib/tinyusb/src/common/tusb_types.h **** {
 416:/Users/joostbooy/Desktop/Code/stm32/lib/tinyusb/src/common/tusb_types.h ****   uint8_t bLength           ; ///< Size of descriptor
 417:/Users/joostbooy/Desktop/Code/stm32/lib/tinyusb/src/common/tusb_types.h ****   uint8_t bDescriptorType   ; ///< Other_speed_Configuration Type
 418:/Users/joostbooy/Desktop/Code/stm32/lib/tinyusb/src/common/tusb_types.h **** 
 419:/Users/joostbooy/Desktop/Code/stm32/lib/tinyusb/src/common/tusb_types.h ****   uint8_t bFirstInterface   ; ///< Index of the first associated interface.
 420:/Users/joostbooy/Desktop/Code/stm32/lib/tinyusb/src/common/tusb_types.h ****   uint8_t bInterfaceCount   ; ///< Total number of associated interfaces.
 421:/Users/joostbooy/Desktop/Code/stm32/lib/tinyusb/src/common/tusb_types.h **** 
 422:/Users/joostbooy/Desktop/Code/stm32/lib/tinyusb/src/common/tusb_types.h ****   uint8_t bFunctionClass    ; ///< Interface class ID.
 423:/Users/joostbooy/Desktop/Code/stm32/lib/tinyusb/src/common/tusb_types.h ****   uint8_t bFunctionSubClass ; ///< Interface subclass ID.
 424:/Users/joostbooy/Desktop/Code/stm32/lib/tinyusb/src/common/tusb_types.h ****   uint8_t bFunctionProtocol ; ///< Interface protocol ID.
 425:/Users/joostbooy/Desktop/Code/stm32/lib/tinyusb/src/common/tusb_types.h **** 
 426:/Users/joostbooy/Desktop/Code/stm32/lib/tinyusb/src/common/tusb_types.h ****   uint8_t iFunction         ; ///< Index of the string descriptor describing the interface associat
 427:/Users/joostbooy/Desktop/Code/stm32/lib/tinyusb/src/common/tusb_types.h **** } tusb_desc_interface_assoc_t;
 428:/Users/joostbooy/Desktop/Code/stm32/lib/tinyusb/src/common/tusb_types.h **** 
 429:/Users/joostbooy/Desktop/Code/stm32/lib/tinyusb/src/common/tusb_types.h **** // USB String Descriptor
 430:/Users/joostbooy/Desktop/Code/stm32/lib/tinyusb/src/common/tusb_types.h **** typedef struct TU_ATTR_PACKED
 431:/Users/joostbooy/Desktop/Code/stm32/lib/tinyusb/src/common/tusb_types.h **** {
 432:/Users/joostbooy/Desktop/Code/stm32/lib/tinyusb/src/common/tusb_types.h ****   uint8_t  bLength         ; ///< Size of this descriptor in bytes
 433:/Users/joostbooy/Desktop/Code/stm32/lib/tinyusb/src/common/tusb_types.h ****   uint8_t  bDescriptorType ; ///< Descriptor Type
 434:/Users/joostbooy/Desktop/Code/stm32/lib/tinyusb/src/common/tusb_types.h ****   uint16_t unicode_string[];
 435:/Users/joostbooy/Desktop/Code/stm32/lib/tinyusb/src/common/tusb_types.h **** } tusb_desc_string_t;
 436:/Users/joostbooy/Desktop/Code/stm32/lib/tinyusb/src/common/tusb_types.h **** 
 437:/Users/joostbooy/Desktop/Code/stm32/lib/tinyusb/src/common/tusb_types.h **** // USB Binary Device Object Store (BOS)
 438:/Users/joostbooy/Desktop/Code/stm32/lib/tinyusb/src/common/tusb_types.h **** typedef struct TU_ATTR_PACKED
 439:/Users/joostbooy/Desktop/Code/stm32/lib/tinyusb/src/common/tusb_types.h **** {
 440:/Users/joostbooy/Desktop/Code/stm32/lib/tinyusb/src/common/tusb_types.h ****   uint8_t bLength;
 441:/Users/joostbooy/Desktop/Code/stm32/lib/tinyusb/src/common/tusb_types.h ****   uint8_t bDescriptorType ;
 442:/Users/joostbooy/Desktop/Code/stm32/lib/tinyusb/src/common/tusb_types.h ****   uint8_t bDevCapabilityType;
 443:/Users/joostbooy/Desktop/Code/stm32/lib/tinyusb/src/common/tusb_types.h ****   uint8_t bReserved;
 444:/Users/joostbooy/Desktop/Code/stm32/lib/tinyusb/src/common/tusb_types.h ****   uint8_t PlatformCapabilityUUID[16];
 445:/Users/joostbooy/Desktop/Code/stm32/lib/tinyusb/src/common/tusb_types.h ****   uint8_t CapabilityData[];
 446:/Users/joostbooy/Desktop/Code/stm32/lib/tinyusb/src/common/tusb_types.h **** } tusb_desc_bos_platform_t;
 447:/Users/joostbooy/Desktop/Code/stm32/lib/tinyusb/src/common/tusb_types.h **** 
ARM GAS  /var/folders/84/_x1cyy_j36g486tldtwl37280000gn/T//cc1u9wTp.s 			page 19


 448:/Users/joostbooy/Desktop/Code/stm32/lib/tinyusb/src/common/tusb_types.h **** // USB WebuSB URL Descriptor
 449:/Users/joostbooy/Desktop/Code/stm32/lib/tinyusb/src/common/tusb_types.h **** typedef struct TU_ATTR_PACKED
 450:/Users/joostbooy/Desktop/Code/stm32/lib/tinyusb/src/common/tusb_types.h **** {
 451:/Users/joostbooy/Desktop/Code/stm32/lib/tinyusb/src/common/tusb_types.h ****   uint8_t bLength;
 452:/Users/joostbooy/Desktop/Code/stm32/lib/tinyusb/src/common/tusb_types.h ****   uint8_t bDescriptorType;
 453:/Users/joostbooy/Desktop/Code/stm32/lib/tinyusb/src/common/tusb_types.h ****   uint8_t bScheme;
 454:/Users/joostbooy/Desktop/Code/stm32/lib/tinyusb/src/common/tusb_types.h ****   char    url[];
 455:/Users/joostbooy/Desktop/Code/stm32/lib/tinyusb/src/common/tusb_types.h **** } tusb_desc_webusb_url_t;
 456:/Users/joostbooy/Desktop/Code/stm32/lib/tinyusb/src/common/tusb_types.h **** 
 457:/Users/joostbooy/Desktop/Code/stm32/lib/tinyusb/src/common/tusb_types.h **** // DFU Functional Descriptor
 458:/Users/joostbooy/Desktop/Code/stm32/lib/tinyusb/src/common/tusb_types.h **** typedef struct TU_ATTR_PACKED
 459:/Users/joostbooy/Desktop/Code/stm32/lib/tinyusb/src/common/tusb_types.h **** {
 460:/Users/joostbooy/Desktop/Code/stm32/lib/tinyusb/src/common/tusb_types.h ****   uint8_t  bLength;
 461:/Users/joostbooy/Desktop/Code/stm32/lib/tinyusb/src/common/tusb_types.h ****   uint8_t  bDescriptorType;
 462:/Users/joostbooy/Desktop/Code/stm32/lib/tinyusb/src/common/tusb_types.h **** 
 463:/Users/joostbooy/Desktop/Code/stm32/lib/tinyusb/src/common/tusb_types.h ****   union {
 464:/Users/joostbooy/Desktop/Code/stm32/lib/tinyusb/src/common/tusb_types.h ****     struct TU_ATTR_PACKED {
 465:/Users/joostbooy/Desktop/Code/stm32/lib/tinyusb/src/common/tusb_types.h ****       uint8_t bitCanDnload             : 1;
 466:/Users/joostbooy/Desktop/Code/stm32/lib/tinyusb/src/common/tusb_types.h ****       uint8_t bitCanUpload             : 1;
 467:/Users/joostbooy/Desktop/Code/stm32/lib/tinyusb/src/common/tusb_types.h ****       uint8_t bitManifestationTolerant : 1;
 468:/Users/joostbooy/Desktop/Code/stm32/lib/tinyusb/src/common/tusb_types.h ****       uint8_t bitWillDetach            : 1;
 469:/Users/joostbooy/Desktop/Code/stm32/lib/tinyusb/src/common/tusb_types.h ****       uint8_t reserved                 : 4;
 470:/Users/joostbooy/Desktop/Code/stm32/lib/tinyusb/src/common/tusb_types.h ****     } bmAttributes;
 471:/Users/joostbooy/Desktop/Code/stm32/lib/tinyusb/src/common/tusb_types.h **** 
 472:/Users/joostbooy/Desktop/Code/stm32/lib/tinyusb/src/common/tusb_types.h ****     uint8_t bAttributes;
 473:/Users/joostbooy/Desktop/Code/stm32/lib/tinyusb/src/common/tusb_types.h ****   };
 474:/Users/joostbooy/Desktop/Code/stm32/lib/tinyusb/src/common/tusb_types.h **** 
 475:/Users/joostbooy/Desktop/Code/stm32/lib/tinyusb/src/common/tusb_types.h ****   uint16_t wDetachTimeOut;
 476:/Users/joostbooy/Desktop/Code/stm32/lib/tinyusb/src/common/tusb_types.h ****   uint16_t wTransferSize;
 477:/Users/joostbooy/Desktop/Code/stm32/lib/tinyusb/src/common/tusb_types.h ****   uint16_t bcdDFUVersion;
 478:/Users/joostbooy/Desktop/Code/stm32/lib/tinyusb/src/common/tusb_types.h **** } tusb_desc_dfu_functional_t;
 479:/Users/joostbooy/Desktop/Code/stm32/lib/tinyusb/src/common/tusb_types.h **** 
 480:/Users/joostbooy/Desktop/Code/stm32/lib/tinyusb/src/common/tusb_types.h **** //--------------------------------------------------------------------+
 481:/Users/joostbooy/Desktop/Code/stm32/lib/tinyusb/src/common/tusb_types.h **** //
 482:/Users/joostbooy/Desktop/Code/stm32/lib/tinyusb/src/common/tusb_types.h **** //--------------------------------------------------------------------+
 483:/Users/joostbooy/Desktop/Code/stm32/lib/tinyusb/src/common/tusb_types.h **** 
 484:/Users/joostbooy/Desktop/Code/stm32/lib/tinyusb/src/common/tusb_types.h **** typedef struct TU_ATTR_PACKED{
 485:/Users/joostbooy/Desktop/Code/stm32/lib/tinyusb/src/common/tusb_types.h ****   union {
 486:/Users/joostbooy/Desktop/Code/stm32/lib/tinyusb/src/common/tusb_types.h ****     struct TU_ATTR_PACKED {
 487:/Users/joostbooy/Desktop/Code/stm32/lib/tinyusb/src/common/tusb_types.h ****       uint8_t recipient :  5; ///< Recipient type tusb_request_recipient_t.
 488:/Users/joostbooy/Desktop/Code/stm32/lib/tinyusb/src/common/tusb_types.h ****       uint8_t type      :  2; ///< Request type tusb_request_type_t.
 489:/Users/joostbooy/Desktop/Code/stm32/lib/tinyusb/src/common/tusb_types.h ****       uint8_t direction :  1; ///< Direction type. tusb_dir_t
 490:/Users/joostbooy/Desktop/Code/stm32/lib/tinyusb/src/common/tusb_types.h ****     } bmRequestType_bit;
 491:/Users/joostbooy/Desktop/Code/stm32/lib/tinyusb/src/common/tusb_types.h **** 
 492:/Users/joostbooy/Desktop/Code/stm32/lib/tinyusb/src/common/tusb_types.h ****     uint8_t bmRequestType;
 493:/Users/joostbooy/Desktop/Code/stm32/lib/tinyusb/src/common/tusb_types.h ****   };
 494:/Users/joostbooy/Desktop/Code/stm32/lib/tinyusb/src/common/tusb_types.h **** 
 495:/Users/joostbooy/Desktop/Code/stm32/lib/tinyusb/src/common/tusb_types.h ****   uint8_t  bRequest;
 496:/Users/joostbooy/Desktop/Code/stm32/lib/tinyusb/src/common/tusb_types.h ****   uint16_t wValue;
 497:/Users/joostbooy/Desktop/Code/stm32/lib/tinyusb/src/common/tusb_types.h ****   uint16_t wIndex;
 498:/Users/joostbooy/Desktop/Code/stm32/lib/tinyusb/src/common/tusb_types.h ****   uint16_t wLength;
 499:/Users/joostbooy/Desktop/Code/stm32/lib/tinyusb/src/common/tusb_types.h **** } tusb_control_request_t;
 500:/Users/joostbooy/Desktop/Code/stm32/lib/tinyusb/src/common/tusb_types.h **** 
 501:/Users/joostbooy/Desktop/Code/stm32/lib/tinyusb/src/common/tusb_types.h **** TU_VERIFY_STATIC( sizeof(tusb_control_request_t) == 8, "size is not correct");
 502:/Users/joostbooy/Desktop/Code/stm32/lib/tinyusb/src/common/tusb_types.h **** 
 503:/Users/joostbooy/Desktop/Code/stm32/lib/tinyusb/src/common/tusb_types.h **** 
 504:/Users/joostbooy/Desktop/Code/stm32/lib/tinyusb/src/common/tusb_types.h **** TU_ATTR_PACKED_END  // End of all packed definitions
ARM GAS  /var/folders/84/_x1cyy_j36g486tldtwl37280000gn/T//cc1u9wTp.s 			page 20


 505:/Users/joostbooy/Desktop/Code/stm32/lib/tinyusb/src/common/tusb_types.h **** TU_ATTR_BIT_FIELD_ORDER_END
 506:/Users/joostbooy/Desktop/Code/stm32/lib/tinyusb/src/common/tusb_types.h **** 
 507:/Users/joostbooy/Desktop/Code/stm32/lib/tinyusb/src/common/tusb_types.h **** //--------------------------------------------------------------------+
 508:/Users/joostbooy/Desktop/Code/stm32/lib/tinyusb/src/common/tusb_types.h **** // Endpoint helper
 509:/Users/joostbooy/Desktop/Code/stm32/lib/tinyusb/src/common/tusb_types.h **** //--------------------------------------------------------------------+
 510:/Users/joostbooy/Desktop/Code/stm32/lib/tinyusb/src/common/tusb_types.h **** 
 511:/Users/joostbooy/Desktop/Code/stm32/lib/tinyusb/src/common/tusb_types.h **** // Get direction from Endpoint address
 512:/Users/joostbooy/Desktop/Code/stm32/lib/tinyusb/src/common/tusb_types.h **** TU_ATTR_ALWAYS_INLINE static inline tusb_dir_t tu_edpt_dir(uint8_t addr)
 513:/Users/joostbooy/Desktop/Code/stm32/lib/tinyusb/src/common/tusb_types.h **** {
 514:/Users/joostbooy/Desktop/Code/stm32/lib/tinyusb/src/common/tusb_types.h ****   return (addr & TUSB_DIR_IN_MASK) ? TUSB_DIR_IN : TUSB_DIR_OUT;
 515:/Users/joostbooy/Desktop/Code/stm32/lib/tinyusb/src/common/tusb_types.h **** }
 516:/Users/joostbooy/Desktop/Code/stm32/lib/tinyusb/src/common/tusb_types.h **** 
 517:/Users/joostbooy/Desktop/Code/stm32/lib/tinyusb/src/common/tusb_types.h **** // Get Endpoint number from address
 518:/Users/joostbooy/Desktop/Code/stm32/lib/tinyusb/src/common/tusb_types.h **** TU_ATTR_ALWAYS_INLINE static inline uint8_t tu_edpt_number(uint8_t addr)
 519:/Users/joostbooy/Desktop/Code/stm32/lib/tinyusb/src/common/tusb_types.h **** {
 520:/Users/joostbooy/Desktop/Code/stm32/lib/tinyusb/src/common/tusb_types.h ****   return (uint8_t)(addr & (~TUSB_DIR_IN_MASK));
 521:/Users/joostbooy/Desktop/Code/stm32/lib/tinyusb/src/common/tusb_types.h **** }
 522:/Users/joostbooy/Desktop/Code/stm32/lib/tinyusb/src/common/tusb_types.h **** 
 523:/Users/joostbooy/Desktop/Code/stm32/lib/tinyusb/src/common/tusb_types.h **** TU_ATTR_ALWAYS_INLINE static inline uint8_t tu_edpt_addr(uint8_t num, uint8_t dir)
 524:/Users/joostbooy/Desktop/Code/stm32/lib/tinyusb/src/common/tusb_types.h **** {
 525:/Users/joostbooy/Desktop/Code/stm32/lib/tinyusb/src/common/tusb_types.h ****   return (uint8_t)(num | (dir ? TUSB_DIR_IN_MASK : 0));
 526:/Users/joostbooy/Desktop/Code/stm32/lib/tinyusb/src/common/tusb_types.h **** }
 527:/Users/joostbooy/Desktop/Code/stm32/lib/tinyusb/src/common/tusb_types.h **** 
 528:/Users/joostbooy/Desktop/Code/stm32/lib/tinyusb/src/common/tusb_types.h **** TU_ATTR_ALWAYS_INLINE static inline uint16_t tu_edpt_packet_size(tusb_desc_endpoint_t const* desc_e
 414              		.loc 2 528 46 view .LVU100
 415              	.LBB56:
 529:/Users/joostbooy/Desktop/Code/stm32/lib/tinyusb/src/common/tusb_types.h **** {
 530:/Users/joostbooy/Desktop/Code/stm32/lib/tinyusb/src/common/tusb_types.h ****   return tu_le16toh(desc_ep->wMaxPacketSize) & TU_GENMASK(10, 0);
 416              		.loc 2 530 3 view .LVU101
 417              	.LBE56:
 418              	.LBE55:
 156:/Users/joostbooy/Desktop/Code/stm32/lib/tinyusb/src/tusb.c ****   TU_LOG2("  Open EP %02X with Size = %u\r\n", desc_ep->bEndpointAddress, max_packet_size);
 157:/Users/joostbooy/Desktop/Code/stm32/lib/tinyusb/src/tusb.c **** 
 158:/Users/joostbooy/Desktop/Code/stm32/lib/tinyusb/src/tusb.c ****   switch (desc_ep->bmAttributes.xfer)
 419              		.loc 1 158 32 is_stmt 0 view .LVU102
 420 0000 C378     		ldrb	r3, [r0, #3]	@ zero_extendqisi2
 421              	.LBB59:
 422              	.LBB57:
 423              		.loc 2 530 10 view .LVU103
 424 0002 8288     		ldrh	r2, [r0, #4]	@ unaligned
 425              	.LBE57:
 426              	.LBE59:
 427              		.loc 1 158 32 view .LVU104
 428 0004 03F00300 		and	r0, r3, #3
 429              	.LVL25:
 430              		.loc 1 158 3 view .LVU105
 431 0008 0228     		cmp	r0, #2
 432              	.LBB60:
 433              	.LBB58:
 434              		.loc 2 530 46 view .LVU106
 435 000a C2F30A02 		ubfx	r2, r2, #0, #11
 436              	.LVL26:
 437              		.loc 2 530 46 view .LVU107
 438              	.LBE58:
 439              	.LBE60:
 156:/Users/joostbooy/Desktop/Code/stm32/lib/tinyusb/src/tusb.c ****   TU_LOG2("  Open EP %02X with Size = %u\r\n", desc_ep->bEndpointAddress, max_packet_size);
 440              		.loc 1 156 91 is_stmt 1 view .LVU108
ARM GAS  /var/folders/84/_x1cyy_j36g486tldtwl37280000gn/T//cc1u9wTp.s 			page 21


 441              		.loc 1 158 3 view .LVU109
 442 000e 05D0     		beq	.L39
 443 0010 0328     		cmp	r0, #3
 444 0012 19D0     		beq	.L40
 445 0014 0128     		cmp	r0, #1
 446 0016 07D0     		beq	.L64
 447 0018 0020     		movs	r0, #0
 448 001a 7047     		bx	lr
 449              	.L39:
 159:/Users/joostbooy/Desktop/Code/stm32/lib/tinyusb/src/tusb.c ****   {
 160:/Users/joostbooy/Desktop/Code/stm32/lib/tinyusb/src/tusb.c ****     case TUSB_XFER_ISOCHRONOUS:
 161:/Users/joostbooy/Desktop/Code/stm32/lib/tinyusb/src/tusb.c ****     {
 162:/Users/joostbooy/Desktop/Code/stm32/lib/tinyusb/src/tusb.c ****       uint16_t const spec_size = (speed == TUSB_SPEED_HIGH ? 1024 : 1023);
 163:/Users/joostbooy/Desktop/Code/stm32/lib/tinyusb/src/tusb.c ****       TU_ASSERT(max_packet_size <= spec_size);
 164:/Users/joostbooy/Desktop/Code/stm32/lib/tinyusb/src/tusb.c ****     }
 165:/Users/joostbooy/Desktop/Code/stm32/lib/tinyusb/src/tusb.c ****     break;
 166:/Users/joostbooy/Desktop/Code/stm32/lib/tinyusb/src/tusb.c **** 
 167:/Users/joostbooy/Desktop/Code/stm32/lib/tinyusb/src/tusb.c ****     case TUSB_XFER_BULK:
 168:/Users/joostbooy/Desktop/Code/stm32/lib/tinyusb/src/tusb.c ****       if (speed == TUSB_SPEED_HIGH)
 450              		.loc 1 168 7 view .LVU110
 451              		.loc 1 168 10 is_stmt 0 view .LVU111
 452 001c 0229     		cmp	r1, #2
 453 001e 1CD0     		beq	.L65
 169:/Users/joostbooy/Desktop/Code/stm32/lib/tinyusb/src/tusb.c ****       {
 170:/Users/joostbooy/Desktop/Code/stm32/lib/tinyusb/src/tusb.c ****         // Bulk highspeed must be EXACTLY 512
 171:/Users/joostbooy/Desktop/Code/stm32/lib/tinyusb/src/tusb.c ****         TU_ASSERT(max_packet_size == 512);
 172:/Users/joostbooy/Desktop/Code/stm32/lib/tinyusb/src/tusb.c ****       }else
 173:/Users/joostbooy/Desktop/Code/stm32/lib/tinyusb/src/tusb.c ****       {
 174:/Users/joostbooy/Desktop/Code/stm32/lib/tinyusb/src/tusb.c ****         // TODO Bulk fullspeed can only be 8, 16, 32, 64
 175:/Users/joostbooy/Desktop/Code/stm32/lib/tinyusb/src/tusb.c ****         TU_ASSERT(max_packet_size <= 64);
 454              		.loc 1 175 9 is_stmt 1 discriminator 2 view .LVU112
 455              		.loc 1 175 9 discriminator 2 view .LVU113
 456 0020 402A     		cmp	r2, #64
 457 0022 09D8     		bhi	.L60
 458              	.L54:
 176:/Users/joostbooy/Desktop/Code/stm32/lib/tinyusb/src/tusb.c ****       }
 177:/Users/joostbooy/Desktop/Code/stm32/lib/tinyusb/src/tusb.c ****     break;
 178:/Users/joostbooy/Desktop/Code/stm32/lib/tinyusb/src/tusb.c **** 
 179:/Users/joostbooy/Desktop/Code/stm32/lib/tinyusb/src/tusb.c ****     case TUSB_XFER_INTERRUPT:
 180:/Users/joostbooy/Desktop/Code/stm32/lib/tinyusb/src/tusb.c ****     {
 181:/Users/joostbooy/Desktop/Code/stm32/lib/tinyusb/src/tusb.c ****       uint16_t const spec_size = (speed == TUSB_SPEED_HIGH ? 1024 : 64);
 182:/Users/joostbooy/Desktop/Code/stm32/lib/tinyusb/src/tusb.c ****       TU_ASSERT(max_packet_size <= spec_size);
 183:/Users/joostbooy/Desktop/Code/stm32/lib/tinyusb/src/tusb.c ****     }
 184:/Users/joostbooy/Desktop/Code/stm32/lib/tinyusb/src/tusb.c ****     break;
 185:/Users/joostbooy/Desktop/Code/stm32/lib/tinyusb/src/tusb.c **** 
 186:/Users/joostbooy/Desktop/Code/stm32/lib/tinyusb/src/tusb.c ****     default: return false;
 187:/Users/joostbooy/Desktop/Code/stm32/lib/tinyusb/src/tusb.c ****   }
 188:/Users/joostbooy/Desktop/Code/stm32/lib/tinyusb/src/tusb.c **** 
 189:/Users/joostbooy/Desktop/Code/stm32/lib/tinyusb/src/tusb.c ****   return true;
 459              		.loc 1 189 10 is_stmt 0 view .LVU114
 460 0024 0120     		movs	r0, #1
 461              	.LVL27:
 462              	.L41:
 190:/Users/joostbooy/Desktop/Code/stm32/lib/tinyusb/src/tusb.c **** }
 463              		.loc 1 190 1 view .LVU115
 464 0026 7047     		bx	lr
 465              	.LVL28:
ARM GAS  /var/folders/84/_x1cyy_j36g486tldtwl37280000gn/T//cc1u9wTp.s 			page 22


 466              	.L64:
 467              	.LBB61:
 162:/Users/joostbooy/Desktop/Code/stm32/lib/tinyusb/src/tusb.c ****       TU_ASSERT(max_packet_size <= spec_size);
 468              		.loc 1 162 7 is_stmt 1 view .LVU116
 162:/Users/joostbooy/Desktop/Code/stm32/lib/tinyusb/src/tusb.c ****       TU_ASSERT(max_packet_size <= spec_size);
 469              		.loc 1 162 22 is_stmt 0 view .LVU117
 470 0028 0229     		cmp	r1, #2
 471 002a 40F2FF31 		movw	r1, #1023
 472              	.LVL29:
 162:/Users/joostbooy/Desktop/Code/stm32/lib/tinyusb/src/tusb.c ****       TU_ASSERT(max_packet_size <= spec_size);
 473              		.loc 1 162 22 view .LVU118
 474 002e 08BF     		it	eq
 475 0030 4FF48061 		moveq	r1, #1024
 476              	.LVL30:
 163:/Users/joostbooy/Desktop/Code/stm32/lib/tinyusb/src/tusb.c ****     }
 477              		.loc 1 163 7 is_stmt 1 view .LVU119
 163:/Users/joostbooy/Desktop/Code/stm32/lib/tinyusb/src/tusb.c ****     }
 478              		.loc 1 163 7 view .LVU120
 479 0034 9142     		cmp	r1, r2
 480 0036 F6D2     		bcs	.L41
 481              	.LVL31:
 482              	.L60:
 163:/Users/joostbooy/Desktop/Code/stm32/lib/tinyusb/src/tusb.c ****     }
 483              		.loc 1 163 7 is_stmt 0 view .LVU121
 484              	.LBE61:
 485              	.LBB62:
 182:/Users/joostbooy/Desktop/Code/stm32/lib/tinyusb/src/tusb.c ****     }
 486              		.loc 1 182 7 is_stmt 1 discriminator 1 view .LVU122
 182:/Users/joostbooy/Desktop/Code/stm32/lib/tinyusb/src/tusb.c ****     }
 487              		.loc 1 182 7 discriminator 1 view .LVU123
 182:/Users/joostbooy/Desktop/Code/stm32/lib/tinyusb/src/tusb.c ****     }
 488              		.loc 1 182 7 discriminator 1 view .LVU124
 182:/Users/joostbooy/Desktop/Code/stm32/lib/tinyusb/src/tusb.c ****     }
 489              		.loc 1 182 7 discriminator 1 view .LVU125
 490              	.LBB63:
 182:/Users/joostbooy/Desktop/Code/stm32/lib/tinyusb/src/tusb.c ****     }
 491              		.loc 1 182 7 discriminator 1 view .LVU126
 182:/Users/joostbooy/Desktop/Code/stm32/lib/tinyusb/src/tusb.c ****     }
 492              		.loc 1 182 7 discriminator 1 view .LVU127
 493 0038 0A48     		ldr	r0, .L66
 494 003a 0368     		ldr	r3, [r0]
 495 003c 13F00100 		ands	r0, r3, #1
 496 0040 F1D0     		beq	.L41
 182:/Users/joostbooy/Desktop/Code/stm32/lib/tinyusb/src/tusb.c ****     }
 497              		.loc 1 182 7 discriminator 3 view .LVU128
 498              		.syntax unified
 499              	@ 182 "/Users/joostbooy/Desktop/Code/stm32/lib/tinyusb/src/tusb.c" 1
 500 0042 00BE     		BKPT #0
 501              	
 502              	@ 0 "" 2
 503              		.thumb
 504              		.syntax unified
 505              	.LBE63:
 506 0044 0020     		movs	r0, #0
 507 0046 7047     		bx	lr
 508              	.LVL32:
 509              	.L40:
ARM GAS  /var/folders/84/_x1cyy_j36g486tldtwl37280000gn/T//cc1u9wTp.s 			page 23


 181:/Users/joostbooy/Desktop/Code/stm32/lib/tinyusb/src/tusb.c ****       TU_ASSERT(max_packet_size <= spec_size);
 510              		.loc 1 181 7 view .LVU129
 181:/Users/joostbooy/Desktop/Code/stm32/lib/tinyusb/src/tusb.c ****       TU_ASSERT(max_packet_size <= spec_size);
 511              		.loc 1 181 22 is_stmt 0 view .LVU130
 512 0048 0229     		cmp	r1, #2
 513 004a 0CBF     		ite	eq
 514 004c 4FF48063 		moveq	r3, #1024
 515 0050 4023     		movne	r3, #64
 516              	.LVL33:
 182:/Users/joostbooy/Desktop/Code/stm32/lib/tinyusb/src/tusb.c ****     }
 517              		.loc 1 182 7 is_stmt 1 view .LVU131
 182:/Users/joostbooy/Desktop/Code/stm32/lib/tinyusb/src/tusb.c ****     }
 518              		.loc 1 182 7 view .LVU132
 519 0052 9342     		cmp	r3, r2
 520 0054 F0D3     		bcc	.L60
 521              	.LBE62:
 189:/Users/joostbooy/Desktop/Code/stm32/lib/tinyusb/src/tusb.c **** }
 522              		.loc 1 189 10 is_stmt 0 view .LVU133
 523 0056 0120     		movs	r0, #1
 524 0058 E5E7     		b	.L41
 525              	.LVL34:
 526              	.L65:
 171:/Users/joostbooy/Desktop/Code/stm32/lib/tinyusb/src/tusb.c ****       }else
 527              		.loc 1 171 9 is_stmt 1 view .LVU134
 171:/Users/joostbooy/Desktop/Code/stm32/lib/tinyusb/src/tusb.c ****       }else
 528              		.loc 1 171 9 view .LVU135
 529 005a B2F5007F 		cmp	r2, #512
 530 005e E1D0     		beq	.L54
 531 0060 EAE7     		b	.L60
 532              	.L67:
 533 0062 00BF     		.align	2
 534              	.L66:
 535 0064 F0ED00E0 		.word	-536810000
 536              		.cfi_endproc
 537              	.LFE86:
 539              		.section	.text.tu_edpt_bind_driver,"ax",%progbits
 540              		.align	1
 541              		.p2align 2,,3
 542              		.global	tu_edpt_bind_driver
 543              		.syntax unified
 544              		.thumb
 545              		.thumb_func
 546              		.fpu fpv4-sp-d16
 548              	tu_edpt_bind_driver:
 549              	.LVL35:
 550              	.LFB87:
 191:/Users/joostbooy/Desktop/Code/stm32/lib/tinyusb/src/tusb.c **** 
 192:/Users/joostbooy/Desktop/Code/stm32/lib/tinyusb/src/tusb.c **** void tu_edpt_bind_driver(uint8_t ep2drv[][2], tusb_desc_interface_t const* desc_itf, uint16_t desc_
 193:/Users/joostbooy/Desktop/Code/stm32/lib/tinyusb/src/tusb.c **** {
 551              		.loc 1 193 1 view -0
 552              		.cfi_startproc
 553              		@ args = 0, pretend = 0, frame = 0
 554              		@ frame_needed = 0, uses_anonymous_args = 0
 555              		@ link register save eliminated.
 194:/Users/joostbooy/Desktop/Code/stm32/lib/tinyusb/src/tusb.c ****   uint8_t const* p_desc = (uint8_t const*) desc_itf;
 556              		.loc 1 194 3 view .LVU137
 195:/Users/joostbooy/Desktop/Code/stm32/lib/tinyusb/src/tusb.c ****   uint8_t const* desc_end = p_desc + desc_len;
ARM GAS  /var/folders/84/_x1cyy_j36g486tldtwl37280000gn/T//cc1u9wTp.s 			page 24


 557              		.loc 1 195 3 view .LVU138
 558              		.loc 1 195 18 is_stmt 0 view .LVU139
 559 0000 0A44     		add	r2, r2, r1
 560              	.LVL36:
 196:/Users/joostbooy/Desktop/Code/stm32/lib/tinyusb/src/tusb.c **** 
 197:/Users/joostbooy/Desktop/Code/stm32/lib/tinyusb/src/tusb.c ****   while( p_desc < desc_end )
 561              		.loc 1 197 3 is_stmt 1 view .LVU140
 562              		.loc 1 197 8 view .LVU141
 563 0002 9142     		cmp	r1, r2
 564 0004 11D2     		bcs	.L74
 193:/Users/joostbooy/Desktop/Code/stm32/lib/tinyusb/src/tusb.c ****   uint8_t const* p_desc = (uint8_t const*) desc_itf;
 565              		.loc 1 193 1 is_stmt 0 view .LVU142
 566 0006 30B4     		push	{r4, r5}
 567              		.cfi_def_cfa_offset 8
 568              		.cfi_offset 4, -8
 569              		.cfi_offset 5, -4
 570              	.LVL37:
 571              	.L71:
 198:/Users/joostbooy/Desktop/Code/stm32/lib/tinyusb/src/tusb.c ****   {
 199:/Users/joostbooy/Desktop/Code/stm32/lib/tinyusb/src/tusb.c ****     if ( TUSB_DESC_ENDPOINT == tu_desc_type(p_desc) )
 572              		.loc 1 199 5 is_stmt 1 view .LVU143
 573              	.LBB64:
 574              	.LBI64:
 531:/Users/joostbooy/Desktop/Code/stm32/lib/tinyusb/src/common/tusb_types.h **** }
 532:/Users/joostbooy/Desktop/Code/stm32/lib/tinyusb/src/common/tusb_types.h **** 
 533:/Users/joostbooy/Desktop/Code/stm32/lib/tinyusb/src/common/tusb_types.h **** #if CFG_TUSB_DEBUG
 534:/Users/joostbooy/Desktop/Code/stm32/lib/tinyusb/src/common/tusb_types.h **** TU_ATTR_ALWAYS_INLINE static inline const char *tu_edpt_dir_str(tusb_dir_t dir)
 535:/Users/joostbooy/Desktop/Code/stm32/lib/tinyusb/src/common/tusb_types.h **** {
 536:/Users/joostbooy/Desktop/Code/stm32/lib/tinyusb/src/common/tusb_types.h ****   tu_static const char *str[] = {"out", "in"};
 537:/Users/joostbooy/Desktop/Code/stm32/lib/tinyusb/src/common/tusb_types.h ****   return str[dir];
 538:/Users/joostbooy/Desktop/Code/stm32/lib/tinyusb/src/common/tusb_types.h **** }
 539:/Users/joostbooy/Desktop/Code/stm32/lib/tinyusb/src/common/tusb_types.h **** 
 540:/Users/joostbooy/Desktop/Code/stm32/lib/tinyusb/src/common/tusb_types.h **** TU_ATTR_ALWAYS_INLINE static inline const char *tu_edpt_type_str(tusb_xfer_type_t t)
 541:/Users/joostbooy/Desktop/Code/stm32/lib/tinyusb/src/common/tusb_types.h **** {
 542:/Users/joostbooy/Desktop/Code/stm32/lib/tinyusb/src/common/tusb_types.h ****   tu_static const char *str[] = {"control", "isochronous", "bulk", "interrupt"};
 543:/Users/joostbooy/Desktop/Code/stm32/lib/tinyusb/src/common/tusb_types.h ****   return str[t];
 544:/Users/joostbooy/Desktop/Code/stm32/lib/tinyusb/src/common/tusb_types.h **** }
 545:/Users/joostbooy/Desktop/Code/stm32/lib/tinyusb/src/common/tusb_types.h **** #endif
 546:/Users/joostbooy/Desktop/Code/stm32/lib/tinyusb/src/common/tusb_types.h **** 
 547:/Users/joostbooy/Desktop/Code/stm32/lib/tinyusb/src/common/tusb_types.h **** //--------------------------------------------------------------------+
 548:/Users/joostbooy/Desktop/Code/stm32/lib/tinyusb/src/common/tusb_types.h **** // Descriptor helper
 549:/Users/joostbooy/Desktop/Code/stm32/lib/tinyusb/src/common/tusb_types.h **** //--------------------------------------------------------------------+
 550:/Users/joostbooy/Desktop/Code/stm32/lib/tinyusb/src/common/tusb_types.h **** 
 551:/Users/joostbooy/Desktop/Code/stm32/lib/tinyusb/src/common/tusb_types.h **** // return next descriptor
 552:/Users/joostbooy/Desktop/Code/stm32/lib/tinyusb/src/common/tusb_types.h **** TU_ATTR_ALWAYS_INLINE static inline uint8_t const * tu_desc_next(void const* desc)
 553:/Users/joostbooy/Desktop/Code/stm32/lib/tinyusb/src/common/tusb_types.h **** {
 554:/Users/joostbooy/Desktop/Code/stm32/lib/tinyusb/src/common/tusb_types.h ****   uint8_t const* desc8 = (uint8_t const*) desc;
 555:/Users/joostbooy/Desktop/Code/stm32/lib/tinyusb/src/common/tusb_types.h ****   return desc8 + desc8[DESC_OFFSET_LEN];
 556:/Users/joostbooy/Desktop/Code/stm32/lib/tinyusb/src/common/tusb_types.h **** }
 557:/Users/joostbooy/Desktop/Code/stm32/lib/tinyusb/src/common/tusb_types.h **** 
 558:/Users/joostbooy/Desktop/Code/stm32/lib/tinyusb/src/common/tusb_types.h **** // get descriptor type
 559:/Users/joostbooy/Desktop/Code/stm32/lib/tinyusb/src/common/tusb_types.h **** TU_ATTR_ALWAYS_INLINE static inline uint8_t tu_desc_type(void const* desc)
 575              		.loc 2 559 45 view .LVU144
 576              	.LBB65:
 560:/Users/joostbooy/Desktop/Code/stm32/lib/tinyusb/src/common/tusb_types.h **** {
 561:/Users/joostbooy/Desktop/Code/stm32/lib/tinyusb/src/common/tusb_types.h ****   return ((uint8_t const*) desc)[DESC_OFFSET_TYPE];
 577              		.loc 2 561 3 view .LVU145
ARM GAS  /var/folders/84/_x1cyy_j36g486tldtwl37280000gn/T//cc1u9wTp.s 			page 25


 578              		.loc 2 561 3 is_stmt 0 view .LVU146
 579              	.LBE65:
 580              	.LBE64:
 200:/Users/joostbooy/Desktop/Code/stm32/lib/tinyusb/src/tusb.c ****     {
 201:/Users/joostbooy/Desktop/Code/stm32/lib/tinyusb/src/tusb.c ****       uint8_t const ep_addr = ((tusb_desc_endpoint_t const*) p_desc)->bEndpointAddress;
 202:/Users/joostbooy/Desktop/Code/stm32/lib/tinyusb/src/tusb.c **** 
 203:/Users/joostbooy/Desktop/Code/stm32/lib/tinyusb/src/tusb.c ****       TU_LOG(2, "  Bind EP %02x to driver id %u\r\n", ep_addr, driver_id);
 204:/Users/joostbooy/Desktop/Code/stm32/lib/tinyusb/src/tusb.c ****       ep2drv[tu_edpt_number(ep_addr)][tu_edpt_dir(ep_addr)] = driver_id;
 205:/Users/joostbooy/Desktop/Code/stm32/lib/tinyusb/src/tusb.c ****     }
 206:/Users/joostbooy/Desktop/Code/stm32/lib/tinyusb/src/tusb.c **** 
 207:/Users/joostbooy/Desktop/Code/stm32/lib/tinyusb/src/tusb.c ****     p_desc = tu_desc_next(p_desc);
 581              		.loc 1 207 5 is_stmt 1 view .LVU147
 582              	.LBB66:
 583              	.LBI66:
 552:/Users/joostbooy/Desktop/Code/stm32/lib/tinyusb/src/common/tusb_types.h **** {
 584              		.loc 2 552 53 view .LVU148
 585              	.LBB67:
 554:/Users/joostbooy/Desktop/Code/stm32/lib/tinyusb/src/common/tusb_types.h ****   return desc8 + desc8[DESC_OFFSET_LEN];
 586              		.loc 2 554 3 view .LVU149
 555:/Users/joostbooy/Desktop/Code/stm32/lib/tinyusb/src/common/tusb_types.h **** }
 587              		.loc 2 555 3 view .LVU150
 588              	.LBE67:
 589              	.LBE66:
 199:/Users/joostbooy/Desktop/Code/stm32/lib/tinyusb/src/tusb.c ****     {
 590              		.loc 1 199 8 is_stmt 0 view .LVU151
 591 0008 4C78     		ldrb	r4, [r1, #1]	@ zero_extendqisi2
 592 000a 052C     		cmp	r4, #5
 593 000c 07D1     		bne	.L70
 594              	.LBB69:
 201:/Users/joostbooy/Desktop/Code/stm32/lib/tinyusb/src/tusb.c **** 
 595              		.loc 1 201 7 is_stmt 1 view .LVU152
 201:/Users/joostbooy/Desktop/Code/stm32/lib/tinyusb/src/tusb.c **** 
 596              		.loc 1 201 21 is_stmt 0 view .LVU153
 597 000e 8C78     		ldrb	r4, [r1, #2]	@ zero_extendqisi2
 598              	.LVL38:
 203:/Users/joostbooy/Desktop/Code/stm32/lib/tinyusb/src/tusb.c ****       ep2drv[tu_edpt_number(ep_addr)][tu_edpt_dir(ep_addr)] = driver_id;
 599              		.loc 1 203 74 is_stmt 1 view .LVU154
 204:/Users/joostbooy/Desktop/Code/stm32/lib/tinyusb/src/tusb.c ****     }
 600              		.loc 1 204 7 view .LVU155
 601              	.LBB70:
 602              	.LBI70:
 518:/Users/joostbooy/Desktop/Code/stm32/lib/tinyusb/src/common/tusb_types.h **** {
 603              		.loc 2 518 45 view .LVU156
 604              	.LBB71:
 520:/Users/joostbooy/Desktop/Code/stm32/lib/tinyusb/src/common/tusb_types.h **** }
 605              		.loc 2 520 3 view .LVU157
 520:/Users/joostbooy/Desktop/Code/stm32/lib/tinyusb/src/common/tusb_types.h **** }
 606              		.loc 2 520 3 is_stmt 0 view .LVU158
 607              	.LBE71:
 608              	.LBE70:
 609              	.LBB72:
 610              	.LBI72:
 512:/Users/joostbooy/Desktop/Code/stm32/lib/tinyusb/src/common/tusb_types.h **** {
 611              		.loc 2 512 48 is_stmt 1 view .LVU159
 612              	.LBB73:
 514:/Users/joostbooy/Desktop/Code/stm32/lib/tinyusb/src/common/tusb_types.h **** }
 613              		.loc 2 514 3 view .LVU160
ARM GAS  /var/folders/84/_x1cyy_j36g486tldtwl37280000gn/T//cc1u9wTp.s 			page 26


 514:/Users/joostbooy/Desktop/Code/stm32/lib/tinyusb/src/common/tusb_types.h **** }
 614              		.loc 2 514 3 is_stmt 0 view .LVU161
 615              	.LBE73:
 616              	.LBE72:
 204:/Users/joostbooy/Desktop/Code/stm32/lib/tinyusb/src/tusb.c ****     }
 617              		.loc 1 204 13 view .LVU162
 618 0010 04F07F05 		and	r5, r4, #127
 204:/Users/joostbooy/Desktop/Code/stm32/lib/tinyusb/src/tusb.c ****     }
 619              		.loc 1 204 61 view .LVU163
 620 0014 00EB450C 		add	ip, r0, r5, lsl #1
 204:/Users/joostbooy/Desktop/Code/stm32/lib/tinyusb/src/tusb.c ****     }
 621              		.loc 1 204 39 view .LVU164
 622 0018 E409     		lsrs	r4, r4, #7
 623              	.LVL39:
 204:/Users/joostbooy/Desktop/Code/stm32/lib/tinyusb/src/tusb.c ****     }
 624              		.loc 1 204 61 view .LVU165
 625 001a 0CF80430 		strb	r3, [ip, r4]
 626              	.LVL40:
 627              	.L70:
 204:/Users/joostbooy/Desktop/Code/stm32/lib/tinyusb/src/tusb.c ****     }
 628              		.loc 1 204 61 view .LVU166
 629              	.LBE69:
 630              	.LBB74:
 631              	.LBB68:
 555:/Users/joostbooy/Desktop/Code/stm32/lib/tinyusb/src/common/tusb_types.h **** }
 632              		.loc 2 555 23 view .LVU167
 633 001e 0D78     		ldrb	r5, [r1]	@ zero_extendqisi2
 555:/Users/joostbooy/Desktop/Code/stm32/lib/tinyusb/src/common/tusb_types.h **** }
 634              		.loc 2 555 16 view .LVU168
 635 0020 2944     		add	r1, r1, r5
 636              	.LVL41:
 555:/Users/joostbooy/Desktop/Code/stm32/lib/tinyusb/src/common/tusb_types.h **** }
 637              		.loc 2 555 16 view .LVU169
 638              	.LBE68:
 639              	.LBE74:
 197:/Users/joostbooy/Desktop/Code/stm32/lib/tinyusb/src/tusb.c ****   {
 640              		.loc 1 197 8 is_stmt 1 view .LVU170
 641 0022 8A42     		cmp	r2, r1
 642 0024 F0D8     		bhi	.L71
 208:/Users/joostbooy/Desktop/Code/stm32/lib/tinyusb/src/tusb.c ****   }
 209:/Users/joostbooy/Desktop/Code/stm32/lib/tinyusb/src/tusb.c **** }
 643              		.loc 1 209 1 is_stmt 0 view .LVU171
 644 0026 30BC     		pop	{r4, r5}
 645              		.cfi_restore 5
 646              		.cfi_restore 4
 647              		.cfi_def_cfa_offset 0
 648 0028 7047     		bx	lr
 649              	.LVL42:
 650              	.L74:
 651              		.loc 1 209 1 view .LVU172
 652 002a 7047     		bx	lr
 653              		.cfi_endproc
 654              	.LFE87:
 656              		.section	.text.tu_desc_get_interface_total_len,"ax",%progbits
 657              		.align	1
 658              		.p2align 2,,3
 659              		.global	tu_desc_get_interface_total_len
ARM GAS  /var/folders/84/_x1cyy_j36g486tldtwl37280000gn/T//cc1u9wTp.s 			page 27


 660              		.syntax unified
 661              		.thumb
 662              		.thumb_func
 663              		.fpu fpv4-sp-d16
 665              	tu_desc_get_interface_total_len:
 666              	.LVL43:
 667              	.LFB88:
 210:/Users/joostbooy/Desktop/Code/stm32/lib/tinyusb/src/tusb.c **** 
 211:/Users/joostbooy/Desktop/Code/stm32/lib/tinyusb/src/tusb.c **** uint16_t tu_desc_get_interface_total_len(tusb_desc_interface_t const* desc_itf, uint8_t itf_count, 
 212:/Users/joostbooy/Desktop/Code/stm32/lib/tinyusb/src/tusb.c **** {
 668              		.loc 1 212 1 is_stmt 1 view -0
 669              		.cfi_startproc
 670              		@ args = 0, pretend = 0, frame = 0
 671              		@ frame_needed = 0, uses_anonymous_args = 0
 672              		@ link register save eliminated.
 213:/Users/joostbooy/Desktop/Code/stm32/lib/tinyusb/src/tusb.c ****   uint8_t const* p_desc = (uint8_t const*) desc_itf;
 673              		.loc 1 213 3 view .LVU174
 214:/Users/joostbooy/Desktop/Code/stm32/lib/tinyusb/src/tusb.c ****   uint16_t len = 0;
 674              		.loc 1 214 3 view .LVU175
 215:/Users/joostbooy/Desktop/Code/stm32/lib/tinyusb/src/tusb.c **** 
 216:/Users/joostbooy/Desktop/Code/stm32/lib/tinyusb/src/tusb.c ****   while (itf_count--)
 675              		.loc 1 216 3 view .LVU176
 676              		.loc 1 216 9 view .LVU177
 677              		.loc 1 216 9 is_stmt 0 view .LVU178
 678 0000 19B3     		cbz	r1, .L82
 212:/Users/joostbooy/Desktop/Code/stm32/lib/tinyusb/src/tusb.c ****   uint8_t const* p_desc = (uint8_t const*) desc_itf;
 679              		.loc 1 212 1 view .LVU179
 680 0002 70B4     		push	{r4, r5, r6}
 681              		.cfi_def_cfa_offset 12
 682              		.cfi_offset 4, -12
 683              		.cfi_offset 5, -8
 684              		.cfi_offset 6, -4
 685 0004 4D1E     		subs	r5, r1, #1
 686              	.LBB75:
 687              	.LBB76:
 562:/Users/joostbooy/Desktop/Code/stm32/lib/tinyusb/src/common/tusb_types.h **** }
 563:/Users/joostbooy/Desktop/Code/stm32/lib/tinyusb/src/common/tusb_types.h **** 
 564:/Users/joostbooy/Desktop/Code/stm32/lib/tinyusb/src/common/tusb_types.h **** // get descriptor length
 565:/Users/joostbooy/Desktop/Code/stm32/lib/tinyusb/src/common/tusb_types.h **** TU_ATTR_ALWAYS_INLINE static inline uint8_t tu_desc_len(void const* desc)
 566:/Users/joostbooy/Desktop/Code/stm32/lib/tinyusb/src/common/tusb_types.h **** {
 567:/Users/joostbooy/Desktop/Code/stm32/lib/tinyusb/src/common/tusb_types.h ****   return ((uint8_t const*) desc)[DESC_OFFSET_LEN];
 688              		.loc 2 567 33 view .LVU180
 689 0006 0178     		ldrb	r1, [r0]	@ zero_extendqisi2
 690              	.LVL44:
 691              		.loc 2 567 33 view .LVU181
 692 0008 0446     		mov	r4, r0
 693 000a EDB2     		uxtb	r5, r5
 694              	.LBE76:
 695              	.LBE75:
 214:/Users/joostbooy/Desktop/Code/stm32/lib/tinyusb/src/tusb.c **** 
 696              		.loc 1 214 12 view .LVU182
 697 000c 0020     		movs	r0, #0
 698              	.LVL45:
 217:/Users/joostbooy/Desktop/Code/stm32/lib/tinyusb/src/tusb.c ****   {
 218:/Users/joostbooy/Desktop/Code/stm32/lib/tinyusb/src/tusb.c ****     // Next on interface desc
 219:/Users/joostbooy/Desktop/Code/stm32/lib/tinyusb/src/tusb.c ****     len += tu_desc_len(desc_itf);
 699              		.loc 1 219 12 view .LVU183
ARM GAS  /var/folders/84/_x1cyy_j36g486tldtwl37280000gn/T//cc1u9wTp.s 			page 28


 700 000e 8EB2     		uxth	r6, r1
 701              	.LVL46:
 702              	.L81:
 703              		.loc 1 219 5 is_stmt 1 view .LVU184
 704              	.LBB78:
 705              	.LBI75:
 565:/Users/joostbooy/Desktop/Code/stm32/lib/tinyusb/src/common/tusb_types.h **** {
 706              		.loc 2 565 45 view .LVU185
 707              	.LBB77:
 708              		.loc 2 567 3 view .LVU186
 709              		.loc 2 567 3 is_stmt 0 view .LVU187
 710              	.LBE77:
 711              	.LBE78:
 712              		.loc 1 219 9 view .LVU188
 713 0010 3318     		adds	r3, r6, r0
 714 0012 98B2     		uxth	r0, r3
 715              	.LVL47:
 220:/Users/joostbooy/Desktop/Code/stm32/lib/tinyusb/src/tusb.c ****     p_desc = tu_desc_next(p_desc);
 716              		.loc 1 220 5 is_stmt 1 view .LVU189
 717              	.LBB79:
 718              	.LBI79:
 552:/Users/joostbooy/Desktop/Code/stm32/lib/tinyusb/src/common/tusb_types.h **** {
 719              		.loc 2 552 53 view .LVU190
 720              	.LBB80:
 554:/Users/joostbooy/Desktop/Code/stm32/lib/tinyusb/src/common/tusb_types.h ****   return desc8 + desc8[DESC_OFFSET_LEN];
 721              		.loc 2 554 3 view .LVU191
 555:/Users/joostbooy/Desktop/Code/stm32/lib/tinyusb/src/common/tusb_types.h **** }
 722              		.loc 2 555 3 view .LVU192
 723              	.LBE80:
 724              	.LBE79:
 221:/Users/joostbooy/Desktop/Code/stm32/lib/tinyusb/src/tusb.c **** 
 222:/Users/joostbooy/Desktop/Code/stm32/lib/tinyusb/src/tusb.c ****     while (len < max_len)
 725              		.loc 1 222 11 is_stmt 0 view .LVU193
 726 0014 9042     		cmp	r0, r2
 727              	.LBB82:
 728              	.LBB81:
 555:/Users/joostbooy/Desktop/Code/stm32/lib/tinyusb/src/common/tusb_types.h **** }
 729              		.loc 2 555 16 view .LVU194
 730 0016 0C44     		add	r4, r4, r1
 731              	.LVL48:
 555:/Users/joostbooy/Desktop/Code/stm32/lib/tinyusb/src/common/tusb_types.h **** }
 732              		.loc 2 555 16 view .LVU195
 733              	.LBE81:
 734              	.LBE82:
 735              		.loc 1 222 5 is_stmt 1 view .LVU196
 736              		.loc 1 222 11 view .LVU197
 737 0018 07D3     		bcc	.L80
 738 001a 0EE0     		b	.L78
 739              	.LVL49:
 740              	.L79:
 741              	.LBB83:
 742              	.LBB84:
 743              		.loc 2 567 33 is_stmt 0 view .LVU198
 744 001c 94F800C0 		ldrb	ip, [r4]	@ zero_extendqisi2
 745              	.LVL50:
 746              		.loc 2 567 33 view .LVU199
 747              	.LBE84:
ARM GAS  /var/folders/84/_x1cyy_j36g486tldtwl37280000gn/T//cc1u9wTp.s 			page 29


 748              	.LBE83:
 223:/Users/joostbooy/Desktop/Code/stm32/lib/tinyusb/src/tusb.c ****     {
 224:/Users/joostbooy/Desktop/Code/stm32/lib/tinyusb/src/tusb.c ****       // return on IAD regardless of itf count
 225:/Users/joostbooy/Desktop/Code/stm32/lib/tinyusb/src/tusb.c ****       if ( tu_desc_type(p_desc) == TUSB_DESC_INTERFACE_ASSOCIATION ) return len;
 226:/Users/joostbooy/Desktop/Code/stm32/lib/tinyusb/src/tusb.c **** 
 227:/Users/joostbooy/Desktop/Code/stm32/lib/tinyusb/src/tusb.c ****       if ( (tu_desc_type(p_desc) == TUSB_DESC_INTERFACE) &&
 228:/Users/joostbooy/Desktop/Code/stm32/lib/tinyusb/src/tusb.c ****            ((tusb_desc_interface_t const*) p_desc)->bAlternateSetting == 0 )
 229:/Users/joostbooy/Desktop/Code/stm32/lib/tinyusb/src/tusb.c ****       {
 230:/Users/joostbooy/Desktop/Code/stm32/lib/tinyusb/src/tusb.c ****         break;
 231:/Users/joostbooy/Desktop/Code/stm32/lib/tinyusb/src/tusb.c ****       }
 232:/Users/joostbooy/Desktop/Code/stm32/lib/tinyusb/src/tusb.c **** 
 233:/Users/joostbooy/Desktop/Code/stm32/lib/tinyusb/src/tusb.c ****       len += tu_desc_len(p_desc);
 749              		.loc 1 233 11 view .LVU200
 750 0020 6044     		add	r0, r0, ip
 751              	.LVL51:
 752              		.loc 1 233 11 view .LVU201
 753 0022 80B2     		uxth	r0, r0
 754              	.LVL52:
 234:/Users/joostbooy/Desktop/Code/stm32/lib/tinyusb/src/tusb.c ****       p_desc = tu_desc_next(p_desc);
 755              		.loc 1 234 7 is_stmt 1 view .LVU202
 756              	.LBB86:
 757              	.LBI86:
 552:/Users/joostbooy/Desktop/Code/stm32/lib/tinyusb/src/common/tusb_types.h **** {
 758              		.loc 2 552 53 view .LVU203
 759              	.LBB87:
 554:/Users/joostbooy/Desktop/Code/stm32/lib/tinyusb/src/common/tusb_types.h ****   return desc8 + desc8[DESC_OFFSET_LEN];
 760              		.loc 2 554 3 view .LVU204
 555:/Users/joostbooy/Desktop/Code/stm32/lib/tinyusb/src/common/tusb_types.h **** }
 761              		.loc 2 555 3 view .LVU205
 762              	.LBE87:
 763              	.LBE86:
 222:/Users/joostbooy/Desktop/Code/stm32/lib/tinyusb/src/tusb.c ****     {
 764              		.loc 1 222 11 is_stmt 0 view .LVU206
 765 0024 8242     		cmp	r2, r0
 766              	.LBB89:
 767              	.LBB88:
 555:/Users/joostbooy/Desktop/Code/stm32/lib/tinyusb/src/common/tusb_types.h **** }
 768              		.loc 2 555 16 view .LVU207
 769 0026 6444     		add	r4, r4, ip
 770              	.LVL53:
 555:/Users/joostbooy/Desktop/Code/stm32/lib/tinyusb/src/common/tusb_types.h **** }
 771              		.loc 2 555 16 view .LVU208
 772              	.LBE88:
 773              	.LBE89:
 222:/Users/joostbooy/Desktop/Code/stm32/lib/tinyusb/src/tusb.c ****     {
 774              		.loc 1 222 11 is_stmt 1 view .LVU209
 775 0028 07D9     		bls	.L78
 776              	.L80:
 225:/Users/joostbooy/Desktop/Code/stm32/lib/tinyusb/src/tusb.c **** 
 777              		.loc 1 225 7 view .LVU210
 778              	.LVL54:
 779              	.LBB90:
 780              	.LBI90:
 559:/Users/joostbooy/Desktop/Code/stm32/lib/tinyusb/src/common/tusb_types.h **** {
 781              		.loc 2 559 45 view .LVU211
 782              	.LBB91:
 561:/Users/joostbooy/Desktop/Code/stm32/lib/tinyusb/src/common/tusb_types.h **** }
ARM GAS  /var/folders/84/_x1cyy_j36g486tldtwl37280000gn/T//cc1u9wTp.s 			page 30


 783              		.loc 2 561 3 view .LVU212
 784              	.LBE91:
 785              	.LBE90:
 227:/Users/joostbooy/Desktop/Code/stm32/lib/tinyusb/src/tusb.c ****            ((tusb_desc_interface_t const*) p_desc)->bAlternateSetting == 0 )
 786              		.loc 1 227 7 view .LVU213
 561:/Users/joostbooy/Desktop/Code/stm32/lib/tinyusb/src/common/tusb_types.h **** }
 787              		.loc 2 561 3 view .LVU214
 233:/Users/joostbooy/Desktop/Code/stm32/lib/tinyusb/src/tusb.c ****       p_desc = tu_desc_next(p_desc);
 788              		.loc 1 233 7 view .LVU215
 789              	.LBB93:
 790              	.LBI83:
 565:/Users/joostbooy/Desktop/Code/stm32/lib/tinyusb/src/common/tusb_types.h **** {
 791              		.loc 2 565 45 view .LVU216
 792              	.LBB85:
 793              		.loc 2 567 3 view .LVU217
 794              	.LBE85:
 795              	.LBE93:
 796              	.LBB94:
 797              	.LBB92:
 561:/Users/joostbooy/Desktop/Code/stm32/lib/tinyusb/src/common/tusb_types.h **** }
 798              		.loc 2 561 33 is_stmt 0 view .LVU218
 799 002a 6178     		ldrb	r1, [r4, #1]	@ zero_extendqisi2
 800              	.LVL55:
 561:/Users/joostbooy/Desktop/Code/stm32/lib/tinyusb/src/common/tusb_types.h **** }
 801              		.loc 2 561 33 view .LVU219
 802              	.LBE92:
 803              	.LBE94:
 225:/Users/joostbooy/Desktop/Code/stm32/lib/tinyusb/src/tusb.c **** 
 804              		.loc 1 225 10 view .LVU220
 805 002c 0B29     		cmp	r1, #11
 806 002e 0AD0     		beq	.L77
 227:/Users/joostbooy/Desktop/Code/stm32/lib/tinyusb/src/tusb.c ****            ((tusb_desc_interface_t const*) p_desc)->bAlternateSetting == 0 )
 807              		.loc 1 227 10 view .LVU221
 808 0030 0429     		cmp	r1, #4
 809 0032 F3D1     		bne	.L79
 227:/Users/joostbooy/Desktop/Code/stm32/lib/tinyusb/src/tusb.c ****            ((tusb_desc_interface_t const*) p_desc)->bAlternateSetting == 0 )
 810              		.loc 1 227 58 discriminator 1 view .LVU222
 811 0034 E378     		ldrb	r3, [r4, #3]	@ zero_extendqisi2
 812 0036 002B     		cmp	r3, #0
 813 0038 F0D1     		bne	.L79
 814              	.LVL56:
 815              	.L78:
 216:/Users/joostbooy/Desktop/Code/stm32/lib/tinyusb/src/tusb.c ****   {
 816              		.loc 1 216 9 is_stmt 1 view .LVU223
 216:/Users/joostbooy/Desktop/Code/stm32/lib/tinyusb/src/tusb.c ****   {
 817              		.loc 1 216 19 is_stmt 0 view .LVU224
 818 003a 013D     		subs	r5, r5, #1
 819              	.LVL57:
 216:/Users/joostbooy/Desktop/Code/stm32/lib/tinyusb/src/tusb.c ****   {
 820              		.loc 1 216 19 view .LVU225
 821 003c EDB2     		uxtb	r5, r5
 822              	.LVL58:
 216:/Users/joostbooy/Desktop/Code/stm32/lib/tinyusb/src/tusb.c ****   {
 823              		.loc 1 216 9 view .LVU226
 824 003e FF2D     		cmp	r5, #255
 825 0040 01D0     		beq	.L77
 216:/Users/joostbooy/Desktop/Code/stm32/lib/tinyusb/src/tusb.c ****   {
ARM GAS  /var/folders/84/_x1cyy_j36g486tldtwl37280000gn/T//cc1u9wTp.s 			page 31


 826              		.loc 1 216 9 view .LVU227
 827 0042 2178     		ldrb	r1, [r4]	@ zero_extendqisi2
 828 0044 E4E7     		b	.L81
 829              	.L77:
 235:/Users/joostbooy/Desktop/Code/stm32/lib/tinyusb/src/tusb.c ****     }
 236:/Users/joostbooy/Desktop/Code/stm32/lib/tinyusb/src/tusb.c ****   }
 237:/Users/joostbooy/Desktop/Code/stm32/lib/tinyusb/src/tusb.c **** 
 238:/Users/joostbooy/Desktop/Code/stm32/lib/tinyusb/src/tusb.c ****   return len;
 239:/Users/joostbooy/Desktop/Code/stm32/lib/tinyusb/src/tusb.c **** }
 830              		.loc 1 239 1 view .LVU228
 831 0046 70BC     		pop	{r4, r5, r6}
 832              		.cfi_restore 6
 833              		.cfi_restore 5
 834              		.cfi_restore 4
 835              		.cfi_def_cfa_offset 0
 836              	.LVL59:
 837              		.loc 1 239 1 view .LVU229
 838 0048 7047     		bx	lr
 839              	.LVL60:
 840              	.L82:
 214:/Users/joostbooy/Desktop/Code/stm32/lib/tinyusb/src/tusb.c **** 
 841              		.loc 1 214 12 view .LVU230
 842 004a 0846     		mov	r0, r1
 843              	.LVL61:
 844              		.loc 1 239 1 view .LVU231
 845 004c 7047     		bx	lr
 846              		.cfi_endproc
 847              	.LFE88:
 849              		.section	.text.tu_edpt_stream_init,"ax",%progbits
 850              		.align	1
 851              		.p2align 2,,3
 852              		.global	tu_edpt_stream_init
 853              		.syntax unified
 854              		.thumb
 855              		.thumb_func
 856              		.fpu fpv4-sp-d16
 858              	tu_edpt_stream_init:
 859              	.LVL62:
 860              	.LFB89:
 240:/Users/joostbooy/Desktop/Code/stm32/lib/tinyusb/src/tusb.c **** 
 241:/Users/joostbooy/Desktop/Code/stm32/lib/tinyusb/src/tusb.c **** //--------------------------------------------------------------------+
 242:/Users/joostbooy/Desktop/Code/stm32/lib/tinyusb/src/tusb.c **** // Endpoint Stream Helper for both Host and Device stack
 243:/Users/joostbooy/Desktop/Code/stm32/lib/tinyusb/src/tusb.c **** //--------------------------------------------------------------------+
 244:/Users/joostbooy/Desktop/Code/stm32/lib/tinyusb/src/tusb.c **** 
 245:/Users/joostbooy/Desktop/Code/stm32/lib/tinyusb/src/tusb.c **** bool tu_edpt_stream_init(tu_edpt_stream_t* s, bool is_host, bool is_tx, bool overwritable,
 246:/Users/joostbooy/Desktop/Code/stm32/lib/tinyusb/src/tusb.c ****                          void* ff_buf, uint16_t ff_bufsize, uint8_t* ep_buf, uint16_t ep_bufsize)
 247:/Users/joostbooy/Desktop/Code/stm32/lib/tinyusb/src/tusb.c **** {
 861              		.loc 1 247 1 is_stmt 1 view -0
 862              		.cfi_startproc
 863              		@ args = 16, pretend = 0, frame = 0
 864              		@ frame_needed = 0, uses_anonymous_args = 0
 248:/Users/joostbooy/Desktop/Code/stm32/lib/tinyusb/src/tusb.c ****   osal_mutex_t new_mutex = osal_mutex_create(&s->ff_mutex);
 865              		.loc 1 248 3 view .LVU233
 249:/Users/joostbooy/Desktop/Code/stm32/lib/tinyusb/src/tusb.c ****   (void) new_mutex;
 866              		.loc 1 249 3 view .LVU234
 250:/Users/joostbooy/Desktop/Code/stm32/lib/tinyusb/src/tusb.c ****   (void) is_tx;
 867              		.loc 1 250 3 view .LVU235
ARM GAS  /var/folders/84/_x1cyy_j36g486tldtwl37280000gn/T//cc1u9wTp.s 			page 32


 251:/Users/joostbooy/Desktop/Code/stm32/lib/tinyusb/src/tusb.c **** 
 252:/Users/joostbooy/Desktop/Code/stm32/lib/tinyusb/src/tusb.c ****   s->is_host = is_host;
 868              		.loc 1 252 3 view .LVU236
 247:/Users/joostbooy/Desktop/Code/stm32/lib/tinyusb/src/tusb.c ****   osal_mutex_t new_mutex = osal_mutex_create(&s->ff_mutex);
 869              		.loc 1 247 1 is_stmt 0 view .LVU237
 870 0000 70B5     		push	{r4, r5, r6, lr}
 871              		.cfi_def_cfa_offset 16
 872              		.cfi_offset 4, -16
 873              		.cfi_offset 5, -12
 874              		.cfi_offset 6, -8
 875              		.cfi_offset 14, -4
 876 0002 82B0     		sub	sp, sp, #8
 877              		.cfi_def_cfa_offset 24
 247:/Users/joostbooy/Desktop/Code/stm32/lib/tinyusb/src/tusb.c ****   osal_mutex_t new_mutex = osal_mutex_create(&s->ff_mutex);
 878              		.loc 1 247 1 view .LVU238
 879 0004 0446     		mov	r4, r0
 253:/Users/joostbooy/Desktop/Code/stm32/lib/tinyusb/src/tusb.c ****   tu_fifo_config(&s->ff, ff_buf, ff_bufsize, 1, overwritable);
 880              		.loc 1 253 3 view .LVU239
 881 0006 BDF81C20 		ldrh	r2, [sp, #28]
 882              	.LVL63:
 252:/Users/joostbooy/Desktop/Code/stm32/lib/tinyusb/src/tusb.c ****   tu_fifo_config(&s->ff, ff_buf, ff_bufsize, 1, overwritable);
 883              		.loc 1 252 14 view .LVU240
 884 000a 00F80C1B 		strb	r1, [r0], #12
 885              	.LVL64:
 886              		.loc 1 253 3 is_stmt 1 view .LVU241
 887 000e 0093     		str	r3, [sp]
 888 0010 0699     		ldr	r1, [sp, #24]
 889              	.LVL65:
 247:/Users/joostbooy/Desktop/Code/stm32/lib/tinyusb/src/tusb.c ****   osal_mutex_t new_mutex = osal_mutex_create(&s->ff_mutex);
 890              		.loc 1 247 1 is_stmt 0 view .LVU242
 891 0012 089E     		ldr	r6, [sp, #32]
 892 0014 BDF82450 		ldrh	r5, [sp, #36]
 893              		.loc 1 253 3 view .LVU243
 894 0018 0123     		movs	r3, #1
 895              	.LVL66:
 896              		.loc 1 253 3 view .LVU244
 897 001a FFF7FEFF 		bl	tu_fifo_config
 898              	.LVL67:
 254:/Users/joostbooy/Desktop/Code/stm32/lib/tinyusb/src/tusb.c ****   tu_fifo_config_mutex(&s->ff, is_tx ? new_mutex : NULL, is_tx ? NULL : new_mutex);
 899              		.loc 1 254 83 is_stmt 1 view .LVU245
 255:/Users/joostbooy/Desktop/Code/stm32/lib/tinyusb/src/tusb.c **** 
 256:/Users/joostbooy/Desktop/Code/stm32/lib/tinyusb/src/tusb.c ****   s->ep_buf = ep_buf;
 900              		.loc 1 256 3 view .LVU246
 257:/Users/joostbooy/Desktop/Code/stm32/lib/tinyusb/src/tusb.c ****   s->ep_bufsize = ep_bufsize;
 258:/Users/joostbooy/Desktop/Code/stm32/lib/tinyusb/src/tusb.c **** 
 259:/Users/joostbooy/Desktop/Code/stm32/lib/tinyusb/src/tusb.c ****   return true;
 260:/Users/joostbooy/Desktop/Code/stm32/lib/tinyusb/src/tusb.c **** }
 901              		.loc 1 260 1 is_stmt 0 view .LVU247
 902 001e 0120     		movs	r0, #1
 256:/Users/joostbooy/Desktop/Code/stm32/lib/tinyusb/src/tusb.c ****   s->ep_bufsize = ep_bufsize;
 903              		.loc 1 256 13 view .LVU248
 904 0020 A660     		str	r6, [r4, #8]
 257:/Users/joostbooy/Desktop/Code/stm32/lib/tinyusb/src/tusb.c ****   s->ep_bufsize = ep_bufsize;
 905              		.loc 1 257 3 is_stmt 1 view .LVU249
 257:/Users/joostbooy/Desktop/Code/stm32/lib/tinyusb/src/tusb.c ****   s->ep_bufsize = ep_bufsize;
 906              		.loc 1 257 17 is_stmt 0 view .LVU250
 907 0022 E580     		strh	r5, [r4, #6]	@ movhi
ARM GAS  /var/folders/84/_x1cyy_j36g486tldtwl37280000gn/T//cc1u9wTp.s 			page 33


 259:/Users/joostbooy/Desktop/Code/stm32/lib/tinyusb/src/tusb.c **** }
 908              		.loc 1 259 3 is_stmt 1 view .LVU251
 909              		.loc 1 260 1 is_stmt 0 view .LVU252
 910 0024 02B0     		add	sp, sp, #8
 911              		.cfi_def_cfa_offset 16
 912              		@ sp needed
 913 0026 70BD     		pop	{r4, r5, r6, pc}
 914              		.loc 1 260 1 view .LVU253
 915              		.cfi_endproc
 916              	.LFE89:
 918              		.section	.text.tu_edpt_stream_write_zlp_if_needed,"ax",%progbits
 919              		.align	1
 920              		.p2align 2,,3
 921              		.global	tu_edpt_stream_write_zlp_if_needed
 922              		.syntax unified
 923              		.thumb
 924              		.thumb_func
 925              		.fpu fpv4-sp-d16
 927              	tu_edpt_stream_write_zlp_if_needed:
 928              	.LVL68:
 929              	.LFB93:
 261:/Users/joostbooy/Desktop/Code/stm32/lib/tinyusb/src/tusb.c **** 
 262:/Users/joostbooy/Desktop/Code/stm32/lib/tinyusb/src/tusb.c **** TU_ATTR_ALWAYS_INLINE static inline
 263:/Users/joostbooy/Desktop/Code/stm32/lib/tinyusb/src/tusb.c **** bool stream_claim(tu_edpt_stream_t* s)
 264:/Users/joostbooy/Desktop/Code/stm32/lib/tinyusb/src/tusb.c **** {
 265:/Users/joostbooy/Desktop/Code/stm32/lib/tinyusb/src/tusb.c ****   if (s->is_host)
 266:/Users/joostbooy/Desktop/Code/stm32/lib/tinyusb/src/tusb.c ****   {
 267:/Users/joostbooy/Desktop/Code/stm32/lib/tinyusb/src/tusb.c ****     #if CFG_TUH_ENABLED
 268:/Users/joostbooy/Desktop/Code/stm32/lib/tinyusb/src/tusb.c ****     return usbh_edpt_claim(s->daddr, s->ep_addr);
 269:/Users/joostbooy/Desktop/Code/stm32/lib/tinyusb/src/tusb.c ****     #endif
 270:/Users/joostbooy/Desktop/Code/stm32/lib/tinyusb/src/tusb.c ****   }else
 271:/Users/joostbooy/Desktop/Code/stm32/lib/tinyusb/src/tusb.c ****   {
 272:/Users/joostbooy/Desktop/Code/stm32/lib/tinyusb/src/tusb.c ****     #if CFG_TUD_ENABLED
 273:/Users/joostbooy/Desktop/Code/stm32/lib/tinyusb/src/tusb.c ****     return usbd_edpt_claim(s->rhport, s->ep_addr);
 274:/Users/joostbooy/Desktop/Code/stm32/lib/tinyusb/src/tusb.c ****     #endif
 275:/Users/joostbooy/Desktop/Code/stm32/lib/tinyusb/src/tusb.c ****   }
 276:/Users/joostbooy/Desktop/Code/stm32/lib/tinyusb/src/tusb.c **** 
 277:/Users/joostbooy/Desktop/Code/stm32/lib/tinyusb/src/tusb.c ****   return false;
 278:/Users/joostbooy/Desktop/Code/stm32/lib/tinyusb/src/tusb.c **** }
 279:/Users/joostbooy/Desktop/Code/stm32/lib/tinyusb/src/tusb.c **** 
 280:/Users/joostbooy/Desktop/Code/stm32/lib/tinyusb/src/tusb.c **** TU_ATTR_ALWAYS_INLINE static inline
 281:/Users/joostbooy/Desktop/Code/stm32/lib/tinyusb/src/tusb.c **** bool stream_xfer(tu_edpt_stream_t* s, uint16_t count)
 282:/Users/joostbooy/Desktop/Code/stm32/lib/tinyusb/src/tusb.c **** {
 283:/Users/joostbooy/Desktop/Code/stm32/lib/tinyusb/src/tusb.c ****   if (s->is_host)
 284:/Users/joostbooy/Desktop/Code/stm32/lib/tinyusb/src/tusb.c ****   {
 285:/Users/joostbooy/Desktop/Code/stm32/lib/tinyusb/src/tusb.c ****     #if CFG_TUH_ENABLED
 286:/Users/joostbooy/Desktop/Code/stm32/lib/tinyusb/src/tusb.c ****     return usbh_edpt_xfer(s->daddr, s->ep_addr, count ? s->ep_buf : NULL, count);
 287:/Users/joostbooy/Desktop/Code/stm32/lib/tinyusb/src/tusb.c ****     #endif
 288:/Users/joostbooy/Desktop/Code/stm32/lib/tinyusb/src/tusb.c ****   }else
 289:/Users/joostbooy/Desktop/Code/stm32/lib/tinyusb/src/tusb.c ****   {
 290:/Users/joostbooy/Desktop/Code/stm32/lib/tinyusb/src/tusb.c ****     #if CFG_TUD_ENABLED
 291:/Users/joostbooy/Desktop/Code/stm32/lib/tinyusb/src/tusb.c ****     return usbd_edpt_xfer(s->rhport, s->ep_addr, count ? s->ep_buf : NULL, count);
 292:/Users/joostbooy/Desktop/Code/stm32/lib/tinyusb/src/tusb.c ****     #endif
 293:/Users/joostbooy/Desktop/Code/stm32/lib/tinyusb/src/tusb.c ****   }
 294:/Users/joostbooy/Desktop/Code/stm32/lib/tinyusb/src/tusb.c **** 
 295:/Users/joostbooy/Desktop/Code/stm32/lib/tinyusb/src/tusb.c ****   return false;
 296:/Users/joostbooy/Desktop/Code/stm32/lib/tinyusb/src/tusb.c **** }
ARM GAS  /var/folders/84/_x1cyy_j36g486tldtwl37280000gn/T//cc1u9wTp.s 			page 34


 297:/Users/joostbooy/Desktop/Code/stm32/lib/tinyusb/src/tusb.c **** 
 298:/Users/joostbooy/Desktop/Code/stm32/lib/tinyusb/src/tusb.c **** TU_ATTR_ALWAYS_INLINE static inline
 299:/Users/joostbooy/Desktop/Code/stm32/lib/tinyusb/src/tusb.c **** bool stream_release(tu_edpt_stream_t* s)
 300:/Users/joostbooy/Desktop/Code/stm32/lib/tinyusb/src/tusb.c **** {
 301:/Users/joostbooy/Desktop/Code/stm32/lib/tinyusb/src/tusb.c ****   if (s->is_host)
 302:/Users/joostbooy/Desktop/Code/stm32/lib/tinyusb/src/tusb.c ****   {
 303:/Users/joostbooy/Desktop/Code/stm32/lib/tinyusb/src/tusb.c ****     #if CFG_TUH_ENABLED
 304:/Users/joostbooy/Desktop/Code/stm32/lib/tinyusb/src/tusb.c ****     return usbh_edpt_release(s->daddr, s->ep_addr);
 305:/Users/joostbooy/Desktop/Code/stm32/lib/tinyusb/src/tusb.c ****     #endif
 306:/Users/joostbooy/Desktop/Code/stm32/lib/tinyusb/src/tusb.c ****   }else
 307:/Users/joostbooy/Desktop/Code/stm32/lib/tinyusb/src/tusb.c ****   {
 308:/Users/joostbooy/Desktop/Code/stm32/lib/tinyusb/src/tusb.c ****     #if CFG_TUD_ENABLED
 309:/Users/joostbooy/Desktop/Code/stm32/lib/tinyusb/src/tusb.c ****     return usbd_edpt_release(s->rhport, s->ep_addr);
 310:/Users/joostbooy/Desktop/Code/stm32/lib/tinyusb/src/tusb.c ****     #endif
 311:/Users/joostbooy/Desktop/Code/stm32/lib/tinyusb/src/tusb.c ****   }
 312:/Users/joostbooy/Desktop/Code/stm32/lib/tinyusb/src/tusb.c **** 
 313:/Users/joostbooy/Desktop/Code/stm32/lib/tinyusb/src/tusb.c ****   return false;
 314:/Users/joostbooy/Desktop/Code/stm32/lib/tinyusb/src/tusb.c **** }
 315:/Users/joostbooy/Desktop/Code/stm32/lib/tinyusb/src/tusb.c **** 
 316:/Users/joostbooy/Desktop/Code/stm32/lib/tinyusb/src/tusb.c **** //--------------------------------------------------------------------+
 317:/Users/joostbooy/Desktop/Code/stm32/lib/tinyusb/src/tusb.c **** // Stream Write
 318:/Users/joostbooy/Desktop/Code/stm32/lib/tinyusb/src/tusb.c **** //--------------------------------------------------------------------+
 319:/Users/joostbooy/Desktop/Code/stm32/lib/tinyusb/src/tusb.c **** 
 320:/Users/joostbooy/Desktop/Code/stm32/lib/tinyusb/src/tusb.c **** bool tu_edpt_stream_write_zlp_if_needed(tu_edpt_stream_t* s, uint32_t last_xferred_bytes)
 321:/Users/joostbooy/Desktop/Code/stm32/lib/tinyusb/src/tusb.c **** {
 930              		.loc 1 321 1 is_stmt 1 view -0
 931              		.cfi_startproc
 932              		@ args = 0, pretend = 0, frame = 0
 933              		@ frame_needed = 0, uses_anonymous_args = 0
 322:/Users/joostbooy/Desktop/Code/stm32/lib/tinyusb/src/tusb.c ****   // ZLP condition: no pending data, last transferred bytes is multiple of packet size
 323:/Users/joostbooy/Desktop/Code/stm32/lib/tinyusb/src/tusb.c ****   TU_VERIFY( !tu_fifo_count(&s->ff) && last_xferred_bytes && (0 == (last_xferred_bytes & (s->ep_pac
 934              		.loc 1 323 3 view .LVU255
 935              		.loc 1 323 3 view .LVU256
 321:/Users/joostbooy/Desktop/Code/stm32/lib/tinyusb/src/tusb.c ****   // ZLP condition: no pending data, last transferred bytes is multiple of packet size
 936              		.loc 1 321 1 is_stmt 0 view .LVU257
 937 0000 38B5     		push	{r3, r4, r5, lr}
 938              		.cfi_def_cfa_offset 16
 939              		.cfi_offset 3, -16
 940              		.cfi_offset 4, -12
 941              		.cfi_offset 5, -8
 942              		.cfi_offset 14, -4
 321:/Users/joostbooy/Desktop/Code/stm32/lib/tinyusb/src/tusb.c ****   // ZLP condition: no pending data, last transferred bytes is multiple of packet size
 943              		.loc 1 321 1 view .LVU258
 944 0002 0446     		mov	r4, r0
 945              		.loc 1 323 3 view .LVU259
 946 0004 0C30     		adds	r0, r0, #12
 947              	.LVL69:
 321:/Users/joostbooy/Desktop/Code/stm32/lib/tinyusb/src/tusb.c ****   // ZLP condition: no pending data, last transferred bytes is multiple of packet size
 948              		.loc 1 321 1 view .LVU260
 949 0006 0D46     		mov	r5, r1
 950              		.loc 1 323 3 view .LVU261
 951 0008 FFF7FEFF 		bl	tu_fifo_count
 952              	.LVL70:
 953              		.loc 1 323 3 view .LVU262
 954 000c 30B9     		cbnz	r0, .L113
 955              		.loc 1 323 3 discriminator 2 view .LVU263
 956 000e 2DB1     		cbz	r5, .L113
ARM GAS  /var/folders/84/_x1cyy_j36g486tldtwl37280000gn/T//cc1u9wTp.s 			page 35


 957              		.loc 1 323 3 discriminator 4 view .LVU264
 958 0010 A388     		ldrh	r3, [r4, #4]
 959 0012 581E     		subs	r0, r3, #1
 960 0014 2842     		tst	r0, r5
 961 0016 01D1     		bne	.L113
 962              		.loc 1 323 3 is_stmt 1 view .LVU265
 324:/Users/joostbooy/Desktop/Code/stm32/lib/tinyusb/src/tusb.c **** 
 325:/Users/joostbooy/Desktop/Code/stm32/lib/tinyusb/src/tusb.c ****   TU_VERIFY( stream_claim(s) );
 963              		.loc 1 325 3 view .LVU266
 964              		.loc 1 325 3 view .LVU267
 965              	.LVL71:
 966              	.LBB95:
 967              	.LBI95:
 263:/Users/joostbooy/Desktop/Code/stm32/lib/tinyusb/src/tusb.c **** {
 968              		.loc 1 263 6 view .LVU268
 969              	.LBB96:
 265:/Users/joostbooy/Desktop/Code/stm32/lib/tinyusb/src/tusb.c ****   {
 970              		.loc 1 265 3 view .LVU269
 265:/Users/joostbooy/Desktop/Code/stm32/lib/tinyusb/src/tusb.c ****   {
 971              		.loc 1 265 8 is_stmt 0 view .LVU270
 972 0018 2178     		ldrb	r1, [r4]	@ zero_extendqisi2
 265:/Users/joostbooy/Desktop/Code/stm32/lib/tinyusb/src/tusb.c ****   {
 973              		.loc 1 265 6 view .LVU271
 974 001a 09B1     		cbz	r1, .L115
 975              	.LVL72:
 976              	.L113:
 265:/Users/joostbooy/Desktop/Code/stm32/lib/tinyusb/src/tusb.c ****   {
 977              		.loc 1 265 6 view .LVU272
 978              	.LBE96:
 979              	.LBE95:
 326:/Users/joostbooy/Desktop/Code/stm32/lib/tinyusb/src/tusb.c ****   TU_ASSERT( stream_xfer(s, 0) );
 980              		.loc 1 326 3 discriminator 3 view .LVU273
 981 001c 0020     		movs	r0, #0
 327:/Users/joostbooy/Desktop/Code/stm32/lib/tinyusb/src/tusb.c **** 
 328:/Users/joostbooy/Desktop/Code/stm32/lib/tinyusb/src/tusb.c ****   return true;
 329:/Users/joostbooy/Desktop/Code/stm32/lib/tinyusb/src/tusb.c **** }
 982              		.loc 1 329 1 discriminator 3 view .LVU274
 983 001e 38BD     		pop	{r3, r4, r5, pc}
 984              	.LVL73:
 985              	.L115:
 986              	.LBB98:
 987              	.LBB97:
 273:/Users/joostbooy/Desktop/Code/stm32/lib/tinyusb/src/tusb.c ****     #endif
 988              		.loc 1 273 5 is_stmt 1 view .LVU275
 273:/Users/joostbooy/Desktop/Code/stm32/lib/tinyusb/src/tusb.c ****     #endif
 989              		.loc 1 273 12 is_stmt 0 view .LVU276
 990 0020 A178     		ldrb	r1, [r4, #2]	@ zero_extendqisi2
 991 0022 6078     		ldrb	r0, [r4, #1]	@ zero_extendqisi2
 992 0024 FFF7FEFF 		bl	usbd_edpt_claim
 993              	.LVL74:
 273:/Users/joostbooy/Desktop/Code/stm32/lib/tinyusb/src/tusb.c ****     #endif
 994              		.loc 1 273 12 view .LVU277
 995              	.LBE97:
 996              	.LBE98:
 325:/Users/joostbooy/Desktop/Code/stm32/lib/tinyusb/src/tusb.c ****   TU_ASSERT( stream_xfer(s, 0) );
 997              		.loc 1 325 3 view .LVU278
 998 0028 0028     		cmp	r0, #0
ARM GAS  /var/folders/84/_x1cyy_j36g486tldtwl37280000gn/T//cc1u9wTp.s 			page 36


 999 002a F7D0     		beq	.L113
 325:/Users/joostbooy/Desktop/Code/stm32/lib/tinyusb/src/tusb.c ****   TU_ASSERT( stream_xfer(s, 0) );
 1000              		.loc 1 325 3 is_stmt 1 view .LVU279
 326:/Users/joostbooy/Desktop/Code/stm32/lib/tinyusb/src/tusb.c **** 
 1001              		.loc 1 326 3 view .LVU280
 326:/Users/joostbooy/Desktop/Code/stm32/lib/tinyusb/src/tusb.c **** 
 1002              		.loc 1 326 3 view .LVU281
 1003              	.LVL75:
 1004              	.LBB99:
 1005              	.LBI99:
 281:/Users/joostbooy/Desktop/Code/stm32/lib/tinyusb/src/tusb.c **** {
 1006              		.loc 1 281 6 view .LVU282
 1007              	.LBB100:
 283:/Users/joostbooy/Desktop/Code/stm32/lib/tinyusb/src/tusb.c ****   {
 1008              		.loc 1 283 3 view .LVU283
 283:/Users/joostbooy/Desktop/Code/stm32/lib/tinyusb/src/tusb.c ****   {
 1009              		.loc 1 283 6 is_stmt 0 view .LVU284
 1010 002c 2378     		ldrb	r3, [r4]	@ zero_extendqisi2
 1011 002e 2BB1     		cbz	r3, .L103
 1012              	.LVL76:
 1013              	.L105:
 283:/Users/joostbooy/Desktop/Code/stm32/lib/tinyusb/src/tusb.c ****   {
 1014              		.loc 1 283 6 view .LVU285
 1015              	.LBE100:
 1016              	.LBE99:
 326:/Users/joostbooy/Desktop/Code/stm32/lib/tinyusb/src/tusb.c **** 
 1017              		.loc 1 326 3 is_stmt 1 view .LVU286
 326:/Users/joostbooy/Desktop/Code/stm32/lib/tinyusb/src/tusb.c **** 
 1018              		.loc 1 326 3 view .LVU287
 326:/Users/joostbooy/Desktop/Code/stm32/lib/tinyusb/src/tusb.c **** 
 1019              		.loc 1 326 3 view .LVU288
 326:/Users/joostbooy/Desktop/Code/stm32/lib/tinyusb/src/tusb.c **** 
 1020              		.loc 1 326 3 view .LVU289
 1021              	.LBB102:
 326:/Users/joostbooy/Desktop/Code/stm32/lib/tinyusb/src/tusb.c **** 
 1022              		.loc 1 326 3 view .LVU290
 326:/Users/joostbooy/Desktop/Code/stm32/lib/tinyusb/src/tusb.c **** 
 1023              		.loc 1 326 3 view .LVU291
 1024 0030 064A     		ldr	r2, .L116
 1025 0032 1468     		ldr	r4, [r2]
 1026              	.LVL77:
 326:/Users/joostbooy/Desktop/Code/stm32/lib/tinyusb/src/tusb.c **** 
 1027              		.loc 1 326 3 is_stmt 0 view .LVU292
 1028 0034 E307     		lsls	r3, r4, #31
 1029 0036 F1D5     		bpl	.L113
 326:/Users/joostbooy/Desktop/Code/stm32/lib/tinyusb/src/tusb.c **** 
 1030              		.loc 1 326 3 is_stmt 1 discriminator 3 view .LVU293
 1031              		.syntax unified
 1032              	@ 326 "/Users/joostbooy/Desktop/Code/stm32/lib/tinyusb/src/tusb.c" 1
 1033 0038 00BE     		BKPT #0
 1034              	
 1035              	@ 0 "" 2
 1036              		.thumb
 1037              		.syntax unified
 1038 003a EFE7     		b	.L113
 1039              	.LVL78:
 1040              	.L103:
ARM GAS  /var/folders/84/_x1cyy_j36g486tldtwl37280000gn/T//cc1u9wTp.s 			page 37


 326:/Users/joostbooy/Desktop/Code/stm32/lib/tinyusb/src/tusb.c **** 
 1041              		.loc 1 326 3 is_stmt 0 discriminator 3 view .LVU294
 1042              	.LBE102:
 1043              	.LBB103:
 1044              	.LBB101:
 291:/Users/joostbooy/Desktop/Code/stm32/lib/tinyusb/src/tusb.c ****     #endif
 1045              		.loc 1 291 5 is_stmt 1 view .LVU295
 291:/Users/joostbooy/Desktop/Code/stm32/lib/tinyusb/src/tusb.c ****     #endif
 1046              		.loc 1 291 12 is_stmt 0 view .LVU296
 1047 003c A178     		ldrb	r1, [r4, #2]	@ zero_extendqisi2
 1048 003e 6078     		ldrb	r0, [r4, #1]	@ zero_extendqisi2
 1049 0040 1A46     		mov	r2, r3
 1050 0042 FFF7FEFF 		bl	usbd_edpt_xfer
 1051              	.LVL79:
 291:/Users/joostbooy/Desktop/Code/stm32/lib/tinyusb/src/tusb.c ****     #endif
 1052              		.loc 1 291 12 view .LVU297
 1053              	.LBE101:
 1054              	.LBE103:
 326:/Users/joostbooy/Desktop/Code/stm32/lib/tinyusb/src/tusb.c **** 
 1055              		.loc 1 326 3 view .LVU298
 1056 0046 0028     		cmp	r0, #0
 1057 0048 F2D0     		beq	.L105
 1058              		.loc 1 329 1 view .LVU299
 1059 004a 38BD     		pop	{r3, r4, r5, pc}
 1060              	.LVL80:
 1061              	.L117:
 1062              		.loc 1 329 1 view .LVU300
 1063              		.align	2
 1064              	.L116:
 1065 004c F0ED00E0 		.word	-536810000
 1066              		.cfi_endproc
 1067              	.LFE93:
 1069              		.section	.text.tu_edpt_stream_write_xfer,"ax",%progbits
 1070              		.align	1
 1071              		.p2align 2,,3
 1072              		.global	tu_edpt_stream_write_xfer
 1073              		.syntax unified
 1074              		.thumb
 1075              		.thumb_func
 1076              		.fpu fpv4-sp-d16
 1078              	tu_edpt_stream_write_xfer:
 1079              	.LVL81:
 1080              	.LFB94:
 330:/Users/joostbooy/Desktop/Code/stm32/lib/tinyusb/src/tusb.c **** 
 331:/Users/joostbooy/Desktop/Code/stm32/lib/tinyusb/src/tusb.c **** uint32_t tu_edpt_stream_write_xfer(tu_edpt_stream_t* s)
 332:/Users/joostbooy/Desktop/Code/stm32/lib/tinyusb/src/tusb.c **** {
 1081              		.loc 1 332 1 is_stmt 1 view -0
 1082              		.cfi_startproc
 1083              		@ args = 0, pretend = 0, frame = 0
 1084              		@ frame_needed = 0, uses_anonymous_args = 0
 333:/Users/joostbooy/Desktop/Code/stm32/lib/tinyusb/src/tusb.c ****   // skip if no data
 334:/Users/joostbooy/Desktop/Code/stm32/lib/tinyusb/src/tusb.c ****   TU_VERIFY( tu_fifo_count(&s->ff), 0 );
 1085              		.loc 1 334 3 view .LVU302
 1086              		.loc 1 334 3 view .LVU303
 332:/Users/joostbooy/Desktop/Code/stm32/lib/tinyusb/src/tusb.c ****   // skip if no data
 1087              		.loc 1 332 1 is_stmt 0 view .LVU304
 1088 0000 38B5     		push	{r3, r4, r5, lr}
ARM GAS  /var/folders/84/_x1cyy_j36g486tldtwl37280000gn/T//cc1u9wTp.s 			page 38


 1089              		.cfi_def_cfa_offset 16
 1090              		.cfi_offset 3, -16
 1091              		.cfi_offset 4, -12
 1092              		.cfi_offset 5, -8
 1093              		.cfi_offset 14, -4
 1094              		.loc 1 334 3 view .LVU305
 1095 0002 00F10C05 		add	r5, r0, #12
 332:/Users/joostbooy/Desktop/Code/stm32/lib/tinyusb/src/tusb.c ****   // skip if no data
 1096              		.loc 1 332 1 view .LVU306
 1097 0006 0446     		mov	r4, r0
 1098              		.loc 1 334 3 view .LVU307
 1099 0008 2846     		mov	r0, r5
 1100              	.LVL82:
 1101              		.loc 1 334 3 view .LVU308
 1102 000a FFF7FEFF 		bl	tu_fifo_count
 1103              	.LVL83:
 1104 000e 08B1     		cbz	r0, .L131
 1105              		.loc 1 334 3 is_stmt 1 view .LVU309
 335:/Users/joostbooy/Desktop/Code/stm32/lib/tinyusb/src/tusb.c **** 
 336:/Users/joostbooy/Desktop/Code/stm32/lib/tinyusb/src/tusb.c ****   // Claim the endpoint
 337:/Users/joostbooy/Desktop/Code/stm32/lib/tinyusb/src/tusb.c ****   TU_VERIFY( stream_claim(s), 0 );
 1106              		.loc 1 337 3 view .LVU310
 1107              		.loc 1 337 3 view .LVU311
 1108              	.LVL84:
 1109              	.LBB104:
 1110              	.LBI104:
 263:/Users/joostbooy/Desktop/Code/stm32/lib/tinyusb/src/tusb.c **** {
 1111              		.loc 1 263 6 view .LVU312
 1112              	.LBB105:
 265:/Users/joostbooy/Desktop/Code/stm32/lib/tinyusb/src/tusb.c ****   {
 1113              		.loc 1 265 3 view .LVU313
 265:/Users/joostbooy/Desktop/Code/stm32/lib/tinyusb/src/tusb.c ****   {
 1114              		.loc 1 265 6 is_stmt 0 view .LVU314
 1115 0010 2378     		ldrb	r3, [r4]	@ zero_extendqisi2
 1116 0012 0BB1     		cbz	r3, .L134
 1117              	.LVL85:
 1118              	.L131:
 265:/Users/joostbooy/Desktop/Code/stm32/lib/tinyusb/src/tusb.c ****   {
 1119              		.loc 1 265 6 view .LVU315
 1120              	.LBE105:
 1121              	.LBE104:
 338:/Users/joostbooy/Desktop/Code/stm32/lib/tinyusb/src/tusb.c **** 
 339:/Users/joostbooy/Desktop/Code/stm32/lib/tinyusb/src/tusb.c ****   // Pull data from FIFO -> EP buf
 340:/Users/joostbooy/Desktop/Code/stm32/lib/tinyusb/src/tusb.c ****   uint16_t const count = tu_fifo_read_n(&s->ff, s->ep_buf, s->ep_bufsize);
 341:/Users/joostbooy/Desktop/Code/stm32/lib/tinyusb/src/tusb.c **** 
 342:/Users/joostbooy/Desktop/Code/stm32/lib/tinyusb/src/tusb.c ****   if ( count )
 343:/Users/joostbooy/Desktop/Code/stm32/lib/tinyusb/src/tusb.c ****   {
 344:/Users/joostbooy/Desktop/Code/stm32/lib/tinyusb/src/tusb.c ****     TU_ASSERT( stream_xfer(s, count), 0 );
 1122              		.loc 1 344 5 discriminator 3 view .LVU316
 1123 0014 0020     		movs	r0, #0
 345:/Users/joostbooy/Desktop/Code/stm32/lib/tinyusb/src/tusb.c ****     return count;
 346:/Users/joostbooy/Desktop/Code/stm32/lib/tinyusb/src/tusb.c ****   }else
 347:/Users/joostbooy/Desktop/Code/stm32/lib/tinyusb/src/tusb.c ****   {
 348:/Users/joostbooy/Desktop/Code/stm32/lib/tinyusb/src/tusb.c ****     // Release endpoint since we don't make any transfer
 349:/Users/joostbooy/Desktop/Code/stm32/lib/tinyusb/src/tusb.c ****     // Note: data is dropped if terminal is not connected
 350:/Users/joostbooy/Desktop/Code/stm32/lib/tinyusb/src/tusb.c ****     stream_release(s);
 351:/Users/joostbooy/Desktop/Code/stm32/lib/tinyusb/src/tusb.c ****     return 0;
ARM GAS  /var/folders/84/_x1cyy_j36g486tldtwl37280000gn/T//cc1u9wTp.s 			page 39


 352:/Users/joostbooy/Desktop/Code/stm32/lib/tinyusb/src/tusb.c ****   }
 353:/Users/joostbooy/Desktop/Code/stm32/lib/tinyusb/src/tusb.c **** }
 1124              		.loc 1 353 1 discriminator 3 view .LVU317
 1125 0016 38BD     		pop	{r3, r4, r5, pc}
 1126              	.LVL86:
 1127              	.L134:
 1128              	.LBB107:
 1129              	.LBB106:
 273:/Users/joostbooy/Desktop/Code/stm32/lib/tinyusb/src/tusb.c ****     #endif
 1130              		.loc 1 273 5 is_stmt 1 view .LVU318
 273:/Users/joostbooy/Desktop/Code/stm32/lib/tinyusb/src/tusb.c ****     #endif
 1131              		.loc 1 273 12 is_stmt 0 view .LVU319
 1132 0018 A178     		ldrb	r1, [r4, #2]	@ zero_extendqisi2
 1133 001a 6078     		ldrb	r0, [r4, #1]	@ zero_extendqisi2
 1134 001c FFF7FEFF 		bl	usbd_edpt_claim
 1135              	.LVL87:
 273:/Users/joostbooy/Desktop/Code/stm32/lib/tinyusb/src/tusb.c ****     #endif
 1136              		.loc 1 273 12 view .LVU320
 1137              	.LBE106:
 1138              	.LBE107:
 337:/Users/joostbooy/Desktop/Code/stm32/lib/tinyusb/src/tusb.c **** 
 1139              		.loc 1 337 3 view .LVU321
 1140 0020 0028     		cmp	r0, #0
 1141 0022 F7D0     		beq	.L131
 337:/Users/joostbooy/Desktop/Code/stm32/lib/tinyusb/src/tusb.c **** 
 1142              		.loc 1 337 3 is_stmt 1 discriminator 2 view .LVU322
 340:/Users/joostbooy/Desktop/Code/stm32/lib/tinyusb/src/tusb.c **** 
 1143              		.loc 1 340 3 discriminator 2 view .LVU323
 340:/Users/joostbooy/Desktop/Code/stm32/lib/tinyusb/src/tusb.c **** 
 1144              		.loc 1 340 26 is_stmt 0 discriminator 2 view .LVU324
 1145 0024 2846     		mov	r0, r5
 1146 0026 E288     		ldrh	r2, [r4, #6]
 1147 0028 A168     		ldr	r1, [r4, #8]
 1148 002a FFF7FEFF 		bl	tu_fifo_read_n
 1149              	.LVL88:
 342:/Users/joostbooy/Desktop/Code/stm32/lib/tinyusb/src/tusb.c ****   {
 1150              		.loc 1 342 3 is_stmt 1 discriminator 2 view .LVU325
 342:/Users/joostbooy/Desktop/Code/stm32/lib/tinyusb/src/tusb.c ****   {
 1151              		.loc 1 342 6 is_stmt 0 discriminator 2 view .LVU326
 1152 002e 0546     		mov	r5, r0
 1153 0030 38B1     		cbz	r0, .L122
 344:/Users/joostbooy/Desktop/Code/stm32/lib/tinyusb/src/tusb.c ****     return count;
 1154              		.loc 1 344 5 is_stmt 1 view .LVU327
 344:/Users/joostbooy/Desktop/Code/stm32/lib/tinyusb/src/tusb.c ****     return count;
 1155              		.loc 1 344 5 view .LVU328
 1156              	.LVL89:
 1157              	.LBB108:
 1158              	.LBI108:
 281:/Users/joostbooy/Desktop/Code/stm32/lib/tinyusb/src/tusb.c **** {
 1159              		.loc 1 281 6 view .LVU329
 1160              	.LBB109:
 283:/Users/joostbooy/Desktop/Code/stm32/lib/tinyusb/src/tusb.c ****   {
 1161              		.loc 1 283 3 view .LVU330
 283:/Users/joostbooy/Desktop/Code/stm32/lib/tinyusb/src/tusb.c ****   {
 1162              		.loc 1 283 6 is_stmt 0 view .LVU331
 1163 0032 2078     		ldrb	r0, [r4]	@ zero_extendqisi2
 1164              	.LVL90:
ARM GAS  /var/folders/84/_x1cyy_j36g486tldtwl37280000gn/T//cc1u9wTp.s 			page 40


 283:/Users/joostbooy/Desktop/Code/stm32/lib/tinyusb/src/tusb.c ****   {
 1165              		.loc 1 283 6 view .LVU332
 1166 0034 70B1     		cbz	r0, .L123
 1167              	.LVL91:
 1168              	.L126:
 283:/Users/joostbooy/Desktop/Code/stm32/lib/tinyusb/src/tusb.c ****   {
 1169              		.loc 1 283 6 view .LVU333
 1170              	.LBE109:
 1171              	.LBE108:
 344:/Users/joostbooy/Desktop/Code/stm32/lib/tinyusb/src/tusb.c ****     return count;
 1172              		.loc 1 344 5 is_stmt 1 view .LVU334
 344:/Users/joostbooy/Desktop/Code/stm32/lib/tinyusb/src/tusb.c ****     return count;
 1173              		.loc 1 344 5 view .LVU335
 344:/Users/joostbooy/Desktop/Code/stm32/lib/tinyusb/src/tusb.c ****     return count;
 1174              		.loc 1 344 5 view .LVU336
 344:/Users/joostbooy/Desktop/Code/stm32/lib/tinyusb/src/tusb.c ****     return count;
 1175              		.loc 1 344 5 view .LVU337
 1176              	.LBB111:
 344:/Users/joostbooy/Desktop/Code/stm32/lib/tinyusb/src/tusb.c ****     return count;
 1177              		.loc 1 344 5 view .LVU338
 344:/Users/joostbooy/Desktop/Code/stm32/lib/tinyusb/src/tusb.c ****     return count;
 1178              		.loc 1 344 5 view .LVU339
 1179 0036 0C49     		ldr	r1, .L136
 1180 0038 0A68     		ldr	r2, [r1]
 1181 003a D307     		lsls	r3, r2, #31
 1182 003c EAD5     		bpl	.L131
 344:/Users/joostbooy/Desktop/Code/stm32/lib/tinyusb/src/tusb.c ****     return count;
 1183              		.loc 1 344 5 discriminator 3 view .LVU340
 1184              		.syntax unified
 1185              	@ 344 "/Users/joostbooy/Desktop/Code/stm32/lib/tinyusb/src/tusb.c" 1
 1186 003e 00BE     		BKPT #0
 1187              	
 1188              	@ 0 "" 2
 1189              		.thumb
 1190              		.syntax unified
 1191 0040 E8E7     		b	.L131
 1192              	.LVL92:
 1193              	.L122:
 344:/Users/joostbooy/Desktop/Code/stm32/lib/tinyusb/src/tusb.c ****     return count;
 1194              		.loc 1 344 5 is_stmt 0 discriminator 3 view .LVU341
 1195              	.LBE111:
 350:/Users/joostbooy/Desktop/Code/stm32/lib/tinyusb/src/tusb.c ****     return 0;
 1196              		.loc 1 350 5 is_stmt 1 view .LVU342
 1197              	.LBB112:
 1198              	.LBI112:
 299:/Users/joostbooy/Desktop/Code/stm32/lib/tinyusb/src/tusb.c **** {
 1199              		.loc 1 299 6 view .LVU343
 1200              	.LBB113:
 301:/Users/joostbooy/Desktop/Code/stm32/lib/tinyusb/src/tusb.c ****   {
 1201              		.loc 1 301 3 view .LVU344
 301:/Users/joostbooy/Desktop/Code/stm32/lib/tinyusb/src/tusb.c ****   {
 1202              		.loc 1 301 6 is_stmt 0 view .LVU345
 1203 0042 2578     		ldrb	r5, [r4]	@ zero_extendqisi2
 1204 0044 002D     		cmp	r5, #0
 1205 0046 E5D1     		bne	.L131
 309:/Users/joostbooy/Desktop/Code/stm32/lib/tinyusb/src/tusb.c ****     #endif
 1206              		.loc 1 309 5 is_stmt 1 view .LVU346
ARM GAS  /var/folders/84/_x1cyy_j36g486tldtwl37280000gn/T//cc1u9wTp.s 			page 41


 309:/Users/joostbooy/Desktop/Code/stm32/lib/tinyusb/src/tusb.c ****     #endif
 1207              		.loc 1 309 12 is_stmt 0 view .LVU347
 1208 0048 A178     		ldrb	r1, [r4, #2]	@ zero_extendqisi2
 1209 004a 6078     		ldrb	r0, [r4, #1]	@ zero_extendqisi2
 1210              	.LVL93:
 309:/Users/joostbooy/Desktop/Code/stm32/lib/tinyusb/src/tusb.c ****     #endif
 1211              		.loc 1 309 12 view .LVU348
 1212 004c FFF7FEFF 		bl	usbd_edpt_release
 1213              	.LVL94:
 1214              	.LBE113:
 1215              	.LBE112:
 351:/Users/joostbooy/Desktop/Code/stm32/lib/tinyusb/src/tusb.c ****   }
 1216              		.loc 1 351 12 view .LVU349
 1217 0050 2846     		mov	r0, r5
 1218              	.LVL95:
 1219              	.L135:
 1220              		.loc 1 353 1 view .LVU350
 1221 0052 38BD     		pop	{r3, r4, r5, pc}
 1222              	.LVL96:
 1223              	.L123:
 1224              	.LBB114:
 1225              	.LBB110:
 291:/Users/joostbooy/Desktop/Code/stm32/lib/tinyusb/src/tusb.c ****     #endif
 1226              		.loc 1 291 5 is_stmt 1 view .LVU351
 291:/Users/joostbooy/Desktop/Code/stm32/lib/tinyusb/src/tusb.c ****     #endif
 1227              		.loc 1 291 12 is_stmt 0 view .LVU352
 1228 0054 A268     		ldr	r2, [r4, #8]
 1229 0056 A178     		ldrb	r1, [r4, #2]	@ zero_extendqisi2
 1230 0058 6078     		ldrb	r0, [r4, #1]	@ zero_extendqisi2
 1231 005a 2B46     		mov	r3, r5
 1232 005c FFF7FEFF 		bl	usbd_edpt_xfer
 1233              	.LVL97:
 291:/Users/joostbooy/Desktop/Code/stm32/lib/tinyusb/src/tusb.c ****     #endif
 1234              		.loc 1 291 12 view .LVU353
 1235              	.LBE110:
 1236              	.LBE114:
 344:/Users/joostbooy/Desktop/Code/stm32/lib/tinyusb/src/tusb.c ****     return count;
 1237              		.loc 1 344 5 view .LVU354
 1238 0060 0028     		cmp	r0, #0
 1239 0062 E8D0     		beq	.L126
 351:/Users/joostbooy/Desktop/Code/stm32/lib/tinyusb/src/tusb.c ****   }
 1240              		.loc 1 351 12 view .LVU355
 1241 0064 2846     		mov	r0, r5
 1242 0066 F4E7     		b	.L135
 1243              	.L137:
 1244              		.align	2
 1245              	.L136:
 1246 0068 F0ED00E0 		.word	-536810000
 1247              		.cfi_endproc
 1248              	.LFE94:
 1250              		.section	.text.tu_edpt_stream_write,"ax",%progbits
 1251              		.align	1
 1252              		.p2align 2,,3
 1253              		.global	tu_edpt_stream_write
 1254              		.syntax unified
 1255              		.thumb
 1256              		.thumb_func
ARM GAS  /var/folders/84/_x1cyy_j36g486tldtwl37280000gn/T//cc1u9wTp.s 			page 42


 1257              		.fpu fpv4-sp-d16
 1259              	tu_edpt_stream_write:
 1260              	.LVL98:
 1261              	.LFB95:
 354:/Users/joostbooy/Desktop/Code/stm32/lib/tinyusb/src/tusb.c **** 
 355:/Users/joostbooy/Desktop/Code/stm32/lib/tinyusb/src/tusb.c **** uint32_t tu_edpt_stream_write(tu_edpt_stream_t* s, void const *buffer, uint32_t bufsize)
 356:/Users/joostbooy/Desktop/Code/stm32/lib/tinyusb/src/tusb.c **** {
 1262              		.loc 1 356 1 is_stmt 1 view -0
 1263              		.cfi_startproc
 1264              		@ args = 0, pretend = 0, frame = 0
 1265              		@ frame_needed = 0, uses_anonymous_args = 0
 357:/Users/joostbooy/Desktop/Code/stm32/lib/tinyusb/src/tusb.c ****   TU_VERIFY(bufsize); // TODO support ZLP
 1266              		.loc 1 357 3 view .LVU357
 1267              		.loc 1 357 3 view .LVU358
 356:/Users/joostbooy/Desktop/Code/stm32/lib/tinyusb/src/tusb.c ****   TU_VERIFY(bufsize); // TODO support ZLP
 1268              		.loc 1 356 1 is_stmt 0 view .LVU359
 1269 0000 38B5     		push	{r3, r4, r5, lr}
 1270              		.cfi_def_cfa_offset 16
 1271              		.cfi_offset 3, -16
 1272              		.cfi_offset 4, -12
 1273              		.cfi_offset 5, -8
 1274              		.cfi_offset 14, -4
 356:/Users/joostbooy/Desktop/Code/stm32/lib/tinyusb/src/tusb.c ****   TU_VERIFY(bufsize); // TODO support ZLP
 1275              		.loc 1 356 1 view .LVU360
 1276 0002 0546     		mov	r5, r0
 1277              		.loc 1 357 3 view .LVU361
 1278 0004 1046     		mov	r0, r2
 1279              	.LVL99:
 1280              		.loc 1 357 3 view .LVU362
 1281 0006 02B9     		cbnz	r2, .L146
 358:/Users/joostbooy/Desktop/Code/stm32/lib/tinyusb/src/tusb.c **** 
 359:/Users/joostbooy/Desktop/Code/stm32/lib/tinyusb/src/tusb.c ****   uint16_t ret = tu_fifo_write_n(&s->ff, buffer, (uint16_t) bufsize);
 360:/Users/joostbooy/Desktop/Code/stm32/lib/tinyusb/src/tusb.c **** 
 361:/Users/joostbooy/Desktop/Code/stm32/lib/tinyusb/src/tusb.c ****   // flush if fifo has more than packet size or
 362:/Users/joostbooy/Desktop/Code/stm32/lib/tinyusb/src/tusb.c ****   // in rare case: fifo depth is configured too small (which never reach packet size)
 363:/Users/joostbooy/Desktop/Code/stm32/lib/tinyusb/src/tusb.c ****   if ( (tu_fifo_count(&s->ff) >= s->ep_packetsize) || (tu_fifo_depth(&s->ff) < s->ep_packetsize) )
 364:/Users/joostbooy/Desktop/Code/stm32/lib/tinyusb/src/tusb.c ****   {
 365:/Users/joostbooy/Desktop/Code/stm32/lib/tinyusb/src/tusb.c ****     tu_edpt_stream_write_xfer(s);
 366:/Users/joostbooy/Desktop/Code/stm32/lib/tinyusb/src/tusb.c ****   }
 367:/Users/joostbooy/Desktop/Code/stm32/lib/tinyusb/src/tusb.c **** 
 368:/Users/joostbooy/Desktop/Code/stm32/lib/tinyusb/src/tusb.c ****   return ret;
 369:/Users/joostbooy/Desktop/Code/stm32/lib/tinyusb/src/tusb.c **** }
 1282              		.loc 1 369 1 view .LVU363
 1283 0008 38BD     		pop	{r3, r4, r5, pc}
 1284              	.LVL100:
 1285              	.L146:
 357:/Users/joostbooy/Desktop/Code/stm32/lib/tinyusb/src/tusb.c **** 
 1286              		.loc 1 357 3 is_stmt 1 discriminator 2 view .LVU364
 359:/Users/joostbooy/Desktop/Code/stm32/lib/tinyusb/src/tusb.c **** 
 1287              		.loc 1 359 3 discriminator 2 view .LVU365
 359:/Users/joostbooy/Desktop/Code/stm32/lib/tinyusb/src/tusb.c **** 
 1288              		.loc 1 359 18 is_stmt 0 discriminator 2 view .LVU366
 1289 000a 05F10C04 		add	r4, r5, #12
 1290 000e 92B2     		uxth	r2, r2
 1291              	.LVL101:
 359:/Users/joostbooy/Desktop/Code/stm32/lib/tinyusb/src/tusb.c **** 
 1292              		.loc 1 359 18 discriminator 2 view .LVU367
ARM GAS  /var/folders/84/_x1cyy_j36g486tldtwl37280000gn/T//cc1u9wTp.s 			page 43


 1293 0010 2046     		mov	r0, r4
 1294              	.LVL102:
 359:/Users/joostbooy/Desktop/Code/stm32/lib/tinyusb/src/tusb.c **** 
 1295              		.loc 1 359 18 discriminator 2 view .LVU368
 1296 0012 FFF7FEFF 		bl	tu_fifo_write_n
 1297              	.LVL103:
 359:/Users/joostbooy/Desktop/Code/stm32/lib/tinyusb/src/tusb.c **** 
 1298              		.loc 1 359 18 discriminator 2 view .LVU369
 1299 0016 0246     		mov	r2, r0
 363:/Users/joostbooy/Desktop/Code/stm32/lib/tinyusb/src/tusb.c ****   {
 1300              		.loc 1 363 9 discriminator 2 view .LVU370
 1301 0018 2046     		mov	r0, r4
 359:/Users/joostbooy/Desktop/Code/stm32/lib/tinyusb/src/tusb.c **** 
 1302              		.loc 1 359 18 discriminator 2 view .LVU371
 1303 001a 1446     		mov	r4, r2
 1304              	.LVL104:
 363:/Users/joostbooy/Desktop/Code/stm32/lib/tinyusb/src/tusb.c ****   {
 1305              		.loc 1 363 3 is_stmt 1 discriminator 2 view .LVU372
 363:/Users/joostbooy/Desktop/Code/stm32/lib/tinyusb/src/tusb.c ****   {
 1306              		.loc 1 363 9 is_stmt 0 discriminator 2 view .LVU373
 1307 001c FFF7FEFF 		bl	tu_fifo_count
 1308              	.LVL105:
 363:/Users/joostbooy/Desktop/Code/stm32/lib/tinyusb/src/tusb.c ****   {
 1309              		.loc 1 363 35 discriminator 2 view .LVU374
 1310 0020 AB88     		ldrh	r3, [r5, #4]
 363:/Users/joostbooy/Desktop/Code/stm32/lib/tinyusb/src/tusb.c ****   {
 1311              		.loc 1 363 6 discriminator 2 view .LVU375
 1312 0022 9842     		cmp	r0, r3
 1313 0024 02D2     		bcs	.L140
 1314              	.LVL106:
 1315              	.LBB115:
 1316              	.LBI115:
 1317              		.file 3 "/Users/joostbooy/Desktop/Code/stm32/lib/tinyusb/src/common/tusb_fifo.h"
   1:/Users/joostbooy/Desktop/Code/stm32/lib/tinyusb/src/common/tusb_fifo.h **** /*
   2:/Users/joostbooy/Desktop/Code/stm32/lib/tinyusb/src/common/tusb_fifo.h ****  * The MIT License (MIT)
   3:/Users/joostbooy/Desktop/Code/stm32/lib/tinyusb/src/common/tusb_fifo.h ****  *
   4:/Users/joostbooy/Desktop/Code/stm32/lib/tinyusb/src/common/tusb_fifo.h ****  * Copyright (c) 2019 Ha Thach (tinyusb.org)
   5:/Users/joostbooy/Desktop/Code/stm32/lib/tinyusb/src/common/tusb_fifo.h ****  * Copyright (c) 2020 Reinhard Panhuber - rework to unmasked pointers
   6:/Users/joostbooy/Desktop/Code/stm32/lib/tinyusb/src/common/tusb_fifo.h ****  *
   7:/Users/joostbooy/Desktop/Code/stm32/lib/tinyusb/src/common/tusb_fifo.h ****  * Permission is hereby granted, free of charge, to any person obtaining a copy
   8:/Users/joostbooy/Desktop/Code/stm32/lib/tinyusb/src/common/tusb_fifo.h ****  * of this software and associated documentation files (the "Software"), to deal
   9:/Users/joostbooy/Desktop/Code/stm32/lib/tinyusb/src/common/tusb_fifo.h ****  * in the Software without restriction, including without limitation the rights
  10:/Users/joostbooy/Desktop/Code/stm32/lib/tinyusb/src/common/tusb_fifo.h ****  * to use, copy, modify, merge, publish, distribute, sublicense, and/or sell
  11:/Users/joostbooy/Desktop/Code/stm32/lib/tinyusb/src/common/tusb_fifo.h ****  * copies of the Software, and to permit persons to whom the Software is
  12:/Users/joostbooy/Desktop/Code/stm32/lib/tinyusb/src/common/tusb_fifo.h ****  * furnished to do so, subject to the following conditions:
  13:/Users/joostbooy/Desktop/Code/stm32/lib/tinyusb/src/common/tusb_fifo.h ****  *
  14:/Users/joostbooy/Desktop/Code/stm32/lib/tinyusb/src/common/tusb_fifo.h ****  * The above copyright notice and this permission notice shall be included in
  15:/Users/joostbooy/Desktop/Code/stm32/lib/tinyusb/src/common/tusb_fifo.h ****  * all copies or substantial portions of the Software.
  16:/Users/joostbooy/Desktop/Code/stm32/lib/tinyusb/src/common/tusb_fifo.h ****  *
  17:/Users/joostbooy/Desktop/Code/stm32/lib/tinyusb/src/common/tusb_fifo.h ****  * THE SOFTWARE IS PROVIDED "AS IS", WITHOUT WARRANTY OF ANY KIND, EXPRESS OR
  18:/Users/joostbooy/Desktop/Code/stm32/lib/tinyusb/src/common/tusb_fifo.h ****  * IMPLIED, INCLUDING BUT NOT LIMITED TO THE WARRANTIES OF MERCHANTABILITY,
  19:/Users/joostbooy/Desktop/Code/stm32/lib/tinyusb/src/common/tusb_fifo.h ****  * FITNESS FOR A PARTICULAR PURPOSE AND NONINFRINGEMENT. IN NO EVENT SHALL THE
  20:/Users/joostbooy/Desktop/Code/stm32/lib/tinyusb/src/common/tusb_fifo.h ****  * AUTHORS OR COPYRIGHT HOLDERS BE LIABLE FOR ANY CLAIM, DAMAGES OR OTHER
  21:/Users/joostbooy/Desktop/Code/stm32/lib/tinyusb/src/common/tusb_fifo.h ****  * LIABILITY, WHETHER IN AN ACTION OF CONTRACT, TORT OR OTHERWISE, ARISING FROM,
  22:/Users/joostbooy/Desktop/Code/stm32/lib/tinyusb/src/common/tusb_fifo.h ****  * OUT OF OR IN CONNECTION WITH THE SOFTWARE OR THE USE OR OTHER DEALINGS IN
  23:/Users/joostbooy/Desktop/Code/stm32/lib/tinyusb/src/common/tusb_fifo.h ****  * THE SOFTWARE.
  24:/Users/joostbooy/Desktop/Code/stm32/lib/tinyusb/src/common/tusb_fifo.h ****  *
ARM GAS  /var/folders/84/_x1cyy_j36g486tldtwl37280000gn/T//cc1u9wTp.s 			page 44


  25:/Users/joostbooy/Desktop/Code/stm32/lib/tinyusb/src/common/tusb_fifo.h ****  * This file is part of the TinyUSB stack.
  26:/Users/joostbooy/Desktop/Code/stm32/lib/tinyusb/src/common/tusb_fifo.h ****  */
  27:/Users/joostbooy/Desktop/Code/stm32/lib/tinyusb/src/common/tusb_fifo.h **** 
  28:/Users/joostbooy/Desktop/Code/stm32/lib/tinyusb/src/common/tusb_fifo.h **** #ifndef _TUSB_FIFO_H_
  29:/Users/joostbooy/Desktop/Code/stm32/lib/tinyusb/src/common/tusb_fifo.h **** #define _TUSB_FIFO_H_
  30:/Users/joostbooy/Desktop/Code/stm32/lib/tinyusb/src/common/tusb_fifo.h **** 
  31:/Users/joostbooy/Desktop/Code/stm32/lib/tinyusb/src/common/tusb_fifo.h **** #ifdef __cplusplus
  32:/Users/joostbooy/Desktop/Code/stm32/lib/tinyusb/src/common/tusb_fifo.h **** extern "C" {
  33:/Users/joostbooy/Desktop/Code/stm32/lib/tinyusb/src/common/tusb_fifo.h **** #endif
  34:/Users/joostbooy/Desktop/Code/stm32/lib/tinyusb/src/common/tusb_fifo.h **** 
  35:/Users/joostbooy/Desktop/Code/stm32/lib/tinyusb/src/common/tusb_fifo.h **** // Due to the use of unmasked pointers, this FIFO does not suffer from losing
  36:/Users/joostbooy/Desktop/Code/stm32/lib/tinyusb/src/common/tusb_fifo.h **** // one item slice. Furthermore, write and read operations are completely
  37:/Users/joostbooy/Desktop/Code/stm32/lib/tinyusb/src/common/tusb_fifo.h **** // decoupled as write and read functions do not modify a common state. Henceforth,
  38:/Users/joostbooy/Desktop/Code/stm32/lib/tinyusb/src/common/tusb_fifo.h **** // writing or reading from the FIFO within an ISR is safe as long as no other
  39:/Users/joostbooy/Desktop/Code/stm32/lib/tinyusb/src/common/tusb_fifo.h **** // process (thread or ISR) interferes.
  40:/Users/joostbooy/Desktop/Code/stm32/lib/tinyusb/src/common/tusb_fifo.h **** // Also, this FIFO is ready to be used in combination with a DMA as the write and
  41:/Users/joostbooy/Desktop/Code/stm32/lib/tinyusb/src/common/tusb_fifo.h **** // read pointers can be updated from within a DMA ISR. Overflows are detectable
  42:/Users/joostbooy/Desktop/Code/stm32/lib/tinyusb/src/common/tusb_fifo.h **** // within a certain number (see tu_fifo_overflow()).
  43:/Users/joostbooy/Desktop/Code/stm32/lib/tinyusb/src/common/tusb_fifo.h **** 
  44:/Users/joostbooy/Desktop/Code/stm32/lib/tinyusb/src/common/tusb_fifo.h **** #include "common/tusb_common.h"
  45:/Users/joostbooy/Desktop/Code/stm32/lib/tinyusb/src/common/tusb_fifo.h **** #include "osal/osal.h"
  46:/Users/joostbooy/Desktop/Code/stm32/lib/tinyusb/src/common/tusb_fifo.h **** 
  47:/Users/joostbooy/Desktop/Code/stm32/lib/tinyusb/src/common/tusb_fifo.h **** // mutex is only needed for RTOS
  48:/Users/joostbooy/Desktop/Code/stm32/lib/tinyusb/src/common/tusb_fifo.h **** // for OS None, we don't get preempted
  49:/Users/joostbooy/Desktop/Code/stm32/lib/tinyusb/src/common/tusb_fifo.h **** #define CFG_FIFO_MUTEX      OSAL_MUTEX_REQUIRED
  50:/Users/joostbooy/Desktop/Code/stm32/lib/tinyusb/src/common/tusb_fifo.h **** 
  51:/Users/joostbooy/Desktop/Code/stm32/lib/tinyusb/src/common/tusb_fifo.h **** /* Write/Read index is always in the range of:
  52:/Users/joostbooy/Desktop/Code/stm32/lib/tinyusb/src/common/tusb_fifo.h ****  *      0 .. 2*depth-1
  53:/Users/joostbooy/Desktop/Code/stm32/lib/tinyusb/src/common/tusb_fifo.h ****  * The extra window allow us to determine the fifo state of empty or full with only 2 indices
  54:/Users/joostbooy/Desktop/Code/stm32/lib/tinyusb/src/common/tusb_fifo.h ****  * Following are examples with depth = 3
  55:/Users/joostbooy/Desktop/Code/stm32/lib/tinyusb/src/common/tusb_fifo.h ****  *
  56:/Users/joostbooy/Desktop/Code/stm32/lib/tinyusb/src/common/tusb_fifo.h ****  * - empty: W = R
  57:/Users/joostbooy/Desktop/Code/stm32/lib/tinyusb/src/common/tusb_fifo.h ****  *                |
  58:/Users/joostbooy/Desktop/Code/stm32/lib/tinyusb/src/common/tusb_fifo.h ****  *    -------------------------
  59:/Users/joostbooy/Desktop/Code/stm32/lib/tinyusb/src/common/tusb_fifo.h ****  *    | 0 | RW| 2 | 3 | 4 | 5 |
  60:/Users/joostbooy/Desktop/Code/stm32/lib/tinyusb/src/common/tusb_fifo.h ****  *
  61:/Users/joostbooy/Desktop/Code/stm32/lib/tinyusb/src/common/tusb_fifo.h ****  * - full 1: W > R
  62:/Users/joostbooy/Desktop/Code/stm32/lib/tinyusb/src/common/tusb_fifo.h ****  *                |
  63:/Users/joostbooy/Desktop/Code/stm32/lib/tinyusb/src/common/tusb_fifo.h ****  *    -------------------------
  64:/Users/joostbooy/Desktop/Code/stm32/lib/tinyusb/src/common/tusb_fifo.h ****  *    | 0 | R | 2 | 3 | W | 5 |
  65:/Users/joostbooy/Desktop/Code/stm32/lib/tinyusb/src/common/tusb_fifo.h ****  *
  66:/Users/joostbooy/Desktop/Code/stm32/lib/tinyusb/src/common/tusb_fifo.h ****  * - full 2: W < R
  67:/Users/joostbooy/Desktop/Code/stm32/lib/tinyusb/src/common/tusb_fifo.h ****  *                |
  68:/Users/joostbooy/Desktop/Code/stm32/lib/tinyusb/src/common/tusb_fifo.h ****  *    -------------------------
  69:/Users/joostbooy/Desktop/Code/stm32/lib/tinyusb/src/common/tusb_fifo.h ****  *    | 0 | 1 | W | 3 | 4 | R |
  70:/Users/joostbooy/Desktop/Code/stm32/lib/tinyusb/src/common/tusb_fifo.h ****  *
  71:/Users/joostbooy/Desktop/Code/stm32/lib/tinyusb/src/common/tusb_fifo.h ****  * - Number of items in the fifo can be determined in either cases:
  72:/Users/joostbooy/Desktop/Code/stm32/lib/tinyusb/src/common/tusb_fifo.h ****  *    - case W >= R: Count = W - R
  73:/Users/joostbooy/Desktop/Code/stm32/lib/tinyusb/src/common/tusb_fifo.h ****  *    - case W <  R: Count = 2*depth - (R - W)
  74:/Users/joostbooy/Desktop/Code/stm32/lib/tinyusb/src/common/tusb_fifo.h ****  *
  75:/Users/joostbooy/Desktop/Code/stm32/lib/tinyusb/src/common/tusb_fifo.h ****  * In non-overwritable mode, computed Count (in above 2 cases) is at most equal to depth.
  76:/Users/joostbooy/Desktop/Code/stm32/lib/tinyusb/src/common/tusb_fifo.h ****  * However, in over-writable mode, write index can be repeatedly increased and count can be
  77:/Users/joostbooy/Desktop/Code/stm32/lib/tinyusb/src/common/tusb_fifo.h ****  * temporarily larger than depth (overflowed condition) e.g
  78:/Users/joostbooy/Desktop/Code/stm32/lib/tinyusb/src/common/tusb_fifo.h ****  *
  79:/Users/joostbooy/Desktop/Code/stm32/lib/tinyusb/src/common/tusb_fifo.h ****  *  - Overflowed 1: write(3), write(1)
  80:/Users/joostbooy/Desktop/Code/stm32/lib/tinyusb/src/common/tusb_fifo.h ****  *    In this case we will adjust Read index when read()/peek() is called so that count = depth.
  81:/Users/joostbooy/Desktop/Code/stm32/lib/tinyusb/src/common/tusb_fifo.h ****  *                  |
ARM GAS  /var/folders/84/_x1cyy_j36g486tldtwl37280000gn/T//cc1u9wTp.s 			page 45


  82:/Users/joostbooy/Desktop/Code/stm32/lib/tinyusb/src/common/tusb_fifo.h ****  *      -------------------------
  83:/Users/joostbooy/Desktop/Code/stm32/lib/tinyusb/src/common/tusb_fifo.h ****  *      | R | 1 | 2 | 3 | W | 5 |
  84:/Users/joostbooy/Desktop/Code/stm32/lib/tinyusb/src/common/tusb_fifo.h ****  *
  85:/Users/joostbooy/Desktop/Code/stm32/lib/tinyusb/src/common/tusb_fifo.h ****  *  - Double Overflowed i.e index is out of allowed range [0,2*depth)
  86:/Users/joostbooy/Desktop/Code/stm32/lib/tinyusb/src/common/tusb_fifo.h ****  *    This occurs when we continue to write after 1st overflowed to 2nd overflowed. e.g:
  87:/Users/joostbooy/Desktop/Code/stm32/lib/tinyusb/src/common/tusb_fifo.h ****  *      write(3), write(1), write(2)
  88:/Users/joostbooy/Desktop/Code/stm32/lib/tinyusb/src/common/tusb_fifo.h ****  *    This must be prevented since it will cause unrecoverable state, in above example
  89:/Users/joostbooy/Desktop/Code/stm32/lib/tinyusb/src/common/tusb_fifo.h ****  *    if not handled the fifo will be empty instead of continue-to-be full. Since we must not modif
  90:/Users/joostbooy/Desktop/Code/stm32/lib/tinyusb/src/common/tusb_fifo.h ****  *    read index in write() function, which cause race condition. We will re-position write index s
  91:/Users/joostbooy/Desktop/Code/stm32/lib/tinyusb/src/common/tusb_fifo.h ****  *    after data is written it is a full fifo i.e W = depth - R
  92:/Users/joostbooy/Desktop/Code/stm32/lib/tinyusb/src/common/tusb_fifo.h ****  *
  93:/Users/joostbooy/Desktop/Code/stm32/lib/tinyusb/src/common/tusb_fifo.h ****  *      re-position W = 1 before write(2)
  94:/Users/joostbooy/Desktop/Code/stm32/lib/tinyusb/src/common/tusb_fifo.h ****  *      Note: we should also move data from mem[3] to read index as well, but deliberately skipped 
  95:/Users/joostbooy/Desktop/Code/stm32/lib/tinyusb/src/common/tusb_fifo.h ****  *      since it is an expensive operation !!!
  96:/Users/joostbooy/Desktop/Code/stm32/lib/tinyusb/src/common/tusb_fifo.h ****  *                  |
  97:/Users/joostbooy/Desktop/Code/stm32/lib/tinyusb/src/common/tusb_fifo.h ****  *      -------------------------
  98:/Users/joostbooy/Desktop/Code/stm32/lib/tinyusb/src/common/tusb_fifo.h ****  *      | R | W | 2 | 3 | 4 | 5 |
  99:/Users/joostbooy/Desktop/Code/stm32/lib/tinyusb/src/common/tusb_fifo.h ****  *
 100:/Users/joostbooy/Desktop/Code/stm32/lib/tinyusb/src/common/tusb_fifo.h ****  *      perform write(2), result is still a full fifo.
 101:/Users/joostbooy/Desktop/Code/stm32/lib/tinyusb/src/common/tusb_fifo.h ****  *
 102:/Users/joostbooy/Desktop/Code/stm32/lib/tinyusb/src/common/tusb_fifo.h ****  *                  |
 103:/Users/joostbooy/Desktop/Code/stm32/lib/tinyusb/src/common/tusb_fifo.h ****  *      -------------------------
 104:/Users/joostbooy/Desktop/Code/stm32/lib/tinyusb/src/common/tusb_fifo.h ****  *      | R | 1 | 2 | W | 4 | 5 |
 105:/Users/joostbooy/Desktop/Code/stm32/lib/tinyusb/src/common/tusb_fifo.h **** 
 106:/Users/joostbooy/Desktop/Code/stm32/lib/tinyusb/src/common/tusb_fifo.h ****  */
 107:/Users/joostbooy/Desktop/Code/stm32/lib/tinyusb/src/common/tusb_fifo.h **** typedef struct
 108:/Users/joostbooy/Desktop/Code/stm32/lib/tinyusb/src/common/tusb_fifo.h **** {
 109:/Users/joostbooy/Desktop/Code/stm32/lib/tinyusb/src/common/tusb_fifo.h ****   uint8_t* buffer          ; // buffer pointer
 110:/Users/joostbooy/Desktop/Code/stm32/lib/tinyusb/src/common/tusb_fifo.h ****   uint16_t depth           ; // max items
 111:/Users/joostbooy/Desktop/Code/stm32/lib/tinyusb/src/common/tusb_fifo.h **** 
 112:/Users/joostbooy/Desktop/Code/stm32/lib/tinyusb/src/common/tusb_fifo.h ****   struct TU_ATTR_PACKED {
 113:/Users/joostbooy/Desktop/Code/stm32/lib/tinyusb/src/common/tusb_fifo.h ****     uint16_t item_size : 15; // size of each item
 114:/Users/joostbooy/Desktop/Code/stm32/lib/tinyusb/src/common/tusb_fifo.h ****     bool overwritable  : 1 ; // ovwerwritable when full
 115:/Users/joostbooy/Desktop/Code/stm32/lib/tinyusb/src/common/tusb_fifo.h ****   };
 116:/Users/joostbooy/Desktop/Code/stm32/lib/tinyusb/src/common/tusb_fifo.h **** 
 117:/Users/joostbooy/Desktop/Code/stm32/lib/tinyusb/src/common/tusb_fifo.h ****   volatile uint16_t wr_idx ; // write index
 118:/Users/joostbooy/Desktop/Code/stm32/lib/tinyusb/src/common/tusb_fifo.h ****   volatile uint16_t rd_idx ; // read index
 119:/Users/joostbooy/Desktop/Code/stm32/lib/tinyusb/src/common/tusb_fifo.h **** 
 120:/Users/joostbooy/Desktop/Code/stm32/lib/tinyusb/src/common/tusb_fifo.h **** #if OSAL_MUTEX_REQUIRED
 121:/Users/joostbooy/Desktop/Code/stm32/lib/tinyusb/src/common/tusb_fifo.h ****   osal_mutex_t mutex_wr;
 122:/Users/joostbooy/Desktop/Code/stm32/lib/tinyusb/src/common/tusb_fifo.h ****   osal_mutex_t mutex_rd;
 123:/Users/joostbooy/Desktop/Code/stm32/lib/tinyusb/src/common/tusb_fifo.h **** #endif
 124:/Users/joostbooy/Desktop/Code/stm32/lib/tinyusb/src/common/tusb_fifo.h **** 
 125:/Users/joostbooy/Desktop/Code/stm32/lib/tinyusb/src/common/tusb_fifo.h **** } tu_fifo_t;
 126:/Users/joostbooy/Desktop/Code/stm32/lib/tinyusb/src/common/tusb_fifo.h **** 
 127:/Users/joostbooy/Desktop/Code/stm32/lib/tinyusb/src/common/tusb_fifo.h **** typedef struct
 128:/Users/joostbooy/Desktop/Code/stm32/lib/tinyusb/src/common/tusb_fifo.h **** {
 129:/Users/joostbooy/Desktop/Code/stm32/lib/tinyusb/src/common/tusb_fifo.h ****   uint16_t len_lin  ; ///< linear length in item size
 130:/Users/joostbooy/Desktop/Code/stm32/lib/tinyusb/src/common/tusb_fifo.h ****   uint16_t len_wrap ; ///< wrapped length in item size
 131:/Users/joostbooy/Desktop/Code/stm32/lib/tinyusb/src/common/tusb_fifo.h ****   void * ptr_lin    ; ///< linear part start pointer
 132:/Users/joostbooy/Desktop/Code/stm32/lib/tinyusb/src/common/tusb_fifo.h ****   void * ptr_wrap   ; ///< wrapped part start pointer
 133:/Users/joostbooy/Desktop/Code/stm32/lib/tinyusb/src/common/tusb_fifo.h **** } tu_fifo_buffer_info_t;
 134:/Users/joostbooy/Desktop/Code/stm32/lib/tinyusb/src/common/tusb_fifo.h **** 
 135:/Users/joostbooy/Desktop/Code/stm32/lib/tinyusb/src/common/tusb_fifo.h **** #define TU_FIFO_INIT(_buffer, _depth, _type, _overwritable) \
 136:/Users/joostbooy/Desktop/Code/stm32/lib/tinyusb/src/common/tusb_fifo.h **** {                                                           \
 137:/Users/joostbooy/Desktop/Code/stm32/lib/tinyusb/src/common/tusb_fifo.h ****   .buffer               = _buffer,                          \
 138:/Users/joostbooy/Desktop/Code/stm32/lib/tinyusb/src/common/tusb_fifo.h ****   .depth                = _depth,                           \
ARM GAS  /var/folders/84/_x1cyy_j36g486tldtwl37280000gn/T//cc1u9wTp.s 			page 46


 139:/Users/joostbooy/Desktop/Code/stm32/lib/tinyusb/src/common/tusb_fifo.h ****   .item_size            = sizeof(_type),                    \
 140:/Users/joostbooy/Desktop/Code/stm32/lib/tinyusb/src/common/tusb_fifo.h ****   .overwritable         = _overwritable,                    \
 141:/Users/joostbooy/Desktop/Code/stm32/lib/tinyusb/src/common/tusb_fifo.h **** }
 142:/Users/joostbooy/Desktop/Code/stm32/lib/tinyusb/src/common/tusb_fifo.h **** 
 143:/Users/joostbooy/Desktop/Code/stm32/lib/tinyusb/src/common/tusb_fifo.h **** #define TU_FIFO_DEF(_name, _depth, _type, _overwritable)                      \
 144:/Users/joostbooy/Desktop/Code/stm32/lib/tinyusb/src/common/tusb_fifo.h ****     uint8_t _name##_buf[_depth*sizeof(_type)];                                \
 145:/Users/joostbooy/Desktop/Code/stm32/lib/tinyusb/src/common/tusb_fifo.h ****     tu_fifo_t _name = TU_FIFO_INIT(_name##_buf, _depth, _type, _overwritable)
 146:/Users/joostbooy/Desktop/Code/stm32/lib/tinyusb/src/common/tusb_fifo.h **** 
 147:/Users/joostbooy/Desktop/Code/stm32/lib/tinyusb/src/common/tusb_fifo.h **** 
 148:/Users/joostbooy/Desktop/Code/stm32/lib/tinyusb/src/common/tusb_fifo.h **** bool tu_fifo_set_overwritable(tu_fifo_t *f, bool overwritable);
 149:/Users/joostbooy/Desktop/Code/stm32/lib/tinyusb/src/common/tusb_fifo.h **** bool tu_fifo_clear(tu_fifo_t *f);
 150:/Users/joostbooy/Desktop/Code/stm32/lib/tinyusb/src/common/tusb_fifo.h **** bool tu_fifo_config(tu_fifo_t *f, void* buffer, uint16_t depth, uint16_t item_size, bool overwritab
 151:/Users/joostbooy/Desktop/Code/stm32/lib/tinyusb/src/common/tusb_fifo.h **** 
 152:/Users/joostbooy/Desktop/Code/stm32/lib/tinyusb/src/common/tusb_fifo.h **** #if OSAL_MUTEX_REQUIRED
 153:/Users/joostbooy/Desktop/Code/stm32/lib/tinyusb/src/common/tusb_fifo.h **** TU_ATTR_ALWAYS_INLINE static inline
 154:/Users/joostbooy/Desktop/Code/stm32/lib/tinyusb/src/common/tusb_fifo.h **** void tu_fifo_config_mutex(tu_fifo_t *f, osal_mutex_t wr_mutex, osal_mutex_t rd_mutex)
 155:/Users/joostbooy/Desktop/Code/stm32/lib/tinyusb/src/common/tusb_fifo.h **** {
 156:/Users/joostbooy/Desktop/Code/stm32/lib/tinyusb/src/common/tusb_fifo.h ****   f->mutex_wr = wr_mutex;
 157:/Users/joostbooy/Desktop/Code/stm32/lib/tinyusb/src/common/tusb_fifo.h ****   f->mutex_rd = rd_mutex;
 158:/Users/joostbooy/Desktop/Code/stm32/lib/tinyusb/src/common/tusb_fifo.h **** }
 159:/Users/joostbooy/Desktop/Code/stm32/lib/tinyusb/src/common/tusb_fifo.h **** 
 160:/Users/joostbooy/Desktop/Code/stm32/lib/tinyusb/src/common/tusb_fifo.h **** #else
 161:/Users/joostbooy/Desktop/Code/stm32/lib/tinyusb/src/common/tusb_fifo.h **** 
 162:/Users/joostbooy/Desktop/Code/stm32/lib/tinyusb/src/common/tusb_fifo.h **** #define tu_fifo_config_mutex(_f, _wr_mutex, _rd_mutex)
 163:/Users/joostbooy/Desktop/Code/stm32/lib/tinyusb/src/common/tusb_fifo.h **** 
 164:/Users/joostbooy/Desktop/Code/stm32/lib/tinyusb/src/common/tusb_fifo.h **** #endif
 165:/Users/joostbooy/Desktop/Code/stm32/lib/tinyusb/src/common/tusb_fifo.h **** 
 166:/Users/joostbooy/Desktop/Code/stm32/lib/tinyusb/src/common/tusb_fifo.h **** bool     tu_fifo_write                  (tu_fifo_t* f, void const * p_data);
 167:/Users/joostbooy/Desktop/Code/stm32/lib/tinyusb/src/common/tusb_fifo.h **** uint16_t tu_fifo_write_n                (tu_fifo_t* f, void const * p_data, uint16_t n);
 168:/Users/joostbooy/Desktop/Code/stm32/lib/tinyusb/src/common/tusb_fifo.h **** uint16_t tu_fifo_write_n_const_addr_full_words    (tu_fifo_t* f, const void * data, uint16_t n);
 169:/Users/joostbooy/Desktop/Code/stm32/lib/tinyusb/src/common/tusb_fifo.h **** 
 170:/Users/joostbooy/Desktop/Code/stm32/lib/tinyusb/src/common/tusb_fifo.h **** bool     tu_fifo_read                   (tu_fifo_t* f, void * p_buffer);
 171:/Users/joostbooy/Desktop/Code/stm32/lib/tinyusb/src/common/tusb_fifo.h **** uint16_t tu_fifo_read_n                 (tu_fifo_t* f, void * p_buffer, uint16_t n);
 172:/Users/joostbooy/Desktop/Code/stm32/lib/tinyusb/src/common/tusb_fifo.h **** uint16_t tu_fifo_read_n_const_addr_full_words     (tu_fifo_t* f, void * buffer, uint16_t n);
 173:/Users/joostbooy/Desktop/Code/stm32/lib/tinyusb/src/common/tusb_fifo.h **** 
 174:/Users/joostbooy/Desktop/Code/stm32/lib/tinyusb/src/common/tusb_fifo.h **** bool     tu_fifo_peek                   (tu_fifo_t* f, void * p_buffer);
 175:/Users/joostbooy/Desktop/Code/stm32/lib/tinyusb/src/common/tusb_fifo.h **** uint16_t tu_fifo_peek_n                 (tu_fifo_t* f, void * p_buffer, uint16_t n);
 176:/Users/joostbooy/Desktop/Code/stm32/lib/tinyusb/src/common/tusb_fifo.h **** 
 177:/Users/joostbooy/Desktop/Code/stm32/lib/tinyusb/src/common/tusb_fifo.h **** uint16_t tu_fifo_count                  (tu_fifo_t* f);
 178:/Users/joostbooy/Desktop/Code/stm32/lib/tinyusb/src/common/tusb_fifo.h **** uint16_t tu_fifo_remaining              (tu_fifo_t* f);
 179:/Users/joostbooy/Desktop/Code/stm32/lib/tinyusb/src/common/tusb_fifo.h **** bool     tu_fifo_empty                  (tu_fifo_t* f);
 180:/Users/joostbooy/Desktop/Code/stm32/lib/tinyusb/src/common/tusb_fifo.h **** bool     tu_fifo_full                   (tu_fifo_t* f);
 181:/Users/joostbooy/Desktop/Code/stm32/lib/tinyusb/src/common/tusb_fifo.h **** bool     tu_fifo_overflowed             (tu_fifo_t* f);
 182:/Users/joostbooy/Desktop/Code/stm32/lib/tinyusb/src/common/tusb_fifo.h **** void     tu_fifo_correct_read_pointer   (tu_fifo_t* f);
 183:/Users/joostbooy/Desktop/Code/stm32/lib/tinyusb/src/common/tusb_fifo.h **** 
 184:/Users/joostbooy/Desktop/Code/stm32/lib/tinyusb/src/common/tusb_fifo.h **** TU_ATTR_ALWAYS_INLINE static inline
 185:/Users/joostbooy/Desktop/Code/stm32/lib/tinyusb/src/common/tusb_fifo.h **** uint16_t tu_fifo_depth(tu_fifo_t* f)
 1318              		.loc 3 185 10 is_stmt 1 discriminator 1 view .LVU376
 1319              	.LBB116:
 186:/Users/joostbooy/Desktop/Code/stm32/lib/tinyusb/src/common/tusb_fifo.h **** {
 187:/Users/joostbooy/Desktop/Code/stm32/lib/tinyusb/src/common/tusb_fifo.h ****   return f->depth;
 1320              		.loc 3 187 3 discriminator 1 view .LVU377
 1321              		.loc 3 187 3 is_stmt 0 discriminator 1 view .LVU378
 1322              	.LBE116:
 1323              	.LBE115:
 363:/Users/joostbooy/Desktop/Code/stm32/lib/tinyusb/src/tusb.c ****   {
 1324              		.loc 1 363 52 discriminator 1 view .LVU379
ARM GAS  /var/folders/84/_x1cyy_j36g486tldtwl37280000gn/T//cc1u9wTp.s 			page 47


 1325 0026 288A     		ldrh	r0, [r5, #16]
 1326 0028 9842     		cmp	r0, r3
 1327 002a 02D2     		bcs	.L141
 1328              	.L140:
 365:/Users/joostbooy/Desktop/Code/stm32/lib/tinyusb/src/tusb.c ****   }
 1329              		.loc 1 365 5 is_stmt 1 view .LVU380
 1330 002c 2846     		mov	r0, r5
 1331 002e FFF7FEFF 		bl	tu_edpt_stream_write_xfer
 1332              	.LVL107:
 1333              	.L141:
 368:/Users/joostbooy/Desktop/Code/stm32/lib/tinyusb/src/tusb.c **** }
 1334              		.loc 1 368 3 view .LVU381
 368:/Users/joostbooy/Desktop/Code/stm32/lib/tinyusb/src/tusb.c **** }
 1335              		.loc 1 368 10 is_stmt 0 view .LVU382
 1336 0032 2046     		mov	r0, r4
 1337              		.loc 1 369 1 view .LVU383
 1338 0034 38BD     		pop	{r3, r4, r5, pc}
 1339              		.loc 1 369 1 view .LVU384
 1340              		.cfi_endproc
 1341              	.LFE95:
 1343 0036 00BF     		.section	.text.tu_edpt_stream_read_xfer,"ax",%progbits
 1344              		.align	1
 1345              		.p2align 2,,3
 1346              		.global	tu_edpt_stream_read_xfer
 1347              		.syntax unified
 1348              		.thumb
 1349              		.thumb_func
 1350              		.fpu fpv4-sp-d16
 1352              	tu_edpt_stream_read_xfer:
 1353              	.LVL108:
 1354              	.LFB96:
 370:/Users/joostbooy/Desktop/Code/stm32/lib/tinyusb/src/tusb.c **** 
 371:/Users/joostbooy/Desktop/Code/stm32/lib/tinyusb/src/tusb.c **** //--------------------------------------------------------------------+
 372:/Users/joostbooy/Desktop/Code/stm32/lib/tinyusb/src/tusb.c **** // Stream Read
 373:/Users/joostbooy/Desktop/Code/stm32/lib/tinyusb/src/tusb.c **** //--------------------------------------------------------------------+
 374:/Users/joostbooy/Desktop/Code/stm32/lib/tinyusb/src/tusb.c **** 
 375:/Users/joostbooy/Desktop/Code/stm32/lib/tinyusb/src/tusb.c **** uint32_t tu_edpt_stream_read_xfer(tu_edpt_stream_t* s)
 376:/Users/joostbooy/Desktop/Code/stm32/lib/tinyusb/src/tusb.c **** {
 1355              		.loc 1 376 1 is_stmt 1 view -0
 1356              		.cfi_startproc
 1357              		@ args = 0, pretend = 0, frame = 0
 1358              		@ frame_needed = 0, uses_anonymous_args = 0
 377:/Users/joostbooy/Desktop/Code/stm32/lib/tinyusb/src/tusb.c ****   uint16_t available = tu_fifo_remaining(&s->ff);
 1359              		.loc 1 377 3 view .LVU386
 376:/Users/joostbooy/Desktop/Code/stm32/lib/tinyusb/src/tusb.c ****   uint16_t available = tu_fifo_remaining(&s->ff);
 1360              		.loc 1 376 1 is_stmt 0 view .LVU387
 1361 0000 38B5     		push	{r3, r4, r5, lr}
 1362              		.cfi_def_cfa_offset 16
 1363              		.cfi_offset 3, -16
 1364              		.cfi_offset 4, -12
 1365              		.cfi_offset 5, -8
 1366              		.cfi_offset 14, -4
 1367              		.loc 1 377 24 view .LVU388
 1368 0002 00F10C05 		add	r5, r0, #12
 376:/Users/joostbooy/Desktop/Code/stm32/lib/tinyusb/src/tusb.c ****   uint16_t available = tu_fifo_remaining(&s->ff);
 1369              		.loc 1 376 1 view .LVU389
 1370 0006 0446     		mov	r4, r0
ARM GAS  /var/folders/84/_x1cyy_j36g486tldtwl37280000gn/T//cc1u9wTp.s 			page 48


 1371              		.loc 1 377 24 view .LVU390
 1372 0008 2846     		mov	r0, r5
 1373              	.LVL109:
 1374              		.loc 1 377 24 view .LVU391
 1375 000a FFF7FEFF 		bl	tu_fifo_remaining
 1376              	.LVL110:
 378:/Users/joostbooy/Desktop/Code/stm32/lib/tinyusb/src/tusb.c **** 
 379:/Users/joostbooy/Desktop/Code/stm32/lib/tinyusb/src/tusb.c ****   // Prepare for incoming data but only allow what we can store in the ring buffer.
 380:/Users/joostbooy/Desktop/Code/stm32/lib/tinyusb/src/tusb.c ****   // TODO Actually we can still carry out the transfer, keeping count of received bytes
 381:/Users/joostbooy/Desktop/Code/stm32/lib/tinyusb/src/tusb.c ****   // and slowly move it to the FIFO when read().
 382:/Users/joostbooy/Desktop/Code/stm32/lib/tinyusb/src/tusb.c ****   // This pre-check reduces endpoint claiming
 383:/Users/joostbooy/Desktop/Code/stm32/lib/tinyusb/src/tusb.c ****   TU_VERIFY(available >= s->ep_packetsize);
 1377              		.loc 1 383 3 is_stmt 1 view .LVU392
 1378              		.loc 1 383 3 view .LVU393
 1379 000e A388     		ldrh	r3, [r4, #4]
 1380 0010 8342     		cmp	r3, r0
 1381 0012 01D8     		bhi	.L162
 1382              		.loc 1 383 3 view .LVU394
 384:/Users/joostbooy/Desktop/Code/stm32/lib/tinyusb/src/tusb.c **** 
 385:/Users/joostbooy/Desktop/Code/stm32/lib/tinyusb/src/tusb.c ****   // claim endpoint
 386:/Users/joostbooy/Desktop/Code/stm32/lib/tinyusb/src/tusb.c ****   TU_VERIFY(stream_claim(s), 0);
 1383              		.loc 1 386 3 view .LVU395
 1384              		.loc 1 386 3 view .LVU396
 1385              	.LVL111:
 1386              	.LBB117:
 1387              	.LBI117:
 263:/Users/joostbooy/Desktop/Code/stm32/lib/tinyusb/src/tusb.c **** {
 1388              		.loc 1 263 6 view .LVU397
 1389              	.LBB118:
 265:/Users/joostbooy/Desktop/Code/stm32/lib/tinyusb/src/tusb.c ****   {
 1390              		.loc 1 265 3 view .LVU398
 265:/Users/joostbooy/Desktop/Code/stm32/lib/tinyusb/src/tusb.c ****   {
 1391              		.loc 1 265 6 is_stmt 0 view .LVU399
 1392 0014 2078     		ldrb	r0, [r4]	@ zero_extendqisi2
 1393              	.LVL112:
 265:/Users/joostbooy/Desktop/Code/stm32/lib/tinyusb/src/tusb.c ****   {
 1394              		.loc 1 265 6 view .LVU400
 1395 0016 08B1     		cbz	r0, .L165
 1396              	.LVL113:
 1397              	.L162:
 265:/Users/joostbooy/Desktop/Code/stm32/lib/tinyusb/src/tusb.c ****   {
 1398              		.loc 1 265 6 view .LVU401
 1399              	.LBE118:
 1400              	.LBE117:
 1401              	.LBB120:
 387:/Users/joostbooy/Desktop/Code/stm32/lib/tinyusb/src/tusb.c **** 
 388:/Users/joostbooy/Desktop/Code/stm32/lib/tinyusb/src/tusb.c ****   // get available again since fifo can be changed before endpoint is claimed
 389:/Users/joostbooy/Desktop/Code/stm32/lib/tinyusb/src/tusb.c ****   available = tu_fifo_remaining(&s->ff);
 390:/Users/joostbooy/Desktop/Code/stm32/lib/tinyusb/src/tusb.c **** 
 391:/Users/joostbooy/Desktop/Code/stm32/lib/tinyusb/src/tusb.c ****   if ( available >= s->ep_packetsize )
 392:/Users/joostbooy/Desktop/Code/stm32/lib/tinyusb/src/tusb.c ****   {
 393:/Users/joostbooy/Desktop/Code/stm32/lib/tinyusb/src/tusb.c ****     // multiple of packet size limit by ep bufsize
 394:/Users/joostbooy/Desktop/Code/stm32/lib/tinyusb/src/tusb.c ****     uint16_t count = (uint16_t) (available & ~(s->ep_packetsize -1));
 395:/Users/joostbooy/Desktop/Code/stm32/lib/tinyusb/src/tusb.c ****     count = tu_min16(count, s->ep_bufsize);
 396:/Users/joostbooy/Desktop/Code/stm32/lib/tinyusb/src/tusb.c **** 
 397:/Users/joostbooy/Desktop/Code/stm32/lib/tinyusb/src/tusb.c ****     TU_ASSERT( stream_xfer(s, count), 0 );
 1402              		.loc 1 397 5 discriminator 3 view .LVU402
ARM GAS  /var/folders/84/_x1cyy_j36g486tldtwl37280000gn/T//cc1u9wTp.s 			page 49


 1403 0018 0020     		movs	r0, #0
 1404              	.LBE120:
 398:/Users/joostbooy/Desktop/Code/stm32/lib/tinyusb/src/tusb.c **** 
 399:/Users/joostbooy/Desktop/Code/stm32/lib/tinyusb/src/tusb.c ****     return count;
 400:/Users/joostbooy/Desktop/Code/stm32/lib/tinyusb/src/tusb.c ****   }else
 401:/Users/joostbooy/Desktop/Code/stm32/lib/tinyusb/src/tusb.c ****   {
 402:/Users/joostbooy/Desktop/Code/stm32/lib/tinyusb/src/tusb.c ****     // Release endpoint since we don't make any transfer
 403:/Users/joostbooy/Desktop/Code/stm32/lib/tinyusb/src/tusb.c ****     stream_release(s);
 404:/Users/joostbooy/Desktop/Code/stm32/lib/tinyusb/src/tusb.c ****     return 0;
 405:/Users/joostbooy/Desktop/Code/stm32/lib/tinyusb/src/tusb.c ****   }
 406:/Users/joostbooy/Desktop/Code/stm32/lib/tinyusb/src/tusb.c **** }
 1405              		.loc 1 406 1 discriminator 3 view .LVU403
 1406 001a 38BD     		pop	{r3, r4, r5, pc}
 1407              	.LVL114:
 1408              	.L165:
 1409              	.LBB136:
 1410              	.LBB119:
 273:/Users/joostbooy/Desktop/Code/stm32/lib/tinyusb/src/tusb.c ****     #endif
 1411              		.loc 1 273 5 is_stmt 1 view .LVU404
 273:/Users/joostbooy/Desktop/Code/stm32/lib/tinyusb/src/tusb.c ****     #endif
 1412              		.loc 1 273 12 is_stmt 0 view .LVU405
 1413 001c A178     		ldrb	r1, [r4, #2]	@ zero_extendqisi2
 1414 001e 6078     		ldrb	r0, [r4, #1]	@ zero_extendqisi2
 1415 0020 FFF7FEFF 		bl	usbd_edpt_claim
 1416              	.LVL115:
 273:/Users/joostbooy/Desktop/Code/stm32/lib/tinyusb/src/tusb.c ****     #endif
 1417              		.loc 1 273 12 view .LVU406
 1418              	.LBE119:
 1419              	.LBE136:
 386:/Users/joostbooy/Desktop/Code/stm32/lib/tinyusb/src/tusb.c **** 
 1420              		.loc 1 386 3 view .LVU407
 1421 0024 0028     		cmp	r0, #0
 1422 0026 F7D0     		beq	.L162
 386:/Users/joostbooy/Desktop/Code/stm32/lib/tinyusb/src/tusb.c **** 
 1423              		.loc 1 386 3 is_stmt 1 discriminator 2 view .LVU408
 389:/Users/joostbooy/Desktop/Code/stm32/lib/tinyusb/src/tusb.c **** 
 1424              		.loc 1 389 3 discriminator 2 view .LVU409
 389:/Users/joostbooy/Desktop/Code/stm32/lib/tinyusb/src/tusb.c **** 
 1425              		.loc 1 389 15 is_stmt 0 discriminator 2 view .LVU410
 1426 0028 2846     		mov	r0, r5
 1427 002a FFF7FEFF 		bl	tu_fifo_remaining
 1428              	.LVL116:
 391:/Users/joostbooy/Desktop/Code/stm32/lib/tinyusb/src/tusb.c ****   {
 1429              		.loc 1 391 22 discriminator 2 view .LVU411
 1430 002e A188     		ldrh	r1, [r4, #4]
 1431              	.LVL117:
 391:/Users/joostbooy/Desktop/Code/stm32/lib/tinyusb/src/tusb.c ****   {
 1432              		.loc 1 391 3 is_stmt 1 discriminator 2 view .LVU412
 391:/Users/joostbooy/Desktop/Code/stm32/lib/tinyusb/src/tusb.c ****   {
 1433              		.loc 1 391 6 is_stmt 0 discriminator 2 view .LVU413
 1434 0030 8142     		cmp	r1, r0
 1435 0032 07D8     		bhi	.L151
 1436              	.LBB137:
 394:/Users/joostbooy/Desktop/Code/stm32/lib/tinyusb/src/tusb.c ****     count = tu_min16(count, s->ep_bufsize);
 1437              		.loc 1 394 5 is_stmt 1 view .LVU414
 1438              	.LVL118:
 395:/Users/joostbooy/Desktop/Code/stm32/lib/tinyusb/src/tusb.c **** 
ARM GAS  /var/folders/84/_x1cyy_j36g486tldtwl37280000gn/T//cc1u9wTp.s 			page 50


 1439              		.loc 1 395 5 view .LVU415
 1440              	.LBB121:
 1441              	.LBI121:
 1442              		.file 4 "/Users/joostbooy/Desktop/Code/stm32/lib/tinyusb/src/common/tusb_common.h"
   1:/Users/joostbooy/Desktop/Code/stm32/lib/tinyusb/src/common/tusb_common.h **** /*
   2:/Users/joostbooy/Desktop/Code/stm32/lib/tinyusb/src/common/tusb_common.h ****  * The MIT License (MIT)
   3:/Users/joostbooy/Desktop/Code/stm32/lib/tinyusb/src/common/tusb_common.h ****  *
   4:/Users/joostbooy/Desktop/Code/stm32/lib/tinyusb/src/common/tusb_common.h ****  * Copyright (c) 2019 Ha Thach (tinyusb.org)
   5:/Users/joostbooy/Desktop/Code/stm32/lib/tinyusb/src/common/tusb_common.h ****  *
   6:/Users/joostbooy/Desktop/Code/stm32/lib/tinyusb/src/common/tusb_common.h ****  * Permission is hereby granted, free of charge, to any person obtaining a copy
   7:/Users/joostbooy/Desktop/Code/stm32/lib/tinyusb/src/common/tusb_common.h ****  * of this software and associated documentation files (the "Software"), to deal
   8:/Users/joostbooy/Desktop/Code/stm32/lib/tinyusb/src/common/tusb_common.h ****  * in the Software without restriction, including without limitation the rights
   9:/Users/joostbooy/Desktop/Code/stm32/lib/tinyusb/src/common/tusb_common.h ****  * to use, copy, modify, merge, publish, distribute, sublicense, and/or sell
  10:/Users/joostbooy/Desktop/Code/stm32/lib/tinyusb/src/common/tusb_common.h ****  * copies of the Software, and to permit persons to whom the Software is
  11:/Users/joostbooy/Desktop/Code/stm32/lib/tinyusb/src/common/tusb_common.h ****  * furnished to do so, subject to the following conditions:
  12:/Users/joostbooy/Desktop/Code/stm32/lib/tinyusb/src/common/tusb_common.h ****  *
  13:/Users/joostbooy/Desktop/Code/stm32/lib/tinyusb/src/common/tusb_common.h ****  * The above copyright notice and this permission notice shall be included in
  14:/Users/joostbooy/Desktop/Code/stm32/lib/tinyusb/src/common/tusb_common.h ****  * all copies or substantial portions of the Software.
  15:/Users/joostbooy/Desktop/Code/stm32/lib/tinyusb/src/common/tusb_common.h ****  *
  16:/Users/joostbooy/Desktop/Code/stm32/lib/tinyusb/src/common/tusb_common.h ****  * THE SOFTWARE IS PROVIDED "AS IS", WITHOUT WARRANTY OF ANY KIND, EXPRESS OR
  17:/Users/joostbooy/Desktop/Code/stm32/lib/tinyusb/src/common/tusb_common.h ****  * IMPLIED, INCLUDING BUT NOT LIMITED TO THE WARRANTIES OF MERCHANTABILITY,
  18:/Users/joostbooy/Desktop/Code/stm32/lib/tinyusb/src/common/tusb_common.h ****  * FITNESS FOR A PARTICULAR PURPOSE AND NONINFRINGEMENT. IN NO EVENT SHALL THE
  19:/Users/joostbooy/Desktop/Code/stm32/lib/tinyusb/src/common/tusb_common.h ****  * AUTHORS OR COPYRIGHT HOLDERS BE LIABLE FOR ANY CLAIM, DAMAGES OR OTHER
  20:/Users/joostbooy/Desktop/Code/stm32/lib/tinyusb/src/common/tusb_common.h ****  * LIABILITY, WHETHER IN AN ACTION OF CONTRACT, TORT OR OTHERWISE, ARISING FROM,
  21:/Users/joostbooy/Desktop/Code/stm32/lib/tinyusb/src/common/tusb_common.h ****  * OUT OF OR IN CONNECTION WITH THE SOFTWARE OR THE USE OR OTHER DEALINGS IN
  22:/Users/joostbooy/Desktop/Code/stm32/lib/tinyusb/src/common/tusb_common.h ****  * THE SOFTWARE.
  23:/Users/joostbooy/Desktop/Code/stm32/lib/tinyusb/src/common/tusb_common.h ****  *
  24:/Users/joostbooy/Desktop/Code/stm32/lib/tinyusb/src/common/tusb_common.h ****  * This file is part of the TinyUSB stack.
  25:/Users/joostbooy/Desktop/Code/stm32/lib/tinyusb/src/common/tusb_common.h ****  */
  26:/Users/joostbooy/Desktop/Code/stm32/lib/tinyusb/src/common/tusb_common.h **** 
  27:/Users/joostbooy/Desktop/Code/stm32/lib/tinyusb/src/common/tusb_common.h **** #ifndef _TUSB_COMMON_H_
  28:/Users/joostbooy/Desktop/Code/stm32/lib/tinyusb/src/common/tusb_common.h **** #define _TUSB_COMMON_H_
  29:/Users/joostbooy/Desktop/Code/stm32/lib/tinyusb/src/common/tusb_common.h **** 
  30:/Users/joostbooy/Desktop/Code/stm32/lib/tinyusb/src/common/tusb_common.h **** #ifdef __cplusplus
  31:/Users/joostbooy/Desktop/Code/stm32/lib/tinyusb/src/common/tusb_common.h ****  extern "C" {
  32:/Users/joostbooy/Desktop/Code/stm32/lib/tinyusb/src/common/tusb_common.h **** #endif
  33:/Users/joostbooy/Desktop/Code/stm32/lib/tinyusb/src/common/tusb_common.h **** 
  34:/Users/joostbooy/Desktop/Code/stm32/lib/tinyusb/src/common/tusb_common.h **** //--------------------------------------------------------------------+
  35:/Users/joostbooy/Desktop/Code/stm32/lib/tinyusb/src/common/tusb_common.h **** // Macros Helper
  36:/Users/joostbooy/Desktop/Code/stm32/lib/tinyusb/src/common/tusb_common.h **** //--------------------------------------------------------------------+
  37:/Users/joostbooy/Desktop/Code/stm32/lib/tinyusb/src/common/tusb_common.h **** #define TU_ARRAY_SIZE(_arr)   ( sizeof(_arr) / sizeof(_arr[0]) )
  38:/Users/joostbooy/Desktop/Code/stm32/lib/tinyusb/src/common/tusb_common.h **** #define TU_MIN(_x, _y)        ( ( (_x) < (_y) ) ? (_x) : (_y) )
  39:/Users/joostbooy/Desktop/Code/stm32/lib/tinyusb/src/common/tusb_common.h **** #define TU_MAX(_x, _y)        ( ( (_x) > (_y) ) ? (_x) : (_y) )
  40:/Users/joostbooy/Desktop/Code/stm32/lib/tinyusb/src/common/tusb_common.h **** 
  41:/Users/joostbooy/Desktop/Code/stm32/lib/tinyusb/src/common/tusb_common.h **** #define TU_U16(_high, _low)   ((uint16_t) (((_high) << 8) | (_low)))
  42:/Users/joostbooy/Desktop/Code/stm32/lib/tinyusb/src/common/tusb_common.h **** #define TU_U16_HIGH(_u16)     ((uint8_t) (((_u16) >> 8) & 0x00ff))
  43:/Users/joostbooy/Desktop/Code/stm32/lib/tinyusb/src/common/tusb_common.h **** #define TU_U16_LOW(_u16)      ((uint8_t) ((_u16)       & 0x00ff))
  44:/Users/joostbooy/Desktop/Code/stm32/lib/tinyusb/src/common/tusb_common.h **** #define U16_TO_U8S_BE(_u16)   TU_U16_HIGH(_u16), TU_U16_LOW(_u16)
  45:/Users/joostbooy/Desktop/Code/stm32/lib/tinyusb/src/common/tusb_common.h **** #define U16_TO_U8S_LE(_u16)   TU_U16_LOW(_u16), TU_U16_HIGH(_u16)
  46:/Users/joostbooy/Desktop/Code/stm32/lib/tinyusb/src/common/tusb_common.h **** 
  47:/Users/joostbooy/Desktop/Code/stm32/lib/tinyusb/src/common/tusb_common.h **** #define TU_U32_BYTE3(_u32)    ((uint8_t) ((((uint32_t) _u32) >> 24) & 0x000000ff)) // MSB
  48:/Users/joostbooy/Desktop/Code/stm32/lib/tinyusb/src/common/tusb_common.h **** #define TU_U32_BYTE2(_u32)    ((uint8_t) ((((uint32_t) _u32) >> 16) & 0x000000ff))
  49:/Users/joostbooy/Desktop/Code/stm32/lib/tinyusb/src/common/tusb_common.h **** #define TU_U32_BYTE1(_u32)    ((uint8_t) ((((uint32_t) _u32) >>  8) & 0x000000ff))
  50:/Users/joostbooy/Desktop/Code/stm32/lib/tinyusb/src/common/tusb_common.h **** #define TU_U32_BYTE0(_u32)    ((uint8_t) (((uint32_t)  _u32)        & 0x000000ff)) // LSB
  51:/Users/joostbooy/Desktop/Code/stm32/lib/tinyusb/src/common/tusb_common.h **** 
  52:/Users/joostbooy/Desktop/Code/stm32/lib/tinyusb/src/common/tusb_common.h **** #define U32_TO_U8S_BE(_u32)   TU_U32_BYTE3(_u32), TU_U32_BYTE2(_u32), TU_U32_BYTE1(_u32), TU_U32_BY
  53:/Users/joostbooy/Desktop/Code/stm32/lib/tinyusb/src/common/tusb_common.h **** #define U32_TO_U8S_LE(_u32)   TU_U32_BYTE0(_u32), TU_U32_BYTE1(_u32), TU_U32_BYTE2(_u32), TU_U32_BY
ARM GAS  /var/folders/84/_x1cyy_j36g486tldtwl37280000gn/T//cc1u9wTp.s 			page 51


  54:/Users/joostbooy/Desktop/Code/stm32/lib/tinyusb/src/common/tusb_common.h **** 
  55:/Users/joostbooy/Desktop/Code/stm32/lib/tinyusb/src/common/tusb_common.h **** #define TU_BIT(n)             (1UL << (n))
  56:/Users/joostbooy/Desktop/Code/stm32/lib/tinyusb/src/common/tusb_common.h **** 
  57:/Users/joostbooy/Desktop/Code/stm32/lib/tinyusb/src/common/tusb_common.h **** // Generate a mask with bit from high (31) to low (0) set, e.g TU_GENMASK(3, 0) = 0b1111
  58:/Users/joostbooy/Desktop/Code/stm32/lib/tinyusb/src/common/tusb_common.h **** #define TU_GENMASK(h, l)      ( (UINT32_MAX << (l)) & (UINT32_MAX >> (31 - (h))) )
  59:/Users/joostbooy/Desktop/Code/stm32/lib/tinyusb/src/common/tusb_common.h **** 
  60:/Users/joostbooy/Desktop/Code/stm32/lib/tinyusb/src/common/tusb_common.h **** //--------------------------------------------------------------------+
  61:/Users/joostbooy/Desktop/Code/stm32/lib/tinyusb/src/common/tusb_common.h **** // Includes
  62:/Users/joostbooy/Desktop/Code/stm32/lib/tinyusb/src/common/tusb_common.h **** //--------------------------------------------------------------------+
  63:/Users/joostbooy/Desktop/Code/stm32/lib/tinyusb/src/common/tusb_common.h **** 
  64:/Users/joostbooy/Desktop/Code/stm32/lib/tinyusb/src/common/tusb_common.h **** // Standard Headers
  65:/Users/joostbooy/Desktop/Code/stm32/lib/tinyusb/src/common/tusb_common.h **** #include <stdbool.h>
  66:/Users/joostbooy/Desktop/Code/stm32/lib/tinyusb/src/common/tusb_common.h **** #include <stdint.h>
  67:/Users/joostbooy/Desktop/Code/stm32/lib/tinyusb/src/common/tusb_common.h **** #include <stddef.h>
  68:/Users/joostbooy/Desktop/Code/stm32/lib/tinyusb/src/common/tusb_common.h **** #include <string.h>
  69:/Users/joostbooy/Desktop/Code/stm32/lib/tinyusb/src/common/tusb_common.h **** #include <stdio.h>
  70:/Users/joostbooy/Desktop/Code/stm32/lib/tinyusb/src/common/tusb_common.h **** 
  71:/Users/joostbooy/Desktop/Code/stm32/lib/tinyusb/src/common/tusb_common.h **** // Tinyusb Common Headers
  72:/Users/joostbooy/Desktop/Code/stm32/lib/tinyusb/src/common/tusb_common.h **** #include "tusb_option.h"
  73:/Users/joostbooy/Desktop/Code/stm32/lib/tinyusb/src/common/tusb_common.h **** #include "tusb_compiler.h"
  74:/Users/joostbooy/Desktop/Code/stm32/lib/tinyusb/src/common/tusb_common.h **** #include "tusb_verify.h"
  75:/Users/joostbooy/Desktop/Code/stm32/lib/tinyusb/src/common/tusb_common.h **** #include "tusb_types.h"
  76:/Users/joostbooy/Desktop/Code/stm32/lib/tinyusb/src/common/tusb_common.h **** #include "tusb_debug.h"
  77:/Users/joostbooy/Desktop/Code/stm32/lib/tinyusb/src/common/tusb_common.h **** 
  78:/Users/joostbooy/Desktop/Code/stm32/lib/tinyusb/src/common/tusb_common.h **** //--------------------------------------------------------------------+
  79:/Users/joostbooy/Desktop/Code/stm32/lib/tinyusb/src/common/tusb_common.h **** // Optional API implemented by application if needed
  80:/Users/joostbooy/Desktop/Code/stm32/lib/tinyusb/src/common/tusb_common.h **** // TODO move to a more ovious place/file
  81:/Users/joostbooy/Desktop/Code/stm32/lib/tinyusb/src/common/tusb_common.h **** //--------------------------------------------------------------------+
  82:/Users/joostbooy/Desktop/Code/stm32/lib/tinyusb/src/common/tusb_common.h **** 
  83:/Users/joostbooy/Desktop/Code/stm32/lib/tinyusb/src/common/tusb_common.h **** // flush data cache
  84:/Users/joostbooy/Desktop/Code/stm32/lib/tinyusb/src/common/tusb_common.h **** TU_ATTR_WEAK extern void tusb_app_dcache_flush(uintptr_t addr, uint32_t data_size);
  85:/Users/joostbooy/Desktop/Code/stm32/lib/tinyusb/src/common/tusb_common.h **** 
  86:/Users/joostbooy/Desktop/Code/stm32/lib/tinyusb/src/common/tusb_common.h **** // invalidate data cache
  87:/Users/joostbooy/Desktop/Code/stm32/lib/tinyusb/src/common/tusb_common.h **** TU_ATTR_WEAK extern void tusb_app_dcache_invalidate(uintptr_t addr, uint32_t data_size);
  88:/Users/joostbooy/Desktop/Code/stm32/lib/tinyusb/src/common/tusb_common.h **** 
  89:/Users/joostbooy/Desktop/Code/stm32/lib/tinyusb/src/common/tusb_common.h **** // Optional physical <-> virtual address translation
  90:/Users/joostbooy/Desktop/Code/stm32/lib/tinyusb/src/common/tusb_common.h **** TU_ATTR_WEAK extern void* tusb_app_virt_to_phys(void *virt_addr);
  91:/Users/joostbooy/Desktop/Code/stm32/lib/tinyusb/src/common/tusb_common.h **** TU_ATTR_WEAK extern void* tusb_app_phys_to_virt(void *phys_addr);
  92:/Users/joostbooy/Desktop/Code/stm32/lib/tinyusb/src/common/tusb_common.h **** 
  93:/Users/joostbooy/Desktop/Code/stm32/lib/tinyusb/src/common/tusb_common.h **** //--------------------------------------------------------------------+
  94:/Users/joostbooy/Desktop/Code/stm32/lib/tinyusb/src/common/tusb_common.h **** // Internal Inline Functions
  95:/Users/joostbooy/Desktop/Code/stm32/lib/tinyusb/src/common/tusb_common.h **** //--------------------------------------------------------------------+
  96:/Users/joostbooy/Desktop/Code/stm32/lib/tinyusb/src/common/tusb_common.h **** 
  97:/Users/joostbooy/Desktop/Code/stm32/lib/tinyusb/src/common/tusb_common.h **** //------------- Mem -------------//
  98:/Users/joostbooy/Desktop/Code/stm32/lib/tinyusb/src/common/tusb_common.h **** #define tu_memclr(buffer, size)  memset((buffer), 0, (size))
  99:/Users/joostbooy/Desktop/Code/stm32/lib/tinyusb/src/common/tusb_common.h **** #define tu_varclr(_var)          tu_memclr(_var, sizeof(*(_var)))
 100:/Users/joostbooy/Desktop/Code/stm32/lib/tinyusb/src/common/tusb_common.h **** 
 101:/Users/joostbooy/Desktop/Code/stm32/lib/tinyusb/src/common/tusb_common.h **** // This is a backport of memset_s from c11
 102:/Users/joostbooy/Desktop/Code/stm32/lib/tinyusb/src/common/tusb_common.h **** TU_ATTR_ALWAYS_INLINE static inline int tu_memset_s(void *dest, size_t destsz, int ch, size_t count
 103:/Users/joostbooy/Desktop/Code/stm32/lib/tinyusb/src/common/tusb_common.h ****   // TODO may check if desst and src is not NULL
 104:/Users/joostbooy/Desktop/Code/stm32/lib/tinyusb/src/common/tusb_common.h ****   if ( count > destsz ) {
 105:/Users/joostbooy/Desktop/Code/stm32/lib/tinyusb/src/common/tusb_common.h ****     return -1;
 106:/Users/joostbooy/Desktop/Code/stm32/lib/tinyusb/src/common/tusb_common.h ****   }
 107:/Users/joostbooy/Desktop/Code/stm32/lib/tinyusb/src/common/tusb_common.h ****   memset(dest, ch, count);
 108:/Users/joostbooy/Desktop/Code/stm32/lib/tinyusb/src/common/tusb_common.h ****   return 0;
 109:/Users/joostbooy/Desktop/Code/stm32/lib/tinyusb/src/common/tusb_common.h **** }
 110:/Users/joostbooy/Desktop/Code/stm32/lib/tinyusb/src/common/tusb_common.h **** 
ARM GAS  /var/folders/84/_x1cyy_j36g486tldtwl37280000gn/T//cc1u9wTp.s 			page 52


 111:/Users/joostbooy/Desktop/Code/stm32/lib/tinyusb/src/common/tusb_common.h **** // This is a backport of memcpy_s from c11
 112:/Users/joostbooy/Desktop/Code/stm32/lib/tinyusb/src/common/tusb_common.h **** TU_ATTR_ALWAYS_INLINE static inline int tu_memcpy_s(void *dest, size_t destsz, const void *src, siz
 113:/Users/joostbooy/Desktop/Code/stm32/lib/tinyusb/src/common/tusb_common.h ****   // TODO may check if desst and src is not NULL
 114:/Users/joostbooy/Desktop/Code/stm32/lib/tinyusb/src/common/tusb_common.h ****   if ( count > destsz ) {
 115:/Users/joostbooy/Desktop/Code/stm32/lib/tinyusb/src/common/tusb_common.h ****     return -1;
 116:/Users/joostbooy/Desktop/Code/stm32/lib/tinyusb/src/common/tusb_common.h ****   }
 117:/Users/joostbooy/Desktop/Code/stm32/lib/tinyusb/src/common/tusb_common.h ****   memcpy(dest, src, count);
 118:/Users/joostbooy/Desktop/Code/stm32/lib/tinyusb/src/common/tusb_common.h ****   return 0;
 119:/Users/joostbooy/Desktop/Code/stm32/lib/tinyusb/src/common/tusb_common.h **** }
 120:/Users/joostbooy/Desktop/Code/stm32/lib/tinyusb/src/common/tusb_common.h **** 
 121:/Users/joostbooy/Desktop/Code/stm32/lib/tinyusb/src/common/tusb_common.h **** 
 122:/Users/joostbooy/Desktop/Code/stm32/lib/tinyusb/src/common/tusb_common.h **** //------------- Bytes -------------//
 123:/Users/joostbooy/Desktop/Code/stm32/lib/tinyusb/src/common/tusb_common.h **** TU_ATTR_ALWAYS_INLINE static inline uint32_t tu_u32(uint8_t b3, uint8_t b2, uint8_t b1, uint8_t b0)
 124:/Users/joostbooy/Desktop/Code/stm32/lib/tinyusb/src/common/tusb_common.h ****   return ( ((uint32_t) b3) << 24) | ( ((uint32_t) b2) << 16) | ( ((uint32_t) b1) << 8) | b0;
 125:/Users/joostbooy/Desktop/Code/stm32/lib/tinyusb/src/common/tusb_common.h **** }
 126:/Users/joostbooy/Desktop/Code/stm32/lib/tinyusb/src/common/tusb_common.h **** 
 127:/Users/joostbooy/Desktop/Code/stm32/lib/tinyusb/src/common/tusb_common.h **** TU_ATTR_ALWAYS_INLINE static inline uint16_t tu_u16(uint8_t high, uint8_t low) {
 128:/Users/joostbooy/Desktop/Code/stm32/lib/tinyusb/src/common/tusb_common.h ****   return (uint16_t) ((((uint16_t) high) << 8) | low);
 129:/Users/joostbooy/Desktop/Code/stm32/lib/tinyusb/src/common/tusb_common.h **** }
 130:/Users/joostbooy/Desktop/Code/stm32/lib/tinyusb/src/common/tusb_common.h **** 
 131:/Users/joostbooy/Desktop/Code/stm32/lib/tinyusb/src/common/tusb_common.h **** TU_ATTR_ALWAYS_INLINE static inline uint8_t tu_u32_byte3(uint32_t ui32) { return TU_U32_BYTE3(ui32)
 132:/Users/joostbooy/Desktop/Code/stm32/lib/tinyusb/src/common/tusb_common.h **** TU_ATTR_ALWAYS_INLINE static inline uint8_t tu_u32_byte2(uint32_t ui32) { return TU_U32_BYTE2(ui32)
 133:/Users/joostbooy/Desktop/Code/stm32/lib/tinyusb/src/common/tusb_common.h **** TU_ATTR_ALWAYS_INLINE static inline uint8_t tu_u32_byte1(uint32_t ui32) { return TU_U32_BYTE1(ui32)
 134:/Users/joostbooy/Desktop/Code/stm32/lib/tinyusb/src/common/tusb_common.h **** TU_ATTR_ALWAYS_INLINE static inline uint8_t tu_u32_byte0(uint32_t ui32) { return TU_U32_BYTE0(ui32)
 135:/Users/joostbooy/Desktop/Code/stm32/lib/tinyusb/src/common/tusb_common.h **** 
 136:/Users/joostbooy/Desktop/Code/stm32/lib/tinyusb/src/common/tusb_common.h **** TU_ATTR_ALWAYS_INLINE static inline uint16_t tu_u32_high16(uint32_t ui32) { return (uint16_t) (ui32
 137:/Users/joostbooy/Desktop/Code/stm32/lib/tinyusb/src/common/tusb_common.h **** TU_ATTR_ALWAYS_INLINE static inline uint16_t tu_u32_low16 (uint32_t ui32) { return (uint16_t) (ui32
 138:/Users/joostbooy/Desktop/Code/stm32/lib/tinyusb/src/common/tusb_common.h **** 
 139:/Users/joostbooy/Desktop/Code/stm32/lib/tinyusb/src/common/tusb_common.h **** TU_ATTR_ALWAYS_INLINE static inline uint8_t tu_u16_high(uint16_t ui16) { return TU_U16_HIGH(ui16); 
 140:/Users/joostbooy/Desktop/Code/stm32/lib/tinyusb/src/common/tusb_common.h **** TU_ATTR_ALWAYS_INLINE static inline uint8_t tu_u16_low (uint16_t ui16) { return TU_U16_LOW(ui16); }
 141:/Users/joostbooy/Desktop/Code/stm32/lib/tinyusb/src/common/tusb_common.h **** 
 142:/Users/joostbooy/Desktop/Code/stm32/lib/tinyusb/src/common/tusb_common.h **** //------------- Bits -------------//
 143:/Users/joostbooy/Desktop/Code/stm32/lib/tinyusb/src/common/tusb_common.h **** TU_ATTR_ALWAYS_INLINE static inline uint32_t tu_bit_set  (uint32_t value, uint8_t pos) { return val
 144:/Users/joostbooy/Desktop/Code/stm32/lib/tinyusb/src/common/tusb_common.h **** TU_ATTR_ALWAYS_INLINE static inline uint32_t tu_bit_clear(uint32_t value, uint8_t pos) { return val
 145:/Users/joostbooy/Desktop/Code/stm32/lib/tinyusb/src/common/tusb_common.h **** TU_ATTR_ALWAYS_INLINE static inline bool     tu_bit_test (uint32_t value, uint8_t pos) { return (va
 146:/Users/joostbooy/Desktop/Code/stm32/lib/tinyusb/src/common/tusb_common.h **** 
 147:/Users/joostbooy/Desktop/Code/stm32/lib/tinyusb/src/common/tusb_common.h **** //------------- Min -------------//
 148:/Users/joostbooy/Desktop/Code/stm32/lib/tinyusb/src/common/tusb_common.h **** TU_ATTR_ALWAYS_INLINE static inline uint8_t  tu_min8  (uint8_t  x, uint8_t y ) { return (x < y) ? x
 149:/Users/joostbooy/Desktop/Code/stm32/lib/tinyusb/src/common/tusb_common.h **** TU_ATTR_ALWAYS_INLINE static inline uint16_t tu_min16 (uint16_t x, uint16_t y) { return (x < y) ? x
 1443              		.loc 4 149 46 view .LVU416
 1444              	.LBB122:
 1445              		.loc 4 149 82 view .LVU417
 1446              		.loc 4 149 82 is_stmt 0 view .LVU418
 1447              	.LBE122:
 1448              	.LBE121:
 397:/Users/joostbooy/Desktop/Code/stm32/lib/tinyusb/src/tusb.c **** 
 1449              		.loc 1 397 5 is_stmt 1 view .LVU419
 397:/Users/joostbooy/Desktop/Code/stm32/lib/tinyusb/src/tusb.c **** 
 1450              		.loc 1 397 5 view .LVU420
 1451              	.LBB125:
 1452              	.LBI125:
 281:/Users/joostbooy/Desktop/Code/stm32/lib/tinyusb/src/tusb.c **** {
 1453              		.loc 1 281 6 view .LVU421
 1454              	.LBB126:
 283:/Users/joostbooy/Desktop/Code/stm32/lib/tinyusb/src/tusb.c ****   {
 1455              		.loc 1 283 3 view .LVU422
 283:/Users/joostbooy/Desktop/Code/stm32/lib/tinyusb/src/tusb.c ****   {
ARM GAS  /var/folders/84/_x1cyy_j36g486tldtwl37280000gn/T//cc1u9wTp.s 			page 53


 1456              		.loc 1 283 6 is_stmt 0 view .LVU423
 1457 0034 2278     		ldrb	r2, [r4]	@ zero_extendqisi2
 1458 0036 72B1     		cbz	r2, .L152
 1459              	.LVL119:
 1460              	.L156:
 283:/Users/joostbooy/Desktop/Code/stm32/lib/tinyusb/src/tusb.c ****   {
 1461              		.loc 1 283 6 view .LVU424
 1462              	.LBE126:
 1463              	.LBE125:
 397:/Users/joostbooy/Desktop/Code/stm32/lib/tinyusb/src/tusb.c **** 
 1464              		.loc 1 397 5 is_stmt 1 view .LVU425
 397:/Users/joostbooy/Desktop/Code/stm32/lib/tinyusb/src/tusb.c **** 
 1465              		.loc 1 397 5 view .LVU426
 397:/Users/joostbooy/Desktop/Code/stm32/lib/tinyusb/src/tusb.c **** 
 1466              		.loc 1 397 5 view .LVU427
 397:/Users/joostbooy/Desktop/Code/stm32/lib/tinyusb/src/tusb.c **** 
 1467              		.loc 1 397 5 view .LVU428
 1468              	.LBB130:
 397:/Users/joostbooy/Desktop/Code/stm32/lib/tinyusb/src/tusb.c **** 
 1469              		.loc 1 397 5 view .LVU429
 397:/Users/joostbooy/Desktop/Code/stm32/lib/tinyusb/src/tusb.c **** 
 1470              		.loc 1 397 5 view .LVU430
 1471 0038 124C     		ldr	r4, .L167
 1472              	.LVL120:
 397:/Users/joostbooy/Desktop/Code/stm32/lib/tinyusb/src/tusb.c **** 
 1473              		.loc 1 397 5 is_stmt 0 view .LVU431
 1474 003a 2068     		ldr	r0, [r4]
 1475 003c C307     		lsls	r3, r0, #31
 1476 003e EBD5     		bpl	.L162
 397:/Users/joostbooy/Desktop/Code/stm32/lib/tinyusb/src/tusb.c **** 
 1477              		.loc 1 397 5 is_stmt 1 discriminator 3 view .LVU432
 1478              		.syntax unified
 1479              	@ 397 "/Users/joostbooy/Desktop/Code/stm32/lib/tinyusb/src/tusb.c" 1
 1480 0040 00BE     		BKPT #0
 1481              	
 1482              	@ 0 "" 2
 1483              		.thumb
 1484              		.syntax unified
 1485 0042 E9E7     		b	.L162
 1486              	.LVL121:
 1487              	.L151:
 397:/Users/joostbooy/Desktop/Code/stm32/lib/tinyusb/src/tusb.c **** 
 1488              		.loc 1 397 5 is_stmt 0 discriminator 3 view .LVU433
 1489              	.LBE130:
 1490              	.LBE137:
 403:/Users/joostbooy/Desktop/Code/stm32/lib/tinyusb/src/tusb.c ****     return 0;
 1491              		.loc 1 403 5 is_stmt 1 view .LVU434
 1492              	.LBB138:
 1493              	.LBI138:
 299:/Users/joostbooy/Desktop/Code/stm32/lib/tinyusb/src/tusb.c **** {
 1494              		.loc 1 299 6 view .LVU435
 1495              	.LBB139:
 301:/Users/joostbooy/Desktop/Code/stm32/lib/tinyusb/src/tusb.c ****   {
 1496              		.loc 1 301 3 view .LVU436
 301:/Users/joostbooy/Desktop/Code/stm32/lib/tinyusb/src/tusb.c ****   {
 1497              		.loc 1 301 6 is_stmt 0 view .LVU437
 1498 0044 2578     		ldrb	r5, [r4]	@ zero_extendqisi2
ARM GAS  /var/folders/84/_x1cyy_j36g486tldtwl37280000gn/T//cc1u9wTp.s 			page 54


 1499 0046 002D     		cmp	r5, #0
 1500 0048 E6D1     		bne	.L162
 309:/Users/joostbooy/Desktop/Code/stm32/lib/tinyusb/src/tusb.c ****     #endif
 1501              		.loc 1 309 5 is_stmt 1 view .LVU438
 309:/Users/joostbooy/Desktop/Code/stm32/lib/tinyusb/src/tusb.c ****     #endif
 1502              		.loc 1 309 12 is_stmt 0 view .LVU439
 1503 004a A178     		ldrb	r1, [r4, #2]	@ zero_extendqisi2
 1504 004c 6078     		ldrb	r0, [r4, #1]	@ zero_extendqisi2
 1505              	.LVL122:
 309:/Users/joostbooy/Desktop/Code/stm32/lib/tinyusb/src/tusb.c ****     #endif
 1506              		.loc 1 309 12 view .LVU440
 1507 004e FFF7FEFF 		bl	usbd_edpt_release
 1508              	.LVL123:
 1509              	.LBE139:
 1510              	.LBE138:
 404:/Users/joostbooy/Desktop/Code/stm32/lib/tinyusb/src/tusb.c ****   }
 1511              		.loc 1 404 12 view .LVU441
 1512 0052 2846     		mov	r0, r5
 1513              	.LVL124:
 1514              	.L166:
 1515              		.loc 1 406 1 view .LVU442
 1516 0054 38BD     		pop	{r3, r4, r5, pc}
 1517              	.LVL125:
 1518              	.L152:
 1519              	.LBB140:
 394:/Users/joostbooy/Desktop/Code/stm32/lib/tinyusb/src/tusb.c ****     count = tu_min16(count, s->ep_bufsize);
 1520              		.loc 1 394 44 view .LVU443
 1521 0056 4B42     		rsbs	r3, r1, #0
 1522              	.LBB131:
 1523              	.LBB123:
 1524              		.loc 4 149 101 view .LVU444
 1525 0058 B4F806C0 		ldrh	ip, [r4, #6]
 1526              	.LBE123:
 1527              	.LBE131:
 1528              	.LBB132:
 1529              	.LBB127:
 291:/Users/joostbooy/Desktop/Code/stm32/lib/tinyusb/src/tusb.c ****     #endif
 1530              		.loc 1 291 12 view .LVU445
 1531 005c A178     		ldrb	r1, [r4, #2]	@ zero_extendqisi2
 1532              	.LVL126:
 291:/Users/joostbooy/Desktop/Code/stm32/lib/tinyusb/src/tusb.c ****     #endif
 1533              		.loc 1 291 12 view .LVU446
 1534              	.LBE127:
 1535              	.LBE132:
 394:/Users/joostbooy/Desktop/Code/stm32/lib/tinyusb/src/tusb.c ****     count = tu_min16(count, s->ep_bufsize);
 1536              		.loc 1 394 44 view .LVU447
 1537 005e 03EA0005 		and	r5, r3, r0
 1538              	.LBB133:
 1539              	.LBB124:
 1540              		.loc 4 149 101 view .LVU448
 1541 0062 ADB2     		uxth	r5, r5
 1542 0064 6545     		cmp	r5, ip
 1543 0066 28BF     		it	cs
 1544 0068 6546     		movcs	r5, ip
 1545              	.LBE124:
 1546              	.LBE133:
 1547              	.LBB134:
ARM GAS  /var/folders/84/_x1cyy_j36g486tldtwl37280000gn/T//cc1u9wTp.s 			page 55


 1548              	.LBB128:
 291:/Users/joostbooy/Desktop/Code/stm32/lib/tinyusb/src/tusb.c ****     #endif
 1549              		.loc 1 291 5 is_stmt 1 view .LVU449
 291:/Users/joostbooy/Desktop/Code/stm32/lib/tinyusb/src/tusb.c ****     #endif
 1550              		.loc 1 291 12 is_stmt 0 view .LVU450
 1551 006a 6078     		ldrb	r0, [r4, #1]	@ zero_extendqisi2
 1552              	.LVL127:
 291:/Users/joostbooy/Desktop/Code/stm32/lib/tinyusb/src/tusb.c ****     #endif
 1553              		.loc 1 291 12 view .LVU451
 1554 006c 3DB1     		cbz	r5, .L157
 1555 006e A268     		ldr	r2, [r4, #8]
 1556              	.L154:
 291:/Users/joostbooy/Desktop/Code/stm32/lib/tinyusb/src/tusb.c ****     #endif
 1557              		.loc 1 291 12 view .LVU452
 1558 0070 2B46     		mov	r3, r5
 291:/Users/joostbooy/Desktop/Code/stm32/lib/tinyusb/src/tusb.c ****     #endif
 1559              		.loc 1 291 12 view .LVU453
 1560 0072 FFF7FEFF 		bl	usbd_edpt_xfer
 1561              	.LVL128:
 291:/Users/joostbooy/Desktop/Code/stm32/lib/tinyusb/src/tusb.c ****     #endif
 1562              		.loc 1 291 12 view .LVU454
 1563              	.LBE128:
 1564              	.LBE134:
 397:/Users/joostbooy/Desktop/Code/stm32/lib/tinyusb/src/tusb.c **** 
 1565              		.loc 1 397 5 view .LVU455
 1566 0076 0028     		cmp	r0, #0
 1567 0078 DED0     		beq	.L156
 1568              	.LBE140:
 404:/Users/joostbooy/Desktop/Code/stm32/lib/tinyusb/src/tusb.c ****   }
 1569              		.loc 1 404 12 view .LVU456
 1570 007a 2846     		mov	r0, r5
 1571 007c EAE7     		b	.L166
 1572              	.LVL129:
 1573              	.L157:
 1574              	.LBB141:
 1575              	.LBB135:
 1576              	.LBB129:
 291:/Users/joostbooy/Desktop/Code/stm32/lib/tinyusb/src/tusb.c ****     #endif
 1577              		.loc 1 291 12 view .LVU457
 1578 007e 2A46     		mov	r2, r5
 1579 0080 F6E7     		b	.L154
 1580              	.L168:
 1581 0082 00BF     		.align	2
 1582              	.L167:
 1583 0084 F0ED00E0 		.word	-536810000
 1584              	.LBE129:
 1585              	.LBE135:
 1586              	.LBE141:
 1587              		.cfi_endproc
 1588              	.LFE96:
 1590              		.section	.text.tu_edpt_stream_read,"ax",%progbits
 1591              		.align	1
 1592              		.p2align 2,,3
 1593              		.global	tu_edpt_stream_read
 1594              		.syntax unified
 1595              		.thumb
 1596              		.thumb_func
ARM GAS  /var/folders/84/_x1cyy_j36g486tldtwl37280000gn/T//cc1u9wTp.s 			page 56


 1597              		.fpu fpv4-sp-d16
 1599              	tu_edpt_stream_read:
 1600              	.LVL130:
 1601              	.LFB97:
 407:/Users/joostbooy/Desktop/Code/stm32/lib/tinyusb/src/tusb.c **** 
 408:/Users/joostbooy/Desktop/Code/stm32/lib/tinyusb/src/tusb.c **** uint32_t tu_edpt_stream_read(tu_edpt_stream_t* s, void* buffer, uint32_t bufsize)
 409:/Users/joostbooy/Desktop/Code/stm32/lib/tinyusb/src/tusb.c **** {
 1602              		.loc 1 409 1 is_stmt 1 view -0
 1603              		.cfi_startproc
 1604              		@ args = 0, pretend = 0, frame = 0
 1605              		@ frame_needed = 0, uses_anonymous_args = 0
 410:/Users/joostbooy/Desktop/Code/stm32/lib/tinyusb/src/tusb.c ****   uint32_t num_read = tu_fifo_read_n(&s->ff, buffer, (uint16_t) bufsize);
 1606              		.loc 1 410 3 view .LVU459
 409:/Users/joostbooy/Desktop/Code/stm32/lib/tinyusb/src/tusb.c ****   uint32_t num_read = tu_fifo_read_n(&s->ff, buffer, (uint16_t) bufsize);
 1607              		.loc 1 409 1 is_stmt 0 view .LVU460
 1608 0000 38B5     		push	{r3, r4, r5, lr}
 1609              		.cfi_def_cfa_offset 16
 1610              		.cfi_offset 3, -16
 1611              		.cfi_offset 4, -12
 1612              		.cfi_offset 5, -8
 1613              		.cfi_offset 14, -4
 1614              		.loc 1 410 23 view .LVU461
 1615 0002 92B2     		uxth	r2, r2
 1616              	.LVL131:
 409:/Users/joostbooy/Desktop/Code/stm32/lib/tinyusb/src/tusb.c ****   uint32_t num_read = tu_fifo_read_n(&s->ff, buffer, (uint16_t) bufsize);
 1617              		.loc 1 409 1 view .LVU462
 1618 0004 0446     		mov	r4, r0
 1619              		.loc 1 410 23 view .LVU463
 1620 0006 0C30     		adds	r0, r0, #12
 1621              	.LVL132:
 1622              		.loc 1 410 23 view .LVU464
 1623 0008 FFF7FEFF 		bl	tu_fifo_read_n
 1624              	.LVL133:
 1625              		.loc 1 410 23 view .LVU465
 1626 000c 0546     		mov	r5, r0
 1627              	.LVL134:
 411:/Users/joostbooy/Desktop/Code/stm32/lib/tinyusb/src/tusb.c ****   tu_edpt_stream_read_xfer(s);
 1628              		.loc 1 411 3 is_stmt 1 view .LVU466
 1629 000e 2046     		mov	r0, r4
 1630 0010 FFF7FEFF 		bl	tu_edpt_stream_read_xfer
 1631              	.LVL135:
 412:/Users/joostbooy/Desktop/Code/stm32/lib/tinyusb/src/tusb.c ****   return num_read;
 1632              		.loc 1 412 3 view .LVU467
 413:/Users/joostbooy/Desktop/Code/stm32/lib/tinyusb/src/tusb.c **** }
 1633              		.loc 1 413 1 is_stmt 0 view .LVU468
 1634 0014 2846     		mov	r0, r5
 1635 0016 38BD     		pop	{r3, r4, r5, pc}
 1636              		.loc 1 413 1 view .LVU469
 1637              		.cfi_endproc
 1638              	.LFE97:
 1640              		.text
 1641              	.Letext0:
 1642              		.file 5 "/usr/local/Caskroom/gcc-arm-embedded/9-2019-q4-major/gcc-arm-none-eabi-9-2019-q4-major/ar
 1643              		.file 6 "/usr/local/Caskroom/gcc-arm-embedded/9-2019-q4-major/gcc-arm-none-eabi-9-2019-q4-major/ar
 1644              		.file 7 "/usr/local/Caskroom/gcc-arm-embedded/9-2019-q4-major/gcc-arm-none-eabi-9-2019-q4-major/ar
 1645              		.file 8 "/usr/local/Caskroom/gcc-arm-embedded/9-2019-q4-major/gcc-arm-none-eabi-9-2019-q4-major/ar
 1646              		.file 9 "/usr/local/Caskroom/gcc-arm-embedded/9-2019-q4-major/gcc-arm-none-eabi-9-2019-q4-major/li
ARM GAS  /var/folders/84/_x1cyy_j36g486tldtwl37280000gn/T//cc1u9wTp.s 			page 57


 1647              		.file 10 "/usr/local/Caskroom/gcc-arm-embedded/9-2019-q4-major/gcc-arm-none-eabi-9-2019-q4-major/a
 1648              		.file 11 "/Users/joostbooy/Desktop/Code/stm32/lib/tinyusb/src/osal/osal_none.h"
 1649              		.file 12 "/Users/joostbooy/Desktop/Code/stm32/lib/tinyusb/src/common/tusb_private.h"
 1650              		.file 13 "/Users/joostbooy/Desktop/Code/stm32/lib/tinyusb/src/device/usbd_pvt.h"
 1651              		.file 14 "/Users/joostbooy/Desktop/Code/stm32/lib/tinyusb/src/device/usbd.h"
ARM GAS  /var/folders/84/_x1cyy_j36g486tldtwl37280000gn/T//cc1u9wTp.s 			page 58

