ARM GAS  /var/folders/84/_x1cyy_j36g486tldtwl37280000gn/T//ccjZARG3.s 			page 1


   1              		.cpu cortex-m4
   2              		.eabi_attribute 27, 1
   3              		.eabi_attribute 28, 1
   4              		.eabi_attribute 20, 1
   5              		.eabi_attribute 21, 1
   6              		.eabi_attribute 23, 3
   7              		.eabi_attribute 24, 1
   8              		.eabi_attribute 25, 1
   9              		.eabi_attribute 26, 1
  10              		.eabi_attribute 30, 2
  11              		.eabi_attribute 34, 1
  12              		.eabi_attribute 18, 4
  13              		.file	"uart.cpp"
  14              		.text
  15              	.Ltext0:
  16              		.cfi_sections	.debug_frame
  17              		.section	.text._ZN4Uart7write_1Eh,"axG",%progbits,_ZN4Uart7write_1Eh,comdat
  18              		.align	1
  19              		.p2align 2,,3
  20              		.weak	_ZN4Uart7write_1Eh
  21              		.arch armv7e-m
  22              		.syntax unified
  23              		.thumb
  24              		.thumb_func
  25              		.fpu fpv4-sp-d16
  27              	_ZN4Uart7write_1Eh:
  28              	.LVL0:
  29              	.LFB1978:
  30              		.file 1 "Drivers/uart.h"
   1:Drivers/uart.h **** #ifndef uart_h
   2:Drivers/uart.h **** #define uart_h
   3:Drivers/uart.h **** 
   4:Drivers/uart.h **** #include "stmf4lib.h"
   5:Drivers/uart.h **** 
   6:Drivers/uart.h **** class Uart {
   7:Drivers/uart.h **** 
   8:Drivers/uart.h **** public:
   9:Drivers/uart.h **** 	void init();
  10:Drivers/uart.h **** 
  11:Drivers/uart.h **** 	inline void write(uint8_t index, uint8_t data) {
  12:Drivers/uart.h **** 		port[index].write(data);
  13:Drivers/uart.h **** 	}
  14:Drivers/uart.h **** 
  15:Drivers/uart.h **** 	inline bool writeable(uint8_t index) {
  16:Drivers/uart.h **** 		return port[index].writeable();
  17:Drivers/uart.h **** 	}
  18:Drivers/uart.h **** 
  19:Drivers/uart.h **** 	inline uint8_t read(uint8_t index) {
  20:Drivers/uart.h **** 		return port[index].read();
  21:Drivers/uart.h **** 	}
  22:Drivers/uart.h **** 
  23:Drivers/uart.h **** 	inline bool readable(uint8_t index) {
  24:Drivers/uart.h **** 		return port[index].readable();
  25:Drivers/uart.h **** 	}
  26:Drivers/uart.h **** 
  27:Drivers/uart.h **** private:
  28:Drivers/uart.h **** 
ARM GAS  /var/folders/84/_x1cyy_j36g486tldtwl37280000gn/T//ccjZARG3.s 			page 2


  29:Drivers/uart.h **** 	// MIDI 1 - USART 6
  30:Drivers/uart.h **** 	static inline void write_1(uint8_t data) {
  31              		.loc 1 30 21 view -0
  32              		.cfi_startproc
  33              		@ args = 0, pretend = 0, frame = 0
  34              		@ frame_needed = 0, uses_anonymous_args = 0
  35              		@ link register save eliminated.
  31:Drivers/uart.h **** 		USART6->DR = data;
  36              		.loc 1 31 3 view .LVU1
  37              		.loc 1 31 14 is_stmt 0 view .LVU2
  38 0000 014B     		ldr	r3, .L3
  39 0002 5860     		str	r0, [r3, #4]
  32:Drivers/uart.h **** 	}
  40              		.loc 1 32 2 view .LVU3
  41 0004 7047     		bx	lr
  42              	.L4:
  43 0006 00BF     		.align	2
  44              	.L3:
  45 0008 00140140 		.word	1073812480
  46              		.cfi_endproc
  47              	.LFE1978:
  49              		.section	.text._ZN4Uart11writeable_1Ev,"axG",%progbits,_ZN4Uart11writeable_1Ev,comdat
  50              		.align	1
  51              		.p2align 2,,3
  52              		.weak	_ZN4Uart11writeable_1Ev
  53              		.syntax unified
  54              		.thumb
  55              		.thumb_func
  56              		.fpu fpv4-sp-d16
  58              	_ZN4Uart11writeable_1Ev:
  59              	.LFB1979:
  33:Drivers/uart.h **** 
  34:Drivers/uart.h **** 	static inline bool writeable_1() {
  60              		.loc 1 34 21 is_stmt 1 view -0
  61              		.cfi_startproc
  62              		@ args = 0, pretend = 0, frame = 0
  63              		@ frame_needed = 0, uses_anonymous_args = 0
  64              		@ link register save eliminated.
  35:Drivers/uart.h **** 		return USART6->SR & UART_FLAG_TXE;
  65              		.loc 1 35 3 view .LVU5
  66              		.loc 1 35 18 is_stmt 0 view .LVU6
  67 0000 024B     		ldr	r3, .L6
  68 0002 1868     		ldr	r0, [r3]
  36:Drivers/uart.h **** 	}
  69              		.loc 1 36 2 view .LVU7
  70 0004 C0F3C010 		ubfx	r0, r0, #7, #1
  71 0008 7047     		bx	lr
  72              	.L7:
  73 000a 00BF     		.align	2
  74              	.L6:
  75 000c 00140140 		.word	1073812480
  76              		.cfi_endproc
  77              	.LFE1979:
  79              		.section	.text._ZN4Uart6read_1Ev,"axG",%progbits,_ZN4Uart6read_1Ev,comdat
  80              		.align	1
  81              		.p2align 2,,3
  82              		.weak	_ZN4Uart6read_1Ev
ARM GAS  /var/folders/84/_x1cyy_j36g486tldtwl37280000gn/T//ccjZARG3.s 			page 3


  83              		.syntax unified
  84              		.thumb
  85              		.thumb_func
  86              		.fpu fpv4-sp-d16
  88              	_ZN4Uart6read_1Ev:
  89              	.LFB1980:
  37:Drivers/uart.h **** 
  38:Drivers/uart.h **** 	static inline uint8_t read_1() {
  90              		.loc 1 38 24 is_stmt 1 view -0
  91              		.cfi_startproc
  92              		@ args = 0, pretend = 0, frame = 0
  93              		@ frame_needed = 0, uses_anonymous_args = 0
  94              		@ link register save eliminated.
  39:Drivers/uart.h **** 		return USART6->DR;
  95              		.loc 1 39 3 view .LVU9
  96              		.loc 1 39 18 is_stmt 0 view .LVU10
  97 0000 014B     		ldr	r3, .L9
  98 0002 5868     		ldr	r0, [r3, #4]
  40:Drivers/uart.h **** 	}
  99              		.loc 1 40 2 view .LVU11
 100 0004 C0B2     		uxtb	r0, r0
 101 0006 7047     		bx	lr
 102              	.L10:
 103              		.align	2
 104              	.L9:
 105 0008 00140140 		.word	1073812480
 106              		.cfi_endproc
 107              	.LFE1980:
 109              		.section	.text._ZN4Uart10readable_1Ev,"axG",%progbits,_ZN4Uart10readable_1Ev,comdat
 110              		.align	1
 111              		.p2align 2,,3
 112              		.weak	_ZN4Uart10readable_1Ev
 113              		.syntax unified
 114              		.thumb
 115              		.thumb_func
 116              		.fpu fpv4-sp-d16
 118              	_ZN4Uart10readable_1Ev:
 119              	.LFB1981:
  41:Drivers/uart.h **** 
  42:Drivers/uart.h **** 	static inline bool readable_1() {
 120              		.loc 1 42 21 is_stmt 1 view -0
 121              		.cfi_startproc
 122              		@ args = 0, pretend = 0, frame = 0
 123              		@ frame_needed = 0, uses_anonymous_args = 0
 124              		@ link register save eliminated.
  43:Drivers/uart.h **** 		return USART6->SR & UART_FLAG_RXNE;
 125              		.loc 1 43 3 view .LVU13
 126              		.loc 1 43 18 is_stmt 0 view .LVU14
 127 0000 024B     		ldr	r3, .L12
 128 0002 1868     		ldr	r0, [r3]
  44:Drivers/uart.h **** 	}
 129              		.loc 1 44 2 view .LVU15
 130 0004 C0F34010 		ubfx	r0, r0, #5, #1
 131 0008 7047     		bx	lr
 132              	.L13:
 133 000a 00BF     		.align	2
 134              	.L12:
ARM GAS  /var/folders/84/_x1cyy_j36g486tldtwl37280000gn/T//ccjZARG3.s 			page 4


 135 000c 00140140 		.word	1073812480
 136              		.cfi_endproc
 137              	.LFE1981:
 139              		.section	.text._ZN4Uart7write_2Eh,"axG",%progbits,_ZN4Uart7write_2Eh,comdat
 140              		.align	1
 141              		.p2align 2,,3
 142              		.weak	_ZN4Uart7write_2Eh
 143              		.syntax unified
 144              		.thumb
 145              		.thumb_func
 146              		.fpu fpv4-sp-d16
 148              	_ZN4Uart7write_2Eh:
 149              	.LVL1:
 150              	.LFB1982:
  45:Drivers/uart.h **** 
  46:Drivers/uart.h **** 	// MIDI 2 - USART 2
  47:Drivers/uart.h **** 	static inline void write_2(uint8_t data) {
 151              		.loc 1 47 21 is_stmt 1 view -0
 152              		.cfi_startproc
 153              		@ args = 0, pretend = 0, frame = 0
 154              		@ frame_needed = 0, uses_anonymous_args = 0
 155              		@ link register save eliminated.
  48:Drivers/uart.h **** 		USART2->DR = data;
 156              		.loc 1 48 3 view .LVU17
 157              		.loc 1 48 14 is_stmt 0 view .LVU18
 158 0000 014B     		ldr	r3, .L15
 159 0002 5860     		str	r0, [r3, #4]
  49:Drivers/uart.h **** 	}
 160              		.loc 1 49 2 view .LVU19
 161 0004 7047     		bx	lr
 162              	.L16:
 163 0006 00BF     		.align	2
 164              	.L15:
 165 0008 00440040 		.word	1073759232
 166              		.cfi_endproc
 167              	.LFE1982:
 169              		.section	.text._ZN4Uart11writeable_2Ev,"axG",%progbits,_ZN4Uart11writeable_2Ev,comdat
 170              		.align	1
 171              		.p2align 2,,3
 172              		.weak	_ZN4Uart11writeable_2Ev
 173              		.syntax unified
 174              		.thumb
 175              		.thumb_func
 176              		.fpu fpv4-sp-d16
 178              	_ZN4Uart11writeable_2Ev:
 179              	.LFB1983:
  50:Drivers/uart.h **** 
  51:Drivers/uart.h **** 	static inline bool writeable_2() {
 180              		.loc 1 51 21 is_stmt 1 view -0
 181              		.cfi_startproc
 182              		@ args = 0, pretend = 0, frame = 0
 183              		@ frame_needed = 0, uses_anonymous_args = 0
 184              		@ link register save eliminated.
  52:Drivers/uart.h **** 		return USART2->SR & UART_FLAG_TXE;
 185              		.loc 1 52 3 view .LVU21
 186              		.loc 1 52 18 is_stmt 0 view .LVU22
 187 0000 024B     		ldr	r3, .L18
ARM GAS  /var/folders/84/_x1cyy_j36g486tldtwl37280000gn/T//ccjZARG3.s 			page 5


 188 0002 1868     		ldr	r0, [r3]
  53:Drivers/uart.h **** 	}
 189              		.loc 1 53 2 view .LVU23
 190 0004 C0F3C010 		ubfx	r0, r0, #7, #1
 191 0008 7047     		bx	lr
 192              	.L19:
 193 000a 00BF     		.align	2
 194              	.L18:
 195 000c 00440040 		.word	1073759232
 196              		.cfi_endproc
 197              	.LFE1983:
 199              		.section	.text._ZN4Uart6read_2Ev,"axG",%progbits,_ZN4Uart6read_2Ev,comdat
 200              		.align	1
 201              		.p2align 2,,3
 202              		.weak	_ZN4Uart6read_2Ev
 203              		.syntax unified
 204              		.thumb
 205              		.thumb_func
 206              		.fpu fpv4-sp-d16
 208              	_ZN4Uart6read_2Ev:
 209              	.LFB1984:
  54:Drivers/uart.h **** 
  55:Drivers/uart.h **** 	static inline uint8_t read_2() {
 210              		.loc 1 55 24 is_stmt 1 view -0
 211              		.cfi_startproc
 212              		@ args = 0, pretend = 0, frame = 0
 213              		@ frame_needed = 0, uses_anonymous_args = 0
 214              		@ link register save eliminated.
  56:Drivers/uart.h **** 		return USART2->DR;
 215              		.loc 1 56 3 view .LVU25
 216              		.loc 1 56 18 is_stmt 0 view .LVU26
 217 0000 014B     		ldr	r3, .L21
 218 0002 5868     		ldr	r0, [r3, #4]
  57:Drivers/uart.h **** 	}
 219              		.loc 1 57 2 view .LVU27
 220 0004 C0B2     		uxtb	r0, r0
 221 0006 7047     		bx	lr
 222              	.L22:
 223              		.align	2
 224              	.L21:
 225 0008 00440040 		.word	1073759232
 226              		.cfi_endproc
 227              	.LFE1984:
 229              		.section	.text._ZN4Uart10readable_2Ev,"axG",%progbits,_ZN4Uart10readable_2Ev,comdat
 230              		.align	1
 231              		.p2align 2,,3
 232              		.weak	_ZN4Uart10readable_2Ev
 233              		.syntax unified
 234              		.thumb
 235              		.thumb_func
 236              		.fpu fpv4-sp-d16
 238              	_ZN4Uart10readable_2Ev:
 239              	.LFB1985:
  58:Drivers/uart.h **** 
  59:Drivers/uart.h **** 	static inline bool readable_2() {
 240              		.loc 1 59 21 is_stmt 1 view -0
 241              		.cfi_startproc
ARM GAS  /var/folders/84/_x1cyy_j36g486tldtwl37280000gn/T//ccjZARG3.s 			page 6


 242              		@ args = 0, pretend = 0, frame = 0
 243              		@ frame_needed = 0, uses_anonymous_args = 0
 244              		@ link register save eliminated.
  60:Drivers/uart.h **** 		return USART2->SR & UART_FLAG_RXNE;
 245              		.loc 1 60 3 view .LVU29
 246              		.loc 1 60 18 is_stmt 0 view .LVU30
 247 0000 024B     		ldr	r3, .L24
 248 0002 1868     		ldr	r0, [r3]
  61:Drivers/uart.h **** 	}
 249              		.loc 1 61 2 view .LVU31
 250 0004 C0F34010 		ubfx	r0, r0, #5, #1
 251 0008 7047     		bx	lr
 252              	.L25:
 253 000a 00BF     		.align	2
 254              	.L24:
 255 000c 00440040 		.word	1073759232
 256              		.cfi_endproc
 257              	.LFE1985:
 259              		.section	.text._ZN4Uart7write_3Eh,"axG",%progbits,_ZN4Uart7write_3Eh,comdat
 260              		.align	1
 261              		.p2align 2,,3
 262              		.weak	_ZN4Uart7write_3Eh
 263              		.syntax unified
 264              		.thumb
 265              		.thumb_func
 266              		.fpu fpv4-sp-d16
 268              	_ZN4Uart7write_3Eh:
 269              	.LVL2:
 270              	.LFB1986:
  62:Drivers/uart.h **** 
  63:Drivers/uart.h **** 	// MIDI 3 - USART 3
  64:Drivers/uart.h **** 	static inline void write_3(uint8_t data) {
 271              		.loc 1 64 21 is_stmt 1 view -0
 272              		.cfi_startproc
 273              		@ args = 0, pretend = 0, frame = 0
 274              		@ frame_needed = 0, uses_anonymous_args = 0
 275              		@ link register save eliminated.
  65:Drivers/uart.h **** 		USART3->DR = data;
 276              		.loc 1 65 3 view .LVU33
 277              		.loc 1 65 14 is_stmt 0 view .LVU34
 278 0000 014B     		ldr	r3, .L27
 279 0002 5860     		str	r0, [r3, #4]
  66:Drivers/uart.h **** 	}
 280              		.loc 1 66 2 view .LVU35
 281 0004 7047     		bx	lr
 282              	.L28:
 283 0006 00BF     		.align	2
 284              	.L27:
 285 0008 00480040 		.word	1073760256
 286              		.cfi_endproc
 287              	.LFE1986:
 289              		.section	.text._ZN4Uart11writeable_3Ev,"axG",%progbits,_ZN4Uart11writeable_3Ev,comdat
 290              		.align	1
 291              		.p2align 2,,3
 292              		.weak	_ZN4Uart11writeable_3Ev
 293              		.syntax unified
 294              		.thumb
ARM GAS  /var/folders/84/_x1cyy_j36g486tldtwl37280000gn/T//ccjZARG3.s 			page 7


 295              		.thumb_func
 296              		.fpu fpv4-sp-d16
 298              	_ZN4Uart11writeable_3Ev:
 299              	.LFB1987:
  67:Drivers/uart.h **** 
  68:Drivers/uart.h **** 	static inline bool writeable_3() {
 300              		.loc 1 68 21 is_stmt 1 view -0
 301              		.cfi_startproc
 302              		@ args = 0, pretend = 0, frame = 0
 303              		@ frame_needed = 0, uses_anonymous_args = 0
 304              		@ link register save eliminated.
  69:Drivers/uart.h **** 		return USART3->SR & UART_FLAG_TXE;
 305              		.loc 1 69 3 view .LVU37
 306              		.loc 1 69 18 is_stmt 0 view .LVU38
 307 0000 024B     		ldr	r3, .L30
 308 0002 1868     		ldr	r0, [r3]
  70:Drivers/uart.h **** 	}
 309              		.loc 1 70 2 view .LVU39
 310 0004 C0F3C010 		ubfx	r0, r0, #7, #1
 311 0008 7047     		bx	lr
 312              	.L31:
 313 000a 00BF     		.align	2
 314              	.L30:
 315 000c 00480040 		.word	1073760256
 316              		.cfi_endproc
 317              	.LFE1987:
 319              		.section	.text._ZN4Uart6read_3Ev,"axG",%progbits,_ZN4Uart6read_3Ev,comdat
 320              		.align	1
 321              		.p2align 2,,3
 322              		.weak	_ZN4Uart6read_3Ev
 323              		.syntax unified
 324              		.thumb
 325              		.thumb_func
 326              		.fpu fpv4-sp-d16
 328              	_ZN4Uart6read_3Ev:
 329              	.LFB1988:
  71:Drivers/uart.h **** 
  72:Drivers/uart.h **** 	static inline uint8_t read_3() {
 330              		.loc 1 72 24 is_stmt 1 view -0
 331              		.cfi_startproc
 332              		@ args = 0, pretend = 0, frame = 0
 333              		@ frame_needed = 0, uses_anonymous_args = 0
 334              		@ link register save eliminated.
  73:Drivers/uart.h **** 		return USART3->DR;
 335              		.loc 1 73 3 view .LVU41
 336              		.loc 1 73 18 is_stmt 0 view .LVU42
 337 0000 014B     		ldr	r3, .L33
 338 0002 5868     		ldr	r0, [r3, #4]
  74:Drivers/uart.h **** 	}
 339              		.loc 1 74 2 view .LVU43
 340 0004 C0B2     		uxtb	r0, r0
 341 0006 7047     		bx	lr
 342              	.L34:
 343              		.align	2
 344              	.L33:
 345 0008 00480040 		.word	1073760256
 346              		.cfi_endproc
ARM GAS  /var/folders/84/_x1cyy_j36g486tldtwl37280000gn/T//ccjZARG3.s 			page 8


 347              	.LFE1988:
 349              		.section	.text._ZN4Uart10readable_3Ev,"axG",%progbits,_ZN4Uart10readable_3Ev,comdat
 350              		.align	1
 351              		.p2align 2,,3
 352              		.weak	_ZN4Uart10readable_3Ev
 353              		.syntax unified
 354              		.thumb
 355              		.thumb_func
 356              		.fpu fpv4-sp-d16
 358              	_ZN4Uart10readable_3Ev:
 359              	.LFB1989:
  75:Drivers/uart.h **** 
  76:Drivers/uart.h **** 	static inline bool readable_3() {
 360              		.loc 1 76 21 is_stmt 1 view -0
 361              		.cfi_startproc
 362              		@ args = 0, pretend = 0, frame = 0
 363              		@ frame_needed = 0, uses_anonymous_args = 0
 364              		@ link register save eliminated.
  77:Drivers/uart.h **** 		return USART3->SR & UART_FLAG_RXNE;
 365              		.loc 1 77 3 view .LVU45
 366              		.loc 1 77 18 is_stmt 0 view .LVU46
 367 0000 024B     		ldr	r3, .L36
 368 0002 1868     		ldr	r0, [r3]
  78:Drivers/uart.h **** 	}
 369              		.loc 1 78 2 view .LVU47
 370 0004 C0F34010 		ubfx	r0, r0, #5, #1
 371 0008 7047     		bx	lr
 372              	.L37:
 373 000a 00BF     		.align	2
 374              	.L36:
 375 000c 00480040 		.word	1073760256
 376              		.cfi_endproc
 377              	.LFE1989:
 379              		.section	.text._ZN4Uart7write_4Eh,"axG",%progbits,_ZN4Uart7write_4Eh,comdat
 380              		.align	1
 381              		.p2align 2,,3
 382              		.weak	_ZN4Uart7write_4Eh
 383              		.syntax unified
 384              		.thumb
 385              		.thumb_func
 386              		.fpu fpv4-sp-d16
 388              	_ZN4Uart7write_4Eh:
 389              	.LVL3:
 390              	.LFB1990:
  79:Drivers/uart.h **** 
  80:Drivers/uart.h **** 	// MIDI 4 - UART 7
  81:Drivers/uart.h **** 	static inline void write_4(uint8_t data) {
 391              		.loc 1 81 21 is_stmt 1 view -0
 392              		.cfi_startproc
 393              		@ args = 0, pretend = 0, frame = 0
 394              		@ frame_needed = 0, uses_anonymous_args = 0
 395              		@ link register save eliminated.
  82:Drivers/uart.h **** 		UART7->DR = data;
 396              		.loc 1 82 3 view .LVU49
 397              		.loc 1 82 13 is_stmt 0 view .LVU50
 398 0000 014B     		ldr	r3, .L39
 399 0002 5860     		str	r0, [r3, #4]
ARM GAS  /var/folders/84/_x1cyy_j36g486tldtwl37280000gn/T//ccjZARG3.s 			page 9


  83:Drivers/uart.h **** 	}
 400              		.loc 1 83 2 view .LVU51
 401 0004 7047     		bx	lr
 402              	.L40:
 403 0006 00BF     		.align	2
 404              	.L39:
 405 0008 00780040 		.word	1073772544
 406              		.cfi_endproc
 407              	.LFE1990:
 409              		.section	.text._ZN4Uart11writeable_4Ev,"axG",%progbits,_ZN4Uart11writeable_4Ev,comdat
 410              		.align	1
 411              		.p2align 2,,3
 412              		.weak	_ZN4Uart11writeable_4Ev
 413              		.syntax unified
 414              		.thumb
 415              		.thumb_func
 416              		.fpu fpv4-sp-d16
 418              	_ZN4Uart11writeable_4Ev:
 419              	.LFB1991:
  84:Drivers/uart.h **** 
  85:Drivers/uart.h **** 	static inline bool writeable_4() {
 420              		.loc 1 85 21 is_stmt 1 view -0
 421              		.cfi_startproc
 422              		@ args = 0, pretend = 0, frame = 0
 423              		@ frame_needed = 0, uses_anonymous_args = 0
 424              		@ link register save eliminated.
  86:Drivers/uart.h **** 		return UART7->SR & UART_FLAG_TXE;
 425              		.loc 1 86 3 view .LVU53
 426              		.loc 1 86 17 is_stmt 0 view .LVU54
 427 0000 024B     		ldr	r3, .L42
 428 0002 1868     		ldr	r0, [r3]
  87:Drivers/uart.h **** 	}
 429              		.loc 1 87 2 view .LVU55
 430 0004 C0F3C010 		ubfx	r0, r0, #7, #1
 431 0008 7047     		bx	lr
 432              	.L43:
 433 000a 00BF     		.align	2
 434              	.L42:
 435 000c 00780040 		.word	1073772544
 436              		.cfi_endproc
 437              	.LFE1991:
 439              		.section	.text._ZN4Uart6read_4Ev,"axG",%progbits,_ZN4Uart6read_4Ev,comdat
 440              		.align	1
 441              		.p2align 2,,3
 442              		.weak	_ZN4Uart6read_4Ev
 443              		.syntax unified
 444              		.thumb
 445              		.thumb_func
 446              		.fpu fpv4-sp-d16
 448              	_ZN4Uart6read_4Ev:
 449              	.LFB1992:
  88:Drivers/uart.h **** 
  89:Drivers/uart.h **** 	static inline uint8_t read_4() {
 450              		.loc 1 89 24 is_stmt 1 view -0
 451              		.cfi_startproc
 452              		@ args = 0, pretend = 0, frame = 0
 453              		@ frame_needed = 0, uses_anonymous_args = 0
ARM GAS  /var/folders/84/_x1cyy_j36g486tldtwl37280000gn/T//ccjZARG3.s 			page 10


 454              		@ link register save eliminated.
  90:Drivers/uart.h **** 		return UART7->DR;
 455              		.loc 1 90 3 view .LVU57
 456              		.loc 1 90 17 is_stmt 0 view .LVU58
 457 0000 014B     		ldr	r3, .L45
 458 0002 5868     		ldr	r0, [r3, #4]
  91:Drivers/uart.h **** 	}
 459              		.loc 1 91 2 view .LVU59
 460 0004 C0B2     		uxtb	r0, r0
 461 0006 7047     		bx	lr
 462              	.L46:
 463              		.align	2
 464              	.L45:
 465 0008 00780040 		.word	1073772544
 466              		.cfi_endproc
 467              	.LFE1992:
 469              		.section	.text._ZN4Uart10readable_4Ev,"axG",%progbits,_ZN4Uart10readable_4Ev,comdat
 470              		.align	1
 471              		.p2align 2,,3
 472              		.weak	_ZN4Uart10readable_4Ev
 473              		.syntax unified
 474              		.thumb
 475              		.thumb_func
 476              		.fpu fpv4-sp-d16
 478              	_ZN4Uart10readable_4Ev:
 479              	.LFB1993:
  92:Drivers/uart.h **** 
  93:Drivers/uart.h **** 	static inline bool readable_4() {
 480              		.loc 1 93 21 is_stmt 1 view -0
 481              		.cfi_startproc
 482              		@ args = 0, pretend = 0, frame = 0
 483              		@ frame_needed = 0, uses_anonymous_args = 0
 484              		@ link register save eliminated.
  94:Drivers/uart.h **** 		return UART7->SR & UART_FLAG_RXNE;
 485              		.loc 1 94 3 view .LVU61
 486              		.loc 1 94 17 is_stmt 0 view .LVU62
 487 0000 024B     		ldr	r3, .L48
 488 0002 1868     		ldr	r0, [r3]
  95:Drivers/uart.h **** 	}
 489              		.loc 1 95 2 view .LVU63
 490 0004 C0F34010 		ubfx	r0, r0, #5, #1
 491 0008 7047     		bx	lr
 492              	.L49:
 493 000a 00BF     		.align	2
 494              	.L48:
 495 000c 00780040 		.word	1073772544
 496              		.cfi_endproc
 497              	.LFE1993:
 499              		.section	.text._ZN4Uart4initEv,"ax",%progbits
 500              		.align	1
 501              		.p2align 2,,3
 502              		.global	_ZN4Uart4initEv
 503              		.syntax unified
 504              		.thumb
 505              		.thumb_func
 506              		.fpu fpv4-sp-d16
 508              	_ZN4Uart4initEv:
ARM GAS  /var/folders/84/_x1cyy_j36g486tldtwl37280000gn/T//ccjZARG3.s 			page 11


 509              	.LVL4:
 510              	.LFB1997:
 511              		.file 2 "Drivers/uart.cpp"
   1:Drivers/uart.cpp **** #include "uart.h"
   2:Drivers/uart.cpp **** 
   3:Drivers/uart.cpp **** Uart uart;
   4:Drivers/uart.cpp **** 
   5:Drivers/uart.cpp **** void Uart::init() {
 512              		.loc 2 5 19 is_stmt 1 view -0
 513              		.cfi_startproc
 514              		@ args = 0, pretend = 0, frame = 88
 515              		@ frame_needed = 0, uses_anonymous_args = 0
   6:Drivers/uart.cpp **** 	UART_HandleTypeDef huart;
 516              		.loc 2 6 2 view .LVU65
   7:Drivers/uart.cpp **** 	GPIO_InitTypeDef GPIO_InitStruct = {0};
 517              		.loc 2 7 2 view .LVU66
   8:Drivers/uart.cpp **** 
   9:Drivers/uart.cpp **** 	// MIDI 1
  10:Drivers/uart.cpp **** 	/**USART6 GPIO Configuration
  11:Drivers/uart.cpp **** 	PC6     ------> USART6_TX
  12:Drivers/uart.cpp **** 	PC7     ------> USART6_RX
  13:Drivers/uart.cpp **** 	*/
  14:Drivers/uart.cpp **** 	GPIO_InitStruct.Pin = GPIO_PIN_6 | GPIO_PIN_7;
 518              		.loc 2 14 2 view .LVU67
   5:Drivers/uart.cpp **** 	GPIO_InitTypeDef GPIO_InitStruct = {0};
 519              		.loc 2 5 19 is_stmt 0 view .LVU68
 520 0000 2DE9F043 		push	{r4, r5, r6, r7, r8, r9, lr}
 521              		.cfi_def_cfa_offset 28
 522              		.cfi_offset 4, -28
 523              		.cfi_offset 5, -24
 524              		.cfi_offset 6, -20
 525              		.cfi_offset 7, -16
 526              		.cfi_offset 8, -12
 527              		.cfi_offset 9, -8
 528              		.cfi_offset 14, -4
 529 0004 97B0     		sub	sp, sp, #92
 530              		.cfi_def_cfa_offset 120
  15:Drivers/uart.cpp **** 	GPIO_InitStruct.Mode = GPIO_MODE_AF_PP;
  16:Drivers/uart.cpp **** 	GPIO_InitStruct.Pull = GPIO_NOPULL;
 531              		.loc 2 16 23 view .LVU69
 532 0006 0024     		movs	r4, #0
  15:Drivers/uart.cpp **** 	GPIO_InitStruct.Mode = GPIO_MODE_AF_PP;
 533              		.loc 2 15 23 view .LVU70
 534 0008 0225     		movs	r5, #2
  14:Drivers/uart.cpp **** 	GPIO_InitStruct.Mode = GPIO_MODE_AF_PP;
 535              		.loc 2 14 22 view .LVU71
 536 000a C023     		movs	r3, #192
  17:Drivers/uart.cpp **** 	GPIO_InitStruct.Speed = GPIO_SPEED_FREQ_HIGH;
  18:Drivers/uart.cpp **** 	GPIO_InitStruct.Alternate = GPIO_AF8_USART6;
  19:Drivers/uart.cpp **** 	HAL_GPIO_Init(GPIOC, &GPIO_InitStruct);
 537              		.loc 2 19 15 view .LVU72
 538 000c 6946     		mov	r1, sp
  18:Drivers/uart.cpp **** 	HAL_GPIO_Init(GPIOC, &GPIO_InitStruct);
 539              		.loc 2 18 28 view .LVU73
 540 000e 4FF00808 		mov	r8, #8
 541              		.loc 2 19 15 view .LVU74
 542 0012 3248     		ldr	r0, .L52
ARM GAS  /var/folders/84/_x1cyy_j36g486tldtwl37280000gn/T//ccjZARG3.s 			page 12


 543              	.LVL5:
  18:Drivers/uart.cpp **** 	HAL_GPIO_Init(GPIOC, &GPIO_InitStruct);
 544              		.loc 2 18 28 view .LVU75
 545 0014 CDF81080 		str	r8, [sp, #16]
  15:Drivers/uart.cpp **** 	GPIO_InitStruct.Pull = GPIO_NOPULL;
 546              		.loc 2 15 23 view .LVU76
 547 0018 CDE90035 		strd	r3, r5, [sp]
  16:Drivers/uart.cpp **** 	GPIO_InitStruct.Speed = GPIO_SPEED_FREQ_HIGH;
 548              		.loc 2 16 2 is_stmt 1 view .LVU77
  16:Drivers/uart.cpp **** 	GPIO_InitStruct.Speed = GPIO_SPEED_FREQ_HIGH;
 549              		.loc 2 16 23 is_stmt 0 view .LVU78
 550 001c CDE90245 		strd	r4, r5, [sp, #8]
  17:Drivers/uart.cpp **** 	GPIO_InitStruct.Alternate = GPIO_AF8_USART6;
 551              		.loc 2 17 2 is_stmt 1 view .LVU79
  18:Drivers/uart.cpp **** 	HAL_GPIO_Init(GPIOC, &GPIO_InitStruct);
 552              		.loc 2 18 2 view .LVU80
 553              		.loc 2 19 2 view .LVU81
 554              		.loc 2 19 15 is_stmt 0 view .LVU82
 555 0020 FFF7FEFF 		bl	HAL_GPIO_Init
 556              	.LVL6:
  20:Drivers/uart.cpp **** 
  21:Drivers/uart.cpp **** 	huart.Instance = USART6;
 557              		.loc 2 21 2 is_stmt 1 view .LVU83
 558              		.loc 2 21 17 is_stmt 0 view .LVU84
 559 0024 2E49     		ldr	r1, .L52+4
  22:Drivers/uart.cpp **** 	huart.Init.BaudRate = 31250;
  23:Drivers/uart.cpp **** 	huart.Init.WordLength = UART_WORDLENGTH_8B;
  24:Drivers/uart.cpp **** 	huart.Init.StopBits = UART_STOPBITS_1;
  25:Drivers/uart.cpp **** 	huart.Init.Parity = UART_PARITY_NONE;
 560              		.loc 2 25 20 view .LVU85
 561 0026 0994     		str	r4, [sp, #36]
  26:Drivers/uart.cpp **** 	huart.Init.Mode = UART_MODE_TX_RX;
 562              		.loc 2 26 18 view .LVU86
 563 0028 0C26     		movs	r6, #12
  22:Drivers/uart.cpp **** 	huart.Init.BaudRate = 31250;
 564              		.loc 2 22 22 view .LVU87
 565 002a 47F61227 		movw	r7, #31250
  27:Drivers/uart.cpp **** 	huart.Init.HwFlowCtl = UART_HWCONTROL_NONE;
  28:Drivers/uart.cpp **** 	huart.Init.OverSampling = UART_OVERSAMPLING_16;
  29:Drivers/uart.cpp **** 	HAL_UART_Init(&huart);
 566              		.loc 2 29 15 view .LVU88
 567 002e 05A8     		add	r0, sp, #20
  22:Drivers/uart.cpp **** 	huart.Init.WordLength = UART_WORDLENGTH_8B;
 568              		.loc 2 22 22 view .LVU89
 569 0030 CDE90517 		strd	r1, r7, [sp, #20]
  23:Drivers/uart.cpp **** 	huart.Init.StopBits = UART_STOPBITS_1;
 570              		.loc 2 23 2 is_stmt 1 view .LVU90
  24:Drivers/uart.cpp **** 	huart.Init.Parity = UART_PARITY_NONE;
 571              		.loc 2 24 2 view .LVU91
  25:Drivers/uart.cpp **** 	huart.Init.Mode = UART_MODE_TX_RX;
 572              		.loc 2 25 2 view .LVU92
  26:Drivers/uart.cpp **** 	huart.Init.HwFlowCtl = UART_HWCONTROL_NONE;
 573              		.loc 2 26 2 view .LVU93
  30:Drivers/uart.cpp **** 
  31:Drivers/uart.cpp **** 	// MIDI 2
  32:Drivers/uart.cpp **** 	/**USART2 GPIO Configuration
  33:Drivers/uart.cpp **** 	PA2     ------> USART2_TX
ARM GAS  /var/folders/84/_x1cyy_j36g486tldtwl37280000gn/T//ccjZARG3.s 			page 13


  34:Drivers/uart.cpp **** 	PA3     ------> USART2_RX
  35:Drivers/uart.cpp **** 	*/
  36:Drivers/uart.cpp **** 	GPIO_InitStruct.Pin = GPIO_PIN_2 | GPIO_PIN_3;
  37:Drivers/uart.cpp **** 	GPIO_InitStruct.Mode = GPIO_MODE_AF_PP;
  38:Drivers/uart.cpp **** 	GPIO_InitStruct.Pull = GPIO_NOPULL;
  39:Drivers/uart.cpp **** 	GPIO_InitStruct.Speed = GPIO_SPEED_FREQ_HIGH;
  40:Drivers/uart.cpp **** 	GPIO_InitStruct.Alternate = GPIO_AF7_USART2;
 574              		.loc 2 40 28 is_stmt 0 view .LVU94
 575 0034 4FF00709 		mov	r9, #7
  24:Drivers/uart.cpp **** 	huart.Init.Parity = UART_PARITY_NONE;
 576              		.loc 2 24 22 view .LVU95
 577 0038 CDE90744 		strd	r4, r4, [sp, #28]
  28:Drivers/uart.cpp **** 	HAL_UART_Init(&huart);
 578              		.loc 2 28 26 view .LVU96
 579 003c CDE90B44 		strd	r4, r4, [sp, #44]
  26:Drivers/uart.cpp **** 	huart.Init.HwFlowCtl = UART_HWCONTROL_NONE;
 580              		.loc 2 26 18 view .LVU97
 581 0040 0A96     		str	r6, [sp, #40]
  27:Drivers/uart.cpp **** 	huart.Init.OverSampling = UART_OVERSAMPLING_16;
 582              		.loc 2 27 2 is_stmt 1 view .LVU98
  28:Drivers/uart.cpp **** 	HAL_UART_Init(&huart);
 583              		.loc 2 28 2 view .LVU99
  29:Drivers/uart.cpp **** 
 584              		.loc 2 29 2 view .LVU100
  29:Drivers/uart.cpp **** 
 585              		.loc 2 29 15 is_stmt 0 view .LVU101
 586 0042 FFF7FEFF 		bl	HAL_UART_Init
 587              	.LVL7:
  36:Drivers/uart.cpp **** 	GPIO_InitStruct.Mode = GPIO_MODE_AF_PP;
 588              		.loc 2 36 2 is_stmt 1 view .LVU102
  41:Drivers/uart.cpp **** 	HAL_GPIO_Init(GPIOA, &GPIO_InitStruct);
 589              		.loc 2 41 15 is_stmt 0 view .LVU103
 590 0046 6946     		mov	r1, sp
 591 0048 2648     		ldr	r0, .L52+8
  40:Drivers/uart.cpp **** 	HAL_GPIO_Init(GPIOA, &GPIO_InitStruct);
 592              		.loc 2 40 28 view .LVU104
 593 004a CDF81090 		str	r9, [sp, #16]
  37:Drivers/uart.cpp **** 	GPIO_InitStruct.Pull = GPIO_NOPULL;
 594              		.loc 2 37 23 view .LVU105
 595 004e CDE90065 		strd	r6, r5, [sp]
  38:Drivers/uart.cpp **** 	GPIO_InitStruct.Speed = GPIO_SPEED_FREQ_HIGH;
 596              		.loc 2 38 2 is_stmt 1 view .LVU106
  39:Drivers/uart.cpp **** 	GPIO_InitStruct.Alternate = GPIO_AF7_USART2;
 597              		.loc 2 39 24 is_stmt 0 view .LVU107
 598 0052 CDE90245 		strd	r4, r5, [sp, #8]
  40:Drivers/uart.cpp **** 	HAL_GPIO_Init(GPIOA, &GPIO_InitStruct);
 599              		.loc 2 40 2 is_stmt 1 view .LVU108
 600              		.loc 2 41 2 view .LVU109
 601              		.loc 2 41 15 is_stmt 0 view .LVU110
 602 0056 FFF7FEFF 		bl	HAL_GPIO_Init
 603              	.LVL8:
  42:Drivers/uart.cpp **** 
  43:Drivers/uart.cpp **** 	huart.Instance = USART2;
 604              		.loc 2 43 2 is_stmt 1 view .LVU111
 605              		.loc 2 43 17 is_stmt 0 view .LVU112
 606 005a 234A     		ldr	r2, .L52+12
 607 005c 0592     		str	r2, [sp, #20]
ARM GAS  /var/folders/84/_x1cyy_j36g486tldtwl37280000gn/T//ccjZARG3.s 			page 14


  44:Drivers/uart.cpp **** 	huart.Init.BaudRate = 31250;
 608              		.loc 2 44 2 is_stmt 1 view .LVU113
  45:Drivers/uart.cpp **** 	huart.Init.WordLength = UART_WORDLENGTH_8B;
 609              		.loc 2 45 2 view .LVU114
  46:Drivers/uart.cpp **** 	huart.Init.StopBits = UART_STOPBITS_1;
 610              		.loc 2 46 2 view .LVU115
  47:Drivers/uart.cpp **** 	huart.Init.Parity = UART_PARITY_NONE;
 611              		.loc 2 47 2 view .LVU116
  48:Drivers/uart.cpp **** 	huart.Init.Mode = UART_MODE_TX_RX;
 612              		.loc 2 48 2 view .LVU117
  49:Drivers/uart.cpp **** 	huart.Init.HwFlowCtl = UART_HWCONTROL_NONE;
 613              		.loc 2 49 2 view .LVU118
  50:Drivers/uart.cpp **** 	huart.Init.OverSampling = UART_OVERSAMPLING_16;
 614              		.loc 2 50 2 view .LVU119
  51:Drivers/uart.cpp **** 	HAL_UART_Init(&huart);
 615              		.loc 2 51 2 view .LVU120
 616              		.loc 2 51 15 is_stmt 0 view .LVU121
 617 005e 05A8     		add	r0, sp, #20
  45:Drivers/uart.cpp **** 	huart.Init.StopBits = UART_STOPBITS_1;
 618              		.loc 2 45 24 view .LVU122
 619 0060 CDE90674 		strd	r7, r4, [sp, #24]
  47:Drivers/uart.cpp **** 	huart.Init.Mode = UART_MODE_TX_RX;
 620              		.loc 2 47 20 view .LVU123
 621 0064 CDE90844 		strd	r4, r4, [sp, #32]
  49:Drivers/uart.cpp **** 	huart.Init.OverSampling = UART_OVERSAMPLING_16;
 622              		.loc 2 49 23 view .LVU124
 623 0068 CDE90A64 		strd	r6, r4, [sp, #40]
  50:Drivers/uart.cpp **** 	HAL_UART_Init(&huart);
 624              		.loc 2 50 26 view .LVU125
 625 006c 0C94     		str	r4, [sp, #48]
 626              		.loc 2 51 15 view .LVU126
 627 006e FFF7FEFF 		bl	HAL_UART_Init
 628              	.LVL9:
  52:Drivers/uart.cpp **** 
  53:Drivers/uart.cpp **** 	// MIDI 3
  54:Drivers/uart.cpp **** 	/**USART3 GPIO Configuration
  55:Drivers/uart.cpp **** 	PD8     ------> USART3_TX
  56:Drivers/uart.cpp **** 	PD9     ------> USART3_RX
  57:Drivers/uart.cpp **** 	*/
  58:Drivers/uart.cpp **** 	GPIO_InitStruct.Pin = GPIO_PIN_8 | GPIO_PIN_9;
 629              		.loc 2 58 2 is_stmt 1 view .LVU127
 630              		.loc 2 58 22 is_stmt 0 view .LVU128
 631 0072 4FF44073 		mov	r3, #768
  59:Drivers/uart.cpp **** 	GPIO_InitStruct.Mode = GPIO_MODE_AF_PP;
  60:Drivers/uart.cpp **** 	GPIO_InitStruct.Pull = GPIO_NOPULL;
  61:Drivers/uart.cpp **** 	GPIO_InitStruct.Speed = GPIO_SPEED_FREQ_HIGH;
  62:Drivers/uart.cpp **** 	GPIO_InitStruct.Alternate = GPIO_AF7_USART3;
  63:Drivers/uart.cpp **** 	HAL_GPIO_Init(GPIOD, &GPIO_InitStruct);
 632              		.loc 2 63 15 view .LVU129
 633 0076 6946     		mov	r1, sp
 634 0078 1C48     		ldr	r0, .L52+16
  58:Drivers/uart.cpp **** 	GPIO_InitStruct.Mode = GPIO_MODE_AF_PP;
 635              		.loc 2 58 22 view .LVU130
 636 007a 0093     		str	r3, [sp]
  59:Drivers/uart.cpp **** 	GPIO_InitStruct.Mode = GPIO_MODE_AF_PP;
 637              		.loc 2 59 2 is_stmt 1 view .LVU131
  60:Drivers/uart.cpp **** 	GPIO_InitStruct.Speed = GPIO_SPEED_FREQ_HIGH;
ARM GAS  /var/folders/84/_x1cyy_j36g486tldtwl37280000gn/T//ccjZARG3.s 			page 15


 638              		.loc 2 60 2 view .LVU132
  61:Drivers/uart.cpp **** 	GPIO_InitStruct.Alternate = GPIO_AF7_USART3;
 639              		.loc 2 61 2 view .LVU133
  62:Drivers/uart.cpp **** 	HAL_GPIO_Init(GPIOD, &GPIO_InitStruct);
 640              		.loc 2 62 2 view .LVU134
 641              		.loc 2 63 2 view .LVU135
  60:Drivers/uart.cpp **** 	GPIO_InitStruct.Speed = GPIO_SPEED_FREQ_HIGH;
 642              		.loc 2 60 23 is_stmt 0 view .LVU136
 643 007c CDE90154 		strd	r5, r4, [sp, #4]
  61:Drivers/uart.cpp **** 	GPIO_InitStruct.Alternate = GPIO_AF7_USART3;
 644              		.loc 2 61 24 view .LVU137
 645 0080 0395     		str	r5, [sp, #12]
  62:Drivers/uart.cpp **** 	HAL_GPIO_Init(GPIOD, &GPIO_InitStruct);
 646              		.loc 2 62 28 view .LVU138
 647 0082 CDF81090 		str	r9, [sp, #16]
 648              		.loc 2 63 15 view .LVU139
 649 0086 FFF7FEFF 		bl	HAL_GPIO_Init
 650              	.LVL10:
  64:Drivers/uart.cpp **** 
  65:Drivers/uart.cpp **** 	huart.Instance = USART3;
 651              		.loc 2 65 2 is_stmt 1 view .LVU140
 652              		.loc 2 65 17 is_stmt 0 view .LVU141
 653 008a 1949     		ldr	r1, .L52+20
 654 008c 0591     		str	r1, [sp, #20]
  66:Drivers/uart.cpp **** 	huart.Init.BaudRate = 31250;
 655              		.loc 2 66 2 is_stmt 1 view .LVU142
  67:Drivers/uart.cpp **** 	huart.Init.WordLength = UART_WORDLENGTH_8B;
 656              		.loc 2 67 2 view .LVU143
  68:Drivers/uart.cpp **** 	huart.Init.StopBits = UART_STOPBITS_1;
 657              		.loc 2 68 2 view .LVU144
  69:Drivers/uart.cpp **** 	huart.Init.Parity = UART_PARITY_NONE;
 658              		.loc 2 69 2 view .LVU145
  70:Drivers/uart.cpp **** 	huart.Init.Mode = UART_MODE_TX_RX;
 659              		.loc 2 70 2 view .LVU146
  71:Drivers/uart.cpp **** 	huart.Init.HwFlowCtl = UART_HWCONTROL_NONE;
 660              		.loc 2 71 2 view .LVU147
  72:Drivers/uart.cpp **** 	huart.Init.OverSampling = UART_OVERSAMPLING_16;
 661              		.loc 2 72 2 view .LVU148
  73:Drivers/uart.cpp **** 	HAL_UART_Init(&huart);
 662              		.loc 2 73 2 view .LVU149
 663              		.loc 2 73 15 is_stmt 0 view .LVU150
 664 008e 05A8     		add	r0, sp, #20
  67:Drivers/uart.cpp **** 	huart.Init.StopBits = UART_STOPBITS_1;
 665              		.loc 2 67 24 view .LVU151
 666 0090 CDE90674 		strd	r7, r4, [sp, #24]
  69:Drivers/uart.cpp **** 	huart.Init.Mode = UART_MODE_TX_RX;
 667              		.loc 2 69 20 view .LVU152
 668 0094 CDE90844 		strd	r4, r4, [sp, #32]
  71:Drivers/uart.cpp **** 	huart.Init.OverSampling = UART_OVERSAMPLING_16;
 669              		.loc 2 71 23 view .LVU153
 670 0098 CDE90A64 		strd	r6, r4, [sp, #40]
  72:Drivers/uart.cpp **** 	HAL_UART_Init(&huart);
 671              		.loc 2 72 26 view .LVU154
 672 009c 0C94     		str	r4, [sp, #48]
 673              		.loc 2 73 15 view .LVU155
 674 009e FFF7FEFF 		bl	HAL_UART_Init
 675              	.LVL11:
ARM GAS  /var/folders/84/_x1cyy_j36g486tldtwl37280000gn/T//ccjZARG3.s 			page 16


  74:Drivers/uart.cpp **** 
  75:Drivers/uart.cpp **** 	// MIDI 4
  76:Drivers/uart.cpp **** 	/**UART7 GPIO Configuration
  77:Drivers/uart.cpp **** 	PE7     ------> UART7_RX
  78:Drivers/uart.cpp **** 	PE8     ------> UART7_TX
  79:Drivers/uart.cpp **** 	*/
  80:Drivers/uart.cpp **** 	GPIO_InitStruct.Pin = GPIO_PIN_7 | GPIO_PIN_8;
 676              		.loc 2 80 2 is_stmt 1 view .LVU156
 677              		.loc 2 80 22 is_stmt 0 view .LVU157
 678 00a2 4FF4C072 		mov	r2, #384
  81:Drivers/uart.cpp **** 	GPIO_InitStruct.Mode = GPIO_MODE_AF_PP;
  82:Drivers/uart.cpp **** 	GPIO_InitStruct.Pull = GPIO_PULLUP;
 679              		.loc 2 82 23 view .LVU158
 680 00a6 0123     		movs	r3, #1
  83:Drivers/uart.cpp **** 	GPIO_InitStruct.Speed = GPIO_SPEED_FREQ_HIGH;
  84:Drivers/uart.cpp **** 	GPIO_InitStruct.Alternate = GPIO_AF8_UART7;
  85:Drivers/uart.cpp **** 	HAL_GPIO_Init(GPIOE, &GPIO_InitStruct);
 681              		.loc 2 85 15 view .LVU159
 682 00a8 6946     		mov	r1, sp
 683 00aa 1248     		ldr	r0, .L52+24
  81:Drivers/uart.cpp **** 	GPIO_InitStruct.Mode = GPIO_MODE_AF_PP;
 684              		.loc 2 81 23 view .LVU160
 685 00ac 0195     		str	r5, [sp, #4]
  83:Drivers/uart.cpp **** 	GPIO_InitStruct.Speed = GPIO_SPEED_FREQ_HIGH;
 686              		.loc 2 83 24 view .LVU161
 687 00ae 0395     		str	r5, [sp, #12]
  80:Drivers/uart.cpp **** 	GPIO_InitStruct.Mode = GPIO_MODE_AF_PP;
 688              		.loc 2 80 22 view .LVU162
 689 00b0 0092     		str	r2, [sp]
  81:Drivers/uart.cpp **** 	GPIO_InitStruct.Mode = GPIO_MODE_AF_PP;
 690              		.loc 2 81 2 is_stmt 1 view .LVU163
  82:Drivers/uart.cpp **** 	GPIO_InitStruct.Speed = GPIO_SPEED_FREQ_HIGH;
 691              		.loc 2 82 2 view .LVU164
  82:Drivers/uart.cpp **** 	GPIO_InitStruct.Speed = GPIO_SPEED_FREQ_HIGH;
 692              		.loc 2 82 23 is_stmt 0 view .LVU165
 693 00b2 0293     		str	r3, [sp, #8]
  83:Drivers/uart.cpp **** 	GPIO_InitStruct.Speed = GPIO_SPEED_FREQ_HIGH;
 694              		.loc 2 83 2 is_stmt 1 view .LVU166
  84:Drivers/uart.cpp **** 	HAL_GPIO_Init(GPIOE, &GPIO_InitStruct);
 695              		.loc 2 84 2 view .LVU167
 696              		.loc 2 85 2 view .LVU168
  86:Drivers/uart.cpp **** 
  87:Drivers/uart.cpp **** 	huart.Instance = UART7;
 697              		.loc 2 87 17 is_stmt 0 view .LVU169
 698 00b4 104D     		ldr	r5, .L52+28
  84:Drivers/uart.cpp **** 	HAL_GPIO_Init(GPIOE, &GPIO_InitStruct);
 699              		.loc 2 84 28 view .LVU170
 700 00b6 CDF81080 		str	r8, [sp, #16]
  85:Drivers/uart.cpp **** 
 701              		.loc 2 85 15 view .LVU171
 702 00ba FFF7FEFF 		bl	HAL_GPIO_Init
 703              	.LVL12:
 704              		.loc 2 87 2 is_stmt 1 view .LVU172
  88:Drivers/uart.cpp **** 	huart.Init.BaudRate = 31250;
  89:Drivers/uart.cpp **** 	huart.Init.WordLength = UART_WORDLENGTH_8B;
  90:Drivers/uart.cpp **** 	huart.Init.StopBits = UART_STOPBITS_1;
  91:Drivers/uart.cpp **** 	huart.Init.Parity = UART_PARITY_NONE;
ARM GAS  /var/folders/84/_x1cyy_j36g486tldtwl37280000gn/T//ccjZARG3.s 			page 17


  92:Drivers/uart.cpp **** 	huart.Init.Mode = UART_MODE_TX_RX;
  93:Drivers/uart.cpp **** 	huart.Init.HwFlowCtl = UART_HWCONTROL_NONE;
  94:Drivers/uart.cpp **** 	huart.Init.OverSampling = UART_OVERSAMPLING_16;
  95:Drivers/uart.cpp **** 	HAL_UART_Init(&huart);
 705              		.loc 2 95 15 is_stmt 0 view .LVU173
 706 00be 05A8     		add	r0, sp, #20
  89:Drivers/uart.cpp **** 	huart.Init.StopBits = UART_STOPBITS_1;
 707              		.loc 2 89 24 view .LVU174
 708 00c0 CDE90674 		strd	r7, r4, [sp, #24]
  91:Drivers/uart.cpp **** 	huart.Init.Mode = UART_MODE_TX_RX;
 709              		.loc 2 91 20 view .LVU175
 710 00c4 CDE90844 		strd	r4, r4, [sp, #32]
  93:Drivers/uart.cpp **** 	huart.Init.OverSampling = UART_OVERSAMPLING_16;
 711              		.loc 2 93 23 view .LVU176
 712 00c8 CDE90A64 		strd	r6, r4, [sp, #40]
  94:Drivers/uart.cpp **** 	HAL_UART_Init(&huart);
 713              		.loc 2 94 26 view .LVU177
 714 00cc 0C94     		str	r4, [sp, #48]
  87:Drivers/uart.cpp **** 	huart.Init.BaudRate = 31250;
 715              		.loc 2 87 17 view .LVU178
 716 00ce 0595     		str	r5, [sp, #20]
  88:Drivers/uart.cpp **** 	huart.Init.WordLength = UART_WORDLENGTH_8B;
 717              		.loc 2 88 2 is_stmt 1 view .LVU179
  89:Drivers/uart.cpp **** 	huart.Init.StopBits = UART_STOPBITS_1;
 718              		.loc 2 89 2 view .LVU180
  90:Drivers/uart.cpp **** 	huart.Init.Parity = UART_PARITY_NONE;
 719              		.loc 2 90 2 view .LVU181
  91:Drivers/uart.cpp **** 	huart.Init.Mode = UART_MODE_TX_RX;
 720              		.loc 2 91 2 view .LVU182
  92:Drivers/uart.cpp **** 	huart.Init.HwFlowCtl = UART_HWCONTROL_NONE;
 721              		.loc 2 92 2 view .LVU183
  93:Drivers/uart.cpp **** 	huart.Init.OverSampling = UART_OVERSAMPLING_16;
 722              		.loc 2 93 2 view .LVU184
  94:Drivers/uart.cpp **** 	HAL_UART_Init(&huart);
 723              		.loc 2 94 2 view .LVU185
 724              		.loc 2 95 2 view .LVU186
 725              		.loc 2 95 15 is_stmt 0 view .LVU187
 726 00d0 FFF7FEFF 		bl	HAL_UART_Init
 727              	.LVL13:
  96:Drivers/uart.cpp **** }
 728              		.loc 2 96 1 view .LVU188
 729 00d4 17B0     		add	sp, sp, #92
 730              		.cfi_def_cfa_offset 28
 731              		@ sp needed
 732 00d6 BDE8F083 		pop	{r4, r5, r6, r7, r8, r9, pc}
 733              	.L53:
 734 00da 00BF     		.align	2
 735              	.L52:
 736 00dc 00080240 		.word	1073874944
 737 00e0 00140140 		.word	1073812480
 738 00e4 00000240 		.word	1073872896
 739 00e8 00440040 		.word	1073759232
 740 00ec 000C0240 		.word	1073875968
 741 00f0 00480040 		.word	1073760256
 742 00f4 00100240 		.word	1073876992
 743 00f8 00780040 		.word	1073772544
 744              		.cfi_endproc
ARM GAS  /var/folders/84/_x1cyy_j36g486tldtwl37280000gn/T//ccjZARG3.s 			page 18


 745              	.LFE1997:
 747              		.global	uart
 748              		.section	.data.uart,"aw"
 749              		.align	2
 752              	uart:
 753 0000 00000000 		.word	_ZN4Uart7write_1Eh
 754 0004 00000000 		.word	_ZN4Uart11writeable_1Ev
 755 0008 00000000 		.word	_ZN4Uart6read_1Ev
 756 000c 00000000 		.word	_ZN4Uart10readable_1Ev
 757 0010 00000000 		.word	_ZN4Uart7write_2Eh
 758 0014 00000000 		.word	_ZN4Uart11writeable_2Ev
 759 0018 00000000 		.word	_ZN4Uart6read_2Ev
 760 001c 00000000 		.word	_ZN4Uart10readable_2Ev
 761 0020 00000000 		.word	_ZN4Uart7write_3Eh
 762 0024 00000000 		.word	_ZN4Uart11writeable_3Ev
 763 0028 00000000 		.word	_ZN4Uart6read_3Ev
 764 002c 00000000 		.word	_ZN4Uart10readable_3Ev
 765 0030 00000000 		.word	_ZN4Uart7write_4Eh
 766 0034 00000000 		.word	_ZN4Uart11writeable_4Ev
 767 0038 00000000 		.word	_ZN4Uart6read_4Ev
 768 003c 00000000 		.word	_ZN4Uart10readable_4Ev
 769              		.text
 770              	.Letext0:
 771              		.file 3 "/usr/local/Caskroom/gcc-arm-embedded/9-2019-q4-major/gcc-arm-none-eabi-9-2019-q4-major/ar
 772              		.file 4 "/usr/local/Caskroom/gcc-arm-embedded/9-2019-q4-major/gcc-arm-none-eabi-9-2019-q4-major/ar
 773              		.file 5 "/usr/local/Caskroom/gcc-arm-embedded/9-2019-q4-major/gcc-arm-none-eabi-9-2019-q4-major/ar
 774              		.file 6 "/Users/joostbooy/STM32Cube/Repository/STM32Cube_FW_F4_V1.26.1/Drivers/CMSIS/Include/core_
 775              		.file 7 "/Users/joostbooy/STM32Cube/Repository/STM32Cube_FW_F4_V1.26.1/Drivers/CMSIS/Device/ST/STM
 776              		.file 8 "/Users/joostbooy/STM32Cube/Repository/STM32Cube_FW_F4_V1.26.1/Drivers/CMSIS/Device/ST/STM
 777              		.file 9 "/usr/local/Caskroom/gcc-arm-embedded/9-2019-q4-major/gcc-arm-none-eabi-9-2019-q4-major/li
 778              		.file 10 "/Users/joostbooy/STM32Cube/Repository/STM32Cube_FW_F4_V1.26.1/Drivers/STM32F4xx_HAL_Driv
 779              		.file 11 "/Users/joostbooy/STM32Cube/Repository/STM32Cube_FW_F4_V1.26.1/Drivers/STM32F4xx_HAL_Driv
 780              		.file 12 "/Users/joostbooy/STM32Cube/Repository/STM32Cube_FW_F4_V1.26.1/Drivers/STM32F4xx_HAL_Driv
 781              		.file 13 "/Users/joostbooy/STM32Cube/Repository/STM32Cube_FW_F4_V1.26.1/Drivers/STM32F4xx_HAL_Driv
 782              		.file 14 "/Users/joostbooy/STM32Cube/Repository/STM32Cube_FW_F4_V1.26.1/Drivers/STM32F4xx_HAL_Driv
 783              		.file 15 "/usr/local/Caskroom/gcc-arm-embedded/9-2019-q4-major/gcc-arm-none-eabi-9-2019-q4-major/a
 784              		.file 16 "/usr/local/Caskroom/gcc-arm-embedded/9-2019-q4-major/gcc-arm-none-eabi-9-2019-q4-major/a
 785              		.file 17 "/usr/local/Caskroom/gcc-arm-embedded/9-2019-q4-major/gcc-arm-none-eabi-9-2019-q4-major/a
 786              		.file 18 "/usr/local/Caskroom/gcc-arm-embedded/9-2019-q4-major/gcc-arm-none-eabi-9-2019-q4-major/a
 787              		.file 19 "/usr/local/Caskroom/gcc-arm-embedded/9-2019-q4-major/gcc-arm-none-eabi-9-2019-q4-major/a
 788              		.file 20 "/usr/local/Caskroom/gcc-arm-embedded/9-2019-q4-major/gcc-arm-none-eabi-9-2019-q4-major/a
 789              		.file 21 "/usr/local/Caskroom/gcc-arm-embedded/9-2019-q4-major/gcc-arm-none-eabi-9-2019-q4-major/a
 790              		.file 22 "/usr/local/Caskroom/gcc-arm-embedded/9-2019-q4-major/gcc-arm-none-eabi-9-2019-q4-major/a
 791              		.file 23 "/usr/local/Caskroom/gcc-arm-embedded/9-2019-q4-major/gcc-arm-none-eabi-9-2019-q4-major/a
 792              		.file 24 "/usr/local/Caskroom/gcc-arm-embedded/9-2019-q4-major/gcc-arm-none-eabi-9-2019-q4-major/a
 793              		.file 25 "/usr/local/Caskroom/gcc-arm-embedded/9-2019-q4-major/gcc-arm-none-eabi-9-2019-q4-major/a
 794              		.file 26 "/usr/local/Caskroom/gcc-arm-embedded/9-2019-q4-major/gcc-arm-none-eabi-9-2019-q4-major/a
 795              		.file 27 "/usr/local/Caskroom/gcc-arm-embedded/9-2019-q4-major/gcc-arm-none-eabi-9-2019-q4-major/a
 796              		.file 28 "/usr/local/Caskroom/gcc-arm-embedded/9-2019-q4-major/gcc-arm-none-eabi-9-2019-q4-major/a
 797              		.file 29 "/usr/local/Caskroom/gcc-arm-embedded/9-2019-q4-major/gcc-arm-none-eabi-9-2019-q4-major/a
 798              		.file 30 "/usr/local/Caskroom/gcc-arm-embedded/9-2019-q4-major/gcc-arm-none-eabi-9-2019-q4-major/a
 799              		.file 31 "/usr/local/Caskroom/gcc-arm-embedded/9-2019-q4-major/gcc-arm-none-eabi-9-2019-q4-major/a
 800              		.file 32 "/usr/local/Caskroom/gcc-arm-embedded/9-2019-q4-major/gcc-arm-none-eabi-9-2019-q4-major/a
 801              		.file 33 "/usr/local/Caskroom/gcc-arm-embedded/9-2019-q4-major/gcc-arm-none-eabi-9-2019-q4-major/a
 802              		.file 34 "/usr/local/Caskroom/gcc-arm-embedded/9-2019-q4-major/gcc-arm-none-eabi-9-2019-q4-major/a
 803              		.file 35 "/usr/local/Caskroom/gcc-arm-embedded/9-2019-q4-major/gcc-arm-none-eabi-9-2019-q4-major/a
 804              		.file 36 "/usr/local/Caskroom/gcc-arm-embedded/9-2019-q4-major/gcc-arm-none-eabi-9-2019-q4-major/a
ARM GAS  /var/folders/84/_x1cyy_j36g486tldtwl37280000gn/T//ccjZARG3.s 			page 19


 805              		.file 37 "/usr/local/Caskroom/gcc-arm-embedded/9-2019-q4-major/gcc-arm-none-eabi-9-2019-q4-major/a
 806              		.file 38 "/usr/local/Caskroom/gcc-arm-embedded/9-2019-q4-major/gcc-arm-none-eabi-9-2019-q4-major/a
 807              		.file 39 "/usr/local/Caskroom/gcc-arm-embedded/9-2019-q4-major/gcc-arm-none-eabi-9-2019-q4-major/l
 808              		.file 40 "<built-in>"
 809              		.file 41 "/usr/local/Caskroom/gcc-arm-embedded/9-2019-q4-major/gcc-arm-none-eabi-9-2019-q4-major/a
 810              		.file 42 "/usr/local/Caskroom/gcc-arm-embedded/9-2019-q4-major/gcc-arm-none-eabi-9-2019-q4-major/a
 811              		.file 43 "/usr/local/Caskroom/gcc-arm-embedded/9-2019-q4-major/gcc-arm-none-eabi-9-2019-q4-major/a
 812              		.file 44 "/usr/local/Caskroom/gcc-arm-embedded/9-2019-q4-major/gcc-arm-none-eabi-9-2019-q4-major/a
 813              		.file 45 "/usr/local/Caskroom/gcc-arm-embedded/9-2019-q4-major/gcc-arm-none-eabi-9-2019-q4-major/a
 814              		.file 46 "/usr/local/Caskroom/gcc-arm-embedded/9-2019-q4-major/gcc-arm-none-eabi-9-2019-q4-major/a
 815              		.file 47 "/usr/local/Caskroom/gcc-arm-embedded/9-2019-q4-major/gcc-arm-none-eabi-9-2019-q4-major/a
 816              		.file 48 "/usr/local/Caskroom/gcc-arm-embedded/9-2019-q4-major/gcc-arm-none-eabi-9-2019-q4-major/a
 817              		.file 49 "/usr/local/Caskroom/gcc-arm-embedded/9-2019-q4-major/gcc-arm-none-eabi-9-2019-q4-major/a
ARM GAS  /var/folders/84/_x1cyy_j36g486tldtwl37280000gn/T//ccjZARG3.s 			page 20

