ARM GAS  /var/folders/84/_x1cyy_j36g486tldtwl37280000gn/T//ccy6KN4R.s 			page 1


   1              		.cpu cortex-m4
   2              		.eabi_attribute 27, 1
   3              		.eabi_attribute 28, 1
   4              		.eabi_attribute 20, 1
   5              		.eabi_attribute 21, 1
   6              		.eabi_attribute 23, 3
   7              		.eabi_attribute 24, 1
   8              		.eabi_attribute 25, 1
   9              		.eabi_attribute 26, 1
  10              		.eabi_attribute 30, 2
  11              		.eabi_attribute 34, 1
  12              		.eabi_attribute 18, 4
  13              		.file	"ui.cpp"
  14              		.text
  15              	.Ltext0:
  16              		.cfi_sections	.debug_frame
  17              		.section	.text._Z8addEventN2Ui11ControlTypeEha,"ax",%progbits
  18              		.align	1
  19              		.p2align 2,,3
  20              		.global	_Z8addEventN2Ui11ControlTypeEha
  21              		.arch armv7e-m
  22              		.syntax unified
  23              		.thumb
  24              		.thumb_func
  25              		.fpu fpv4-sp-d16
  27              	_Z8addEventN2Ui11ControlTypeEha:
  28              	.LVL0:
  29              	.LFB2989:
  30              		.file 1 "Src/Ui/ui.cpp"
   1:Src/Ui/ui.cpp **** #include "ui.h"
   2:Src/Ui/ui.cpp **** #include "que.h"
   3:Src/Ui/ui.cpp **** #include "display.h"
   4:Src/Ui/ui.cpp **** #include "controller.h"
   5:Src/Ui/ui.cpp **** #include "matrix.h"
   6:Src/Ui/ui.cpp **** #include "disk.h"
   7:Src/Ui/ui.cpp **** #include "canvas.h"
   8:Src/Ui/ui.cpp **** #include "engine.h"
   9:Src/Ui/ui.cpp **** 
  10:Src/Ui/ui.cpp **** Ui ui;
  11:Src/Ui/ui.cpp **** 
  12:Src/Ui/ui.cpp **** Que<Ui::Event, 16> ui_que;
  13:Src/Ui/ui.cpp **** 
  14:Src/Ui/ui.cpp **** static const int num_enc_rows = 2;
  15:Src/Ui/ui.cpp **** static const int num_buttons_rows = 4;
  16:Src/Ui/ui.cpp **** static const int enc_a_rows[num_enc_rows] = { 1, 4 };
  17:Src/Ui/ui.cpp **** static const int enc_b_rows[num_enc_rows] = { 2, 5 };
  18:Src/Ui/ui.cpp **** static const int buttons_rows[num_buttons_rows] = { 0, 3, 6, 7 };
  19:Src/Ui/ui.cpp **** 
  20:Src/Ui/ui.cpp **** void addEvent(Ui::ControlType type, uint8_t id, int8_t value)  {
  31              		.loc 1 20 64 view -0
  32              		.cfi_startproc
  33              		@ args = 0, pretend = 0, frame = 0
  34              		@ frame_needed = 0, uses_anonymous_args = 0
  35              		@ link register save eliminated.
  21:Src/Ui/ui.cpp **** 	Ui::Event e;
  36              		.loc 1 21 2 view .LVU1
  22:Src/Ui/ui.cpp **** 	e.type = type;
ARM GAS  /var/folders/84/_x1cyy_j36g486tldtwl37280000gn/T//ccy6KN4R.s 			page 2


  37              		.loc 1 22 2 view .LVU2
  20:Src/Ui/ui.cpp **** 	Ui::Event e;
  38              		.loc 1 20 64 is_stmt 0 view .LVU3
  39 0000 70B4     		push	{r4, r5, r6}
  40              		.cfi_def_cfa_offset 12
  41              		.cfi_offset 4, -12
  42              		.cfi_offset 5, -8
  43              		.cfi_offset 6, -4
  44              	.LBB142:
  45              	.LBB143:
  46              		.file 2 "/Users/joostbooy/Desktop/Code/stm32/lib/utils/que.h"
   1:/Users/joostbooy/Desktop/Code/stm32/lib/utils/que.h **** #ifndef Que_h
   2:/Users/joostbooy/Desktop/Code/stm32/lib/utils/que.h **** #define Que_h
   3:/Users/joostbooy/Desktop/Code/stm32/lib/utils/que.h **** 
   4:/Users/joostbooy/Desktop/Code/stm32/lib/utils/que.h **** #include "stmf4lib.h"
   5:/Users/joostbooy/Desktop/Code/stm32/lib/utils/que.h **** 
   6:/Users/joostbooy/Desktop/Code/stm32/lib/utils/que.h **** // Circular Que
   7:/Users/joostbooy/Desktop/Code/stm32/lib/utils/que.h **** 
   8:/Users/joostbooy/Desktop/Code/stm32/lib/utils/que.h **** template <typename T, const size_t kMaxSize>
   9:/Users/joostbooy/Desktop/Code/stm32/lib/utils/que.h **** class Que {
  10:/Users/joostbooy/Desktop/Code/stm32/lib/utils/que.h **** public:
  11:/Users/joostbooy/Desktop/Code/stm32/lib/utils/que.h **** 
  12:/Users/joostbooy/Desktop/Code/stm32/lib/utils/que.h **** 	inline void init() {
  13:/Users/joostbooy/Desktop/Code/stm32/lib/utils/que.h **** 		write_pos_ = 0;
  14:/Users/joostbooy/Desktop/Code/stm32/lib/utils/que.h **** 		read_pos_ = 0;
  15:/Users/joostbooy/Desktop/Code/stm32/lib/utils/que.h **** 	}
  16:/Users/joostbooy/Desktop/Code/stm32/lib/utils/que.h **** 
  17:/Users/joostbooy/Desktop/Code/stm32/lib/utils/que.h **** 	inline bool writeable() {
  18:/Users/joostbooy/Desktop/Code/stm32/lib/utils/que.h **** 		return ((write_pos_ + 1) % kMaxSize) != read_pos_;
  19:/Users/joostbooy/Desktop/Code/stm32/lib/utils/que.h **** 	}
  20:/Users/joostbooy/Desktop/Code/stm32/lib/utils/que.h **** 
  21:/Users/joostbooy/Desktop/Code/stm32/lib/utils/que.h **** 	inline bool readable() {
  22:/Users/joostbooy/Desktop/Code/stm32/lib/utils/que.h **** 		return write_pos_ != read_pos_;
  23:/Users/joostbooy/Desktop/Code/stm32/lib/utils/que.h **** 	}
  24:/Users/joostbooy/Desktop/Code/stm32/lib/utils/que.h **** 
  25:/Users/joostbooy/Desktop/Code/stm32/lib/utils/que.h **** 	inline size_t size() {
  26:/Users/joostbooy/Desktop/Code/stm32/lib/utils/que.h **** 		return (write_pos_ - read_pos_) % kMaxSize;
  27:/Users/joostbooy/Desktop/Code/stm32/lib/utils/que.h **** 	}
  28:/Users/joostbooy/Desktop/Code/stm32/lib/utils/que.h **** 
  29:/Users/joostbooy/Desktop/Code/stm32/lib/utils/que.h **** 	inline size_t available_size() {
  30:/Users/joostbooy/Desktop/Code/stm32/lib/utils/que.h **** 		return kMaxSize - size();
  31:/Users/joostbooy/Desktop/Code/stm32/lib/utils/que.h **** 	}
  32:/Users/joostbooy/Desktop/Code/stm32/lib/utils/que.h **** 
  33:/Users/joostbooy/Desktop/Code/stm32/lib/utils/que.h **** 	inline void clear() {
  34:/Users/joostbooy/Desktop/Code/stm32/lib/utils/que.h **** 		write_pos_ = read_pos_;
  35:/Users/joostbooy/Desktop/Code/stm32/lib/utils/que.h **** 	}
  36:/Users/joostbooy/Desktop/Code/stm32/lib/utils/que.h **** 
  37:/Users/joostbooy/Desktop/Code/stm32/lib/utils/que.h **** 	inline void write(T value) {
  38:/Users/joostbooy/Desktop/Code/stm32/lib/utils/que.h **** 		size_t pos = write_pos_;
  47              		.loc 2 38 10 view .LVU4
  48 0002 074C     		ldr	r4, .L4
  49 0004 2368     		ldr	r3, [r4]
  39:/Users/joostbooy/Desktop/Code/stm32/lib/utils/que.h **** 		data[pos] = value;
  50              		.loc 2 39 3 view .LVU5
  51 0006 03EB4305 		add	r5, r3, r3, lsl #1
  52 000a 0835     		adds	r5, r5, #8
  53 000c 6619     		adds	r6, r4, r5
ARM GAS  /var/folders/84/_x1cyy_j36g486tldtwl37280000gn/T//ccy6KN4R.s 			page 3


  54              	.LVL1:
  55              		.loc 2 39 3 view .LVU6
  56              	.LBE143:
  57              	.LBE142:
  23:Src/Ui/ui.cpp **** 	e.id = id;
  58              		.loc 1 23 2 is_stmt 1 view .LVU7
  24:Src/Ui/ui.cpp **** 	e.value = value;
  59              		.loc 1 24 2 view .LVU8
  25:Src/Ui/ui.cpp **** 	ui_que.write(e);
  60              		.loc 1 25 2 view .LVU9
  61              	.LBB145:
  62              	.LBI142:
  37:/Users/joostbooy/Desktop/Code/stm32/lib/utils/que.h **** 		size_t pos = write_pos_;
  63              		.loc 2 37 14 view .LVU10
  64              	.LBB144:
  40:/Users/joostbooy/Desktop/Code/stm32/lib/utils/que.h **** 		write_pos_ = (pos + 1) % kMaxSize;
  65              		.loc 2 40 21 is_stmt 0 view .LVU11
  66 000e 0133     		adds	r3, r3, #1
  67              	.LVL2:
  68              		.loc 2 40 26 view .LVU12
  69 0010 03F00F03 		and	r3, r3, #15
  39:/Users/joostbooy/Desktop/Code/stm32/lib/utils/que.h **** 		write_pos_ = (pos + 1) % kMaxSize;
  70              		.loc 2 39 3 view .LVU13
  71 0014 6055     		strb	r0, [r4, r5]
  72              	.LVL3:
  39:/Users/joostbooy/Desktop/Code/stm32/lib/utils/que.h **** 		write_pos_ = (pos + 1) % kMaxSize;
  73              		.loc 2 39 3 view .LVU14
  74 0016 7170     		strb	r1, [r6, #1]
  75 0018 B270     		strb	r2, [r6, #2]
  76              		.loc 2 40 3 view .LVU15
  77 001a 2360     		str	r3, [r4]
  78              	.LVL4:
  79              		.loc 2 40 3 view .LVU16
  80              	.LBE144:
  81              	.LBE145:
  26:Src/Ui/ui.cpp **** }
  82              		.loc 1 26 1 view .LVU17
  83 001c 70BC     		pop	{r4, r5, r6}
  84              		.cfi_restore 6
  85              		.cfi_restore 5
  86              		.cfi_restore 4
  87              		.cfi_def_cfa_offset 0
  88 001e 7047     		bx	lr
  89              	.L5:
  90              		.align	2
  91              	.L4:
  92 0020 00000000 		.word	.LANCHOR0
  93              		.cfi_endproc
  94              	.LFE2989:
  96              		.section	.text._ZN2Ui4initEv,"ax",%progbits
  97              		.align	1
  98              		.p2align 2,,3
  99              		.global	_ZN2Ui4initEv
 100              		.syntax unified
 101              		.thumb
 102              		.thumb_func
 103              		.fpu fpv4-sp-d16
ARM GAS  /var/folders/84/_x1cyy_j36g486tldtwl37280000gn/T//ccy6KN4R.s 			page 4


 105              	_ZN2Ui4initEv:
 106              	.LVL5:
 107              	.LFB2990:
  27:Src/Ui/ui.cpp **** 
  28:Src/Ui/ui.cpp **** void Ui::init() {
 108              		.loc 1 28 17 is_stmt 1 view -0
 109              		.cfi_startproc
 110              		@ args = 0, pretend = 0, frame = 0
 111              		@ frame_needed = 0, uses_anonymous_args = 0
  29:Src/Ui/ui.cpp **** 	last_interval = 0;
 112              		.loc 1 29 2 view .LVU19
  28:Src/Ui/ui.cpp **** 	last_interval = 0;
 113              		.loc 1 28 17 is_stmt 0 view .LVU20
 114 0000 08B5     		push	{r3, lr}
 115              		.cfi_def_cfa_offset 8
 116              		.cfi_offset 3, -8
 117              		.cfi_offset 14, -4
 118              		.loc 1 29 16 view .LVU21
 119 0002 0023     		movs	r3, #0
  30:Src/Ui/ui.cpp **** 	display_interval = 0;
 120              		.loc 1 30 19 view .LVU22
 121 0004 C0E90033 		strd	r3, r3, [r0]
  31:Src/Ui/ui.cpp **** 	controller.init();
 122              		.loc 1 31 2 is_stmt 1 view .LVU23
 123              		.loc 1 31 17 is_stmt 0 view .LVU24
 124 0008 0648     		ldr	r0, .L8
 125              	.LVL6:
 126              		.loc 1 31 17 view .LVU25
 127 000a FFF7FEFF 		bl	_ZN10Controller4initEv
 128              	.LVL7:
  32:Src/Ui/ui.cpp **** 	pages.init();
 129              		.loc 1 32 2 is_stmt 1 view .LVU26
 130              		.loc 1 32 12 is_stmt 0 view .LVU27
 131 000e 0648     		ldr	r0, .L8+4
 132 0010 FFF7FEFF 		bl	_ZN5Pages4initEv
 133              	.LVL8:
  33:Src/Ui/ui.cpp **** 	chapter.init();
 134              		.loc 1 33 2 is_stmt 1 view .LVU28
 135              		.loc 1 33 14 is_stmt 0 view .LVU29
 136 0014 0548     		ldr	r0, .L8+8
 137 0016 FFF7FEFF 		bl	_ZN7Chapter4initEv
 138              	.LVL9:
  34:Src/Ui/ui.cpp **** 	ui_que.clear();
 139              		.loc 1 34 2 is_stmt 1 view .LVU30
 140              	.LBB146:
 141              	.LBI146:
  33:/Users/joostbooy/Desktop/Code/stm32/lib/utils/que.h **** 		write_pos_ = read_pos_;
 142              		.loc 2 33 14 view .LVU31
 143              	.LBB147:
  34:/Users/joostbooy/Desktop/Code/stm32/lib/utils/que.h **** 	}
 144              		.loc 2 34 16 is_stmt 0 view .LVU32
 145 001a 0548     		ldr	r0, .L8+12
 146 001c 4268     		ldr	r2, [r0, #4]
  34:/Users/joostbooy/Desktop/Code/stm32/lib/utils/que.h **** 	}
 147              		.loc 2 34 3 view .LVU33
 148 001e 0260     		str	r2, [r0]
 149              	.LVL10:
ARM GAS  /var/folders/84/_x1cyy_j36g486tldtwl37280000gn/T//ccy6KN4R.s 			page 5


  34:/Users/joostbooy/Desktop/Code/stm32/lib/utils/que.h **** 	}
 150              		.loc 2 34 3 view .LVU34
 151              	.LBE147:
 152              	.LBE146:
  35:Src/Ui/ui.cpp **** }
 153              		.loc 1 35 1 view .LVU35
 154 0020 08BD     		pop	{r3, pc}
 155              	.L9:
 156 0022 00BF     		.align	2
 157              	.L8:
 158 0024 00000000 		.word	controller
 159 0028 00000000 		.word	pages
 160 002c 00000000 		.word	chapter
 161 0030 00000000 		.word	.LANCHOR0
 162              		.cfi_endproc
 163              	.LFE2990:
 165              		.section	.text._ZN2Ui4pollEv,"ax",%progbits
 166              		.align	1
 167              		.p2align 2,,3
 168              		.global	_ZN2Ui4pollEv
 169              		.syntax unified
 170              		.thumb
 171              		.thumb_func
 172              		.fpu fpv4-sp-d16
 174              	_ZN2Ui4pollEv:
 175              	.LVL11:
 176              	.LFB2991:
  36:Src/Ui/ui.cpp **** 
  37:Src/Ui/ui.cpp **** void Ui::poll() {
 177              		.loc 1 37 17 is_stmt 1 view -0
 178              		.cfi_startproc
 179              		@ args = 0, pretend = 0, frame = 24
 180              		@ frame_needed = 0, uses_anonymous_args = 0
  38:Src/Ui/ui.cpp **** 	uint8_t reading[16];
 181              		.loc 1 38 2 view .LVU37
  39:Src/Ui/ui.cpp **** 	matrix.refresh(&reading[0]);
 182              		.loc 1 39 2 view .LVU38
  37:Src/Ui/ui.cpp **** 	uint8_t reading[16];
 183              		.loc 1 37 17 is_stmt 0 view .LVU39
 184 0000 F0B5     		push	{r4, r5, r6, r7, lr}
 185              		.cfi_def_cfa_offset 20
 186              		.cfi_offset 4, -20
 187              		.cfi_offset 5, -16
 188              		.cfi_offset 6, -12
 189              		.cfi_offset 7, -8
 190              		.cfi_offset 14, -4
 191 0002 87B0     		sub	sp, sp, #28
 192              		.cfi_def_cfa_offset 48
 193              	.LVL12:
 194              	.LBB199:
 195              	.LBI199:
 196              		.file 3 "Drivers/matrix.h"
   1:Drivers/matrix.h **** #ifndef Matrix_h
   2:Drivers/matrix.h **** #define Matrix_h
   3:Drivers/matrix.h **** 
   4:Drivers/matrix.h **** #include "stmf4lib.h"
   5:Drivers/matrix.h **** #include "micros.h"
ARM GAS  /var/folders/84/_x1cyy_j36g486tldtwl37280000gn/T//ccy6KN4R.s 			page 6


   6:Drivers/matrix.h **** 
   7:Drivers/matrix.h **** // Button led matrix 8x16
   8:Drivers/matrix.h **** 
   9:Drivers/matrix.h **** class Matrix {
  10:Drivers/matrix.h **** 
  11:Drivers/matrix.h **** public:
  12:Drivers/matrix.h **** 
  13:Drivers/matrix.h **** 	enum LedColor {
  14:Drivers/matrix.h **** 		BLACK	= 0x00,
  15:Drivers/matrix.h **** 		RED		= 0x01,
  16:Drivers/matrix.h **** 		GREEN	= 0x02,
  17:Drivers/matrix.h **** 		ORANGE	= 0x03,
  18:Drivers/matrix.h **** 	};
  19:Drivers/matrix.h **** 
  20:Drivers/matrix.h **** 	void init();
  21:Drivers/matrix.h **** 
  22:Drivers/matrix.h **** 	void lock_leds() {
  23:Drivers/matrix.h **** 		for (int i = 0; i < kNumOfLedCollumns; ++i) {
  24:Drivers/matrix.h **** 			led_row_copy[i] = led_row[i];
  25:Drivers/matrix.h **** 		}
  26:Drivers/matrix.h **** 		leds_locked = true;
  27:Drivers/matrix.h **** 	}
  28:Drivers/matrix.h **** 
  29:Drivers/matrix.h **** 	void unlock_leds() {
  30:Drivers/matrix.h **** 		leds_locked = false;
  31:Drivers/matrix.h **** 	}
  32:Drivers/matrix.h **** 
  33:Drivers/matrix.h **** 	void clear_leds() {
  34:Drivers/matrix.h **** 		for (int i = 0; i < kNumOfLedCollumns; ++i) {
  35:Drivers/matrix.h **** 			led_row[i] = 0;
  36:Drivers/matrix.h **** 		}
  37:Drivers/matrix.h **** 	}
  38:Drivers/matrix.h **** 
  39:Drivers/matrix.h **** 	void set_led(uint8_t coll, uint8_t row, LedColor color) {
  40:Drivers/matrix.h **** 		uint16_t data = led_row[coll] & ~(0x3 << (row * 2));
  41:Drivers/matrix.h **** 		led_row[coll] = data | (color << (row * 2));
  42:Drivers/matrix.h **** 	}
  43:Drivers/matrix.h **** 
  44:Drivers/matrix.h **** 	void refresh(uint8_t *buff) {
 197              		.loc 3 44 7 is_stmt 1 view .LVU40
 198              	.LBB200:
  45:Drivers/matrix.h **** 		for (int i = 0; i < kNumOfSwitchCollumns; ++i) {
 199              		.loc 3 45 3 view .LVU41
 200              	.LBB201:
 201              		.loc 3 45 21 view .LVU42
  46:Drivers/matrix.h **** 			set_collumn(i);
 202              		.loc 3 46 4 view .LVU43
 203              	.LBB202:
 204              	.LBI202:
  47:Drivers/matrix.h **** 			GPIOE->BSRR = GPIO_PIN_6 << 16;				// latch switches
  48:Drivers/matrix.h **** 			asm("NOP");
  49:Drivers/matrix.h **** 			GPIOE->BSRR = GPIO_PIN_6;
  50:Drivers/matrix.h **** 			*buff++ = spi_transfer();
  51:Drivers/matrix.h **** 			*buff++ = spi_transfer();
  52:Drivers/matrix.h **** 		}
  53:Drivers/matrix.h **** 
  54:Drivers/matrix.h **** 		// write led row
ARM GAS  /var/folders/84/_x1cyy_j36g486tldtwl37280000gn/T//ccy6KN4R.s 			page 7


  55:Drivers/matrix.h **** 		uint16_t led_data = leds_locked ? led_row_copy[led_coll] : led_row[led_coll];
  56:Drivers/matrix.h **** 		spi_transfer(led_data >> 8);
  57:Drivers/matrix.h **** 		spi_transfer(led_data);
  58:Drivers/matrix.h **** 
  59:Drivers/matrix.h **** 		// update collumn
  60:Drivers/matrix.h **** 		set_collumn(led_coll);
  61:Drivers/matrix.h **** 		++led_coll %= kNumOfLedCollumns;
  62:Drivers/matrix.h **** 
  63:Drivers/matrix.h **** 		// enable led row &  collumns
  64:Drivers/matrix.h **** 		GPIOB->BSRR = GPIO_PIN_8 << 16;
  65:Drivers/matrix.h **** 		GPIOB->BSRR = GPIO_PIN_9 << 16;
  66:Drivers/matrix.h **** 		// latch led rows & collumn
  67:Drivers/matrix.h **** 		GPIOB->BSRR = GPIO_PIN_8 | GPIO_PIN_9;
  68:Drivers/matrix.h **** 	}
  69:Drivers/matrix.h **** 
  70:Drivers/matrix.h **** private:
  71:Drivers/matrix.h **** 	static const uint8_t kNumOfSwitchCollumns = 8;
  72:Drivers/matrix.h **** 	static const uint8_t kNumOfLedCollumns = 8;
  73:Drivers/matrix.h **** 	volatile bool leds_locked = false;
  74:Drivers/matrix.h **** 
  75:Drivers/matrix.h **** 	uint8_t led_coll = 0;
  76:Drivers/matrix.h **** 	uint16_t led_row[kNumOfLedCollumns];
  77:Drivers/matrix.h **** 	uint16_t led_row_copy[kNumOfLedCollumns];
  78:Drivers/matrix.h **** 
  79:Drivers/matrix.h **** 
  80:Drivers/matrix.h **** 	void set_collumn(uint8_t coll) {
 205              		.loc 3 80 7 view .LVU44
 206              	.LBB203:
  81:Drivers/matrix.h **** 		uint32_t reg = 0;
 207              		.loc 3 81 3 view .LVU45
  82:Drivers/matrix.h **** 		coll & 0x01 ? reg |= GPIO_PIN_2 : reg |= GPIO_PIN_2 << 16;
 208              		.loc 3 82 3 view .LVU46
 209 0004 0DF10A05 		add	r5, sp, #10
 210              	.LBE203:
 211              	.LBE202:
  45:Drivers/matrix.h **** 			set_collumn(i);
 212              		.loc 3 45 12 is_stmt 0 view .LVU47
 213 0008 0024     		movs	r4, #0
 214              	.LBB216:
 215              	.LBB214:
 216              		.loc 3 82 41 view .LVU48
 217 000a 4FF48023 		mov	r3, #262144
 218              	.LVL13:
 219              	.L11:
  83:Drivers/matrix.h **** 		coll & 0x02 ? reg |= GPIO_PIN_3 : reg |= GPIO_PIN_3 << 16;
 220              		.loc 3 83 15 view .LVU49
 221 000e A107     		lsls	r1, r4, #30
 222 0010 E2B2     		uxtb	r2, r4
 223              	.LVL14:
 224              		.loc 3 83 3 is_stmt 1 view .LVU50
 225              		.loc 3 83 21 is_stmt 0 view .LVU51
 226 0012 4CBF     		ite	mi
 227 0014 43F00803 		orrmi	r3, r3, #8
 228              	.LVL15:
 229              		.loc 3 83 41 view .LVU52
 230 0018 43F40023 		orrpl	r3, r3, #524288
 231              	.LVL16:
ARM GAS  /var/folders/84/_x1cyy_j36g486tldtwl37280000gn/T//ccy6KN4R.s 			page 8


  84:Drivers/matrix.h **** 		coll & 0x04 ? reg |= GPIO_PIN_4 : reg |= GPIO_PIN_4 << 16;
 232              		.loc 3 84 3 is_stmt 1 view .LVU53
  85:Drivers/matrix.h **** 		GPIOE->BSRR = reg;
 233              		.loc 3 85 15 is_stmt 0 view .LVU54
 234 001c 7349     		ldr	r1, .L103
 235              	.LBB204:
 236              	.LBB205:
 237              	.LBB206:
 238              	.LBB207:
 239              		.file 4 "Drivers/micros.h"
   1:Drivers/micros.h **** #ifndef Micros_h
   2:Drivers/micros.h **** #define Micros_h
   3:Drivers/micros.h **** 
   4:Drivers/micros.h **** #include "stmf4lib.h"
   5:Drivers/micros.h **** 
   6:Drivers/micros.h **** class Micros {
   7:Drivers/micros.h **** 
   8:Drivers/micros.h **** public:
   9:Drivers/micros.h **** 	void init();
  10:Drivers/micros.h **** 
  11:Drivers/micros.h **** 	inline volatile uint32_t read() {
  12:Drivers/micros.h **** 		return TIM5->CNT;
 240              		.loc 4 12 16 view .LVU55
 241 001e 744E     		ldr	r6, .L103+4
 242              	.LBE207:
 243              	.LBE206:
 244              	.LBE205:
 245              	.LBE204:
  84:Drivers/matrix.h **** 		GPIOE->BSRR = reg;
 246              		.loc 3 84 15 view .LVU56
 247 0020 5207     		lsls	r2, r2, #29
  84:Drivers/matrix.h **** 		GPIOE->BSRR = reg;
 248              		.loc 3 84 21 view .LVU57
 249 0022 4CBF     		ite	mi
 250 0024 43F01003 		orrmi	r3, r3, #16
 251              	.LVL17:
  84:Drivers/matrix.h **** 		GPIOE->BSRR = reg;
 252              		.loc 3 84 41 view .LVU58
 253 0028 43F48013 		orrpl	r3, r3, #1048576
 254              	.LVL18:
 255              		.loc 3 85 3 is_stmt 1 view .LVU59
 256              		.loc 3 85 15 is_stmt 0 view .LVU60
 257 002c 8B61     		str	r3, [r1, #24]
  86:Drivers/matrix.h **** 		micros.delay(1);
 258              		.loc 3 86 3 is_stmt 1 view .LVU61
 259              	.LVL19:
 260              	.LBB213:
 261              	.LBI204:
  13:Drivers/micros.h **** 	}
  14:Drivers/micros.h **** 
  15:Drivers/micros.h **** 	void delay(uint32_t us) {
 262              		.loc 4 15 7 view .LVU62
 263              	.LBB212:
  16:Drivers/micros.h **** 		uint32_t start = read();
 264              		.loc 4 16 3 view .LVU63
 265              	.LBB209:
 266              	.LBI206:
ARM GAS  /var/folders/84/_x1cyy_j36g486tldtwl37280000gn/T//ccy6KN4R.s 			page 9


  11:Drivers/micros.h **** 		return TIM5->CNT;
 267              		.loc 4 11 27 view .LVU64
 268              	.LBB208:
  12:Drivers/micros.h **** 	}
 269              		.loc 4 12 3 view .LVU65
  12:Drivers/micros.h **** 	}
 270              		.loc 4 12 16 is_stmt 0 view .LVU66
 271 002e 776A     		ldr	r7, [r6, #36]
 272              	.LVL20:
 273              	.L17:
  12:Drivers/micros.h **** 	}
 274              		.loc 4 12 16 view .LVU67
 275              	.LBE208:
 276              	.LBE209:
  17:Drivers/micros.h **** 		while (static_cast<uint32_t>(read() - start) < us);
 277              		.loc 4 17 3 is_stmt 1 view .LVU68
 278              		.loc 4 17 48 view .LVU69
 279              	.LBB210:
 280              	.LBI210:
  11:Drivers/micros.h **** 		return TIM5->CNT;
 281              		.loc 4 11 27 view .LVU70
 282              	.LBB211:
  12:Drivers/micros.h **** 	}
 283              		.loc 4 12 3 view .LVU71
  12:Drivers/micros.h **** 	}
 284              		.loc 4 12 16 is_stmt 0 view .LVU72
 285 0030 6F4B     		ldr	r3, .L103+4
 286 0032 5A6A     		ldr	r2, [r3, #36]
 287              	.LBE211:
 288              	.LBE210:
 289              		.loc 4 17 48 view .LVU73
 290 0034 9742     		cmp	r7, r2
 291 0036 FBD0     		beq	.L17
 292              	.LVL21:
 293              		.loc 4 17 48 view .LVU74
 294              	.LBE212:
 295              	.LBE213:
 296              	.LBE214:
 297              	.LBE216:
  47:Drivers/matrix.h **** 			asm("NOP");
 298              		.loc 3 47 4 is_stmt 1 view .LVU75
  47:Drivers/matrix.h **** 			asm("NOP");
 299              		.loc 3 47 16 is_stmt 0 view .LVU76
 300 0038 6C49     		ldr	r1, .L103
 301 003a 4FF48006 		mov	r6, #4194304
 302 003e 8E61     		str	r6, [r1, #24]
  48:Drivers/matrix.h **** 			GPIOE->BSRR = GPIO_PIN_6;
 303              		.loc 3 48 4 is_stmt 1 view .LVU77
  48:Drivers/matrix.h **** 			GPIOE->BSRR = GPIO_PIN_6;
 304              		.loc 3 48 14 is_stmt 0 view .LVU78
 305              		.syntax unified
 306              	@ 48 "Drivers/matrix.h" 1
 307 0040 00BF     		NOP
 308              	@ 0 "" 2
  49:Drivers/matrix.h **** 			*buff++ = spi_transfer();
 309              		.loc 3 49 4 is_stmt 1 view .LVU79
  49:Drivers/matrix.h **** 			*buff++ = spi_transfer();
ARM GAS  /var/folders/84/_x1cyy_j36g486tldtwl37280000gn/T//ccy6KN4R.s 			page 10


 310              		.loc 3 49 16 is_stmt 0 view .LVU80
 311              		.thumb
 312              		.syntax unified
 313 0042 4027     		movs	r7, #64
 314 0044 8F61     		str	r7, [r1, #24]
  50:Drivers/matrix.h **** 			*buff++ = spi_transfer();
 315              		.loc 3 50 4 is_stmt 1 view .LVU81
 316              	.LVL22:
 317              	.LBB217:
 318              	.LBI217:
  87:Drivers/matrix.h **** 	}
  88:Drivers/matrix.h **** 
  89:Drivers/matrix.h **** 	uint8_t spi_transfer(uint8_t send = 0xff) {
 319              		.loc 3 89 10 view .LVU82
 320              	.L18:
 321              	.LBB218:
  90:Drivers/matrix.h **** 		volatile uint8_t recv;
 322              		.loc 3 90 3 view .LVU83
  91:Drivers/matrix.h **** 
  92:Drivers/matrix.h **** 		while (!(SPI3->SR & SPI_FLAG_TXE));
 323              		.loc 3 92 3 view .LVU84
 324              		.loc 3 92 10 view .LVU85
 325              		.loc 3 92 18 is_stmt 0 view .LVU86
 326 0046 6B4B     		ldr	r3, .L103+8
 327 0048 9A68     		ldr	r2, [r3, #8]
 328              		.loc 3 92 10 view .LVU87
 329 004a 9707     		lsls	r7, r2, #30
 330 004c FBD5     		bpl	.L18
  93:Drivers/matrix.h **** 		SPI3->DR = send;
 331              		.loc 3 93 3 is_stmt 1 view .LVU88
 332              		.loc 3 93 12 is_stmt 0 view .LVU89
 333 004e FF21     		movs	r1, #255
 334 0050 D960     		str	r1, [r3, #12]
 335              	.L19:
  94:Drivers/matrix.h **** 
  95:Drivers/matrix.h **** 		while (!(SPI3->SR & SPI_FLAG_RXNE));
 336              		.loc 3 95 3 is_stmt 1 view .LVU90
 337              		.loc 3 95 10 view .LVU91
 338              		.loc 3 95 18 is_stmt 0 view .LVU92
 339 0052 684F     		ldr	r7, .L103+8
 340 0054 BE68     		ldr	r6, [r7, #8]
 341              		.loc 3 95 10 view .LVU93
 342 0056 F607     		lsls	r6, r6, #31
 343 0058 FBD5     		bpl	.L19
  96:Drivers/matrix.h **** 		recv = SPI3->DR;
 344              		.loc 3 96 3 is_stmt 1 view .LVU94
 345              		.loc 3 96 16 is_stmt 0 view .LVU95
 346 005a FB68     		ldr	r3, [r7, #12]
 347              		.loc 3 96 8 view .LVU96
 348 005c DAB2     		uxtb	r2, r3
 349 005e 8DF80620 		strb	r2, [sp, #6]
  97:Drivers/matrix.h **** 
  98:Drivers/matrix.h **** 		return recv;
 350              		.loc 3 98 3 is_stmt 1 view .LVU97
 351              	.LVL23:
 352              		.loc 3 98 10 is_stmt 0 view .LVU98
 353 0062 9DF80610 		ldrb	r1, [sp, #6]	@ zero_extendqisi2
ARM GAS  /var/folders/84/_x1cyy_j36g486tldtwl37280000gn/T//ccy6KN4R.s 			page 11


 354              	.LBE218:
 355              	.LBE217:
  50:Drivers/matrix.h **** 			*buff++ = spi_transfer();
 356              		.loc 3 50 12 view .LVU99
 357 0066 05F8021C 		strb	r1, [r5, #-2]
  51:Drivers/matrix.h **** 		}
 358              		.loc 3 51 4 is_stmt 1 view .LVU100
 359              	.LVL24:
 360              	.LBB219:
 361              	.LBI219:
  89:Drivers/matrix.h **** 		volatile uint8_t recv;
 362              		.loc 3 89 10 view .LVU101
 363              	.L20:
 364              	.LBB220:
  90:Drivers/matrix.h **** 
 365              		.loc 3 90 3 view .LVU102
  92:Drivers/matrix.h **** 		SPI3->DR = send;
 366              		.loc 3 92 3 view .LVU103
  92:Drivers/matrix.h **** 		SPI3->DR = send;
 367              		.loc 3 92 10 view .LVU104
  92:Drivers/matrix.h **** 		SPI3->DR = send;
 368              		.loc 3 92 18 is_stmt 0 view .LVU105
 369 006a 624F     		ldr	r7, .L103+8
 370 006c BE68     		ldr	r6, [r7, #8]
  92:Drivers/matrix.h **** 		SPI3->DR = send;
 371              		.loc 3 92 10 view .LVU106
 372 006e B107     		lsls	r1, r6, #30
 373 0070 FBD5     		bpl	.L20
  93:Drivers/matrix.h **** 
 374              		.loc 3 93 3 is_stmt 1 view .LVU107
  93:Drivers/matrix.h **** 
 375              		.loc 3 93 12 is_stmt 0 view .LVU108
 376 0072 FF23     		movs	r3, #255
 377 0074 FB60     		str	r3, [r7, #12]
 378              	.L21:
  95:Drivers/matrix.h **** 		recv = SPI3->DR;
 379              		.loc 3 95 3 is_stmt 1 view .LVU109
  95:Drivers/matrix.h **** 		recv = SPI3->DR;
 380              		.loc 3 95 10 view .LVU110
  95:Drivers/matrix.h **** 		recv = SPI3->DR;
 381              		.loc 3 95 18 is_stmt 0 view .LVU111
 382 0076 5F4F     		ldr	r7, .L103+8
 383 0078 BA68     		ldr	r2, [r7, #8]
  95:Drivers/matrix.h **** 		recv = SPI3->DR;
 384              		.loc 3 95 10 view .LVU112
 385 007a D207     		lsls	r2, r2, #31
 386 007c FBD5     		bpl	.L21
  96:Drivers/matrix.h **** 
 387              		.loc 3 96 3 is_stmt 1 view .LVU113
  96:Drivers/matrix.h **** 
 388              		.loc 3 96 16 is_stmt 0 view .LVU114
 389 007e F968     		ldr	r1, [r7, #12]
  96:Drivers/matrix.h **** 
 390              		.loc 3 96 8 view .LVU115
 391 0080 CEB2     		uxtb	r6, r1
 392 0082 8DF80760 		strb	r6, [sp, #7]
 393              		.loc 3 98 3 is_stmt 1 view .LVU116
ARM GAS  /var/folders/84/_x1cyy_j36g486tldtwl37280000gn/T//ccy6KN4R.s 			page 12


 394              	.LVL25:
 395              		.loc 3 98 3 is_stmt 0 view .LVU117
 396              	.LBE220:
 397              	.LBE219:
  45:Drivers/matrix.h **** 			set_collumn(i);
 398              		.loc 3 45 3 view .LVU118
 399 0086 0134     		adds	r4, r4, #1
 400              	.LBB222:
 401              	.LBB221:
 402              		.loc 3 98 10 view .LVU119
 403 0088 9DF80730 		ldrb	r3, [sp, #7]	@ zero_extendqisi2
 404              	.LBE221:
 405              	.LBE222:
  51:Drivers/matrix.h **** 		}
 406              		.loc 3 51 12 view .LVU120
 407 008c 05F8013C 		strb	r3, [r5, #-1]
  45:Drivers/matrix.h **** 			set_collumn(i);
 408              		.loc 3 45 3 is_stmt 1 view .LVU121
 409              	.LVL26:
  45:Drivers/matrix.h **** 			set_collumn(i);
 410              		.loc 3 45 21 view .LVU122
 411 0090 082C     		cmp	r4, #8
 412 0092 08D0     		beq	.L96
  46:Drivers/matrix.h **** 			GPIOE->BSRR = GPIO_PIN_6 << 16;				// latch switches
 413              		.loc 3 46 4 view .LVU123
 414              	.LVL27:
 415              	.LBB223:
  80:Drivers/matrix.h **** 		uint32_t reg = 0;
 416              		.loc 3 80 7 view .LVU124
 417              	.LBB215:
  81:Drivers/matrix.h **** 		coll & 0x01 ? reg |= GPIO_PIN_2 : reg |= GPIO_PIN_2 << 16;
 418              		.loc 3 81 3 view .LVU125
  82:Drivers/matrix.h **** 		coll & 0x02 ? reg |= GPIO_PIN_3 : reg |= GPIO_PIN_3 << 16;
 419              		.loc 3 82 3 view .LVU126
  82:Drivers/matrix.h **** 		coll & 0x02 ? reg |= GPIO_PIN_3 : reg |= GPIO_PIN_3 << 16;
 420              		.loc 3 82 21 is_stmt 0 view .LVU127
 421 0094 14F0010F 		tst	r4, #1
 422 0098 05F10205 		add	r5, r5, #2
 423              	.LVL28:
  82:Drivers/matrix.h **** 		coll & 0x02 ? reg |= GPIO_PIN_3 : reg |= GPIO_PIN_3 << 16;
 424              		.loc 3 82 21 view .LVU128
 425 009c 0CBF     		ite	eq
 426 009e 4FF48023 		moveq	r3, #262144
 427 00a2 0423     		movne	r3, #4
 428 00a4 B3E7     		b	.L11
 429              	.LVL29:
 430              	.L96:
  82:Drivers/matrix.h **** 		coll & 0x02 ? reg |= GPIO_PIN_3 : reg |= GPIO_PIN_3 << 16;
 431              		.loc 3 82 21 view .LVU129
 432              	.LBE215:
 433              	.LBE223:
 434              	.LBE201:
  55:Drivers/matrix.h **** 		spi_transfer(led_data >> 8);
 435              		.loc 3 55 3 is_stmt 1 view .LVU130
  55:Drivers/matrix.h **** 		spi_transfer(led_data >> 8);
 436              		.loc 3 55 23 is_stmt 0 view .LVU131
 437 00a6 5449     		ldr	r1, .L103+12
ARM GAS  /var/folders/84/_x1cyy_j36g486tldtwl37280000gn/T//ccy6KN4R.s 			page 13


 438 00a8 0F78     		ldrb	r7, [r1]	@ zero_extendqisi2
  55:Drivers/matrix.h **** 		spi_transfer(led_data >> 8);
 439              		.loc 3 55 50 view .LVU132
 440 00aa 4C78     		ldrb	r4, [r1, #1]	@ zero_extendqisi2
 441              	.LVL30:
  55:Drivers/matrix.h **** 		spi_transfer(led_data >> 8);
 442              		.loc 3 55 35 view .LVU133
 443 00ac 002F     		cmp	r7, #0
 444 00ae 00F0CF81 		beq	.L23
 445 00b2 01EB4402 		add	r2, r1, r4, lsl #1
 446 00b6 558A     		ldrh	r5, [r2, #18]
 447              	.LVL31:
 448              	.L24:
  56:Drivers/matrix.h **** 		spi_transfer(led_data);
 449              		.loc 3 56 3 is_stmt 1 view .LVU134
  56:Drivers/matrix.h **** 		spi_transfer(led_data);
 450              		.loc 3 56 25 is_stmt 0 view .LVU135
 451 00b8 2E12     		asrs	r6, r5, #8
 452              	.LVL32:
 453              	.LBB224:
 454              	.LBI224:
  89:Drivers/matrix.h **** 		volatile uint8_t recv;
 455              		.loc 3 89 10 is_stmt 1 view .LVU136
 456              	.L25:
 457              	.LBB225:
  90:Drivers/matrix.h **** 
 458              		.loc 3 90 3 view .LVU137
  92:Drivers/matrix.h **** 		SPI3->DR = send;
 459              		.loc 3 92 3 view .LVU138
  92:Drivers/matrix.h **** 		SPI3->DR = send;
 460              		.loc 3 92 10 view .LVU139
  92:Drivers/matrix.h **** 		SPI3->DR = send;
 461              		.loc 3 92 18 is_stmt 0 view .LVU140
 462 00ba 4E4B     		ldr	r3, .L103+8
 463 00bc 9F68     		ldr	r7, [r3, #8]
  92:Drivers/matrix.h **** 		SPI3->DR = send;
 464              		.loc 3 92 10 view .LVU141
 465 00be BF07     		lsls	r7, r7, #30
 466 00c0 FBD5     		bpl	.L25
  93:Drivers/matrix.h **** 
 467              		.loc 3 93 3 is_stmt 1 view .LVU142
  93:Drivers/matrix.h **** 
 468              		.loc 3 93 12 is_stmt 0 view .LVU143
 469 00c2 DE60     		str	r6, [r3, #12]
 470              	.LVL33:
 471              	.L26:
  95:Drivers/matrix.h **** 		recv = SPI3->DR;
 472              		.loc 3 95 3 is_stmt 1 view .LVU144
  95:Drivers/matrix.h **** 		recv = SPI3->DR;
 473              		.loc 3 95 10 view .LVU145
  95:Drivers/matrix.h **** 		recv = SPI3->DR;
 474              		.loc 3 95 18 is_stmt 0 view .LVU146
 475 00c4 4B4E     		ldr	r6, .L103+8
 476 00c6 B268     		ldr	r2, [r6, #8]
  95:Drivers/matrix.h **** 		recv = SPI3->DR;
 477              		.loc 3 95 10 view .LVU147
 478 00c8 D207     		lsls	r2, r2, #31
ARM GAS  /var/folders/84/_x1cyy_j36g486tldtwl37280000gn/T//ccy6KN4R.s 			page 14


 479 00ca FBD5     		bpl	.L26
  96:Drivers/matrix.h **** 
 480              		.loc 3 96 3 is_stmt 1 view .LVU148
  96:Drivers/matrix.h **** 
 481              		.loc 3 96 16 is_stmt 0 view .LVU149
 482 00cc F368     		ldr	r3, [r6, #12]
 483              	.LVL34:
  96:Drivers/matrix.h **** 
 484              		.loc 3 96 8 view .LVU150
 485 00ce DFB2     		uxtb	r7, r3
 486 00d0 8DF80470 		strb	r7, [sp, #4]
 487              	.LVL35:
 488              		.loc 3 98 3 is_stmt 1 view .LVU151
 489              		.loc 3 98 10 is_stmt 0 view .LVU152
 490 00d4 9DF80430 		ldrb	r3, [sp, #4]	@ zero_extendqisi2
 491              	.LVL36:
 492              		.loc 3 98 10 view .LVU153
 493              	.LBE225:
 494              	.LBE224:
  57:Drivers/matrix.h **** 
 495              		.loc 3 57 3 is_stmt 1 view .LVU154
  57:Drivers/matrix.h **** 
 496              		.loc 3 57 15 is_stmt 0 view .LVU155
 497 00d8 EDB2     		uxtb	r5, r5
 498              	.LVL37:
 499              	.LBB226:
 500              	.LBI226:
  89:Drivers/matrix.h **** 		volatile uint8_t recv;
 501              		.loc 3 89 10 is_stmt 1 view .LVU156
 502              	.L27:
 503              	.LBB227:
  90:Drivers/matrix.h **** 
 504              		.loc 3 90 3 view .LVU157
  92:Drivers/matrix.h **** 		SPI3->DR = send;
 505              		.loc 3 92 3 view .LVU158
  92:Drivers/matrix.h **** 		SPI3->DR = send;
 506              		.loc 3 92 10 view .LVU159
  92:Drivers/matrix.h **** 		SPI3->DR = send;
 507              		.loc 3 92 18 is_stmt 0 view .LVU160
 508 00da 464E     		ldr	r6, .L103+8
 509 00dc B268     		ldr	r2, [r6, #8]
  92:Drivers/matrix.h **** 		SPI3->DR = send;
 510              		.loc 3 92 10 view .LVU161
 511 00de 9707     		lsls	r7, r2, #30
 512 00e0 FBD5     		bpl	.L27
  93:Drivers/matrix.h **** 
 513              		.loc 3 93 3 is_stmt 1 view .LVU162
  93:Drivers/matrix.h **** 
 514              		.loc 3 93 12 is_stmt 0 view .LVU163
 515 00e2 F560     		str	r5, [r6, #12]
 516              	.L28:
  95:Drivers/matrix.h **** 		recv = SPI3->DR;
 517              		.loc 3 95 3 is_stmt 1 view .LVU164
  95:Drivers/matrix.h **** 		recv = SPI3->DR;
 518              		.loc 3 95 10 view .LVU165
  95:Drivers/matrix.h **** 		recv = SPI3->DR;
 519              		.loc 3 95 18 is_stmt 0 view .LVU166
ARM GAS  /var/folders/84/_x1cyy_j36g486tldtwl37280000gn/T//ccy6KN4R.s 			page 15


 520 00e4 434B     		ldr	r3, .L103+8
 521 00e6 9F68     		ldr	r7, [r3, #8]
  95:Drivers/matrix.h **** 		recv = SPI3->DR;
 522              		.loc 3 95 10 view .LVU167
 523 00e8 FE07     		lsls	r6, r7, #31
 524 00ea FBD5     		bpl	.L28
  96:Drivers/matrix.h **** 
 525              		.loc 3 96 3 is_stmt 1 view .LVU168
  96:Drivers/matrix.h **** 
 526              		.loc 3 96 16 is_stmt 0 view .LVU169
 527 00ec DD68     		ldr	r5, [r3, #12]
 528              	.LVL38:
  96:Drivers/matrix.h **** 
 529              		.loc 3 96 16 view .LVU170
 530              	.LBE227:
 531              	.LBE226:
 532              	.LBB229:
 533              	.LBB230:
  85:Drivers/matrix.h **** 		micros.delay(1);
 534              		.loc 3 85 15 view .LVU171
 535 00ee 3F4F     		ldr	r7, .L103
 536              	.LBE230:
 537              	.LBE229:
 538              	.LBB242:
 539              	.LBB228:
  96:Drivers/matrix.h **** 
 540              		.loc 3 96 8 view .LVU172
 541 00f0 EEB2     		uxtb	r6, r5
 542 00f2 8DF80560 		strb	r6, [sp, #5]
 543              	.LVL39:
 544              		.loc 3 98 3 is_stmt 1 view .LVU173
 545              		.loc 3 98 10 is_stmt 0 view .LVU174
 546 00f6 9DF80530 		ldrb	r3, [sp, #5]	@ zero_extendqisi2
 547              		.loc 3 98 10 view .LVU175
 548              	.LBE228:
 549              	.LBE242:
  60:Drivers/matrix.h **** 		++led_coll %= kNumOfLedCollumns;
 550              		.loc 3 60 3 is_stmt 1 view .LVU176
 551              	.LVL40:
 552              	.LBB243:
 553              	.LBI229:
  80:Drivers/matrix.h **** 		uint32_t reg = 0;
 554              		.loc 3 80 7 view .LVU177
 555              	.LBB241:
  81:Drivers/matrix.h **** 		coll & 0x01 ? reg |= GPIO_PIN_2 : reg |= GPIO_PIN_2 << 16;
 556              		.loc 3 81 3 view .LVU178
  82:Drivers/matrix.h **** 		coll & 0x02 ? reg |= GPIO_PIN_3 : reg |= GPIO_PIN_3 << 16;
 557              		.loc 3 82 3 view .LVU179
  82:Drivers/matrix.h **** 		coll & 0x02 ? reg |= GPIO_PIN_3 : reg |= GPIO_PIN_3 << 16;
 558              		.loc 3 82 41 is_stmt 0 view .LVU180
 559 00fa 14F0010F 		tst	r4, #1
 560 00fe 14BF     		ite	ne
 561 0100 0423     		movne	r3, #4
 562 0102 4FF48023 		moveq	r3, #262144
 563              	.LVL41:
  83:Drivers/matrix.h **** 		coll & 0x04 ? reg |= GPIO_PIN_4 : reg |= GPIO_PIN_4 << 16;
 564              		.loc 3 83 3 is_stmt 1 view .LVU181
ARM GAS  /var/folders/84/_x1cyy_j36g486tldtwl37280000gn/T//ccy6KN4R.s 			page 16


  83:Drivers/matrix.h **** 		coll & 0x04 ? reg |= GPIO_PIN_4 : reg |= GPIO_PIN_4 << 16;
 565              		.loc 3 83 15 is_stmt 0 view .LVU182
 566 0106 A507     		lsls	r5, r4, #30
  83:Drivers/matrix.h **** 		coll & 0x04 ? reg |= GPIO_PIN_4 : reg |= GPIO_PIN_4 << 16;
 567              		.loc 3 83 21 view .LVU183
 568 0108 4CBF     		ite	mi
 569 010a 43F00803 		orrmi	r3, r3, #8
 570              	.LVL42:
  83:Drivers/matrix.h **** 		coll & 0x04 ? reg |= GPIO_PIN_4 : reg |= GPIO_PIN_4 << 16;
 571              		.loc 3 83 41 view .LVU184
 572 010e 43F40023 		orrpl	r3, r3, #524288
 573              	.LVL43:
  84:Drivers/matrix.h **** 		GPIOE->BSRR = reg;
 574              		.loc 3 84 3 is_stmt 1 view .LVU185
  84:Drivers/matrix.h **** 		GPIOE->BSRR = reg;
 575              		.loc 3 84 15 is_stmt 0 view .LVU186
 576 0112 6207     		lsls	r2, r4, #29
  84:Drivers/matrix.h **** 		GPIOE->BSRR = reg;
 577              		.loc 3 84 21 view .LVU187
 578 0114 48BF     		it	mi
 579 0116 43F01003 		orrmi	r3, r3, #16
 580              	.LVL44:
 581              	.LBB231:
 582              	.LBB232:
 583              	.LBB233:
 584              	.LBB234:
  12:Drivers/micros.h **** 	}
 585              		.loc 4 12 16 view .LVU188
 586 011a 354A     		ldr	r2, .L103+4
 587              	.LBE234:
 588              	.LBE233:
 589              	.LBE232:
 590              	.LBE231:
  84:Drivers/matrix.h **** 		GPIOE->BSRR = reg;
 591              		.loc 3 84 41 view .LVU189
 592 011c 58BF     		it	pl
 593 011e 43F48013 		orrpl	r3, r3, #1048576
 594              	.LVL45:
  85:Drivers/matrix.h **** 		micros.delay(1);
 595              		.loc 3 85 3 is_stmt 1 view .LVU190
  85:Drivers/matrix.h **** 		micros.delay(1);
 596              		.loc 3 85 15 is_stmt 0 view .LVU191
 597 0122 BB61     		str	r3, [r7, #24]
 598              	.LVL46:
  86:Drivers/matrix.h **** 	}
 599              		.loc 3 86 3 is_stmt 1 view .LVU192
 600              	.LBB240:
 601              	.LBI231:
  15:Drivers/micros.h **** 		uint32_t start = read();
 602              		.loc 4 15 7 view .LVU193
 603              	.LBB239:
  16:Drivers/micros.h **** 		while (static_cast<uint32_t>(read() - start) < us);
 604              		.loc 4 16 3 view .LVU194
 605              	.LBB236:
 606              	.LBI233:
  11:Drivers/micros.h **** 		return TIM5->CNT;
 607              		.loc 4 11 27 view .LVU195
ARM GAS  /var/folders/84/_x1cyy_j36g486tldtwl37280000gn/T//ccy6KN4R.s 			page 17


 608              	.LBB235:
  12:Drivers/micros.h **** 	}
 609              		.loc 4 12 3 view .LVU196
  12:Drivers/micros.h **** 	}
 610              		.loc 4 12 16 is_stmt 0 view .LVU197
 611 0124 556A     		ldr	r5, [r2, #36]
 612              	.LVL47:
 613              	.L34:
  12:Drivers/micros.h **** 	}
 614              		.loc 4 12 16 view .LVU198
 615              	.LBE235:
 616              	.LBE236:
 617              		.loc 4 17 3 is_stmt 1 view .LVU199
 618              		.loc 4 17 48 view .LVU200
 619              	.LBB237:
 620              	.LBI237:
  11:Drivers/micros.h **** 		return TIM5->CNT;
 621              		.loc 4 11 27 view .LVU201
 622              	.LBB238:
  12:Drivers/micros.h **** 	}
 623              		.loc 4 12 3 view .LVU202
  12:Drivers/micros.h **** 	}
 624              		.loc 4 12 16 is_stmt 0 view .LVU203
 625 0126 324E     		ldr	r6, .L103+4
 626 0128 736A     		ldr	r3, [r6, #36]
 627              	.LBE238:
 628              	.LBE237:
 629              		.loc 4 17 48 view .LVU204
 630 012a 9D42     		cmp	r5, r3
 631 012c FBD0     		beq	.L34
 632              	.LVL48:
 633              		.loc 4 17 48 view .LVU205
 634              	.LBE239:
 635              	.LBE240:
 636              	.LBE241:
 637              	.LBE243:
  61:Drivers/matrix.h **** 
 638              		.loc 3 61 3 is_stmt 1 view .LVU206
 639 012e 0134     		adds	r4, r4, #1
  64:Drivers/matrix.h **** 		GPIOB->BSRR = GPIO_PIN_9 << 16;
 640              		.loc 3 64 15 is_stmt 0 view .LVU207
 641 0130 324F     		ldr	r7, .L103+16
  61:Drivers/matrix.h **** 
 642              		.loc 3 61 14 view .LVU208
 643 0132 04F00705 		and	r5, r4, #7
 644 0136 4D70     		strb	r5, [r1, #1]
  64:Drivers/matrix.h **** 		GPIOB->BSRR = GPIO_PIN_9 << 16;
 645              		.loc 3 64 3 is_stmt 1 view .LVU209
 646 0138 0246     		mov	r2, r0
  64:Drivers/matrix.h **** 		GPIOB->BSRR = GPIO_PIN_9 << 16;
 647              		.loc 3 64 15 is_stmt 0 view .LVU210
 648 013a 4FF08076 		mov	r6, #16777216
  65:Drivers/matrix.h **** 		// latch led rows & collumn
 649              		.loc 3 65 15 view .LVU211
 650 013e 4FF00070 		mov	r0, #33554432
 651              	.LVL49:
  67:Drivers/matrix.h **** 	}
ARM GAS  /var/folders/84/_x1cyy_j36g486tldtwl37280000gn/T//ccy6KN4R.s 			page 18


 652              		.loc 3 67 15 view .LVU212
 653 0142 4FF44071 		mov	r1, #768
  64:Drivers/matrix.h **** 		GPIOB->BSRR = GPIO_PIN_9 << 16;
 654              		.loc 3 64 15 view .LVU213
 655 0146 BE61     		str	r6, [r7, #24]
  65:Drivers/matrix.h **** 		// latch led rows & collumn
 656              		.loc 3 65 3 is_stmt 1 view .LVU214
  67:Drivers/matrix.h **** 	}
 657              		.loc 3 67 15 is_stmt 0 view .LVU215
 658 0148 1346     		mov	r3, r2
  65:Drivers/matrix.h **** 		// latch led rows & collumn
 659              		.loc 3 65 15 view .LVU216
 660 014a B861     		str	r0, [r7, #24]
  67:Drivers/matrix.h **** 	}
 661              		.loc 3 67 3 is_stmt 1 view .LVU217
 662 014c 0DF1070C 		add	ip, sp, #7
  67:Drivers/matrix.h **** 	}
 663              		.loc 3 67 15 is_stmt 0 view .LVU218
 664 0150 B961     		str	r1, [r7, #24]
 665              	.LVL50:
  67:Drivers/matrix.h **** 	}
 666              		.loc 3 67 15 view .LVU219
 667              	.LBE200:
 668              	.LBE199:
 669              	.LBB245:
  40:Src/Ui/ui.cpp **** 
  41:Src/Ui/ui.cpp **** 	for (int x = 0; x < 16; ++x) {
 670              		.loc 1 41 20 is_stmt 1 view .LVU220
 671 0152 0DF11704 		add	r4, sp, #23
 672              	.LVL51:
 673              	.L51:
 674              	.LBB246:
  42:Src/Ui/ui.cpp **** 		for (int y = 0; y < 8; ++y) {
 675              		.loc 1 42 21 view .LVU221
 676              	.LBB247:
  43:Src/Ui/ui.cpp **** 			uint8_t sw = y + (x * 8);
  44:Src/Ui/ui.cpp **** 			sw_raw[sw] <<= 1;
 677              		.loc 1 44 15 is_stmt 0 view .LVU222
 678 0156 1F7A     		ldrb	r7, [r3, #8]	@ zero_extendqisi2
  45:Src/Ui/ui.cpp **** 			if (reading[x] & (1 << y)) {
 679              		.loc 1 45 17 view .LVU223
 680 0158 1CF8015F 		ldrb	r5, [ip, #1]!	@ zero_extendqisi2
 681              	.LVL52:
  43:Src/Ui/ui.cpp **** 			uint8_t sw = y + (x * 8);
 682              		.loc 1 43 4 is_stmt 1 view .LVU224
  44:Src/Ui/ui.cpp **** 			if (reading[x] & (1 << y)) {
 683              		.loc 1 44 4 view .LVU225
  44:Src/Ui/ui.cpp **** 			if (reading[x] & (1 << y)) {
 684              		.loc 1 44 15 is_stmt 0 view .LVU226
 685 015c 597A     		ldrb	r1, [r3, #9]	@ zero_extendqisi2
 686 015e 7E00     		lsls	r6, r7, #1
 687 0160 F0B2     		uxtb	r0, r6
 688              		.loc 1 45 4 is_stmt 1 view .LVU227
 689 0162 EF07     		lsls	r7, r5, #31
  46:Src/Ui/ui.cpp **** 				sw_raw[sw] |= 1;
 690              		.loc 1 46 5 view .LVU228
 691              	.LBE247:
ARM GAS  /var/folders/84/_x1cyy_j36g486tldtwl37280000gn/T//ccy6KN4R.s 			page 19


  42:Src/Ui/ui.cpp **** 			uint8_t sw = y + (x * 8);
 692              		.loc 1 42 3 view .LVU229
 693              	.LVL53:
  42:Src/Ui/ui.cpp **** 			uint8_t sw = y + (x * 8);
 694              		.loc 1 42 21 view .LVU230
 695              	.LBB248:
  43:Src/Ui/ui.cpp **** 			sw_raw[sw] <<= 1;
 696              		.loc 1 43 4 view .LVU231
  44:Src/Ui/ui.cpp **** 			if (reading[x] & (1 << y)) {
 697              		.loc 1 44 4 view .LVU232
 698              		.loc 1 46 16 is_stmt 0 view .LVU233
 699 0164 48BF     		it	mi
 700 0166 40F00100 		orrmi	r0, r0, #1
  44:Src/Ui/ui.cpp **** 			if (reading[x] & (1 << y)) {
 701              		.loc 1 44 15 view .LVU234
 702 016a 4F00     		lsls	r7, r1, #1
  45:Src/Ui/ui.cpp **** 				sw_raw[sw] |= 1;
 703              		.loc 1 45 4 view .LVU235
 704 016c AE07     		lsls	r6, r5, #30
  44:Src/Ui/ui.cpp **** 			if (reading[x] & (1 << y)) {
 705              		.loc 1 44 15 view .LVU236
 706 016e 9E7A     		ldrb	r6, [r3, #10]	@ zero_extendqisi2
 707              		.loc 1 46 16 view .LVU237
 708 0170 1872     		strb	r0, [r3, #8]
  44:Src/Ui/ui.cpp **** 			if (reading[x] & (1 << y)) {
 709              		.loc 1 44 15 view .LVU238
 710 0172 F8B2     		uxtb	r0, r7
  45:Src/Ui/ui.cpp **** 				sw_raw[sw] |= 1;
 711              		.loc 1 45 4 is_stmt 1 view .LVU239
 712              		.loc 1 46 5 view .LVU240
 713              	.LBE248:
  42:Src/Ui/ui.cpp **** 			uint8_t sw = y + (x * 8);
 714              		.loc 1 42 3 view .LVU241
 715              	.LVL54:
  42:Src/Ui/ui.cpp **** 			uint8_t sw = y + (x * 8);
 716              		.loc 1 42 21 view .LVU242
 717              	.LBB249:
  43:Src/Ui/ui.cpp **** 			sw_raw[sw] <<= 1;
 718              		.loc 1 43 4 view .LVU243
  44:Src/Ui/ui.cpp **** 			if (reading[x] & (1 << y)) {
 719              		.loc 1 44 4 view .LVU244
 720              		.loc 1 46 16 is_stmt 0 view .LVU245
 721 0174 48BF     		it	mi
 722 0176 40F00100 		orrmi	r0, r0, #1
  44:Src/Ui/ui.cpp **** 			if (reading[x] & (1 << y)) {
 723              		.loc 1 44 15 view .LVU246
 724 017a 7100     		lsls	r1, r6, #1
  45:Src/Ui/ui.cpp **** 				sw_raw[sw] |= 1;
 725              		.loc 1 45 4 view .LVU247
 726 017c 6F07     		lsls	r7, r5, #29
  44:Src/Ui/ui.cpp **** 			if (reading[x] & (1 << y)) {
 727              		.loc 1 44 15 view .LVU248
 728 017e DF7A     		ldrb	r7, [r3, #11]	@ zero_extendqisi2
 729              		.loc 1 46 16 view .LVU249
 730 0180 5872     		strb	r0, [r3, #9]
  44:Src/Ui/ui.cpp **** 			if (reading[x] & (1 << y)) {
 731              		.loc 1 44 15 view .LVU250
ARM GAS  /var/folders/84/_x1cyy_j36g486tldtwl37280000gn/T//ccy6KN4R.s 			page 20


 732 0182 C8B2     		uxtb	r0, r1
  45:Src/Ui/ui.cpp **** 				sw_raw[sw] |= 1;
 733              		.loc 1 45 4 is_stmt 1 view .LVU251
 734              		.loc 1 46 5 view .LVU252
 735              	.LBE249:
  42:Src/Ui/ui.cpp **** 			uint8_t sw = y + (x * 8);
 736              		.loc 1 42 3 view .LVU253
 737              	.LVL55:
  42:Src/Ui/ui.cpp **** 			uint8_t sw = y + (x * 8);
 738              		.loc 1 42 21 view .LVU254
 739              	.LBB250:
  43:Src/Ui/ui.cpp **** 			sw_raw[sw] <<= 1;
 740              		.loc 1 43 4 view .LVU255
  44:Src/Ui/ui.cpp **** 			if (reading[x] & (1 << y)) {
 741              		.loc 1 44 4 view .LVU256
  44:Src/Ui/ui.cpp **** 			if (reading[x] & (1 << y)) {
 742              		.loc 1 44 15 is_stmt 0 view .LVU257
 743 0184 4FEA4706 		lsl	r6, r7, #1
 744              		.loc 1 46 16 view .LVU258
 745 0188 48BF     		it	mi
 746 018a 40F00100 		orrmi	r0, r0, #1
  44:Src/Ui/ui.cpp **** 			if (reading[x] & (1 << y)) {
 747              		.loc 1 44 15 view .LVU259
 748 018e F1B2     		uxtb	r1, r6
  45:Src/Ui/ui.cpp **** 				sw_raw[sw] |= 1;
 749              		.loc 1 45 4 is_stmt 1 view .LVU260
 750              		.loc 1 46 16 is_stmt 0 view .LVU261
 751 0190 9872     		strb	r0, [r3, #10]
  45:Src/Ui/ui.cpp **** 				sw_raw[sw] |= 1;
 752              		.loc 1 45 4 view .LVU262
 753 0192 2E07     		lsls	r6, r5, #28
 754              		.loc 1 46 5 is_stmt 1 view .LVU263
 755              	.LBE250:
  42:Src/Ui/ui.cpp **** 			uint8_t sw = y + (x * 8);
 756              		.loc 1 42 3 view .LVU264
 757              	.LVL56:
  42:Src/Ui/ui.cpp **** 			uint8_t sw = y + (x * 8);
 758              		.loc 1 42 21 view .LVU265
 759              	.LBB251:
  43:Src/Ui/ui.cpp **** 			sw_raw[sw] <<= 1;
 760              		.loc 1 43 4 view .LVU266
  44:Src/Ui/ui.cpp **** 			if (reading[x] & (1 << y)) {
 761              		.loc 1 44 4 view .LVU267
  44:Src/Ui/ui.cpp **** 			if (reading[x] & (1 << y)) {
 762              		.loc 1 44 15 is_stmt 0 view .LVU268
 763 0194 187B     		ldrb	r0, [r3, #12]	@ zero_extendqisi2
 764              		.loc 1 46 16 view .LVU269
 765 0196 48BF     		it	mi
 766 0198 41F00101 		orrmi	r1, r1, #1
  44:Src/Ui/ui.cpp **** 			if (reading[x] & (1 << y)) {
 767              		.loc 1 44 15 view .LVU270
 768 019c 4700     		lsls	r7, r0, #1
 769              		.loc 1 46 16 view .LVU271
 770 019e D972     		strb	r1, [r3, #11]
  44:Src/Ui/ui.cpp **** 			if (reading[x] & (1 << y)) {
 771              		.loc 1 44 15 view .LVU272
 772 01a0 597B     		ldrb	r1, [r3, #13]	@ zero_extendqisi2
ARM GAS  /var/folders/84/_x1cyy_j36g486tldtwl37280000gn/T//ccy6KN4R.s 			page 21


 773 01a2 FEB2     		uxtb	r6, r7
  45:Src/Ui/ui.cpp **** 				sw_raw[sw] |= 1;
 774              		.loc 1 45 4 is_stmt 1 view .LVU273
 775 01a4 EF06     		lsls	r7, r5, #27
 776              		.loc 1 46 5 view .LVU274
 777              	.LBE251:
  42:Src/Ui/ui.cpp **** 			uint8_t sw = y + (x * 8);
 778              		.loc 1 42 3 view .LVU275
 779              	.LVL57:
  42:Src/Ui/ui.cpp **** 			uint8_t sw = y + (x * 8);
 780              		.loc 1 42 21 view .LVU276
 781              	.LBB252:
  43:Src/Ui/ui.cpp **** 			sw_raw[sw] <<= 1;
 782              		.loc 1 43 4 view .LVU277
  44:Src/Ui/ui.cpp **** 			if (reading[x] & (1 << y)) {
 783              		.loc 1 44 4 view .LVU278
 784              		.loc 1 46 16 is_stmt 0 view .LVU279
 785 01a6 48BF     		it	mi
 786 01a8 46F00106 		orrmi	r6, r6, #1
  44:Src/Ui/ui.cpp **** 			if (reading[x] & (1 << y)) {
 787              		.loc 1 44 15 view .LVU280
 788 01ac 4800     		lsls	r0, r1, #1
 789 01ae C7B2     		uxtb	r7, r0
  45:Src/Ui/ui.cpp **** 				sw_raw[sw] |= 1;
 790              		.loc 1 45 4 is_stmt 1 view .LVU281
 791              		.loc 1 46 16 is_stmt 0 view .LVU282
 792 01b0 1E73     		strb	r6, [r3, #12]
  45:Src/Ui/ui.cpp **** 				sw_raw[sw] |= 1;
 793              		.loc 1 45 4 view .LVU283
 794 01b2 AE06     		lsls	r6, r5, #26
 795              		.loc 1 46 5 is_stmt 1 view .LVU284
 796              	.LBE252:
  42:Src/Ui/ui.cpp **** 			uint8_t sw = y + (x * 8);
 797              		.loc 1 42 3 view .LVU285
 798              	.LVL58:
  42:Src/Ui/ui.cpp **** 			uint8_t sw = y + (x * 8);
 799              		.loc 1 42 21 view .LVU286
 800              	.LBB253:
  43:Src/Ui/ui.cpp **** 			sw_raw[sw] <<= 1;
 801              		.loc 1 43 4 view .LVU287
  44:Src/Ui/ui.cpp **** 			if (reading[x] & (1 << y)) {
 802              		.loc 1 44 4 view .LVU288
 803              		.loc 1 46 16 is_stmt 0 view .LVU289
 804 01b4 48BF     		it	mi
 805 01b6 47F00107 		orrmi	r7, r7, #1
  44:Src/Ui/ui.cpp **** 			if (reading[x] & (1 << y)) {
 806              		.loc 1 44 15 view .LVU290
 807 01ba 9E7B     		ldrb	r6, [r3, #14]	@ zero_extendqisi2
 808              		.loc 1 46 16 view .LVU291
 809 01bc 5F73     		strb	r7, [r3, #13]
  45:Src/Ui/ui.cpp **** 				sw_raw[sw] |= 1;
 810              		.loc 1 45 4 view .LVU292
 811 01be 6F06     		lsls	r7, r5, #25
  44:Src/Ui/ui.cpp **** 			if (reading[x] & (1 << y)) {
 812              		.loc 1 44 15 view .LVU293
 813 01c0 DF7B     		ldrb	r7, [r3, #15]	@ zero_extendqisi2
 814 01c2 4FEA4601 		lsl	r1, r6, #1
ARM GAS  /var/folders/84/_x1cyy_j36g486tldtwl37280000gn/T//ccy6KN4R.s 			page 22


 815 01c6 C8B2     		uxtb	r0, r1
  45:Src/Ui/ui.cpp **** 				sw_raw[sw] |= 1;
 816              		.loc 1 45 4 is_stmt 1 view .LVU294
 817              		.loc 1 46 5 view .LVU295
 818              	.LBE253:
  42:Src/Ui/ui.cpp **** 			uint8_t sw = y + (x * 8);
 819              		.loc 1 42 3 view .LVU296
 820              	.LVL59:
  42:Src/Ui/ui.cpp **** 			uint8_t sw = y + (x * 8);
 821              		.loc 1 42 21 view .LVU297
 822              	.LBB254:
  43:Src/Ui/ui.cpp **** 			sw_raw[sw] <<= 1;
 823              		.loc 1 43 4 view .LVU298
  44:Src/Ui/ui.cpp **** 			if (reading[x] & (1 << y)) {
 824              		.loc 1 44 4 view .LVU299
  44:Src/Ui/ui.cpp **** 			if (reading[x] & (1 << y)) {
 825              		.loc 1 44 15 is_stmt 0 view .LVU300
 826 01c8 4FEA4706 		lsl	r6, r7, #1
 827 01cc F1B2     		uxtb	r1, r6
  45:Src/Ui/ui.cpp **** 				sw_raw[sw] |= 1;
 828              		.loc 1 45 4 is_stmt 1 view .LVU301
 829              		.loc 1 46 16 is_stmt 0 view .LVU302
 830 01ce 48BF     		it	mi
 831 01d0 40F00100 		orrmi	r0, r0, #1
  45:Src/Ui/ui.cpp **** 				sw_raw[sw] |= 1;
 832              		.loc 1 45 4 view .LVU303
 833 01d4 2E06     		lsls	r6, r5, #24
 834              		.loc 1 46 5 is_stmt 1 view .LVU304
 835              		.loc 1 46 16 is_stmt 0 view .LVU305
 836 01d6 48BF     		it	mi
 837 01d8 41F00101 		orrmi	r1, r1, #1
 838              	.LBE254:
 839              	.LBE246:
  41:Src/Ui/ui.cpp **** 		for (int y = 0; y < 8; ++y) {
 840              		.loc 1 41 20 view .LVU306
 841 01dc 6445     		cmp	r4, ip
 842              	.LBB256:
 843              	.LBB255:
 844              		.loc 1 46 16 view .LVU307
 845 01de 9873     		strb	r0, [r3, #14]
 846 01e0 D973     		strb	r1, [r3, #15]
 847              	.LBE255:
  42:Src/Ui/ui.cpp **** 			uint8_t sw = y + (x * 8);
 848              		.loc 1 42 3 is_stmt 1 view .LVU308
 849              	.LVL60:
  42:Src/Ui/ui.cpp **** 			uint8_t sw = y + (x * 8);
 850              		.loc 1 42 21 view .LVU309
 851              	.LBE256:
  41:Src/Ui/ui.cpp **** 		for (int y = 0; y < 8; ++y) {
 852              		.loc 1 41 2 view .LVU310
  41:Src/Ui/ui.cpp **** 		for (int y = 0; y < 8; ++y) {
 853              		.loc 1 41 20 view .LVU311
 854 01e2 03F10803 		add	r3, r3, #8
 855              	.LVL61:
  41:Src/Ui/ui.cpp **** 		for (int y = 0; y < 8; ++y) {
 856              		.loc 1 41 20 is_stmt 0 view .LVU312
 857 01e6 B6D1     		bne	.L51
ARM GAS  /var/folders/84/_x1cyy_j36g486tldtwl37280000gn/T//ccy6KN4R.s 			page 23


 858              	.LBE245:
 859              	.LBB257:
  47:Src/Ui/ui.cpp **** 			}
  48:Src/Ui/ui.cpp **** 		}
  49:Src/Ui/ui.cpp **** 	}
  50:Src/Ui/ui.cpp **** 
  51:Src/Ui/ui.cpp **** 	for (int x = 0; x < 16 * 8; x += 8) {
 860              		.loc 1 51 11 view .LVU313
 861 01e8 0024     		movs	r4, #0
 862 01ea 23E0     		b	.L64
 863              	.L104:
 864              		.align	2
 865              	.L103:
 866 01ec 00100240 		.word	1073876992
 867 01f0 000C0040 		.word	1073744896
 868 01f4 003C0040 		.word	1073757184
 869 01f8 00000000 		.word	matrix
 870 01fc 00040240 		.word	1073873920
 871              	.LVL62:
 872              	.L102:
 873              	.LBB258:
 874              	.LBB259:
  52:Src/Ui/ui.cpp **** 		for (int y = 0; y < num_buttons_rows; ++y) {
  53:Src/Ui/ui.cpp **** 			uint8_t button = buttons_rows[y] + x;
  54:Src/Ui/ui.cpp **** 			if (sw_raw[button] == 0x80) {
  55:Src/Ui/ui.cpp **** 				addEvent(Ui::BUTTON, button, 1);
  56:Src/Ui/ui.cpp **** 			} else if (sw_raw[button] == 0x01) {
  57:Src/Ui/ui.cpp **** 				addEvent(Ui::BUTTON, button, 0);
  58:Src/Ui/ui.cpp **** 			}
  59:Src/Ui/ui.cpp **** 		}
  60:Src/Ui/ui.cpp **** 
  61:Src/Ui/ui.cpp **** 		for (int y = 0; y < num_enc_rows; ++y) {
  62:Src/Ui/ui.cpp **** 			uint8_t a = enc_a_rows[y] + x;
  63:Src/Ui/ui.cpp **** 			uint8_t b = enc_b_rows[y] + x;
  64:Src/Ui/ui.cpp **** 			if ((sw_raw[b] & 0x03) == 0x02 && (sw_raw[a] & 0x03) == 0x00) {
  65:Src/Ui/ui.cpp **** 				addEvent(Ui::ENCODER, a, 1);
  66:Src/Ui/ui.cpp **** 			} else if ((sw_raw[a] & 0x03) == 0x02 && (sw_raw[b] & 0x03) == 0x00) {
 875              		.loc 1 66 11 is_stmt 1 view .LVU314
 876 0200 577A     		ldrb	r7, [r2, #9]	@ zero_extendqisi2
 877 0202 07F00301 		and	r1, r7, #3
 878 0206 0229     		cmp	r1, #2
 879 0208 00F0F680 		beq	.L97
 880              	.L61:
 881              	.LBE259:
  61:Src/Ui/ui.cpp **** 			uint8_t a = enc_a_rows[y] + x;
 882              		.loc 1 61 3 view .LVU315
 883              	.LVL63:
  61:Src/Ui/ui.cpp **** 			uint8_t a = enc_a_rows[y] + x;
 884              		.loc 1 61 21 view .LVU316
 885              	.LBB284:
  62:Src/Ui/ui.cpp **** 			uint8_t b = enc_b_rows[y] + x;
 886              		.loc 1 62 4 view .LVU317
 887 020c 507B     		ldrb	r0, [r2, #13]	@ zero_extendqisi2
 888              	.LVL64:
  62:Src/Ui/ui.cpp **** 			uint8_t b = enc_b_rows[y] + x;
 889              		.loc 1 62 4 is_stmt 0 view .LVU318
 890 020e 00F00305 		and	r5, r0, #3
ARM GAS  /var/folders/84/_x1cyy_j36g486tldtwl37280000gn/T//ccy6KN4R.s 			page 24


  62:Src/Ui/ui.cpp **** 			uint8_t b = enc_b_rows[y] + x;
 891              		.loc 1 62 12 view .LVU319
 892 0212 0433     		adds	r3, r3, #4
 893              	.LVL65:
  64:Src/Ui/ui.cpp **** 				addEvent(Ui::ENCODER, a, 1);
 894              		.loc 1 64 4 view .LVU320
 895 0214 022D     		cmp	r5, #2
  62:Src/Ui/ui.cpp **** 			uint8_t b = enc_b_rows[y] + x;
 896              		.loc 1 62 12 view .LVU321
 897 0216 DBB2     		uxtb	r3, r3
 898              	.LVL66:
  63:Src/Ui/ui.cpp **** 			if ((sw_raw[b] & 0x03) == 0x02 && (sw_raw[a] & 0x03) == 0x00) {
 899              		.loc 1 63 4 is_stmt 1 view .LVU322
  64:Src/Ui/ui.cpp **** 				addEvent(Ui::ENCODER, a, 1);
 900              		.loc 1 64 4 view .LVU323
 901 0218 00F0D480 		beq	.L98
 902              		.loc 1 66 11 view .LVU324
 903 021c 167B     		ldrb	r6, [r2, #12]	@ zero_extendqisi2
 904 021e 06F00307 		and	r7, r6, #3
 905 0222 022F     		cmp	r7, #2
 906 0224 00F0FF80 		beq	.L99
 907              	.L63:
 908              	.LBE284:
  61:Src/Ui/ui.cpp **** 			uint8_t a = enc_a_rows[y] + x;
 909              		.loc 1 61 3 discriminator 2 view .LVU325
 910              	.LVL67:
  61:Src/Ui/ui.cpp **** 			uint8_t a = enc_a_rows[y] + x;
 911              		.loc 1 61 21 discriminator 2 view .LVU326
 912              	.LBE258:
  51:Src/Ui/ui.cpp **** 		for (int y = 0; y < num_buttons_rows; ++y) {
 913              		.loc 1 51 2 discriminator 2 view .LVU327
  51:Src/Ui/ui.cpp **** 		for (int y = 0; y < num_buttons_rows; ++y) {
 914              		.loc 1 51 32 is_stmt 0 discriminator 2 view .LVU328
 915 0228 0834     		adds	r4, r4, #8
 916              	.LVL68:
  51:Src/Ui/ui.cpp **** 		for (int y = 0; y < num_buttons_rows; ++y) {
 917              		.loc 1 51 20 is_stmt 1 discriminator 2 view .LVU329
 918 022a 802C     		cmp	r4, #128
 919 022c 02F10802 		add	r2, r2, #8
 920 0230 00F0E080 		beq	.L100
 921              	.LVL69:
 922              	.L64:
 923              	.LBB290:
  52:Src/Ui/ui.cpp **** 			uint8_t button = buttons_rows[y] + x;
 924              		.loc 1 52 21 view .LVU330
 925              	.LBB291:
  54:Src/Ui/ui.cpp **** 				addEvent(Ui::BUTTON, button, 1);
 926              		.loc 1 54 21 is_stmt 0 view .LVU331
 927 0234 157A     		ldrb	r5, [r2, #8]	@ zero_extendqisi2
  54:Src/Ui/ui.cpp **** 				addEvent(Ui::BUTTON, button, 1);
 928              		.loc 1 54 4 view .LVU332
 929 0236 802D     		cmp	r5, #128
 930 0238 E3B2     		uxtb	r3, r4
  53:Src/Ui/ui.cpp **** 			if (sw_raw[button] == 0x80) {
 931              		.loc 1 53 4 is_stmt 1 view .LVU333
 932              	.LVL70:
  54:Src/Ui/ui.cpp **** 				addEvent(Ui::BUTTON, button, 1);
ARM GAS  /var/folders/84/_x1cyy_j36g486tldtwl37280000gn/T//ccy6KN4R.s 			page 25


 933              		.loc 1 54 4 view .LVU334
 934 023a 00F0B180 		beq	.L52
  56:Src/Ui/ui.cpp **** 				addEvent(Ui::BUTTON, button, 0);
 935              		.loc 1 56 11 view .LVU335
 936 023e 012D     		cmp	r5, #1
 937 0240 0DD1     		bne	.L53
  57:Src/Ui/ui.cpp **** 			}
 938              		.loc 1 57 5 view .LVU336
 939              	.LVL71:
 940              	.LBB292:
 941              	.LBI292:
  20:Src/Ui/ui.cpp **** 	Ui::Event e;
 942              		.loc 1 20 6 view .LVU337
 943              	.LBB293:
  21:Src/Ui/ui.cpp **** 	e.type = type;
 944              		.loc 1 21 2 view .LVU338
  22:Src/Ui/ui.cpp **** 	e.id = id;
 945              		.loc 1 22 2 view .LVU339
  23:Src/Ui/ui.cpp **** 	e.value = value;
 946              		.loc 1 23 2 view .LVU340
  24:Src/Ui/ui.cpp **** 	ui_que.write(e);
 947              		.loc 1 24 2 view .LVU341
  25:Src/Ui/ui.cpp **** }
 948              		.loc 1 25 2 view .LVU342
 949              	.LBB294:
 950              	.LBI294:
  37:/Users/joostbooy/Desktop/Code/stm32/lib/utils/que.h **** 		size_t pos = write_pos_;
 951              		.loc 2 37 14 view .LVU343
 952              	.LBB295:
  38:/Users/joostbooy/Desktop/Code/stm32/lib/utils/que.h **** 		data[pos] = value;
 953              		.loc 2 38 10 is_stmt 0 view .LVU344
 954 0242 8648     		ldr	r0, .L105
 955 0244 0768     		ldr	r7, [r0]
 956              	.LVL72:
  39:/Users/joostbooy/Desktop/Code/stm32/lib/utils/que.h **** 		write_pos_ = (pos + 1) % kMaxSize;
 957              		.loc 2 39 3 view .LVU345
 958 0246 07EB4705 		add	r5, r7, r7, lsl #1
 959 024a 0835     		adds	r5, r5, #8
 960              		.loc 2 40 21 view .LVU346
 961 024c 0137     		adds	r7, r7, #1
 962              	.LVL73:
  39:/Users/joostbooy/Desktop/Code/stm32/lib/utils/que.h **** 		write_pos_ = (pos + 1) % kMaxSize;
 963              		.loc 2 39 3 view .LVU347
 964 024e 4619     		adds	r6, r0, r5
 965              		.loc 2 40 26 view .LVU348
 966 0250 07F00F01 		and	r1, r7, #15
  39:/Users/joostbooy/Desktop/Code/stm32/lib/utils/que.h **** 		write_pos_ = (pos + 1) % kMaxSize;
 967              		.loc 2 39 3 view .LVU349
 968 0254 0027     		movs	r7, #0
 969 0256 4755     		strb	r7, [r0, r5]
 970              	.LVL74:
  39:/Users/joostbooy/Desktop/Code/stm32/lib/utils/que.h **** 		write_pos_ = (pos + 1) % kMaxSize;
 971              		.loc 2 39 3 view .LVU350
 972 0258 7370     		strb	r3, [r6, #1]
 973 025a B770     		strb	r7, [r6, #2]
 974              		.loc 2 40 3 view .LVU351
 975 025c 0160     		str	r1, [r0]
ARM GAS  /var/folders/84/_x1cyy_j36g486tldtwl37280000gn/T//ccy6KN4R.s 			page 26


 976              	.LVL75:
 977              	.L53:
 978              		.loc 2 40 3 view .LVU352
 979              	.LBE295:
 980              	.LBE294:
 981              	.LBE293:
 982              	.LBE292:
 983              	.LBE291:
  52:Src/Ui/ui.cpp **** 			uint8_t button = buttons_rows[y] + x;
 984              		.loc 1 52 3 is_stmt 1 view .LVU353
  52:Src/Ui/ui.cpp **** 			uint8_t button = buttons_rows[y] + x;
 985              		.loc 1 52 21 view .LVU354
 986              	.LBB324:
  53:Src/Ui/ui.cpp **** 			if (sw_raw[button] == 0x80) {
 987              		.loc 1 53 4 view .LVU355
  54:Src/Ui/ui.cpp **** 				addEvent(Ui::BUTTON, button, 1);
 988              		.loc 1 54 21 is_stmt 0 view .LVU356
 989 025e D57A     		ldrb	r5, [r2, #11]	@ zero_extendqisi2
  53:Src/Ui/ui.cpp **** 			if (sw_raw[button] == 0x80) {
 990              		.loc 1 53 12 view .LVU357
 991 0260 D81C     		adds	r0, r3, #3
  54:Src/Ui/ui.cpp **** 				addEvent(Ui::BUTTON, button, 1);
 992              		.loc 1 54 4 view .LVU358
 993 0262 802D     		cmp	r5, #128
  53:Src/Ui/ui.cpp **** 			if (sw_raw[button] == 0x80) {
 994              		.loc 1 53 12 view .LVU359
 995 0264 C0B2     		uxtb	r0, r0
 996              	.LVL76:
  54:Src/Ui/ui.cpp **** 				addEvent(Ui::BUTTON, button, 1);
 997              		.loc 1 54 4 is_stmt 1 view .LVU360
 998 0266 00F08780 		beq	.L54
  56:Src/Ui/ui.cpp **** 				addEvent(Ui::BUTTON, button, 0);
 999              		.loc 1 56 11 view .LVU361
 1000 026a 012D     		cmp	r5, #1
 1001 026c 10D1     		bne	.L55
  57:Src/Ui/ui.cpp **** 			}
 1002              		.loc 1 57 5 view .LVU362
 1003              	.LVL77:
 1004              	.LBB305:
  20:Src/Ui/ui.cpp **** 	Ui::Event e;
 1005              		.loc 1 20 6 view .LVU363
 1006              	.LBB302:
  21:Src/Ui/ui.cpp **** 	e.type = type;
 1007              		.loc 1 21 2 view .LVU364
  22:Src/Ui/ui.cpp **** 	e.id = id;
 1008              		.loc 1 22 2 view .LVU365
  23:Src/Ui/ui.cpp **** 	e.value = value;
 1009              		.loc 1 23 2 view .LVU366
  24:Src/Ui/ui.cpp **** 	ui_que.write(e);
 1010              		.loc 1 24 2 view .LVU367
  25:Src/Ui/ui.cpp **** }
 1011              		.loc 1 25 2 view .LVU368
 1012              	.LBB299:
  37:/Users/joostbooy/Desktop/Code/stm32/lib/utils/que.h **** 		size_t pos = write_pos_;
 1013              		.loc 2 37 14 view .LVU369
 1014              	.LBB296:
  38:/Users/joostbooy/Desktop/Code/stm32/lib/utils/que.h **** 		data[pos] = value;
ARM GAS  /var/folders/84/_x1cyy_j36g486tldtwl37280000gn/T//ccy6KN4R.s 			page 27


 1015              		.loc 2 38 10 is_stmt 0 view .LVU370
 1016 026e 7B4D     		ldr	r5, .L105
 1017 0270 2968     		ldr	r1, [r5]
 1018              	.LVL78:
  39:/Users/joostbooy/Desktop/Code/stm32/lib/utils/que.h **** 		write_pos_ = (pos + 1) % kMaxSize;
 1019              		.loc 2 39 3 view .LVU371
 1020 0272 01EB4106 		add	r6, r1, r1, lsl #1
 1021 0276 0836     		adds	r6, r6, #8
 1022 0278 AF19     		adds	r7, r5, r6
 1023              		.loc 2 40 21 view .LVU372
 1024 027a 0131     		adds	r1, r1, #1
 1025              	.LVL79:
  39:/Users/joostbooy/Desktop/Code/stm32/lib/utils/que.h **** 		write_pos_ = (pos + 1) % kMaxSize;
 1026              		.loc 2 39 3 view .LVU373
 1027 027c 4FF0000C 		mov	ip, #0
 1028              		.loc 2 40 26 view .LVU374
 1029 0280 01F00F01 		and	r1, r1, #15
  39:/Users/joostbooy/Desktop/Code/stm32/lib/utils/que.h **** 		write_pos_ = (pos + 1) % kMaxSize;
 1030              		.loc 2 39 3 view .LVU375
 1031 0284 05F806C0 		strb	ip, [r5, r6]
 1032              	.LVL80:
  39:/Users/joostbooy/Desktop/Code/stm32/lib/utils/que.h **** 		write_pos_ = (pos + 1) % kMaxSize;
 1033              		.loc 2 39 3 view .LVU376
 1034 0288 7870     		strb	r0, [r7, #1]
 1035 028a 87F802C0 		strb	ip, [r7, #2]
 1036              		.loc 2 40 3 view .LVU377
 1037 028e 2960     		str	r1, [r5]
 1038              	.LVL81:
 1039              	.L55:
 1040              		.loc 2 40 3 view .LVU378
 1041              	.LBE296:
 1042              	.LBE299:
 1043              	.LBE302:
 1044              	.LBE305:
 1045              	.LBE324:
  52:Src/Ui/ui.cpp **** 			uint8_t button = buttons_rows[y] + x;
 1046              		.loc 1 52 3 is_stmt 1 view .LVU379
  52:Src/Ui/ui.cpp **** 			uint8_t button = buttons_rows[y] + x;
 1047              		.loc 1 52 21 view .LVU380
 1048              	.LBB325:
  53:Src/Ui/ui.cpp **** 			if (sw_raw[button] == 0x80) {
 1049              		.loc 1 53 4 view .LVU381
  54:Src/Ui/ui.cpp **** 				addEvent(Ui::BUTTON, button, 1);
 1050              		.loc 1 54 21 is_stmt 0 view .LVU382
 1051 0290 957B     		ldrb	r5, [r2, #14]	@ zero_extendqisi2
  53:Src/Ui/ui.cpp **** 			if (sw_raw[button] == 0x80) {
 1052              		.loc 1 53 12 view .LVU383
 1053 0292 981D     		adds	r0, r3, #6
 1054              	.LVL82:
  54:Src/Ui/ui.cpp **** 				addEvent(Ui::BUTTON, button, 1);
 1055              		.loc 1 54 4 view .LVU384
 1056 0294 802D     		cmp	r5, #128
  53:Src/Ui/ui.cpp **** 			if (sw_raw[button] == 0x80) {
 1057              		.loc 1 53 12 view .LVU385
 1058 0296 C0B2     		uxtb	r0, r0
 1059              	.LVL83:
  54:Src/Ui/ui.cpp **** 				addEvent(Ui::BUTTON, button, 1);
ARM GAS  /var/folders/84/_x1cyy_j36g486tldtwl37280000gn/T//ccy6KN4R.s 			page 28


 1060              		.loc 1 54 4 is_stmt 1 view .LVU386
 1061 0298 5AD0     		beq	.L56
  56:Src/Ui/ui.cpp **** 				addEvent(Ui::BUTTON, button, 0);
 1062              		.loc 1 56 11 view .LVU387
 1063 029a 012D     		cmp	r5, #1
 1064 029c 10D1     		bne	.L57
  57:Src/Ui/ui.cpp **** 			}
 1065              		.loc 1 57 5 view .LVU388
 1066              	.LVL84:
 1067              	.LBB306:
  20:Src/Ui/ui.cpp **** 	Ui::Event e;
 1068              		.loc 1 20 6 view .LVU389
 1069              	.LBB303:
  21:Src/Ui/ui.cpp **** 	e.type = type;
 1070              		.loc 1 21 2 view .LVU390
  22:Src/Ui/ui.cpp **** 	e.id = id;
 1071              		.loc 1 22 2 view .LVU391
  23:Src/Ui/ui.cpp **** 	e.value = value;
 1072              		.loc 1 23 2 view .LVU392
  24:Src/Ui/ui.cpp **** 	ui_que.write(e);
 1073              		.loc 1 24 2 view .LVU393
  25:Src/Ui/ui.cpp **** }
 1074              		.loc 1 25 2 view .LVU394
 1075              	.LBB300:
  37:/Users/joostbooy/Desktop/Code/stm32/lib/utils/que.h **** 		size_t pos = write_pos_;
 1076              		.loc 2 37 14 view .LVU395
 1077              	.LBB297:
  38:/Users/joostbooy/Desktop/Code/stm32/lib/utils/que.h **** 		data[pos] = value;
 1078              		.loc 2 38 10 is_stmt 0 view .LVU396
 1079 029e 6F4D     		ldr	r5, .L105
 1080 02a0 2968     		ldr	r1, [r5]
 1081              	.LVL85:
  39:/Users/joostbooy/Desktop/Code/stm32/lib/utils/que.h **** 		write_pos_ = (pos + 1) % kMaxSize;
 1082              		.loc 2 39 3 view .LVU397
 1083 02a2 01EB4106 		add	r6, r1, r1, lsl #1
 1084 02a6 0836     		adds	r6, r6, #8
 1085 02a8 AF19     		adds	r7, r5, r6
 1086              		.loc 2 40 21 view .LVU398
 1087 02aa 0131     		adds	r1, r1, #1
 1088              	.LVL86:
  39:/Users/joostbooy/Desktop/Code/stm32/lib/utils/que.h **** 		write_pos_ = (pos + 1) % kMaxSize;
 1089              		.loc 2 39 3 view .LVU399
 1090 02ac 4FF0000C 		mov	ip, #0
 1091              		.loc 2 40 26 view .LVU400
 1092 02b0 01F00F01 		and	r1, r1, #15
  39:/Users/joostbooy/Desktop/Code/stm32/lib/utils/que.h **** 		write_pos_ = (pos + 1) % kMaxSize;
 1093              		.loc 2 39 3 view .LVU401
 1094 02b4 05F806C0 		strb	ip, [r5, r6]
 1095              	.LVL87:
  39:/Users/joostbooy/Desktop/Code/stm32/lib/utils/que.h **** 		write_pos_ = (pos + 1) % kMaxSize;
 1096              		.loc 2 39 3 view .LVU402
 1097 02b8 7870     		strb	r0, [r7, #1]
 1098 02ba 87F802C0 		strb	ip, [r7, #2]
 1099              		.loc 2 40 3 view .LVU403
 1100 02be 2960     		str	r1, [r5]
 1101              	.LVL88:
 1102              	.L57:
ARM GAS  /var/folders/84/_x1cyy_j36g486tldtwl37280000gn/T//ccy6KN4R.s 			page 29


 1103              		.loc 2 40 3 view .LVU404
 1104              	.LBE297:
 1105              	.LBE300:
 1106              	.LBE303:
 1107              	.LBE306:
 1108              	.LBE325:
  52:Src/Ui/ui.cpp **** 			uint8_t button = buttons_rows[y] + x;
 1109              		.loc 1 52 3 is_stmt 1 view .LVU405
  52:Src/Ui/ui.cpp **** 			uint8_t button = buttons_rows[y] + x;
 1110              		.loc 1 52 21 view .LVU406
 1111              	.LBB326:
  53:Src/Ui/ui.cpp **** 			if (sw_raw[button] == 0x80) {
 1112              		.loc 1 53 4 view .LVU407
  54:Src/Ui/ui.cpp **** 				addEvent(Ui::BUTTON, button, 1);
 1113              		.loc 1 54 21 is_stmt 0 view .LVU408
 1114 02c0 D57B     		ldrb	r5, [r2, #15]	@ zero_extendqisi2
  53:Src/Ui/ui.cpp **** 			if (sw_raw[button] == 0x80) {
 1115              		.loc 1 53 12 view .LVU409
 1116 02c2 D81D     		adds	r0, r3, #7
 1117              	.LVL89:
  54:Src/Ui/ui.cpp **** 				addEvent(Ui::BUTTON, button, 1);
 1118              		.loc 1 54 4 view .LVU410
 1119 02c4 802D     		cmp	r5, #128
  53:Src/Ui/ui.cpp **** 			if (sw_raw[button] == 0x80) {
 1120              		.loc 1 53 12 view .LVU411
 1121 02c6 C0B2     		uxtb	r0, r0
 1122              	.LVL90:
  54:Src/Ui/ui.cpp **** 				addEvent(Ui::BUTTON, button, 1);
 1123              		.loc 1 54 4 is_stmt 1 view .LVU412
 1124 02c8 2ED0     		beq	.L101
  56:Src/Ui/ui.cpp **** 				addEvent(Ui::BUTTON, button, 0);
 1125              		.loc 1 56 11 view .LVU413
 1126 02ca 012D     		cmp	r5, #1
 1127 02cc 10D1     		bne	.L59
  57:Src/Ui/ui.cpp **** 			}
 1128              		.loc 1 57 5 view .LVU414
 1129              	.LVL91:
 1130              	.LBB307:
  20:Src/Ui/ui.cpp **** 	Ui::Event e;
 1131              		.loc 1 20 6 view .LVU415
 1132              	.LBB304:
  21:Src/Ui/ui.cpp **** 	e.type = type;
 1133              		.loc 1 21 2 view .LVU416
  22:Src/Ui/ui.cpp **** 	e.id = id;
 1134              		.loc 1 22 2 view .LVU417
  23:Src/Ui/ui.cpp **** 	e.value = value;
 1135              		.loc 1 23 2 view .LVU418
  24:Src/Ui/ui.cpp **** 	ui_que.write(e);
 1136              		.loc 1 24 2 view .LVU419
  25:Src/Ui/ui.cpp **** }
 1137              		.loc 1 25 2 view .LVU420
 1138              	.LBB301:
  37:/Users/joostbooy/Desktop/Code/stm32/lib/utils/que.h **** 		size_t pos = write_pos_;
 1139              		.loc 2 37 14 view .LVU421
 1140              	.LBB298:
  38:/Users/joostbooy/Desktop/Code/stm32/lib/utils/que.h **** 		data[pos] = value;
 1141              		.loc 2 38 10 is_stmt 0 view .LVU422
ARM GAS  /var/folders/84/_x1cyy_j36g486tldtwl37280000gn/T//ccy6KN4R.s 			page 30


 1142 02ce 634D     		ldr	r5, .L105
 1143 02d0 2968     		ldr	r1, [r5]
 1144              	.LVL92:
  39:/Users/joostbooy/Desktop/Code/stm32/lib/utils/que.h **** 		write_pos_ = (pos + 1) % kMaxSize;
 1145              		.loc 2 39 3 view .LVU423
 1146 02d2 01EB4106 		add	r6, r1, r1, lsl #1
 1147 02d6 0836     		adds	r6, r6, #8
 1148 02d8 AF19     		adds	r7, r5, r6
 1149              		.loc 2 40 21 view .LVU424
 1150 02da 0131     		adds	r1, r1, #1
 1151              	.LVL93:
  39:/Users/joostbooy/Desktop/Code/stm32/lib/utils/que.h **** 		write_pos_ = (pos + 1) % kMaxSize;
 1152              		.loc 2 39 3 view .LVU425
 1153 02dc 4FF0000C 		mov	ip, #0
 1154              		.loc 2 40 26 view .LVU426
 1155 02e0 01F00F01 		and	r1, r1, #15
  39:/Users/joostbooy/Desktop/Code/stm32/lib/utils/que.h **** 		write_pos_ = (pos + 1) % kMaxSize;
 1156              		.loc 2 39 3 view .LVU427
 1157 02e4 05F806C0 		strb	ip, [r5, r6]
 1158              	.LVL94:
  39:/Users/joostbooy/Desktop/Code/stm32/lib/utils/que.h **** 		write_pos_ = (pos + 1) % kMaxSize;
 1159              		.loc 2 39 3 view .LVU428
 1160 02e8 7870     		strb	r0, [r7, #1]
 1161 02ea 87F802C0 		strb	ip, [r7, #2]
 1162              		.loc 2 40 3 view .LVU429
 1163 02ee 2960     		str	r1, [r5]
 1164              	.LVL95:
 1165              	.L59:
 1166              		.loc 2 40 3 view .LVU430
 1167              	.LBE298:
 1168              	.LBE301:
 1169              	.LBE304:
 1170              	.LBE307:
 1171              	.LBE326:
  52:Src/Ui/ui.cpp **** 			uint8_t button = buttons_rows[y] + x;
 1172              		.loc 1 52 3 is_stmt 1 discriminator 2 view .LVU431
  52:Src/Ui/ui.cpp **** 			uint8_t button = buttons_rows[y] + x;
 1173              		.loc 1 52 21 discriminator 2 view .LVU432
  52:Src/Ui/ui.cpp **** 			uint8_t button = buttons_rows[y] + x;
 1174              		.loc 1 52 21 is_stmt 0 discriminator 2 view .LVU433
 1175              	.LBE290:
 1176              	.LBB328:
 1177              	.LBB285:
  62:Src/Ui/ui.cpp **** 			uint8_t b = enc_b_rows[y] + x;
 1178              		.loc 1 62 4 is_stmt 1 discriminator 2 view .LVU434
 1179 02f0 957A     		ldrb	r5, [r2, #10]	@ zero_extendqisi2
 1180 02f2 05F00306 		and	r6, r5, #3
  62:Src/Ui/ui.cpp **** 			uint8_t b = enc_b_rows[y] + x;
 1181              		.loc 1 62 12 is_stmt 0 discriminator 2 view .LVU435
 1182 02f6 581C     		adds	r0, r3, #1
 1183              	.LVL96:
  64:Src/Ui/ui.cpp **** 				addEvent(Ui::ENCODER, a, 1);
 1184              		.loc 1 64 4 discriminator 2 view .LVU436
 1185 02f8 022E     		cmp	r6, #2
  62:Src/Ui/ui.cpp **** 			uint8_t b = enc_b_rows[y] + x;
 1186              		.loc 1 62 12 discriminator 2 view .LVU437
 1187 02fa C0B2     		uxtb	r0, r0
ARM GAS  /var/folders/84/_x1cyy_j36g486tldtwl37280000gn/T//ccy6KN4R.s 			page 31


 1188              	.LVL97:
  63:Src/Ui/ui.cpp **** 			if ((sw_raw[b] & 0x03) == 0x02 && (sw_raw[a] & 0x03) == 0x00) {
 1189              		.loc 1 63 4 is_stmt 1 discriminator 2 view .LVU438
  64:Src/Ui/ui.cpp **** 				addEvent(Ui::ENCODER, a, 1);
 1190              		.loc 1 64 4 discriminator 2 view .LVU439
 1191 02fc 80D1     		bne	.L102
  64:Src/Ui/ui.cpp **** 				addEvent(Ui::ENCODER, a, 1);
 1192              		.loc 1 64 35 is_stmt 0 view .LVU440
 1193 02fe 557A     		ldrb	r5, [r2, #9]	@ zero_extendqisi2
 1194 0300 AD07     		lsls	r5, r5, #30
 1195 0302 83D1     		bne	.L61
  65:Src/Ui/ui.cpp **** 			} else if ((sw_raw[a] & 0x03) == 0x02 && (sw_raw[b] & 0x03) == 0x00) {
 1196              		.loc 1 65 5 is_stmt 1 view .LVU441
 1197              	.LVL98:
 1198              	.LBB260:
 1199              	.LBI260:
  20:Src/Ui/ui.cpp **** 	Ui::Event e;
 1200              		.loc 1 20 6 view .LVU442
 1201              	.LBB261:
  21:Src/Ui/ui.cpp **** 	e.type = type;
 1202              		.loc 1 21 2 view .LVU443
  22:Src/Ui/ui.cpp **** 	e.id = id;
 1203              		.loc 1 22 2 view .LVU444
  23:Src/Ui/ui.cpp **** 	e.value = value;
 1204              		.loc 1 23 2 view .LVU445
  24:Src/Ui/ui.cpp **** 	ui_que.write(e);
 1205              		.loc 1 24 2 view .LVU446
  25:Src/Ui/ui.cpp **** }
 1206              		.loc 1 25 2 view .LVU447
 1207              	.LBB262:
 1208              	.LBI262:
  37:/Users/joostbooy/Desktop/Code/stm32/lib/utils/que.h **** 		size_t pos = write_pos_;
 1209              		.loc 2 37 14 view .LVU448
 1210              	.LBB263:
  38:/Users/joostbooy/Desktop/Code/stm32/lib/utils/que.h **** 		data[pos] = value;
 1211              		.loc 2 38 10 is_stmt 0 view .LVU449
 1212 0304 554D     		ldr	r5, .L105
 1213 0306 2968     		ldr	r1, [r5]
 1214              	.LVL99:
  39:/Users/joostbooy/Desktop/Code/stm32/lib/utils/que.h **** 		write_pos_ = (pos + 1) % kMaxSize;
 1215              		.loc 2 39 3 view .LVU450
 1216 0308 01EB4106 		add	r6, r1, r1, lsl #1
 1217 030c 0836     		adds	r6, r6, #8
 1218 030e AF19     		adds	r7, r5, r6
 1219              		.loc 2 40 21 view .LVU451
 1220 0310 0131     		adds	r1, r1, #1
 1221              	.LVL100:
  39:/Users/joostbooy/Desktop/Code/stm32/lib/utils/que.h **** 		write_pos_ = (pos + 1) % kMaxSize;
 1222              		.loc 2 39 3 view .LVU452
 1223 0312 4FF0010C 		mov	ip, #1
 1224              		.loc 2 40 26 view .LVU453
 1225 0316 01F00F01 		and	r1, r1, #15
  39:/Users/joostbooy/Desktop/Code/stm32/lib/utils/que.h **** 		write_pos_ = (pos + 1) % kMaxSize;
 1226              		.loc 2 39 3 view .LVU454
 1227 031a 05F806C0 		strb	ip, [r5, r6]
 1228              	.LVL101:
  39:/Users/joostbooy/Desktop/Code/stm32/lib/utils/que.h **** 		write_pos_ = (pos + 1) % kMaxSize;
ARM GAS  /var/folders/84/_x1cyy_j36g486tldtwl37280000gn/T//ccy6KN4R.s 			page 32


 1229              		.loc 2 39 3 view .LVU455
 1230 031e 7870     		strb	r0, [r7, #1]
 1231 0320 87F802C0 		strb	ip, [r7, #2]
 1232              		.loc 2 40 3 view .LVU456
 1233 0324 2960     		str	r1, [r5]
 1234              	.LVL102:
 1235              		.loc 2 40 3 view .LVU457
 1236 0326 71E7     		b	.L61
 1237              	.LVL103:
 1238              	.L101:
 1239              		.loc 2 40 3 view .LVU458
 1240              	.LBE263:
 1241              	.LBE262:
 1242              	.LBE261:
 1243              	.LBE260:
 1244              	.LBE285:
 1245              	.LBE328:
 1246              	.LBB329:
 1247              	.LBB327:
  55:Src/Ui/ui.cpp **** 			} else if (sw_raw[button] == 0x01) {
 1248              		.loc 1 55 5 is_stmt 1 view .LVU459
 1249              	.LBB308:
 1250              	.LBI308:
  20:Src/Ui/ui.cpp **** 	Ui::Event e;
 1251              		.loc 1 20 6 view .LVU460
 1252              	.LBB309:
  21:Src/Ui/ui.cpp **** 	e.type = type;
 1253              		.loc 1 21 2 view .LVU461
  22:Src/Ui/ui.cpp **** 	e.id = id;
 1254              		.loc 1 22 2 view .LVU462
  23:Src/Ui/ui.cpp **** 	e.value = value;
 1255              		.loc 1 23 2 view .LVU463
  24:Src/Ui/ui.cpp **** 	ui_que.write(e);
 1256              		.loc 1 24 2 view .LVU464
  25:Src/Ui/ui.cpp **** }
 1257              		.loc 1 25 2 view .LVU465
 1258              	.LBB310:
 1259              	.LBI310:
  37:/Users/joostbooy/Desktop/Code/stm32/lib/utils/que.h **** 		size_t pos = write_pos_;
 1260              		.loc 2 37 14 view .LVU466
 1261              	.LBB311:
  38:/Users/joostbooy/Desktop/Code/stm32/lib/utils/que.h **** 		data[pos] = value;
 1262              		.loc 2 38 10 is_stmt 0 view .LVU467
 1263 0328 4C4D     		ldr	r5, .L105
 1264 032a 2968     		ldr	r1, [r5]
 1265              	.LVL104:
  39:/Users/joostbooy/Desktop/Code/stm32/lib/utils/que.h **** 		write_pos_ = (pos + 1) % kMaxSize;
 1266              		.loc 2 39 3 view .LVU468
 1267 032c 01EB4106 		add	r6, r1, r1, lsl #1
 1268 0330 0836     		adds	r6, r6, #8
 1269 0332 AF19     		adds	r7, r5, r6
 1270              		.loc 2 40 21 view .LVU469
 1271 0334 0131     		adds	r1, r1, #1
 1272              	.LVL105:
 1273              		.loc 2 40 26 view .LVU470
 1274 0336 01F00F01 		and	r1, r1, #15
  39:/Users/joostbooy/Desktop/Code/stm32/lib/utils/que.h **** 		write_pos_ = (pos + 1) % kMaxSize;
ARM GAS  /var/folders/84/_x1cyy_j36g486tldtwl37280000gn/T//ccy6KN4R.s 			page 33


 1275              		.loc 2 39 3 view .LVU471
 1276 033a 4FF0000E 		mov	lr, #0
 1277 033e 4FF0010C 		mov	ip, #1
 1278 0342 05F806E0 		strb	lr, [r5, r6]
 1279              	.LVL106:
  39:/Users/joostbooy/Desktop/Code/stm32/lib/utils/que.h **** 		write_pos_ = (pos + 1) % kMaxSize;
 1280              		.loc 2 39 3 view .LVU472
 1281 0346 7870     		strb	r0, [r7, #1]
 1282 0348 87F802C0 		strb	ip, [r7, #2]
 1283              		.loc 2 40 3 view .LVU473
 1284 034c 2960     		str	r1, [r5]
 1285              	.LVL107:
 1286              		.loc 2 40 3 view .LVU474
 1287              	.LBE311:
 1288              	.LBE310:
  26:Src/Ui/ui.cpp **** 
 1289              		.loc 1 26 1 view .LVU475
 1290 034e CFE7     		b	.L59
 1291              	.LVL108:
 1292              	.L56:
  26:Src/Ui/ui.cpp **** 
 1293              		.loc 1 26 1 view .LVU476
 1294              	.LBE309:
 1295              	.LBE308:
  55:Src/Ui/ui.cpp **** 			} else if (sw_raw[button] == 0x01) {
 1296              		.loc 1 55 5 is_stmt 1 view .LVU477
 1297              	.LBB321:
  20:Src/Ui/ui.cpp **** 	Ui::Event e;
 1298              		.loc 1 20 6 view .LVU478
 1299              	.LBB318:
  21:Src/Ui/ui.cpp **** 	e.type = type;
 1300              		.loc 1 21 2 view .LVU479
  22:Src/Ui/ui.cpp **** 	e.id = id;
 1301              		.loc 1 22 2 view .LVU480
  23:Src/Ui/ui.cpp **** 	e.value = value;
 1302              		.loc 1 23 2 view .LVU481
  24:Src/Ui/ui.cpp **** 	ui_que.write(e);
 1303              		.loc 1 24 2 view .LVU482
  25:Src/Ui/ui.cpp **** }
 1304              		.loc 1 25 2 view .LVU483
 1305              	.LBB315:
  37:/Users/joostbooy/Desktop/Code/stm32/lib/utils/que.h **** 		size_t pos = write_pos_;
 1306              		.loc 2 37 14 view .LVU484
 1307              	.LBB312:
  38:/Users/joostbooy/Desktop/Code/stm32/lib/utils/que.h **** 		data[pos] = value;
 1308              		.loc 2 38 10 is_stmt 0 view .LVU485
 1309 0350 424D     		ldr	r5, .L105
 1310 0352 2968     		ldr	r1, [r5]
 1311              	.LVL109:
  39:/Users/joostbooy/Desktop/Code/stm32/lib/utils/que.h **** 		write_pos_ = (pos + 1) % kMaxSize;
 1312              		.loc 2 39 3 view .LVU486
 1313 0354 01EB4106 		add	r6, r1, r1, lsl #1
 1314 0358 0836     		adds	r6, r6, #8
 1315 035a AF19     		adds	r7, r5, r6
 1316              		.loc 2 40 21 view .LVU487
 1317 035c 0131     		adds	r1, r1, #1
 1318              	.LVL110:
ARM GAS  /var/folders/84/_x1cyy_j36g486tldtwl37280000gn/T//ccy6KN4R.s 			page 34


 1319              		.loc 2 40 26 view .LVU488
 1320 035e 01F00F01 		and	r1, r1, #15
  39:/Users/joostbooy/Desktop/Code/stm32/lib/utils/que.h **** 		write_pos_ = (pos + 1) % kMaxSize;
 1321              		.loc 2 39 3 view .LVU489
 1322 0362 4FF0000E 		mov	lr, #0
 1323 0366 4FF0010C 		mov	ip, #1
 1324 036a 05F806E0 		strb	lr, [r5, r6]
 1325              	.LVL111:
  39:/Users/joostbooy/Desktop/Code/stm32/lib/utils/que.h **** 		write_pos_ = (pos + 1) % kMaxSize;
 1326              		.loc 2 39 3 view .LVU490
 1327 036e 7870     		strb	r0, [r7, #1]
 1328 0370 87F802C0 		strb	ip, [r7, #2]
 1329              		.loc 2 40 3 view .LVU491
 1330 0374 2960     		str	r1, [r5]
 1331              	.LVL112:
 1332              		.loc 2 40 3 view .LVU492
 1333 0376 A3E7     		b	.L57
 1334              	.LVL113:
 1335              	.L54:
 1336              		.loc 2 40 3 view .LVU493
 1337              	.LBE312:
 1338              	.LBE315:
 1339              	.LBE318:
 1340              	.LBE321:
  55:Src/Ui/ui.cpp **** 			} else if (sw_raw[button] == 0x01) {
 1341              		.loc 1 55 5 is_stmt 1 view .LVU494
 1342              	.LBB322:
  20:Src/Ui/ui.cpp **** 	Ui::Event e;
 1343              		.loc 1 20 6 view .LVU495
 1344              	.LBB319:
  21:Src/Ui/ui.cpp **** 	e.type = type;
 1345              		.loc 1 21 2 view .LVU496
  22:Src/Ui/ui.cpp **** 	e.id = id;
 1346              		.loc 1 22 2 view .LVU497
  23:Src/Ui/ui.cpp **** 	e.value = value;
 1347              		.loc 1 23 2 view .LVU498
  24:Src/Ui/ui.cpp **** 	ui_que.write(e);
 1348              		.loc 1 24 2 view .LVU499
  25:Src/Ui/ui.cpp **** }
 1349              		.loc 1 25 2 view .LVU500
 1350              	.LBB316:
  37:/Users/joostbooy/Desktop/Code/stm32/lib/utils/que.h **** 		size_t pos = write_pos_;
 1351              		.loc 2 37 14 view .LVU501
 1352              	.LBB313:
  38:/Users/joostbooy/Desktop/Code/stm32/lib/utils/que.h **** 		data[pos] = value;
 1353              		.loc 2 38 10 is_stmt 0 view .LVU502
 1354 0378 384D     		ldr	r5, .L105
 1355 037a 2968     		ldr	r1, [r5]
 1356              	.LVL114:
  39:/Users/joostbooy/Desktop/Code/stm32/lib/utils/que.h **** 		write_pos_ = (pos + 1) % kMaxSize;
 1357              		.loc 2 39 3 view .LVU503
 1358 037c 01EB4106 		add	r6, r1, r1, lsl #1
 1359 0380 0836     		adds	r6, r6, #8
 1360 0382 AF19     		adds	r7, r5, r6
 1361              		.loc 2 40 21 view .LVU504
 1362 0384 0131     		adds	r1, r1, #1
 1363              	.LVL115:
ARM GAS  /var/folders/84/_x1cyy_j36g486tldtwl37280000gn/T//ccy6KN4R.s 			page 35


 1364              		.loc 2 40 26 view .LVU505
 1365 0386 01F00F01 		and	r1, r1, #15
  39:/Users/joostbooy/Desktop/Code/stm32/lib/utils/que.h **** 		write_pos_ = (pos + 1) % kMaxSize;
 1366              		.loc 2 39 3 view .LVU506
 1367 038a 4FF0000E 		mov	lr, #0
 1368 038e 4FF0010C 		mov	ip, #1
 1369 0392 05F806E0 		strb	lr, [r5, r6]
 1370              	.LVL116:
  39:/Users/joostbooy/Desktop/Code/stm32/lib/utils/que.h **** 		write_pos_ = (pos + 1) % kMaxSize;
 1371              		.loc 2 39 3 view .LVU507
 1372 0396 7870     		strb	r0, [r7, #1]
 1373 0398 87F802C0 		strb	ip, [r7, #2]
 1374              		.loc 2 40 3 view .LVU508
 1375 039c 2960     		str	r1, [r5]
 1376              	.LVL117:
 1377              		.loc 2 40 3 view .LVU509
 1378 039e 77E7     		b	.L55
 1379              	.LVL118:
 1380              	.L52:
 1381              		.loc 2 40 3 view .LVU510
 1382              	.LBE313:
 1383              	.LBE316:
 1384              	.LBE319:
 1385              	.LBE322:
  55:Src/Ui/ui.cpp **** 			} else if (sw_raw[button] == 0x01) {
 1386              		.loc 1 55 5 is_stmt 1 view .LVU511
 1387              	.LBB323:
  20:Src/Ui/ui.cpp **** 	Ui::Event e;
 1388              		.loc 1 20 6 view .LVU512
 1389              	.LBB320:
  21:Src/Ui/ui.cpp **** 	e.type = type;
 1390              		.loc 1 21 2 view .LVU513
  22:Src/Ui/ui.cpp **** 	e.id = id;
 1391              		.loc 1 22 2 view .LVU514
  23:Src/Ui/ui.cpp **** 	e.value = value;
 1392              		.loc 1 23 2 view .LVU515
  24:Src/Ui/ui.cpp **** 	ui_que.write(e);
 1393              		.loc 1 24 2 view .LVU516
  25:Src/Ui/ui.cpp **** }
 1394              		.loc 1 25 2 view .LVU517
 1395              	.LBB317:
  37:/Users/joostbooy/Desktop/Code/stm32/lib/utils/que.h **** 		size_t pos = write_pos_;
 1396              		.loc 2 37 14 view .LVU518
 1397              	.LBB314:
  38:/Users/joostbooy/Desktop/Code/stm32/lib/utils/que.h **** 		data[pos] = value;
 1398              		.loc 2 38 10 is_stmt 0 view .LVU519
 1399 03a0 2E48     		ldr	r0, .L105
 1400 03a2 0168     		ldr	r1, [r0]
 1401              	.LVL119:
  39:/Users/joostbooy/Desktop/Code/stm32/lib/utils/que.h **** 		write_pos_ = (pos + 1) % kMaxSize;
 1402              		.loc 2 39 3 view .LVU520
 1403 03a4 01EB4105 		add	r5, r1, r1, lsl #1
 1404 03a8 0835     		adds	r5, r5, #8
 1405 03aa 4619     		adds	r6, r0, r5
 1406              		.loc 2 40 21 view .LVU521
 1407 03ac 0131     		adds	r1, r1, #1
 1408              	.LVL120:
ARM GAS  /var/folders/84/_x1cyy_j36g486tldtwl37280000gn/T//ccy6KN4R.s 			page 36


 1409              		.loc 2 40 26 view .LVU522
 1410 03ae 01F00F01 		and	r1, r1, #15
  39:/Users/joostbooy/Desktop/Code/stm32/lib/utils/que.h **** 		write_pos_ = (pos + 1) % kMaxSize;
 1411              		.loc 2 39 3 view .LVU523
 1412 03b2 4FF0000C 		mov	ip, #0
 1413 03b6 0127     		movs	r7, #1
 1414 03b8 00F805C0 		strb	ip, [r0, r5]
 1415              	.LVL121:
  39:/Users/joostbooy/Desktop/Code/stm32/lib/utils/que.h **** 		write_pos_ = (pos + 1) % kMaxSize;
 1416              		.loc 2 39 3 view .LVU524
 1417 03bc 7370     		strb	r3, [r6, #1]
 1418 03be B770     		strb	r7, [r6, #2]
 1419              		.loc 2 40 3 view .LVU525
 1420 03c0 0160     		str	r1, [r0]
 1421              	.LVL122:
 1422              		.loc 2 40 3 view .LVU526
 1423 03c2 4CE7     		b	.L53
 1424              	.LVL123:
 1425              	.L98:
 1426              		.loc 2 40 3 view .LVU527
 1427              	.LBE314:
 1428              	.LBE317:
 1429              	.LBE320:
 1430              	.LBE323:
 1431              	.LBE327:
 1432              	.LBE329:
 1433              	.LBB330:
 1434              	.LBB286:
  64:Src/Ui/ui.cpp **** 				addEvent(Ui::ENCODER, a, 1);
 1435              		.loc 1 64 35 discriminator 1 view .LVU528
 1436 03c4 107B     		ldrb	r0, [r2, #12]	@ zero_extendqisi2
 1437 03c6 8107     		lsls	r1, r0, #30
 1438 03c8 7FF42EAF 		bne	.L63
  65:Src/Ui/ui.cpp **** 			} else if ((sw_raw[a] & 0x03) == 0x02 && (sw_raw[b] & 0x03) == 0x00) {
 1439              		.loc 1 65 5 is_stmt 1 view .LVU529
 1440              	.LVL124:
 1441              	.LBB273:
  20:Src/Ui/ui.cpp **** 	Ui::Event e;
 1442              		.loc 1 20 6 view .LVU530
 1443              	.LBB270:
  21:Src/Ui/ui.cpp **** 	e.type = type;
 1444              		.loc 1 21 2 view .LVU531
  22:Src/Ui/ui.cpp **** 	e.id = id;
 1445              		.loc 1 22 2 view .LVU532
  23:Src/Ui/ui.cpp **** 	e.value = value;
 1446              		.loc 1 23 2 view .LVU533
  24:Src/Ui/ui.cpp **** 	ui_que.write(e);
 1447              		.loc 1 24 2 view .LVU534
  25:Src/Ui/ui.cpp **** }
 1448              		.loc 1 25 2 view .LVU535
 1449              	.LBB267:
  37:/Users/joostbooy/Desktop/Code/stm32/lib/utils/que.h **** 		size_t pos = write_pos_;
 1450              		.loc 2 37 14 view .LVU536
 1451              	.LBB264:
  38:/Users/joostbooy/Desktop/Code/stm32/lib/utils/que.h **** 		data[pos] = value;
 1452              		.loc 2 38 10 is_stmt 0 view .LVU537
 1453 03cc 2348     		ldr	r0, .L105
ARM GAS  /var/folders/84/_x1cyy_j36g486tldtwl37280000gn/T//ccy6KN4R.s 			page 37


 1454 03ce 0168     		ldr	r1, [r0]
 1455              	.LVL125:
  39:/Users/joostbooy/Desktop/Code/stm32/lib/utils/que.h **** 		write_pos_ = (pos + 1) % kMaxSize;
 1456              		.loc 2 39 3 view .LVU538
 1457 03d0 01EB4105 		add	r5, r1, r1, lsl #1
 1458 03d4 0835     		adds	r5, r5, #8
 1459 03d6 4619     		adds	r6, r0, r5
 1460              		.loc 2 40 21 view .LVU539
 1461 03d8 0131     		adds	r1, r1, #1
 1462              	.LVL126:
 1463              		.loc 2 40 21 view .LVU540
 1464              	.LBE264:
 1465              	.LBE267:
 1466              	.LBE270:
 1467              	.LBE273:
 1468              	.LBE286:
 1469              	.LBE330:
  51:Src/Ui/ui.cpp **** 		for (int y = 0; y < num_buttons_rows; ++y) {
 1470              		.loc 1 51 32 view .LVU541
 1471 03da 0834     		adds	r4, r4, #8
 1472              	.LVL127:
 1473              	.LBB331:
 1474              	.LBB287:
 1475              	.LBB274:
 1476              	.LBB271:
 1477              	.LBB268:
 1478              	.LBB265:
  39:/Users/joostbooy/Desktop/Code/stm32/lib/utils/que.h **** 		write_pos_ = (pos + 1) % kMaxSize;
 1479              		.loc 2 39 3 view .LVU542
 1480 03dc 0127     		movs	r7, #1
 1481              		.loc 2 40 26 view .LVU543
 1482 03de 01F00F01 		and	r1, r1, #15
 1483              	.LBE265:
 1484              	.LBE268:
 1485              	.LBE271:
 1486              	.LBE274:
 1487              	.LBE287:
 1488              	.LBE331:
  51:Src/Ui/ui.cpp **** 		for (int y = 0; y < num_buttons_rows; ++y) {
 1489              		.loc 1 51 20 view .LVU544
 1490 03e2 802C     		cmp	r4, #128
 1491              	.LBB332:
 1492              	.LBB288:
 1493              	.LBB275:
 1494              	.LBB272:
 1495              	.LBB269:
 1496              	.LBB266:
  39:/Users/joostbooy/Desktop/Code/stm32/lib/utils/que.h **** 		write_pos_ = (pos + 1) % kMaxSize;
 1497              		.loc 2 39 3 view .LVU545
 1498 03e4 4755     		strb	r7, [r0, r5]
 1499              	.LVL128:
  39:/Users/joostbooy/Desktop/Code/stm32/lib/utils/que.h **** 		write_pos_ = (pos + 1) % kMaxSize;
 1500              		.loc 2 39 3 view .LVU546
 1501 03e6 02F10802 		add	r2, r2, #8
 1502 03ea 7370     		strb	r3, [r6, #1]
 1503 03ec B770     		strb	r7, [r6, #2]
 1504              		.loc 2 40 3 view .LVU547
ARM GAS  /var/folders/84/_x1cyy_j36g486tldtwl37280000gn/T//ccy6KN4R.s 			page 38


 1505 03ee 0160     		str	r1, [r0]
 1506              	.LVL129:
 1507              		.loc 2 40 3 view .LVU548
 1508              	.LBE266:
 1509              	.LBE269:
 1510              	.LBE272:
 1511              	.LBE275:
 1512              	.LBE288:
  61:Src/Ui/ui.cpp **** 			uint8_t a = enc_a_rows[y] + x;
 1513              		.loc 1 61 3 is_stmt 1 view .LVU549
  61:Src/Ui/ui.cpp **** 			uint8_t a = enc_a_rows[y] + x;
 1514              		.loc 1 61 21 view .LVU550
 1515              	.LBE332:
  51:Src/Ui/ui.cpp **** 		for (int y = 0; y < num_buttons_rows; ++y) {
 1516              		.loc 1 51 2 view .LVU551
  51:Src/Ui/ui.cpp **** 		for (int y = 0; y < num_buttons_rows; ++y) {
 1517              		.loc 1 51 20 view .LVU552
 1518 03f0 7FF420AF 		bne	.L64
 1519              	.L100:
  51:Src/Ui/ui.cpp **** 		for (int y = 0; y < num_buttons_rows; ++y) {
 1520              		.loc 1 51 20 is_stmt 0 view .LVU553
 1521              	.LBE257:
  67:Src/Ui/ui.cpp **** 				addEvent(Ui::ENCODER, a, -1);
  68:Src/Ui/ui.cpp **** 			}
  69:Src/Ui/ui.cpp **** 		}
  70:Src/Ui/ui.cpp **** 	}
  71:Src/Ui/ui.cpp **** }
 1522              		.loc 1 71 1 view .LVU554
 1523 03f4 07B0     		add	sp, sp, #28
 1524              		.cfi_remember_state
 1525              		.cfi_def_cfa_offset 20
 1526              		@ sp needed
 1527 03f6 F0BD     		pop	{r4, r5, r6, r7, pc}
 1528              	.LVL130:
 1529              	.L97:
 1530              		.cfi_restore_state
 1531              	.LBB334:
 1532              	.LBB333:
 1533              	.LBB289:
  66:Src/Ui/ui.cpp **** 				addEvent(Ui::ENCODER, a, -1);
 1534              		.loc 1 66 42 view .LVU555
 1535 03f8 002E     		cmp	r6, #0
 1536 03fa 7FF407AF 		bne	.L61
  67:Src/Ui/ui.cpp **** 				addEvent(Ui::ENCODER, a, -1);
 1537              		.loc 1 67 5 is_stmt 1 view .LVU556
 1538              	.LVL131:
 1539              	.LBB276:
 1540              	.LBI276:
  20:Src/Ui/ui.cpp **** 	Ui::Event e;
 1541              		.loc 1 20 6 view .LVU557
 1542              	.LBB277:
  21:Src/Ui/ui.cpp **** 	e.type = type;
 1543              		.loc 1 21 2 view .LVU558
  22:Src/Ui/ui.cpp **** 	e.id = id;
 1544              		.loc 1 22 2 view .LVU559
  23:Src/Ui/ui.cpp **** 	e.value = value;
 1545              		.loc 1 23 2 view .LVU560
ARM GAS  /var/folders/84/_x1cyy_j36g486tldtwl37280000gn/T//ccy6KN4R.s 			page 39


  24:Src/Ui/ui.cpp **** 	ui_que.write(e);
 1546              		.loc 1 24 2 view .LVU561
  25:Src/Ui/ui.cpp **** }
 1547              		.loc 1 25 2 view .LVU562
 1548              	.LBB278:
 1549              	.LBI278:
  37:/Users/joostbooy/Desktop/Code/stm32/lib/utils/que.h **** 		size_t pos = write_pos_;
 1550              		.loc 2 37 14 view .LVU563
 1551              	.LBB279:
  38:/Users/joostbooy/Desktop/Code/stm32/lib/utils/que.h **** 		data[pos] = value;
 1552              		.loc 2 38 10 is_stmt 0 view .LVU564
 1553 03fe 174D     		ldr	r5, .L105
 1554 0400 2968     		ldr	r1, [r5]
 1555              	.LVL132:
  39:/Users/joostbooy/Desktop/Code/stm32/lib/utils/que.h **** 		write_pos_ = (pos + 1) % kMaxSize;
 1556              		.loc 2 39 3 view .LVU565
 1557 0402 01EB4106 		add	r6, r1, r1, lsl #1
 1558 0406 0836     		adds	r6, r6, #8
 1559 0408 AF19     		adds	r7, r5, r6
 1560              		.loc 2 40 21 view .LVU566
 1561 040a 0131     		adds	r1, r1, #1
 1562              	.LVL133:
 1563              		.loc 2 40 26 view .LVU567
 1564 040c 01F00F01 		and	r1, r1, #15
  39:/Users/joostbooy/Desktop/Code/stm32/lib/utils/que.h **** 		write_pos_ = (pos + 1) % kMaxSize;
 1565              		.loc 2 39 3 view .LVU568
 1566 0410 4FF0010E 		mov	lr, #1
 1567 0414 4FF0FF0C 		mov	ip, #255
 1568 0418 05F806E0 		strb	lr, [r5, r6]
 1569              	.LVL134:
  39:/Users/joostbooy/Desktop/Code/stm32/lib/utils/que.h **** 		write_pos_ = (pos + 1) % kMaxSize;
 1570              		.loc 2 39 3 view .LVU569
 1571 041c 7870     		strb	r0, [r7, #1]
 1572 041e 87F802C0 		strb	ip, [r7, #2]
 1573              		.loc 2 40 3 view .LVU570
 1574 0422 2960     		str	r1, [r5]
 1575              	.LVL135:
 1576              		.loc 2 40 3 view .LVU571
 1577 0424 F2E6     		b	.L61
 1578              	.LVL136:
 1579              	.L99:
 1580              		.loc 2 40 3 view .LVU572
 1581              	.LBE279:
 1582              	.LBE278:
 1583              	.LBE277:
 1584              	.LBE276:
  66:Src/Ui/ui.cpp **** 				addEvent(Ui::ENCODER, a, -1);
 1585              		.loc 1 66 42 discriminator 1 view .LVU573
 1586 0426 002D     		cmp	r5, #0
 1587 0428 7FF4FEAE 		bne	.L63
  67:Src/Ui/ui.cpp **** 			}
 1588              		.loc 1 67 5 is_stmt 1 view .LVU574
 1589              	.LVL137:
 1590              	.LBB283:
  20:Src/Ui/ui.cpp **** 	Ui::Event e;
 1591              		.loc 1 20 6 view .LVU575
 1592              	.LBB282:
ARM GAS  /var/folders/84/_x1cyy_j36g486tldtwl37280000gn/T//ccy6KN4R.s 			page 40


  21:Src/Ui/ui.cpp **** 	e.type = type;
 1593              		.loc 1 21 2 view .LVU576
  22:Src/Ui/ui.cpp **** 	e.id = id;
 1594              		.loc 1 22 2 view .LVU577
  23:Src/Ui/ui.cpp **** 	e.value = value;
 1595              		.loc 1 23 2 view .LVU578
  24:Src/Ui/ui.cpp **** 	ui_que.write(e);
 1596              		.loc 1 24 2 view .LVU579
  25:Src/Ui/ui.cpp **** }
 1597              		.loc 1 25 2 view .LVU580
 1598              	.LBB281:
  37:/Users/joostbooy/Desktop/Code/stm32/lib/utils/que.h **** 		size_t pos = write_pos_;
 1599              		.loc 2 37 14 view .LVU581
 1600              	.LBB280:
  38:/Users/joostbooy/Desktop/Code/stm32/lib/utils/que.h **** 		data[pos] = value;
 1601              		.loc 2 38 10 is_stmt 0 view .LVU582
 1602 042c 0B48     		ldr	r0, .L105
 1603 042e 0168     		ldr	r1, [r0]
 1604              	.LVL138:
  39:/Users/joostbooy/Desktop/Code/stm32/lib/utils/que.h **** 		write_pos_ = (pos + 1) % kMaxSize;
 1605              		.loc 2 39 3 view .LVU583
 1606 0430 01EB4105 		add	r5, r1, r1, lsl #1
 1607 0434 0835     		adds	r5, r5, #8
 1608 0436 4619     		adds	r6, r0, r5
 1609              		.loc 2 40 21 view .LVU584
 1610 0438 0131     		adds	r1, r1, #1
 1611              	.LVL139:
 1612              		.loc 2 40 26 view .LVU585
 1613 043a 01F00F01 		and	r1, r1, #15
  39:/Users/joostbooy/Desktop/Code/stm32/lib/utils/que.h **** 		write_pos_ = (pos + 1) % kMaxSize;
 1614              		.loc 2 39 3 view .LVU586
 1615 043e 4FF0010C 		mov	ip, #1
 1616 0442 FF27     		movs	r7, #255
 1617 0444 00F805C0 		strb	ip, [r0, r5]
 1618              	.LVL140:
  39:/Users/joostbooy/Desktop/Code/stm32/lib/utils/que.h **** 		write_pos_ = (pos + 1) % kMaxSize;
 1619              		.loc 2 39 3 view .LVU587
 1620 0448 7370     		strb	r3, [r6, #1]
 1621 044a B770     		strb	r7, [r6, #2]
 1622              		.loc 2 40 3 view .LVU588
 1623 044c 0160     		str	r1, [r0]
 1624              	.LVL141:
 1625              		.loc 2 40 3 view .LVU589
 1626              	.LBE280:
 1627              	.LBE281:
  26:Src/Ui/ui.cpp **** 
 1628              		.loc 1 26 1 view .LVU590
 1629 044e EBE6     		b	.L63
 1630              	.LVL142:
 1631              	.L23:
  26:Src/Ui/ui.cpp **** 
 1632              		.loc 1 26 1 view .LVU591
 1633              	.LBE282:
 1634              	.LBE283:
 1635              	.LBE289:
 1636              	.LBE333:
 1637              	.LBE334:
ARM GAS  /var/folders/84/_x1cyy_j36g486tldtwl37280000gn/T//ccy6KN4R.s 			page 41


 1638              	.LBB335:
 1639              	.LBB244:
  55:Drivers/matrix.h **** 		spi_transfer(led_data >> 8);
 1640              		.loc 3 55 35 view .LVU592
 1641 0450 01EB440C 		add	ip, r1, r4, lsl #1
 1642 0454 BCF80250 		ldrh	r5, [ip, #2]
 1643              	.LVL143:
  55:Drivers/matrix.h **** 		spi_transfer(led_data >> 8);
 1644              		.loc 3 55 35 view .LVU593
 1645 0458 2EE6     		b	.L24
 1646              	.L106:
 1647 045a 00BF     		.align	2
 1648              	.L105:
 1649 045c 00000000 		.word	.LANCHOR0
 1650              	.LBE244:
 1651              	.LBE335:
 1652              		.cfi_endproc
 1653              	.LFE2991:
 1655              		.section	.text._ZN2Ui12send_displayEv,"ax",%progbits
 1656              		.align	1
 1657              		.p2align 2,,3
 1658              		.global	_ZN2Ui12send_displayEv
 1659              		.syntax unified
 1660              		.thumb
 1661              		.thumb_func
 1662              		.fpu fpv4-sp-d16
 1664              	_ZN2Ui12send_displayEv:
 1665              	.LVL144:
 1666              	.LFB2993:
  72:Src/Ui/ui.cpp **** 
  73:Src/Ui/ui.cpp **** void Ui::process() {
  74:Src/Ui/ui.cpp **** 	while (ui_que.readable()) {
  75:Src/Ui/ui.cpp **** 		Ui::Event e = ui_que.read();
  76:Src/Ui/ui.cpp **** 		switch (e.type)
  77:Src/Ui/ui.cpp **** 		{
  78:Src/Ui/ui.cpp **** 		case Ui::BUTTON:
  79:Src/Ui/ui.cpp **** 			controller.on_button(e.id, e.value);
  80:Src/Ui/ui.cpp **** 			pages.onButton(e.id, e.value);
  81:Src/Ui/ui.cpp **** 			break;
  82:Src/Ui/ui.cpp **** 		case Ui::ENCODER:
  83:Src/Ui/ui.cpp **** 			controller.on_encoder(e.id);
  84:Src/Ui/ui.cpp **** 			pages.onEncoder(e.id, e.value);
  85:Src/Ui/ui.cpp **** 			break;
  86:Src/Ui/ui.cpp **** 		default:
  87:Src/Ui/ui.cpp **** 			break;
  88:Src/Ui/ui.cpp **** 		}
  89:Src/Ui/ui.cpp **** 	}
  90:Src/Ui/ui.cpp **** 
  91:Src/Ui/ui.cpp **** 	uint32_t interval = (micros.read() / 1000) - last_interval;
  92:Src/Ui/ui.cpp **** 
  93:Src/Ui/ui.cpp **** 	if (interval >= 1) {
  94:Src/Ui/ui.cpp **** 		last_interval += interval;
  95:Src/Ui/ui.cpp **** 		pages.msTick(interval);
  96:Src/Ui/ui.cpp **** 		matrix.lock_leds();
  97:Src/Ui/ui.cpp **** 		matrix.clear_leds();
  98:Src/Ui/ui.cpp **** 		pages.drawLeds();
  99:Src/Ui/ui.cpp **** 		matrix.unlock_leds();
ARM GAS  /var/folders/84/_x1cyy_j36g486tldtwl37280000gn/T//ccy6KN4R.s 			page 42


 100:Src/Ui/ui.cpp **** 	}
 101:Src/Ui/ui.cpp **** 
 102:Src/Ui/ui.cpp **** 	display_interval += interval;
 103:Src/Ui/ui.cpp **** 	if (display_interval >= pages.targetFps()) {
 104:Src/Ui/ui.cpp **** 		send_display();
 105:Src/Ui/ui.cpp **** 	}
 106:Src/Ui/ui.cpp **** }
 107:Src/Ui/ui.cpp **** 
 108:Src/Ui/ui.cpp **** void Ui::send_display() {
 1667              		.loc 1 108 25 is_stmt 1 view -0
 1668              		.cfi_startproc
 1669              		@ args = 0, pretend = 0, frame = 0
 1670              		@ frame_needed = 0, uses_anonymous_args = 0
 1671              		.loc 1 108 25 is_stmt 0 view .LVU595
 1672 0000 70B5     		push	{r4, r5, r6, lr}
 1673              		.cfi_def_cfa_offset 16
 1674              		.cfi_offset 4, -16
 1675              		.cfi_offset 5, -12
 1676              		.cfi_offset 6, -8
 1677              		.cfi_offset 14, -4
 1678 0002 5A4C     		ldr	r4, .L164
 1679              	.L108:
 109:Src/Ui/ui.cpp **** 	while (display.dma_busy());
 1680              		.loc 1 109 2 is_stmt 1 view .LVU596
 1681              		.loc 1 109 25 view .LVU597
 1682              	.LVL145:
 1683              	.LBB389:
 1684              	.LBI389:
 1685              		.file 5 "Drivers/display.h"
   1:Drivers/display.h **** #ifndef Display_h
   2:Drivers/display.h **** #define Display_h
   3:Drivers/display.h **** 
   4:Drivers/display.h **** #include "stmf4lib.h"
   5:Drivers/display.h **** #include "debug.h"
   6:Drivers/display.h **** 
   7:Drivers/display.h **** 
   8:Drivers/display.h **** class Display {
   9:Drivers/display.h **** 
  10:Drivers/display.h **** public:
  11:Drivers/display.h **** 	void init();
  12:Drivers/display.h **** 
  13:Drivers/display.h **** 	inline void select(){
  14:Drivers/display.h **** 		GPIOB->BSRR = GPIO_PIN_5 << 16;
  15:Drivers/display.h **** 	}
  16:Drivers/display.h **** 
  17:Drivers/display.h **** 	inline void deselect(){
  18:Drivers/display.h **** 		GPIOB->BSRR = GPIO_PIN_5;
  19:Drivers/display.h **** 	}
  20:Drivers/display.h **** 
  21:Drivers/display.h **** 	inline void cd_high(){
  22:Drivers/display.h **** 		GPIOD->BSRR = GPIO_PIN_7;
  23:Drivers/display.h **** 	}
  24:Drivers/display.h **** 
  25:Drivers/display.h **** 	inline void cd_low(){
  26:Drivers/display.h **** 		GPIOD->BSRR = GPIO_PIN_7 << 16;
  27:Drivers/display.h **** 	}
  28:Drivers/display.h **** 
ARM GAS  /var/folders/84/_x1cyy_j36g486tldtwl37280000gn/T//ccy6KN4R.s 			page 43


  29:Drivers/display.h **** 	void sendCommand(uint8_t cmd) {
  30:Drivers/display.h **** 		cd_low();
  31:Drivers/display.h **** 		spi_write(cmd);
  32:Drivers/display.h **** 	}
  33:Drivers/display.h **** 
  34:Drivers/display.h **** 	void sendData(uint8_t data) {
  35:Drivers/display.h **** 		cd_high();
  36:Drivers/display.h **** 		spi_write(data);
  37:Drivers/display.h **** 	}
  38:Drivers/display.h **** 
  39:Drivers/display.h **** 	void sendCommand(uint8_t cmd, uint8_t data) {
  40:Drivers/display.h **** 		sendCommand(cmd);
  41:Drivers/display.h **** 		sendData(data);
  42:Drivers/display.h **** 	}
  43:Drivers/display.h **** 
  44:Drivers/display.h **** 	void sendCommand(uint8_t cmd, uint8_t data_a, uint8_t data_b) {
  45:Drivers/display.h **** 		sendCommand(cmd);
  46:Drivers/display.h **** 		sendData(data_a);
  47:Drivers/display.h **** 		sendData(data_b);
  48:Drivers/display.h **** 	}
  49:Drivers/display.h **** 
  50:Drivers/display.h **** 	void set_col_address(uint8_t a, uint8_t b) {
  51:Drivers/display.h **** 		sendCommand(0x15, a, b);
  52:Drivers/display.h **** 	}
  53:Drivers/display.h **** 
  54:Drivers/display.h **** 	void set_row_address(uint8_t a, uint8_t b) {
  55:Drivers/display.h **** 		sendCommand(0x75, a, b);
  56:Drivers/display.h **** 	}
  57:Drivers/display.h **** 
  58:Drivers/display.h **** 	void enable_write() {
  59:Drivers/display.h **** 		sendCommand(0x5C);
  60:Drivers/display.h **** 	}
  61:Drivers/display.h **** 
  62:Drivers/display.h **** 	void unlock_dma() {
  63:Drivers/display.h **** 		SPI2->CR2 &= ~SPI_CR2_TXDMAEN;
  64:Drivers/display.h **** 		DMA1_Stream4->CR &= ~DMA_SxCR_EN;
  65:Drivers/display.h **** 		dma_busy_ = false;
  66:Drivers/display.h **** 	}
  67:Drivers/display.h **** 
  68:Drivers/display.h **** 	volatile bool dma_busy() {
 1686              		.loc 5 68 16 view .LVU598
 1687              	.LBB390:
  69:Drivers/display.h **** 		return dma_busy_;
 1688              		.loc 5 69 3 view .LVU599
 1689              		.loc 5 69 10 is_stmt 0 view .LVU600
 1690 0004 6378     		ldrb	r3, [r4, #1]	@ zero_extendqisi2
 1691              	.LBE390:
 1692              	.LBE389:
 1693              		.loc 1 109 25 view .LVU601
 1694 0006 03F0FF02 		and	r2, r3, #255
 1695 000a 002B     		cmp	r3, #0
 1696 000c FAD1     		bne	.L108
 110:Src/Ui/ui.cpp **** 	display_interval = 0;
 1697              		.loc 1 110 2 is_stmt 1 view .LVU602
 1698 000e 5849     		ldr	r1, .L164+4
 1699              		.loc 1 110 19 is_stmt 0 view .LVU603
 1700 0010 4260     		str	r2, [r0, #4]
ARM GAS  /var/folders/84/_x1cyy_j36g486tldtwl37280000gn/T//ccy6KN4R.s 			page 44


 111:Src/Ui/ui.cpp **** 	canvas.buffer.clear();
 1701              		.loc 1 111 2 is_stmt 1 view .LVU604
 1702              	.LVL146:
 1703              	.LBB391:
 1704              	.LBI391:
 1705              		.file 6 "Src/Ui/frameBuffer.h"
   1:Src/Ui/frameBuffer.h **** #ifndef FrameBuffer_h
   2:Src/Ui/frameBuffer.h **** #define FrameBuffer_h
   3:Src/Ui/frameBuffer.h **** 
   4:Src/Ui/frameBuffer.h **** #include "stmf4lib.h"
   5:Src/Ui/frameBuffer.h **** 
   6:Src/Ui/frameBuffer.h **** // 4 bit grayscale buffer
   7:Src/Ui/frameBuffer.h **** 
   8:Src/Ui/frameBuffer.h **** template <const uint16_t kWidth, const uint16_t kHeight>
   9:Src/Ui/frameBuffer.h **** class FrameBuffer {
  10:Src/Ui/frameBuffer.h **** 
  11:Src/Ui/frameBuffer.h **** public:
  12:Src/Ui/frameBuffer.h **** 
  13:Src/Ui/frameBuffer.h **** 	inline bool inside(int x, int y) {
  14:Src/Ui/frameBuffer.h **** 		return (x >= 0 && x < kWidth) && (y >= 0 && y < kHeight);
  15:Src/Ui/frameBuffer.h **** 	}
  16:Src/Ui/frameBuffer.h **** 
  17:Src/Ui/frameBuffer.h **** 	inline void clear() {
 1706              		.loc 6 17 14 view .LVU605
 1707              	.LBB392:
  18:Src/Ui/frameBuffer.h **** 		int i = size_;
  19:Src/Ui/frameBuffer.h **** 		while (i--) {
 1708              		.loc 6 19 3 view .LVU606
 1709              		.loc 6 19 3 is_stmt 0 view .LVU607
 1710 0012 A1F50055 		sub	r5, r1, #8192
 1711              	.LVL147:
 1712              	.L109:
  20:Src/Ui/frameBuffer.h **** 			data_[i] = 0x00;
 1713              		.loc 6 20 4 view .LVU608
 1714 0016 0020     		movs	r0, #0
 1715 0018 01F8010C 		strb	r0, [r1, #-1]
  19:Src/Ui/frameBuffer.h **** 			data_[i] = 0x00;
 1716              		.loc 6 19 3 is_stmt 1 view .LVU609
 1717              		.loc 6 20 4 is_stmt 0 view .LVU610
 1718 001c 01F8020C 		strb	r0, [r1, #-2]
  19:Src/Ui/frameBuffer.h **** 			data_[i] = 0x00;
 1719              		.loc 6 19 3 is_stmt 1 view .LVU611
 1720              		.loc 6 20 4 is_stmt 0 view .LVU612
 1721 0020 01F8030C 		strb	r0, [r1, #-3]
  19:Src/Ui/frameBuffer.h **** 			data_[i] = 0x00;
 1722              		.loc 6 19 3 is_stmt 1 view .LVU613
 1723              		.loc 6 20 4 is_stmt 0 view .LVU614
 1724 0024 01F8040C 		strb	r0, [r1, #-4]
  19:Src/Ui/frameBuffer.h **** 			data_[i] = 0x00;
 1725              		.loc 6 19 3 is_stmt 1 view .LVU615
 1726              		.loc 6 20 4 is_stmt 0 view .LVU616
 1727 0028 01F8050C 		strb	r0, [r1, #-5]
  19:Src/Ui/frameBuffer.h **** 			data_[i] = 0x00;
 1728              		.loc 6 19 3 is_stmt 1 view .LVU617
 1729              		.loc 6 20 4 is_stmt 0 view .LVU618
 1730 002c 01F8060C 		strb	r0, [r1, #-6]
  19:Src/Ui/frameBuffer.h **** 			data_[i] = 0x00;
ARM GAS  /var/folders/84/_x1cyy_j36g486tldtwl37280000gn/T//ccy6KN4R.s 			page 45


 1731              		.loc 6 19 3 is_stmt 1 view .LVU619
 1732              		.loc 6 20 4 is_stmt 0 view .LVU620
 1733 0030 01F8070C 		strb	r0, [r1, #-7]
  19:Src/Ui/frameBuffer.h **** 			data_[i] = 0x00;
 1734              		.loc 6 19 3 is_stmt 1 view .LVU621
 1735              		.loc 6 20 4 is_stmt 0 view .LVU622
 1736 0034 01F8080D 		strb	r0, [r1, #-8]!
  19:Src/Ui/frameBuffer.h **** 			data_[i] = 0x00;
 1737              		.loc 6 19 3 is_stmt 1 view .LVU623
 1738              	.LVL148:
  19:Src/Ui/frameBuffer.h **** 			data_[i] = 0x00;
 1739              		.loc 6 19 3 is_stmt 0 view .LVU624
 1740 0038 A942     		cmp	r1, r5
 1741 003a ECD1     		bne	.L109
 1742              	.LVL149:
  19:Src/Ui/frameBuffer.h **** 			data_[i] = 0x00;
 1743              		.loc 6 19 3 view .LVU625
 1744              	.LBE392:
 1745              	.LBE391:
 112:Src/Ui/ui.cpp **** 	pages.drawDisplay();
 1746              		.loc 1 112 2 is_stmt 1 view .LVU626
 1747              		.loc 1 112 19 is_stmt 0 view .LVU627
 1748 003c 4D48     		ldr	r0, .L164+8
 1749 003e FFF7FEFF 		bl	_ZN5Pages11drawDisplayEv
 1750              	.LVL150:
 113:Src/Ui/ui.cpp **** 	display.sendBuffer(canvas.buffer.data(), canvas.buffer.size());
 1751              		.loc 1 113 2 is_stmt 1 view .LVU628
 1752              	.LBB393:
 1753              	.LBI393:
  21:Src/Ui/frameBuffer.h **** 		}
  22:Src/Ui/frameBuffer.h **** 	}
  23:Src/Ui/frameBuffer.h **** 
  24:Src/Ui/frameBuffer.h **** 	inline void write(int x, int y, uint8_t value) {
  25:Src/Ui/frameBuffer.h **** 		int index = (x / 2) + ((kWidth / 2) * y);
  26:Src/Ui/frameBuffer.h **** 
  27:Src/Ui/frameBuffer.h **** 		if (x & 1) {
  28:Src/Ui/frameBuffer.h **** 			data_[index] &= ~0x0F;
  29:Src/Ui/frameBuffer.h **** 			data_[index] |= (value & 0x0F);
  30:Src/Ui/frameBuffer.h **** 		} else {
  31:Src/Ui/frameBuffer.h **** 			data_[index] &= ~0xF0;
  32:Src/Ui/frameBuffer.h **** 			data_[index] |= (value << 4);
  33:Src/Ui/frameBuffer.h **** 		}
  34:Src/Ui/frameBuffer.h **** 	}
  35:Src/Ui/frameBuffer.h **** 
  36:Src/Ui/frameBuffer.h **** 	inline uint8_t read(int x, int y) {
  37:Src/Ui/frameBuffer.h **** 		int index = (x / 2) + ((kWidth / 2) * y);
  38:Src/Ui/frameBuffer.h **** 
  39:Src/Ui/frameBuffer.h **** 		if (x & 1) {
  40:Src/Ui/frameBuffer.h **** 			return data_[index] & 0x0F;
  41:Src/Ui/frameBuffer.h **** 		} else {
  42:Src/Ui/frameBuffer.h **** 			return (data_[index] & 0xF0) >> 4;
  43:Src/Ui/frameBuffer.h **** 		}
  44:Src/Ui/frameBuffer.h **** 	}
  45:Src/Ui/frameBuffer.h **** 
  46:Src/Ui/frameBuffer.h **** 	const int size() { return size_; }
  47:Src/Ui/frameBuffer.h **** 	uint8_t *data() { return data_; }
 1754              		.loc 6 47 11 view .LVU629
ARM GAS  /var/folders/84/_x1cyy_j36g486tldtwl37280000gn/T//ccy6KN4R.s 			page 46


 1755              		.loc 6 47 11 is_stmt 0 view .LVU630
 1756              	.LBE393:
 1757              	.LBB394:
 1758              	.LBI394:
  70:Drivers/display.h **** 	}
  71:Drivers/display.h **** 
  72:Drivers/display.h **** 	void sendBuffer(uint8_t* data, uint32_t size) {
 1759              		.loc 5 72 7 is_stmt 1 view .LVU631
 1760              	.L110:
 1761              	.LBB395:
  73:Drivers/display.h **** 		while (dma_busy_) {};
 1762              		.loc 5 73 3 view .LVU632
 1763              		.loc 5 73 10 view .LVU633
 1764 0042 6678     		ldrb	r6, [r4, #1]	@ zero_extendqisi2
 1765 0044 002E     		cmp	r6, #0
 1766 0046 FCD1     		bne	.L110
 1767              		.loc 5 73 23 view .LVU634
  74:Drivers/display.h **** 		dummy = SPI2->DR;
 1768              		.loc 5 74 3 view .LVU635
 1769              		.loc 5 74 17 is_stmt 0 view .LVU636
 1770 0048 4B4B     		ldr	r3, .L164+12
 1771              	.LBB396:
 1772              	.LBB397:
 1773              	.LBB398:
 1774              	.LBB399:
 1775              	.LBB400:
  26:Drivers/display.h **** 	}
 1776              		.loc 5 26 15 view .LVU637
 1777 004a 4C4A     		ldr	r2, .L164+16
 1778              	.LBE400:
 1779              	.LBE399:
 1780              	.LBE398:
 1781              	.LBE397:
 1782              	.LBE396:
 1783              		.loc 5 74 17 view .LVU638
 1784 004c D868     		ldr	r0, [r3, #12]
 1785              	.LBB462:
 1786              	.LBB452:
 1787              	.LBB411:
 1788              	.LBB403:
 1789              	.LBB401:
  26:Drivers/display.h **** 	}
 1790              		.loc 5 26 15 view .LVU639
 1791 004e 4FF40001 		mov	r1, #8388608
 1792              	.LBE401:
 1793              	.LBE403:
 1794              	.LBE411:
 1795              	.LBE452:
 1796              	.LBE462:
 1797              		.loc 5 74 9 view .LVU640
 1798 0052 C6B2     		uxtb	r6, r0
 1799 0054 2670     		strb	r6, [r4]
  75:Drivers/display.h **** 
  76:Drivers/display.h **** 		set_col_address(0x1C, 0x5B);
 1800              		.loc 5 76 3 is_stmt 1 view .LVU641
 1801              	.LVL151:
 1802              	.LBB463:
ARM GAS  /var/folders/84/_x1cyy_j36g486tldtwl37280000gn/T//ccy6KN4R.s 			page 47


 1803              	.LBI396:
  50:Drivers/display.h **** 		sendCommand(0x15, a, b);
 1804              		.loc 5 50 7 view .LVU642
 1805              	.LBE463:
 1806              	.LBE395:
 1807              	.LBE394:
  51:Drivers/display.h **** 	}
 1808              		.loc 5 51 3 view .LVU643
 1809              	.LBB597:
 1810              	.LBB581:
 1811              	.LBB464:
 1812              	.LBB453:
 1813              	.LBI397:
  44:Drivers/display.h **** 		sendCommand(cmd);
 1814              		.loc 5 44 7 view .LVU644
 1815              	.LBE453:
 1816              	.LBE464:
 1817              	.LBE581:
 1818              	.LBE597:
  45:Drivers/display.h **** 		sendData(data_a);
 1819              		.loc 5 45 3 view .LVU645
 1820              	.LBB598:
 1821              	.LBB582:
 1822              	.LBB465:
 1823              	.LBB454:
 1824              	.LBB412:
 1825              	.LBI398:
  29:Drivers/display.h **** 		cd_low();
 1826              		.loc 5 29 7 view .LVU646
 1827              	.LBE412:
 1828              	.LBE454:
 1829              	.LBE465:
 1830              	.LBE582:
 1831              	.LBE598:
  30:Drivers/display.h **** 		spi_write(cmd);
 1832              		.loc 5 30 3 view .LVU647
 1833              	.LBB599:
 1834              	.LBB583:
 1835              	.LBB466:
 1836              	.LBB455:
 1837              	.LBB413:
 1838              	.LBB404:
 1839              	.LBI399:
  25:Drivers/display.h **** 		GPIOD->BSRR = GPIO_PIN_7 << 16;
 1840              		.loc 5 25 14 view .LVU648
 1841              	.LBB402:
  26:Drivers/display.h **** 	}
 1842              		.loc 5 26 3 view .LVU649
  26:Drivers/display.h **** 	}
 1843              		.loc 5 26 15 is_stmt 0 view .LVU650
 1844 0056 9161     		str	r1, [r2, #24]
 1845              	.L111:
 1846              	.LBE402:
 1847              	.LBE404:
 1848              	.LBB405:
 1849              	.LBB406:
  77:Drivers/display.h **** 		set_row_address(0x00, 0x3F);
ARM GAS  /var/folders/84/_x1cyy_j36g486tldtwl37280000gn/T//ccy6KN4R.s 			page 48


  78:Drivers/display.h **** 		enable_write();
  79:Drivers/display.h **** 
  80:Drivers/display.h **** 		cd_high();
  81:Drivers/display.h **** 
  82:Drivers/display.h **** 		DMA1->HIFCR |= DMA_HIFCR_CTCIF4 | DMA_HIFCR_CHTIF4 | DMA_HIFCR_CTEIF4 | DMA_HIFCR_CDMEIF4 | DMA_H
  83:Drivers/display.h **** 		DMA1_Stream4->PAR = reinterpret_cast<uint32_t>(&SPI2->DR);
  84:Drivers/display.h **** 		DMA1_Stream4->M0AR = reinterpret_cast<uint32_t>(&data[0]);
  85:Drivers/display.h **** 		DMA1_Stream4->NDTR = size;
  86:Drivers/display.h **** 		DMA1_Stream4->CR |= DMA_SxCR_EN;
  87:Drivers/display.h **** 		SPI2->CR2 |= SPI_CR2_TXDMAEN;
  88:Drivers/display.h **** 
  89:Drivers/display.h **** 		dma_busy_ = true;
  90:Drivers/display.h **** 	}
  91:Drivers/display.h **** 
  92:Drivers/display.h **** 
  93:Drivers/display.h **** private:
  94:Drivers/display.h **** 	volatile uint8_t dummy;
  95:Drivers/display.h **** 	volatile bool dma_busy_;
  96:Drivers/display.h **** 
  97:Drivers/display.h **** 
  98:Drivers/display.h **** 	void spi_write(uint8_t data) {
  99:Drivers/display.h **** 		while (!(SPI2->SR & SPI_FLAG_TXE));
 1850              		.loc 5 99 3 is_stmt 1 view .LVU651
 1851              		.loc 5 99 10 view .LVU652
 1852              		.loc 5 99 18 is_stmt 0 view .LVU653
 1853 0058 474B     		ldr	r3, .L164+12
 1854 005a 9A68     		ldr	r2, [r3, #8]
 1855              		.loc 5 99 10 view .LVU654
 1856 005c 9107     		lsls	r1, r2, #30
 1857 005e FBD5     		bpl	.L111
 100:Drivers/display.h **** 		SPI2->DR = data;
 1858              		.loc 5 100 3 is_stmt 1 view .LVU655
 1859              		.loc 5 100 12 is_stmt 0 view .LVU656
 1860 0060 1520     		movs	r0, #21
 1861 0062 D860     		str	r0, [r3, #12]
 1862              	.L112:
 101:Drivers/display.h **** 
 102:Drivers/display.h **** 		while (!(SPI2->SR & SPI_FLAG_RXNE));
 1863              		.loc 5 102 3 is_stmt 1 view .LVU657
 1864              		.loc 5 102 10 view .LVU658
 1865              		.loc 5 102 18 is_stmt 0 view .LVU659
 1866 0064 4449     		ldr	r1, .L164+12
 1867 0066 8E68     		ldr	r6, [r1, #8]
 1868              		.loc 5 102 10 view .LVU660
 1869 0068 F207     		lsls	r2, r6, #31
 1870 006a FBD5     		bpl	.L112
 103:Drivers/display.h **** 		dummy = SPI2->DR;
 1871              		.loc 5 103 3 is_stmt 1 view .LVU661
 1872              		.loc 5 103 17 is_stmt 0 view .LVU662
 1873 006c CB68     		ldr	r3, [r1, #12]
 1874              	.LBE406:
 1875              	.LBE405:
 1876              	.LBE413:
 1877              	.LBB414:
 1878              	.LBB415:
 1879              	.LBB416:
  22:Drivers/display.h **** 	}
ARM GAS  /var/folders/84/_x1cyy_j36g486tldtwl37280000gn/T//ccy6KN4R.s 			page 49


 1880              		.loc 5 22 15 view .LVU663
 1881 006e 434A     		ldr	r2, .L164+16
 1882              	.LBE416:
 1883              	.LBE415:
 1884              	.LBE414:
 1885              	.LBB427:
 1886              	.LBB409:
 1887              	.LBB407:
 1888              		.loc 5 103 9 view .LVU664
 1889 0070 D8B2     		uxtb	r0, r3
 1890              	.LBE407:
 1891              	.LBE409:
 1892              	.LBE427:
 1893              	.LBB428:
 1894              	.LBB419:
 1895              	.LBB417:
  22:Drivers/display.h **** 	}
 1896              		.loc 5 22 15 view .LVU665
 1897 0072 8021     		movs	r1, #128
 1898              	.LBE417:
 1899              	.LBE419:
 1900              	.LBE428:
 1901              	.LBB429:
 1902              	.LBB410:
 1903              	.LBB408:
 1904              		.loc 5 103 9 view .LVU666
 1905 0074 2070     		strb	r0, [r4]
 1906              	.LVL152:
 1907              		.loc 5 103 9 view .LVU667
 1908              	.LBE408:
 1909              	.LBE410:
 1910              	.LBE429:
 1911              	.LBE455:
 1912              	.LBE466:
 1913              	.LBE583:
 1914              	.LBE599:
  46:Drivers/display.h **** 		sendData(data_b);
 1915              		.loc 5 46 3 is_stmt 1 view .LVU668
 1916              	.LBB600:
 1917              	.LBB584:
 1918              	.LBB467:
 1919              	.LBB456:
 1920              	.LBB430:
 1921              	.LBI414:
  34:Drivers/display.h **** 		cd_high();
 1922              		.loc 5 34 7 view .LVU669
 1923              	.LBE430:
 1924              	.LBE456:
 1925              	.LBE467:
 1926              	.LBE584:
 1927              	.LBE600:
  35:Drivers/display.h **** 		spi_write(data);
 1928              		.loc 5 35 3 view .LVU670
 1929              	.LBB601:
 1930              	.LBB585:
 1931              	.LBB468:
 1932              	.LBB457:
ARM GAS  /var/folders/84/_x1cyy_j36g486tldtwl37280000gn/T//ccy6KN4R.s 			page 50


 1933              	.LBB431:
 1934              	.LBB420:
 1935              	.LBI415:
  21:Drivers/display.h **** 		GPIOD->BSRR = GPIO_PIN_7;
 1936              		.loc 5 21 14 view .LVU671
 1937              	.LBB418:
  22:Drivers/display.h **** 	}
 1938              		.loc 5 22 3 view .LVU672
  22:Drivers/display.h **** 	}
 1939              		.loc 5 22 15 is_stmt 0 view .LVU673
 1940 0076 9161     		str	r1, [r2, #24]
 1941              	.L113:
 1942              	.LBE418:
 1943              	.LBE420:
 1944              	.LBB421:
 1945              	.LBB422:
  99:Drivers/display.h **** 		SPI2->DR = data;
 1946              		.loc 5 99 3 is_stmt 1 view .LVU674
  99:Drivers/display.h **** 		SPI2->DR = data;
 1947              		.loc 5 99 10 view .LVU675
  99:Drivers/display.h **** 		SPI2->DR = data;
 1948              		.loc 5 99 18 is_stmt 0 view .LVU676
 1949 0078 3F4B     		ldr	r3, .L164+12
 1950 007a 9E68     		ldr	r6, [r3, #8]
  99:Drivers/display.h **** 		SPI2->DR = data;
 1951              		.loc 5 99 10 view .LVU677
 1952 007c B607     		lsls	r6, r6, #30
 1953 007e FBD5     		bpl	.L113
 100:Drivers/display.h **** 
 1954              		.loc 5 100 3 is_stmt 1 view .LVU678
 100:Drivers/display.h **** 
 1955              		.loc 5 100 12 is_stmt 0 view .LVU679
 1956 0080 1C22     		movs	r2, #28
 1957 0082 DA60     		str	r2, [r3, #12]
 1958              	.L114:
 102:Drivers/display.h **** 		dummy = SPI2->DR;
 1959              		.loc 5 102 3 is_stmt 1 view .LVU680
 102:Drivers/display.h **** 		dummy = SPI2->DR;
 1960              		.loc 5 102 10 view .LVU681
 102:Drivers/display.h **** 		dummy = SPI2->DR;
 1961              		.loc 5 102 18 is_stmt 0 view .LVU682
 1962 0084 3C49     		ldr	r1, .L164+12
 1963 0086 8868     		ldr	r0, [r1, #8]
 102:Drivers/display.h **** 		dummy = SPI2->DR;
 1964              		.loc 5 102 10 view .LVU683
 1965 0088 C007     		lsls	r0, r0, #31
 1966 008a FBD5     		bpl	.L114
 1967              		.loc 5 103 3 is_stmt 1 view .LVU684
 1968              		.loc 5 103 17 is_stmt 0 view .LVU685
 1969 008c CB68     		ldr	r3, [r1, #12]
 1970              	.LBE422:
 1971              	.LBE421:
 1972              	.LBE431:
 1973              	.LBB432:
 1974              	.LBB433:
 1975              	.LBB434:
  22:Drivers/display.h **** 	}
ARM GAS  /var/folders/84/_x1cyy_j36g486tldtwl37280000gn/T//ccy6KN4R.s 			page 51


 1976              		.loc 5 22 15 view .LVU686
 1977 008e 3B4E     		ldr	r6, .L164+16
 1978              	.LBE434:
 1979              	.LBE433:
 1980              	.LBE432:
 1981              	.LBB445:
 1982              	.LBB425:
 1983              	.LBB423:
 1984              		.loc 5 103 9 view .LVU687
 1985 0090 DAB2     		uxtb	r2, r3
 1986              	.LBE423:
 1987              	.LBE425:
 1988              	.LBE445:
 1989              	.LBB446:
 1990              	.LBB437:
 1991              	.LBB435:
  22:Drivers/display.h **** 	}
 1992              		.loc 5 22 15 view .LVU688
 1993 0092 8021     		movs	r1, #128
 1994              	.LBE435:
 1995              	.LBE437:
 1996              	.LBE446:
 1997              	.LBB447:
 1998              	.LBB426:
 1999              	.LBB424:
 2000              		.loc 5 103 9 view .LVU689
 2001 0094 2270     		strb	r2, [r4]
 2002              	.LVL153:
 2003              		.loc 5 103 9 view .LVU690
 2004              	.LBE424:
 2005              	.LBE426:
 2006              	.LBE447:
 2007              	.LBE457:
 2008              	.LBE468:
 2009              	.LBE585:
 2010              	.LBE601:
  47:Drivers/display.h **** 	}
 2011              		.loc 5 47 3 is_stmt 1 view .LVU691
 2012              	.LBB602:
 2013              	.LBB586:
 2014              	.LBB469:
 2015              	.LBB458:
 2016              	.LBB448:
 2017              	.LBI432:
  34:Drivers/display.h **** 		cd_high();
 2018              		.loc 5 34 7 view .LVU692
 2019              	.LBE448:
 2020              	.LBE458:
 2021              	.LBE469:
 2022              	.LBE586:
 2023              	.LBE602:
  35:Drivers/display.h **** 		spi_write(data);
 2024              		.loc 5 35 3 view .LVU693
 2025              	.LBB603:
 2026              	.LBB587:
 2027              	.LBB470:
 2028              	.LBB459:
ARM GAS  /var/folders/84/_x1cyy_j36g486tldtwl37280000gn/T//ccy6KN4R.s 			page 52


 2029              	.LBB449:
 2030              	.LBB438:
 2031              	.LBI433:
  21:Drivers/display.h **** 		GPIOD->BSRR = GPIO_PIN_7;
 2032              		.loc 5 21 14 view .LVU694
 2033              	.LBB436:
  22:Drivers/display.h **** 	}
 2034              		.loc 5 22 3 view .LVU695
  22:Drivers/display.h **** 	}
 2035              		.loc 5 22 15 is_stmt 0 view .LVU696
 2036 0096 B161     		str	r1, [r6, #24]
 2037              	.L115:
 2038              	.LBE436:
 2039              	.LBE438:
 2040              	.LBB439:
 2041              	.LBB440:
  99:Drivers/display.h **** 		SPI2->DR = data;
 2042              		.loc 5 99 3 is_stmt 1 view .LVU697
  99:Drivers/display.h **** 		SPI2->DR = data;
 2043              		.loc 5 99 10 view .LVU698
  99:Drivers/display.h **** 		SPI2->DR = data;
 2044              		.loc 5 99 18 is_stmt 0 view .LVU699
 2045 0098 3748     		ldr	r0, .L164+12
 2046 009a 8368     		ldr	r3, [r0, #8]
  99:Drivers/display.h **** 		SPI2->DR = data;
 2047              		.loc 5 99 10 view .LVU700
 2048 009c 9907     		lsls	r1, r3, #30
 2049 009e FBD5     		bpl	.L115
 100:Drivers/display.h **** 
 2050              		.loc 5 100 3 is_stmt 1 view .LVU701
 100:Drivers/display.h **** 
 2051              		.loc 5 100 12 is_stmt 0 view .LVU702
 2052 00a0 5B26     		movs	r6, #91
 2053 00a2 C660     		str	r6, [r0, #12]
 2054              	.L116:
 102:Drivers/display.h **** 		dummy = SPI2->DR;
 2055              		.loc 5 102 3 is_stmt 1 view .LVU703
 102:Drivers/display.h **** 		dummy = SPI2->DR;
 2056              		.loc 5 102 10 view .LVU704
 102:Drivers/display.h **** 		dummy = SPI2->DR;
 2057              		.loc 5 102 18 is_stmt 0 view .LVU705
 2058 00a4 3449     		ldr	r1, .L164+12
 2059 00a6 8A68     		ldr	r2, [r1, #8]
 102:Drivers/display.h **** 		dummy = SPI2->DR;
 2060              		.loc 5 102 10 view .LVU706
 2061 00a8 D207     		lsls	r2, r2, #31
 2062 00aa FBD5     		bpl	.L116
 2063              		.loc 5 103 3 is_stmt 1 view .LVU707
 2064              		.loc 5 103 17 is_stmt 0 view .LVU708
 2065 00ac C868     		ldr	r0, [r1, #12]
 2066              	.LBE440:
 2067              	.LBE439:
 2068              	.LBE449:
 2069              	.LBE459:
 2070              	.LBE470:
 2071              	.LBB471:
 2072              	.LBB472:
ARM GAS  /var/folders/84/_x1cyy_j36g486tldtwl37280000gn/T//ccy6KN4R.s 			page 53


 2073              	.LBB473:
 2074              	.LBB474:
 2075              	.LBB475:
  26:Drivers/display.h **** 	}
 2076              		.loc 5 26 15 view .LVU709
 2077 00ae 334E     		ldr	r6, .L164+16
 2078              	.LBE475:
 2079              	.LBE474:
 2080              	.LBE473:
 2081              	.LBE472:
 2082              	.LBE471:
 2083              	.LBB537:
 2084              	.LBB460:
 2085              	.LBB450:
 2086              	.LBB443:
 2087              	.LBB441:
 2088              		.loc 5 103 9 view .LVU710
 2089 00b0 C3B2     		uxtb	r3, r0
 2090              	.LBE441:
 2091              	.LBE443:
 2092              	.LBE450:
 2093              	.LBE460:
 2094              	.LBE537:
 2095              	.LBB538:
 2096              	.LBB527:
 2097              	.LBB486:
 2098              	.LBB478:
 2099              	.LBB476:
  26:Drivers/display.h **** 	}
 2100              		.loc 5 26 15 view .LVU711
 2101 00b2 4FF40001 		mov	r1, #8388608
 2102              	.LBE476:
 2103              	.LBE478:
 2104              	.LBE486:
 2105              	.LBE527:
 2106              	.LBE538:
 2107              	.LBB539:
 2108              	.LBB461:
 2109              	.LBB451:
 2110              	.LBB444:
 2111              	.LBB442:
 2112              		.loc 5 103 9 view .LVU712
 2113 00b6 2370     		strb	r3, [r4]
 2114              	.LVL154:
 2115              		.loc 5 103 9 view .LVU713
 2116              	.LBE442:
 2117              	.LBE444:
 2118              	.LBE451:
 2119              	.LBE461:
 2120              	.LBE539:
  77:Drivers/display.h **** 		enable_write();
 2121              		.loc 5 77 3 is_stmt 1 view .LVU714
 2122              	.LBB540:
 2123              	.LBI471:
  54:Drivers/display.h **** 		sendCommand(0x75, a, b);
 2124              		.loc 5 54 7 view .LVU715
 2125              	.LBE540:
ARM GAS  /var/folders/84/_x1cyy_j36g486tldtwl37280000gn/T//ccy6KN4R.s 			page 54


 2126              	.LBE587:
 2127              	.LBE603:
  55:Drivers/display.h **** 	}
 2128              		.loc 5 55 3 view .LVU716
 2129              	.LBB604:
 2130              	.LBB588:
 2131              	.LBB541:
 2132              	.LBB528:
 2133              	.LBI472:
  44:Drivers/display.h **** 		sendCommand(cmd);
 2134              		.loc 5 44 7 view .LVU717
 2135              	.LBE528:
 2136              	.LBE541:
 2137              	.LBE588:
 2138              	.LBE604:
  45:Drivers/display.h **** 		sendData(data_a);
 2139              		.loc 5 45 3 view .LVU718
 2140              	.LBB605:
 2141              	.LBB589:
 2142              	.LBB542:
 2143              	.LBB529:
 2144              	.LBB487:
 2145              	.LBI473:
  29:Drivers/display.h **** 		cd_low();
 2146              		.loc 5 29 7 view .LVU719
 2147              	.LBE487:
 2148              	.LBE529:
 2149              	.LBE542:
 2150              	.LBE589:
 2151              	.LBE605:
  30:Drivers/display.h **** 		spi_write(cmd);
 2152              		.loc 5 30 3 view .LVU720
 2153              	.LBB606:
 2154              	.LBB590:
 2155              	.LBB543:
 2156              	.LBB530:
 2157              	.LBB488:
 2158              	.LBB479:
 2159              	.LBI474:
  25:Drivers/display.h **** 		GPIOD->BSRR = GPIO_PIN_7 << 16;
 2160              		.loc 5 25 14 view .LVU721
 2161              	.LBB477:
  26:Drivers/display.h **** 	}
 2162              		.loc 5 26 3 view .LVU722
  26:Drivers/display.h **** 	}
 2163              		.loc 5 26 15 is_stmt 0 view .LVU723
 2164 00b8 B161     		str	r1, [r6, #24]
 2165              	.L117:
 2166              	.LBE477:
 2167              	.LBE479:
 2168              	.LBB480:
 2169              	.LBB481:
  99:Drivers/display.h **** 		SPI2->DR = data;
 2170              		.loc 5 99 3 is_stmt 1 view .LVU724
  99:Drivers/display.h **** 		SPI2->DR = data;
 2171              		.loc 5 99 10 view .LVU725
  99:Drivers/display.h **** 		SPI2->DR = data;
ARM GAS  /var/folders/84/_x1cyy_j36g486tldtwl37280000gn/T//ccy6KN4R.s 			page 55


 2172              		.loc 5 99 18 is_stmt 0 view .LVU726
 2173 00ba 2F48     		ldr	r0, .L164+12
 2174 00bc 8268     		ldr	r2, [r0, #8]
  99:Drivers/display.h **** 		SPI2->DR = data;
 2175              		.loc 5 99 10 view .LVU727
 2176 00be 9607     		lsls	r6, r2, #30
 2177 00c0 FBD5     		bpl	.L117
 100:Drivers/display.h **** 
 2178              		.loc 5 100 3 is_stmt 1 view .LVU728
 100:Drivers/display.h **** 
 2179              		.loc 5 100 12 is_stmt 0 view .LVU729
 2180 00c2 7526     		movs	r6, #117
 2181 00c4 C660     		str	r6, [r0, #12]
 2182              	.L118:
 102:Drivers/display.h **** 		dummy = SPI2->DR;
 2183              		.loc 5 102 3 is_stmt 1 view .LVU730
 102:Drivers/display.h **** 		dummy = SPI2->DR;
 2184              		.loc 5 102 10 view .LVU731
 102:Drivers/display.h **** 		dummy = SPI2->DR;
 2185              		.loc 5 102 18 is_stmt 0 view .LVU732
 2186 00c6 2C4B     		ldr	r3, .L164+12
 2187 00c8 9968     		ldr	r1, [r3, #8]
 102:Drivers/display.h **** 		dummy = SPI2->DR;
 2188              		.loc 5 102 10 view .LVU733
 2189 00ca C807     		lsls	r0, r1, #31
 2190 00cc FBD5     		bpl	.L118
 2191              		.loc 5 103 3 is_stmt 1 view .LVU734
 2192              		.loc 5 103 17 is_stmt 0 view .LVU735
 2193 00ce D868     		ldr	r0, [r3, #12]
 2194              	.LBE481:
 2195              	.LBE480:
 2196              	.LBE488:
 2197              	.LBB489:
 2198              	.LBB490:
 2199              	.LBB491:
  22:Drivers/display.h **** 	}
 2200              		.loc 5 22 15 view .LVU736
 2201 00d0 2A4A     		ldr	r2, .L164+16
 2202              	.LBE491:
 2203              	.LBE490:
 2204              	.LBE489:
 2205              	.LBB502:
 2206              	.LBB484:
 2207              	.LBB482:
 2208              		.loc 5 103 9 view .LVU737
 2209 00d2 C6B2     		uxtb	r6, r0
 2210              	.LBE482:
 2211              	.LBE484:
 2212              	.LBE502:
 2213              	.LBB503:
 2214              	.LBB494:
 2215              	.LBB492:
  22:Drivers/display.h **** 	}
 2216              		.loc 5 22 15 view .LVU738
 2217 00d4 8023     		movs	r3, #128
 2218              	.LBE492:
 2219              	.LBE494:
ARM GAS  /var/folders/84/_x1cyy_j36g486tldtwl37280000gn/T//ccy6KN4R.s 			page 56


 2220              	.LBE503:
 2221              	.LBB504:
 2222              	.LBB485:
 2223              	.LBB483:
 2224              		.loc 5 103 9 view .LVU739
 2225 00d6 2670     		strb	r6, [r4]
 2226              	.LVL155:
 2227              		.loc 5 103 9 view .LVU740
 2228              	.LBE483:
 2229              	.LBE485:
 2230              	.LBE504:
 2231              	.LBE530:
 2232              	.LBE543:
 2233              	.LBE590:
 2234              	.LBE606:
  46:Drivers/display.h **** 		sendData(data_b);
 2235              		.loc 5 46 3 is_stmt 1 view .LVU741
 2236              	.LBB607:
 2237              	.LBB591:
 2238              	.LBB544:
 2239              	.LBB531:
 2240              	.LBB505:
 2241              	.LBI489:
  34:Drivers/display.h **** 		cd_high();
 2242              		.loc 5 34 7 view .LVU742
 2243              	.LBE505:
 2244              	.LBE531:
 2245              	.LBE544:
 2246              	.LBE591:
 2247              	.LBE607:
  35:Drivers/display.h **** 		spi_write(data);
 2248              		.loc 5 35 3 view .LVU743
 2249              	.LBB608:
 2250              	.LBB592:
 2251              	.LBB545:
 2252              	.LBB532:
 2253              	.LBB506:
 2254              	.LBB495:
 2255              	.LBI490:
  21:Drivers/display.h **** 		GPIOD->BSRR = GPIO_PIN_7;
 2256              		.loc 5 21 14 view .LVU744
 2257              	.LBB493:
  22:Drivers/display.h **** 	}
 2258              		.loc 5 22 3 view .LVU745
  22:Drivers/display.h **** 	}
 2259              		.loc 5 22 15 is_stmt 0 view .LVU746
 2260 00d8 9361     		str	r3, [r2, #24]
 2261              	.L119:
 2262              	.LBE493:
 2263              	.LBE495:
 2264              	.LBB496:
 2265              	.LBB497:
  99:Drivers/display.h **** 		SPI2->DR = data;
 2266              		.loc 5 99 3 is_stmt 1 view .LVU747
  99:Drivers/display.h **** 		SPI2->DR = data;
 2267              		.loc 5 99 10 view .LVU748
  99:Drivers/display.h **** 		SPI2->DR = data;
ARM GAS  /var/folders/84/_x1cyy_j36g486tldtwl37280000gn/T//ccy6KN4R.s 			page 57


 2268              		.loc 5 99 18 is_stmt 0 view .LVU749
 2269 00da 2748     		ldr	r0, .L164+12
 2270 00dc 8168     		ldr	r1, [r0, #8]
  99:Drivers/display.h **** 		SPI2->DR = data;
 2271              		.loc 5 99 10 view .LVU750
 2272 00de 8907     		lsls	r1, r1, #30
 2273 00e0 FBD5     		bpl	.L119
 100:Drivers/display.h **** 
 2274              		.loc 5 100 3 is_stmt 1 view .LVU751
 100:Drivers/display.h **** 
 2275              		.loc 5 100 12 is_stmt 0 view .LVU752
 2276 00e2 0022     		movs	r2, #0
 2277 00e4 C260     		str	r2, [r0, #12]
 2278              	.L120:
 102:Drivers/display.h **** 		dummy = SPI2->DR;
 2279              		.loc 5 102 3 is_stmt 1 view .LVU753
 102:Drivers/display.h **** 		dummy = SPI2->DR;
 2280              		.loc 5 102 10 view .LVU754
 102:Drivers/display.h **** 		dummy = SPI2->DR;
 2281              		.loc 5 102 18 is_stmt 0 view .LVU755
 2282 00e6 244E     		ldr	r6, .L164+12
 2283 00e8 B368     		ldr	r3, [r6, #8]
 102:Drivers/display.h **** 		dummy = SPI2->DR;
 2284              		.loc 5 102 10 view .LVU756
 2285 00ea DA07     		lsls	r2, r3, #31
 2286 00ec FBD5     		bpl	.L120
 2287              		.loc 5 103 3 is_stmt 1 view .LVU757
 2288              		.loc 5 103 17 is_stmt 0 view .LVU758
 2289 00ee F068     		ldr	r0, [r6, #12]
 2290              	.LBE497:
 2291              	.LBE496:
 2292              	.LBE506:
 2293              	.LBB507:
 2294              	.LBB508:
 2295              	.LBB509:
  22:Drivers/display.h **** 	}
 2296              		.loc 5 22 15 view .LVU759
 2297 00f0 224A     		ldr	r2, .L164+16
 2298              	.LBE509:
 2299              	.LBE508:
 2300              	.LBE507:
 2301              	.LBB520:
 2302              	.LBB500:
 2303              	.LBB498:
 2304              		.loc 5 103 9 view .LVU760
 2305 00f2 C6B2     		uxtb	r6, r0
 2306              	.LBE498:
 2307              	.LBE500:
 2308              	.LBE520:
 2309              	.LBB521:
 2310              	.LBB512:
 2311              	.LBB510:
  22:Drivers/display.h **** 	}
 2312              		.loc 5 22 15 view .LVU761
 2313 00f4 8021     		movs	r1, #128
 2314              	.LBE510:
 2315              	.LBE512:
ARM GAS  /var/folders/84/_x1cyy_j36g486tldtwl37280000gn/T//ccy6KN4R.s 			page 58


 2316              	.LBE521:
 2317              	.LBB522:
 2318              	.LBB501:
 2319              	.LBB499:
 2320              		.loc 5 103 9 view .LVU762
 2321 00f6 2670     		strb	r6, [r4]
 2322              	.LVL156:
 2323              		.loc 5 103 9 view .LVU763
 2324              	.LBE499:
 2325              	.LBE501:
 2326              	.LBE522:
 2327              	.LBE532:
 2328              	.LBE545:
 2329              	.LBE592:
 2330              	.LBE608:
  47:Drivers/display.h **** 	}
 2331              		.loc 5 47 3 is_stmt 1 view .LVU764
 2332              	.LBB609:
 2333              	.LBB593:
 2334              	.LBB546:
 2335              	.LBB533:
 2336              	.LBB523:
 2337              	.LBI507:
  34:Drivers/display.h **** 		cd_high();
 2338              		.loc 5 34 7 view .LVU765
 2339              	.LBE523:
 2340              	.LBE533:
 2341              	.LBE546:
 2342              	.LBE593:
 2343              	.LBE609:
  35:Drivers/display.h **** 		spi_write(data);
 2344              		.loc 5 35 3 view .LVU766
 2345              	.LBB610:
 2346              	.LBB594:
 2347              	.LBB547:
 2348              	.LBB534:
 2349              	.LBB524:
 2350              	.LBB513:
 2351              	.LBI508:
  21:Drivers/display.h **** 		GPIOD->BSRR = GPIO_PIN_7;
 2352              		.loc 5 21 14 view .LVU767
 2353              	.LBB511:
  22:Drivers/display.h **** 	}
 2354              		.loc 5 22 3 view .LVU768
  22:Drivers/display.h **** 	}
 2355              		.loc 5 22 15 is_stmt 0 view .LVU769
 2356 00f8 9161     		str	r1, [r2, #24]
 2357              	.L121:
 2358              	.LBE511:
 2359              	.LBE513:
 2360              	.LBB514:
 2361              	.LBB515:
  99:Drivers/display.h **** 		SPI2->DR = data;
 2362              		.loc 5 99 3 is_stmt 1 view .LVU770
  99:Drivers/display.h **** 		SPI2->DR = data;
 2363              		.loc 5 99 10 view .LVU771
  99:Drivers/display.h **** 		SPI2->DR = data;
ARM GAS  /var/folders/84/_x1cyy_j36g486tldtwl37280000gn/T//ccy6KN4R.s 			page 59


 2364              		.loc 5 99 18 is_stmt 0 view .LVU772
 2365 00fa 1F4B     		ldr	r3, .L164+12
 2366 00fc 9868     		ldr	r0, [r3, #8]
  99:Drivers/display.h **** 		SPI2->DR = data;
 2367              		.loc 5 99 10 view .LVU773
 2368 00fe 8607     		lsls	r6, r0, #30
 2369 0100 FBD5     		bpl	.L121
 100:Drivers/display.h **** 
 2370              		.loc 5 100 3 is_stmt 1 view .LVU774
 100:Drivers/display.h **** 
 2371              		.loc 5 100 12 is_stmt 0 view .LVU775
 2372 0102 3F22     		movs	r2, #63
 2373 0104 DA60     		str	r2, [r3, #12]
 2374              	.L122:
 102:Drivers/display.h **** 		dummy = SPI2->DR;
 2375              		.loc 5 102 3 is_stmt 1 view .LVU776
 102:Drivers/display.h **** 		dummy = SPI2->DR;
 2376              		.loc 5 102 10 view .LVU777
 102:Drivers/display.h **** 		dummy = SPI2->DR;
 2377              		.loc 5 102 18 is_stmt 0 view .LVU778
 2378 0106 1C4E     		ldr	r6, .L164+12
 2379 0108 B168     		ldr	r1, [r6, #8]
 102:Drivers/display.h **** 		dummy = SPI2->DR;
 2380              		.loc 5 102 10 view .LVU779
 2381 010a C807     		lsls	r0, r1, #31
 2382 010c FBD5     		bpl	.L122
 2383              		.loc 5 103 3 is_stmt 1 view .LVU780
 2384              		.loc 5 103 17 is_stmt 0 view .LVU781
 2385 010e F368     		ldr	r3, [r6, #12]
 2386              	.LBE515:
 2387              	.LBE514:
 2388              	.LBE524:
 2389              	.LBE534:
 2390              	.LBE547:
 2391              	.LBB548:
 2392              	.LBB549:
 2393              	.LBB550:
 2394              	.LBB551:
  26:Drivers/display.h **** 	}
 2395              		.loc 5 26 15 view .LVU782
 2396 0110 1A48     		ldr	r0, .L164+16
 2397              	.LBE551:
 2398              	.LBE550:
 2399              	.LBE549:
 2400              	.LBE548:
 2401              	.LBB567:
 2402              	.LBB535:
 2403              	.LBB525:
 2404              	.LBB518:
 2405              	.LBB516:
 2406              		.loc 5 103 9 view .LVU783
 2407 0112 DAB2     		uxtb	r2, r3
 2408              	.LBE516:
 2409              	.LBE518:
 2410              	.LBE525:
 2411              	.LBE535:
 2412              	.LBE567:
ARM GAS  /var/folders/84/_x1cyy_j36g486tldtwl37280000gn/T//ccy6KN4R.s 			page 60


 2413              	.LBB568:
 2414              	.LBB562:
 2415              	.LBB554:
 2416              	.LBB552:
  26:Drivers/display.h **** 	}
 2417              		.loc 5 26 15 view .LVU784
 2418 0114 4FF40006 		mov	r6, #8388608
 2419              	.LBE552:
 2420              	.LBE554:
 2421              	.LBE562:
 2422              	.LBE568:
 2423              	.LBB569:
 2424              	.LBB536:
 2425              	.LBB526:
 2426              	.LBB519:
 2427              	.LBB517:
 2428              		.loc 5 103 9 view .LVU785
 2429 0118 2270     		strb	r2, [r4]
 2430              	.LVL157:
 2431              		.loc 5 103 9 view .LVU786
 2432              	.LBE517:
 2433              	.LBE519:
 2434              	.LBE526:
 2435              	.LBE536:
 2436              	.LBE569:
  78:Drivers/display.h **** 
 2437              		.loc 5 78 3 is_stmt 1 view .LVU787
 2438              	.LBB570:
 2439              	.LBI548:
  58:Drivers/display.h **** 		sendCommand(0x5C);
 2440              		.loc 5 58 7 view .LVU788
 2441              	.LBE570:
 2442              	.LBE594:
 2443              	.LBE610:
  59:Drivers/display.h **** 	}
 2444              		.loc 5 59 3 view .LVU789
 2445              	.LBB611:
 2446              	.LBB595:
 2447              	.LBB571:
 2448              	.LBB563:
 2449              	.LBI549:
  29:Drivers/display.h **** 		cd_low();
 2450              		.loc 5 29 7 view .LVU790
 2451              	.LBE563:
 2452              	.LBE571:
 2453              	.LBE595:
 2454              	.LBE611:
  30:Drivers/display.h **** 		spi_write(cmd);
 2455              		.loc 5 30 3 view .LVU791
 2456              	.LBB612:
 2457              	.LBB596:
 2458              	.LBB572:
 2459              	.LBB564:
 2460              	.LBB555:
 2461              	.LBI550:
  25:Drivers/display.h **** 		GPIOD->BSRR = GPIO_PIN_7 << 16;
 2462              		.loc 5 25 14 view .LVU792
ARM GAS  /var/folders/84/_x1cyy_j36g486tldtwl37280000gn/T//ccy6KN4R.s 			page 61


 2463              	.LBB553:
  26:Drivers/display.h **** 	}
 2464              		.loc 5 26 3 view .LVU793
  26:Drivers/display.h **** 	}
 2465              		.loc 5 26 15 is_stmt 0 view .LVU794
 2466 011a 8661     		str	r6, [r0, #24]
 2467              	.L123:
 2468              	.LBE553:
 2469              	.LBE555:
 2470              	.LBB556:
 2471              	.LBB557:
  99:Drivers/display.h **** 		SPI2->DR = data;
 2472              		.loc 5 99 3 is_stmt 1 view .LVU795
  99:Drivers/display.h **** 		SPI2->DR = data;
 2473              		.loc 5 99 10 view .LVU796
  99:Drivers/display.h **** 		SPI2->DR = data;
 2474              		.loc 5 99 18 is_stmt 0 view .LVU797
 2475 011c 164B     		ldr	r3, .L164+12
 2476 011e 9968     		ldr	r1, [r3, #8]
  99:Drivers/display.h **** 		SPI2->DR = data;
 2477              		.loc 5 99 10 view .LVU798
 2478 0120 8907     		lsls	r1, r1, #30
 2479 0122 FBD5     		bpl	.L123
 100:Drivers/display.h **** 
 2480              		.loc 5 100 3 is_stmt 1 view .LVU799
 100:Drivers/display.h **** 
 2481              		.loc 5 100 12 is_stmt 0 view .LVU800
 2482 0124 5C20     		movs	r0, #92
 2483 0126 D860     		str	r0, [r3, #12]
 2484              	.L124:
 102:Drivers/display.h **** 		dummy = SPI2->DR;
 2485              		.loc 5 102 3 is_stmt 1 view .LVU801
 102:Drivers/display.h **** 		dummy = SPI2->DR;
 2486              		.loc 5 102 10 view .LVU802
 102:Drivers/display.h **** 		dummy = SPI2->DR;
 2487              		.loc 5 102 18 is_stmt 0 view .LVU803
 2488 0128 134B     		ldr	r3, .L164+12
 2489 012a 9A68     		ldr	r2, [r3, #8]
 102:Drivers/display.h **** 		dummy = SPI2->DR;
 2490              		.loc 5 102 10 view .LVU804
 2491 012c D207     		lsls	r2, r2, #31
 2492 012e FBD5     		bpl	.L124
 2493              		.loc 5 103 3 is_stmt 1 view .LVU805
 2494              		.loc 5 103 17 is_stmt 0 view .LVU806
 2495 0130 DE68     		ldr	r6, [r3, #12]
 2496              	.LBE557:
 2497              	.LBE556:
 2498              	.LBE564:
 2499              	.LBE572:
 2500              	.LBB573:
 2501              	.LBB574:
  22:Drivers/display.h **** 	}
 2502              		.loc 5 22 15 view .LVU807
 2503 0132 1249     		ldr	r1, .L164+16
 2504              	.LBE574:
 2505              	.LBE573:
  82:Drivers/display.h **** 		DMA1_Stream4->PAR = reinterpret_cast<uint32_t>(&SPI2->DR);
ARM GAS  /var/folders/84/_x1cyy_j36g486tldtwl37280000gn/T//ccy6KN4R.s 			page 62


 2506              		.loc 5 82 15 view .LVU808
 2507 0134 1248     		ldr	r0, .L164+20
 2508              	.LBB577:
 2509              	.LBB565:
 2510              	.LBB560:
 2511              	.LBB558:
 2512              		.loc 5 103 9 view .LVU809
 2513 0136 F2B2     		uxtb	r2, r6
 2514              	.LBE558:
 2515              	.LBE560:
 2516              	.LBE565:
 2517              	.LBE577:
 2518              	.LBB578:
 2519              	.LBB575:
  22:Drivers/display.h **** 	}
 2520              		.loc 5 22 15 view .LVU810
 2521 0138 8026     		movs	r6, #128
 2522              	.LBE575:
 2523              	.LBE578:
 2524              	.LBB579:
 2525              	.LBB566:
 2526              	.LBB561:
 2527              	.LBB559:
 2528              		.loc 5 103 9 view .LVU811
 2529 013a 2270     		strb	r2, [r4]
 2530              	.LVL158:
 2531              		.loc 5 103 9 view .LVU812
 2532              	.LBE559:
 2533              	.LBE561:
 2534              	.LBE566:
 2535              	.LBE579:
  80:Drivers/display.h **** 
 2536              		.loc 5 80 3 is_stmt 1 view .LVU813
 2537              	.LBB580:
 2538              	.LBI573:
  21:Drivers/display.h **** 		GPIOD->BSRR = GPIO_PIN_7;
 2539              		.loc 5 21 14 view .LVU814
 2540              	.LBB576:
  22:Drivers/display.h **** 	}
 2541              		.loc 5 22 3 view .LVU815
  22:Drivers/display.h **** 	}
 2542              		.loc 5 22 15 is_stmt 0 view .LVU816
 2543 013c 8E61     		str	r6, [r1, #24]
 2544              	.LBE576:
 2545              	.LBE580:
  82:Drivers/display.h **** 		DMA1_Stream4->PAR = reinterpret_cast<uint32_t>(&SPI2->DR);
 2546              		.loc 5 82 3 is_stmt 1 view .LVU817
  82:Drivers/display.h **** 		DMA1_Stream4->PAR = reinterpret_cast<uint32_t>(&SPI2->DR);
 2547              		.loc 5 82 15 is_stmt 0 view .LVU818
 2548 013e C168     		ldr	r1, [r0, #12]
  83:Drivers/display.h **** 		DMA1_Stream4->M0AR = reinterpret_cast<uint32_t>(&data[0]);
 2549              		.loc 5 83 21 view .LVU819
 2550 0140 104A     		ldr	r2, .L164+24
 2551 0142 114E     		ldr	r6, .L164+28
  82:Drivers/display.h **** 		DMA1_Stream4->PAR = reinterpret_cast<uint32_t>(&SPI2->DR);
 2552              		.loc 5 82 15 view .LVU820
 2553 0144 41F03D01 		orr	r1, r1, #61
ARM GAS  /var/folders/84/_x1cyy_j36g486tldtwl37280000gn/T//ccy6KN4R.s 			page 63


 2554 0148 C160     		str	r1, [r0, #12]
  83:Drivers/display.h **** 		DMA1_Stream4->M0AR = reinterpret_cast<uint32_t>(&data[0]);
 2555              		.loc 5 83 3 is_stmt 1 view .LVU821
  85:Drivers/display.h **** 		DMA1_Stream4->CR |= DMA_SxCR_EN;
 2556              		.loc 5 85 22 is_stmt 0 view .LVU822
 2557 014a 4FF40050 		mov	r0, #8192
  83:Drivers/display.h **** 		DMA1_Stream4->M0AR = reinterpret_cast<uint32_t>(&data[0]);
 2558              		.loc 5 83 21 view .LVU823
 2559 014e 9660     		str	r6, [r2, #8]
  84:Drivers/display.h **** 		DMA1_Stream4->NDTR = size;
 2560              		.loc 5 84 3 is_stmt 1 view .LVU824
  84:Drivers/display.h **** 		DMA1_Stream4->NDTR = size;
 2561              		.loc 5 84 22 is_stmt 0 view .LVU825
 2562 0150 D560     		str	r5, [r2, #12]
  85:Drivers/display.h **** 		DMA1_Stream4->CR |= DMA_SxCR_EN;
 2563              		.loc 5 85 3 is_stmt 1 view .LVU826
  85:Drivers/display.h **** 		DMA1_Stream4->CR |= DMA_SxCR_EN;
 2564              		.loc 5 85 22 is_stmt 0 view .LVU827
 2565 0152 5060     		str	r0, [r2, #4]
  86:Drivers/display.h **** 		SPI2->CR2 |= SPI_CR2_TXDMAEN;
 2566              		.loc 5 86 3 is_stmt 1 view .LVU828
  86:Drivers/display.h **** 		SPI2->CR2 |= SPI_CR2_TXDMAEN;
 2567              		.loc 5 86 20 is_stmt 0 view .LVU829
 2568 0154 1568     		ldr	r5, [r2]
 2569 0156 45F00106 		orr	r6, r5, #1
 2570 015a 1660     		str	r6, [r2]
  87:Drivers/display.h **** 
 2571              		.loc 5 87 3 is_stmt 1 view .LVU830
  87:Drivers/display.h **** 
 2572              		.loc 5 87 13 is_stmt 0 view .LVU831
 2573 015c 5A68     		ldr	r2, [r3, #4]
  89:Drivers/display.h **** 	}
 2574              		.loc 5 89 13 view .LVU832
 2575 015e 0121     		movs	r1, #1
  87:Drivers/display.h **** 
 2576              		.loc 5 87 13 view .LVU833
 2577 0160 42F00200 		orr	r0, r2, #2
 2578 0164 5860     		str	r0, [r3, #4]
  89:Drivers/display.h **** 	}
 2579              		.loc 5 89 3 is_stmt 1 view .LVU834
  89:Drivers/display.h **** 	}
 2580              		.loc 5 89 13 is_stmt 0 view .LVU835
 2581 0166 6170     		strb	r1, [r4, #1]
 2582              	.LVL159:
  89:Drivers/display.h **** 	}
 2583              		.loc 5 89 13 view .LVU836
 2584              	.LBE596:
 2585              	.LBE612:
 114:Src/Ui/ui.cpp **** }
 2586              		.loc 1 114 1 view .LVU837
 2587 0168 70BD     		pop	{r4, r5, r6, pc}
 2588              	.L165:
 2589 016a 00BF     		.align	2
 2590              	.L164:
 2591 016c 00000000 		.word	display
 2592 0170 00200000 		.word	canvas+8192
 2593 0174 00000000 		.word	pages
ARM GAS  /var/folders/84/_x1cyy_j36g486tldtwl37280000gn/T//ccy6KN4R.s 			page 64


 2594 0178 00380040 		.word	1073756160
 2595 017c 000C0240 		.word	1073875968
 2596 0180 00600240 		.word	1073897472
 2597 0184 70600240 		.word	1073897584
 2598 0188 0C380040 		.word	1073756172
 2599              		.cfi_endproc
 2600              	.LFE2993:
 2602              		.section	.text._ZN2Ui7processEv,"ax",%progbits
 2603              		.align	1
 2604              		.p2align 2,,3
 2605              		.global	_ZN2Ui7processEv
 2606              		.syntax unified
 2607              		.thumb
 2608              		.thumb_func
 2609              		.fpu fpv4-sp-d16
 2611              	_ZN2Ui7processEv:
 2612              	.LVL160:
 2613              	.LFB2992:
  73:Src/Ui/ui.cpp **** 	while (ui_que.readable()) {
 2614              		.loc 1 73 20 is_stmt 1 view -0
 2615              		.cfi_startproc
 2616              		@ args = 0, pretend = 0, frame = 0
 2617              		@ frame_needed = 0, uses_anonymous_args = 0
  73:Src/Ui/ui.cpp **** 	while (ui_que.readable()) {
 2618              		.loc 1 73 20 is_stmt 0 view .LVU839
 2619 0000 F8B5     		push	{r3, r4, r5, r6, r7, lr}
 2620              		.cfi_def_cfa_offset 24
 2621              		.cfi_offset 3, -24
 2622              		.cfi_offset 4, -20
 2623              		.cfi_offset 5, -16
 2624              		.cfi_offset 6, -12
 2625              		.cfi_offset 7, -8
 2626              		.cfi_offset 14, -4
 2627 0002 394C     		ldr	r4, .L182
  73:Src/Ui/ui.cpp **** 	while (ui_que.readable()) {
 2628              		.loc 1 73 20 view .LVU840
 2629 0004 0646     		mov	r6, r0
 2630              	.LVL161:
 2631              	.L171:
  74:Src/Ui/ui.cpp **** 		Ui::Event e = ui_que.read();
 2632              		.loc 1 74 2 is_stmt 1 view .LVU841
  74:Src/Ui/ui.cpp **** 		Ui::Event e = ui_que.read();
 2633              		.loc 1 74 24 view .LVU842
 2634              	.LBB613:
 2635              	.LBI613:
  21:/Users/joostbooy/Desktop/Code/stm32/lib/utils/que.h **** 		return write_pos_ != read_pos_;
 2636              		.loc 2 21 14 view .LVU843
 2637              	.LBE613:
 2638              	.LBB616:
  75:Src/Ui/ui.cpp **** 		switch (e.type)
 2639              		.loc 1 75 3 view .LVU844
 2640              	.LBB617:
 2641              	.LBI617:
  41:/Users/joostbooy/Desktop/Code/stm32/lib/utils/que.h **** 	}
  42:/Users/joostbooy/Desktop/Code/stm32/lib/utils/que.h **** 
  43:/Users/joostbooy/Desktop/Code/stm32/lib/utils/que.h **** 	inline T read() {
 2642              		.loc 2 43 11 view .LVU845
ARM GAS  /var/folders/84/_x1cyy_j36g486tldtwl37280000gn/T//ccy6KN4R.s 			page 65


 2643              	.LBE617:
 2644              	.LBE616:
 2645              	.LBB621:
 2646              	.LBB614:
  22:/Users/joostbooy/Desktop/Code/stm32/lib/utils/que.h **** 	}
 2647              		.loc 2 22 10 is_stmt 0 view .LVU846
 2648 0006 2268     		ldr	r2, [r4]
  22:/Users/joostbooy/Desktop/Code/stm32/lib/utils/que.h **** 	}
 2649              		.loc 2 22 24 view .LVU847
 2650 0008 6368     		ldr	r3, [r4, #4]
 2651              	.LVL162:
  22:/Users/joostbooy/Desktop/Code/stm32/lib/utils/que.h **** 	}
 2652              		.loc 2 22 24 view .LVU848
 2653              	.LBE614:
 2654              	.LBE621:
  74:Src/Ui/ui.cpp **** 		Ui::Event e = ui_que.read();
 2655              		.loc 1 74 24 view .LVU849
 2656 000a 9A42     		cmp	r2, r3
 2657 000c 1CD0     		beq	.L168
 2658              	.L179:
 2659              	.LBB622:
 2660              	.LBB619:
 2661              	.LBB618:
  44:/Users/joostbooy/Desktop/Code/stm32/lib/utils/que.h **** 		size_t pos = read_pos_;
 2662              		.loc 2 44 10 view .LVU850
 2663 000e 6068     		ldr	r0, [r4, #4]
 2664              	.LVL163:
  45:/Users/joostbooy/Desktop/Code/stm32/lib/utils/que.h **** 		T value = data[pos];
 2665              		.loc 2 45 5 view .LVU851
 2666 0010 00EB4007 		add	r7, r0, r0, lsl #1
 2667 0014 0837     		adds	r7, r7, #8
 2668 0016 E119     		adds	r1, r4, r7
 2669 0018 E25D     		ldrb	r2, [r4, r7]	@ zero_extendqisi2
 2670              	.LVL164:
 2671              		.loc 2 45 5 view .LVU852
 2672 001a 4D78     		ldrb	r5, [r1, #1]	@ zero_extendqisi2
 2673              	.LVL165:
 2674              		.loc 2 45 5 view .LVU853
 2675 001c 91F90270 		ldrsb	r7, [r1, #2]
 2676              	.LVL166:
  46:/Users/joostbooy/Desktop/Code/stm32/lib/utils/que.h **** 		read_pos_ = (pos + 1) % kMaxSize;
 2677              		.loc 2 46 20 view .LVU854
 2678 0020 0130     		adds	r0, r0, #1
 2679              	.LVL167:
 2680              		.loc 2 46 25 view .LVU855
 2681 0022 00F00F03 		and	r3, r0, #15
 2682              		.loc 2 46 3 view .LVU856
 2683 0026 6360     		str	r3, [r4, #4]
 2684              	.LVL168:
 2685              		.loc 2 46 3 view .LVU857
 2686              	.LBE618:
 2687              	.LBE619:
  76:Src/Ui/ui.cpp **** 		{
 2688              		.loc 1 76 3 is_stmt 1 view .LVU858
 2689 0028 12B3     		cbz	r2, .L169
  82:Src/Ui/ui.cpp **** 			controller.on_encoder(e.id);
 2690              		.loc 1 82 3 view .LVU859
ARM GAS  /var/folders/84/_x1cyy_j36g486tldtwl37280000gn/T//ccy6KN4R.s 			page 66


  83:Src/Ui/ui.cpp **** 			pages.onEncoder(e.id, e.value);
 2691              		.loc 1 83 4 view .LVU860
  76:Src/Ui/ui.cpp **** 		{
 2692              		.loc 1 76 3 is_stmt 0 view .LVU861
 2693 002a 012A     		cmp	r2, #1
  83:Src/Ui/ui.cpp **** 			pages.onEncoder(e.id, e.value);
 2694              		.loc 1 83 25 view .LVU862
 2695 002c 2F48     		ldr	r0, .L182+4
 2696 002e 2946     		mov	r1, r5
  76:Src/Ui/ui.cpp **** 		{
 2697              		.loc 1 76 3 view .LVU863
 2698 0030 E9D1     		bne	.L171
  83:Src/Ui/ui.cpp **** 			pages.onEncoder(e.id, e.value);
 2699              		.loc 1 83 25 view .LVU864
 2700 0032 FFF7FEFF 		bl	_ZN10Controller10on_encoderEh
 2701              	.LVL169:
  84:Src/Ui/ui.cpp **** 			break;
 2702              		.loc 1 84 4 is_stmt 1 view .LVU865
  84:Src/Ui/ui.cpp **** 			break;
 2703              		.loc 1 84 19 is_stmt 0 view .LVU866
 2704 0036 3A46     		mov	r2, r7
 2705 0038 2D48     		ldr	r0, .L182+8
 2706 003a 2946     		mov	r1, r5
 2707 003c FFF7FEFF 		bl	_ZN5Pages9onEncoderEhi
 2708              	.LVL170:
  85:Src/Ui/ui.cpp **** 		default:
 2709              		.loc 1 85 4 is_stmt 1 view .LVU867
  85:Src/Ui/ui.cpp **** 		default:
 2710              		.loc 1 85 4 is_stmt 0 view .LVU868
 2711              	.LBE622:
  74:Src/Ui/ui.cpp **** 		Ui::Event e = ui_que.read();
 2712              		.loc 1 74 2 is_stmt 1 view .LVU869
  74:Src/Ui/ui.cpp **** 		Ui::Event e = ui_que.read();
 2713              		.loc 1 74 24 view .LVU870
 2714              	.LBB623:
  21:/Users/joostbooy/Desktop/Code/stm32/lib/utils/que.h **** 		return write_pos_ != read_pos_;
 2715              		.loc 2 21 14 view .LVU871
 2716              	.LBE623:
 2717              	.LBB624:
  75:Src/Ui/ui.cpp **** 		switch (e.type)
 2718              		.loc 1 75 3 view .LVU872
 2719              	.LBB620:
  43:/Users/joostbooy/Desktop/Code/stm32/lib/utils/que.h **** 		size_t pos = read_pos_;
 2720              		.loc 2 43 11 view .LVU873
 2721              	.LBE620:
 2722              	.LBE624:
 2723              	.LBB625:
 2724              	.LBB615:
  22:/Users/joostbooy/Desktop/Code/stm32/lib/utils/que.h **** 	}
 2725              		.loc 2 22 10 is_stmt 0 view .LVU874
 2726 0040 2268     		ldr	r2, [r4]
  22:/Users/joostbooy/Desktop/Code/stm32/lib/utils/que.h **** 	}
 2727              		.loc 2 22 24 view .LVU875
 2728 0042 6368     		ldr	r3, [r4, #4]
 2729              	.LVL171:
  22:/Users/joostbooy/Desktop/Code/stm32/lib/utils/que.h **** 	}
 2730              		.loc 2 22 24 view .LVU876
ARM GAS  /var/folders/84/_x1cyy_j36g486tldtwl37280000gn/T//ccy6KN4R.s 			page 67


 2731              	.LBE615:
 2732              	.LBE625:
  74:Src/Ui/ui.cpp **** 		Ui::Event e = ui_que.read();
 2733              		.loc 1 74 24 view .LVU877
 2734 0044 9A42     		cmp	r2, r3
 2735 0046 E2D1     		bne	.L179
 2736              	.L168:
  91:Src/Ui/ui.cpp **** 
 2737              		.loc 1 91 2 is_stmt 1 view .LVU878
 2738              	.LBB626:
 2739              	.LBI626:
  11:Drivers/micros.h **** 		return TIM5->CNT;
 2740              		.loc 4 11 27 view .LVU879
 2741              	.LVL172:
 2742              	.LBB627:
  12:Drivers/micros.h **** 	}
 2743              		.loc 4 12 3 view .LVU880
  12:Drivers/micros.h **** 	}
 2744              		.loc 4 12 16 is_stmt 0 view .LVU881
 2745 0048 2A48     		ldr	r0, .L182+12
 2746              	.LBE627:
 2747              	.LBE626:
  91:Src/Ui/ui.cpp **** 
 2748              		.loc 1 91 37 view .LVU882
 2749 004a 2B49     		ldr	r1, .L182+16
 2750              	.LBB629:
 2751              	.LBB628:
  12:Drivers/micros.h **** 	}
 2752              		.loc 4 12 16 view .LVU883
 2753 004c 456A     		ldr	r5, [r0, #36]
 2754              	.LBE628:
 2755              	.LBE629:
  91:Src/Ui/ui.cpp **** 
 2756              		.loc 1 91 47 view .LVU884
 2757 004e 3768     		ldr	r7, [r6]
  91:Src/Ui/ui.cpp **** 
 2758              		.loc 1 91 37 view .LVU885
 2759 0050 A1FB0524 		umull	r2, r4, r1, r5
 2760              	.LVL173:
  93:Src/Ui/ui.cpp **** 		last_interval += interval;
 2761              		.loc 1 93 2 is_stmt 1 view .LVU886
 2762 0054 D7EB9417 		rsbs	r7, r7, r4, lsr #6
 2763              	.LVL174:
  91:Src/Ui/ui.cpp **** 
 2764              		.loc 1 91 37 is_stmt 0 view .LVU887
 2765 0058 4FEA9412 		lsr	r2, r4, #6
  93:Src/Ui/ui.cpp **** 		last_interval += interval;
 2766              		.loc 1 93 2 view .LVU888
 2767 005c 15D1     		bne	.L180
 2768              	.L173:
 102:Src/Ui/ui.cpp **** 	if (display_interval >= pages.targetFps()) {
 2769              		.loc 1 102 2 is_stmt 1 view .LVU889
 102:Src/Ui/ui.cpp **** 	if (display_interval >= pages.targetFps()) {
 2770              		.loc 1 102 19 is_stmt 0 view .LVU890
 2771 005e 7468     		ldr	r4, [r6, #4]
 103:Src/Ui/ui.cpp **** 		send_display();
 2772              		.loc 1 103 41 view .LVU891
ARM GAS  /var/folders/84/_x1cyy_j36g486tldtwl37280000gn/T//ccy6KN4R.s 			page 68


 2773 0060 2348     		ldr	r0, .L182+8
 102:Src/Ui/ui.cpp **** 	if (display_interval >= pages.targetFps()) {
 2774              		.loc 1 102 19 view .LVU892
 2775 0062 3C44     		add	r4, r4, r7
 2776 0064 7460     		str	r4, [r6, #4]
 103:Src/Ui/ui.cpp **** 		send_display();
 2777              		.loc 1 103 2 is_stmt 1 view .LVU893
 103:Src/Ui/ui.cpp **** 		send_display();
 2778              		.loc 1 103 41 is_stmt 0 view .LVU894
 2779 0066 FFF7FEFF 		bl	_ZN5Pages9targetFpsEv
 2780              	.LVL175:
 103:Src/Ui/ui.cpp **** 		send_display();
 2781              		.loc 1 103 2 view .LVU895
 2782 006a 8442     		cmp	r4, r0
 2783 006c 37D2     		bcs	.L181
 106:Src/Ui/ui.cpp **** 
 2784              		.loc 1 106 1 view .LVU896
 2785 006e F8BD     		pop	{r3, r4, r5, r6, r7, pc}
 2786              	.LVL176:
 2787              	.L169:
 2788              	.LBB630:
  78:Src/Ui/ui.cpp **** 			controller.on_button(e.id, e.value);
 2789              		.loc 1 78 3 is_stmt 1 view .LVU897
  79:Src/Ui/ui.cpp **** 			pages.onButton(e.id, e.value);
 2790              		.loc 1 79 4 view .LVU898
  79:Src/Ui/ui.cpp **** 			pages.onButton(e.id, e.value);
 2791              		.loc 1 79 24 is_stmt 0 view .LVU899
 2792 0070 3A1E     		subs	r2, r7, #0
 2793              	.LVL177:
  79:Src/Ui/ui.cpp **** 			pages.onButton(e.id, e.value);
 2794              		.loc 1 79 24 view .LVU900
 2795 0072 18BF     		it	ne
 2796 0074 0122     		movne	r2, #1
 2797 0076 2946     		mov	r1, r5
 2798              	.LVL178:
  79:Src/Ui/ui.cpp **** 			pages.onButton(e.id, e.value);
 2799              		.loc 1 79 24 view .LVU901
 2800 0078 1C48     		ldr	r0, .L182+4
 2801              	.LVL179:
  79:Src/Ui/ui.cpp **** 			pages.onButton(e.id, e.value);
 2802              		.loc 1 79 24 view .LVU902
 2803 007a FFF7FEFF 		bl	_ZN10Controller9on_buttonEhb
 2804              	.LVL180:
  80:Src/Ui/ui.cpp **** 			break;
 2805              		.loc 1 80 4 is_stmt 1 view .LVU903
  80:Src/Ui/ui.cpp **** 			break;
 2806              		.loc 1 80 18 is_stmt 0 view .LVU904
 2807 007e 1C48     		ldr	r0, .L182+8
 2808 0080 FAB2     		uxtb	r2, r7
 2809 0082 2946     		mov	r1, r5
 2810 0084 FFF7FEFF 		bl	_ZN5Pages8onButtonEhh
 2811              	.LVL181:
  81:Src/Ui/ui.cpp **** 		case Ui::ENCODER:
 2812              		.loc 1 81 4 is_stmt 1 view .LVU905
 2813 0088 BDE7     		b	.L171
 2814              	.LVL182:
 2815              	.L180:
ARM GAS  /var/folders/84/_x1cyy_j36g486tldtwl37280000gn/T//ccy6KN4R.s 			page 69


  81:Src/Ui/ui.cpp **** 		case Ui::ENCODER:
 2816              		.loc 1 81 4 is_stmt 0 view .LVU906
 2817              	.LBE630:
  94:Src/Ui/ui.cpp **** 		pages.msTick(interval);
 2818              		.loc 1 94 3 is_stmt 1 view .LVU907
 2819              	.LBB631:
 2820              	.LBB632:
 2821              	.LBB633:
  24:Drivers/matrix.h **** 		}
 2822              		.loc 3 24 20 is_stmt 0 view .LVU908
 2823 008a 1C4C     		ldr	r4, .L182+20
 2824              	.LBE633:
 2825              	.LBE632:
 2826              	.LBE631:
  95:Src/Ui/ui.cpp **** 		matrix.lock_leds();
 2827              		.loc 1 95 15 view .LVU909
 2828 008c 1848     		ldr	r0, .L182+8
  94:Src/Ui/ui.cpp **** 		pages.msTick(interval);
 2829              		.loc 1 94 17 view .LVU910
 2830 008e 3260     		str	r2, [r6]
  95:Src/Ui/ui.cpp **** 		matrix.lock_leds();
 2831              		.loc 1 95 3 is_stmt 1 view .LVU911
  95:Src/Ui/ui.cpp **** 		matrix.lock_leds();
 2832              		.loc 1 95 15 is_stmt 0 view .LVU912
 2833 0090 B9B2     		uxth	r1, r7
 2834 0092 FFF7FEFF 		bl	_ZN5Pages6msTickEt
 2835              	.LVL183:
  96:Src/Ui/ui.cpp **** 		matrix.clear_leds();
 2836              		.loc 1 96 3 is_stmt 1 view .LVU913
 2837              	.LBB641:
 2838              	.LBI631:
  22:Drivers/matrix.h **** 		for (int i = 0; i < kNumOfLedCollumns; ++i) {
 2839              		.loc 3 22 7 view .LVU914
 2840              	.LBB638:
  23:Drivers/matrix.h **** 			led_row_copy[i] = led_row[i];
 2841              		.loc 3 23 3 view .LVU915
 2842              	.LBB634:
  23:Drivers/matrix.h **** 			led_row_copy[i] = led_row[i];
 2843              		.loc 3 23 21 view .LVU916
  24:Drivers/matrix.h **** 		}
 2844              		.loc 3 24 4 view .LVU917
  24:Drivers/matrix.h **** 		}
 2845              		.loc 3 24 20 is_stmt 0 view .LVU918
 2846 0096 A088     		ldrh	r0, [r4, #4]
 2847 0098 B4F802C0 		ldrh	ip, [r4, #2]
 2848 009c E388     		ldrh	r3, [r4, #6]
 2849 009e 2189     		ldrh	r1, [r4, #8]
 2850 00a0 A082     		strh	r0, [r4, #20]	@ movhi
 2851 00a2 6089     		ldrh	r0, [r4, #10]
 2852 00a4 A289     		ldrh	r2, [r4, #12]
 2853 00a6 A4F812C0 		strh	ip, [r4, #18]	@ movhi
  23:Drivers/matrix.h **** 			led_row_copy[i] = led_row[i];
 2854              		.loc 3 23 3 is_stmt 1 view .LVU919
 2855              	.LVL184:
  23:Drivers/matrix.h **** 			led_row_copy[i] = led_row[i];
 2856              		.loc 3 23 21 view .LVU920
  24:Drivers/matrix.h **** 		}
ARM GAS  /var/folders/84/_x1cyy_j36g486tldtwl37280000gn/T//ccy6KN4R.s 			page 70


 2857              		.loc 3 24 4 view .LVU921
  23:Drivers/matrix.h **** 			led_row_copy[i] = led_row[i];
 2858              		.loc 3 23 3 view .LVU922
  23:Drivers/matrix.h **** 			led_row_copy[i] = led_row[i];
 2859              		.loc 3 23 21 view .LVU923
  24:Drivers/matrix.h **** 		}
 2860              		.loc 3 24 4 view .LVU924
 2861              	.LBE634:
 2862              	.LBE638:
 2863              	.LBE641:
 2864              	.LBB642:
 2865              	.LBB643:
  35:Drivers/matrix.h **** 		}
 2866              		.loc 3 35 15 is_stmt 0 view .LVU925
 2867 00aa 0025     		movs	r5, #0
 2868              	.LBE643:
 2869              	.LBE642:
 2870              	.LBB645:
 2871              	.LBB639:
 2872              	.LBB635:
  24:Drivers/matrix.h **** 		}
 2873              		.loc 3 24 20 view .LVU926
 2874 00ac B4F80EC0 		ldrh	ip, [r4, #14]
 2875 00b0 E382     		strh	r3, [r4, #22]	@ movhi
  23:Drivers/matrix.h **** 			led_row_copy[i] = led_row[i];
 2876              		.loc 3 23 3 is_stmt 1 view .LVU927
 2877              	.LVL185:
  23:Drivers/matrix.h **** 			led_row_copy[i] = led_row[i];
 2878              		.loc 3 23 21 view .LVU928
  24:Drivers/matrix.h **** 		}
 2879              		.loc 3 24 4 view .LVU929
  24:Drivers/matrix.h **** 		}
 2880              		.loc 3 24 20 is_stmt 0 view .LVU930
 2881 00b2 2183     		strh	r1, [r4, #24]	@ movhi
  23:Drivers/matrix.h **** 			led_row_copy[i] = led_row[i];
 2882              		.loc 3 23 3 is_stmt 1 view .LVU931
 2883              	.LVL186:
  23:Drivers/matrix.h **** 			led_row_copy[i] = led_row[i];
 2884              		.loc 3 23 21 view .LVU932
  24:Drivers/matrix.h **** 		}
 2885              		.loc 3 24 4 view .LVU933
  24:Drivers/matrix.h **** 		}
 2886              		.loc 3 24 20 is_stmt 0 view .LVU934
 2887 00b4 6083     		strh	r0, [r4, #26]	@ movhi
  23:Drivers/matrix.h **** 			led_row_copy[i] = led_row[i];
 2888              		.loc 3 23 3 is_stmt 1 view .LVU935
 2889              	.LVL187:
  23:Drivers/matrix.h **** 			led_row_copy[i] = led_row[i];
 2890              		.loc 3 23 21 view .LVU936
  24:Drivers/matrix.h **** 		}
 2891              		.loc 3 24 4 view .LVU937
  24:Drivers/matrix.h **** 		}
 2892              		.loc 3 24 20 is_stmt 0 view .LVU938
 2893 00b6 218A     		ldrh	r1, [r4, #16]
 2894              	.LBE635:
 2895              	.LBE639:
 2896              	.LBE645:
ARM GAS  /var/folders/84/_x1cyy_j36g486tldtwl37280000gn/T//ccy6KN4R.s 			page 71


  98:Src/Ui/ui.cpp **** 		matrix.unlock_leds();
 2897              		.loc 1 98 17 view .LVU939
 2898 00b8 0D48     		ldr	r0, .L182+8
 2899              	.LBB646:
 2900              	.LBB640:
 2901              	.LBB636:
  24:Drivers/matrix.h **** 		}
 2902              		.loc 3 24 20 view .LVU940
 2903 00ba A283     		strh	r2, [r4, #28]	@ movhi
  23:Drivers/matrix.h **** 			led_row_copy[i] = led_row[i];
 2904              		.loc 3 23 3 is_stmt 1 view .LVU941
 2905              	.LVL188:
  23:Drivers/matrix.h **** 			led_row_copy[i] = led_row[i];
 2906              		.loc 3 23 21 view .LVU942
  24:Drivers/matrix.h **** 		}
 2907              		.loc 3 24 4 view .LVU943
 2908              	.LBE636:
  26:Drivers/matrix.h **** 	}
 2909              		.loc 3 26 15 is_stmt 0 view .LVU944
 2910 00bc 0123     		movs	r3, #1
 2911              	.LBB637:
  24:Drivers/matrix.h **** 		}
 2912              		.loc 3 24 20 view .LVU945
 2913 00be A4F81EC0 		strh	ip, [r4, #30]	@ movhi
  23:Drivers/matrix.h **** 			led_row_copy[i] = led_row[i];
 2914              		.loc 3 23 3 is_stmt 1 view .LVU946
 2915              	.LVL189:
  23:Drivers/matrix.h **** 			led_row_copy[i] = led_row[i];
 2916              		.loc 3 23 21 view .LVU947
  24:Drivers/matrix.h **** 		}
 2917              		.loc 3 24 4 view .LVU948
  24:Drivers/matrix.h **** 		}
 2918              		.loc 3 24 20 is_stmt 0 view .LVU949
 2919 00c2 2184     		strh	r1, [r4, #32]	@ movhi
  23:Drivers/matrix.h **** 			led_row_copy[i] = led_row[i];
 2920              		.loc 3 23 3 is_stmt 1 view .LVU950
 2921              	.LVL190:
  23:Drivers/matrix.h **** 			led_row_copy[i] = led_row[i];
 2922              		.loc 3 23 21 view .LVU951
 2923              	.LBE637:
  26:Drivers/matrix.h **** 	}
 2924              		.loc 3 26 3 view .LVU952
  26:Drivers/matrix.h **** 	}
 2925              		.loc 3 26 15 is_stmt 0 view .LVU953
 2926 00c4 2370     		strb	r3, [r4]
 2927              	.LVL191:
  26:Drivers/matrix.h **** 	}
 2928              		.loc 3 26 15 view .LVU954
 2929              	.LBE640:
 2930              	.LBE646:
 2931              	.LBB647:
 2932              	.LBB644:
  34:Drivers/matrix.h **** 			led_row[i] = 0;
 2933              		.loc 3 34 21 is_stmt 1 view .LVU955
  35:Drivers/matrix.h **** 		}
 2934              		.loc 3 35 4 view .LVU956
  35:Drivers/matrix.h **** 		}
ARM GAS  /var/folders/84/_x1cyy_j36g486tldtwl37280000gn/T//ccy6KN4R.s 			page 72


 2935              		.loc 3 35 15 is_stmt 0 view .LVU957
 2936 00c6 6580     		strh	r5, [r4, #2]	@ movhi
  34:Drivers/matrix.h **** 			led_row[i] = 0;
 2937              		.loc 3 34 3 is_stmt 1 view .LVU958
 2938              	.LVL192:
  34:Drivers/matrix.h **** 			led_row[i] = 0;
 2939              		.loc 3 34 21 view .LVU959
  35:Drivers/matrix.h **** 		}
 2940              		.loc 3 35 4 view .LVU960
  35:Drivers/matrix.h **** 		}
 2941              		.loc 3 35 15 is_stmt 0 view .LVU961
 2942 00c8 A580     		strh	r5, [r4, #4]	@ movhi
  34:Drivers/matrix.h **** 			led_row[i] = 0;
 2943              		.loc 3 34 3 is_stmt 1 view .LVU962
 2944              	.LVL193:
  34:Drivers/matrix.h **** 			led_row[i] = 0;
 2945              		.loc 3 34 21 view .LVU963
  35:Drivers/matrix.h **** 		}
 2946              		.loc 3 35 4 view .LVU964
  35:Drivers/matrix.h **** 		}
 2947              		.loc 3 35 15 is_stmt 0 view .LVU965
 2948 00ca E580     		strh	r5, [r4, #6]	@ movhi
  34:Drivers/matrix.h **** 			led_row[i] = 0;
 2949              		.loc 3 34 3 is_stmt 1 view .LVU966
 2950              	.LVL194:
  34:Drivers/matrix.h **** 			led_row[i] = 0;
 2951              		.loc 3 34 21 view .LVU967
  35:Drivers/matrix.h **** 		}
 2952              		.loc 3 35 4 view .LVU968
  35:Drivers/matrix.h **** 		}
 2953              		.loc 3 35 15 is_stmt 0 view .LVU969
 2954 00cc 2581     		strh	r5, [r4, #8]	@ movhi
  34:Drivers/matrix.h **** 			led_row[i] = 0;
 2955              		.loc 3 34 3 is_stmt 1 view .LVU970
 2956              	.LVL195:
  34:Drivers/matrix.h **** 			led_row[i] = 0;
 2957              		.loc 3 34 21 view .LVU971
  35:Drivers/matrix.h **** 		}
 2958              		.loc 3 35 4 view .LVU972
  35:Drivers/matrix.h **** 		}
 2959              		.loc 3 35 15 is_stmt 0 view .LVU973
 2960 00ce 6581     		strh	r5, [r4, #10]	@ movhi
  34:Drivers/matrix.h **** 			led_row[i] = 0;
 2961              		.loc 3 34 3 is_stmt 1 view .LVU974
 2962              	.LVL196:
  34:Drivers/matrix.h **** 			led_row[i] = 0;
 2963              		.loc 3 34 21 view .LVU975
  35:Drivers/matrix.h **** 		}
 2964              		.loc 3 35 4 view .LVU976
  35:Drivers/matrix.h **** 		}
 2965              		.loc 3 35 15 is_stmt 0 view .LVU977
 2966 00d0 A581     		strh	r5, [r4, #12]	@ movhi
  34:Drivers/matrix.h **** 			led_row[i] = 0;
 2967              		.loc 3 34 3 is_stmt 1 view .LVU978
 2968              	.LVL197:
  34:Drivers/matrix.h **** 			led_row[i] = 0;
 2969              		.loc 3 34 21 view .LVU979
ARM GAS  /var/folders/84/_x1cyy_j36g486tldtwl37280000gn/T//ccy6KN4R.s 			page 73


  35:Drivers/matrix.h **** 		}
 2970              		.loc 3 35 4 view .LVU980
  35:Drivers/matrix.h **** 		}
 2971              		.loc 3 35 15 is_stmt 0 view .LVU981
 2972 00d2 E581     		strh	r5, [r4, #14]	@ movhi
  34:Drivers/matrix.h **** 			led_row[i] = 0;
 2973              		.loc 3 34 3 is_stmt 1 view .LVU982
 2974              	.LVL198:
  34:Drivers/matrix.h **** 			led_row[i] = 0;
 2975              		.loc 3 34 21 view .LVU983
  35:Drivers/matrix.h **** 		}
 2976              		.loc 3 35 4 view .LVU984
  35:Drivers/matrix.h **** 		}
 2977              		.loc 3 35 15 is_stmt 0 view .LVU985
 2978 00d4 2582     		strh	r5, [r4, #16]	@ movhi
  34:Drivers/matrix.h **** 			led_row[i] = 0;
 2979              		.loc 3 34 3 is_stmt 1 view .LVU986
 2980              	.LVL199:
  34:Drivers/matrix.h **** 			led_row[i] = 0;
 2981              		.loc 3 34 21 view .LVU987
  34:Drivers/matrix.h **** 			led_row[i] = 0;
 2982              		.loc 3 34 21 is_stmt 0 view .LVU988
 2983              	.LBE644:
 2984              	.LBE647:
  98:Src/Ui/ui.cpp **** 		matrix.unlock_leds();
 2985              		.loc 1 98 3 is_stmt 1 view .LVU989
  98:Src/Ui/ui.cpp **** 		matrix.unlock_leds();
 2986              		.loc 1 98 17 is_stmt 0 view .LVU990
 2987 00d6 FFF7FEFF 		bl	_ZN5Pages8drawLedsEv
 2988              	.LVL200:
  99:Src/Ui/ui.cpp **** 	}
 2989              		.loc 1 99 3 is_stmt 1 view .LVU991
 2990              	.LBB648:
 2991              	.LBI648:
  29:Drivers/matrix.h **** 		leds_locked = false;
 2992              		.loc 3 29 7 view .LVU992
 2993              	.LBB649:
  30:Drivers/matrix.h **** 	}
 2994              		.loc 3 30 3 view .LVU993
  30:Drivers/matrix.h **** 	}
 2995              		.loc 3 30 15 is_stmt 0 view .LVU994
 2996 00da 2570     		strb	r5, [r4]
  31:Drivers/matrix.h **** 
 2997              		.loc 3 31 2 view .LVU995
 2998 00dc BFE7     		b	.L173
 2999              	.LVL201:
 3000              	.L181:
  31:Drivers/matrix.h **** 
 3001              		.loc 3 31 2 view .LVU996
 3002              	.LBE649:
 3003              	.LBE648:
 104:Src/Ui/ui.cpp **** 	}
 3004              		.loc 1 104 3 is_stmt 1 view .LVU997
 104:Src/Ui/ui.cpp **** 	}
 3005              		.loc 1 104 15 is_stmt 0 view .LVU998
 3006 00de 3046     		mov	r0, r6
 106:Src/Ui/ui.cpp **** 
ARM GAS  /var/folders/84/_x1cyy_j36g486tldtwl37280000gn/T//ccy6KN4R.s 			page 74


 3007              		.loc 1 106 1 view .LVU999
 3008 00e0 BDE8F840 		pop	{r3, r4, r5, r6, r7, lr}
 3009              		.cfi_restore 14
 3010              		.cfi_restore 7
 3011              		.cfi_restore 6
 3012              		.cfi_restore 5
 3013              		.cfi_restore 4
 3014              		.cfi_restore 3
 3015              		.cfi_def_cfa_offset 0
 3016              	.LVL202:
 104:Src/Ui/ui.cpp **** 	}
 3017              		.loc 1 104 15 view .LVU1000
 3018 00e4 FFF7FEBF 		b	_ZN2Ui12send_displayEv
 3019              	.LVL203:
 3020              	.L183:
 104:Src/Ui/ui.cpp **** 	}
 3021              		.loc 1 104 15 view .LVU1001
 3022              		.align	2
 3023              	.L182:
 3024 00e8 00000000 		.word	.LANCHOR0
 3025 00ec 00000000 		.word	controller
 3026 00f0 00000000 		.word	pages
 3027 00f4 000C0040 		.word	1073744896
 3028 00f8 D34D6210 		.word	274877907
 3029 00fc 00000000 		.word	matrix
 3030              		.cfi_endproc
 3031              	.LFE2992:
 3033              		.section	.text._ZN2Ui9clear_queEv,"ax",%progbits
 3034              		.align	1
 3035              		.p2align 2,,3
 3036              		.global	_ZN2Ui9clear_queEv
 3037              		.syntax unified
 3038              		.thumb
 3039              		.thumb_func
 3040              		.fpu fpv4-sp-d16
 3042              	_ZN2Ui9clear_queEv:
 3043              	.LVL204:
 3044              	.LFB2994:
 115:Src/Ui/ui.cpp **** 
 116:Src/Ui/ui.cpp **** void Ui::clear_que() {
 3045              		.loc 1 116 22 is_stmt 1 view -0
 3046              		.cfi_startproc
 3047              		@ args = 0, pretend = 0, frame = 0
 3048              		@ frame_needed = 0, uses_anonymous_args = 0
 3049              		@ link register save eliminated.
 117:Src/Ui/ui.cpp **** 	ui_que.clear();
 3050              		.loc 1 117 2 view .LVU1003
 3051              	.LBB650:
 3052              	.LBI650:
  33:/Users/joostbooy/Desktop/Code/stm32/lib/utils/que.h **** 		write_pos_ = read_pos_;
 3053              		.loc 2 33 14 view .LVU1004
 3054              	.LBB651:
  34:/Users/joostbooy/Desktop/Code/stm32/lib/utils/que.h **** 	}
 3055              		.loc 2 34 16 is_stmt 0 view .LVU1005
 3056 0000 014B     		ldr	r3, .L185
 3057 0002 5A68     		ldr	r2, [r3, #4]
  34:/Users/joostbooy/Desktop/Code/stm32/lib/utils/que.h **** 	}
ARM GAS  /var/folders/84/_x1cyy_j36g486tldtwl37280000gn/T//ccy6KN4R.s 			page 75


 3058              		.loc 2 34 3 view .LVU1006
 3059 0004 1A60     		str	r2, [r3]
 3060              	.LVL205:
  34:/Users/joostbooy/Desktop/Code/stm32/lib/utils/que.h **** 	}
 3061              		.loc 2 34 3 view .LVU1007
 3062              	.LBE651:
 3063              	.LBE650:
 118:Src/Ui/ui.cpp **** }
 3064              		.loc 1 118 1 view .LVU1008
 3065 0006 7047     		bx	lr
 3066              	.L186:
 3067              		.align	2
 3068              	.L185:
 3069 0008 00000000 		.word	.LANCHOR0
 3070              		.cfi_endproc
 3071              	.LFE2994:
 3073              		.section	.text.startup._GLOBAL__sub_I_ui,"ax",%progbits
 3074              		.align	1
 3075              		.p2align 2,,3
 3076              		.syntax unified
 3077              		.thumb
 3078              		.thumb_func
 3079              		.fpu fpv4-sp-d16
 3081              	_GLOBAL__sub_I_ui:
 3082              	.LFB3539:
 3083              		.loc 1 118 1 is_stmt 1 view -0
 3084              		.cfi_startproc
 3085              		@ args = 0, pretend = 0, frame = 0
 3086              		@ frame_needed = 0, uses_anonymous_args = 0
 3087              		@ link register save eliminated.
 3088              	.LVL206:
 3089              	.LBB652:
 3090              	.LBI652:
 3091              		.loc 1 118 1 view .LVU1010
 3092              	.LBB653:
 3093              	.LBB654:
 3094              	.LBI654:
 3095              		.file 7 "Src/Ui/ui.h"
   1:Src/Ui/ui.h   **** #ifndef Ui_h
   2:Src/Ui/ui.h   **** #define Ui_h
   3:Src/Ui/ui.h   **** 
   4:Src/Ui/ui.h   **** #include "stmf4lib.h"
   5:Src/Ui/ui.h   **** #include "que.h"
   6:Src/Ui/ui.h   **** #include "timer.h"
   7:Src/Ui/ui.h   **** #include "chapter.h"
   8:Src/Ui/ui.h   **** 
   9:Src/Ui/ui.h   **** class Ui {
 3096              		.loc 7 9 7 view .LVU1011
 3097              	.LBE654:
 3098              	.LBB658:
 3099              	.LBB659:
   9:/Users/joostbooy/Desktop/Code/stm32/lib/utils/que.h **** public:
 3100              		.loc 2 9 7 is_stmt 0 view .LVU1012
 3101 0000 0349     		ldr	r1, .L188
 3102              	.LBE659:
 3103              	.LBE658:
 3104              	.LBB662:
ARM GAS  /var/folders/84/_x1cyy_j36g486tldtwl37280000gn/T//ccy6KN4R.s 			page 76


 3105              	.LBB655:
 3106              		.loc 7 9 7 view .LVU1013
 3107 0002 044A     		ldr	r2, .L188+4
 3108 0004 0023     		movs	r3, #0
 3109              	.LBE655:
 3110              	.LBE662:
 3111              	.LBB663:
 3112              	.LBB660:
   9:/Users/joostbooy/Desktop/Code/stm32/lib/utils/que.h **** public:
 3113              		.loc 2 9 7 view .LVU1014
 3114 0006 0B60     		str	r3, [r1]
 3115              	.LBE660:
 3116              	.LBE663:
 3117              	.LBB664:
 3118              	.LBB656:
 3119              		.loc 7 9 7 view .LVU1015
 3120 0008 1360     		str	r3, [r2]
 3121              	.LBE656:
 3122              	.LBE664:
 3123              	.LBB665:
 3124              	.LBB661:
   9:/Users/joostbooy/Desktop/Code/stm32/lib/utils/que.h **** public:
 3125              		.loc 2 9 7 view .LVU1016
 3126 000a 4B60     		str	r3, [r1, #4]
 3127              	.LBE661:
 3128              	.LBE665:
 3129              	.LBB666:
 3130              	.LBB657:
 3131              		.loc 7 9 7 view .LVU1017
 3132 000c 5360     		str	r3, [r2, #4]
 3133              	.LVL207:
 3134              		.loc 7 9 7 view .LVU1018
 3135              	.LBE657:
 3136              	.LBE666:
 3137              	.LBB667:
 3138              	.LBI658:
   9:/Users/joostbooy/Desktop/Code/stm32/lib/utils/que.h **** public:
 3139              		.loc 2 9 7 is_stmt 1 view .LVU1019
   9:/Users/joostbooy/Desktop/Code/stm32/lib/utils/que.h **** public:
 3140              		.loc 2 9 7 is_stmt 0 view .LVU1020
 3141              	.LBE667:
 3142              	.LBE653:
 3143              	.LBE652:
 3144              		.loc 1 118 1 view .LVU1021
 3145 000e 7047     		bx	lr
 3146              	.L189:
 3147              		.align	2
 3148              	.L188:
 3149 0010 00000000 		.word	.LANCHOR0
 3150 0014 00000000 		.word	.LANCHOR1
 3151              		.cfi_endproc
 3152              	.LFE3539:
 3154              		.section	.init_array,"aw",%init_array
 3155              		.align	2
 3156 0000 00000000 		.word	_GLOBAL__sub_I_ui(target1)
 3157              		.global	ui_que
 3158              		.global	ui
ARM GAS  /var/folders/84/_x1cyy_j36g486tldtwl37280000gn/T//ccy6KN4R.s 			page 77


 3159              		.section	.bss.ui,"aw",%nobits
 3160              		.align	2
 3161              		.set	.LANCHOR1,. + 0
 3164              	ui:
 3165 0000 00000000 		.space	136
 3165      00000000 
 3165      00000000 
 3165      00000000 
 3165      00000000 
 3166              		.section	.bss.ui_que,"aw",%nobits
 3167              		.align	2
 3168              		.set	.LANCHOR0,. + 0
 3171              	ui_que:
 3172 0000 00000000 		.space	56
 3172      00000000 
 3172      00000000 
 3172      00000000 
 3172      00000000 
 3173              		.text
 3174              	.Letext0:
 3175              		.file 8 "/usr/local/Caskroom/gcc-arm-embedded/9-2019-q4-major/gcc-arm-none-eabi-9-2019-q4-major/ar
 3176              		.file 9 "/usr/local/Caskroom/gcc-arm-embedded/9-2019-q4-major/gcc-arm-none-eabi-9-2019-q4-major/ar
 3177              		.file 10 "/usr/local/Caskroom/gcc-arm-embedded/9-2019-q4-major/gcc-arm-none-eabi-9-2019-q4-major/a
 3178              		.file 11 "/Users/joostbooy/STM32Cube/Repository/STM32Cube_FW_F4_V1.26.1/Drivers/CMSIS/Include/core
 3179              		.file 12 "/Users/joostbooy/STM32Cube/Repository/STM32Cube_FW_F4_V1.26.1/Drivers/CMSIS/Device/ST/ST
 3180              		.file 13 "/Users/joostbooy/STM32Cube/Repository/STM32Cube_FW_F4_V1.26.1/Drivers/CMSIS/Device/ST/ST
 3181              		.file 14 "/usr/local/Caskroom/gcc-arm-embedded/9-2019-q4-major/gcc-arm-none-eabi-9-2019-q4-major/l
 3182              		.file 15 "/Users/joostbooy/STM32Cube/Repository/STM32Cube_FW_F4_V1.26.1/Drivers/STM32F4xx_HAL_Driv
 3183              		.file 16 "/usr/local/Caskroom/gcc-arm-embedded/9-2019-q4-major/gcc-arm-none-eabi-9-2019-q4-major/a
 3184              		.file 17 "/usr/local/Caskroom/gcc-arm-embedded/9-2019-q4-major/gcc-arm-none-eabi-9-2019-q4-major/a
 3185              		.file 18 "/usr/local/Caskroom/gcc-arm-embedded/9-2019-q4-major/gcc-arm-none-eabi-9-2019-q4-major/a
 3186              		.file 19 "/usr/local/Caskroom/gcc-arm-embedded/9-2019-q4-major/gcc-arm-none-eabi-9-2019-q4-major/a
 3187              		.file 20 "/usr/local/Caskroom/gcc-arm-embedded/9-2019-q4-major/gcc-arm-none-eabi-9-2019-q4-major/a
 3188              		.file 21 "/usr/local/Caskroom/gcc-arm-embedded/9-2019-q4-major/gcc-arm-none-eabi-9-2019-q4-major/a
 3189              		.file 22 "/usr/local/Caskroom/gcc-arm-embedded/9-2019-q4-major/gcc-arm-none-eabi-9-2019-q4-major/a
 3190              		.file 23 "/usr/local/Caskroom/gcc-arm-embedded/9-2019-q4-major/gcc-arm-none-eabi-9-2019-q4-major/a
 3191              		.file 24 "/usr/local/Caskroom/gcc-arm-embedded/9-2019-q4-major/gcc-arm-none-eabi-9-2019-q4-major/a
 3192              		.file 25 "/usr/local/Caskroom/gcc-arm-embedded/9-2019-q4-major/gcc-arm-none-eabi-9-2019-q4-major/a
 3193              		.file 26 "/usr/local/Caskroom/gcc-arm-embedded/9-2019-q4-major/gcc-arm-none-eabi-9-2019-q4-major/a
 3194              		.file 27 "/usr/local/Caskroom/gcc-arm-embedded/9-2019-q4-major/gcc-arm-none-eabi-9-2019-q4-major/a
 3195              		.file 28 "/usr/local/Caskroom/gcc-arm-embedded/9-2019-q4-major/gcc-arm-none-eabi-9-2019-q4-major/a
 3196              		.file 29 "/usr/local/Caskroom/gcc-arm-embedded/9-2019-q4-major/gcc-arm-none-eabi-9-2019-q4-major/a
 3197              		.file 30 "/usr/local/Caskroom/gcc-arm-embedded/9-2019-q4-major/gcc-arm-none-eabi-9-2019-q4-major/a
 3198              		.file 31 "/usr/local/Caskroom/gcc-arm-embedded/9-2019-q4-major/gcc-arm-none-eabi-9-2019-q4-major/a
 3199              		.file 32 "/usr/local/Caskroom/gcc-arm-embedded/9-2019-q4-major/gcc-arm-none-eabi-9-2019-q4-major/a
 3200              		.file 33 "/usr/local/Caskroom/gcc-arm-embedded/9-2019-q4-major/gcc-arm-none-eabi-9-2019-q4-major/a
 3201              		.file 34 "/usr/local/Caskroom/gcc-arm-embedded/9-2019-q4-major/gcc-arm-none-eabi-9-2019-q4-major/a
 3202              		.file 35 "/usr/local/Caskroom/gcc-arm-embedded/9-2019-q4-major/gcc-arm-none-eabi-9-2019-q4-major/a
 3203              		.file 36 "/usr/local/Caskroom/gcc-arm-embedded/9-2019-q4-major/gcc-arm-none-eabi-9-2019-q4-major/a
 3204              		.file 37 "/usr/local/Caskroom/gcc-arm-embedded/9-2019-q4-major/gcc-arm-none-eabi-9-2019-q4-major/a
 3205              		.file 38 "/usr/local/Caskroom/gcc-arm-embedded/9-2019-q4-major/gcc-arm-none-eabi-9-2019-q4-major/a
 3206              		.file 39 "/usr/local/Caskroom/gcc-arm-embedded/9-2019-q4-major/gcc-arm-none-eabi-9-2019-q4-major/a
 3207              		.file 40 "/usr/local/Caskroom/gcc-arm-embedded/9-2019-q4-major/gcc-arm-none-eabi-9-2019-q4-major/l
 3208              		.file 41 "<built-in>"
 3209              		.file 42 "/usr/local/Caskroom/gcc-arm-embedded/9-2019-q4-major/gcc-arm-none-eabi-9-2019-q4-major/a
 3210              		.file 43 "/usr/local/Caskroom/gcc-arm-embedded/9-2019-q4-major/gcc-arm-none-eabi-9-2019-q4-major/a
 3211              		.file 44 "/usr/local/Caskroom/gcc-arm-embedded/9-2019-q4-major/gcc-arm-none-eabi-9-2019-q4-major/a
ARM GAS  /var/folders/84/_x1cyy_j36g486tldtwl37280000gn/T//ccy6KN4R.s 			page 78


 3212              		.file 45 "/usr/local/Caskroom/gcc-arm-embedded/9-2019-q4-major/gcc-arm-none-eabi-9-2019-q4-major/a
 3213              		.file 46 "/usr/local/Caskroom/gcc-arm-embedded/9-2019-q4-major/gcc-arm-none-eabi-9-2019-q4-major/a
 3214              		.file 47 "/usr/local/Caskroom/gcc-arm-embedded/9-2019-q4-major/gcc-arm-none-eabi-9-2019-q4-major/a
 3215              		.file 48 "/usr/local/Caskroom/gcc-arm-embedded/9-2019-q4-major/gcc-arm-none-eabi-9-2019-q4-major/a
 3216              		.file 49 "/usr/local/Caskroom/gcc-arm-embedded/9-2019-q4-major/gcc-arm-none-eabi-9-2019-q4-major/a
 3217              		.file 50 "/usr/local/Caskroom/gcc-arm-embedded/9-2019-q4-major/gcc-arm-none-eabi-9-2019-q4-major/a
 3218              		.file 51 "Drivers/timer.h"
 3219              		.file 52 "/Users/joostbooy/Desktop/Code/stm32/lib/utils/StringBuilder.h"
 3220              		.file 53 "Src/Ui/Pages/pages.h"
 3221              		.file 54 "lookupTables/bitmap.h"
 3222              		.file 55 "Src/Ui/Pages/chapter.h"
 3223              		.file 56 "Drivers/debug.h"
 3224              		.file 57 "Src/Ui/controller.h"
 3225              		.file 58 "Src/Engine/timeOut.h"
 3226              		.file 59 "Drivers/sdio.h"
 3227              		.file 60 "/Users/joostbooy/Desktop/Code/stm32/lib/ff14b/source/ff.h"
 3228              		.file 61 "Src/Disk/directory.h"
 3229              		.file 62 "Src/Disk/entry.h"
 3230              		.file 63 "Src/Disk/file.h"
 3231              		.file 64 "Src/Disk/disk.h"
 3232              		.file 65 "lookupTables/font.h"
 3233              		.file 66 "Src/Ui/canvas.h"
 3234              		.file 67 "lookupTables/lookUpTables.h"
 3235              		.file 68 "Src/Engine/midiEvent.h"
 3236              		.file 69 "Src/Settings/trackData.h"
 3237              		.file 70 "Drivers/uart.h"
 3238              		.file 71 "Drivers/Usb/usb.h"
 3239              		.file 72 "Src/Engine/midiBuffer.h"
 3240              		.file 73 "Src/Engine/midiPort.h"
 3241              		.file 74 "Src/Settings/pattern.h"
 3242              		.file 75 "Src/Engine/clockEngine.h"
 3243              		.file 76 "Src/Engine/positionEngine.h"
 3244              		.file 77 "Src/Engine/repeatEngine.h"
 3245              		.file 78 "/Users/joostbooy/Desktop/Code/stm32/lib/utils/reciprocal.h"
 3246              		.file 79 "Src/Settings/baseTrack.h"
 3247              		.file 80 "Src/Settings/serial.h"
 3248              		.file 81 "Src/Settings/serialItem.h"
 3249              		.file 82 "/Users/joostbooy/Desktop/Code/stm32/lib/utils/hash.h"
 3250              		.file 83 "Src/Disk/fileWriter.h"
 3251              		.file 84 "Src/Disk/fileReader.h"
 3252              		.file 85 "Src/Settings/scale.h"
 3253              		.file 86 "/Users/joostbooy/Desktop/Code/stm32/lib/utils/stack.h"
 3254              		.file 87 "Src/Settings/noteTrack.h"
 3255              		.file 88 "Src/Settings/arpeggiator.h"
 3256              		.file 89 "Src/Settings/chord.h"
 3257              		.file 90 "Src/Settings/chordTrack.h"
 3258              		.file 91 "Src/Settings/drumTrack.h"
 3259              		.file 92 "Src/Settings/curveTrack.h"
 3260              		.file 93 "Src/Settings/track.h"
 3261              		.file 94 "Src/Settings/midiClock.h"
 3262              		.file 95 "Src/Settings/song.h"
 3263              		.file 96 "Src/Ui/clipboard.h"
 3264              		.file 97 "Src/Settings/cvOutput.h"
 3265              		.file 98 "Src/Settings/cvInput.h"
 3266              		.file 99 "Src/Settings/midiFilter.h"
 3267              		.file 100 "Src/Settings/midiMonitor.h"
 3268              		.file 101 "Src/Settings/midiInput.h"
ARM GAS  /var/folders/84/_x1cyy_j36g486tldtwl37280000gn/T//ccy6KN4R.s 			page 79


 3269              		.file 102 "Src/Settings/midiOutput.h"
 3270              		.file 103 "Drivers/dac.h"
 3271              		.file 104 "Src/Settings/calibration.h"
 3272              		.file 105 "Src/Settings/drumKit.h"
 3273              		.file 106 "Src/Settings/settings.h"
 3274              		.file 107 "Src/Engine/noteStack.h"
 3275              		.file 108 "Src/Engine/arpeggiatorEngine.h"
 3276              		.file 109 "Drivers/gateIO.h"
 3277              		.file 110 "Src/Engine/cvOutputEngine.h"
 3278              		.file 111 "Src/Engine/midiScheduler.h"
 3279              		.file 112 "Src/Engine/midiOutputEngine.h"
 3280              		.file 113 "Src/Engine/midiInputEngine.h"
 3281              		.file 114 "Src/Engine/midiRecordEngine.h"
 3282              		.file 115 "Drivers/adc.h"
 3283              		.file 116 "Src/Engine/cvInputEngine.h"
 3284              		.file 117 "Src/Engine/trackState.h"
 3285              		.file 118 "Src/Engine/trackEngine.h"
 3286              		.file 119 "Src/Engine/noteTrackEngine.h"
 3287              		.file 120 "Src/Engine/chordTrackEngine.h"
 3288              		.file 121 "Src/Engine/drumTrackEngine.h"
 3289              		.file 122 "Src/Engine/curveTrackEngine.h"
 3290              		.file 123 "Src/Engine/engine.h"
ARM GAS  /var/folders/84/_x1cyy_j36g486tldtwl37280000gn/T//ccy6KN4R.s 			page 80

