ARM GAS  /var/folders/84/_x1cyy_j36g486tldtwl37280000gn/T//ccxhwWe6.s 			page 1


   1              		.cpu cortex-m4
   2              		.eabi_attribute 27, 1
   3              		.eabi_attribute 28, 1
   4              		.eabi_attribute 20, 1
   5              		.eabi_attribute 21, 1
   6              		.eabi_attribute 23, 3
   7              		.eabi_attribute 24, 1
   8              		.eabi_attribute 25, 1
   9              		.eabi_attribute 26, 1
  10              		.eabi_attribute 30, 2
  11              		.eabi_attribute 34, 1
  12              		.eabi_attribute 18, 4
  13              		.file	"usb.cpp"
  14              		.text
  15              	.Ltext0:
  16              		.cfi_sections	.debug_frame
  17              		.section	.text._ZN3Usb4initEv,"ax",%progbits
  18              		.align	1
  19              		.p2align 2,,3
  20              		.global	_ZN3Usb4initEv
  21              		.arch armv7e-m
  22              		.syntax unified
  23              		.thumb
  24              		.thumb_func
  25              		.fpu fpv4-sp-d16
  27              	_ZN3Usb4initEv:
  28              	.LVL0:
  29              	.LFB2048:
  30              		.file 1 "Drivers/Usb/usb.cpp"
   1:Drivers/Usb/usb.cpp **** #include "usb.h"
   2:Drivers/Usb/usb.cpp **** 
   3:Drivers/Usb/usb.cpp **** Usb usb;
   4:Drivers/Usb/usb.cpp **** 
   5:Drivers/Usb/usb.cpp **** void Usb::init() {
  31              		.loc 1 5 18 view -0
  32              		.cfi_startproc
  33              		@ args = 0, pretend = 0, frame = 24
  34              		@ frame_needed = 0, uses_anonymous_args = 0
   6:Drivers/Usb/usb.cpp **** 	GPIO_InitTypeDef GPIO_InitStruct;
  35              		.loc 1 6 2 view .LVU1
   7:Drivers/Usb/usb.cpp **** 
   8:Drivers/Usb/usb.cpp **** 	/* Configure USB D+ D- Pins */
   9:Drivers/Usb/usb.cpp **** 	GPIO_InitStruct.Pin = GPIO_PIN_11 | GPIO_PIN_12;
  36              		.loc 1 9 2 view .LVU2
   5:Drivers/Usb/usb.cpp **** 	/* Configure USB D+ D- Pins */
  37              		.loc 1 5 18 is_stmt 0 view .LVU3
  38 0000 10B5     		push	{r4, lr}
  39              		.cfi_def_cfa_offset 8
  40              		.cfi_offset 4, -8
  41              		.cfi_offset 14, -4
  42 0002 86B0     		sub	sp, sp, #24
  43              		.cfi_def_cfa_offset 32
  44              		.loc 1 9 22 view .LVU4
  45 0004 4FF4C054 		mov	r4, #6144
  10:Drivers/Usb/usb.cpp **** 	GPIO_InitStruct.Speed = GPIO_SPEED_HIGH;
  46              		.loc 1 10 24 view .LVU5
  47 0008 0323     		movs	r3, #3
ARM GAS  /var/folders/84/_x1cyy_j36g486tldtwl37280000gn/T//ccxhwWe6.s 			page 2


  11:Drivers/Usb/usb.cpp **** 	GPIO_InitStruct.Mode = GPIO_MODE_AF_PP;
  12:Drivers/Usb/usb.cpp **** 	GPIO_InitStruct.Pull = GPIO_NOPULL;
  13:Drivers/Usb/usb.cpp **** 	GPIO_InitStruct.Alternate = GPIO_AF10_OTG_FS;
  14:Drivers/Usb/usb.cpp **** 	HAL_GPIO_Init(GPIOA, &GPIO_InitStruct);
  48              		.loc 1 14 15 view .LVU6
  49 000a 01A9     		add	r1, sp, #4
  11:Drivers/Usb/usb.cpp **** 	GPIO_InitStruct.Mode = GPIO_MODE_AF_PP;
  50              		.loc 1 11 23 view .LVU7
  51 000c 0222     		movs	r2, #2
   9:Drivers/Usb/usb.cpp **** 	GPIO_InitStruct.Speed = GPIO_SPEED_HIGH;
  52              		.loc 1 9 22 view .LVU8
  53 000e 0194     		str	r4, [sp, #4]
  10:Drivers/Usb/usb.cpp **** 	GPIO_InitStruct.Speed = GPIO_SPEED_HIGH;
  54              		.loc 1 10 2 is_stmt 1 view .LVU9
  10:Drivers/Usb/usb.cpp **** 	GPIO_InitStruct.Speed = GPIO_SPEED_HIGH;
  55              		.loc 1 10 24 is_stmt 0 view .LVU10
  56 0010 0493     		str	r3, [sp, #16]
  11:Drivers/Usb/usb.cpp **** 	GPIO_InitStruct.Mode = GPIO_MODE_AF_PP;
  57              		.loc 1 11 2 is_stmt 1 view .LVU11
  12:Drivers/Usb/usb.cpp **** 	GPIO_InitStruct.Alternate = GPIO_AF10_OTG_FS;
  58              		.loc 1 12 23 is_stmt 0 view .LVU12
  59 0012 0024     		movs	r4, #0
  13:Drivers/Usb/usb.cpp **** 	HAL_GPIO_Init(GPIOA, &GPIO_InitStruct);
  60              		.loc 1 13 28 view .LVU13
  61 0014 0A23     		movs	r3, #10
  62              		.loc 1 14 15 view .LVU14
  63 0016 0F48     		ldr	r0, .L4
  64              	.LVL1:
  13:Drivers/Usb/usb.cpp **** 	HAL_GPIO_Init(GPIOA, &GPIO_InitStruct);
  65              		.loc 1 13 28 view .LVU15
  66 0018 0593     		str	r3, [sp, #20]
  12:Drivers/Usb/usb.cpp **** 	GPIO_InitStruct.Alternate = GPIO_AF10_OTG_FS;
  67              		.loc 1 12 23 view .LVU16
  68 001a CDE90224 		strd	r2, r4, [sp, #8]
  13:Drivers/Usb/usb.cpp **** 	HAL_GPIO_Init(GPIOA, &GPIO_InitStruct);
  69              		.loc 1 13 2 is_stmt 1 view .LVU17
  70              		.loc 1 14 2 view .LVU18
  71              		.loc 1 14 15 is_stmt 0 view .LVU19
  72 001e FFF7FEFF 		bl	HAL_GPIO_Init
  73              	.LVL2:
  15:Drivers/Usb/usb.cpp **** 
  16:Drivers/Usb/usb.cpp **** 	/* Configure VBUS Pin */
  17:Drivers/Usb/usb.cpp **** 	GPIO_InitStruct.Pin = GPIO_PIN_9;
  74              		.loc 1 17 2 is_stmt 1 view .LVU20
  18:Drivers/Usb/usb.cpp **** 	GPIO_InitStruct.Mode = GPIO_MODE_INPUT;
  19:Drivers/Usb/usb.cpp **** 	GPIO_InitStruct.Pull = GPIO_NOPULL;
  20:Drivers/Usb/usb.cpp **** 	HAL_GPIO_Init(GPIOA, &GPIO_InitStruct);
  75              		.loc 1 20 15 is_stmt 0 view .LVU21
  76 0022 01A9     		add	r1, sp, #4
  17:Drivers/Usb/usb.cpp **** 	GPIO_InitStruct.Mode = GPIO_MODE_INPUT;
  77              		.loc 1 17 22 view .LVU22
  78 0024 4FF40072 		mov	r2, #512
  79              		.loc 1 20 15 view .LVU23
  80 0028 0A48     		ldr	r0, .L4
  17:Drivers/Usb/usb.cpp **** 	GPIO_InitStruct.Mode = GPIO_MODE_INPUT;
  81              		.loc 1 17 22 view .LVU24
  82 002a 0192     		str	r2, [sp, #4]
ARM GAS  /var/folders/84/_x1cyy_j36g486tldtwl37280000gn/T//ccxhwWe6.s 			page 3


  18:Drivers/Usb/usb.cpp **** 	GPIO_InitStruct.Mode = GPIO_MODE_INPUT;
  83              		.loc 1 18 2 is_stmt 1 view .LVU25
  19:Drivers/Usb/usb.cpp **** 	HAL_GPIO_Init(GPIOA, &GPIO_InitStruct);
  84              		.loc 1 19 2 view .LVU26
  85              		.loc 1 20 2 view .LVU27
  19:Drivers/Usb/usb.cpp **** 	HAL_GPIO_Init(GPIOA, &GPIO_InitStruct);
  86              		.loc 1 19 23 is_stmt 0 view .LVU28
  87 002c CDE90244 		strd	r4, r4, [sp, #8]
  88              		.loc 1 20 15 view .LVU29
  89 0030 FFF7FEFF 		bl	HAL_GPIO_Init
  90              	.LVL3:
  21:Drivers/Usb/usb.cpp **** 
  22:Drivers/Usb/usb.cpp **** 	// Enable VBUS sense (B device) via pin PA9
  23:Drivers/Usb/usb.cpp **** 	USB_OTG_FS->GCCFG |= USB_OTG_GCCFG_NOVBUSSENS;
  91              		.loc 1 23 2 is_stmt 1 view .LVU30
  92              		.loc 1 23 20 is_stmt 0 view .LVU31
  93 0034 4FF0A041 		mov	r1, #1342177280
  24:Drivers/Usb/usb.cpp **** 	USB_OTG_FS->GCCFG |= USB_OTG_GCCFG_VBUSBSEN;
  25:Drivers/Usb/usb.cpp **** 
  26:Drivers/Usb/usb.cpp **** 	// init tiny usb
  27:Drivers/Usb/usb.cpp **** 	tud_init(0);
  94              		.loc 1 27 10 view .LVU32
  95 0038 2046     		mov	r0, r4
  23:Drivers/Usb/usb.cpp **** 	USB_OTG_FS->GCCFG |= USB_OTG_GCCFG_VBUSBSEN;
  96              		.loc 1 23 20 view .LVU33
  97 003a 8C6B     		ldr	r4, [r1, #56]
  98 003c 44F40013 		orr	r3, r4, #2097152
  99 0040 8B63     		str	r3, [r1, #56]
  24:Drivers/Usb/usb.cpp **** 	USB_OTG_FS->GCCFG |= USB_OTG_GCCFG_VBUSBSEN;
 100              		.loc 1 24 2 is_stmt 1 view .LVU34
  24:Drivers/Usb/usb.cpp **** 	USB_OTG_FS->GCCFG |= USB_OTG_GCCFG_VBUSBSEN;
 101              		.loc 1 24 20 is_stmt 0 view .LVU35
 102 0042 8A6B     		ldr	r2, [r1, #56]
 103 0044 42F40024 		orr	r4, r2, #524288
 104 0048 8C63     		str	r4, [r1, #56]
 105              		.loc 1 27 2 is_stmt 1 view .LVU36
 106              		.loc 1 27 10 is_stmt 0 view .LVU37
 107 004a FFF7FEFF 		bl	tud_init
 108              	.LVL4:
  28:Drivers/Usb/usb.cpp **** }
 109              		.loc 1 28 1 view .LVU38
 110 004e 06B0     		add	sp, sp, #24
 111              		.cfi_def_cfa_offset 8
 112              		@ sp needed
 113 0050 10BD     		pop	{r4, pc}
 114              	.L5:
 115 0052 00BF     		.align	2
 116              	.L4:
 117 0054 00000240 		.word	1073872896
 118              		.cfi_endproc
 119              	.LFE2048:
 121              		.section	.text.OTG_FS_IRQHandler,"ax",%progbits
 122              		.align	1
 123              		.p2align 2,,3
 124              		.global	OTG_FS_IRQHandler
 125              		.syntax unified
 126              		.thumb
ARM GAS  /var/folders/84/_x1cyy_j36g486tldtwl37280000gn/T//ccxhwWe6.s 			page 4


 127              		.thumb_func
 128              		.fpu fpv4-sp-d16
 130              	OTG_FS_IRQHandler:
 131              	.LFB2049:
  29:Drivers/Usb/usb.cpp **** 
  30:Drivers/Usb/usb.cpp **** extern "C" {
  31:Drivers/Usb/usb.cpp **** 	void OTG_FS_IRQHandler(void) {
 132              		.loc 1 31 31 is_stmt 1 view -0
 133              		.cfi_startproc
 134              		@ args = 0, pretend = 0, frame = 0
 135              		@ frame_needed = 0, uses_anonymous_args = 0
 136              		@ link register save eliminated.
  32:Drivers/Usb/usb.cpp **** 		tud_int_handler(0);
 137              		.loc 1 32 3 view .LVU40
 138              		.loc 1 32 18 is_stmt 0 view .LVU41
 139 0000 0020     		movs	r0, #0
 140 0002 FFF7FEBF 		b	dcd_int_handler
 141              	.LVL5:
 142              		.cfi_endproc
 143              	.LFE2049:
 145              		.global	usb
 146 0006 00BF     		.section	.data.usb,"aw"
 147              		.align	2
 150              	usb:
 151 0000 0F00     		.ascii	"\017\000"
 152 0002 0000     		.space	2
 153              		.text
 154              	.Letext0:
 155              		.file 2 "/usr/local/Caskroom/gcc-arm-embedded/9-2019-q4-major/gcc-arm-none-eabi-9-2019-q4-major/ar
 156              		.file 3 "/usr/local/Caskroom/gcc-arm-embedded/9-2019-q4-major/gcc-arm-none-eabi-9-2019-q4-major/ar
 157              		.file 4 "/usr/local/Caskroom/gcc-arm-embedded/9-2019-q4-major/gcc-arm-none-eabi-9-2019-q4-major/ar
 158              		.file 5 "/Users/joostbooy/STM32Cube/Repository/STM32Cube_FW_F4_V1.26.1/Drivers/CMSIS/Include/core_
 159              		.file 6 "/Users/joostbooy/STM32Cube/Repository/STM32Cube_FW_F4_V1.26.1/Drivers/CMSIS/Device/ST/STM
 160              		.file 7 "/Users/joostbooy/STM32Cube/Repository/STM32Cube_FW_F4_V1.26.1/Drivers/CMSIS/Device/ST/STM
 161              		.file 8 "/usr/local/Caskroom/gcc-arm-embedded/9-2019-q4-major/gcc-arm-none-eabi-9-2019-q4-major/li
 162              		.file 9 "/Users/joostbooy/STM32Cube/Repository/STM32Cube_FW_F4_V1.26.1/Drivers/STM32F4xx_HAL_Drive
 163              		.file 10 "/Users/joostbooy/STM32Cube/Repository/STM32Cube_FW_F4_V1.26.1/Drivers/STM32F4xx_HAL_Driv
 164              		.file 11 "/usr/local/Caskroom/gcc-arm-embedded/9-2019-q4-major/gcc-arm-none-eabi-9-2019-q4-major/a
 165              		.file 12 "/usr/local/Caskroom/gcc-arm-embedded/9-2019-q4-major/gcc-arm-none-eabi-9-2019-q4-major/a
 166              		.file 13 "/usr/local/Caskroom/gcc-arm-embedded/9-2019-q4-major/gcc-arm-none-eabi-9-2019-q4-major/a
 167              		.file 14 "/usr/local/Caskroom/gcc-arm-embedded/9-2019-q4-major/gcc-arm-none-eabi-9-2019-q4-major/a
 168              		.file 15 "/usr/local/Caskroom/gcc-arm-embedded/9-2019-q4-major/gcc-arm-none-eabi-9-2019-q4-major/a
 169              		.file 16 "/usr/local/Caskroom/gcc-arm-embedded/9-2019-q4-major/gcc-arm-none-eabi-9-2019-q4-major/a
 170              		.file 17 "/usr/local/Caskroom/gcc-arm-embedded/9-2019-q4-major/gcc-arm-none-eabi-9-2019-q4-major/a
 171              		.file 18 "/usr/local/Caskroom/gcc-arm-embedded/9-2019-q4-major/gcc-arm-none-eabi-9-2019-q4-major/a
 172              		.file 19 "/usr/local/Caskroom/gcc-arm-embedded/9-2019-q4-major/gcc-arm-none-eabi-9-2019-q4-major/a
 173              		.file 20 "/usr/local/Caskroom/gcc-arm-embedded/9-2019-q4-major/gcc-arm-none-eabi-9-2019-q4-major/a
 174              		.file 21 "/usr/local/Caskroom/gcc-arm-embedded/9-2019-q4-major/gcc-arm-none-eabi-9-2019-q4-major/a
 175              		.file 22 "/usr/local/Caskroom/gcc-arm-embedded/9-2019-q4-major/gcc-arm-none-eabi-9-2019-q4-major/a
 176              		.file 23 "/usr/local/Caskroom/gcc-arm-embedded/9-2019-q4-major/gcc-arm-none-eabi-9-2019-q4-major/a
 177              		.file 24 "/usr/local/Caskroom/gcc-arm-embedded/9-2019-q4-major/gcc-arm-none-eabi-9-2019-q4-major/a
 178              		.file 25 "/usr/local/Caskroom/gcc-arm-embedded/9-2019-q4-major/gcc-arm-none-eabi-9-2019-q4-major/a
 179              		.file 26 "/usr/local/Caskroom/gcc-arm-embedded/9-2019-q4-major/gcc-arm-none-eabi-9-2019-q4-major/a
 180              		.file 27 "/usr/local/Caskroom/gcc-arm-embedded/9-2019-q4-major/gcc-arm-none-eabi-9-2019-q4-major/a
 181              		.file 28 "/usr/local/Caskroom/gcc-arm-embedded/9-2019-q4-major/gcc-arm-none-eabi-9-2019-q4-major/a
 182              		.file 29 "/usr/local/Caskroom/gcc-arm-embedded/9-2019-q4-major/gcc-arm-none-eabi-9-2019-q4-major/a
 183              		.file 30 "/usr/local/Caskroom/gcc-arm-embedded/9-2019-q4-major/gcc-arm-none-eabi-9-2019-q4-major/a
ARM GAS  /var/folders/84/_x1cyy_j36g486tldtwl37280000gn/T//ccxhwWe6.s 			page 5


 184              		.file 31 "/usr/local/Caskroom/gcc-arm-embedded/9-2019-q4-major/gcc-arm-none-eabi-9-2019-q4-major/a
 185              		.file 32 "/usr/local/Caskroom/gcc-arm-embedded/9-2019-q4-major/gcc-arm-none-eabi-9-2019-q4-major/a
 186              		.file 33 "/usr/local/Caskroom/gcc-arm-embedded/9-2019-q4-major/gcc-arm-none-eabi-9-2019-q4-major/a
 187              		.file 34 "/usr/local/Caskroom/gcc-arm-embedded/9-2019-q4-major/gcc-arm-none-eabi-9-2019-q4-major/a
 188              		.file 35 "/usr/local/Caskroom/gcc-arm-embedded/9-2019-q4-major/gcc-arm-none-eabi-9-2019-q4-major/l
 189              		.file 36 "<built-in>"
 190              		.file 37 "/usr/local/Caskroom/gcc-arm-embedded/9-2019-q4-major/gcc-arm-none-eabi-9-2019-q4-major/a
 191              		.file 38 "/usr/local/Caskroom/gcc-arm-embedded/9-2019-q4-major/gcc-arm-none-eabi-9-2019-q4-major/a
 192              		.file 39 "/usr/local/Caskroom/gcc-arm-embedded/9-2019-q4-major/gcc-arm-none-eabi-9-2019-q4-major/a
 193              		.file 40 "/usr/local/Caskroom/gcc-arm-embedded/9-2019-q4-major/gcc-arm-none-eabi-9-2019-q4-major/a
 194              		.file 41 "/usr/local/Caskroom/gcc-arm-embedded/9-2019-q4-major/gcc-arm-none-eabi-9-2019-q4-major/a
 195              		.file 42 "/usr/local/Caskroom/gcc-arm-embedded/9-2019-q4-major/gcc-arm-none-eabi-9-2019-q4-major/a
 196              		.file 43 "/usr/local/Caskroom/gcc-arm-embedded/9-2019-q4-major/gcc-arm-none-eabi-9-2019-q4-major/a
 197              		.file 44 "/usr/local/Caskroom/gcc-arm-embedded/9-2019-q4-major/gcc-arm-none-eabi-9-2019-q4-major/a
 198              		.file 45 "/usr/local/Caskroom/gcc-arm-embedded/9-2019-q4-major/gcc-arm-none-eabi-9-2019-q4-major/a
 199              		.file 46 "Drivers/Usb/usb.h"
 200              		.file 47 "/Users/joostbooy/Desktop/Code/stm32/lib/tinyusb/src/device/usbd.h"
ARM GAS  /var/folders/84/_x1cyy_j36g486tldtwl37280000gn/T//ccxhwWe6.s 			page 6

