ARM GAS  /var/folders/84/_x1cyy_j36g486tldtwl37280000gn/T//ccR5gxkH.s 			page 1


   1              		.cpu cortex-m4
   2              		.eabi_attribute 27, 1
   3              		.eabi_attribute 28, 1
   4              		.eabi_attribute 20, 1
   5              		.eabi_attribute 21, 1
   6              		.eabi_attribute 23, 3
   7              		.eabi_attribute 24, 1
   8              		.eabi_attribute 25, 1
   9              		.eabi_attribute 26, 1
  10              		.eabi_attribute 30, 2
  11              		.eabi_attribute 34, 1
  12              		.eabi_attribute 18, 4
  13              		.file	"usb_descriptors.c"
  14              		.text
  15              	.Ltext0:
  16              		.cfi_sections	.debug_frame
  17              		.section	.text.tud_descriptor_device_cb,"ax",%progbits
  18              		.align	1
  19              		.p2align 2,,3
  20              		.global	tud_descriptor_device_cb
  21              		.arch armv7e-m
  22              		.syntax unified
  23              		.thumb
  24              		.thumb_func
  25              		.fpu fpv4-sp-d16
  27              	tud_descriptor_device_cb:
  28              	.LFB74:
  29              		.file 1 "Drivers/Usb/usb_descriptors.c"
   1:Drivers/Usb/usb_descriptors.c **** /*
   2:Drivers/Usb/usb_descriptors.c ****  * The MIT License (MIT)
   3:Drivers/Usb/usb_descriptors.c ****  *
   4:Drivers/Usb/usb_descriptors.c ****  * Copyright (c) 2019 Ha Thach (tinyusb.org)
   5:Drivers/Usb/usb_descriptors.c ****  *
   6:Drivers/Usb/usb_descriptors.c ****  * Permission is hereby granted, free of charge, to any person obtaining a copy
   7:Drivers/Usb/usb_descriptors.c ****  * of this software and associated documentation files (the "Software"), to deal
   8:Drivers/Usb/usb_descriptors.c ****  * in the Software without restriction, including without limitation the rights
   9:Drivers/Usb/usb_descriptors.c ****  * to use, copy, modify, merge, publish, distribute, sublicense, and/or sell
  10:Drivers/Usb/usb_descriptors.c ****  * copies of the Software, and to permit persons to whom the Software is
  11:Drivers/Usb/usb_descriptors.c ****  * furnished to do so, subject to the following conditions:
  12:Drivers/Usb/usb_descriptors.c ****  *
  13:Drivers/Usb/usb_descriptors.c ****  * The above copyright notice and this permission notice shall be included in
  14:Drivers/Usb/usb_descriptors.c ****  * all copies or substantial portions of the Software.
  15:Drivers/Usb/usb_descriptors.c ****  *
  16:Drivers/Usb/usb_descriptors.c ****  * THE SOFTWARE IS PROVIDED "AS IS", WITHOUT WARRANTY OF ANY KIND, EXPRESS OR
  17:Drivers/Usb/usb_descriptors.c ****  * IMPLIED, INCLUDING BUT NOT LIMITED TO THE WARRANTIES OF MERCHANTABILITY,
  18:Drivers/Usb/usb_descriptors.c ****  * FITNESS FOR A PARTICULAR PURPOSE AND NONINFRINGEMENT. IN NO EVENT SHALL THE
  19:Drivers/Usb/usb_descriptors.c ****  * AUTHORS OR COPYRIGHT HOLDERS BE LIABLE FOR ANY CLAIM, DAMAGES OR OTHER
  20:Drivers/Usb/usb_descriptors.c ****  * LIABILITY, WHETHER IN AN ACTION OF CONTRACT, TORT OR OTHERWISE, ARISING FROM,
  21:Drivers/Usb/usb_descriptors.c ****  * OUT OF OR IN CONNECTION WITH THE SOFTWARE OR THE USE OR OTHER DEALINGS IN
  22:Drivers/Usb/usb_descriptors.c ****  * THE SOFTWARE.
  23:Drivers/Usb/usb_descriptors.c ****  *
  24:Drivers/Usb/usb_descriptors.c ****  */
  25:Drivers/Usb/usb_descriptors.c **** 
  26:Drivers/Usb/usb_descriptors.c **** #include "bsp/board_api.h"
  27:Drivers/Usb/usb_descriptors.c **** #include "tusb.h"
  28:Drivers/Usb/usb_descriptors.c **** 
  29:Drivers/Usb/usb_descriptors.c **** /* A combination of interfaces must have a unique product id, since PC will save device driver afte
ARM GAS  /var/folders/84/_x1cyy_j36g486tldtwl37280000gn/T//ccR5gxkH.s 			page 2


  30:Drivers/Usb/usb_descriptors.c ****  * Same VID/PID with different interface e.g MSC (first), then CDC (later) will possibly cause syst
  31:Drivers/Usb/usb_descriptors.c ****  *
  32:Drivers/Usb/usb_descriptors.c ****  * Auto ProductID layout's Bitmap:
  33:Drivers/Usb/usb_descriptors.c ****  *   [MSB]         HID | MSC | CDC          [LSB]
  34:Drivers/Usb/usb_descriptors.c ****  */
  35:Drivers/Usb/usb_descriptors.c **** #define _PID_MAP(itf, n)  ( (CFG_TUD_##itf) << (n) )
  36:Drivers/Usb/usb_descriptors.c **** #define USB_PID           (0x4000 | _PID_MAP(CDC, 0) | _PID_MAP(MSC, 1) | _PID_MAP(HID, 2) | \
  37:Drivers/Usb/usb_descriptors.c ****                            _PID_MAP(MIDI, 3) | _PID_MAP(VENDOR, 4) )
  38:Drivers/Usb/usb_descriptors.c **** 
  39:Drivers/Usb/usb_descriptors.c **** //--------------------------------------------------------------------+
  40:Drivers/Usb/usb_descriptors.c **** // Device Descriptors
  41:Drivers/Usb/usb_descriptors.c **** //--------------------------------------------------------------------+
  42:Drivers/Usb/usb_descriptors.c **** tusb_desc_device_t const desc_device =
  43:Drivers/Usb/usb_descriptors.c **** {
  44:Drivers/Usb/usb_descriptors.c ****     .bLength            = sizeof(tusb_desc_device_t),
  45:Drivers/Usb/usb_descriptors.c ****     .bDescriptorType    = TUSB_DESC_DEVICE,
  46:Drivers/Usb/usb_descriptors.c ****     .bcdUSB             = 0x0200,
  47:Drivers/Usb/usb_descriptors.c ****     .bDeviceClass       = 0x00,
  48:Drivers/Usb/usb_descriptors.c ****     .bDeviceSubClass    = 0x00,
  49:Drivers/Usb/usb_descriptors.c ****     .bDeviceProtocol    = 0x00,
  50:Drivers/Usb/usb_descriptors.c ****     .bMaxPacketSize0    = CFG_TUD_ENDPOINT0_SIZE,
  51:Drivers/Usb/usb_descriptors.c **** 
  52:Drivers/Usb/usb_descriptors.c ****     .idVendor           = 0xCafe,
  53:Drivers/Usb/usb_descriptors.c ****     .idProduct          = USB_PID,
  54:Drivers/Usb/usb_descriptors.c ****     .bcdDevice          = 0x0100,
  55:Drivers/Usb/usb_descriptors.c **** 
  56:Drivers/Usb/usb_descriptors.c ****     .iManufacturer      = 0x01,
  57:Drivers/Usb/usb_descriptors.c ****     .iProduct           = 0x02,
  58:Drivers/Usb/usb_descriptors.c ****     .iSerialNumber      = 0x03,
  59:Drivers/Usb/usb_descriptors.c **** 
  60:Drivers/Usb/usb_descriptors.c ****     .bNumConfigurations = 0x01
  61:Drivers/Usb/usb_descriptors.c **** };
  62:Drivers/Usb/usb_descriptors.c **** 
  63:Drivers/Usb/usb_descriptors.c **** // Invoked when received GET DEVICE DESCRIPTOR
  64:Drivers/Usb/usb_descriptors.c **** // Application return pointer to descriptor
  65:Drivers/Usb/usb_descriptors.c **** uint8_t const * tud_descriptor_device_cb(void)
  66:Drivers/Usb/usb_descriptors.c **** {
  30              		.loc 1 66 1 view -0
  31              		.cfi_startproc
  32              		@ args = 0, pretend = 0, frame = 0
  33              		@ frame_needed = 0, uses_anonymous_args = 0
  34              		@ link register save eliminated.
  67:Drivers/Usb/usb_descriptors.c ****   return (uint8_t const *) &desc_device;
  35              		.loc 1 67 3 view .LVU1
  68:Drivers/Usb/usb_descriptors.c **** }
  36              		.loc 1 68 1 is_stmt 0 view .LVU2
  37 0000 0048     		ldr	r0, .L3
  38 0002 7047     		bx	lr
  39              	.L4:
  40              		.align	2
  41              	.L3:
  42 0004 00000000 		.word	.LANCHOR0
  43              		.cfi_endproc
  44              	.LFE74:
  46              		.section	.text.tud_descriptor_configuration_cb,"ax",%progbits
  47              		.align	1
  48              		.p2align 2,,3
ARM GAS  /var/folders/84/_x1cyy_j36g486tldtwl37280000gn/T//ccR5gxkH.s 			page 3


  49              		.global	tud_descriptor_configuration_cb
  50              		.syntax unified
  51              		.thumb
  52              		.thumb_func
  53              		.fpu fpv4-sp-d16
  55              	tud_descriptor_configuration_cb:
  56              	.LVL0:
  57              	.LFB75:
  69:Drivers/Usb/usb_descriptors.c **** 
  70:Drivers/Usb/usb_descriptors.c **** 
  71:Drivers/Usb/usb_descriptors.c **** //--------------------------------------------------------------------+
  72:Drivers/Usb/usb_descriptors.c **** // Configuration Descriptor
  73:Drivers/Usb/usb_descriptors.c **** //--------------------------------------------------------------------+
  74:Drivers/Usb/usb_descriptors.c **** 
  75:Drivers/Usb/usb_descriptors.c **** enum
  76:Drivers/Usb/usb_descriptors.c **** {
  77:Drivers/Usb/usb_descriptors.c ****   ITF_NUM_MIDI = 0,
  78:Drivers/Usb/usb_descriptors.c ****   ITF_NUM_MIDI_STREAMING,
  79:Drivers/Usb/usb_descriptors.c ****   ITF_NUM_TOTAL
  80:Drivers/Usb/usb_descriptors.c **** };
  81:Drivers/Usb/usb_descriptors.c **** 
  82:Drivers/Usb/usb_descriptors.c **** #define CONFIG_TOTAL_LEN  (TUD_CONFIG_DESC_LEN + TUD_MIDI_DESC_LEN)
  83:Drivers/Usb/usb_descriptors.c **** 
  84:Drivers/Usb/usb_descriptors.c **** #if CFG_TUSB_MCU == OPT_MCU_LPC175X_6X || CFG_TUSB_MCU == OPT_MCU_LPC177X_8X || CFG_TUSB_MCU == OPT
  85:Drivers/Usb/usb_descriptors.c ****   // LPC 17xx and 40xx endpoint type (bulk/interrupt/iso) are fixed by its number
  86:Drivers/Usb/usb_descriptors.c ****   // 0 control, 1 In, 2 Bulk, 3 Iso, 4 In etc ...
  87:Drivers/Usb/usb_descriptors.c ****   #define EPNUM_MIDI_OUT   0x02
  88:Drivers/Usb/usb_descriptors.c ****   #define EPNUM_MIDI_IN   0x02
  89:Drivers/Usb/usb_descriptors.c **** #elif CFG_TUSB_MCU == OPT_MCU_FT90X || CFG_TUSB_MCU == OPT_MCU_FT93X
  90:Drivers/Usb/usb_descriptors.c ****   // On Bridgetek FT9xx endpoint numbers must be unique...
  91:Drivers/Usb/usb_descriptors.c ****   #define EPNUM_MIDI_OUT   0x02
  92:Drivers/Usb/usb_descriptors.c ****   #define EPNUM_MIDI_IN   0x03
  93:Drivers/Usb/usb_descriptors.c **** #else
  94:Drivers/Usb/usb_descriptors.c ****   #define EPNUM_MIDI_OUT   0x01
  95:Drivers/Usb/usb_descriptors.c ****   #define EPNUM_MIDI_IN   0x01
  96:Drivers/Usb/usb_descriptors.c **** #endif
  97:Drivers/Usb/usb_descriptors.c **** 
  98:Drivers/Usb/usb_descriptors.c **** uint8_t const desc_fs_configuration[] =
  99:Drivers/Usb/usb_descriptors.c **** {
 100:Drivers/Usb/usb_descriptors.c ****   // Config number, interface count, string index, total length, attribute, power in mA
 101:Drivers/Usb/usb_descriptors.c ****   TUD_CONFIG_DESCRIPTOR(1, ITF_NUM_TOTAL, 0, CONFIG_TOTAL_LEN, 0x00, 100),
 102:Drivers/Usb/usb_descriptors.c **** 
 103:Drivers/Usb/usb_descriptors.c ****   // Interface number, string index, EP Out & EP In address, EP size
 104:Drivers/Usb/usb_descriptors.c ****   TUD_MIDI_DESCRIPTOR(ITF_NUM_MIDI, 0, EPNUM_MIDI_OUT, (0x80 | EPNUM_MIDI_IN), 64)
 105:Drivers/Usb/usb_descriptors.c **** };
 106:Drivers/Usb/usb_descriptors.c **** 
 107:Drivers/Usb/usb_descriptors.c **** #if TUD_OPT_HIGH_SPEED
 108:Drivers/Usb/usb_descriptors.c **** uint8_t const desc_hs_configuration[] =
 109:Drivers/Usb/usb_descriptors.c **** {
 110:Drivers/Usb/usb_descriptors.c ****   // Config number, interface count, string index, total length, attribute, power in mA
 111:Drivers/Usb/usb_descriptors.c ****   TUD_CONFIG_DESCRIPTOR(1, ITF_NUM_TOTAL, 0, CONFIG_TOTAL_LEN, 0x00, 100),
 112:Drivers/Usb/usb_descriptors.c **** 
 113:Drivers/Usb/usb_descriptors.c ****   // Interface number, string index, EP Out & EP In address, EP size
 114:Drivers/Usb/usb_descriptors.c ****   TUD_MIDI_DESCRIPTOR(ITF_NUM_MIDI, 0, EPNUM_MIDI_OUT, (0x80 | EPNUM_MIDI_IN), 512)
 115:Drivers/Usb/usb_descriptors.c **** };
 116:Drivers/Usb/usb_descriptors.c **** #endif
 117:Drivers/Usb/usb_descriptors.c **** 
ARM GAS  /var/folders/84/_x1cyy_j36g486tldtwl37280000gn/T//ccR5gxkH.s 			page 4


 118:Drivers/Usb/usb_descriptors.c **** // Invoked when received GET CONFIGURATION DESCRIPTOR
 119:Drivers/Usb/usb_descriptors.c **** // Application return pointer to descriptor
 120:Drivers/Usb/usb_descriptors.c **** // Descriptor contents must exist long enough for transfer to complete
 121:Drivers/Usb/usb_descriptors.c **** uint8_t const * tud_descriptor_configuration_cb(uint8_t index)
 122:Drivers/Usb/usb_descriptors.c **** {
  58              		.loc 1 122 1 is_stmt 1 view -0
  59              		.cfi_startproc
  60              		@ args = 0, pretend = 0, frame = 0
  61              		@ frame_needed = 0, uses_anonymous_args = 0
  62              		@ link register save eliminated.
 123:Drivers/Usb/usb_descriptors.c ****   (void) index; // for multiple configurations
  63              		.loc 1 123 3 view .LVU4
 124:Drivers/Usb/usb_descriptors.c **** 
 125:Drivers/Usb/usb_descriptors.c **** #if TUD_OPT_HIGH_SPEED
 126:Drivers/Usb/usb_descriptors.c ****   // Although we are highspeed, host may be fullspeed.
 127:Drivers/Usb/usb_descriptors.c ****   return (tud_speed_get() == TUSB_SPEED_HIGH) ?  desc_hs_configuration : desc_fs_configuration;
 128:Drivers/Usb/usb_descriptors.c **** #else
 129:Drivers/Usb/usb_descriptors.c ****   return desc_fs_configuration;
  64              		.loc 1 129 3 view .LVU5
 130:Drivers/Usb/usb_descriptors.c **** #endif
 131:Drivers/Usb/usb_descriptors.c **** }
  65              		.loc 1 131 1 is_stmt 0 view .LVU6
  66 0000 0048     		ldr	r0, .L6
  67              	.LVL1:
  68              		.loc 1 131 1 view .LVU7
  69 0002 7047     		bx	lr
  70              	.L7:
  71              		.align	2
  72              	.L6:
  73 0004 00000000 		.word	.LANCHOR1
  74              		.cfi_endproc
  75              	.LFE75:
  77              		.section	.rodata.tud_descriptor_string_cb.str1.4,"aMS",%progbits,1
  78              		.align	2
  79              	.LC0:
  80 0000 30313233 		.ascii	"0123456789ABCDEF\000"
  80      34353637 
  80      38394142 
  80      43444546 
  80      00
  81              		.section	.text.tud_descriptor_string_cb,"ax",%progbits
  82              		.align	1
  83              		.p2align 2,,3
  84              		.global	tud_descriptor_string_cb
  85              		.syntax unified
  86              		.thumb
  87              		.thumb_func
  88              		.fpu fpv4-sp-d16
  90              	tud_descriptor_string_cb:
  91              	.LVL2:
  92              	.LFB76:
 132:Drivers/Usb/usb_descriptors.c **** 
 133:Drivers/Usb/usb_descriptors.c **** //--------------------------------------------------------------------+
 134:Drivers/Usb/usb_descriptors.c **** // String Descriptors
 135:Drivers/Usb/usb_descriptors.c **** //--------------------------------------------------------------------+
 136:Drivers/Usb/usb_descriptors.c **** 
 137:Drivers/Usb/usb_descriptors.c **** // String Descriptor Index
ARM GAS  /var/folders/84/_x1cyy_j36g486tldtwl37280000gn/T//ccR5gxkH.s 			page 5


 138:Drivers/Usb/usb_descriptors.c **** enum {
 139:Drivers/Usb/usb_descriptors.c ****   STRID_LANGID = 0,
 140:Drivers/Usb/usb_descriptors.c ****   STRID_MANUFACTURER,
 141:Drivers/Usb/usb_descriptors.c ****   STRID_PRODUCT,
 142:Drivers/Usb/usb_descriptors.c ****   STRID_SERIAL,
 143:Drivers/Usb/usb_descriptors.c **** };
 144:Drivers/Usb/usb_descriptors.c **** 
 145:Drivers/Usb/usb_descriptors.c **** // array of pointer to string descriptors
 146:Drivers/Usb/usb_descriptors.c **** char const *string_desc_arr[] =
 147:Drivers/Usb/usb_descriptors.c **** {
 148:Drivers/Usb/usb_descriptors.c ****   (const char[]) { 0x09, 0x04 }, // 0: is supported language is English (0x0409)
 149:Drivers/Usb/usb_descriptors.c ****   "Joost Seq",                     // 1: Manufacturer
 150:Drivers/Usb/usb_descriptors.c ****   "Midi & CV Sequencer",              // 2: Product
 151:Drivers/Usb/usb_descriptors.c ****   NULL,                          // 3: Serials will use unique ID if possible
 152:Drivers/Usb/usb_descriptors.c **** };
 153:Drivers/Usb/usb_descriptors.c **** 
 154:Drivers/Usb/usb_descriptors.c **** static uint16_t _desc_str[32 + 1];
 155:Drivers/Usb/usb_descriptors.c **** 
 156:Drivers/Usb/usb_descriptors.c **** // Invoked when received GET STRING DESCRIPTOR request
 157:Drivers/Usb/usb_descriptors.c **** // Application return pointer to descriptor, whose contents must exist long enough for transfer to 
 158:Drivers/Usb/usb_descriptors.c **** uint16_t const *tud_descriptor_string_cb(uint8_t index, uint16_t langid) {
  93              		.loc 1 158 74 is_stmt 1 view -0
  94              		.cfi_startproc
  95              		@ args = 0, pretend = 0, frame = 32
  96              		@ frame_needed = 0, uses_anonymous_args = 0
 159:Drivers/Usb/usb_descriptors.c ****   (void) langid;
  97              		.loc 1 159 3 view .LVU9
 160:Drivers/Usb/usb_descriptors.c ****   size_t chr_count;
  98              		.loc 1 160 3 view .LVU10
 161:Drivers/Usb/usb_descriptors.c **** 
 162:Drivers/Usb/usb_descriptors.c ****   switch ( index ) {
  99              		.loc 1 162 3 view .LVU11
 158:Drivers/Usb/usb_descriptors.c ****   (void) langid;
 100              		.loc 1 158 74 is_stmt 0 view .LVU12
 101 0000 2DE9F043 		push	{r4, r5, r6, r7, r8, r9, lr}
 102              		.cfi_def_cfa_offset 28
 103              		.cfi_offset 4, -28
 104              		.cfi_offset 5, -24
 105              		.cfi_offset 6, -20
 106              		.cfi_offset 7, -16
 107              		.cfi_offset 8, -12
 108              		.cfi_offset 9, -8
 109              		.cfi_offset 14, -4
 110 0004 89B0     		sub	sp, sp, #36
 111              		.cfi_def_cfa_offset 64
 112              		.loc 1 162 3 view .LVU13
 113 0006 0028     		cmp	r0, #0
 114 0008 7ED0     		beq	.L9
 115 000a 0328     		cmp	r0, #3
 116 000c 00F08480 		beq	.L10
 117              	.LBB14:
 163:Drivers/Usb/usb_descriptors.c ****     case STRID_LANGID:
 164:Drivers/Usb/usb_descriptors.c ****       memcpy(&_desc_str[1], string_desc_arr[0], 2);
 165:Drivers/Usb/usb_descriptors.c ****       chr_count = 1;
 166:Drivers/Usb/usb_descriptors.c ****       break;
 167:Drivers/Usb/usb_descriptors.c **** 
 168:Drivers/Usb/usb_descriptors.c ****     case STRID_SERIAL:
ARM GAS  /var/folders/84/_x1cyy_j36g486tldtwl37280000gn/T//ccR5gxkH.s 			page 6


 169:Drivers/Usb/usb_descriptors.c ****       chr_count = board_usb_get_serial(_desc_str + 1, 32);
 170:Drivers/Usb/usb_descriptors.c ****       break;
 171:Drivers/Usb/usb_descriptors.c **** 
 172:Drivers/Usb/usb_descriptors.c ****     default:
 173:Drivers/Usb/usb_descriptors.c ****       // Note: the 0xEE index string is a Microsoft OS 1.0 Descriptors.
 174:Drivers/Usb/usb_descriptors.c ****       // https://docs.microsoft.com/en-us/windows-hardware/drivers/usbcon/microsoft-defined-usb-des
 175:Drivers/Usb/usb_descriptors.c **** 
 176:Drivers/Usb/usb_descriptors.c ****       if ( !(index < sizeof(string_desc_arr) / sizeof(string_desc_arr[0])) ) return NULL;
 118              		.loc 1 176 7 is_stmt 1 view .LVU14
 119              		.loc 1 176 10 is_stmt 0 view .LVU15
 120 0010 00F2D381 		bhi	.L19
 177:Drivers/Usb/usb_descriptors.c **** 
 178:Drivers/Usb/usb_descriptors.c ****       const char *str = string_desc_arr[index];
 121              		.loc 1 178 7 is_stmt 1 view .LVU16
 122              		.loc 1 178 19 is_stmt 0 view .LVU17
 123 0014 D94E     		ldr	r6, .L100
 124 0016 56F82040 		ldr	r4, [r6, r0, lsl #2]
 125              	.LVL3:
 179:Drivers/Usb/usb_descriptors.c **** 
 180:Drivers/Usb/usb_descriptors.c ****       // Cap at max char
 181:Drivers/Usb/usb_descriptors.c ****       chr_count = strlen(str);
 126              		.loc 1 181 7 is_stmt 1 view .LVU18
 127              		.loc 1 181 19 is_stmt 0 view .LVU19
 128 001a 2046     		mov	r0, r4
 129              	.LVL4:
 130              		.loc 1 181 19 view .LVU20
 131 001c FFF7FEFF 		bl	strlen
 132              	.LVL5:
 182:Drivers/Usb/usb_descriptors.c ****       size_t const max_count = sizeof(_desc_str) / sizeof(_desc_str[0]) - 1; // -1 for string type
 133              		.loc 1 182 7 is_stmt 1 view .LVU21
 183:Drivers/Usb/usb_descriptors.c ****       if ( chr_count > max_count ) chr_count = max_count;
 134              		.loc 1 183 7 view .LVU22
 135 0020 2028     		cmp	r0, #32
 136 0022 0246     		mov	r2, r0
 137 0024 28BF     		it	cs
 138 0026 2022     		movcs	r2, #32
 139              	.LVL6:
 184:Drivers/Usb/usb_descriptors.c **** 
 185:Drivers/Usb/usb_descriptors.c ****       // Convert ASCII string into UTF-16
 186:Drivers/Usb/usb_descriptors.c ****       for ( size_t i = 0; i < chr_count; i++ ) {
 140              		.loc 1 186 7 view .LVU23
 141              	.LBB15:
 142              		.loc 1 186 13 view .LVU24
 143              		.loc 1 186 27 view .LVU25
 144              		.loc 1 186 7 is_stmt 0 view .LVU26
 145 0028 0028     		cmp	r0, #0
 146 002a 00F0CC81 		beq	.L20
 187:Drivers/Usb/usb_descriptors.c ****         _desc_str[1 + i] = str[i];
 147              		.loc 1 187 31 view .LVU27
 148 002e 2546     		mov	r5, r4
 149 0030 D34E     		ldr	r6, .L100+4
 150 0032 15F8011B 		ldrb	r1, [r5], #1	@ zero_extendqisi2
 151 0036 B646     		mov	lr, r6
 186:Drivers/Usb/usb_descriptors.c ****         _desc_str[1 + i] = str[i];
 152              		.loc 1 186 7 view .LVU28
 153 0038 2B1B     		subs	r3, r5, r4
 154 003a 02F1FF39 		add	r9, r2, #-1
ARM GAS  /var/folders/84/_x1cyy_j36g486tldtwl37280000gn/T//ccR5gxkH.s 			page 7


 155 003e 9A42     		cmp	r2, r3
 156              		.loc 1 187 31 view .LVU29
 157 0040 2EF8021F 		strh	r1, [lr, #2]!	@ movhi
 158 0044 09F00700 		and	r0, r9, #7
 159              		.loc 1 187 9 is_stmt 1 view .LVU30
 186:Drivers/Usb/usb_descriptors.c ****         _desc_str[1 + i] = str[i];
 160              		.loc 1 186 42 view .LVU31
 186:Drivers/Usb/usb_descriptors.c ****         _desc_str[1 + i] = str[i];
 161              		.loc 1 186 27 view .LVU32
 162 0048 A046     		mov	r8, r4
 186:Drivers/Usb/usb_descriptors.c ****         _desc_str[1 + i] = str[i];
 163              		.loc 1 186 7 is_stmt 0 view .LVU33
 164 004a 52D9     		bls	.L98
 165 004c 60B3     		cbz	r0, .L17
 166 004e 0128     		cmp	r0, #1
 167 0050 21D0     		beq	.L71
 168 0052 0228     		cmp	r0, #2
 169 0054 1BD0     		beq	.L72
 170 0056 0328     		cmp	r0, #3
 171 0058 15D0     		beq	.L73
 172 005a 0428     		cmp	r0, #4
 173 005c 0FD0     		beq	.L74
 174 005e 0528     		cmp	r0, #5
 175 0060 09D0     		beq	.L75
 176 0062 0628     		cmp	r0, #6
 177              		.loc 1 187 9 is_stmt 1 view .LVU34
 178              		.loc 1 187 31 is_stmt 0 view .LVU35
 179 0064 1CBF     		itt	ne
 180 0066 18F8010F 		ldrbne	r0, [r8, #1]!	@ zero_extendqisi2
 181 006a 2EF8020F 		strhne	r0, [lr, #2]!	@ movhi
 186:Drivers/Usb/usb_descriptors.c ****         _desc_str[1 + i] = str[i];
 182              		.loc 1 186 42 is_stmt 1 view .LVU36
 186:Drivers/Usb/usb_descriptors.c ****         _desc_str[1 + i] = str[i];
 183              		.loc 1 186 27 view .LVU37
 184              		.loc 1 187 9 view .LVU38
 185              		.loc 1 187 31 is_stmt 0 view .LVU39
 186 006e 18F8017F 		ldrb	r7, [r8, #1]!	@ zero_extendqisi2
 187 0072 2EF8027F 		strh	r7, [lr, #2]!	@ movhi
 186:Drivers/Usb/usb_descriptors.c ****         _desc_str[1 + i] = str[i];
 188              		.loc 1 186 42 is_stmt 1 view .LVU40
 186:Drivers/Usb/usb_descriptors.c ****         _desc_str[1 + i] = str[i];
 189              		.loc 1 186 27 view .LVU41
 190              	.L75:
 191              		.loc 1 187 9 view .LVU42
 192              		.loc 1 187 31 is_stmt 0 view .LVU43
 193 0076 18F8015F 		ldrb	r5, [r8, #1]!	@ zero_extendqisi2
 194 007a 2EF8025F 		strh	r5, [lr, #2]!	@ movhi
 186:Drivers/Usb/usb_descriptors.c ****         _desc_str[1 + i] = str[i];
 195              		.loc 1 186 42 is_stmt 1 view .LVU44
 186:Drivers/Usb/usb_descriptors.c ****         _desc_str[1 + i] = str[i];
 196              		.loc 1 186 27 view .LVU45
 197              	.LVL7:
 198              	.L74:
 199              		.loc 1 187 9 view .LVU46
 200              		.loc 1 187 31 is_stmt 0 view .LVU47
 201 007e 18F8011F 		ldrb	r1, [r8, #1]!	@ zero_extendqisi2
 202 0082 2EF8021F 		strh	r1, [lr, #2]!	@ movhi
ARM GAS  /var/folders/84/_x1cyy_j36g486tldtwl37280000gn/T//ccR5gxkH.s 			page 8


 186:Drivers/Usb/usb_descriptors.c ****         _desc_str[1 + i] = str[i];
 203              		.loc 1 186 42 is_stmt 1 view .LVU48
 186:Drivers/Usb/usb_descriptors.c ****         _desc_str[1 + i] = str[i];
 204              		.loc 1 186 27 view .LVU49
 205              	.LVL8:
 206              	.L73:
 207              		.loc 1 187 9 view .LVU50
 208              		.loc 1 187 31 is_stmt 0 view .LVU51
 209 0086 18F8013F 		ldrb	r3, [r8, #1]!	@ zero_extendqisi2
 210 008a 2EF8023F 		strh	r3, [lr, #2]!	@ movhi
 186:Drivers/Usb/usb_descriptors.c ****         _desc_str[1 + i] = str[i];
 211              		.loc 1 186 42 is_stmt 1 view .LVU52
 186:Drivers/Usb/usb_descriptors.c ****         _desc_str[1 + i] = str[i];
 212              		.loc 1 186 27 view .LVU53
 213              	.LVL9:
 214              	.L72:
 215              		.loc 1 187 9 view .LVU54
 216              		.loc 1 187 31 is_stmt 0 view .LVU55
 217 008e 18F801CF 		ldrb	ip, [r8, #1]!	@ zero_extendqisi2
 218 0092 2EF802CF 		strh	ip, [lr, #2]!	@ movhi
 186:Drivers/Usb/usb_descriptors.c ****         _desc_str[1 + i] = str[i];
 219              		.loc 1 186 42 is_stmt 1 view .LVU56
 186:Drivers/Usb/usb_descriptors.c ****         _desc_str[1 + i] = str[i];
 220              		.loc 1 186 27 view .LVU57
 221              	.LVL10:
 222              	.L71:
 223              		.loc 1 187 9 view .LVU58
 224 0096 4046     		mov	r0, r8
 186:Drivers/Usb/usb_descriptors.c ****         _desc_str[1 + i] = str[i];
 225              		.loc 1 186 7 is_stmt 0 view .LVU59
 226 0098 0230     		adds	r0, r0, #2
 227 009a 071B     		subs	r7, r0, r4
 228              		.loc 1 187 31 view .LVU60
 229 009c 18F8019F 		ldrb	r9, [r8, #1]!	@ zero_extendqisi2
 230 00a0 2EF8029F 		strh	r9, [lr, #2]!	@ movhi
 186:Drivers/Usb/usb_descriptors.c ****         _desc_str[1 + i] = str[i];
 231              		.loc 1 186 42 is_stmt 1 view .LVU61
 186:Drivers/Usb/usb_descriptors.c ****         _desc_str[1 + i] = str[i];
 232              		.loc 1 186 27 view .LVU62
 186:Drivers/Usb/usb_descriptors.c ****         _desc_str[1 + i] = str[i];
 233              		.loc 1 186 7 is_stmt 0 view .LVU63
 234 00a4 BA42     		cmp	r2, r7
 235 00a6 24D9     		bls	.L98
 236              	.LVL11:
 237              	.L17:
 238              		.loc 1 187 9 is_stmt 1 discriminator 3 view .LVU64
 239              		.loc 1 187 31 is_stmt 0 discriminator 3 view .LVU65
 240 00a8 98F80150 		ldrb	r5, [r8, #1]	@ zero_extendqisi2
 241 00ac AEF80250 		strh	r5, [lr, #2]	@ movhi
 186:Drivers/Usb/usb_descriptors.c ****         _desc_str[1 + i] = str[i];
 242              		.loc 1 186 42 is_stmt 1 discriminator 3 view .LVU66
 186:Drivers/Usb/usb_descriptors.c ****         _desc_str[1 + i] = str[i];
 243              		.loc 1 186 27 discriminator 3 view .LVU67
 244              		.loc 1 187 9 discriminator 3 view .LVU68
 245              		.loc 1 187 31 is_stmt 0 discriminator 3 view .LVU69
 246 00b0 98F80210 		ldrb	r1, [r8, #2]	@ zero_extendqisi2
 247 00b4 AEF80410 		strh	r1, [lr, #4]	@ movhi
ARM GAS  /var/folders/84/_x1cyy_j36g486tldtwl37280000gn/T//ccR5gxkH.s 			page 9


 186:Drivers/Usb/usb_descriptors.c ****         _desc_str[1 + i] = str[i];
 248              		.loc 1 186 42 is_stmt 1 discriminator 3 view .LVU70
 186:Drivers/Usb/usb_descriptors.c ****         _desc_str[1 + i] = str[i];
 249              		.loc 1 186 27 discriminator 3 view .LVU71
 250              		.loc 1 187 9 discriminator 3 view .LVU72
 251              		.loc 1 187 31 is_stmt 0 discriminator 3 view .LVU73
 252 00b8 98F80330 		ldrb	r3, [r8, #3]	@ zero_extendqisi2
 253 00bc AEF80630 		strh	r3, [lr, #6]	@ movhi
 186:Drivers/Usb/usb_descriptors.c ****         _desc_str[1 + i] = str[i];
 254              		.loc 1 186 42 is_stmt 1 discriminator 3 view .LVU74
 186:Drivers/Usb/usb_descriptors.c ****         _desc_str[1 + i] = str[i];
 255              		.loc 1 186 27 discriminator 3 view .LVU75
 256              		.loc 1 187 9 discriminator 3 view .LVU76
 257              		.loc 1 187 31 is_stmt 0 discriminator 3 view .LVU77
 258 00c0 98F804C0 		ldrb	ip, [r8, #4]	@ zero_extendqisi2
 259 00c4 AEF808C0 		strh	ip, [lr, #8]	@ movhi
 186:Drivers/Usb/usb_descriptors.c ****         _desc_str[1 + i] = str[i];
 260              		.loc 1 186 42 is_stmt 1 discriminator 3 view .LVU78
 186:Drivers/Usb/usb_descriptors.c ****         _desc_str[1 + i] = str[i];
 261              		.loc 1 186 27 discriminator 3 view .LVU79
 262              		.loc 1 187 9 discriminator 3 view .LVU80
 263              		.loc 1 187 31 is_stmt 0 discriminator 3 view .LVU81
 264 00c8 98F80500 		ldrb	r0, [r8, #5]	@ zero_extendqisi2
 265 00cc AEF80A00 		strh	r0, [lr, #10]	@ movhi
 186:Drivers/Usb/usb_descriptors.c ****         _desc_str[1 + i] = str[i];
 266              		.loc 1 186 42 is_stmt 1 discriminator 3 view .LVU82
 186:Drivers/Usb/usb_descriptors.c ****         _desc_str[1 + i] = str[i];
 267              		.loc 1 186 27 discriminator 3 view .LVU83
 268              		.loc 1 187 9 discriminator 3 view .LVU84
 269              		.loc 1 187 31 is_stmt 0 discriminator 3 view .LVU85
 270 00d0 98F80670 		ldrb	r7, [r8, #6]	@ zero_extendqisi2
 271 00d4 AEF80C70 		strh	r7, [lr, #12]	@ movhi
 186:Drivers/Usb/usb_descriptors.c ****         _desc_str[1 + i] = str[i];
 272              		.loc 1 186 42 is_stmt 1 discriminator 3 view .LVU86
 186:Drivers/Usb/usb_descriptors.c ****         _desc_str[1 + i] = str[i];
 273              		.loc 1 186 27 discriminator 3 view .LVU87
 274              		.loc 1 187 9 discriminator 3 view .LVU88
 275              		.loc 1 187 31 is_stmt 0 discriminator 3 view .LVU89
 276 00d8 98F80750 		ldrb	r5, [r8, #7]	@ zero_extendqisi2
 277 00dc AEF80E50 		strh	r5, [lr, #14]	@ movhi
 186:Drivers/Usb/usb_descriptors.c ****         _desc_str[1 + i] = str[i];
 278              		.loc 1 186 42 is_stmt 1 discriminator 3 view .LVU90
 186:Drivers/Usb/usb_descriptors.c ****         _desc_str[1 + i] = str[i];
 279              		.loc 1 186 27 discriminator 3 view .LVU91
 280              		.loc 1 187 9 discriminator 3 view .LVU92
 186:Drivers/Usb/usb_descriptors.c ****         _desc_str[1 + i] = str[i];
 281              		.loc 1 186 7 is_stmt 0 discriminator 3 view .LVU93
 282 00e0 08F10901 		add	r1, r8, #9
 283 00e4 0B1B     		subs	r3, r1, r4
 284              		.loc 1 187 31 discriminator 3 view .LVU94
 285 00e6 18F8080F 		ldrb	r0, [r8, #8]!	@ zero_extendqisi2
 286 00ea 2EF8100F 		strh	r0, [lr, #16]!	@ movhi
 186:Drivers/Usb/usb_descriptors.c ****         _desc_str[1 + i] = str[i];
 287              		.loc 1 186 42 is_stmt 1 discriminator 3 view .LVU95
 186:Drivers/Usb/usb_descriptors.c ****         _desc_str[1 + i] = str[i];
 288              		.loc 1 186 27 discriminator 3 view .LVU96
 186:Drivers/Usb/usb_descriptors.c ****         _desc_str[1 + i] = str[i];
ARM GAS  /var/folders/84/_x1cyy_j36g486tldtwl37280000gn/T//ccR5gxkH.s 			page 10


 289              		.loc 1 186 7 is_stmt 0 discriminator 3 view .LVU97
 290 00ee 9A42     		cmp	r2, r3
 291 00f0 DAD8     		bhi	.L17
 292              	.LVL12:
 293              	.L98:
 186:Drivers/Usb/usb_descriptors.c ****         _desc_str[1 + i] = str[i];
 294              		.loc 1 186 7 discriminator 3 view .LVU98
 295 00f2 541C     		adds	r4, r2, #1
 296              	.LVL13:
 186:Drivers/Usb/usb_descriptors.c ****         _desc_str[1 + i] = str[i];
 297              		.loc 1 186 7 discriminator 3 view .LVU99
 298 00f4 6200     		lsls	r2, r4, #1
 299              	.LVL14:
 186:Drivers/Usb/usb_descriptors.c ****         _desc_str[1 + i] = str[i];
 300              		.loc 1 186 7 discriminator 3 view .LVU100
 301 00f6 42F4407E 		orr	lr, r2, #768
 302 00fa 1FFA8EF7 		uxth	r7, lr
 303              	.LVL15:
 304              	.L12:
 186:Drivers/Usb/usb_descriptors.c ****         _desc_str[1 + i] = str[i];
 305              		.loc 1 186 7 discriminator 3 view .LVU101
 306              	.LBE15:
 307              	.LBE14:
 188:Drivers/Usb/usb_descriptors.c ****       }
 189:Drivers/Usb/usb_descriptors.c ****       break;
 190:Drivers/Usb/usb_descriptors.c ****   }
 191:Drivers/Usb/usb_descriptors.c **** 
 192:Drivers/Usb/usb_descriptors.c ****   // first byte is length (including header), second byte is string type
 193:Drivers/Usb/usb_descriptors.c ****   _desc_str[0] = (uint16_t) ((TUSB_DESC_STRING << 8) | (2 * chr_count + 2));
 308              		.loc 1 193 3 is_stmt 1 view .LVU102
 194:Drivers/Usb/usb_descriptors.c **** 
 195:Drivers/Usb/usb_descriptors.c ****   return _desc_str;
 309              		.loc 1 195 10 is_stmt 0 view .LVU103
 310 00fe A048     		ldr	r0, .L100+4
 193:Drivers/Usb/usb_descriptors.c **** 
 311              		.loc 1 193 16 view .LVU104
 312 0100 3780     		strh	r7, [r6]	@ movhi
 313              		.loc 1 195 3 is_stmt 1 view .LVU105
 314              	.L8:
 196:Drivers/Usb/usb_descriptors.c **** }
 315              		.loc 1 196 1 is_stmt 0 view .LVU106
 316 0102 09B0     		add	sp, sp, #36
 317              		.cfi_remember_state
 318              		.cfi_def_cfa_offset 28
 319              		@ sp needed
 320 0104 BDE8F083 		pop	{r4, r5, r6, r7, r8, r9, pc}
 321              	.LVL16:
 322              	.L9:
 323              		.cfi_restore_state
 324              	.LBB118:
 164:Drivers/Usb/usb_descriptors.c ****       chr_count = 1;
 325              		.loc 1 164 7 is_stmt 1 view .LVU107
 164:Drivers/Usb/usb_descriptors.c ****       chr_count = 1;
 326              		.loc 1 164 44 is_stmt 0 view .LVU108
 327 0108 9C4B     		ldr	r3, .L100
 164:Drivers/Usb/usb_descriptors.c ****       chr_count = 1;
 328              		.loc 1 164 7 view .LVU109
ARM GAS  /var/folders/84/_x1cyy_j36g486tldtwl37280000gn/T//ccR5gxkH.s 			page 11


 329 010a 9D4E     		ldr	r6, .L100+4
 330 010c 1868     		ldr	r0, [r3]
 331              	.LVL17:
 164:Drivers/Usb/usb_descriptors.c ****       chr_count = 1;
 332              		.loc 1 164 7 view .LVU110
 333 010e 0188     		ldrh	r1, [r0]	@ unaligned
 334              	.LVL18:
 164:Drivers/Usb/usb_descriptors.c ****       chr_count = 1;
 335              		.loc 1 164 7 view .LVU111
 336 0110 7180     		strh	r1, [r6, #2]	@ movhi
 165:Drivers/Usb/usb_descriptors.c ****       break;
 337              		.loc 1 165 7 is_stmt 1 view .LVU112
 338              	.LVL19:
 166:Drivers/Usb/usb_descriptors.c **** 
 339              		.loc 1 166 7 view .LVU113
 340 0112 4FF44177 		mov	r7, #772
 341 0116 F2E7     		b	.L12
 342              	.LVL20:
 343              	.L10:
 169:Drivers/Usb/usb_descriptors.c ****       break;
 344              		.loc 1 169 7 view .LVU114
 345              	.LBB16:
 346              	.LBI16:
 347              		.file 2 "/Users/joostbooy/Desktop/Code/stm32/lib/tinyusb/hw/bsp/board_api.h"
   1:/Users/joostbooy/Desktop/Code/stm32/lib/tinyusb/hw/bsp/board_api.h **** /*
   2:/Users/joostbooy/Desktop/Code/stm32/lib/tinyusb/hw/bsp/board_api.h ****  * The MIT License (MIT)
   3:/Users/joostbooy/Desktop/Code/stm32/lib/tinyusb/hw/bsp/board_api.h ****  *
   4:/Users/joostbooy/Desktop/Code/stm32/lib/tinyusb/hw/bsp/board_api.h ****  * Copyright (c) 2019 Ha Thach (tinyusb.org)
   5:/Users/joostbooy/Desktop/Code/stm32/lib/tinyusb/hw/bsp/board_api.h ****  *
   6:/Users/joostbooy/Desktop/Code/stm32/lib/tinyusb/hw/bsp/board_api.h ****  * Permission is hereby granted, free of charge, to any person obtaining a copy
   7:/Users/joostbooy/Desktop/Code/stm32/lib/tinyusb/hw/bsp/board_api.h ****  * of this software and associated documentation files (the "Software"), to deal
   8:/Users/joostbooy/Desktop/Code/stm32/lib/tinyusb/hw/bsp/board_api.h ****  * in the Software without restriction, including without limitation the rights
   9:/Users/joostbooy/Desktop/Code/stm32/lib/tinyusb/hw/bsp/board_api.h ****  * to use, copy, modify, merge, publish, distribute, sublicense, and/or sell
  10:/Users/joostbooy/Desktop/Code/stm32/lib/tinyusb/hw/bsp/board_api.h ****  * copies of the Software, and to permit persons to whom the Software is
  11:/Users/joostbooy/Desktop/Code/stm32/lib/tinyusb/hw/bsp/board_api.h ****  * furnished to do so, subject to the following conditions:
  12:/Users/joostbooy/Desktop/Code/stm32/lib/tinyusb/hw/bsp/board_api.h ****  *
  13:/Users/joostbooy/Desktop/Code/stm32/lib/tinyusb/hw/bsp/board_api.h ****  * The above copyright notice and this permission notice shall be included in
  14:/Users/joostbooy/Desktop/Code/stm32/lib/tinyusb/hw/bsp/board_api.h ****  * all copies or substantial portions of the Software.
  15:/Users/joostbooy/Desktop/Code/stm32/lib/tinyusb/hw/bsp/board_api.h ****  *
  16:/Users/joostbooy/Desktop/Code/stm32/lib/tinyusb/hw/bsp/board_api.h ****  * THE SOFTWARE IS PROVIDED "AS IS", WITHOUT WARRANTY OF ANY KIND, EXPRESS OR
  17:/Users/joostbooy/Desktop/Code/stm32/lib/tinyusb/hw/bsp/board_api.h ****  * IMPLIED, INCLUDING BUT NOT LIMITED TO THE WARRANTIES OF MERCHANTABILITY,
  18:/Users/joostbooy/Desktop/Code/stm32/lib/tinyusb/hw/bsp/board_api.h ****  * FITNESS FOR A PARTICULAR PURPOSE AND NONINFRINGEMENT. IN NO EVENT SHALL THE
  19:/Users/joostbooy/Desktop/Code/stm32/lib/tinyusb/hw/bsp/board_api.h ****  * AUTHORS OR COPYRIGHT HOLDERS BE LIABLE FOR ANY CLAIM, DAMAGES OR OTHER
  20:/Users/joostbooy/Desktop/Code/stm32/lib/tinyusb/hw/bsp/board_api.h ****  * LIABILITY, WHETHER IN AN ACTION OF CONTRACT, TORT OR OTHERWISE, ARISING FROM,
  21:/Users/joostbooy/Desktop/Code/stm32/lib/tinyusb/hw/bsp/board_api.h ****  * OUT OF OR IN CONNECTION WITH THE SOFTWARE OR THE USE OR OTHER DEALINGS IN
  22:/Users/joostbooy/Desktop/Code/stm32/lib/tinyusb/hw/bsp/board_api.h ****  * THE SOFTWARE.
  23:/Users/joostbooy/Desktop/Code/stm32/lib/tinyusb/hw/bsp/board_api.h ****  *
  24:/Users/joostbooy/Desktop/Code/stm32/lib/tinyusb/hw/bsp/board_api.h ****  * This file is part of the TinyUSB stack.
  25:/Users/joostbooy/Desktop/Code/stm32/lib/tinyusb/hw/bsp/board_api.h ****  */
  26:/Users/joostbooy/Desktop/Code/stm32/lib/tinyusb/hw/bsp/board_api.h **** 
  27:/Users/joostbooy/Desktop/Code/stm32/lib/tinyusb/hw/bsp/board_api.h **** #ifndef _BOARD_API_H_
  28:/Users/joostbooy/Desktop/Code/stm32/lib/tinyusb/hw/bsp/board_api.h **** #define _BOARD_API_H_
  29:/Users/joostbooy/Desktop/Code/stm32/lib/tinyusb/hw/bsp/board_api.h **** 
  30:/Users/joostbooy/Desktop/Code/stm32/lib/tinyusb/hw/bsp/board_api.h **** #ifdef __cplusplus
  31:/Users/joostbooy/Desktop/Code/stm32/lib/tinyusb/hw/bsp/board_api.h **** extern "C" {
  32:/Users/joostbooy/Desktop/Code/stm32/lib/tinyusb/hw/bsp/board_api.h **** #endif
  33:/Users/joostbooy/Desktop/Code/stm32/lib/tinyusb/hw/bsp/board_api.h **** 
ARM GAS  /var/folders/84/_x1cyy_j36g486tldtwl37280000gn/T//ccR5gxkH.s 			page 12


  34:/Users/joostbooy/Desktop/Code/stm32/lib/tinyusb/hw/bsp/board_api.h **** #include <stdint.h>
  35:/Users/joostbooy/Desktop/Code/stm32/lib/tinyusb/hw/bsp/board_api.h **** #include <stdbool.h>
  36:/Users/joostbooy/Desktop/Code/stm32/lib/tinyusb/hw/bsp/board_api.h **** 
  37:/Users/joostbooy/Desktop/Code/stm32/lib/tinyusb/hw/bsp/board_api.h **** #include "tusb.h"
  38:/Users/joostbooy/Desktop/Code/stm32/lib/tinyusb/hw/bsp/board_api.h **** 
  39:/Users/joostbooy/Desktop/Code/stm32/lib/tinyusb/hw/bsp/board_api.h **** // Define the default baudrate
  40:/Users/joostbooy/Desktop/Code/stm32/lib/tinyusb/hw/bsp/board_api.h **** #ifndef CFG_BOARD_UART_BAUDRATE
  41:/Users/joostbooy/Desktop/Code/stm32/lib/tinyusb/hw/bsp/board_api.h **** #define CFG_BOARD_UART_BAUDRATE 115200   ///< Default baud rate
  42:/Users/joostbooy/Desktop/Code/stm32/lib/tinyusb/hw/bsp/board_api.h **** #endif
  43:/Users/joostbooy/Desktop/Code/stm32/lib/tinyusb/hw/bsp/board_api.h **** 
  44:/Users/joostbooy/Desktop/Code/stm32/lib/tinyusb/hw/bsp/board_api.h **** //--------------------------------------------------------------------+
  45:/Users/joostbooy/Desktop/Code/stm32/lib/tinyusb/hw/bsp/board_api.h **** // Board Porting API
  46:/Users/joostbooy/Desktop/Code/stm32/lib/tinyusb/hw/bsp/board_api.h **** // For simplicity, only one LED and one Button are used
  47:/Users/joostbooy/Desktop/Code/stm32/lib/tinyusb/hw/bsp/board_api.h **** //--------------------------------------------------------------------+
  48:/Users/joostbooy/Desktop/Code/stm32/lib/tinyusb/hw/bsp/board_api.h **** 
  49:/Users/joostbooy/Desktop/Code/stm32/lib/tinyusb/hw/bsp/board_api.h **** // Initialize on-board peripherals : led, button, uart and USB
  50:/Users/joostbooy/Desktop/Code/stm32/lib/tinyusb/hw/bsp/board_api.h **** void board_init(void);
  51:/Users/joostbooy/Desktop/Code/stm32/lib/tinyusb/hw/bsp/board_api.h **** 
  52:/Users/joostbooy/Desktop/Code/stm32/lib/tinyusb/hw/bsp/board_api.h **** // Init board after tinyusb is initialized
  53:/Users/joostbooy/Desktop/Code/stm32/lib/tinyusb/hw/bsp/board_api.h **** void board_init_after_tusb(void) TU_ATTR_WEAK;
  54:/Users/joostbooy/Desktop/Code/stm32/lib/tinyusb/hw/bsp/board_api.h **** 
  55:/Users/joostbooy/Desktop/Code/stm32/lib/tinyusb/hw/bsp/board_api.h **** // Turn LED on or off
  56:/Users/joostbooy/Desktop/Code/stm32/lib/tinyusb/hw/bsp/board_api.h **** void board_led_write(bool state);
  57:/Users/joostbooy/Desktop/Code/stm32/lib/tinyusb/hw/bsp/board_api.h **** 
  58:/Users/joostbooy/Desktop/Code/stm32/lib/tinyusb/hw/bsp/board_api.h **** // Control led pattern using phase duration in ms.
  59:/Users/joostbooy/Desktop/Code/stm32/lib/tinyusb/hw/bsp/board_api.h **** // For each phase, LED is toggle then repeated, board_led_task() is required to be called
  60:/Users/joostbooy/Desktop/Code/stm32/lib/tinyusb/hw/bsp/board_api.h **** //void board_led_pattern(uint32_t const phase_ms[], uint8_t count);
  61:/Users/joostbooy/Desktop/Code/stm32/lib/tinyusb/hw/bsp/board_api.h **** 
  62:/Users/joostbooy/Desktop/Code/stm32/lib/tinyusb/hw/bsp/board_api.h **** // Get the current state of button
  63:/Users/joostbooy/Desktop/Code/stm32/lib/tinyusb/hw/bsp/board_api.h **** // a '1' means active (pressed), a '0' means inactive.
  64:/Users/joostbooy/Desktop/Code/stm32/lib/tinyusb/hw/bsp/board_api.h **** uint32_t board_button_read(void);
  65:/Users/joostbooy/Desktop/Code/stm32/lib/tinyusb/hw/bsp/board_api.h **** 
  66:/Users/joostbooy/Desktop/Code/stm32/lib/tinyusb/hw/bsp/board_api.h **** // Get board unique ID for USB serial number. Return number of bytes. Note max_len is typically 16
  67:/Users/joostbooy/Desktop/Code/stm32/lib/tinyusb/hw/bsp/board_api.h **** TU_ATTR_WEAK size_t board_get_unique_id(uint8_t id[], size_t max_len);
  68:/Users/joostbooy/Desktop/Code/stm32/lib/tinyusb/hw/bsp/board_api.h **** 
  69:/Users/joostbooy/Desktop/Code/stm32/lib/tinyusb/hw/bsp/board_api.h **** // Get characters from UART. Return number of read bytes
  70:/Users/joostbooy/Desktop/Code/stm32/lib/tinyusb/hw/bsp/board_api.h **** int board_uart_read(uint8_t *buf, int len);
  71:/Users/joostbooy/Desktop/Code/stm32/lib/tinyusb/hw/bsp/board_api.h **** 
  72:/Users/joostbooy/Desktop/Code/stm32/lib/tinyusb/hw/bsp/board_api.h **** // Send characters to UART. Return number of sent bytes
  73:/Users/joostbooy/Desktop/Code/stm32/lib/tinyusb/hw/bsp/board_api.h **** int board_uart_write(void const *buf, int len);
  74:/Users/joostbooy/Desktop/Code/stm32/lib/tinyusb/hw/bsp/board_api.h **** 
  75:/Users/joostbooy/Desktop/Code/stm32/lib/tinyusb/hw/bsp/board_api.h **** #if CFG_TUSB_OS == OPT_OS_NONE
  76:/Users/joostbooy/Desktop/Code/stm32/lib/tinyusb/hw/bsp/board_api.h **** // Get current milliseconds, must be implemented when no RTOS is used
  77:/Users/joostbooy/Desktop/Code/stm32/lib/tinyusb/hw/bsp/board_api.h **** uint32_t board_millis(void);
  78:/Users/joostbooy/Desktop/Code/stm32/lib/tinyusb/hw/bsp/board_api.h **** 
  79:/Users/joostbooy/Desktop/Code/stm32/lib/tinyusb/hw/bsp/board_api.h **** #elif CFG_TUSB_OS == OPT_OS_FREERTOS
  80:/Users/joostbooy/Desktop/Code/stm32/lib/tinyusb/hw/bsp/board_api.h **** static inline uint32_t board_millis(void) {
  81:/Users/joostbooy/Desktop/Code/stm32/lib/tinyusb/hw/bsp/board_api.h ****   return ( ( ((uint64_t) xTaskGetTickCount()) * 1000) / configTICK_RATE_HZ );
  82:/Users/joostbooy/Desktop/Code/stm32/lib/tinyusb/hw/bsp/board_api.h **** }
  83:/Users/joostbooy/Desktop/Code/stm32/lib/tinyusb/hw/bsp/board_api.h **** 
  84:/Users/joostbooy/Desktop/Code/stm32/lib/tinyusb/hw/bsp/board_api.h **** #elif CFG_TUSB_OS == OPT_OS_MYNEWT
  85:/Users/joostbooy/Desktop/Code/stm32/lib/tinyusb/hw/bsp/board_api.h **** static inline uint32_t board_millis(void) {
  86:/Users/joostbooy/Desktop/Code/stm32/lib/tinyusb/hw/bsp/board_api.h ****   return os_time_ticks_to_ms32( os_time_get() );
  87:/Users/joostbooy/Desktop/Code/stm32/lib/tinyusb/hw/bsp/board_api.h **** }
  88:/Users/joostbooy/Desktop/Code/stm32/lib/tinyusb/hw/bsp/board_api.h **** 
  89:/Users/joostbooy/Desktop/Code/stm32/lib/tinyusb/hw/bsp/board_api.h **** #elif CFG_TUSB_OS == OPT_OS_PICO
  90:/Users/joostbooy/Desktop/Code/stm32/lib/tinyusb/hw/bsp/board_api.h **** #include "pico/time.h"
ARM GAS  /var/folders/84/_x1cyy_j36g486tldtwl37280000gn/T//ccR5gxkH.s 			page 13


  91:/Users/joostbooy/Desktop/Code/stm32/lib/tinyusb/hw/bsp/board_api.h **** static inline uint32_t board_millis(void) {
  92:/Users/joostbooy/Desktop/Code/stm32/lib/tinyusb/hw/bsp/board_api.h ****   return to_ms_since_boot(get_absolute_time());
  93:/Users/joostbooy/Desktop/Code/stm32/lib/tinyusb/hw/bsp/board_api.h **** }
  94:/Users/joostbooy/Desktop/Code/stm32/lib/tinyusb/hw/bsp/board_api.h **** 
  95:/Users/joostbooy/Desktop/Code/stm32/lib/tinyusb/hw/bsp/board_api.h **** #elif CFG_TUSB_OS == OPT_OS_RTTHREAD
  96:/Users/joostbooy/Desktop/Code/stm32/lib/tinyusb/hw/bsp/board_api.h **** static inline uint32_t board_millis(void) {
  97:/Users/joostbooy/Desktop/Code/stm32/lib/tinyusb/hw/bsp/board_api.h ****   return (((uint64_t)rt_tick_get()) * 1000 / RT_TICK_PER_SECOND);
  98:/Users/joostbooy/Desktop/Code/stm32/lib/tinyusb/hw/bsp/board_api.h **** }
  99:/Users/joostbooy/Desktop/Code/stm32/lib/tinyusb/hw/bsp/board_api.h **** 
 100:/Users/joostbooy/Desktop/Code/stm32/lib/tinyusb/hw/bsp/board_api.h **** #elif CFG_TUSB_OS == OPT_OS_CUSTOM
 101:/Users/joostbooy/Desktop/Code/stm32/lib/tinyusb/hw/bsp/board_api.h **** // Implement your own board_millis() in any of .c file
 102:/Users/joostbooy/Desktop/Code/stm32/lib/tinyusb/hw/bsp/board_api.h **** 
 103:/Users/joostbooy/Desktop/Code/stm32/lib/tinyusb/hw/bsp/board_api.h **** #else
 104:/Users/joostbooy/Desktop/Code/stm32/lib/tinyusb/hw/bsp/board_api.h ****   #error "board_millis() is not implemented for this OS"
 105:/Users/joostbooy/Desktop/Code/stm32/lib/tinyusb/hw/bsp/board_api.h **** #endif
 106:/Users/joostbooy/Desktop/Code/stm32/lib/tinyusb/hw/bsp/board_api.h **** 
 107:/Users/joostbooy/Desktop/Code/stm32/lib/tinyusb/hw/bsp/board_api.h **** //--------------------------------------------------------------------+
 108:/Users/joostbooy/Desktop/Code/stm32/lib/tinyusb/hw/bsp/board_api.h **** // Helper functions
 109:/Users/joostbooy/Desktop/Code/stm32/lib/tinyusb/hw/bsp/board_api.h **** //--------------------------------------------------------------------+
 110:/Users/joostbooy/Desktop/Code/stm32/lib/tinyusb/hw/bsp/board_api.h **** static inline void board_led_on(void) {
 111:/Users/joostbooy/Desktop/Code/stm32/lib/tinyusb/hw/bsp/board_api.h ****   board_led_write(true);
 112:/Users/joostbooy/Desktop/Code/stm32/lib/tinyusb/hw/bsp/board_api.h **** }
 113:/Users/joostbooy/Desktop/Code/stm32/lib/tinyusb/hw/bsp/board_api.h **** 
 114:/Users/joostbooy/Desktop/Code/stm32/lib/tinyusb/hw/bsp/board_api.h **** static inline void board_led_off(void) {
 115:/Users/joostbooy/Desktop/Code/stm32/lib/tinyusb/hw/bsp/board_api.h ****   board_led_write(false);
 116:/Users/joostbooy/Desktop/Code/stm32/lib/tinyusb/hw/bsp/board_api.h **** }
 117:/Users/joostbooy/Desktop/Code/stm32/lib/tinyusb/hw/bsp/board_api.h **** 
 118:/Users/joostbooy/Desktop/Code/stm32/lib/tinyusb/hw/bsp/board_api.h **** // Get USB Serial number string from unique ID if available. Return number of character.
 119:/Users/joostbooy/Desktop/Code/stm32/lib/tinyusb/hw/bsp/board_api.h **** // Input is string descriptor from index 1 (index 0 is type + len)
 120:/Users/joostbooy/Desktop/Code/stm32/lib/tinyusb/hw/bsp/board_api.h **** static inline size_t board_usb_get_serial(uint16_t desc_str1[], size_t max_chars) {
 348              		.loc 2 120 22 view .LVU115
 349              	.LBB17:
 121:/Users/joostbooy/Desktop/Code/stm32/lib/tinyusb/hw/bsp/board_api.h ****   uint8_t uid[16] TU_ATTR_ALIGNED(4);
 350              		.loc 2 121 3 view .LVU116
 122:/Users/joostbooy/Desktop/Code/stm32/lib/tinyusb/hw/bsp/board_api.h ****   size_t uid_len;
 351              		.loc 2 122 3 view .LVU117
 123:/Users/joostbooy/Desktop/Code/stm32/lib/tinyusb/hw/bsp/board_api.h **** 
 124:/Users/joostbooy/Desktop/Code/stm32/lib/tinyusb/hw/bsp/board_api.h ****   if ( board_get_unique_id ) {
 352              		.loc 2 124 3 view .LVU118
 353              		.loc 2 124 6 is_stmt 0 view .LVU119
 354 0118 9A4A     		ldr	r2, .L100+8
 355 011a 002A     		cmp	r2, #0
 356 011c 00F03681 		beq	.L13
 125:/Users/joostbooy/Desktop/Code/stm32/lib/tinyusb/hw/bsp/board_api.h ****     uid_len = board_get_unique_id(uid, sizeof(uid));
 357              		.loc 2 125 5 is_stmt 1 view .LVU120
 358              		.loc 2 125 15 is_stmt 0 view .LVU121
 359 0120 1021     		movs	r1, #16
 360              	.LVL21:
 361              		.loc 2 125 15 view .LVU122
 362 0122 6846     		mov	r0, sp
 363              	.LVL22:
 364              		.loc 2 125 15 view .LVU123
 365 0124 FFF7FEFF 		bl	board_get_unique_id
 366              	.LVL23:
 367 0128 1028     		cmp	r0, #16
 368 012a 8446     		mov	ip, r0
 369 012c 8646     		mov	lr, r0
ARM GAS  /var/folders/84/_x1cyy_j36g486tldtwl37280000gn/T//ccR5gxkH.s 			page 14


 370              	.LVL24:
 126:/Users/joostbooy/Desktop/Code/stm32/lib/tinyusb/hw/bsp/board_api.h ****   }else {
 127:/Users/joostbooy/Desktop/Code/stm32/lib/tinyusb/hw/bsp/board_api.h ****     // fixed serial string is 01234567889ABCDEF
 128:/Users/joostbooy/Desktop/Code/stm32/lib/tinyusb/hw/bsp/board_api.h ****     uint32_t* uid32 = (uint32_t*) (uintptr_t) uid;
 129:/Users/joostbooy/Desktop/Code/stm32/lib/tinyusb/hw/bsp/board_api.h ****     uid32[0] = 0x67452301;
 130:/Users/joostbooy/Desktop/Code/stm32/lib/tinyusb/hw/bsp/board_api.h ****     uid32[1] = 0xEFCDAB89;
 131:/Users/joostbooy/Desktop/Code/stm32/lib/tinyusb/hw/bsp/board_api.h ****     uid_len = 8;
 132:/Users/joostbooy/Desktop/Code/stm32/lib/tinyusb/hw/bsp/board_api.h ****   }
 133:/Users/joostbooy/Desktop/Code/stm32/lib/tinyusb/hw/bsp/board_api.h **** 
 134:/Users/joostbooy/Desktop/Code/stm32/lib/tinyusb/hw/bsp/board_api.h ****   if ( uid_len > max_chars / 2 ) uid_len = max_chars / 2;
 371              		.loc 2 134 3 is_stmt 1 view .LVU124
 372 012e 28BF     		it	cs
 373 0130 4FF0100C 		movcs	ip, #16
 374              	.LVL25:
 135:/Users/joostbooy/Desktop/Code/stm32/lib/tinyusb/hw/bsp/board_api.h **** 
 136:/Users/joostbooy/Desktop/Code/stm32/lib/tinyusb/hw/bsp/board_api.h ****   for ( size_t i = 0; i < uid_len; i++ ) {
 375              		.loc 2 136 3 view .LVU125
 376              	.LBB18:
 377              		.loc 2 136 9 view .LVU126
 378              		.loc 2 136 23 view .LVU127
 379              		.loc 2 136 3 is_stmt 0 view .LVU128
 380 0134 0028     		cmp	r0, #0
 381 0136 00F04281 		beq	.L18
 382              	.LBB19:
 383              	.LBB20:
 137:/Users/joostbooy/Desktop/Code/stm32/lib/tinyusb/hw/bsp/board_api.h ****     for ( size_t j = 0; j < 2; j++ ) {
 138:/Users/joostbooy/Desktop/Code/stm32/lib/tinyusb/hw/bsp/board_api.h ****       const char nibble_to_hex[16] = {
 384              		.loc 2 138 18 view .LVU129
 385 013a 934D     		ldr	r5, .L100+12
 386 013c 9DF80070 		ldrb	r7, [sp]	@ zero_extendqisi2
 387              	.LVL26:
 388              		.loc 2 138 18 view .LVU130
 389              	.LBE20:
 137:/Users/joostbooy/Desktop/Code/stm32/lib/tinyusb/hw/bsp/board_api.h ****     for ( size_t j = 0; j < 2; j++ ) {
 390              		.loc 2 137 25 is_stmt 1 view .LVU131
 391              	.LBB21:
 392              		.loc 2 138 7 view .LVU132
 139:/Users/joostbooy/Desktop/Code/stm32/lib/tinyusb/hw/bsp/board_api.h ****           '0', '1', '2', '3', '4', '5', '6', '7',
 140:/Users/joostbooy/Desktop/Code/stm32/lib/tinyusb/hw/bsp/board_api.h ****           '8', '9', 'A', 'B', 'C', 'D', 'E', 'F'
 141:/Users/joostbooy/Desktop/Code/stm32/lib/tinyusb/hw/bsp/board_api.h ****       };
 142:/Users/joostbooy/Desktop/Code/stm32/lib/tinyusb/hw/bsp/board_api.h ****       uint8_t const nibble = (uid[i] >> (j * 4)) & 0xf;
 143:/Users/joostbooy/Desktop/Code/stm32/lib/tinyusb/hw/bsp/board_api.h ****       desc_str1[i * 2 + (1 - j)] = nibble_to_hex[nibble]; // UTF-16-LE
 393              		.loc 2 143 34 is_stmt 0 view .LVU133
 394 0140 8F4E     		ldr	r6, .L100+4
 138:/Users/joostbooy/Desktop/Code/stm32/lib/tinyusb/hw/bsp/board_api.h ****           '0', '1', '2', '3', '4', '5', '6', '7',
 395              		.loc 2 138 18 view .LVU134
 396 0142 95E80F00 		ldm	r5, {r0, r1, r2, r3}
 397 0146 04AC     		add	r4, sp, #16
 398 0148 84E80F00 		stm	r4, {r0, r1, r2, r3}
 142:/Users/joostbooy/Desktop/Code/stm32/lib/tinyusb/hw/bsp/board_api.h ****       desc_str1[i * 2 + (1 - j)] = nibble_to_hex[nibble]; // UTF-16-LE
 399              		.loc 2 142 7 is_stmt 1 view .LVU135
 400              	.LVL27:
 401              		.loc 2 143 7 view .LVU136
 402              		.loc 2 143 49 is_stmt 0 view .LVU137
 403 014c 07F00F09 		and	r9, r7, #15
 404 0150 08A9     		add	r1, sp, #32
 405 0152 01EB1712 		add	r2, r1, r7, lsr #4
ARM GAS  /var/folders/84/_x1cyy_j36g486tldtwl37280000gn/T//ccR5gxkH.s 			page 15


 406 0156 8944     		add	r9, r9, r1
 407 0158 4FEA8C07 		lsl	r7, ip, #2
 408              	.LVL28:
 409              		.loc 2 143 49 view .LVU138
 410 015c 0237     		adds	r7, r7, #2
 411 015e 19F8100C 		ldrb	r0, [r9, #-16]	@ zero_extendqisi2
 412 0162 12F8108C 		ldrb	r8, [r2, #-16]	@ zero_extendqisi2
 413 0166 B080     		strh	r0, [r6, #4]	@ movhi
 414              	.LBE21:
 137:/Users/joostbooy/Desktop/Code/stm32/lib/tinyusb/hw/bsp/board_api.h ****       const char nibble_to_hex[16] = {
 415              		.loc 2 137 32 is_stmt 1 view .LVU139
 416              	.LVL29:
 137:/Users/joostbooy/Desktop/Code/stm32/lib/tinyusb/hw/bsp/board_api.h ****       const char nibble_to_hex[16] = {
 417              		.loc 2 137 25 view .LVU140
 418              	.LBB22:
 138:/Users/joostbooy/Desktop/Code/stm32/lib/tinyusb/hw/bsp/board_api.h ****           '0', '1', '2', '3', '4', '5', '6', '7',
 419              		.loc 2 138 7 view .LVU141
 142:/Users/joostbooy/Desktop/Code/stm32/lib/tinyusb/hw/bsp/board_api.h ****       desc_str1[i * 2 + (1 - j)] = nibble_to_hex[nibble]; // UTF-16-LE
 420              		.loc 2 142 7 view .LVU142
 421              		.loc 2 143 7 view .LVU143
 422 0168 47F44073 		orr	r3, r7, #768
 423              	.LBE22:
 424              	.LBE19:
 136:/Users/joostbooy/Desktop/Code/stm32/lib/tinyusb/hw/bsp/board_api.h ****     for ( size_t j = 0; j < 2; j++ ) {
 425              		.loc 2 136 3 is_stmt 0 view .LVU144
 426 016c BEF1010F 		cmp	lr, #1
 427              	.LBB74:
 428              	.LBB23:
 429              		.loc 2 143 49 view .LVU145
 430 0170 A6F80280 		strh	r8, [r6, #2]	@ movhi
 431              	.LBE23:
 137:/Users/joostbooy/Desktop/Code/stm32/lib/tinyusb/hw/bsp/board_api.h ****       const char nibble_to_hex[16] = {
 432              		.loc 2 137 32 is_stmt 1 view .LVU146
 433              	.LVL30:
 137:/Users/joostbooy/Desktop/Code/stm32/lib/tinyusb/hw/bsp/board_api.h ****       const char nibble_to_hex[16] = {
 434              		.loc 2 137 25 view .LVU147
 435              	.LBE74:
 136:/Users/joostbooy/Desktop/Code/stm32/lib/tinyusb/hw/bsp/board_api.h ****     for ( size_t j = 0; j < 2; j++ ) {
 436              		.loc 2 136 36 view .LVU148
 136:/Users/joostbooy/Desktop/Code/stm32/lib/tinyusb/hw/bsp/board_api.h ****     for ( size_t j = 0; j < 2; j++ ) {
 437              		.loc 2 136 23 view .LVU149
 438 0174 9FB2     		uxth	r7, r3
 136:/Users/joostbooy/Desktop/Code/stm32/lib/tinyusb/hw/bsp/board_api.h ****     for ( size_t j = 0; j < 2; j++ ) {
 439              		.loc 2 136 3 is_stmt 0 view .LVU150
 440 0176 C2D9     		bls	.L12
 441              	.LVL31:
 442              	.L15:
 443              	.LBB75:
 444              	.LBB24:
 138:/Users/joostbooy/Desktop/Code/stm32/lib/tinyusb/hw/bsp/board_api.h ****           '0', '1', '2', '3', '4', '5', '6', '7',
 445              		.loc 2 138 18 view .LVU151
 446 0178 95E80F00 		ldm	r5, {r0, r1, r2, r3}
 447 017c 9DF80150 		ldrb	r5, [sp, #1]	@ zero_extendqisi2
 448              	.LVL32:
 138:/Users/joostbooy/Desktop/Code/stm32/lib/tinyusb/hw/bsp/board_api.h ****           '0', '1', '2', '3', '4', '5', '6', '7',
 449              		.loc 2 138 18 view .LVU152
 450              	.LBE24:
ARM GAS  /var/folders/84/_x1cyy_j36g486tldtwl37280000gn/T//ccR5gxkH.s 			page 16


 137:/Users/joostbooy/Desktop/Code/stm32/lib/tinyusb/hw/bsp/board_api.h ****       const char nibble_to_hex[16] = {
 451              		.loc 2 137 25 is_stmt 1 view .LVU153
 452              	.LBB25:
 138:/Users/joostbooy/Desktop/Code/stm32/lib/tinyusb/hw/bsp/board_api.h ****           '0', '1', '2', '3', '4', '5', '6', '7',
 453              		.loc 2 138 7 view .LVU154
 138:/Users/joostbooy/Desktop/Code/stm32/lib/tinyusb/hw/bsp/board_api.h ****           '0', '1', '2', '3', '4', '5', '6', '7',
 454              		.loc 2 138 18 is_stmt 0 view .LVU155
 455 0180 84E80F00 		stm	r4, {r0, r1, r2, r3}
 142:/Users/joostbooy/Desktop/Code/stm32/lib/tinyusb/hw/bsp/board_api.h ****       desc_str1[i * 2 + (1 - j)] = nibble_to_hex[nibble]; // UTF-16-LE
 456              		.loc 2 142 7 is_stmt 1 view .LVU156
 457              	.LVL33:
 458              		.loc 2 143 7 view .LVU157
 459              		.loc 2 143 49 is_stmt 0 view .LVU158
 460 0184 0DF12009 		add	r9, sp, #32
 461 0188 05F00F04 		and	r4, r5, #15
 462 018c 4C44     		add	r4, r4, r9
 463 018e 09EB151E 		add	lr, r9, r5, lsr #4
 464 0192 14F8101C 		ldrb	r1, [r4, #-16]	@ zero_extendqisi2
 465 0196 1EF8102C 		ldrb	r2, [lr, #-16]	@ zero_extendqisi2
 466 019a 3181     		strh	r1, [r6, #8]	@ movhi
 467              	.LBE25:
 137:/Users/joostbooy/Desktop/Code/stm32/lib/tinyusb/hw/bsp/board_api.h ****       const char nibble_to_hex[16] = {
 468              		.loc 2 137 32 is_stmt 1 view .LVU159
 469              	.LVL34:
 137:/Users/joostbooy/Desktop/Code/stm32/lib/tinyusb/hw/bsp/board_api.h ****       const char nibble_to_hex[16] = {
 470              		.loc 2 137 25 view .LVU160
 471              	.LBB26:
 138:/Users/joostbooy/Desktop/Code/stm32/lib/tinyusb/hw/bsp/board_api.h ****           '0', '1', '2', '3', '4', '5', '6', '7',
 472              		.loc 2 138 7 view .LVU161
 142:/Users/joostbooy/Desktop/Code/stm32/lib/tinyusb/hw/bsp/board_api.h ****       desc_str1[i * 2 + (1 - j)] = nibble_to_hex[nibble]; // UTF-16-LE
 473              		.loc 2 142 7 view .LVU162
 474              		.loc 2 143 7 view .LVU163
 475              	.LBE26:
 476              	.LBE75:
 136:/Users/joostbooy/Desktop/Code/stm32/lib/tinyusb/hw/bsp/board_api.h ****     for ( size_t j = 0; j < 2; j++ ) {
 477              		.loc 2 136 3 is_stmt 0 view .LVU164
 478 019c BCF1020F 		cmp	ip, #2
 479              	.LBB76:
 480              	.LBB27:
 481              		.loc 2 143 49 view .LVU165
 482 01a0 F280     		strh	r2, [r6, #6]	@ movhi
 483              	.LBE27:
 137:/Users/joostbooy/Desktop/Code/stm32/lib/tinyusb/hw/bsp/board_api.h ****       const char nibble_to_hex[16] = {
 484              		.loc 2 137 32 is_stmt 1 view .LVU166
 485              	.LVL35:
 137:/Users/joostbooy/Desktop/Code/stm32/lib/tinyusb/hw/bsp/board_api.h ****       const char nibble_to_hex[16] = {
 486              		.loc 2 137 25 view .LVU167
 487              	.LBE76:
 136:/Users/joostbooy/Desktop/Code/stm32/lib/tinyusb/hw/bsp/board_api.h ****     for ( size_t j = 0; j < 2; j++ ) {
 488              		.loc 2 136 36 view .LVU168
 136:/Users/joostbooy/Desktop/Code/stm32/lib/tinyusb/hw/bsp/board_api.h ****     for ( size_t j = 0; j < 2; j++ ) {
 489              		.loc 2 136 23 view .LVU169
 136:/Users/joostbooy/Desktop/Code/stm32/lib/tinyusb/hw/bsp/board_api.h ****     for ( size_t j = 0; j < 2; j++ ) {
 490              		.loc 2 136 3 is_stmt 0 view .LVU170
 491 01a2 ACD0     		beq	.L12
 492 01a4 9DF80200 		ldrb	r0, [sp, #2]	@ zero_extendqisi2
 493              	.LVL36:
ARM GAS  /var/folders/84/_x1cyy_j36g486tldtwl37280000gn/T//ccR5gxkH.s 			page 17


 494              	.LBB77:
 137:/Users/joostbooy/Desktop/Code/stm32/lib/tinyusb/hw/bsp/board_api.h ****       const char nibble_to_hex[16] = {
 495              		.loc 2 137 25 is_stmt 1 view .LVU171
 496              	.LBB28:
 138:/Users/joostbooy/Desktop/Code/stm32/lib/tinyusb/hw/bsp/board_api.h ****           '0', '1', '2', '3', '4', '5', '6', '7',
 497              		.loc 2 138 7 view .LVU172
 142:/Users/joostbooy/Desktop/Code/stm32/lib/tinyusb/hw/bsp/board_api.h ****       desc_str1[i * 2 + (1 - j)] = nibble_to_hex[nibble]; // UTF-16-LE
 498              		.loc 2 142 7 view .LVU173
 499              		.loc 2 143 7 view .LVU174
 500              		.loc 2 143 49 is_stmt 0 view .LVU175
 501 01a8 00F00F08 		and	r8, r0, #15
 502 01ac C844     		add	r8, r8, r9
 503 01ae 09EB101E 		add	lr, r9, r0, lsr #4
 504 01b2 18F8103C 		ldrb	r3, [r8, #-16]	@ zero_extendqisi2
 505 01b6 1EF8105C 		ldrb	r5, [lr, #-16]	@ zero_extendqisi2
 506 01ba B381     		strh	r3, [r6, #12]	@ movhi
 507              	.LBE28:
 137:/Users/joostbooy/Desktop/Code/stm32/lib/tinyusb/hw/bsp/board_api.h ****       const char nibble_to_hex[16] = {
 508              		.loc 2 137 32 is_stmt 1 view .LVU176
 509              	.LVL37:
 137:/Users/joostbooy/Desktop/Code/stm32/lib/tinyusb/hw/bsp/board_api.h ****       const char nibble_to_hex[16] = {
 510              		.loc 2 137 25 view .LVU177
 511              	.LBB29:
 138:/Users/joostbooy/Desktop/Code/stm32/lib/tinyusb/hw/bsp/board_api.h ****           '0', '1', '2', '3', '4', '5', '6', '7',
 512              		.loc 2 138 7 view .LVU178
 142:/Users/joostbooy/Desktop/Code/stm32/lib/tinyusb/hw/bsp/board_api.h ****       desc_str1[i * 2 + (1 - j)] = nibble_to_hex[nibble]; // UTF-16-LE
 513              		.loc 2 142 7 view .LVU179
 514              		.loc 2 143 7 view .LVU180
 515              	.LBE29:
 516              	.LBE77:
 136:/Users/joostbooy/Desktop/Code/stm32/lib/tinyusb/hw/bsp/board_api.h ****     for ( size_t j = 0; j < 2; j++ ) {
 517              		.loc 2 136 3 is_stmt 0 view .LVU181
 518 01bc BCF1030F 		cmp	ip, #3
 519              	.LBB78:
 520              	.LBB30:
 521              		.loc 2 143 49 view .LVU182
 522 01c0 7581     		strh	r5, [r6, #10]	@ movhi
 523              	.LBE30:
 137:/Users/joostbooy/Desktop/Code/stm32/lib/tinyusb/hw/bsp/board_api.h ****       const char nibble_to_hex[16] = {
 524              		.loc 2 137 32 is_stmt 1 view .LVU183
 525              	.LVL38:
 137:/Users/joostbooy/Desktop/Code/stm32/lib/tinyusb/hw/bsp/board_api.h ****       const char nibble_to_hex[16] = {
 526              		.loc 2 137 25 view .LVU184
 527              	.LBE78:
 136:/Users/joostbooy/Desktop/Code/stm32/lib/tinyusb/hw/bsp/board_api.h ****     for ( size_t j = 0; j < 2; j++ ) {
 528              		.loc 2 136 36 view .LVU185
 136:/Users/joostbooy/Desktop/Code/stm32/lib/tinyusb/hw/bsp/board_api.h ****     for ( size_t j = 0; j < 2; j++ ) {
 529              		.loc 2 136 23 view .LVU186
 136:/Users/joostbooy/Desktop/Code/stm32/lib/tinyusb/hw/bsp/board_api.h ****     for ( size_t j = 0; j < 2; j++ ) {
 530              		.loc 2 136 3 is_stmt 0 view .LVU187
 531 01c2 9CD0     		beq	.L12
 532 01c4 9DF80340 		ldrb	r4, [sp, #3]	@ zero_extendqisi2
 533              	.LVL39:
 534              	.LBB79:
 137:/Users/joostbooy/Desktop/Code/stm32/lib/tinyusb/hw/bsp/board_api.h ****       const char nibble_to_hex[16] = {
 535              		.loc 2 137 25 is_stmt 1 view .LVU188
 536              	.LBB31:
ARM GAS  /var/folders/84/_x1cyy_j36g486tldtwl37280000gn/T//ccR5gxkH.s 			page 18


 138:/Users/joostbooy/Desktop/Code/stm32/lib/tinyusb/hw/bsp/board_api.h ****           '0', '1', '2', '3', '4', '5', '6', '7',
 537              		.loc 2 138 7 view .LVU189
 142:/Users/joostbooy/Desktop/Code/stm32/lib/tinyusb/hw/bsp/board_api.h ****       desc_str1[i * 2 + (1 - j)] = nibble_to_hex[nibble]; // UTF-16-LE
 538              		.loc 2 142 7 view .LVU190
 539              		.loc 2 143 7 view .LVU191
 540              		.loc 2 143 49 is_stmt 0 view .LVU192
 541 01c8 04F00F01 		and	r1, r4, #15
 542 01cc 4944     		add	r1, r1, r9
 543 01ce 09EB141E 		add	lr, r9, r4, lsr #4
 544 01d2 11F8102C 		ldrb	r2, [r1, #-16]	@ zero_extendqisi2
 545 01d6 1EF8100C 		ldrb	r0, [lr, #-16]	@ zero_extendqisi2
 546 01da 3282     		strh	r2, [r6, #16]	@ movhi
 547              	.LBE31:
 137:/Users/joostbooy/Desktop/Code/stm32/lib/tinyusb/hw/bsp/board_api.h ****       const char nibble_to_hex[16] = {
 548              		.loc 2 137 32 is_stmt 1 view .LVU193
 549              	.LVL40:
 137:/Users/joostbooy/Desktop/Code/stm32/lib/tinyusb/hw/bsp/board_api.h ****       const char nibble_to_hex[16] = {
 550              		.loc 2 137 25 view .LVU194
 551              	.LBB32:
 138:/Users/joostbooy/Desktop/Code/stm32/lib/tinyusb/hw/bsp/board_api.h ****           '0', '1', '2', '3', '4', '5', '6', '7',
 552              		.loc 2 138 7 view .LVU195
 142:/Users/joostbooy/Desktop/Code/stm32/lib/tinyusb/hw/bsp/board_api.h ****       desc_str1[i * 2 + (1 - j)] = nibble_to_hex[nibble]; // UTF-16-LE
 553              		.loc 2 142 7 view .LVU196
 554              		.loc 2 143 7 view .LVU197
 555              	.LBE32:
 556              	.LBE79:
 136:/Users/joostbooy/Desktop/Code/stm32/lib/tinyusb/hw/bsp/board_api.h ****     for ( size_t j = 0; j < 2; j++ ) {
 557              		.loc 2 136 3 is_stmt 0 view .LVU198
 558 01dc BCF1040F 		cmp	ip, #4
 559              	.LBB80:
 560              	.LBB33:
 561              		.loc 2 143 49 view .LVU199
 562 01e0 F081     		strh	r0, [r6, #14]	@ movhi
 563              	.LBE33:
 137:/Users/joostbooy/Desktop/Code/stm32/lib/tinyusb/hw/bsp/board_api.h ****       const char nibble_to_hex[16] = {
 564              		.loc 2 137 32 is_stmt 1 view .LVU200
 565              	.LVL41:
 137:/Users/joostbooy/Desktop/Code/stm32/lib/tinyusb/hw/bsp/board_api.h ****       const char nibble_to_hex[16] = {
 566              		.loc 2 137 25 view .LVU201
 567              	.LBE80:
 136:/Users/joostbooy/Desktop/Code/stm32/lib/tinyusb/hw/bsp/board_api.h ****     for ( size_t j = 0; j < 2; j++ ) {
 568              		.loc 2 136 36 view .LVU202
 136:/Users/joostbooy/Desktop/Code/stm32/lib/tinyusb/hw/bsp/board_api.h ****     for ( size_t j = 0; j < 2; j++ ) {
 569              		.loc 2 136 23 view .LVU203
 136:/Users/joostbooy/Desktop/Code/stm32/lib/tinyusb/hw/bsp/board_api.h ****     for ( size_t j = 0; j < 2; j++ ) {
 570              		.loc 2 136 3 is_stmt 0 view .LVU204
 571 01e2 8CD0     		beq	.L12
 572 01e4 9DF80430 		ldrb	r3, [sp, #4]	@ zero_extendqisi2
 573              	.LVL42:
 574              	.LBB81:
 137:/Users/joostbooy/Desktop/Code/stm32/lib/tinyusb/hw/bsp/board_api.h ****       const char nibble_to_hex[16] = {
 575              		.loc 2 137 25 is_stmt 1 view .LVU205
 576              	.LBB34:
 138:/Users/joostbooy/Desktop/Code/stm32/lib/tinyusb/hw/bsp/board_api.h ****           '0', '1', '2', '3', '4', '5', '6', '7',
 577              		.loc 2 138 7 view .LVU206
 142:/Users/joostbooy/Desktop/Code/stm32/lib/tinyusb/hw/bsp/board_api.h ****       desc_str1[i * 2 + (1 - j)] = nibble_to_hex[nibble]; // UTF-16-LE
 578              		.loc 2 142 7 view .LVU207
ARM GAS  /var/folders/84/_x1cyy_j36g486tldtwl37280000gn/T//ccR5gxkH.s 			page 19


 579              		.loc 2 143 7 view .LVU208
 580              		.loc 2 143 49 is_stmt 0 view .LVU209
 581 01e8 03F00F08 		and	r8, r3, #15
 582 01ec C844     		add	r8, r8, r9
 583 01ee 09EB131E 		add	lr, r9, r3, lsr #4
 584 01f2 18F8105C 		ldrb	r5, [r8, #-16]	@ zero_extendqisi2
 585 01f6 1EF8104C 		ldrb	r4, [lr, #-16]	@ zero_extendqisi2
 586 01fa B582     		strh	r5, [r6, #20]	@ movhi
 587              	.LBE34:
 137:/Users/joostbooy/Desktop/Code/stm32/lib/tinyusb/hw/bsp/board_api.h ****       const char nibble_to_hex[16] = {
 588              		.loc 2 137 32 is_stmt 1 view .LVU210
 589              	.LVL43:
 137:/Users/joostbooy/Desktop/Code/stm32/lib/tinyusb/hw/bsp/board_api.h ****       const char nibble_to_hex[16] = {
 590              		.loc 2 137 25 view .LVU211
 591              	.LBB35:
 138:/Users/joostbooy/Desktop/Code/stm32/lib/tinyusb/hw/bsp/board_api.h ****           '0', '1', '2', '3', '4', '5', '6', '7',
 592              		.loc 2 138 7 view .LVU212
 142:/Users/joostbooy/Desktop/Code/stm32/lib/tinyusb/hw/bsp/board_api.h ****       desc_str1[i * 2 + (1 - j)] = nibble_to_hex[nibble]; // UTF-16-LE
 593              		.loc 2 142 7 view .LVU213
 594              		.loc 2 143 7 view .LVU214
 595              	.LBE35:
 596              	.LBE81:
 136:/Users/joostbooy/Desktop/Code/stm32/lib/tinyusb/hw/bsp/board_api.h ****     for ( size_t j = 0; j < 2; j++ ) {
 597              		.loc 2 136 3 is_stmt 0 view .LVU215
 598 01fc BCF1050F 		cmp	ip, #5
 599              	.LBB82:
 600              	.LBB36:
 601              		.loc 2 143 49 view .LVU216
 602 0200 7482     		strh	r4, [r6, #18]	@ movhi
 603              	.LBE36:
 137:/Users/joostbooy/Desktop/Code/stm32/lib/tinyusb/hw/bsp/board_api.h ****       const char nibble_to_hex[16] = {
 604              		.loc 2 137 32 is_stmt 1 view .LVU217
 605              	.LVL44:
 137:/Users/joostbooy/Desktop/Code/stm32/lib/tinyusb/hw/bsp/board_api.h ****       const char nibble_to_hex[16] = {
 606              		.loc 2 137 25 view .LVU218
 607              	.LBE82:
 136:/Users/joostbooy/Desktop/Code/stm32/lib/tinyusb/hw/bsp/board_api.h ****     for ( size_t j = 0; j < 2; j++ ) {
 608              		.loc 2 136 36 view .LVU219
 136:/Users/joostbooy/Desktop/Code/stm32/lib/tinyusb/hw/bsp/board_api.h ****     for ( size_t j = 0; j < 2; j++ ) {
 609              		.loc 2 136 23 view .LVU220
 136:/Users/joostbooy/Desktop/Code/stm32/lib/tinyusb/hw/bsp/board_api.h ****     for ( size_t j = 0; j < 2; j++ ) {
 610              		.loc 2 136 3 is_stmt 0 view .LVU221
 611 0202 3FF47CAF 		beq	.L12
 612 0206 9DF80510 		ldrb	r1, [sp, #5]	@ zero_extendqisi2
 613              	.LVL45:
 614              	.LBB83:
 137:/Users/joostbooy/Desktop/Code/stm32/lib/tinyusb/hw/bsp/board_api.h ****       const char nibble_to_hex[16] = {
 615              		.loc 2 137 25 is_stmt 1 view .LVU222
 616              	.LBB37:
 138:/Users/joostbooy/Desktop/Code/stm32/lib/tinyusb/hw/bsp/board_api.h ****           '0', '1', '2', '3', '4', '5', '6', '7',
 617              		.loc 2 138 7 view .LVU223
 142:/Users/joostbooy/Desktop/Code/stm32/lib/tinyusb/hw/bsp/board_api.h ****       desc_str1[i * 2 + (1 - j)] = nibble_to_hex[nibble]; // UTF-16-LE
 618              		.loc 2 142 7 view .LVU224
 619              		.loc 2 143 7 view .LVU225
 620              		.loc 2 143 49 is_stmt 0 view .LVU226
 621 020a 01F00F02 		and	r2, r1, #15
 622 020e 4A44     		add	r2, r2, r9
ARM GAS  /var/folders/84/_x1cyy_j36g486tldtwl37280000gn/T//ccR5gxkH.s 			page 20


 623 0210 09EB111E 		add	lr, r9, r1, lsr #4
 624 0214 12F8100C 		ldrb	r0, [r2, #-16]	@ zero_extendqisi2
 625 0218 1EF8103C 		ldrb	r3, [lr, #-16]	@ zero_extendqisi2
 626 021c 3083     		strh	r0, [r6, #24]	@ movhi
 627              	.LBE37:
 137:/Users/joostbooy/Desktop/Code/stm32/lib/tinyusb/hw/bsp/board_api.h ****       const char nibble_to_hex[16] = {
 628              		.loc 2 137 32 is_stmt 1 view .LVU227
 629              	.LVL46:
 137:/Users/joostbooy/Desktop/Code/stm32/lib/tinyusb/hw/bsp/board_api.h ****       const char nibble_to_hex[16] = {
 630              		.loc 2 137 25 view .LVU228
 631              	.LBB38:
 138:/Users/joostbooy/Desktop/Code/stm32/lib/tinyusb/hw/bsp/board_api.h ****           '0', '1', '2', '3', '4', '5', '6', '7',
 632              		.loc 2 138 7 view .LVU229
 142:/Users/joostbooy/Desktop/Code/stm32/lib/tinyusb/hw/bsp/board_api.h ****       desc_str1[i * 2 + (1 - j)] = nibble_to_hex[nibble]; // UTF-16-LE
 633              		.loc 2 142 7 view .LVU230
 634              		.loc 2 143 7 view .LVU231
 635              	.LBE38:
 636              	.LBE83:
 136:/Users/joostbooy/Desktop/Code/stm32/lib/tinyusb/hw/bsp/board_api.h ****     for ( size_t j = 0; j < 2; j++ ) {
 637              		.loc 2 136 3 is_stmt 0 view .LVU232
 638 021e BCF1060F 		cmp	ip, #6
 639              	.LBB84:
 640              	.LBB39:
 641              		.loc 2 143 49 view .LVU233
 642 0222 F382     		strh	r3, [r6, #22]	@ movhi
 643              	.LBE39:
 137:/Users/joostbooy/Desktop/Code/stm32/lib/tinyusb/hw/bsp/board_api.h ****       const char nibble_to_hex[16] = {
 644              		.loc 2 137 32 is_stmt 1 view .LVU234
 645              	.LVL47:
 137:/Users/joostbooy/Desktop/Code/stm32/lib/tinyusb/hw/bsp/board_api.h ****       const char nibble_to_hex[16] = {
 646              		.loc 2 137 25 view .LVU235
 647              	.LBE84:
 136:/Users/joostbooy/Desktop/Code/stm32/lib/tinyusb/hw/bsp/board_api.h ****     for ( size_t j = 0; j < 2; j++ ) {
 648              		.loc 2 136 36 view .LVU236
 136:/Users/joostbooy/Desktop/Code/stm32/lib/tinyusb/hw/bsp/board_api.h ****     for ( size_t j = 0; j < 2; j++ ) {
 649              		.loc 2 136 23 view .LVU237
 136:/Users/joostbooy/Desktop/Code/stm32/lib/tinyusb/hw/bsp/board_api.h ****     for ( size_t j = 0; j < 2; j++ ) {
 650              		.loc 2 136 3 is_stmt 0 view .LVU238
 651 0224 3FF46BAF 		beq	.L12
 652 0228 9DF80650 		ldrb	r5, [sp, #6]	@ zero_extendqisi2
 653              	.LVL48:
 654              	.LBB85:
 137:/Users/joostbooy/Desktop/Code/stm32/lib/tinyusb/hw/bsp/board_api.h ****       const char nibble_to_hex[16] = {
 655              		.loc 2 137 25 is_stmt 1 view .LVU239
 656              	.LBB40:
 138:/Users/joostbooy/Desktop/Code/stm32/lib/tinyusb/hw/bsp/board_api.h ****           '0', '1', '2', '3', '4', '5', '6', '7',
 657              		.loc 2 138 7 view .LVU240
 142:/Users/joostbooy/Desktop/Code/stm32/lib/tinyusb/hw/bsp/board_api.h ****       desc_str1[i * 2 + (1 - j)] = nibble_to_hex[nibble]; // UTF-16-LE
 658              		.loc 2 142 7 view .LVU241
 659              		.loc 2 143 7 view .LVU242
 660              		.loc 2 143 49 is_stmt 0 view .LVU243
 661 022c 05F00F08 		and	r8, r5, #15
 662 0230 C844     		add	r8, r8, r9
 663 0232 09EB151E 		add	lr, r9, r5, lsr #4
 664 0236 18F8104C 		ldrb	r4, [r8, #-16]	@ zero_extendqisi2
 665 023a 1EF8101C 		ldrb	r1, [lr, #-16]	@ zero_extendqisi2
 666 023e B483     		strh	r4, [r6, #28]	@ movhi
ARM GAS  /var/folders/84/_x1cyy_j36g486tldtwl37280000gn/T//ccR5gxkH.s 			page 21


 667              	.LBE40:
 137:/Users/joostbooy/Desktop/Code/stm32/lib/tinyusb/hw/bsp/board_api.h ****       const char nibble_to_hex[16] = {
 668              		.loc 2 137 32 is_stmt 1 view .LVU244
 669              	.LVL49:
 137:/Users/joostbooy/Desktop/Code/stm32/lib/tinyusb/hw/bsp/board_api.h ****       const char nibble_to_hex[16] = {
 670              		.loc 2 137 25 view .LVU245
 671              	.LBB41:
 138:/Users/joostbooy/Desktop/Code/stm32/lib/tinyusb/hw/bsp/board_api.h ****           '0', '1', '2', '3', '4', '5', '6', '7',
 672              		.loc 2 138 7 view .LVU246
 142:/Users/joostbooy/Desktop/Code/stm32/lib/tinyusb/hw/bsp/board_api.h ****       desc_str1[i * 2 + (1 - j)] = nibble_to_hex[nibble]; // UTF-16-LE
 673              		.loc 2 142 7 view .LVU247
 674              		.loc 2 143 7 view .LVU248
 675              	.LBE41:
 676              	.LBE85:
 136:/Users/joostbooy/Desktop/Code/stm32/lib/tinyusb/hw/bsp/board_api.h ****     for ( size_t j = 0; j < 2; j++ ) {
 677              		.loc 2 136 3 is_stmt 0 view .LVU249
 678 0240 BCF1070F 		cmp	ip, #7
 679              	.LBB86:
 680              	.LBB42:
 681              		.loc 2 143 49 view .LVU250
 682 0244 7183     		strh	r1, [r6, #26]	@ movhi
 683              	.LBE42:
 137:/Users/joostbooy/Desktop/Code/stm32/lib/tinyusb/hw/bsp/board_api.h ****       const char nibble_to_hex[16] = {
 684              		.loc 2 137 32 is_stmt 1 view .LVU251
 685              	.LVL50:
 137:/Users/joostbooy/Desktop/Code/stm32/lib/tinyusb/hw/bsp/board_api.h ****       const char nibble_to_hex[16] = {
 686              		.loc 2 137 25 view .LVU252
 687              	.LBE86:
 136:/Users/joostbooy/Desktop/Code/stm32/lib/tinyusb/hw/bsp/board_api.h ****     for ( size_t j = 0; j < 2; j++ ) {
 688              		.loc 2 136 36 view .LVU253
 136:/Users/joostbooy/Desktop/Code/stm32/lib/tinyusb/hw/bsp/board_api.h ****     for ( size_t j = 0; j < 2; j++ ) {
 689              		.loc 2 136 23 view .LVU254
 136:/Users/joostbooy/Desktop/Code/stm32/lib/tinyusb/hw/bsp/board_api.h ****     for ( size_t j = 0; j < 2; j++ ) {
 690              		.loc 2 136 3 is_stmt 0 view .LVU255
 691 0246 3FF45AAF 		beq	.L12
 692 024a 9DF80720 		ldrb	r2, [sp, #7]	@ zero_extendqisi2
 693              	.LVL51:
 694              	.LBB87:
 137:/Users/joostbooy/Desktop/Code/stm32/lib/tinyusb/hw/bsp/board_api.h ****       const char nibble_to_hex[16] = {
 695              		.loc 2 137 25 is_stmt 1 view .LVU256
 696              	.LBB43:
 138:/Users/joostbooy/Desktop/Code/stm32/lib/tinyusb/hw/bsp/board_api.h ****           '0', '1', '2', '3', '4', '5', '6', '7',
 697              		.loc 2 138 7 view .LVU257
 142:/Users/joostbooy/Desktop/Code/stm32/lib/tinyusb/hw/bsp/board_api.h ****       desc_str1[i * 2 + (1 - j)] = nibble_to_hex[nibble]; // UTF-16-LE
 698              		.loc 2 142 7 view .LVU258
 699              		.loc 2 143 7 view .LVU259
 700              		.loc 2 143 49 is_stmt 0 view .LVU260
 701 024e 02F00F00 		and	r0, r2, #15
 702 0252 4844     		add	r0, r0, r9
 703 0254 09EB121E 		add	lr, r9, r2, lsr #4
 704 0258 10F8103C 		ldrb	r3, [r0, #-16]	@ zero_extendqisi2
 705 025c 1EF8105C 		ldrb	r5, [lr, #-16]	@ zero_extendqisi2
 706 0260 3384     		strh	r3, [r6, #32]	@ movhi
 707              	.LBE43:
 137:/Users/joostbooy/Desktop/Code/stm32/lib/tinyusb/hw/bsp/board_api.h ****       const char nibble_to_hex[16] = {
 708              		.loc 2 137 32 is_stmt 1 view .LVU261
 709              	.LVL52:
ARM GAS  /var/folders/84/_x1cyy_j36g486tldtwl37280000gn/T//ccR5gxkH.s 			page 22


 137:/Users/joostbooy/Desktop/Code/stm32/lib/tinyusb/hw/bsp/board_api.h ****       const char nibble_to_hex[16] = {
 710              		.loc 2 137 25 view .LVU262
 711              	.LBB44:
 138:/Users/joostbooy/Desktop/Code/stm32/lib/tinyusb/hw/bsp/board_api.h ****           '0', '1', '2', '3', '4', '5', '6', '7',
 712              		.loc 2 138 7 view .LVU263
 142:/Users/joostbooy/Desktop/Code/stm32/lib/tinyusb/hw/bsp/board_api.h ****       desc_str1[i * 2 + (1 - j)] = nibble_to_hex[nibble]; // UTF-16-LE
 713              		.loc 2 142 7 view .LVU264
 714              		.loc 2 143 7 view .LVU265
 715              	.LBE44:
 716              	.LBE87:
 136:/Users/joostbooy/Desktop/Code/stm32/lib/tinyusb/hw/bsp/board_api.h ****     for ( size_t j = 0; j < 2; j++ ) {
 717              		.loc 2 136 3 is_stmt 0 view .LVU266
 718 0262 BCF1080F 		cmp	ip, #8
 719              	.LBB88:
 720              	.LBB45:
 721              		.loc 2 143 49 view .LVU267
 722 0266 F583     		strh	r5, [r6, #30]	@ movhi
 723              	.LBE45:
 137:/Users/joostbooy/Desktop/Code/stm32/lib/tinyusb/hw/bsp/board_api.h ****       const char nibble_to_hex[16] = {
 724              		.loc 2 137 32 is_stmt 1 view .LVU268
 725              	.LVL53:
 137:/Users/joostbooy/Desktop/Code/stm32/lib/tinyusb/hw/bsp/board_api.h ****       const char nibble_to_hex[16] = {
 726              		.loc 2 137 25 view .LVU269
 727              	.LBE88:
 136:/Users/joostbooy/Desktop/Code/stm32/lib/tinyusb/hw/bsp/board_api.h ****     for ( size_t j = 0; j < 2; j++ ) {
 728              		.loc 2 136 36 view .LVU270
 136:/Users/joostbooy/Desktop/Code/stm32/lib/tinyusb/hw/bsp/board_api.h ****     for ( size_t j = 0; j < 2; j++ ) {
 729              		.loc 2 136 23 view .LVU271
 136:/Users/joostbooy/Desktop/Code/stm32/lib/tinyusb/hw/bsp/board_api.h ****     for ( size_t j = 0; j < 2; j++ ) {
 730              		.loc 2 136 3 is_stmt 0 view .LVU272
 731 0268 3FF449AF 		beq	.L12
 732 026c 9DF80840 		ldrb	r4, [sp, #8]	@ zero_extendqisi2
 733              	.LVL54:
 734              	.LBB89:
 137:/Users/joostbooy/Desktop/Code/stm32/lib/tinyusb/hw/bsp/board_api.h ****       const char nibble_to_hex[16] = {
 735              		.loc 2 137 25 is_stmt 1 view .LVU273
 736              	.LBB46:
 138:/Users/joostbooy/Desktop/Code/stm32/lib/tinyusb/hw/bsp/board_api.h ****           '0', '1', '2', '3', '4', '5', '6', '7',
 737              		.loc 2 138 7 view .LVU274
 142:/Users/joostbooy/Desktop/Code/stm32/lib/tinyusb/hw/bsp/board_api.h ****       desc_str1[i * 2 + (1 - j)] = nibble_to_hex[nibble]; // UTF-16-LE
 738              		.loc 2 142 7 view .LVU275
 739              		.loc 2 143 7 view .LVU276
 740              		.loc 2 143 49 is_stmt 0 view .LVU277
 741 0270 04F00F08 		and	r8, r4, #15
 742 0274 C844     		add	r8, r8, r9
 743 0276 09EB141E 		add	lr, r9, r4, lsr #4
 744 027a 18F8101C 		ldrb	r1, [r8, #-16]	@ zero_extendqisi2
 745 027e 1EF8102C 		ldrb	r2, [lr, #-16]	@ zero_extendqisi2
 746 0282 B184     		strh	r1, [r6, #36]	@ movhi
 747              	.LBE46:
 137:/Users/joostbooy/Desktop/Code/stm32/lib/tinyusb/hw/bsp/board_api.h ****       const char nibble_to_hex[16] = {
 748              		.loc 2 137 32 is_stmt 1 view .LVU278
 749              	.LVL55:
 137:/Users/joostbooy/Desktop/Code/stm32/lib/tinyusb/hw/bsp/board_api.h ****       const char nibble_to_hex[16] = {
 750              		.loc 2 137 25 view .LVU279
 751              	.LBB47:
 138:/Users/joostbooy/Desktop/Code/stm32/lib/tinyusb/hw/bsp/board_api.h ****           '0', '1', '2', '3', '4', '5', '6', '7',
ARM GAS  /var/folders/84/_x1cyy_j36g486tldtwl37280000gn/T//ccR5gxkH.s 			page 23


 752              		.loc 2 138 7 view .LVU280
 142:/Users/joostbooy/Desktop/Code/stm32/lib/tinyusb/hw/bsp/board_api.h ****       desc_str1[i * 2 + (1 - j)] = nibble_to_hex[nibble]; // UTF-16-LE
 753              		.loc 2 142 7 view .LVU281
 754              		.loc 2 143 7 view .LVU282
 755              	.LBE47:
 756              	.LBE89:
 136:/Users/joostbooy/Desktop/Code/stm32/lib/tinyusb/hw/bsp/board_api.h ****     for ( size_t j = 0; j < 2; j++ ) {
 757              		.loc 2 136 3 is_stmt 0 view .LVU283
 758 0284 BCF1090F 		cmp	ip, #9
 759              	.LBB90:
 760              	.LBB48:
 761              		.loc 2 143 49 view .LVU284
 762 0288 7284     		strh	r2, [r6, #34]	@ movhi
 763              	.LBE48:
 137:/Users/joostbooy/Desktop/Code/stm32/lib/tinyusb/hw/bsp/board_api.h ****       const char nibble_to_hex[16] = {
 764              		.loc 2 137 32 is_stmt 1 view .LVU285
 765              	.LVL56:
 137:/Users/joostbooy/Desktop/Code/stm32/lib/tinyusb/hw/bsp/board_api.h ****       const char nibble_to_hex[16] = {
 766              		.loc 2 137 25 view .LVU286
 767              	.LBE90:
 136:/Users/joostbooy/Desktop/Code/stm32/lib/tinyusb/hw/bsp/board_api.h ****     for ( size_t j = 0; j < 2; j++ ) {
 768              		.loc 2 136 36 view .LVU287
 136:/Users/joostbooy/Desktop/Code/stm32/lib/tinyusb/hw/bsp/board_api.h ****     for ( size_t j = 0; j < 2; j++ ) {
 769              		.loc 2 136 23 view .LVU288
 136:/Users/joostbooy/Desktop/Code/stm32/lib/tinyusb/hw/bsp/board_api.h ****     for ( size_t j = 0; j < 2; j++ ) {
 770              		.loc 2 136 3 is_stmt 0 view .LVU289
 771 028a 3FF438AF 		beq	.L12
 772 028e 9DF80900 		ldrb	r0, [sp, #9]	@ zero_extendqisi2
 773              	.LVL57:
 774              	.LBB91:
 137:/Users/joostbooy/Desktop/Code/stm32/lib/tinyusb/hw/bsp/board_api.h ****       const char nibble_to_hex[16] = {
 775              		.loc 2 137 25 is_stmt 1 view .LVU290
 776              	.LBB49:
 138:/Users/joostbooy/Desktop/Code/stm32/lib/tinyusb/hw/bsp/board_api.h ****           '0', '1', '2', '3', '4', '5', '6', '7',
 777              		.loc 2 138 7 view .LVU291
 142:/Users/joostbooy/Desktop/Code/stm32/lib/tinyusb/hw/bsp/board_api.h ****       desc_str1[i * 2 + (1 - j)] = nibble_to_hex[nibble]; // UTF-16-LE
 778              		.loc 2 142 7 view .LVU292
 779              		.loc 2 143 7 view .LVU293
 780              		.loc 2 143 49 is_stmt 0 view .LVU294
 781 0292 00F00F03 		and	r3, r0, #15
 782 0296 4B44     		add	r3, r3, r9
 783 0298 09EB101E 		add	lr, r9, r0, lsr #4
 784 029c 13F8105C 		ldrb	r5, [r3, #-16]	@ zero_extendqisi2
 785 02a0 1EF8104C 		ldrb	r4, [lr, #-16]	@ zero_extendqisi2
 786 02a4 3585     		strh	r5, [r6, #40]	@ movhi
 787              	.LBE49:
 137:/Users/joostbooy/Desktop/Code/stm32/lib/tinyusb/hw/bsp/board_api.h ****       const char nibble_to_hex[16] = {
 788              		.loc 2 137 32 is_stmt 1 view .LVU295
 789              	.LVL58:
 137:/Users/joostbooy/Desktop/Code/stm32/lib/tinyusb/hw/bsp/board_api.h ****       const char nibble_to_hex[16] = {
 790              		.loc 2 137 25 view .LVU296
 791              	.LBB50:
 138:/Users/joostbooy/Desktop/Code/stm32/lib/tinyusb/hw/bsp/board_api.h ****           '0', '1', '2', '3', '4', '5', '6', '7',
 792              		.loc 2 138 7 view .LVU297
 142:/Users/joostbooy/Desktop/Code/stm32/lib/tinyusb/hw/bsp/board_api.h ****       desc_str1[i * 2 + (1 - j)] = nibble_to_hex[nibble]; // UTF-16-LE
 793              		.loc 2 142 7 view .LVU298
 794              		.loc 2 143 7 view .LVU299
ARM GAS  /var/folders/84/_x1cyy_j36g486tldtwl37280000gn/T//ccR5gxkH.s 			page 24


 795              	.LBE50:
 796              	.LBE91:
 136:/Users/joostbooy/Desktop/Code/stm32/lib/tinyusb/hw/bsp/board_api.h ****     for ( size_t j = 0; j < 2; j++ ) {
 797              		.loc 2 136 3 is_stmt 0 view .LVU300
 798 02a6 BCF10A0F 		cmp	ip, #10
 799              	.LBB92:
 800              	.LBB51:
 801              		.loc 2 143 49 view .LVU301
 802 02aa F484     		strh	r4, [r6, #38]	@ movhi
 803              	.LBE51:
 137:/Users/joostbooy/Desktop/Code/stm32/lib/tinyusb/hw/bsp/board_api.h ****       const char nibble_to_hex[16] = {
 804              		.loc 2 137 32 is_stmt 1 view .LVU302
 805              	.LVL59:
 137:/Users/joostbooy/Desktop/Code/stm32/lib/tinyusb/hw/bsp/board_api.h ****       const char nibble_to_hex[16] = {
 806              		.loc 2 137 25 view .LVU303
 807              	.LBE92:
 136:/Users/joostbooy/Desktop/Code/stm32/lib/tinyusb/hw/bsp/board_api.h ****     for ( size_t j = 0; j < 2; j++ ) {
 808              		.loc 2 136 36 view .LVU304
 136:/Users/joostbooy/Desktop/Code/stm32/lib/tinyusb/hw/bsp/board_api.h ****     for ( size_t j = 0; j < 2; j++ ) {
 809              		.loc 2 136 23 view .LVU305
 136:/Users/joostbooy/Desktop/Code/stm32/lib/tinyusb/hw/bsp/board_api.h ****     for ( size_t j = 0; j < 2; j++ ) {
 810              		.loc 2 136 3 is_stmt 0 view .LVU306
 811 02ac 3FF427AF 		beq	.L12
 812 02b0 9DF80A10 		ldrb	r1, [sp, #10]	@ zero_extendqisi2
 813              	.LVL60:
 814              	.LBB93:
 137:/Users/joostbooy/Desktop/Code/stm32/lib/tinyusb/hw/bsp/board_api.h ****       const char nibble_to_hex[16] = {
 815              		.loc 2 137 25 is_stmt 1 view .LVU307
 816              	.LBB52:
 138:/Users/joostbooy/Desktop/Code/stm32/lib/tinyusb/hw/bsp/board_api.h ****           '0', '1', '2', '3', '4', '5', '6', '7',
 817              		.loc 2 138 7 view .LVU308
 142:/Users/joostbooy/Desktop/Code/stm32/lib/tinyusb/hw/bsp/board_api.h ****       desc_str1[i * 2 + (1 - j)] = nibble_to_hex[nibble]; // UTF-16-LE
 818              		.loc 2 142 7 view .LVU309
 819              		.loc 2 143 7 view .LVU310
 820              		.loc 2 143 49 is_stmt 0 view .LVU311
 821 02b4 01F00F08 		and	r8, r1, #15
 822 02b8 C844     		add	r8, r8, r9
 823 02ba 09EB111E 		add	lr, r9, r1, lsr #4
 824 02be 18F8102C 		ldrb	r2, [r8, #-16]	@ zero_extendqisi2
 825 02c2 1EF8100C 		ldrb	r0, [lr, #-16]	@ zero_extendqisi2
 826 02c6 B285     		strh	r2, [r6, #44]	@ movhi
 827              	.LBE52:
 137:/Users/joostbooy/Desktop/Code/stm32/lib/tinyusb/hw/bsp/board_api.h ****       const char nibble_to_hex[16] = {
 828              		.loc 2 137 32 is_stmt 1 view .LVU312
 829              	.LVL61:
 137:/Users/joostbooy/Desktop/Code/stm32/lib/tinyusb/hw/bsp/board_api.h ****       const char nibble_to_hex[16] = {
 830              		.loc 2 137 25 view .LVU313
 831              	.LBB53:
 138:/Users/joostbooy/Desktop/Code/stm32/lib/tinyusb/hw/bsp/board_api.h ****           '0', '1', '2', '3', '4', '5', '6', '7',
 832              		.loc 2 138 7 view .LVU314
 142:/Users/joostbooy/Desktop/Code/stm32/lib/tinyusb/hw/bsp/board_api.h ****       desc_str1[i * 2 + (1 - j)] = nibble_to_hex[nibble]; // UTF-16-LE
 833              		.loc 2 142 7 view .LVU315
 834              		.loc 2 143 7 view .LVU316
 835              	.LBE53:
 836              	.LBE93:
 136:/Users/joostbooy/Desktop/Code/stm32/lib/tinyusb/hw/bsp/board_api.h ****     for ( size_t j = 0; j < 2; j++ ) {
 837              		.loc 2 136 3 is_stmt 0 view .LVU317
ARM GAS  /var/folders/84/_x1cyy_j36g486tldtwl37280000gn/T//ccR5gxkH.s 			page 25


 838 02c8 BCF10B0F 		cmp	ip, #11
 839              	.LBB94:
 840              	.LBB54:
 841              		.loc 2 143 49 view .LVU318
 842 02cc 7085     		strh	r0, [r6, #42]	@ movhi
 843              	.LBE54:
 137:/Users/joostbooy/Desktop/Code/stm32/lib/tinyusb/hw/bsp/board_api.h ****       const char nibble_to_hex[16] = {
 844              		.loc 2 137 32 is_stmt 1 view .LVU319
 845              	.LVL62:
 137:/Users/joostbooy/Desktop/Code/stm32/lib/tinyusb/hw/bsp/board_api.h ****       const char nibble_to_hex[16] = {
 846              		.loc 2 137 25 view .LVU320
 847              	.LBE94:
 136:/Users/joostbooy/Desktop/Code/stm32/lib/tinyusb/hw/bsp/board_api.h ****     for ( size_t j = 0; j < 2; j++ ) {
 848              		.loc 2 136 36 view .LVU321
 136:/Users/joostbooy/Desktop/Code/stm32/lib/tinyusb/hw/bsp/board_api.h ****     for ( size_t j = 0; j < 2; j++ ) {
 849              		.loc 2 136 23 view .LVU322
 136:/Users/joostbooy/Desktop/Code/stm32/lib/tinyusb/hw/bsp/board_api.h ****     for ( size_t j = 0; j < 2; j++ ) {
 850              		.loc 2 136 3 is_stmt 0 view .LVU323
 851 02ce 3FF416AF 		beq	.L12
 852 02d2 9DF80B30 		ldrb	r3, [sp, #11]	@ zero_extendqisi2
 853              	.LVL63:
 854              	.LBB95:
 137:/Users/joostbooy/Desktop/Code/stm32/lib/tinyusb/hw/bsp/board_api.h ****       const char nibble_to_hex[16] = {
 855              		.loc 2 137 25 is_stmt 1 view .LVU324
 856              	.LBB55:
 138:/Users/joostbooy/Desktop/Code/stm32/lib/tinyusb/hw/bsp/board_api.h ****           '0', '1', '2', '3', '4', '5', '6', '7',
 857              		.loc 2 138 7 view .LVU325
 142:/Users/joostbooy/Desktop/Code/stm32/lib/tinyusb/hw/bsp/board_api.h ****       desc_str1[i * 2 + (1 - j)] = nibble_to_hex[nibble]; // UTF-16-LE
 858              		.loc 2 142 7 view .LVU326
 859              		.loc 2 143 7 view .LVU327
 860              		.loc 2 143 49 is_stmt 0 view .LVU328
 861 02d6 03F00F05 		and	r5, r3, #15
 862 02da 4D44     		add	r5, r5, r9
 863 02dc 09EB131E 		add	lr, r9, r3, lsr #4
 864 02e0 15F8104C 		ldrb	r4, [r5, #-16]	@ zero_extendqisi2
 865 02e4 1EF8101C 		ldrb	r1, [lr, #-16]	@ zero_extendqisi2
 866 02e8 3486     		strh	r4, [r6, #48]	@ movhi
 867              	.LBE55:
 137:/Users/joostbooy/Desktop/Code/stm32/lib/tinyusb/hw/bsp/board_api.h ****       const char nibble_to_hex[16] = {
 868              		.loc 2 137 32 is_stmt 1 view .LVU329
 869              	.LVL64:
 137:/Users/joostbooy/Desktop/Code/stm32/lib/tinyusb/hw/bsp/board_api.h ****       const char nibble_to_hex[16] = {
 870              		.loc 2 137 25 view .LVU330
 871              	.LBB56:
 138:/Users/joostbooy/Desktop/Code/stm32/lib/tinyusb/hw/bsp/board_api.h ****           '0', '1', '2', '3', '4', '5', '6', '7',
 872              		.loc 2 138 7 view .LVU331
 142:/Users/joostbooy/Desktop/Code/stm32/lib/tinyusb/hw/bsp/board_api.h ****       desc_str1[i * 2 + (1 - j)] = nibble_to_hex[nibble]; // UTF-16-LE
 873              		.loc 2 142 7 view .LVU332
 874              		.loc 2 143 7 view .LVU333
 875              	.LBE56:
 876              	.LBE95:
 136:/Users/joostbooy/Desktop/Code/stm32/lib/tinyusb/hw/bsp/board_api.h ****     for ( size_t j = 0; j < 2; j++ ) {
 877              		.loc 2 136 3 is_stmt 0 view .LVU334
 878 02ea BCF10C0F 		cmp	ip, #12
 879              	.LBB96:
 880              	.LBB57:
 881              		.loc 2 143 49 view .LVU335
ARM GAS  /var/folders/84/_x1cyy_j36g486tldtwl37280000gn/T//ccR5gxkH.s 			page 26


 882 02ee F185     		strh	r1, [r6, #46]	@ movhi
 883              	.LBE57:
 137:/Users/joostbooy/Desktop/Code/stm32/lib/tinyusb/hw/bsp/board_api.h ****       const char nibble_to_hex[16] = {
 884              		.loc 2 137 32 is_stmt 1 view .LVU336
 885              	.LVL65:
 137:/Users/joostbooy/Desktop/Code/stm32/lib/tinyusb/hw/bsp/board_api.h ****       const char nibble_to_hex[16] = {
 886              		.loc 2 137 25 view .LVU337
 887              	.LBE96:
 136:/Users/joostbooy/Desktop/Code/stm32/lib/tinyusb/hw/bsp/board_api.h ****     for ( size_t j = 0; j < 2; j++ ) {
 888              		.loc 2 136 36 view .LVU338
 136:/Users/joostbooy/Desktop/Code/stm32/lib/tinyusb/hw/bsp/board_api.h ****     for ( size_t j = 0; j < 2; j++ ) {
 889              		.loc 2 136 23 view .LVU339
 136:/Users/joostbooy/Desktop/Code/stm32/lib/tinyusb/hw/bsp/board_api.h ****     for ( size_t j = 0; j < 2; j++ ) {
 890              		.loc 2 136 3 is_stmt 0 view .LVU340
 891 02f0 3FF405AF 		beq	.L12
 892 02f4 9DF80C20 		ldrb	r2, [sp, #12]	@ zero_extendqisi2
 893              	.LVL66:
 894              	.LBB97:
 137:/Users/joostbooy/Desktop/Code/stm32/lib/tinyusb/hw/bsp/board_api.h ****       const char nibble_to_hex[16] = {
 895              		.loc 2 137 25 is_stmt 1 view .LVU341
 896              	.LBB58:
 138:/Users/joostbooy/Desktop/Code/stm32/lib/tinyusb/hw/bsp/board_api.h ****           '0', '1', '2', '3', '4', '5', '6', '7',
 897              		.loc 2 138 7 view .LVU342
 142:/Users/joostbooy/Desktop/Code/stm32/lib/tinyusb/hw/bsp/board_api.h ****       desc_str1[i * 2 + (1 - j)] = nibble_to_hex[nibble]; // UTF-16-LE
 898              		.loc 2 142 7 view .LVU343
 899              		.loc 2 143 7 view .LVU344
 900              		.loc 2 143 49 is_stmt 0 view .LVU345
 901 02f8 02F00F08 		and	r8, r2, #15
 902 02fc C844     		add	r8, r8, r9
 903 02fe 09EB121E 		add	lr, r9, r2, lsr #4
 904 0302 18F8100C 		ldrb	r0, [r8, #-16]	@ zero_extendqisi2
 905 0306 1EF8103C 		ldrb	r3, [lr, #-16]	@ zero_extendqisi2
 906 030a B086     		strh	r0, [r6, #52]	@ movhi
 907              	.LBE58:
 137:/Users/joostbooy/Desktop/Code/stm32/lib/tinyusb/hw/bsp/board_api.h ****       const char nibble_to_hex[16] = {
 908              		.loc 2 137 32 is_stmt 1 view .LVU346
 909              	.LVL67:
 137:/Users/joostbooy/Desktop/Code/stm32/lib/tinyusb/hw/bsp/board_api.h ****       const char nibble_to_hex[16] = {
 910              		.loc 2 137 25 view .LVU347
 911              	.LBB59:
 138:/Users/joostbooy/Desktop/Code/stm32/lib/tinyusb/hw/bsp/board_api.h ****           '0', '1', '2', '3', '4', '5', '6', '7',
 912              		.loc 2 138 7 view .LVU348
 142:/Users/joostbooy/Desktop/Code/stm32/lib/tinyusb/hw/bsp/board_api.h ****       desc_str1[i * 2 + (1 - j)] = nibble_to_hex[nibble]; // UTF-16-LE
 913              		.loc 2 142 7 view .LVU349
 914              		.loc 2 143 7 view .LVU350
 915              	.LBE59:
 916              	.LBE97:
 136:/Users/joostbooy/Desktop/Code/stm32/lib/tinyusb/hw/bsp/board_api.h ****     for ( size_t j = 0; j < 2; j++ ) {
 917              		.loc 2 136 3 is_stmt 0 view .LVU351
 918 030c BCF10D0F 		cmp	ip, #13
 919              	.LBB98:
 920              	.LBB60:
 921              		.loc 2 143 49 view .LVU352
 922 0310 7386     		strh	r3, [r6, #50]	@ movhi
 923              	.LBE60:
 137:/Users/joostbooy/Desktop/Code/stm32/lib/tinyusb/hw/bsp/board_api.h ****       const char nibble_to_hex[16] = {
 924              		.loc 2 137 32 is_stmt 1 view .LVU353
ARM GAS  /var/folders/84/_x1cyy_j36g486tldtwl37280000gn/T//ccR5gxkH.s 			page 27


 925              	.LVL68:
 137:/Users/joostbooy/Desktop/Code/stm32/lib/tinyusb/hw/bsp/board_api.h ****       const char nibble_to_hex[16] = {
 926              		.loc 2 137 25 view .LVU354
 927              	.LBE98:
 136:/Users/joostbooy/Desktop/Code/stm32/lib/tinyusb/hw/bsp/board_api.h ****     for ( size_t j = 0; j < 2; j++ ) {
 928              		.loc 2 136 36 view .LVU355
 136:/Users/joostbooy/Desktop/Code/stm32/lib/tinyusb/hw/bsp/board_api.h ****     for ( size_t j = 0; j < 2; j++ ) {
 929              		.loc 2 136 23 view .LVU356
 136:/Users/joostbooy/Desktop/Code/stm32/lib/tinyusb/hw/bsp/board_api.h ****     for ( size_t j = 0; j < 2; j++ ) {
 930              		.loc 2 136 3 is_stmt 0 view .LVU357
 931 0312 3FF4F4AE 		beq	.L12
 932 0316 9DF80D50 		ldrb	r5, [sp, #13]	@ zero_extendqisi2
 933              	.LVL69:
 934              	.LBB99:
 137:/Users/joostbooy/Desktop/Code/stm32/lib/tinyusb/hw/bsp/board_api.h ****       const char nibble_to_hex[16] = {
 935              		.loc 2 137 25 is_stmt 1 view .LVU358
 936              	.LBB61:
 138:/Users/joostbooy/Desktop/Code/stm32/lib/tinyusb/hw/bsp/board_api.h ****           '0', '1', '2', '3', '4', '5', '6', '7',
 937              		.loc 2 138 7 view .LVU359
 142:/Users/joostbooy/Desktop/Code/stm32/lib/tinyusb/hw/bsp/board_api.h ****       desc_str1[i * 2 + (1 - j)] = nibble_to_hex[nibble]; // UTF-16-LE
 938              		.loc 2 142 7 view .LVU360
 939              		.loc 2 143 7 view .LVU361
 940              		.loc 2 143 49 is_stmt 0 view .LVU362
 941 031a 05F00F04 		and	r4, r5, #15
 942 031e 4C44     		add	r4, r4, r9
 943 0320 09EB151E 		add	lr, r9, r5, lsr #4
 944 0324 14F8101C 		ldrb	r1, [r4, #-16]	@ zero_extendqisi2
 945 0328 1EF8102C 		ldrb	r2, [lr, #-16]	@ zero_extendqisi2
 946 032c 3187     		strh	r1, [r6, #56]	@ movhi
 947              	.LBE61:
 137:/Users/joostbooy/Desktop/Code/stm32/lib/tinyusb/hw/bsp/board_api.h ****       const char nibble_to_hex[16] = {
 948              		.loc 2 137 32 is_stmt 1 view .LVU363
 949              	.LVL70:
 137:/Users/joostbooy/Desktop/Code/stm32/lib/tinyusb/hw/bsp/board_api.h ****       const char nibble_to_hex[16] = {
 950              		.loc 2 137 25 view .LVU364
 951              	.LBB62:
 138:/Users/joostbooy/Desktop/Code/stm32/lib/tinyusb/hw/bsp/board_api.h ****           '0', '1', '2', '3', '4', '5', '6', '7',
 952              		.loc 2 138 7 view .LVU365
 142:/Users/joostbooy/Desktop/Code/stm32/lib/tinyusb/hw/bsp/board_api.h ****       desc_str1[i * 2 + (1 - j)] = nibble_to_hex[nibble]; // UTF-16-LE
 953              		.loc 2 142 7 view .LVU366
 954              		.loc 2 143 7 view .LVU367
 955              	.LBE62:
 956              	.LBE99:
 136:/Users/joostbooy/Desktop/Code/stm32/lib/tinyusb/hw/bsp/board_api.h ****     for ( size_t j = 0; j < 2; j++ ) {
 957              		.loc 2 136 3 is_stmt 0 view .LVU368
 958 032e BCF10E0F 		cmp	ip, #14
 959              	.LBB100:
 960              	.LBB63:
 961              		.loc 2 143 49 view .LVU369
 962 0332 F286     		strh	r2, [r6, #54]	@ movhi
 963              	.LBE63:
 137:/Users/joostbooy/Desktop/Code/stm32/lib/tinyusb/hw/bsp/board_api.h ****       const char nibble_to_hex[16] = {
 964              		.loc 2 137 32 is_stmt 1 view .LVU370
 965              	.LVL71:
 137:/Users/joostbooy/Desktop/Code/stm32/lib/tinyusb/hw/bsp/board_api.h ****       const char nibble_to_hex[16] = {
 966              		.loc 2 137 25 view .LVU371
 967              	.LBE100:
ARM GAS  /var/folders/84/_x1cyy_j36g486tldtwl37280000gn/T//ccR5gxkH.s 			page 28


 136:/Users/joostbooy/Desktop/Code/stm32/lib/tinyusb/hw/bsp/board_api.h ****     for ( size_t j = 0; j < 2; j++ ) {
 968              		.loc 2 136 36 view .LVU372
 136:/Users/joostbooy/Desktop/Code/stm32/lib/tinyusb/hw/bsp/board_api.h ****     for ( size_t j = 0; j < 2; j++ ) {
 969              		.loc 2 136 23 view .LVU373
 136:/Users/joostbooy/Desktop/Code/stm32/lib/tinyusb/hw/bsp/board_api.h ****     for ( size_t j = 0; j < 2; j++ ) {
 970              		.loc 2 136 3 is_stmt 0 view .LVU374
 971 0334 3FF4E3AE 		beq	.L12
 972 0338 9DF80E00 		ldrb	r0, [sp, #14]	@ zero_extendqisi2
 973              	.LVL72:
 974              	.LBB101:
 137:/Users/joostbooy/Desktop/Code/stm32/lib/tinyusb/hw/bsp/board_api.h ****       const char nibble_to_hex[16] = {
 975              		.loc 2 137 25 is_stmt 1 view .LVU375
 976              	.LBB64:
 138:/Users/joostbooy/Desktop/Code/stm32/lib/tinyusb/hw/bsp/board_api.h ****           '0', '1', '2', '3', '4', '5', '6', '7',
 977              		.loc 2 138 7 view .LVU376
 142:/Users/joostbooy/Desktop/Code/stm32/lib/tinyusb/hw/bsp/board_api.h ****       desc_str1[i * 2 + (1 - j)] = nibble_to_hex[nibble]; // UTF-16-LE
 978              		.loc 2 142 7 view .LVU377
 979              		.loc 2 143 7 view .LVU378
 980              		.loc 2 143 49 is_stmt 0 view .LVU379
 981 033c 00F00F08 		and	r8, r0, #15
 982 0340 C844     		add	r8, r8, r9
 983 0342 09EB101E 		add	lr, r9, r0, lsr #4
 984 0346 18F8103C 		ldrb	r3, [r8, #-16]	@ zero_extendqisi2
 985 034a 1EF8105C 		ldrb	r5, [lr, #-16]	@ zero_extendqisi2
 986 034e B387     		strh	r3, [r6, #60]	@ movhi
 987              	.LBE64:
 137:/Users/joostbooy/Desktop/Code/stm32/lib/tinyusb/hw/bsp/board_api.h ****       const char nibble_to_hex[16] = {
 988              		.loc 2 137 32 is_stmt 1 view .LVU380
 989              	.LVL73:
 137:/Users/joostbooy/Desktop/Code/stm32/lib/tinyusb/hw/bsp/board_api.h ****       const char nibble_to_hex[16] = {
 990              		.loc 2 137 25 view .LVU381
 991              	.LBB65:
 138:/Users/joostbooy/Desktop/Code/stm32/lib/tinyusb/hw/bsp/board_api.h ****           '0', '1', '2', '3', '4', '5', '6', '7',
 992              		.loc 2 138 7 view .LVU382
 142:/Users/joostbooy/Desktop/Code/stm32/lib/tinyusb/hw/bsp/board_api.h ****       desc_str1[i * 2 + (1 - j)] = nibble_to_hex[nibble]; // UTF-16-LE
 993              		.loc 2 142 7 view .LVU383
 994              		.loc 2 143 7 view .LVU384
 995              	.LBE65:
 996              	.LBE101:
 136:/Users/joostbooy/Desktop/Code/stm32/lib/tinyusb/hw/bsp/board_api.h ****     for ( size_t j = 0; j < 2; j++ ) {
 997              		.loc 2 136 3 is_stmt 0 view .LVU385
 998 0350 BCF1100F 		cmp	ip, #16
 999              	.LBB102:
 1000              	.LBB66:
 1001              		.loc 2 143 49 view .LVU386
 1002 0354 7587     		strh	r5, [r6, #58]	@ movhi
 1003              	.LBE66:
 137:/Users/joostbooy/Desktop/Code/stm32/lib/tinyusb/hw/bsp/board_api.h ****       const char nibble_to_hex[16] = {
 1004              		.loc 2 137 32 is_stmt 1 view .LVU387
 1005              	.LVL74:
 137:/Users/joostbooy/Desktop/Code/stm32/lib/tinyusb/hw/bsp/board_api.h ****       const char nibble_to_hex[16] = {
 1006              		.loc 2 137 25 view .LVU388
 1007              	.LBE102:
 136:/Users/joostbooy/Desktop/Code/stm32/lib/tinyusb/hw/bsp/board_api.h ****     for ( size_t j = 0; j < 2; j++ ) {
 1008              		.loc 2 136 36 view .LVU389
 136:/Users/joostbooy/Desktop/Code/stm32/lib/tinyusb/hw/bsp/board_api.h ****     for ( size_t j = 0; j < 2; j++ ) {
 1009              		.loc 2 136 23 view .LVU390
ARM GAS  /var/folders/84/_x1cyy_j36g486tldtwl37280000gn/T//ccR5gxkH.s 			page 29


 136:/Users/joostbooy/Desktop/Code/stm32/lib/tinyusb/hw/bsp/board_api.h ****     for ( size_t j = 0; j < 2; j++ ) {
 1010              		.loc 2 136 3 is_stmt 0 view .LVU391
 1011 0356 7FF4D2AE 		bne	.L12
 1012 035a 9DF80F40 		ldrb	r4, [sp, #15]	@ zero_extendqisi2
 1013              	.LVL75:
 1014              	.LBB103:
 137:/Users/joostbooy/Desktop/Code/stm32/lib/tinyusb/hw/bsp/board_api.h ****       const char nibble_to_hex[16] = {
 1015              		.loc 2 137 25 is_stmt 1 view .LVU392
 1016              	.LBB67:
 138:/Users/joostbooy/Desktop/Code/stm32/lib/tinyusb/hw/bsp/board_api.h ****           '0', '1', '2', '3', '4', '5', '6', '7',
 1017              		.loc 2 138 7 view .LVU393
 142:/Users/joostbooy/Desktop/Code/stm32/lib/tinyusb/hw/bsp/board_api.h ****       desc_str1[i * 2 + (1 - j)] = nibble_to_hex[nibble]; // UTF-16-LE
 1018              		.loc 2 142 7 view .LVU394
 1019              		.loc 2 143 7 view .LVU395
 1020              		.loc 2 143 49 is_stmt 0 view .LVU396
 1021 035e 04F00F01 		and	r1, r4, #15
 1022 0362 4944     		add	r1, r1, r9
 1023 0364 09EB141C 		add	ip, r9, r4, lsr #4
 1024 0368 11F8102C 		ldrb	r2, [r1, #-16]	@ zero_extendqisi2
 1025 036c 1CF8100C 		ldrb	r0, [ip, #-16]	@ zero_extendqisi2
 1026 0370 A6F84020 		strh	r2, [r6, #64]	@ movhi
 1027              	.LBE67:
 137:/Users/joostbooy/Desktop/Code/stm32/lib/tinyusb/hw/bsp/board_api.h ****       const char nibble_to_hex[16] = {
 1028              		.loc 2 137 32 is_stmt 1 view .LVU397
 1029              	.LVL76:
 137:/Users/joostbooy/Desktop/Code/stm32/lib/tinyusb/hw/bsp/board_api.h ****       const char nibble_to_hex[16] = {
 1030              		.loc 2 137 25 view .LVU398
 1031              	.LBB68:
 138:/Users/joostbooy/Desktop/Code/stm32/lib/tinyusb/hw/bsp/board_api.h ****           '0', '1', '2', '3', '4', '5', '6', '7',
 1032              		.loc 2 138 7 view .LVU399
 142:/Users/joostbooy/Desktop/Code/stm32/lib/tinyusb/hw/bsp/board_api.h ****       desc_str1[i * 2 + (1 - j)] = nibble_to_hex[nibble]; // UTF-16-LE
 1033              		.loc 2 142 7 view .LVU400
 1034              		.loc 2 143 7 view .LVU401
 1035              		.loc 2 143 49 is_stmt 0 view .LVU402
 1036 0374 CE46     		mov	lr, r9
 1037 0376 F087     		strh	r0, [r6, #62]	@ movhi
 1038              	.LBE68:
 137:/Users/joostbooy/Desktop/Code/stm32/lib/tinyusb/hw/bsp/board_api.h ****       const char nibble_to_hex[16] = {
 1039              		.loc 2 137 32 is_stmt 1 view .LVU403
 1040              	.LVL77:
 137:/Users/joostbooy/Desktop/Code/stm32/lib/tinyusb/hw/bsp/board_api.h ****       const char nibble_to_hex[16] = {
 1041              		.loc 2 137 25 view .LVU404
 1042              	.LBE103:
 136:/Users/joostbooy/Desktop/Code/stm32/lib/tinyusb/hw/bsp/board_api.h ****     for ( size_t j = 0; j < 2; j++ ) {
 1043              		.loc 2 136 36 view .LVU405
 136:/Users/joostbooy/Desktop/Code/stm32/lib/tinyusb/hw/bsp/board_api.h ****     for ( size_t j = 0; j < 2; j++ ) {
 1044              		.loc 2 136 23 view .LVU406
 1045 0378 C1E6     		b	.L12
 1046              	.L101:
 1047 037a 00BF     		.align	2
 1048              	.L100:
 1049 037c 00000000 		.word	.LANCHOR3
 1050 0380 00000000 		.word	.LANCHOR2
 1051 0384 00000000 		.word	board_get_unique_id
 1052 0388 00000000 		.word	.LC0
 1053              	.LVL78:
 1054              	.L13:
ARM GAS  /var/folders/84/_x1cyy_j36g486tldtwl37280000gn/T//ccR5gxkH.s 			page 30


 136:/Users/joostbooy/Desktop/Code/stm32/lib/tinyusb/hw/bsp/board_api.h ****     for ( size_t j = 0; j < 2; j++ ) {
 1055              		.loc 2 136 23 is_stmt 0 view .LVU407
 1056              	.LBE18:
 1057              	.LBB108:
 128:/Users/joostbooy/Desktop/Code/stm32/lib/tinyusb/hw/bsp/board_api.h ****     uid32[0] = 0x67452301;
 1058              		.loc 2 128 5 is_stmt 1 view .LVU408
 129:/Users/joostbooy/Desktop/Code/stm32/lib/tinyusb/hw/bsp/board_api.h ****     uid32[1] = 0xEFCDAB89;
 1059              		.loc 2 129 5 view .LVU409
 1060              	.LBE108:
 1061              	.LBB109:
 1062              	.LBB104:
 1063              	.LBB69:
 138:/Users/joostbooy/Desktop/Code/stm32/lib/tinyusb/hw/bsp/board_api.h ****           '0', '1', '2', '3', '4', '5', '6', '7',
 1064              		.loc 2 138 18 is_stmt 0 view .LVU410
 1065 038c 104D     		ldr	r5, .L102
 1066              		.loc 2 143 34 view .LVU411
 1067 038e 114E     		ldr	r6, .L102+4
 138:/Users/joostbooy/Desktop/Code/stm32/lib/tinyusb/hw/bsp/board_api.h ****           '0', '1', '2', '3', '4', '5', '6', '7',
 1068              		.loc 2 138 18 view .LVU412
 1069 0390 95E80F00 		ldm	r5, {r0, r1, r2, r3}
 1070              	.LVL79:
 138:/Users/joostbooy/Desktop/Code/stm32/lib/tinyusb/hw/bsp/board_api.h ****           '0', '1', '2', '3', '4', '5', '6', '7',
 1071              		.loc 2 138 18 view .LVU413
 1072 0394 04AC     		add	r4, sp, #16
 1073 0396 84E80F00 		stm	r4, {r0, r1, r2, r3}
 1074              	.LBE69:
 1075              	.LBE104:
 1076              	.LBE109:
 1077              	.LBB110:
 129:/Users/joostbooy/Desktop/Code/stm32/lib/tinyusb/hw/bsp/board_api.h ****     uid32[1] = 0xEFCDAB89;
 1078              		.loc 2 129 14 view .LVU414
 1079 039a 0F48     		ldr	r0, .L102+8
 130:/Users/joostbooy/Desktop/Code/stm32/lib/tinyusb/hw/bsp/board_api.h ****     uid_len = 8;
 1080              		.loc 2 130 14 view .LVU415
 1081 039c 0F4B     		ldr	r3, .L102+12
 1082              	.LBE110:
 1083              	.LBB111:
 1084              	.LBB105:
 1085              	.LBB70:
 1086              		.loc 2 143 49 view .LVU416
 1087 039e 9DF81170 		ldrb	r7, [sp, #17]	@ zero_extendqisi2
 1088 03a2 9DF81080 		ldrb	r8, [sp, #16]	@ zero_extendqisi2
 1089 03a6 B780     		strh	r7, [r6, #4]	@ movhi
 1090              	.LBE70:
 1091              	.LBE105:
 1092              	.LBE111:
 1093              	.LBB112:
 130:/Users/joostbooy/Desktop/Code/stm32/lib/tinyusb/hw/bsp/board_api.h ****     uid_len = 8;
 1094              		.loc 2 130 14 view .LVU417
 1095 03a8 CDE90003 		strd	r0, r3, [sp]
 131:/Users/joostbooy/Desktop/Code/stm32/lib/tinyusb/hw/bsp/board_api.h ****   }
 1096              		.loc 2 131 5 is_stmt 1 view .LVU418
 1097              	.LVL80:
 131:/Users/joostbooy/Desktop/Code/stm32/lib/tinyusb/hw/bsp/board_api.h ****   }
 1098              		.loc 2 131 5 is_stmt 0 view .LVU419
 1099              	.LBE112:
 134:/Users/joostbooy/Desktop/Code/stm32/lib/tinyusb/hw/bsp/board_api.h **** 
ARM GAS  /var/folders/84/_x1cyy_j36g486tldtwl37280000gn/T//ccR5gxkH.s 			page 31


 1100              		.loc 2 134 3 is_stmt 1 view .LVU420
 136:/Users/joostbooy/Desktop/Code/stm32/lib/tinyusb/hw/bsp/board_api.h ****     for ( size_t j = 0; j < 2; j++ ) {
 1101              		.loc 2 136 3 view .LVU421
 1102              	.LBB113:
 136:/Users/joostbooy/Desktop/Code/stm32/lib/tinyusb/hw/bsp/board_api.h ****     for ( size_t j = 0; j < 2; j++ ) {
 1103              		.loc 2 136 9 view .LVU422
 136:/Users/joostbooy/Desktop/Code/stm32/lib/tinyusb/hw/bsp/board_api.h ****     for ( size_t j = 0; j < 2; j++ ) {
 1104              		.loc 2 136 23 view .LVU423
 1105              	.LBB106:
 137:/Users/joostbooy/Desktop/Code/stm32/lib/tinyusb/hw/bsp/board_api.h ****       const char nibble_to_hex[16] = {
 1106              		.loc 2 137 25 view .LVU424
 1107              	.LBB71:
 138:/Users/joostbooy/Desktop/Code/stm32/lib/tinyusb/hw/bsp/board_api.h ****           '0', '1', '2', '3', '4', '5', '6', '7',
 1108              		.loc 2 138 7 view .LVU425
 142:/Users/joostbooy/Desktop/Code/stm32/lib/tinyusb/hw/bsp/board_api.h ****       desc_str1[i * 2 + (1 - j)] = nibble_to_hex[nibble]; // UTF-16-LE
 1109              		.loc 2 142 7 view .LVU426
 1110              		.loc 2 143 7 view .LVU427
 1111              	.LBE71:
 137:/Users/joostbooy/Desktop/Code/stm32/lib/tinyusb/hw/bsp/board_api.h ****       const char nibble_to_hex[16] = {
 1112              		.loc 2 137 32 view .LVU428
 137:/Users/joostbooy/Desktop/Code/stm32/lib/tinyusb/hw/bsp/board_api.h ****       const char nibble_to_hex[16] = {
 1113              		.loc 2 137 25 view .LVU429
 1114              	.LBB72:
 138:/Users/joostbooy/Desktop/Code/stm32/lib/tinyusb/hw/bsp/board_api.h ****           '0', '1', '2', '3', '4', '5', '6', '7',
 1115              		.loc 2 138 7 view .LVU430
 142:/Users/joostbooy/Desktop/Code/stm32/lib/tinyusb/hw/bsp/board_api.h ****       desc_str1[i * 2 + (1 - j)] = nibble_to_hex[nibble]; // UTF-16-LE
 1116              		.loc 2 142 7 view .LVU431
 1117              		.loc 2 143 7 view .LVU432
 1118              	.LBE72:
 137:/Users/joostbooy/Desktop/Code/stm32/lib/tinyusb/hw/bsp/board_api.h ****       const char nibble_to_hex[16] = {
 1119              		.loc 2 137 32 view .LVU433
 137:/Users/joostbooy/Desktop/Code/stm32/lib/tinyusb/hw/bsp/board_api.h ****       const char nibble_to_hex[16] = {
 1120              		.loc 2 137 25 view .LVU434
 1121              	.LBE106:
 136:/Users/joostbooy/Desktop/Code/stm32/lib/tinyusb/hw/bsp/board_api.h ****     for ( size_t j = 0; j < 2; j++ ) {
 1122              		.loc 2 136 36 view .LVU435
 136:/Users/joostbooy/Desktop/Code/stm32/lib/tinyusb/hw/bsp/board_api.h ****     for ( size_t j = 0; j < 2; j++ ) {
 1123              		.loc 2 136 23 view .LVU436
 1124              	.LBB107:
 1125              	.LBB73:
 1126              		.loc 2 143 49 is_stmt 0 view .LVU437
 1127 03ac A6F80280 		strh	r8, [r6, #2]	@ movhi
 1128 03b0 40F22237 		movw	r7, #802
 1129 03b4 4FF0080C 		mov	ip, #8
 1130 03b8 DEE6     		b	.L15
 1131              	.LVL81:
 1132              	.L19:
 1133              		.loc 2 143 49 view .LVU438
 1134              	.LBE73:
 1135              	.LBE107:
 1136              	.LBE113:
 1137              	.LBE17:
 1138              	.LBE16:
 176:Drivers/Usb/usb_descriptors.c **** 
 1139              		.loc 1 176 85 view .LVU439
 1140 03ba 0020     		movs	r0, #0
 1141              	.LVL82:
ARM GAS  /var/folders/84/_x1cyy_j36g486tldtwl37280000gn/T//ccR5gxkH.s 			page 32


 176:Drivers/Usb/usb_descriptors.c **** 
 1142              		.loc 1 176 85 view .LVU440
 1143 03bc A1E6     		b	.L8
 1144              	.LVL83:
 1145              	.L18:
 176:Drivers/Usb/usb_descriptors.c **** 
 1146              		.loc 1 176 85 view .LVU441
 1147 03be 054E     		ldr	r6, .L102+4
 1148              	.LBB116:
 1149              	.LBB115:
 1150              	.LBB114:
 136:/Users/joostbooy/Desktop/Code/stm32/lib/tinyusb/hw/bsp/board_api.h ****     for ( size_t j = 0; j < 2; j++ ) {
 1151              		.loc 2 136 3 view .LVU442
 1152 03c0 40F20237 		movw	r7, #770
 1153              	.LBE114:
 144:/Users/joostbooy/Desktop/Code/stm32/lib/tinyusb/hw/bsp/board_api.h ****     }
 145:/Users/joostbooy/Desktop/Code/stm32/lib/tinyusb/hw/bsp/board_api.h ****   }
 146:/Users/joostbooy/Desktop/Code/stm32/lib/tinyusb/hw/bsp/board_api.h **** 
 147:/Users/joostbooy/Desktop/Code/stm32/lib/tinyusb/hw/bsp/board_api.h ****   return 2 * uid_len;
 1154              		.loc 2 147 3 is_stmt 1 view .LVU443
 1155              	.LVL84:
 1156              		.loc 2 147 3 is_stmt 0 view .LVU444
 1157              	.LBE115:
 1158              	.LBE116:
 170:Drivers/Usb/usb_descriptors.c **** 
 1159              		.loc 1 170 7 is_stmt 1 view .LVU445
 1160 03c4 9BE6     		b	.L12
 1161              	.LVL85:
 1162              	.L20:
 170:Drivers/Usb/usb_descriptors.c **** 
 1163              		.loc 1 170 7 is_stmt 0 view .LVU446
 1164 03c6 034E     		ldr	r6, .L102+4
 1165              	.LBB117:
 186:Drivers/Usb/usb_descriptors.c ****         _desc_str[1 + i] = str[i];
 1166              		.loc 1 186 7 view .LVU447
 1167 03c8 40F20237 		movw	r7, #770
 1168 03cc 97E6     		b	.L12
 1169              	.L103:
 1170 03ce 00BF     		.align	2
 1171              	.L102:
 1172 03d0 00000000 		.word	.LC0
 1173 03d4 00000000 		.word	.LANCHOR2
 1174 03d8 01234567 		.word	1732584193
 1175 03dc 89ABCDEF 		.word	-271733879
 1176              	.LBE117:
 1177              	.LBE118:
 1178              		.cfi_endproc
 1179              	.LFE76:
 1181              		.global	string_desc_arr
 1182              		.section	.rodata.str1.4,"aMS",%progbits,1
 1183              		.align	2
 1184              	.LC1:
 1185 0000 4A6F6F73 		.ascii	"Joost Seq\000"
 1185      74205365 
 1185      7100
 1186 000a 0000     		.align	2
 1187              	.LC2:
ARM GAS  /var/folders/84/_x1cyy_j36g486tldtwl37280000gn/T//ccR5gxkH.s 			page 33


 1188 000c 4D696469 		.ascii	"Midi & CV Sequencer\000"
 1188      20262043 
 1188      56205365 
 1188      7175656E 
 1188      63657200 
 1189              		.global	desc_fs_configuration
 1190              		.global	desc_device
 1191              		.section	.bss._desc_str,"aw",%nobits
 1192              		.align	2
 1193              		.set	.LANCHOR2,. + 0
 1196              	_desc_str:
 1197 0000 00000000 		.space	66
 1197      00000000 
 1197      00000000 
 1197      00000000 
 1197      00000000 
 1198              		.section	.data.string_desc_arr,"aw"
 1199              		.align	2
 1200              		.set	.LANCHOR3,. + 0
 1203              	string_desc_arr:
 1204 0000 00000000 		.word	__compound_literal.0
 1205 0004 00000000 		.word	.LC1
 1206 0008 0C000000 		.word	.LC2
 1207 000c 00000000 		.word	0
 1208              		.section	.rodata.__compound_literal.0,"a"
 1209              		.align	2
 1212              	__compound_literal.0:
 1213 0000 09       		.byte	9
 1214 0001 04       		.byte	4
 1215              		.section	.rodata.desc_device,"a"
 1216              		.align	2
 1217              		.set	.LANCHOR0,. + 0
 1220              	desc_device:
 1221 0000 12       		.byte	18
 1222 0001 01       		.byte	1
 1223 0002 0002     		.short	512
 1224 0004 00       		.byte	0
 1225 0005 00       		.byte	0
 1226 0006 00       		.byte	0
 1227 0007 40       		.byte	64
 1228 0008 FECA     		.short	-13570
 1229 000a 0840     		.short	16392
 1230 000c 0001     		.short	256
 1231 000e 01       		.byte	1
 1232 000f 02       		.byte	2
 1233 0010 03       		.byte	3
 1234 0011 01       		.byte	1
 1235              		.section	.rodata.desc_fs_configuration,"a"
 1236              		.align	2
 1237              		.set	.LANCHOR1,. + 0
 1240              	desc_fs_configuration:
 1241 0000 09026500 		.ascii	"\011\002e\000\002\001\000\2002\011\004\000\000\000\001"
 1241      02010080 
 1241      32090400 
 1241      000001
 1242 000f 01000009 		.ascii	"\001\000\000\011$\001\000\001\011\000\001\001\011\004"
 1242      24010001 
ARM GAS  /var/folders/84/_x1cyy_j36g486tldtwl37280000gn/T//ccR5gxkH.s 			page 34


 1242      09000101 
 1242      0904
 1243 001d 01000201 		.ascii	"\001\000\002\001\003\000\000\007$\001\000\001A\000\006"
 1243      03000007 
 1243      24010001 
 1243      410006
 1244 002c 24020101 		.ascii	"$\002\001\001\000\006$\002\002\002\000\011$\003\001"
 1244      00062402 
 1244      02020009 
 1244      240301
 1245 003b 03010201 		.ascii	"\003\001\002\001\000\011$\003\002\004\001\001\001\000"
 1245      00092403 
 1245      02040101 
 1245      0100
 1246 0049 09050102 		.ascii	"\011\005\001\002@\000\000\000\000\005%\001\001\001\011"
 1246      40000000 
 1246      00052501 
 1246      010109
 1247 0058 05810240 		.ascii	"\005\201\002@\000\000\000\000\005%\001\001\003"
 1247      00000000 
 1247      05250101 
 1247      03
 1248              		.weak	board_get_unique_id
 1249              		.text
 1250              	.Letext0:
 1251              		.file 3 "/usr/local/Caskroom/gcc-arm-embedded/9-2019-q4-major/gcc-arm-none-eabi-9-2019-q4-major/ar
 1252              		.file 4 "/usr/local/Caskroom/gcc-arm-embedded/9-2019-q4-major/gcc-arm-none-eabi-9-2019-q4-major/ar
 1253              		.file 5 "/usr/local/Caskroom/gcc-arm-embedded/9-2019-q4-major/gcc-arm-none-eabi-9-2019-q4-major/li
 1254              		.file 6 "/usr/local/Caskroom/gcc-arm-embedded/9-2019-q4-major/gcc-arm-none-eabi-9-2019-q4-major/ar
 1255              		.file 7 "/usr/local/Caskroom/gcc-arm-embedded/9-2019-q4-major/gcc-arm-none-eabi-9-2019-q4-major/ar
 1256              		.file 8 "/usr/local/Caskroom/gcc-arm-embedded/9-2019-q4-major/gcc-arm-none-eabi-9-2019-q4-major/ar
 1257              		.file 9 "/Users/joostbooy/Desktop/Code/stm32/lib/tinyusb/src/common/tusb_types.h"
 1258              		.file 10 "/Users/joostbooy/Desktop/Code/stm32/lib/tinyusb/src/class/audio/audio.h"
 1259              		.file 11 "/Users/joostbooy/Desktop/Code/stm32/lib/tinyusb/src/class/midi/midi.h"
 1260              		.file 12 "/usr/local/Caskroom/gcc-arm-embedded/9-2019-q4-major/gcc-arm-none-eabi-9-2019-q4-major/a
ARM GAS  /var/folders/84/_x1cyy_j36g486tldtwl37280000gn/T//ccR5gxkH.s 			page 35

