ARM GAS  /var/folders/84/_x1cyy_j36g486tldtwl37280000gn/T//cch4UlI6.s 			page 1


   1              		.cpu cortex-m4
   2              		.eabi_attribute 27, 1
   3              		.eabi_attribute 28, 1
   4              		.eabi_attribute 20, 1
   5              		.eabi_attribute 21, 1
   6              		.eabi_attribute 23, 3
   7              		.eabi_attribute 24, 1
   8              		.eabi_attribute 25, 1
   9              		.eabi_attribute 26, 1
  10              		.eabi_attribute 30, 2
  11              		.eabi_attribute 34, 1
  12              		.eabi_attribute 18, 4
  13              		.file	"usbd.c"
  14              		.text
  15              	.Ltext0:
  16              		.cfi_sections	.debug_frame
  17              		.section	.text.configuration_reset,"ax",%progbits
  18              		.align	1
  19              		.p2align 2,,3
  20              		.arch armv7e-m
  21              		.syntax unified
  22              		.thumb
  23              		.thumb_func
  24              		.fpu fpv4-sp-d16
  26              	configuration_reset:
  27              	.LVL0:
  28              	.LFB95:
  29              		.file 1 "/Users/joostbooy/Desktop/Code/stm32/lib/tinyusb/src/device/usbd.c"
   1:/Users/joostbooy/Desktop/Code/stm32/lib/tinyusb/src/device/usbd.c **** /*
   2:/Users/joostbooy/Desktop/Code/stm32/lib/tinyusb/src/device/usbd.c ****  * The MIT License (MIT)
   3:/Users/joostbooy/Desktop/Code/stm32/lib/tinyusb/src/device/usbd.c ****  *
   4:/Users/joostbooy/Desktop/Code/stm32/lib/tinyusb/src/device/usbd.c ****  * Copyright (c) 2019 Ha Thach (tinyusb.org)
   5:/Users/joostbooy/Desktop/Code/stm32/lib/tinyusb/src/device/usbd.c ****  *
   6:/Users/joostbooy/Desktop/Code/stm32/lib/tinyusb/src/device/usbd.c ****  * Permission is hereby granted, free of charge, to any person obtaining a copy
   7:/Users/joostbooy/Desktop/Code/stm32/lib/tinyusb/src/device/usbd.c ****  * of this software and associated documentation files (the "Software"), to deal
   8:/Users/joostbooy/Desktop/Code/stm32/lib/tinyusb/src/device/usbd.c ****  * in the Software without restriction, including without limitation the rights
   9:/Users/joostbooy/Desktop/Code/stm32/lib/tinyusb/src/device/usbd.c ****  * to use, copy, modify, merge, publish, distribute, sublicense, and/or sell
  10:/Users/joostbooy/Desktop/Code/stm32/lib/tinyusb/src/device/usbd.c ****  * copies of the Software, and to permit persons to whom the Software is
  11:/Users/joostbooy/Desktop/Code/stm32/lib/tinyusb/src/device/usbd.c ****  * furnished to do so, subject to the following conditions:
  12:/Users/joostbooy/Desktop/Code/stm32/lib/tinyusb/src/device/usbd.c ****  *
  13:/Users/joostbooy/Desktop/Code/stm32/lib/tinyusb/src/device/usbd.c ****  * The above copyright notice and this permission notice shall be included in
  14:/Users/joostbooy/Desktop/Code/stm32/lib/tinyusb/src/device/usbd.c ****  * all copies or substantial portions of the Software.
  15:/Users/joostbooy/Desktop/Code/stm32/lib/tinyusb/src/device/usbd.c ****  *
  16:/Users/joostbooy/Desktop/Code/stm32/lib/tinyusb/src/device/usbd.c ****  * THE SOFTWARE IS PROVIDED "AS IS", WITHOUT WARRANTY OF ANY KIND, EXPRESS OR
  17:/Users/joostbooy/Desktop/Code/stm32/lib/tinyusb/src/device/usbd.c ****  * IMPLIED, INCLUDING BUT NOT LIMITED TO THE WARRANTIES OF MERCHANTABILITY,
  18:/Users/joostbooy/Desktop/Code/stm32/lib/tinyusb/src/device/usbd.c ****  * FITNESS FOR A PARTICULAR PURPOSE AND NONINFRINGEMENT. IN NO EVENT SHALL THE
  19:/Users/joostbooy/Desktop/Code/stm32/lib/tinyusb/src/device/usbd.c ****  * AUTHORS OR COPYRIGHT HOLDERS BE LIABLE FOR ANY CLAIM, DAMAGES OR OTHER
  20:/Users/joostbooy/Desktop/Code/stm32/lib/tinyusb/src/device/usbd.c ****  * LIABILITY, WHETHER IN AN ACTION OF CONTRACT, TORT OR OTHERWISE, ARISING FROM,
  21:/Users/joostbooy/Desktop/Code/stm32/lib/tinyusb/src/device/usbd.c ****  * OUT OF OR IN CONNECTION WITH THE SOFTWARE OR THE USE OR OTHER DEALINGS IN
  22:/Users/joostbooy/Desktop/Code/stm32/lib/tinyusb/src/device/usbd.c ****  * THE SOFTWARE.
  23:/Users/joostbooy/Desktop/Code/stm32/lib/tinyusb/src/device/usbd.c ****  *
  24:/Users/joostbooy/Desktop/Code/stm32/lib/tinyusb/src/device/usbd.c ****  * This file is part of the TinyUSB stack.
  25:/Users/joostbooy/Desktop/Code/stm32/lib/tinyusb/src/device/usbd.c ****  */
  26:/Users/joostbooy/Desktop/Code/stm32/lib/tinyusb/src/device/usbd.c **** 
  27:/Users/joostbooy/Desktop/Code/stm32/lib/tinyusb/src/device/usbd.c **** #include "tusb_option.h"
  28:/Users/joostbooy/Desktop/Code/stm32/lib/tinyusb/src/device/usbd.c **** 
  29:/Users/joostbooy/Desktop/Code/stm32/lib/tinyusb/src/device/usbd.c **** #if CFG_TUD_ENABLED
ARM GAS  /var/folders/84/_x1cyy_j36g486tldtwl37280000gn/T//cch4UlI6.s 			page 2


  30:/Users/joostbooy/Desktop/Code/stm32/lib/tinyusb/src/device/usbd.c **** 
  31:/Users/joostbooy/Desktop/Code/stm32/lib/tinyusb/src/device/usbd.c **** #include "device/dcd.h"
  32:/Users/joostbooy/Desktop/Code/stm32/lib/tinyusb/src/device/usbd.c **** #include "tusb.h"
  33:/Users/joostbooy/Desktop/Code/stm32/lib/tinyusb/src/device/usbd.c **** #include "common/tusb_private.h"
  34:/Users/joostbooy/Desktop/Code/stm32/lib/tinyusb/src/device/usbd.c **** 
  35:/Users/joostbooy/Desktop/Code/stm32/lib/tinyusb/src/device/usbd.c **** #include "device/usbd.h"
  36:/Users/joostbooy/Desktop/Code/stm32/lib/tinyusb/src/device/usbd.c **** #include "device/usbd_pvt.h"
  37:/Users/joostbooy/Desktop/Code/stm32/lib/tinyusb/src/device/usbd.c **** 
  38:/Users/joostbooy/Desktop/Code/stm32/lib/tinyusb/src/device/usbd.c **** //--------------------------------------------------------------------+
  39:/Users/joostbooy/Desktop/Code/stm32/lib/tinyusb/src/device/usbd.c **** // USBD Configuration
  40:/Users/joostbooy/Desktop/Code/stm32/lib/tinyusb/src/device/usbd.c **** //--------------------------------------------------------------------+
  41:/Users/joostbooy/Desktop/Code/stm32/lib/tinyusb/src/device/usbd.c **** 
  42:/Users/joostbooy/Desktop/Code/stm32/lib/tinyusb/src/device/usbd.c **** #ifndef CFG_TUD_TASK_QUEUE_SZ
  43:/Users/joostbooy/Desktop/Code/stm32/lib/tinyusb/src/device/usbd.c ****   #define CFG_TUD_TASK_QUEUE_SZ   16
  44:/Users/joostbooy/Desktop/Code/stm32/lib/tinyusb/src/device/usbd.c **** #endif
  45:/Users/joostbooy/Desktop/Code/stm32/lib/tinyusb/src/device/usbd.c **** 
  46:/Users/joostbooy/Desktop/Code/stm32/lib/tinyusb/src/device/usbd.c **** //--------------------------------------------------------------------+
  47:/Users/joostbooy/Desktop/Code/stm32/lib/tinyusb/src/device/usbd.c **** // Device Data
  48:/Users/joostbooy/Desktop/Code/stm32/lib/tinyusb/src/device/usbd.c **** //--------------------------------------------------------------------+
  49:/Users/joostbooy/Desktop/Code/stm32/lib/tinyusb/src/device/usbd.c **** 
  50:/Users/joostbooy/Desktop/Code/stm32/lib/tinyusb/src/device/usbd.c **** // Invalid driver ID in itf2drv[] ep2drv[][] mapping
  51:/Users/joostbooy/Desktop/Code/stm32/lib/tinyusb/src/device/usbd.c **** enum { DRVID_INVALID = 0xFFu };
  52:/Users/joostbooy/Desktop/Code/stm32/lib/tinyusb/src/device/usbd.c **** 
  53:/Users/joostbooy/Desktop/Code/stm32/lib/tinyusb/src/device/usbd.c **** typedef struct
  54:/Users/joostbooy/Desktop/Code/stm32/lib/tinyusb/src/device/usbd.c **** {
  55:/Users/joostbooy/Desktop/Code/stm32/lib/tinyusb/src/device/usbd.c ****   struct TU_ATTR_PACKED
  56:/Users/joostbooy/Desktop/Code/stm32/lib/tinyusb/src/device/usbd.c ****   {
  57:/Users/joostbooy/Desktop/Code/stm32/lib/tinyusb/src/device/usbd.c ****     volatile uint8_t connected    : 1;
  58:/Users/joostbooy/Desktop/Code/stm32/lib/tinyusb/src/device/usbd.c ****     volatile uint8_t addressed    : 1;
  59:/Users/joostbooy/Desktop/Code/stm32/lib/tinyusb/src/device/usbd.c ****     volatile uint8_t suspended    : 1;
  60:/Users/joostbooy/Desktop/Code/stm32/lib/tinyusb/src/device/usbd.c **** 
  61:/Users/joostbooy/Desktop/Code/stm32/lib/tinyusb/src/device/usbd.c ****     uint8_t remote_wakeup_en      : 1; // enable/disable by host
  62:/Users/joostbooy/Desktop/Code/stm32/lib/tinyusb/src/device/usbd.c ****     uint8_t remote_wakeup_support : 1; // configuration descriptor's attribute
  63:/Users/joostbooy/Desktop/Code/stm32/lib/tinyusb/src/device/usbd.c ****     uint8_t self_powered          : 1; // configuration descriptor's attribute
  64:/Users/joostbooy/Desktop/Code/stm32/lib/tinyusb/src/device/usbd.c ****   };
  65:/Users/joostbooy/Desktop/Code/stm32/lib/tinyusb/src/device/usbd.c **** 
  66:/Users/joostbooy/Desktop/Code/stm32/lib/tinyusb/src/device/usbd.c ****   volatile uint8_t cfg_num; // current active configuration (0x00 is not configured)
  67:/Users/joostbooy/Desktop/Code/stm32/lib/tinyusb/src/device/usbd.c ****   uint8_t speed;
  68:/Users/joostbooy/Desktop/Code/stm32/lib/tinyusb/src/device/usbd.c **** 
  69:/Users/joostbooy/Desktop/Code/stm32/lib/tinyusb/src/device/usbd.c ****   uint8_t itf2drv[CFG_TUD_INTERFACE_MAX];   // map interface number to driver (0xff is invalid)
  70:/Users/joostbooy/Desktop/Code/stm32/lib/tinyusb/src/device/usbd.c ****   uint8_t ep2drv[CFG_TUD_ENDPPOINT_MAX][2]; // map endpoint to driver ( 0xff is invalid ), can use 
  71:/Users/joostbooy/Desktop/Code/stm32/lib/tinyusb/src/device/usbd.c **** 
  72:/Users/joostbooy/Desktop/Code/stm32/lib/tinyusb/src/device/usbd.c ****   tu_edpt_state_t ep_status[CFG_TUD_ENDPPOINT_MAX][2];
  73:/Users/joostbooy/Desktop/Code/stm32/lib/tinyusb/src/device/usbd.c **** 
  74:/Users/joostbooy/Desktop/Code/stm32/lib/tinyusb/src/device/usbd.c **** }usbd_device_t;
  75:/Users/joostbooy/Desktop/Code/stm32/lib/tinyusb/src/device/usbd.c **** 
  76:/Users/joostbooy/Desktop/Code/stm32/lib/tinyusb/src/device/usbd.c **** tu_static usbd_device_t _usbd_dev;
  77:/Users/joostbooy/Desktop/Code/stm32/lib/tinyusb/src/device/usbd.c **** 
  78:/Users/joostbooy/Desktop/Code/stm32/lib/tinyusb/src/device/usbd.c **** //--------------------------------------------------------------------+
  79:/Users/joostbooy/Desktop/Code/stm32/lib/tinyusb/src/device/usbd.c **** // Class Driver
  80:/Users/joostbooy/Desktop/Code/stm32/lib/tinyusb/src/device/usbd.c **** //--------------------------------------------------------------------+
  81:/Users/joostbooy/Desktop/Code/stm32/lib/tinyusb/src/device/usbd.c **** #if CFG_TUSB_DEBUG >= CFG_TUD_LOG_LEVEL
  82:/Users/joostbooy/Desktop/Code/stm32/lib/tinyusb/src/device/usbd.c ****   #define DRIVER_NAME(_name)    .name = _name,
  83:/Users/joostbooy/Desktop/Code/stm32/lib/tinyusb/src/device/usbd.c **** #else
  84:/Users/joostbooy/Desktop/Code/stm32/lib/tinyusb/src/device/usbd.c ****   #define DRIVER_NAME(_name)
  85:/Users/joostbooy/Desktop/Code/stm32/lib/tinyusb/src/device/usbd.c **** #endif
  86:/Users/joostbooy/Desktop/Code/stm32/lib/tinyusb/src/device/usbd.c **** 
ARM GAS  /var/folders/84/_x1cyy_j36g486tldtwl37280000gn/T//cch4UlI6.s 			page 3


  87:/Users/joostbooy/Desktop/Code/stm32/lib/tinyusb/src/device/usbd.c **** // Built-in class drivers
  88:/Users/joostbooy/Desktop/Code/stm32/lib/tinyusb/src/device/usbd.c **** tu_static usbd_class_driver_t const _usbd_driver[] =
  89:/Users/joostbooy/Desktop/Code/stm32/lib/tinyusb/src/device/usbd.c **** {
  90:/Users/joostbooy/Desktop/Code/stm32/lib/tinyusb/src/device/usbd.c ****   #if CFG_TUD_CDC
  91:/Users/joostbooy/Desktop/Code/stm32/lib/tinyusb/src/device/usbd.c ****   {
  92:/Users/joostbooy/Desktop/Code/stm32/lib/tinyusb/src/device/usbd.c ****     DRIVER_NAME("CDC")
  93:/Users/joostbooy/Desktop/Code/stm32/lib/tinyusb/src/device/usbd.c ****     .init             = cdcd_init,
  94:/Users/joostbooy/Desktop/Code/stm32/lib/tinyusb/src/device/usbd.c ****     .reset            = cdcd_reset,
  95:/Users/joostbooy/Desktop/Code/stm32/lib/tinyusb/src/device/usbd.c ****     .open             = cdcd_open,
  96:/Users/joostbooy/Desktop/Code/stm32/lib/tinyusb/src/device/usbd.c ****     .control_xfer_cb  = cdcd_control_xfer_cb,
  97:/Users/joostbooy/Desktop/Code/stm32/lib/tinyusb/src/device/usbd.c ****     .xfer_cb          = cdcd_xfer_cb,
  98:/Users/joostbooy/Desktop/Code/stm32/lib/tinyusb/src/device/usbd.c ****     .sof              = NULL
  99:/Users/joostbooy/Desktop/Code/stm32/lib/tinyusb/src/device/usbd.c ****   },
 100:/Users/joostbooy/Desktop/Code/stm32/lib/tinyusb/src/device/usbd.c ****   #endif
 101:/Users/joostbooy/Desktop/Code/stm32/lib/tinyusb/src/device/usbd.c **** 
 102:/Users/joostbooy/Desktop/Code/stm32/lib/tinyusb/src/device/usbd.c ****   #if CFG_TUD_MSC
 103:/Users/joostbooy/Desktop/Code/stm32/lib/tinyusb/src/device/usbd.c ****   {
 104:/Users/joostbooy/Desktop/Code/stm32/lib/tinyusb/src/device/usbd.c ****     DRIVER_NAME("MSC")
 105:/Users/joostbooy/Desktop/Code/stm32/lib/tinyusb/src/device/usbd.c ****     .init             = mscd_init,
 106:/Users/joostbooy/Desktop/Code/stm32/lib/tinyusb/src/device/usbd.c ****     .reset            = mscd_reset,
 107:/Users/joostbooy/Desktop/Code/stm32/lib/tinyusb/src/device/usbd.c ****     .open             = mscd_open,
 108:/Users/joostbooy/Desktop/Code/stm32/lib/tinyusb/src/device/usbd.c ****     .control_xfer_cb  = mscd_control_xfer_cb,
 109:/Users/joostbooy/Desktop/Code/stm32/lib/tinyusb/src/device/usbd.c ****     .xfer_cb          = mscd_xfer_cb,
 110:/Users/joostbooy/Desktop/Code/stm32/lib/tinyusb/src/device/usbd.c ****     .sof              = NULL
 111:/Users/joostbooy/Desktop/Code/stm32/lib/tinyusb/src/device/usbd.c ****   },
 112:/Users/joostbooy/Desktop/Code/stm32/lib/tinyusb/src/device/usbd.c ****   #endif
 113:/Users/joostbooy/Desktop/Code/stm32/lib/tinyusb/src/device/usbd.c **** 
 114:/Users/joostbooy/Desktop/Code/stm32/lib/tinyusb/src/device/usbd.c ****   #if CFG_TUD_HID
 115:/Users/joostbooy/Desktop/Code/stm32/lib/tinyusb/src/device/usbd.c ****   {
 116:/Users/joostbooy/Desktop/Code/stm32/lib/tinyusb/src/device/usbd.c ****     DRIVER_NAME("HID")
 117:/Users/joostbooy/Desktop/Code/stm32/lib/tinyusb/src/device/usbd.c ****     .init             = hidd_init,
 118:/Users/joostbooy/Desktop/Code/stm32/lib/tinyusb/src/device/usbd.c ****     .reset            = hidd_reset,
 119:/Users/joostbooy/Desktop/Code/stm32/lib/tinyusb/src/device/usbd.c ****     .open             = hidd_open,
 120:/Users/joostbooy/Desktop/Code/stm32/lib/tinyusb/src/device/usbd.c ****     .control_xfer_cb  = hidd_control_xfer_cb,
 121:/Users/joostbooy/Desktop/Code/stm32/lib/tinyusb/src/device/usbd.c ****     .xfer_cb          = hidd_xfer_cb,
 122:/Users/joostbooy/Desktop/Code/stm32/lib/tinyusb/src/device/usbd.c ****     .sof              = NULL
 123:/Users/joostbooy/Desktop/Code/stm32/lib/tinyusb/src/device/usbd.c ****   },
 124:/Users/joostbooy/Desktop/Code/stm32/lib/tinyusb/src/device/usbd.c ****   #endif
 125:/Users/joostbooy/Desktop/Code/stm32/lib/tinyusb/src/device/usbd.c **** 
 126:/Users/joostbooy/Desktop/Code/stm32/lib/tinyusb/src/device/usbd.c ****   #if CFG_TUD_AUDIO
 127:/Users/joostbooy/Desktop/Code/stm32/lib/tinyusb/src/device/usbd.c ****   {
 128:/Users/joostbooy/Desktop/Code/stm32/lib/tinyusb/src/device/usbd.c ****     DRIVER_NAME("AUDIO")
 129:/Users/joostbooy/Desktop/Code/stm32/lib/tinyusb/src/device/usbd.c ****     .init             = audiod_init,
 130:/Users/joostbooy/Desktop/Code/stm32/lib/tinyusb/src/device/usbd.c ****     .reset            = audiod_reset,
 131:/Users/joostbooy/Desktop/Code/stm32/lib/tinyusb/src/device/usbd.c ****     .open             = audiod_open,
 132:/Users/joostbooy/Desktop/Code/stm32/lib/tinyusb/src/device/usbd.c ****     .control_xfer_cb  = audiod_control_xfer_cb,
 133:/Users/joostbooy/Desktop/Code/stm32/lib/tinyusb/src/device/usbd.c ****     .xfer_cb          = audiod_xfer_cb,
 134:/Users/joostbooy/Desktop/Code/stm32/lib/tinyusb/src/device/usbd.c ****     .sof              = audiod_sof_isr
 135:/Users/joostbooy/Desktop/Code/stm32/lib/tinyusb/src/device/usbd.c ****   },
 136:/Users/joostbooy/Desktop/Code/stm32/lib/tinyusb/src/device/usbd.c ****   #endif
 137:/Users/joostbooy/Desktop/Code/stm32/lib/tinyusb/src/device/usbd.c **** 
 138:/Users/joostbooy/Desktop/Code/stm32/lib/tinyusb/src/device/usbd.c ****   #if CFG_TUD_VIDEO
 139:/Users/joostbooy/Desktop/Code/stm32/lib/tinyusb/src/device/usbd.c ****   {
 140:/Users/joostbooy/Desktop/Code/stm32/lib/tinyusb/src/device/usbd.c ****     DRIVER_NAME("VIDEO")
 141:/Users/joostbooy/Desktop/Code/stm32/lib/tinyusb/src/device/usbd.c ****     .init             = videod_init,
 142:/Users/joostbooy/Desktop/Code/stm32/lib/tinyusb/src/device/usbd.c ****     .reset            = videod_reset,
 143:/Users/joostbooy/Desktop/Code/stm32/lib/tinyusb/src/device/usbd.c ****     .open             = videod_open,
ARM GAS  /var/folders/84/_x1cyy_j36g486tldtwl37280000gn/T//cch4UlI6.s 			page 4


 144:/Users/joostbooy/Desktop/Code/stm32/lib/tinyusb/src/device/usbd.c ****     .control_xfer_cb  = videod_control_xfer_cb,
 145:/Users/joostbooy/Desktop/Code/stm32/lib/tinyusb/src/device/usbd.c ****     .xfer_cb          = videod_xfer_cb,
 146:/Users/joostbooy/Desktop/Code/stm32/lib/tinyusb/src/device/usbd.c ****     .sof              = NULL
 147:/Users/joostbooy/Desktop/Code/stm32/lib/tinyusb/src/device/usbd.c ****   },
 148:/Users/joostbooy/Desktop/Code/stm32/lib/tinyusb/src/device/usbd.c ****   #endif
 149:/Users/joostbooy/Desktop/Code/stm32/lib/tinyusb/src/device/usbd.c **** 
 150:/Users/joostbooy/Desktop/Code/stm32/lib/tinyusb/src/device/usbd.c ****   #if CFG_TUD_MIDI
 151:/Users/joostbooy/Desktop/Code/stm32/lib/tinyusb/src/device/usbd.c ****   {
 152:/Users/joostbooy/Desktop/Code/stm32/lib/tinyusb/src/device/usbd.c ****     DRIVER_NAME("MIDI")
 153:/Users/joostbooy/Desktop/Code/stm32/lib/tinyusb/src/device/usbd.c ****     .init             = midid_init,
 154:/Users/joostbooy/Desktop/Code/stm32/lib/tinyusb/src/device/usbd.c ****     .open             = midid_open,
 155:/Users/joostbooy/Desktop/Code/stm32/lib/tinyusb/src/device/usbd.c ****     .reset            = midid_reset,
 156:/Users/joostbooy/Desktop/Code/stm32/lib/tinyusb/src/device/usbd.c ****     .control_xfer_cb  = midid_control_xfer_cb,
 157:/Users/joostbooy/Desktop/Code/stm32/lib/tinyusb/src/device/usbd.c ****     .xfer_cb          = midid_xfer_cb,
 158:/Users/joostbooy/Desktop/Code/stm32/lib/tinyusb/src/device/usbd.c ****     .sof              = NULL
 159:/Users/joostbooy/Desktop/Code/stm32/lib/tinyusb/src/device/usbd.c ****   },
 160:/Users/joostbooy/Desktop/Code/stm32/lib/tinyusb/src/device/usbd.c ****   #endif
 161:/Users/joostbooy/Desktop/Code/stm32/lib/tinyusb/src/device/usbd.c **** 
 162:/Users/joostbooy/Desktop/Code/stm32/lib/tinyusb/src/device/usbd.c ****   #if CFG_TUD_VENDOR
 163:/Users/joostbooy/Desktop/Code/stm32/lib/tinyusb/src/device/usbd.c ****   {
 164:/Users/joostbooy/Desktop/Code/stm32/lib/tinyusb/src/device/usbd.c ****     DRIVER_NAME("VENDOR")
 165:/Users/joostbooy/Desktop/Code/stm32/lib/tinyusb/src/device/usbd.c ****     .init             = vendord_init,
 166:/Users/joostbooy/Desktop/Code/stm32/lib/tinyusb/src/device/usbd.c ****     .reset            = vendord_reset,
 167:/Users/joostbooy/Desktop/Code/stm32/lib/tinyusb/src/device/usbd.c ****     .open             = vendord_open,
 168:/Users/joostbooy/Desktop/Code/stm32/lib/tinyusb/src/device/usbd.c ****     .control_xfer_cb  = tud_vendor_control_xfer_cb,
 169:/Users/joostbooy/Desktop/Code/stm32/lib/tinyusb/src/device/usbd.c ****     .xfer_cb          = vendord_xfer_cb,
 170:/Users/joostbooy/Desktop/Code/stm32/lib/tinyusb/src/device/usbd.c ****     .sof              = NULL
 171:/Users/joostbooy/Desktop/Code/stm32/lib/tinyusb/src/device/usbd.c ****   },
 172:/Users/joostbooy/Desktop/Code/stm32/lib/tinyusb/src/device/usbd.c ****   #endif
 173:/Users/joostbooy/Desktop/Code/stm32/lib/tinyusb/src/device/usbd.c **** 
 174:/Users/joostbooy/Desktop/Code/stm32/lib/tinyusb/src/device/usbd.c ****   #if CFG_TUD_USBTMC
 175:/Users/joostbooy/Desktop/Code/stm32/lib/tinyusb/src/device/usbd.c ****   {
 176:/Users/joostbooy/Desktop/Code/stm32/lib/tinyusb/src/device/usbd.c ****     DRIVER_NAME("TMC")
 177:/Users/joostbooy/Desktop/Code/stm32/lib/tinyusb/src/device/usbd.c ****     .init             = usbtmcd_init_cb,
 178:/Users/joostbooy/Desktop/Code/stm32/lib/tinyusb/src/device/usbd.c ****     .reset            = usbtmcd_reset_cb,
 179:/Users/joostbooy/Desktop/Code/stm32/lib/tinyusb/src/device/usbd.c ****     .open             = usbtmcd_open_cb,
 180:/Users/joostbooy/Desktop/Code/stm32/lib/tinyusb/src/device/usbd.c ****     .control_xfer_cb  = usbtmcd_control_xfer_cb,
 181:/Users/joostbooy/Desktop/Code/stm32/lib/tinyusb/src/device/usbd.c ****     .xfer_cb          = usbtmcd_xfer_cb,
 182:/Users/joostbooy/Desktop/Code/stm32/lib/tinyusb/src/device/usbd.c ****     .sof              = NULL
 183:/Users/joostbooy/Desktop/Code/stm32/lib/tinyusb/src/device/usbd.c ****   },
 184:/Users/joostbooy/Desktop/Code/stm32/lib/tinyusb/src/device/usbd.c ****   #endif
 185:/Users/joostbooy/Desktop/Code/stm32/lib/tinyusb/src/device/usbd.c **** 
 186:/Users/joostbooy/Desktop/Code/stm32/lib/tinyusb/src/device/usbd.c ****   #if CFG_TUD_DFU_RUNTIME
 187:/Users/joostbooy/Desktop/Code/stm32/lib/tinyusb/src/device/usbd.c ****   {
 188:/Users/joostbooy/Desktop/Code/stm32/lib/tinyusb/src/device/usbd.c ****     DRIVER_NAME("DFU-RUNTIME")
 189:/Users/joostbooy/Desktop/Code/stm32/lib/tinyusb/src/device/usbd.c ****     .init             = dfu_rtd_init,
 190:/Users/joostbooy/Desktop/Code/stm32/lib/tinyusb/src/device/usbd.c ****     .reset            = dfu_rtd_reset,
 191:/Users/joostbooy/Desktop/Code/stm32/lib/tinyusb/src/device/usbd.c ****     .open             = dfu_rtd_open,
 192:/Users/joostbooy/Desktop/Code/stm32/lib/tinyusb/src/device/usbd.c ****     .control_xfer_cb  = dfu_rtd_control_xfer_cb,
 193:/Users/joostbooy/Desktop/Code/stm32/lib/tinyusb/src/device/usbd.c ****     .xfer_cb          = NULL,
 194:/Users/joostbooy/Desktop/Code/stm32/lib/tinyusb/src/device/usbd.c ****     .sof              = NULL
 195:/Users/joostbooy/Desktop/Code/stm32/lib/tinyusb/src/device/usbd.c ****   },
 196:/Users/joostbooy/Desktop/Code/stm32/lib/tinyusb/src/device/usbd.c ****   #endif
 197:/Users/joostbooy/Desktop/Code/stm32/lib/tinyusb/src/device/usbd.c **** 
 198:/Users/joostbooy/Desktop/Code/stm32/lib/tinyusb/src/device/usbd.c ****   #if CFG_TUD_DFU
 199:/Users/joostbooy/Desktop/Code/stm32/lib/tinyusb/src/device/usbd.c ****   {
 200:/Users/joostbooy/Desktop/Code/stm32/lib/tinyusb/src/device/usbd.c ****     DRIVER_NAME("DFU")
ARM GAS  /var/folders/84/_x1cyy_j36g486tldtwl37280000gn/T//cch4UlI6.s 			page 5


 201:/Users/joostbooy/Desktop/Code/stm32/lib/tinyusb/src/device/usbd.c ****     .init             = dfu_moded_init,
 202:/Users/joostbooy/Desktop/Code/stm32/lib/tinyusb/src/device/usbd.c ****     .reset            = dfu_moded_reset,
 203:/Users/joostbooy/Desktop/Code/stm32/lib/tinyusb/src/device/usbd.c ****     .open             = dfu_moded_open,
 204:/Users/joostbooy/Desktop/Code/stm32/lib/tinyusb/src/device/usbd.c ****     .control_xfer_cb  = dfu_moded_control_xfer_cb,
 205:/Users/joostbooy/Desktop/Code/stm32/lib/tinyusb/src/device/usbd.c ****     .xfer_cb          = NULL,
 206:/Users/joostbooy/Desktop/Code/stm32/lib/tinyusb/src/device/usbd.c ****     .sof              = NULL
 207:/Users/joostbooy/Desktop/Code/stm32/lib/tinyusb/src/device/usbd.c ****   },
 208:/Users/joostbooy/Desktop/Code/stm32/lib/tinyusb/src/device/usbd.c ****   #endif
 209:/Users/joostbooy/Desktop/Code/stm32/lib/tinyusb/src/device/usbd.c **** 
 210:/Users/joostbooy/Desktop/Code/stm32/lib/tinyusb/src/device/usbd.c ****   #if CFG_TUD_ECM_RNDIS || CFG_TUD_NCM
 211:/Users/joostbooy/Desktop/Code/stm32/lib/tinyusb/src/device/usbd.c ****   {
 212:/Users/joostbooy/Desktop/Code/stm32/lib/tinyusb/src/device/usbd.c ****     DRIVER_NAME("NET")
 213:/Users/joostbooy/Desktop/Code/stm32/lib/tinyusb/src/device/usbd.c ****     .init             = netd_init,
 214:/Users/joostbooy/Desktop/Code/stm32/lib/tinyusb/src/device/usbd.c ****     .reset            = netd_reset,
 215:/Users/joostbooy/Desktop/Code/stm32/lib/tinyusb/src/device/usbd.c ****     .open             = netd_open,
 216:/Users/joostbooy/Desktop/Code/stm32/lib/tinyusb/src/device/usbd.c ****     .control_xfer_cb  = netd_control_xfer_cb,
 217:/Users/joostbooy/Desktop/Code/stm32/lib/tinyusb/src/device/usbd.c ****     .xfer_cb          = netd_xfer_cb,
 218:/Users/joostbooy/Desktop/Code/stm32/lib/tinyusb/src/device/usbd.c ****     .sof                  = NULL,
 219:/Users/joostbooy/Desktop/Code/stm32/lib/tinyusb/src/device/usbd.c ****   },
 220:/Users/joostbooy/Desktop/Code/stm32/lib/tinyusb/src/device/usbd.c ****   #endif
 221:/Users/joostbooy/Desktop/Code/stm32/lib/tinyusb/src/device/usbd.c **** 
 222:/Users/joostbooy/Desktop/Code/stm32/lib/tinyusb/src/device/usbd.c ****   #if CFG_TUD_BTH
 223:/Users/joostbooy/Desktop/Code/stm32/lib/tinyusb/src/device/usbd.c ****   {
 224:/Users/joostbooy/Desktop/Code/stm32/lib/tinyusb/src/device/usbd.c ****     DRIVER_NAME("BTH")
 225:/Users/joostbooy/Desktop/Code/stm32/lib/tinyusb/src/device/usbd.c ****     .init             = btd_init,
 226:/Users/joostbooy/Desktop/Code/stm32/lib/tinyusb/src/device/usbd.c ****     .reset            = btd_reset,
 227:/Users/joostbooy/Desktop/Code/stm32/lib/tinyusb/src/device/usbd.c ****     .open             = btd_open,
 228:/Users/joostbooy/Desktop/Code/stm32/lib/tinyusb/src/device/usbd.c ****     .control_xfer_cb  = btd_control_xfer_cb,
 229:/Users/joostbooy/Desktop/Code/stm32/lib/tinyusb/src/device/usbd.c ****     .xfer_cb          = btd_xfer_cb,
 230:/Users/joostbooy/Desktop/Code/stm32/lib/tinyusb/src/device/usbd.c ****     .sof              = NULL
 231:/Users/joostbooy/Desktop/Code/stm32/lib/tinyusb/src/device/usbd.c ****   },
 232:/Users/joostbooy/Desktop/Code/stm32/lib/tinyusb/src/device/usbd.c ****   #endif
 233:/Users/joostbooy/Desktop/Code/stm32/lib/tinyusb/src/device/usbd.c **** };
 234:/Users/joostbooy/Desktop/Code/stm32/lib/tinyusb/src/device/usbd.c **** 
 235:/Users/joostbooy/Desktop/Code/stm32/lib/tinyusb/src/device/usbd.c **** enum { BUILTIN_DRIVER_COUNT = TU_ARRAY_SIZE(_usbd_driver) };
 236:/Users/joostbooy/Desktop/Code/stm32/lib/tinyusb/src/device/usbd.c **** 
 237:/Users/joostbooy/Desktop/Code/stm32/lib/tinyusb/src/device/usbd.c **** // Additional class drivers implemented by application
 238:/Users/joostbooy/Desktop/Code/stm32/lib/tinyusb/src/device/usbd.c **** tu_static usbd_class_driver_t const * _app_driver = NULL;
 239:/Users/joostbooy/Desktop/Code/stm32/lib/tinyusb/src/device/usbd.c **** tu_static uint8_t _app_driver_count = 0;
 240:/Users/joostbooy/Desktop/Code/stm32/lib/tinyusb/src/device/usbd.c **** 
 241:/Users/joostbooy/Desktop/Code/stm32/lib/tinyusb/src/device/usbd.c **** #define TOTAL_DRIVER_COUNT    (_app_driver_count + BUILTIN_DRIVER_COUNT)
 242:/Users/joostbooy/Desktop/Code/stm32/lib/tinyusb/src/device/usbd.c **** 
 243:/Users/joostbooy/Desktop/Code/stm32/lib/tinyusb/src/device/usbd.c **** // virtually joins built-in and application drivers together.
 244:/Users/joostbooy/Desktop/Code/stm32/lib/tinyusb/src/device/usbd.c **** // Application is positioned first to allow overwriting built-in ones.
 245:/Users/joostbooy/Desktop/Code/stm32/lib/tinyusb/src/device/usbd.c **** TU_ATTR_ALWAYS_INLINE static inline usbd_class_driver_t const * get_driver(uint8_t drvid) {
 246:/Users/joostbooy/Desktop/Code/stm32/lib/tinyusb/src/device/usbd.c ****   usbd_class_driver_t const * driver = NULL;
 247:/Users/joostbooy/Desktop/Code/stm32/lib/tinyusb/src/device/usbd.c ****   if ( drvid < _app_driver_count ) {
 248:/Users/joostbooy/Desktop/Code/stm32/lib/tinyusb/src/device/usbd.c ****     // Application drivers
 249:/Users/joostbooy/Desktop/Code/stm32/lib/tinyusb/src/device/usbd.c ****     driver = &_app_driver[drvid];
 250:/Users/joostbooy/Desktop/Code/stm32/lib/tinyusb/src/device/usbd.c ****   } else if ( drvid < TOTAL_DRIVER_COUNT && BUILTIN_DRIVER_COUNT > 0 ){
 251:/Users/joostbooy/Desktop/Code/stm32/lib/tinyusb/src/device/usbd.c ****     driver = &_usbd_driver[drvid - _app_driver_count];
 252:/Users/joostbooy/Desktop/Code/stm32/lib/tinyusb/src/device/usbd.c ****   }
 253:/Users/joostbooy/Desktop/Code/stm32/lib/tinyusb/src/device/usbd.c ****   return driver;
 254:/Users/joostbooy/Desktop/Code/stm32/lib/tinyusb/src/device/usbd.c **** }
 255:/Users/joostbooy/Desktop/Code/stm32/lib/tinyusb/src/device/usbd.c **** 
 256:/Users/joostbooy/Desktop/Code/stm32/lib/tinyusb/src/device/usbd.c **** //--------------------------------------------------------------------+
 257:/Users/joostbooy/Desktop/Code/stm32/lib/tinyusb/src/device/usbd.c **** // DCD Event
ARM GAS  /var/folders/84/_x1cyy_j36g486tldtwl37280000gn/T//cch4UlI6.s 			page 6


 258:/Users/joostbooy/Desktop/Code/stm32/lib/tinyusb/src/device/usbd.c **** //--------------------------------------------------------------------+
 259:/Users/joostbooy/Desktop/Code/stm32/lib/tinyusb/src/device/usbd.c **** 
 260:/Users/joostbooy/Desktop/Code/stm32/lib/tinyusb/src/device/usbd.c **** enum { RHPORT_INVALID = 0xFFu };
 261:/Users/joostbooy/Desktop/Code/stm32/lib/tinyusb/src/device/usbd.c **** tu_static uint8_t _usbd_rhport = RHPORT_INVALID;
 262:/Users/joostbooy/Desktop/Code/stm32/lib/tinyusb/src/device/usbd.c **** 
 263:/Users/joostbooy/Desktop/Code/stm32/lib/tinyusb/src/device/usbd.c **** // Event queue
 264:/Users/joostbooy/Desktop/Code/stm32/lib/tinyusb/src/device/usbd.c **** // usbd_int_set() is used as mutex in OS NONE config
 265:/Users/joostbooy/Desktop/Code/stm32/lib/tinyusb/src/device/usbd.c **** OSAL_QUEUE_DEF(usbd_int_set, _usbd_qdef, CFG_TUD_TASK_QUEUE_SZ, dcd_event_t);
 266:/Users/joostbooy/Desktop/Code/stm32/lib/tinyusb/src/device/usbd.c **** tu_static osal_queue_t _usbd_q;
 267:/Users/joostbooy/Desktop/Code/stm32/lib/tinyusb/src/device/usbd.c **** 
 268:/Users/joostbooy/Desktop/Code/stm32/lib/tinyusb/src/device/usbd.c **** // Mutex for claiming endpoint
 269:/Users/joostbooy/Desktop/Code/stm32/lib/tinyusb/src/device/usbd.c **** #if OSAL_MUTEX_REQUIRED
 270:/Users/joostbooy/Desktop/Code/stm32/lib/tinyusb/src/device/usbd.c ****   tu_static osal_mutex_def_t _ubsd_mutexdef;
 271:/Users/joostbooy/Desktop/Code/stm32/lib/tinyusb/src/device/usbd.c ****   tu_static osal_mutex_t _usbd_mutex;
 272:/Users/joostbooy/Desktop/Code/stm32/lib/tinyusb/src/device/usbd.c **** #else
 273:/Users/joostbooy/Desktop/Code/stm32/lib/tinyusb/src/device/usbd.c ****   #define _usbd_mutex   NULL
 274:/Users/joostbooy/Desktop/Code/stm32/lib/tinyusb/src/device/usbd.c **** #endif
 275:/Users/joostbooy/Desktop/Code/stm32/lib/tinyusb/src/device/usbd.c **** 
 276:/Users/joostbooy/Desktop/Code/stm32/lib/tinyusb/src/device/usbd.c **** TU_ATTR_ALWAYS_INLINE static inline bool queue_event(dcd_event_t const * event, bool in_isr) {
 277:/Users/joostbooy/Desktop/Code/stm32/lib/tinyusb/src/device/usbd.c ****   bool ret = osal_queue_send(_usbd_q, event, in_isr);
 278:/Users/joostbooy/Desktop/Code/stm32/lib/tinyusb/src/device/usbd.c ****   if (tud_event_hook_cb) tud_event_hook_cb(event->rhport, event->event_id, in_isr);
 279:/Users/joostbooy/Desktop/Code/stm32/lib/tinyusb/src/device/usbd.c ****   return ret;
 280:/Users/joostbooy/Desktop/Code/stm32/lib/tinyusb/src/device/usbd.c **** }
 281:/Users/joostbooy/Desktop/Code/stm32/lib/tinyusb/src/device/usbd.c **** 
 282:/Users/joostbooy/Desktop/Code/stm32/lib/tinyusb/src/device/usbd.c **** //--------------------------------------------------------------------+
 283:/Users/joostbooy/Desktop/Code/stm32/lib/tinyusb/src/device/usbd.c **** // Prototypes
 284:/Users/joostbooy/Desktop/Code/stm32/lib/tinyusb/src/device/usbd.c **** //--------------------------------------------------------------------+
 285:/Users/joostbooy/Desktop/Code/stm32/lib/tinyusb/src/device/usbd.c **** static bool process_control_request(uint8_t rhport, tusb_control_request_t const * p_request);
 286:/Users/joostbooy/Desktop/Code/stm32/lib/tinyusb/src/device/usbd.c **** static bool process_set_config(uint8_t rhport, uint8_t cfg_num);
 287:/Users/joostbooy/Desktop/Code/stm32/lib/tinyusb/src/device/usbd.c **** static bool process_get_descriptor(uint8_t rhport, tusb_control_request_t const * p_request);
 288:/Users/joostbooy/Desktop/Code/stm32/lib/tinyusb/src/device/usbd.c **** 
 289:/Users/joostbooy/Desktop/Code/stm32/lib/tinyusb/src/device/usbd.c **** // from usbd_control.c
 290:/Users/joostbooy/Desktop/Code/stm32/lib/tinyusb/src/device/usbd.c **** void usbd_control_reset(void);
 291:/Users/joostbooy/Desktop/Code/stm32/lib/tinyusb/src/device/usbd.c **** void usbd_control_set_request(tusb_control_request_t const *request);
 292:/Users/joostbooy/Desktop/Code/stm32/lib/tinyusb/src/device/usbd.c **** void usbd_control_set_complete_callback( usbd_control_xfer_cb_t fp );
 293:/Users/joostbooy/Desktop/Code/stm32/lib/tinyusb/src/device/usbd.c **** bool usbd_control_xfer_cb (uint8_t rhport, uint8_t ep_addr, xfer_result_t event, uint32_t xferred_b
 294:/Users/joostbooy/Desktop/Code/stm32/lib/tinyusb/src/device/usbd.c **** 
 295:/Users/joostbooy/Desktop/Code/stm32/lib/tinyusb/src/device/usbd.c **** 
 296:/Users/joostbooy/Desktop/Code/stm32/lib/tinyusb/src/device/usbd.c **** //--------------------------------------------------------------------+
 297:/Users/joostbooy/Desktop/Code/stm32/lib/tinyusb/src/device/usbd.c **** // Debug
 298:/Users/joostbooy/Desktop/Code/stm32/lib/tinyusb/src/device/usbd.c **** //--------------------------------------------------------------------+
 299:/Users/joostbooy/Desktop/Code/stm32/lib/tinyusb/src/device/usbd.c **** #if CFG_TUSB_DEBUG >= CFG_TUD_LOG_LEVEL
 300:/Users/joostbooy/Desktop/Code/stm32/lib/tinyusb/src/device/usbd.c **** tu_static char const* const _usbd_event_str[DCD_EVENT_COUNT] =
 301:/Users/joostbooy/Desktop/Code/stm32/lib/tinyusb/src/device/usbd.c **** {
 302:/Users/joostbooy/Desktop/Code/stm32/lib/tinyusb/src/device/usbd.c ****   "Invalid"        ,
 303:/Users/joostbooy/Desktop/Code/stm32/lib/tinyusb/src/device/usbd.c ****   "Bus Reset"      ,
 304:/Users/joostbooy/Desktop/Code/stm32/lib/tinyusb/src/device/usbd.c ****   "Unplugged"      ,
 305:/Users/joostbooy/Desktop/Code/stm32/lib/tinyusb/src/device/usbd.c ****   "SOF"            ,
 306:/Users/joostbooy/Desktop/Code/stm32/lib/tinyusb/src/device/usbd.c ****   "Suspend"        ,
 307:/Users/joostbooy/Desktop/Code/stm32/lib/tinyusb/src/device/usbd.c ****   "Resume"         ,
 308:/Users/joostbooy/Desktop/Code/stm32/lib/tinyusb/src/device/usbd.c ****   "Setup Received" ,
 309:/Users/joostbooy/Desktop/Code/stm32/lib/tinyusb/src/device/usbd.c ****   "Xfer Complete"  ,
 310:/Users/joostbooy/Desktop/Code/stm32/lib/tinyusb/src/device/usbd.c ****   "Func Call"
 311:/Users/joostbooy/Desktop/Code/stm32/lib/tinyusb/src/device/usbd.c **** };
 312:/Users/joostbooy/Desktop/Code/stm32/lib/tinyusb/src/device/usbd.c **** 
 313:/Users/joostbooy/Desktop/Code/stm32/lib/tinyusb/src/device/usbd.c **** // for usbd_control to print the name of control complete driver
 314:/Users/joostbooy/Desktop/Code/stm32/lib/tinyusb/src/device/usbd.c **** void usbd_driver_print_control_complete_name(usbd_control_xfer_cb_t callback)
ARM GAS  /var/folders/84/_x1cyy_j36g486tldtwl37280000gn/T//cch4UlI6.s 			page 7


 315:/Users/joostbooy/Desktop/Code/stm32/lib/tinyusb/src/device/usbd.c **** {
 316:/Users/joostbooy/Desktop/Code/stm32/lib/tinyusb/src/device/usbd.c ****   for (uint8_t i = 0; i < TOTAL_DRIVER_COUNT; i++)
 317:/Users/joostbooy/Desktop/Code/stm32/lib/tinyusb/src/device/usbd.c ****   {
 318:/Users/joostbooy/Desktop/Code/stm32/lib/tinyusb/src/device/usbd.c ****     usbd_class_driver_t const * driver = get_driver(i);
 319:/Users/joostbooy/Desktop/Code/stm32/lib/tinyusb/src/device/usbd.c ****     if ( driver && driver->control_xfer_cb == callback )
 320:/Users/joostbooy/Desktop/Code/stm32/lib/tinyusb/src/device/usbd.c ****     {
 321:/Users/joostbooy/Desktop/Code/stm32/lib/tinyusb/src/device/usbd.c ****       TU_LOG_USBD("  %s control complete\r\n", driver->name);
 322:/Users/joostbooy/Desktop/Code/stm32/lib/tinyusb/src/device/usbd.c ****       return;
 323:/Users/joostbooy/Desktop/Code/stm32/lib/tinyusb/src/device/usbd.c ****     }
 324:/Users/joostbooy/Desktop/Code/stm32/lib/tinyusb/src/device/usbd.c ****   }
 325:/Users/joostbooy/Desktop/Code/stm32/lib/tinyusb/src/device/usbd.c **** }
 326:/Users/joostbooy/Desktop/Code/stm32/lib/tinyusb/src/device/usbd.c **** 
 327:/Users/joostbooy/Desktop/Code/stm32/lib/tinyusb/src/device/usbd.c **** #endif
 328:/Users/joostbooy/Desktop/Code/stm32/lib/tinyusb/src/device/usbd.c **** 
 329:/Users/joostbooy/Desktop/Code/stm32/lib/tinyusb/src/device/usbd.c **** //--------------------------------------------------------------------+
 330:/Users/joostbooy/Desktop/Code/stm32/lib/tinyusb/src/device/usbd.c **** // Application API
 331:/Users/joostbooy/Desktop/Code/stm32/lib/tinyusb/src/device/usbd.c **** //--------------------------------------------------------------------+
 332:/Users/joostbooy/Desktop/Code/stm32/lib/tinyusb/src/device/usbd.c **** tusb_speed_t tud_speed_get(void)
 333:/Users/joostbooy/Desktop/Code/stm32/lib/tinyusb/src/device/usbd.c **** {
 334:/Users/joostbooy/Desktop/Code/stm32/lib/tinyusb/src/device/usbd.c ****   return (tusb_speed_t) _usbd_dev.speed;
 335:/Users/joostbooy/Desktop/Code/stm32/lib/tinyusb/src/device/usbd.c **** }
 336:/Users/joostbooy/Desktop/Code/stm32/lib/tinyusb/src/device/usbd.c **** 
 337:/Users/joostbooy/Desktop/Code/stm32/lib/tinyusb/src/device/usbd.c **** bool tud_connected(void)
 338:/Users/joostbooy/Desktop/Code/stm32/lib/tinyusb/src/device/usbd.c **** {
 339:/Users/joostbooy/Desktop/Code/stm32/lib/tinyusb/src/device/usbd.c ****   return _usbd_dev.connected;
 340:/Users/joostbooy/Desktop/Code/stm32/lib/tinyusb/src/device/usbd.c **** }
 341:/Users/joostbooy/Desktop/Code/stm32/lib/tinyusb/src/device/usbd.c **** 
 342:/Users/joostbooy/Desktop/Code/stm32/lib/tinyusb/src/device/usbd.c **** bool tud_mounted(void)
 343:/Users/joostbooy/Desktop/Code/stm32/lib/tinyusb/src/device/usbd.c **** {
 344:/Users/joostbooy/Desktop/Code/stm32/lib/tinyusb/src/device/usbd.c ****   return _usbd_dev.cfg_num ? true : false;
 345:/Users/joostbooy/Desktop/Code/stm32/lib/tinyusb/src/device/usbd.c **** }
 346:/Users/joostbooy/Desktop/Code/stm32/lib/tinyusb/src/device/usbd.c **** 
 347:/Users/joostbooy/Desktop/Code/stm32/lib/tinyusb/src/device/usbd.c **** bool tud_suspended(void)
 348:/Users/joostbooy/Desktop/Code/stm32/lib/tinyusb/src/device/usbd.c **** {
 349:/Users/joostbooy/Desktop/Code/stm32/lib/tinyusb/src/device/usbd.c ****   return _usbd_dev.suspended;
 350:/Users/joostbooy/Desktop/Code/stm32/lib/tinyusb/src/device/usbd.c **** }
 351:/Users/joostbooy/Desktop/Code/stm32/lib/tinyusb/src/device/usbd.c **** 
 352:/Users/joostbooy/Desktop/Code/stm32/lib/tinyusb/src/device/usbd.c **** bool tud_remote_wakeup(void)
 353:/Users/joostbooy/Desktop/Code/stm32/lib/tinyusb/src/device/usbd.c **** {
 354:/Users/joostbooy/Desktop/Code/stm32/lib/tinyusb/src/device/usbd.c ****   // only wake up host if this feature is supported and enabled and we are suspended
 355:/Users/joostbooy/Desktop/Code/stm32/lib/tinyusb/src/device/usbd.c ****   TU_VERIFY (_usbd_dev.suspended && _usbd_dev.remote_wakeup_support && _usbd_dev.remote_wakeup_en )
 356:/Users/joostbooy/Desktop/Code/stm32/lib/tinyusb/src/device/usbd.c ****   dcd_remote_wakeup(_usbd_rhport);
 357:/Users/joostbooy/Desktop/Code/stm32/lib/tinyusb/src/device/usbd.c ****   return true;
 358:/Users/joostbooy/Desktop/Code/stm32/lib/tinyusb/src/device/usbd.c **** }
 359:/Users/joostbooy/Desktop/Code/stm32/lib/tinyusb/src/device/usbd.c **** 
 360:/Users/joostbooy/Desktop/Code/stm32/lib/tinyusb/src/device/usbd.c **** bool tud_disconnect(void)
 361:/Users/joostbooy/Desktop/Code/stm32/lib/tinyusb/src/device/usbd.c **** {
 362:/Users/joostbooy/Desktop/Code/stm32/lib/tinyusb/src/device/usbd.c ****   TU_VERIFY(dcd_disconnect);
 363:/Users/joostbooy/Desktop/Code/stm32/lib/tinyusb/src/device/usbd.c ****   dcd_disconnect(_usbd_rhport);
 364:/Users/joostbooy/Desktop/Code/stm32/lib/tinyusb/src/device/usbd.c ****   return true;
 365:/Users/joostbooy/Desktop/Code/stm32/lib/tinyusb/src/device/usbd.c **** }
 366:/Users/joostbooy/Desktop/Code/stm32/lib/tinyusb/src/device/usbd.c **** 
 367:/Users/joostbooy/Desktop/Code/stm32/lib/tinyusb/src/device/usbd.c **** bool tud_connect(void)
 368:/Users/joostbooy/Desktop/Code/stm32/lib/tinyusb/src/device/usbd.c **** {
 369:/Users/joostbooy/Desktop/Code/stm32/lib/tinyusb/src/device/usbd.c ****   TU_VERIFY(dcd_connect);
 370:/Users/joostbooy/Desktop/Code/stm32/lib/tinyusb/src/device/usbd.c ****   dcd_connect(_usbd_rhport);
 371:/Users/joostbooy/Desktop/Code/stm32/lib/tinyusb/src/device/usbd.c ****   return true;
ARM GAS  /var/folders/84/_x1cyy_j36g486tldtwl37280000gn/T//cch4UlI6.s 			page 8


 372:/Users/joostbooy/Desktop/Code/stm32/lib/tinyusb/src/device/usbd.c **** }
 373:/Users/joostbooy/Desktop/Code/stm32/lib/tinyusb/src/device/usbd.c **** 
 374:/Users/joostbooy/Desktop/Code/stm32/lib/tinyusb/src/device/usbd.c **** //--------------------------------------------------------------------+
 375:/Users/joostbooy/Desktop/Code/stm32/lib/tinyusb/src/device/usbd.c **** // USBD Task
 376:/Users/joostbooy/Desktop/Code/stm32/lib/tinyusb/src/device/usbd.c **** //--------------------------------------------------------------------+
 377:/Users/joostbooy/Desktop/Code/stm32/lib/tinyusb/src/device/usbd.c **** bool tud_inited(void) {
 378:/Users/joostbooy/Desktop/Code/stm32/lib/tinyusb/src/device/usbd.c ****   return _usbd_rhport != RHPORT_INVALID;
 379:/Users/joostbooy/Desktop/Code/stm32/lib/tinyusb/src/device/usbd.c **** }
 380:/Users/joostbooy/Desktop/Code/stm32/lib/tinyusb/src/device/usbd.c **** 
 381:/Users/joostbooy/Desktop/Code/stm32/lib/tinyusb/src/device/usbd.c **** bool tud_init (uint8_t rhport)
 382:/Users/joostbooy/Desktop/Code/stm32/lib/tinyusb/src/device/usbd.c **** {
 383:/Users/joostbooy/Desktop/Code/stm32/lib/tinyusb/src/device/usbd.c ****   // skip if already initialized
 384:/Users/joostbooy/Desktop/Code/stm32/lib/tinyusb/src/device/usbd.c ****   if ( tud_inited() ) return true;
 385:/Users/joostbooy/Desktop/Code/stm32/lib/tinyusb/src/device/usbd.c **** 
 386:/Users/joostbooy/Desktop/Code/stm32/lib/tinyusb/src/device/usbd.c ****   TU_LOG_USBD("USBD init on controller %u\r\n", rhport);
 387:/Users/joostbooy/Desktop/Code/stm32/lib/tinyusb/src/device/usbd.c ****   TU_LOG_INT(CFG_TUD_LOG_LEVEL, sizeof(usbd_device_t));
 388:/Users/joostbooy/Desktop/Code/stm32/lib/tinyusb/src/device/usbd.c ****   TU_LOG_INT(CFG_TUD_LOG_LEVEL, sizeof(tu_fifo_t));
 389:/Users/joostbooy/Desktop/Code/stm32/lib/tinyusb/src/device/usbd.c ****   TU_LOG_INT(CFG_TUD_LOG_LEVEL, sizeof(tu_edpt_stream_t));
 390:/Users/joostbooy/Desktop/Code/stm32/lib/tinyusb/src/device/usbd.c **** 
 391:/Users/joostbooy/Desktop/Code/stm32/lib/tinyusb/src/device/usbd.c ****   tu_varclr(&_usbd_dev);
 392:/Users/joostbooy/Desktop/Code/stm32/lib/tinyusb/src/device/usbd.c **** 
 393:/Users/joostbooy/Desktop/Code/stm32/lib/tinyusb/src/device/usbd.c **** #if OSAL_MUTEX_REQUIRED
 394:/Users/joostbooy/Desktop/Code/stm32/lib/tinyusb/src/device/usbd.c ****   // Init device mutex
 395:/Users/joostbooy/Desktop/Code/stm32/lib/tinyusb/src/device/usbd.c ****   _usbd_mutex = osal_mutex_create(&_ubsd_mutexdef);
 396:/Users/joostbooy/Desktop/Code/stm32/lib/tinyusb/src/device/usbd.c ****   TU_ASSERT(_usbd_mutex);
 397:/Users/joostbooy/Desktop/Code/stm32/lib/tinyusb/src/device/usbd.c **** #endif
 398:/Users/joostbooy/Desktop/Code/stm32/lib/tinyusb/src/device/usbd.c **** 
 399:/Users/joostbooy/Desktop/Code/stm32/lib/tinyusb/src/device/usbd.c ****   // Init device queue & task
 400:/Users/joostbooy/Desktop/Code/stm32/lib/tinyusb/src/device/usbd.c ****   _usbd_q = osal_queue_create(&_usbd_qdef);
 401:/Users/joostbooy/Desktop/Code/stm32/lib/tinyusb/src/device/usbd.c ****   TU_ASSERT(_usbd_q);
 402:/Users/joostbooy/Desktop/Code/stm32/lib/tinyusb/src/device/usbd.c **** 
 403:/Users/joostbooy/Desktop/Code/stm32/lib/tinyusb/src/device/usbd.c ****   // Get application driver if available
 404:/Users/joostbooy/Desktop/Code/stm32/lib/tinyusb/src/device/usbd.c ****   if ( usbd_app_driver_get_cb )
 405:/Users/joostbooy/Desktop/Code/stm32/lib/tinyusb/src/device/usbd.c ****   {
 406:/Users/joostbooy/Desktop/Code/stm32/lib/tinyusb/src/device/usbd.c ****     _app_driver = usbd_app_driver_get_cb(&_app_driver_count);
 407:/Users/joostbooy/Desktop/Code/stm32/lib/tinyusb/src/device/usbd.c ****   }
 408:/Users/joostbooy/Desktop/Code/stm32/lib/tinyusb/src/device/usbd.c **** 
 409:/Users/joostbooy/Desktop/Code/stm32/lib/tinyusb/src/device/usbd.c ****   // Init class drivers
 410:/Users/joostbooy/Desktop/Code/stm32/lib/tinyusb/src/device/usbd.c ****   for (uint8_t i = 0; i < TOTAL_DRIVER_COUNT; i++)
 411:/Users/joostbooy/Desktop/Code/stm32/lib/tinyusb/src/device/usbd.c ****   {
 412:/Users/joostbooy/Desktop/Code/stm32/lib/tinyusb/src/device/usbd.c ****     usbd_class_driver_t const * driver = get_driver(i);
 413:/Users/joostbooy/Desktop/Code/stm32/lib/tinyusb/src/device/usbd.c ****     TU_ASSERT(driver);
 414:/Users/joostbooy/Desktop/Code/stm32/lib/tinyusb/src/device/usbd.c ****     TU_LOG_USBD("%s init\r\n", driver->name);
 415:/Users/joostbooy/Desktop/Code/stm32/lib/tinyusb/src/device/usbd.c ****     driver->init();
 416:/Users/joostbooy/Desktop/Code/stm32/lib/tinyusb/src/device/usbd.c ****   }
 417:/Users/joostbooy/Desktop/Code/stm32/lib/tinyusb/src/device/usbd.c **** 
 418:/Users/joostbooy/Desktop/Code/stm32/lib/tinyusb/src/device/usbd.c ****   _usbd_rhport = rhport;
 419:/Users/joostbooy/Desktop/Code/stm32/lib/tinyusb/src/device/usbd.c **** 
 420:/Users/joostbooy/Desktop/Code/stm32/lib/tinyusb/src/device/usbd.c ****   // Init device controller driver
 421:/Users/joostbooy/Desktop/Code/stm32/lib/tinyusb/src/device/usbd.c ****   dcd_init(rhport);
 422:/Users/joostbooy/Desktop/Code/stm32/lib/tinyusb/src/device/usbd.c ****   dcd_int_enable(rhport);
 423:/Users/joostbooy/Desktop/Code/stm32/lib/tinyusb/src/device/usbd.c **** 
 424:/Users/joostbooy/Desktop/Code/stm32/lib/tinyusb/src/device/usbd.c ****   return true;
 425:/Users/joostbooy/Desktop/Code/stm32/lib/tinyusb/src/device/usbd.c **** }
 426:/Users/joostbooy/Desktop/Code/stm32/lib/tinyusb/src/device/usbd.c **** 
 427:/Users/joostbooy/Desktop/Code/stm32/lib/tinyusb/src/device/usbd.c **** static void configuration_reset(uint8_t rhport)
 428:/Users/joostbooy/Desktop/Code/stm32/lib/tinyusb/src/device/usbd.c **** {
ARM GAS  /var/folders/84/_x1cyy_j36g486tldtwl37280000gn/T//cch4UlI6.s 			page 9


  30              		.loc 1 428 1 view -0
  31              		.cfi_startproc
  32              		@ args = 0, pretend = 0, frame = 0
  33              		@ frame_needed = 0, uses_anonymous_args = 0
 429:/Users/joostbooy/Desktop/Code/stm32/lib/tinyusb/src/device/usbd.c ****   for ( uint8_t i = 0; i < TOTAL_DRIVER_COUNT; i++ )
  34              		.loc 1 429 3 view .LVU1
  35              	.LBB318:
  36              		.loc 1 429 9 view .LVU2
  37              		.loc 1 429 24 view .LVU3
  38              	.LBE318:
 428:/Users/joostbooy/Desktop/Code/stm32/lib/tinyusb/src/device/usbd.c ****   for ( uint8_t i = 0; i < TOTAL_DRIVER_COUNT; i++ )
  39              		.loc 1 428 1 is_stmt 0 view .LVU4
  40 0000 F8B5     		push	{r3, r4, r5, r6, r7, lr}
  41              		.cfi_def_cfa_offset 24
  42              		.cfi_offset 3, -24
  43              		.cfi_offset 4, -20
  44              		.cfi_offset 5, -16
  45              		.cfi_offset 6, -12
  46              		.cfi_offset 7, -8
  47              		.cfi_offset 14, -4
  48              	.LBB325:
  49              		.loc 1 429 26 view .LVU5
  50 0002 1E4D     		ldr	r5, .L16
  51 0004 0027     		movs	r7, #0
  52 0006 2C78     		ldrb	r4, [r5]	@ zero_extendqisi2
  53              	.LBE325:
 428:/Users/joostbooy/Desktop/Code/stm32/lib/tinyusb/src/device/usbd.c ****   for ( uint8_t i = 0; i < TOTAL_DRIVER_COUNT; i++ )
  54              		.loc 1 428 1 view .LVU6
  55 0008 0646     		mov	r6, r0
  56 000a 3B46     		mov	r3, r7
  57 000c 0CE0     		b	.L6
  58              	.LVL1:
  59              	.L15:
  60              	.LBB326:
  61              	.LBB319:
  62              	.LBB320:
  63              	.LBB321:
 249:/Users/joostbooy/Desktop/Code/stm32/lib/tinyusb/src/device/usbd.c ****   } else if ( drvid < TOTAL_DRIVER_COUNT && BUILTIN_DRIVER_COUNT > 0 ){
  64              		.loc 1 249 12 view .LVU7
  65 000e DCF80020 		ldr	r2, [ip]
  66              	.LVL2:
 253:/Users/joostbooy/Desktop/Code/stm32/lib/tinyusb/src/device/usbd.c **** }
  67              		.loc 1 253 3 is_stmt 1 view .LVU8
 253:/Users/joostbooy/Desktop/Code/stm32/lib/tinyusb/src/device/usbd.c **** }
  68              		.loc 1 253 3 is_stmt 0 view .LVU9
  69              	.LBE321:
  70              	.LBE320:
 430:/Users/joostbooy/Desktop/Code/stm32/lib/tinyusb/src/device/usbd.c ****   {
 431:/Users/joostbooy/Desktop/Code/stm32/lib/tinyusb/src/device/usbd.c ****     usbd_class_driver_t const * driver = get_driver(i);
 432:/Users/joostbooy/Desktop/Code/stm32/lib/tinyusb/src/device/usbd.c ****     TU_ASSERT(driver, );
  71              		.loc 1 432 5 is_stmt 1 view .LVU10
  72              		.loc 1 432 5 view .LVU11
  73 0012 12EBC004 		adds	r4, r2, r0, lsl #3
  74              	.LVL3:
  75              		.loc 1 432 5 is_stmt 0 view .LVU12
  76 0016 2AD0     		beq	.L13
  77              	.LVL4:
ARM GAS  /var/folders/84/_x1cyy_j36g486tldtwl37280000gn/T//cch4UlI6.s 			page 10


  78              	.L4:
  79              		.loc 1 432 5 is_stmt 1 discriminator 2 view .LVU13
 433:/Users/joostbooy/Desktop/Code/stm32/lib/tinyusb/src/device/usbd.c ****     driver->reset(rhport);
  80              		.loc 1 433 5 discriminator 2 view .LVU14
  81 0018 6168     		ldr	r1, [r4, #4]
  82 001a 3046     		mov	r0, r6
  83 001c 8847     		blx	r1
  84              	.LVL5:
  85              	.LBE319:
 429:/Users/joostbooy/Desktop/Code/stm32/lib/tinyusb/src/device/usbd.c ****   {
  86              		.loc 1 429 48 discriminator 2 view .LVU15
 429:/Users/joostbooy/Desktop/Code/stm32/lib/tinyusb/src/device/usbd.c ****   {
  87              		.loc 1 429 24 discriminator 2 view .LVU16
  88 001e 0137     		adds	r7, r7, #1
 429:/Users/joostbooy/Desktop/Code/stm32/lib/tinyusb/src/device/usbd.c ****   {
  89              		.loc 1 429 26 is_stmt 0 discriminator 2 view .LVU17
  90 0020 2C78     		ldrb	r4, [r5]	@ zero_extendqisi2
  91              	.LVL6:
 429:/Users/joostbooy/Desktop/Code/stm32/lib/tinyusb/src/device/usbd.c ****   {
  92              		.loc 1 429 3 discriminator 2 view .LVU18
  93 0022 FBB2     		uxtb	r3, r7
  94 0024 9C42     		cmp	r4, r3
  95 0026 0CD3     		bcc	.L14
  96              	.L6:
  97              	.LVL7:
  98              	.LBB324:
 431:/Users/joostbooy/Desktop/Code/stm32/lib/tinyusb/src/device/usbd.c ****     TU_ASSERT(driver, );
  99              		.loc 1 431 5 is_stmt 1 view .LVU19
 100              	.LBB323:
 101              	.LBI320:
 245:/Users/joostbooy/Desktop/Code/stm32/lib/tinyusb/src/device/usbd.c ****   usbd_class_driver_t const * driver = NULL;
 102              		.loc 1 245 65 view .LVU20
 103              	.LBB322:
 246:/Users/joostbooy/Desktop/Code/stm32/lib/tinyusb/src/device/usbd.c ****   if ( drvid < _app_driver_count ) {
 104              		.loc 1 246 3 view .LVU21
 247:/Users/joostbooy/Desktop/Code/stm32/lib/tinyusb/src/device/usbd.c ****     // Application drivers
 105              		.loc 1 247 3 view .LVU22
 249:/Users/joostbooy/Desktop/Code/stm32/lib/tinyusb/src/device/usbd.c ****   } else if ( drvid < TOTAL_DRIVER_COUNT && BUILTIN_DRIVER_COUNT > 0 ){
 106              		.loc 1 249 5 view .LVU23
 250:/Users/joostbooy/Desktop/Code/stm32/lib/tinyusb/src/device/usbd.c ****     driver = &_usbd_driver[drvid - _app_driver_count];
 107              		.loc 1 250 10 view .LVU24
 251:/Users/joostbooy/Desktop/Code/stm32/lib/tinyusb/src/device/usbd.c ****   }
 108              		.loc 1 251 5 view .LVU25
 251:/Users/joostbooy/Desktop/Code/stm32/lib/tinyusb/src/device/usbd.c ****   }
 109              		.loc 1 251 34 is_stmt 0 view .LVU26
 110 0028 191B     		subs	r1, r3, r4
 247:/Users/joostbooy/Desktop/Code/stm32/lib/tinyusb/src/device/usbd.c ****     // Application drivers
 111              		.loc 1 247 6 view .LVU27
 112 002a 9C42     		cmp	r4, r3
 249:/Users/joostbooy/Desktop/Code/stm32/lib/tinyusb/src/device/usbd.c ****   } else if ( drvid < TOTAL_DRIVER_COUNT && BUILTIN_DRIVER_COUNT > 0 ){
 113              		.loc 1 249 26 view .LVU28
 114 002c 03EB4300 		add	r0, r3, r3, lsl #1
 249:/Users/joostbooy/Desktop/Code/stm32/lib/tinyusb/src/device/usbd.c ****   } else if ( drvid < TOTAL_DRIVER_COUNT && BUILTIN_DRIVER_COUNT > 0 ){
 115              		.loc 1 249 14 view .LVU29
 116 0030 DFF858C0 		ldr	ip, .L16+16
 251:/Users/joostbooy/Desktop/Code/stm32/lib/tinyusb/src/device/usbd.c ****   }
 117              		.loc 1 251 12 view .LVU30
ARM GAS  /var/folders/84/_x1cyy_j36g486tldtwl37280000gn/T//cch4UlI6.s 			page 11


 118 0034 124A     		ldr	r2, .L16+4
 119 0036 01EB4103 		add	r3, r1, r1, lsl #1
 247:/Users/joostbooy/Desktop/Code/stm32/lib/tinyusb/src/device/usbd.c ****     // Application drivers
 120              		.loc 1 247 6 view .LVU31
 121 003a E8D8     		bhi	.L15
 251:/Users/joostbooy/Desktop/Code/stm32/lib/tinyusb/src/device/usbd.c ****   }
 122              		.loc 1 251 12 view .LVU32
 123 003c 02EBC304 		add	r4, r2, r3, lsl #3
 124              	.LVL8:
 253:/Users/joostbooy/Desktop/Code/stm32/lib/tinyusb/src/device/usbd.c **** }
 125              		.loc 1 253 3 is_stmt 1 view .LVU33
 253:/Users/joostbooy/Desktop/Code/stm32/lib/tinyusb/src/device/usbd.c **** }
 126              		.loc 1 253 3 is_stmt 0 view .LVU34
 127              	.LBE322:
 128              	.LBE323:
 432:/Users/joostbooy/Desktop/Code/stm32/lib/tinyusb/src/device/usbd.c ****     driver->reset(rhport);
 129              		.loc 1 432 5 is_stmt 1 view .LVU35
 432:/Users/joostbooy/Desktop/Code/stm32/lib/tinyusb/src/device/usbd.c ****     driver->reset(rhport);
 130              		.loc 1 432 5 view .LVU36
 131 0040 EAE7     		b	.L4
 132              	.LVL9:
 133              	.L14:
 432:/Users/joostbooy/Desktop/Code/stm32/lib/tinyusb/src/device/usbd.c ****     driver->reset(rhport);
 134              		.loc 1 432 5 is_stmt 0 view .LVU37
 135              	.LBE324:
 136              	.LBE326:
 434:/Users/joostbooy/Desktop/Code/stm32/lib/tinyusb/src/device/usbd.c ****   }
 435:/Users/joostbooy/Desktop/Code/stm32/lib/tinyusb/src/device/usbd.c **** 
 436:/Users/joostbooy/Desktop/Code/stm32/lib/tinyusb/src/device/usbd.c ****   tu_varclr(&_usbd_dev);
 137              		.loc 1 436 3 is_stmt 1 view .LVU38
 138 0042 1048     		ldr	r0, .L16+8
 139 0044 2B22     		movs	r2, #43
 140 0046 0021     		movs	r1, #0
 141 0048 FFF7FEFF 		bl	memset
 142              	.LVL10:
 437:/Users/joostbooy/Desktop/Code/stm32/lib/tinyusb/src/device/usbd.c ****   memset(_usbd_dev.itf2drv, DRVID_INVALID, sizeof(_usbd_dev.itf2drv)); // invalid mapping
 143              		.loc 1 437 3 view .LVU39
 144 004c 4FF0FF37 		mov	r7, #-1
 145 0050 C0F80370 		str	r7, [r0, #3]	@ unaligned
 146 0054 C0F80770 		str	r7, [r0, #7]	@ unaligned
 147 0058 C0F80B70 		str	r7, [r0, #11]	@ unaligned
 148 005c C0F80F70 		str	r7, [r0, #15]	@ unaligned
 438:/Users/joostbooy/Desktop/Code/stm32/lib/tinyusb/src/device/usbd.c ****   memset(_usbd_dev.ep2drv , DRVID_INVALID, sizeof(_usbd_dev.ep2drv )); // invalid mapping
 149              		.loc 1 438 3 view .LVU40
 150 0060 C0F81370 		str	r7, [r0, #19]	@ unaligned
 151 0064 C0F81770 		str	r7, [r0, #23]	@ unaligned
 152 0068 C0F81B70 		str	r7, [r0, #27]	@ unaligned
 153              	.L1:
 439:/Users/joostbooy/Desktop/Code/stm32/lib/tinyusb/src/device/usbd.c **** }
 154              		.loc 1 439 1 is_stmt 0 view .LVU41
 155 006c F8BD     		pop	{r3, r4, r5, r6, r7, pc}
 156              	.LVL11:
 157              	.L13:
 158              	.LBB327:
 159              	.LBI327:
 427:/Users/joostbooy/Desktop/Code/stm32/lib/tinyusb/src/device/usbd.c **** {
 160              		.loc 1 427 13 is_stmt 1 view .LVU42
ARM GAS  /var/folders/84/_x1cyy_j36g486tldtwl37280000gn/T//cch4UlI6.s 			page 12


 161              	.LBB328:
 162              	.LBB329:
 432:/Users/joostbooy/Desktop/Code/stm32/lib/tinyusb/src/device/usbd.c ****     driver->reset(rhport);
 163              		.loc 1 432 5 view .LVU43
 432:/Users/joostbooy/Desktop/Code/stm32/lib/tinyusb/src/device/usbd.c ****     driver->reset(rhport);
 164              		.loc 1 432 5 view .LVU44
 432:/Users/joostbooy/Desktop/Code/stm32/lib/tinyusb/src/device/usbd.c ****     driver->reset(rhport);
 165              		.loc 1 432 5 view .LVU45
 432:/Users/joostbooy/Desktop/Code/stm32/lib/tinyusb/src/device/usbd.c ****     driver->reset(rhport);
 166              		.loc 1 432 5 view .LVU46
 167              	.LBB330:
 432:/Users/joostbooy/Desktop/Code/stm32/lib/tinyusb/src/device/usbd.c ****     driver->reset(rhport);
 168              		.loc 1 432 5 view .LVU47
 432:/Users/joostbooy/Desktop/Code/stm32/lib/tinyusb/src/device/usbd.c ****     driver->reset(rhport);
 169              		.loc 1 432 5 view .LVU48
 170 006e 064E     		ldr	r6, .L16+12
 171              	.LVL12:
 432:/Users/joostbooy/Desktop/Code/stm32/lib/tinyusb/src/device/usbd.c ****     driver->reset(rhport);
 172              		.loc 1 432 5 is_stmt 0 view .LVU49
 173 0070 3268     		ldr	r2, [r6]
 174 0072 D307     		lsls	r3, r2, #31
 175 0074 FAD5     		bpl	.L1
 432:/Users/joostbooy/Desktop/Code/stm32/lib/tinyusb/src/device/usbd.c ****     driver->reset(rhport);
 176              		.loc 1 432 5 is_stmt 1 view .LVU50
 177              		.syntax unified
 178              	@ 432 "/Users/joostbooy/Desktop/Code/stm32/lib/tinyusb/src/device/usbd.c" 1
 179 0076 00BE     		BKPT #0
 180              	
 181              	@ 0 "" 2
 182              		.thumb
 183              		.syntax unified
 184              	.LBE330:
 185              	.LBE329:
 186              	.LBE328:
 187              	.LBE327:
 188              		.loc 1 439 1 is_stmt 0 view .LVU51
 189 0078 F8BD     		pop	{r3, r4, r5, r6, r7, pc}
 190              	.LVL13:
 191              	.L17:
 192              		.loc 1 439 1 view .LVU52
 193 007a 00BF     		.align	2
 194              	.L16:
 195 007c 00000000 		.word	.LANCHOR0
 196 0080 00000000 		.word	.LANCHOR2
 197 0084 00000000 		.word	.LANCHOR3
 198 0088 F0ED00E0 		.word	-536810000
 199 008c 00000000 		.word	.LANCHOR1
 200              		.cfi_endproc
 201              	.LFE95:
 203              		.section	.text.usbd_int_set,"ax",%progbits
 204              		.align	1
 205              		.p2align 2,,3
 206              		.global	usbd_int_set
 207              		.syntax unified
 208              		.thumb
 209              		.thumb_func
 210              		.fpu fpv4-sp-d16
ARM GAS  /var/folders/84/_x1cyy_j36g486tldtwl37280000gn/T//cch4UlI6.s 			page 13


 212              	usbd_int_set:
 213              	.LVL14:
 214              	.LFB104:
 440:/Users/joostbooy/Desktop/Code/stm32/lib/tinyusb/src/device/usbd.c **** 
 441:/Users/joostbooy/Desktop/Code/stm32/lib/tinyusb/src/device/usbd.c **** static void usbd_reset(uint8_t rhport)
 442:/Users/joostbooy/Desktop/Code/stm32/lib/tinyusb/src/device/usbd.c **** {
 443:/Users/joostbooy/Desktop/Code/stm32/lib/tinyusb/src/device/usbd.c ****   configuration_reset(rhport);
 444:/Users/joostbooy/Desktop/Code/stm32/lib/tinyusb/src/device/usbd.c ****   usbd_control_reset();
 445:/Users/joostbooy/Desktop/Code/stm32/lib/tinyusb/src/device/usbd.c **** }
 446:/Users/joostbooy/Desktop/Code/stm32/lib/tinyusb/src/device/usbd.c **** 
 447:/Users/joostbooy/Desktop/Code/stm32/lib/tinyusb/src/device/usbd.c **** bool tud_task_event_ready(void)
 448:/Users/joostbooy/Desktop/Code/stm32/lib/tinyusb/src/device/usbd.c **** {
 449:/Users/joostbooy/Desktop/Code/stm32/lib/tinyusb/src/device/usbd.c ****   // Skip if stack is not initialized
 450:/Users/joostbooy/Desktop/Code/stm32/lib/tinyusb/src/device/usbd.c ****   if ( !tud_inited() ) return false;
 451:/Users/joostbooy/Desktop/Code/stm32/lib/tinyusb/src/device/usbd.c **** 
 452:/Users/joostbooy/Desktop/Code/stm32/lib/tinyusb/src/device/usbd.c ****   return !osal_queue_empty(_usbd_q);
 453:/Users/joostbooy/Desktop/Code/stm32/lib/tinyusb/src/device/usbd.c **** }
 454:/Users/joostbooy/Desktop/Code/stm32/lib/tinyusb/src/device/usbd.c **** 
 455:/Users/joostbooy/Desktop/Code/stm32/lib/tinyusb/src/device/usbd.c **** /* USB Device Driver task
 456:/Users/joostbooy/Desktop/Code/stm32/lib/tinyusb/src/device/usbd.c ****  * This top level thread manages all device controller event and delegates events to class-specific
 457:/Users/joostbooy/Desktop/Code/stm32/lib/tinyusb/src/device/usbd.c ****  * This should be called periodically within the mainloop or rtos thread.
 458:/Users/joostbooy/Desktop/Code/stm32/lib/tinyusb/src/device/usbd.c ****  *
 459:/Users/joostbooy/Desktop/Code/stm32/lib/tinyusb/src/device/usbd.c ****    @code
 460:/Users/joostbooy/Desktop/Code/stm32/lib/tinyusb/src/device/usbd.c ****     int main(void)
 461:/Users/joostbooy/Desktop/Code/stm32/lib/tinyusb/src/device/usbd.c ****     {
 462:/Users/joostbooy/Desktop/Code/stm32/lib/tinyusb/src/device/usbd.c ****       application_init();
 463:/Users/joostbooy/Desktop/Code/stm32/lib/tinyusb/src/device/usbd.c ****       tusb_init();
 464:/Users/joostbooy/Desktop/Code/stm32/lib/tinyusb/src/device/usbd.c **** 
 465:/Users/joostbooy/Desktop/Code/stm32/lib/tinyusb/src/device/usbd.c ****       while(1) // the mainloop
 466:/Users/joostbooy/Desktop/Code/stm32/lib/tinyusb/src/device/usbd.c ****       {
 467:/Users/joostbooy/Desktop/Code/stm32/lib/tinyusb/src/device/usbd.c ****         application_code();
 468:/Users/joostbooy/Desktop/Code/stm32/lib/tinyusb/src/device/usbd.c ****         tud_task(); // tinyusb device task
 469:/Users/joostbooy/Desktop/Code/stm32/lib/tinyusb/src/device/usbd.c ****       }
 470:/Users/joostbooy/Desktop/Code/stm32/lib/tinyusb/src/device/usbd.c ****     }
 471:/Users/joostbooy/Desktop/Code/stm32/lib/tinyusb/src/device/usbd.c ****     @endcode
 472:/Users/joostbooy/Desktop/Code/stm32/lib/tinyusb/src/device/usbd.c ****  */
 473:/Users/joostbooy/Desktop/Code/stm32/lib/tinyusb/src/device/usbd.c **** void tud_task_ext(uint32_t timeout_ms, bool in_isr)
 474:/Users/joostbooy/Desktop/Code/stm32/lib/tinyusb/src/device/usbd.c **** {
 475:/Users/joostbooy/Desktop/Code/stm32/lib/tinyusb/src/device/usbd.c ****   (void) in_isr; // not implemented yet
 476:/Users/joostbooy/Desktop/Code/stm32/lib/tinyusb/src/device/usbd.c **** 
 477:/Users/joostbooy/Desktop/Code/stm32/lib/tinyusb/src/device/usbd.c ****   // Skip if stack is not initialized
 478:/Users/joostbooy/Desktop/Code/stm32/lib/tinyusb/src/device/usbd.c ****   if ( !tud_inited() ) return;
 479:/Users/joostbooy/Desktop/Code/stm32/lib/tinyusb/src/device/usbd.c **** 
 480:/Users/joostbooy/Desktop/Code/stm32/lib/tinyusb/src/device/usbd.c ****   // Loop until there is no more events in the queue
 481:/Users/joostbooy/Desktop/Code/stm32/lib/tinyusb/src/device/usbd.c ****   while (1)
 482:/Users/joostbooy/Desktop/Code/stm32/lib/tinyusb/src/device/usbd.c ****   {
 483:/Users/joostbooy/Desktop/Code/stm32/lib/tinyusb/src/device/usbd.c ****     dcd_event_t event;
 484:/Users/joostbooy/Desktop/Code/stm32/lib/tinyusb/src/device/usbd.c ****     if ( !osal_queue_receive(_usbd_q, &event, timeout_ms) ) return;
 485:/Users/joostbooy/Desktop/Code/stm32/lib/tinyusb/src/device/usbd.c **** 
 486:/Users/joostbooy/Desktop/Code/stm32/lib/tinyusb/src/device/usbd.c **** #if CFG_TUSB_DEBUG >= CFG_TUD_LOG_LEVEL
 487:/Users/joostbooy/Desktop/Code/stm32/lib/tinyusb/src/device/usbd.c ****     if (event.event_id == DCD_EVENT_SETUP_RECEIVED) TU_LOG_USBD("\r\n"); // extra line for setup
 488:/Users/joostbooy/Desktop/Code/stm32/lib/tinyusb/src/device/usbd.c ****     TU_LOG_USBD("USBD %s ", event.event_id < DCD_EVENT_COUNT ? _usbd_event_str[event.event_id] : "C
 489:/Users/joostbooy/Desktop/Code/stm32/lib/tinyusb/src/device/usbd.c **** #endif
 490:/Users/joostbooy/Desktop/Code/stm32/lib/tinyusb/src/device/usbd.c **** 
 491:/Users/joostbooy/Desktop/Code/stm32/lib/tinyusb/src/device/usbd.c ****     switch ( event.event_id )
 492:/Users/joostbooy/Desktop/Code/stm32/lib/tinyusb/src/device/usbd.c ****     {
 493:/Users/joostbooy/Desktop/Code/stm32/lib/tinyusb/src/device/usbd.c ****       case DCD_EVENT_BUS_RESET:
ARM GAS  /var/folders/84/_x1cyy_j36g486tldtwl37280000gn/T//cch4UlI6.s 			page 14


 494:/Users/joostbooy/Desktop/Code/stm32/lib/tinyusb/src/device/usbd.c ****         TU_LOG_USBD(": %s Speed\r\n", tu_str_speed[event.bus_reset.speed]);
 495:/Users/joostbooy/Desktop/Code/stm32/lib/tinyusb/src/device/usbd.c ****         usbd_reset(event.rhport);
 496:/Users/joostbooy/Desktop/Code/stm32/lib/tinyusb/src/device/usbd.c ****         _usbd_dev.speed = event.bus_reset.speed;
 497:/Users/joostbooy/Desktop/Code/stm32/lib/tinyusb/src/device/usbd.c ****       break;
 498:/Users/joostbooy/Desktop/Code/stm32/lib/tinyusb/src/device/usbd.c **** 
 499:/Users/joostbooy/Desktop/Code/stm32/lib/tinyusb/src/device/usbd.c ****       case DCD_EVENT_UNPLUGGED:
 500:/Users/joostbooy/Desktop/Code/stm32/lib/tinyusb/src/device/usbd.c ****         TU_LOG_USBD("\r\n");
 501:/Users/joostbooy/Desktop/Code/stm32/lib/tinyusb/src/device/usbd.c ****         usbd_reset(event.rhport);
 502:/Users/joostbooy/Desktop/Code/stm32/lib/tinyusb/src/device/usbd.c **** 
 503:/Users/joostbooy/Desktop/Code/stm32/lib/tinyusb/src/device/usbd.c ****         // invoke callback
 504:/Users/joostbooy/Desktop/Code/stm32/lib/tinyusb/src/device/usbd.c ****         if (tud_umount_cb) tud_umount_cb();
 505:/Users/joostbooy/Desktop/Code/stm32/lib/tinyusb/src/device/usbd.c ****       break;
 506:/Users/joostbooy/Desktop/Code/stm32/lib/tinyusb/src/device/usbd.c **** 
 507:/Users/joostbooy/Desktop/Code/stm32/lib/tinyusb/src/device/usbd.c ****       case DCD_EVENT_SETUP_RECEIVED:
 508:/Users/joostbooy/Desktop/Code/stm32/lib/tinyusb/src/device/usbd.c ****         TU_LOG_BUF(CFG_TUD_LOG_LEVEL, &event.setup_received, 8);
 509:/Users/joostbooy/Desktop/Code/stm32/lib/tinyusb/src/device/usbd.c ****         TU_LOG_USBD("\r\n");
 510:/Users/joostbooy/Desktop/Code/stm32/lib/tinyusb/src/device/usbd.c **** 
 511:/Users/joostbooy/Desktop/Code/stm32/lib/tinyusb/src/device/usbd.c ****         // Mark as connected after receiving 1st setup packet.
 512:/Users/joostbooy/Desktop/Code/stm32/lib/tinyusb/src/device/usbd.c ****         // But it is easier to set it every time instead of wasting time to check then set
 513:/Users/joostbooy/Desktop/Code/stm32/lib/tinyusb/src/device/usbd.c ****         _usbd_dev.connected = 1;
 514:/Users/joostbooy/Desktop/Code/stm32/lib/tinyusb/src/device/usbd.c **** 
 515:/Users/joostbooy/Desktop/Code/stm32/lib/tinyusb/src/device/usbd.c ****         // mark both in & out control as free
 516:/Users/joostbooy/Desktop/Code/stm32/lib/tinyusb/src/device/usbd.c ****         _usbd_dev.ep_status[0][TUSB_DIR_OUT].busy = 0;
 517:/Users/joostbooy/Desktop/Code/stm32/lib/tinyusb/src/device/usbd.c ****         _usbd_dev.ep_status[0][TUSB_DIR_OUT].claimed = 0;
 518:/Users/joostbooy/Desktop/Code/stm32/lib/tinyusb/src/device/usbd.c ****         _usbd_dev.ep_status[0][TUSB_DIR_IN ].busy = 0;
 519:/Users/joostbooy/Desktop/Code/stm32/lib/tinyusb/src/device/usbd.c ****         _usbd_dev.ep_status[0][TUSB_DIR_IN ].claimed = 0;
 520:/Users/joostbooy/Desktop/Code/stm32/lib/tinyusb/src/device/usbd.c **** 
 521:/Users/joostbooy/Desktop/Code/stm32/lib/tinyusb/src/device/usbd.c ****         // Process control request
 522:/Users/joostbooy/Desktop/Code/stm32/lib/tinyusb/src/device/usbd.c ****         if ( !process_control_request(event.rhport, &event.setup_received) )
 523:/Users/joostbooy/Desktop/Code/stm32/lib/tinyusb/src/device/usbd.c ****         {
 524:/Users/joostbooy/Desktop/Code/stm32/lib/tinyusb/src/device/usbd.c ****           TU_LOG_USBD("  Stall EP0\r\n");
 525:/Users/joostbooy/Desktop/Code/stm32/lib/tinyusb/src/device/usbd.c ****           // Failed -> stall both control endpoint IN and OUT
 526:/Users/joostbooy/Desktop/Code/stm32/lib/tinyusb/src/device/usbd.c ****           dcd_edpt_stall(event.rhport, 0);
 527:/Users/joostbooy/Desktop/Code/stm32/lib/tinyusb/src/device/usbd.c ****           dcd_edpt_stall(event.rhport, 0 | TUSB_DIR_IN_MASK);
 528:/Users/joostbooy/Desktop/Code/stm32/lib/tinyusb/src/device/usbd.c ****         }
 529:/Users/joostbooy/Desktop/Code/stm32/lib/tinyusb/src/device/usbd.c ****       break;
 530:/Users/joostbooy/Desktop/Code/stm32/lib/tinyusb/src/device/usbd.c **** 
 531:/Users/joostbooy/Desktop/Code/stm32/lib/tinyusb/src/device/usbd.c ****       case DCD_EVENT_XFER_COMPLETE:
 532:/Users/joostbooy/Desktop/Code/stm32/lib/tinyusb/src/device/usbd.c ****       {
 533:/Users/joostbooy/Desktop/Code/stm32/lib/tinyusb/src/device/usbd.c ****         // Invoke the class callback associated with the endpoint address
 534:/Users/joostbooy/Desktop/Code/stm32/lib/tinyusb/src/device/usbd.c ****         uint8_t const ep_addr = event.xfer_complete.ep_addr;
 535:/Users/joostbooy/Desktop/Code/stm32/lib/tinyusb/src/device/usbd.c ****         uint8_t const epnum   = tu_edpt_number(ep_addr);
 536:/Users/joostbooy/Desktop/Code/stm32/lib/tinyusb/src/device/usbd.c ****         uint8_t const ep_dir  = tu_edpt_dir(ep_addr);
 537:/Users/joostbooy/Desktop/Code/stm32/lib/tinyusb/src/device/usbd.c **** 
 538:/Users/joostbooy/Desktop/Code/stm32/lib/tinyusb/src/device/usbd.c ****         TU_LOG_USBD("on EP %02X with %u bytes\r\n", ep_addr, (unsigned int) event.xfer_complete.len
 539:/Users/joostbooy/Desktop/Code/stm32/lib/tinyusb/src/device/usbd.c **** 
 540:/Users/joostbooy/Desktop/Code/stm32/lib/tinyusb/src/device/usbd.c ****         _usbd_dev.ep_status[epnum][ep_dir].busy = 0;
 541:/Users/joostbooy/Desktop/Code/stm32/lib/tinyusb/src/device/usbd.c ****         _usbd_dev.ep_status[epnum][ep_dir].claimed = 0;
 542:/Users/joostbooy/Desktop/Code/stm32/lib/tinyusb/src/device/usbd.c **** 
 543:/Users/joostbooy/Desktop/Code/stm32/lib/tinyusb/src/device/usbd.c ****         if ( 0 == epnum )
 544:/Users/joostbooy/Desktop/Code/stm32/lib/tinyusb/src/device/usbd.c ****         {
 545:/Users/joostbooy/Desktop/Code/stm32/lib/tinyusb/src/device/usbd.c ****           usbd_control_xfer_cb(event.rhport, ep_addr, (xfer_result_t) event.xfer_complete.result, e
 546:/Users/joostbooy/Desktop/Code/stm32/lib/tinyusb/src/device/usbd.c ****           .len);
 547:/Users/joostbooy/Desktop/Code/stm32/lib/tinyusb/src/device/usbd.c ****         }
 548:/Users/joostbooy/Desktop/Code/stm32/lib/tinyusb/src/device/usbd.c ****         else
 549:/Users/joostbooy/Desktop/Code/stm32/lib/tinyusb/src/device/usbd.c ****         {
 550:/Users/joostbooy/Desktop/Code/stm32/lib/tinyusb/src/device/usbd.c ****           usbd_class_driver_t const * driver = get_driver( _usbd_dev.ep2drv[epnum][ep_dir] );
ARM GAS  /var/folders/84/_x1cyy_j36g486tldtwl37280000gn/T//cch4UlI6.s 			page 15


 551:/Users/joostbooy/Desktop/Code/stm32/lib/tinyusb/src/device/usbd.c ****           TU_ASSERT(driver, );
 552:/Users/joostbooy/Desktop/Code/stm32/lib/tinyusb/src/device/usbd.c **** 
 553:/Users/joostbooy/Desktop/Code/stm32/lib/tinyusb/src/device/usbd.c ****           TU_LOG_USBD("  %s xfer callback\r\n", driver->name);
 554:/Users/joostbooy/Desktop/Code/stm32/lib/tinyusb/src/device/usbd.c ****           driver->xfer_cb(event.rhport, ep_addr, (xfer_result_t) event.xfer_complete.result, event.
 555:/Users/joostbooy/Desktop/Code/stm32/lib/tinyusb/src/device/usbd.c ****         }
 556:/Users/joostbooy/Desktop/Code/stm32/lib/tinyusb/src/device/usbd.c ****       }
 557:/Users/joostbooy/Desktop/Code/stm32/lib/tinyusb/src/device/usbd.c ****       break;
 558:/Users/joostbooy/Desktop/Code/stm32/lib/tinyusb/src/device/usbd.c **** 
 559:/Users/joostbooy/Desktop/Code/stm32/lib/tinyusb/src/device/usbd.c ****       case DCD_EVENT_SUSPEND:
 560:/Users/joostbooy/Desktop/Code/stm32/lib/tinyusb/src/device/usbd.c ****         // NOTE: When plugging/unplugging device, the D+/D- state are unstable and
 561:/Users/joostbooy/Desktop/Code/stm32/lib/tinyusb/src/device/usbd.c ****         // can accidentally meet the SUSPEND condition ( Bus Idle for 3ms ), which result in a seri
 562:/Users/joostbooy/Desktop/Code/stm32/lib/tinyusb/src/device/usbd.c ****         // e.g suspend -> resume -> unplug/plug. Skip suspend/resume if not connected
 563:/Users/joostbooy/Desktop/Code/stm32/lib/tinyusb/src/device/usbd.c ****         if ( _usbd_dev.connected )
 564:/Users/joostbooy/Desktop/Code/stm32/lib/tinyusb/src/device/usbd.c ****         {
 565:/Users/joostbooy/Desktop/Code/stm32/lib/tinyusb/src/device/usbd.c ****           TU_LOG_USBD(": Remote Wakeup = %u\r\n", _usbd_dev.remote_wakeup_en);
 566:/Users/joostbooy/Desktop/Code/stm32/lib/tinyusb/src/device/usbd.c ****           if (tud_suspend_cb) tud_suspend_cb(_usbd_dev.remote_wakeup_en);
 567:/Users/joostbooy/Desktop/Code/stm32/lib/tinyusb/src/device/usbd.c ****         }else
 568:/Users/joostbooy/Desktop/Code/stm32/lib/tinyusb/src/device/usbd.c ****         {
 569:/Users/joostbooy/Desktop/Code/stm32/lib/tinyusb/src/device/usbd.c ****           TU_LOG_USBD(" Skipped\r\n");
 570:/Users/joostbooy/Desktop/Code/stm32/lib/tinyusb/src/device/usbd.c ****         }
 571:/Users/joostbooy/Desktop/Code/stm32/lib/tinyusb/src/device/usbd.c ****       break;
 572:/Users/joostbooy/Desktop/Code/stm32/lib/tinyusb/src/device/usbd.c **** 
 573:/Users/joostbooy/Desktop/Code/stm32/lib/tinyusb/src/device/usbd.c ****       case DCD_EVENT_RESUME:
 574:/Users/joostbooy/Desktop/Code/stm32/lib/tinyusb/src/device/usbd.c ****         if ( _usbd_dev.connected )
 575:/Users/joostbooy/Desktop/Code/stm32/lib/tinyusb/src/device/usbd.c ****         {
 576:/Users/joostbooy/Desktop/Code/stm32/lib/tinyusb/src/device/usbd.c ****           TU_LOG_USBD("\r\n");
 577:/Users/joostbooy/Desktop/Code/stm32/lib/tinyusb/src/device/usbd.c ****           if (tud_resume_cb) tud_resume_cb();
 578:/Users/joostbooy/Desktop/Code/stm32/lib/tinyusb/src/device/usbd.c ****         }else
 579:/Users/joostbooy/Desktop/Code/stm32/lib/tinyusb/src/device/usbd.c ****         {
 580:/Users/joostbooy/Desktop/Code/stm32/lib/tinyusb/src/device/usbd.c ****           TU_LOG_USBD(" Skipped\r\n");
 581:/Users/joostbooy/Desktop/Code/stm32/lib/tinyusb/src/device/usbd.c ****         }
 582:/Users/joostbooy/Desktop/Code/stm32/lib/tinyusb/src/device/usbd.c ****       break;
 583:/Users/joostbooy/Desktop/Code/stm32/lib/tinyusb/src/device/usbd.c **** 
 584:/Users/joostbooy/Desktop/Code/stm32/lib/tinyusb/src/device/usbd.c ****       case USBD_EVENT_FUNC_CALL:
 585:/Users/joostbooy/Desktop/Code/stm32/lib/tinyusb/src/device/usbd.c ****         TU_LOG_USBD("\r\n");
 586:/Users/joostbooy/Desktop/Code/stm32/lib/tinyusb/src/device/usbd.c ****         if ( event.func_call.func ) event.func_call.func(event.func_call.param);
 587:/Users/joostbooy/Desktop/Code/stm32/lib/tinyusb/src/device/usbd.c ****       break;
 588:/Users/joostbooy/Desktop/Code/stm32/lib/tinyusb/src/device/usbd.c **** 
 589:/Users/joostbooy/Desktop/Code/stm32/lib/tinyusb/src/device/usbd.c ****       case DCD_EVENT_SOF:
 590:/Users/joostbooy/Desktop/Code/stm32/lib/tinyusb/src/device/usbd.c ****       default:
 591:/Users/joostbooy/Desktop/Code/stm32/lib/tinyusb/src/device/usbd.c ****         TU_BREAKPOINT();
 592:/Users/joostbooy/Desktop/Code/stm32/lib/tinyusb/src/device/usbd.c ****       break;
 593:/Users/joostbooy/Desktop/Code/stm32/lib/tinyusb/src/device/usbd.c ****     }
 594:/Users/joostbooy/Desktop/Code/stm32/lib/tinyusb/src/device/usbd.c **** 
 595:/Users/joostbooy/Desktop/Code/stm32/lib/tinyusb/src/device/usbd.c **** #if CFG_TUSB_OS != OPT_OS_NONE && CFG_TUSB_OS != OPT_OS_PICO
 596:/Users/joostbooy/Desktop/Code/stm32/lib/tinyusb/src/device/usbd.c ****     // return if there is no more events, for application to run other background
 597:/Users/joostbooy/Desktop/Code/stm32/lib/tinyusb/src/device/usbd.c ****     if (osal_queue_empty(_usbd_q)) return;
 598:/Users/joostbooy/Desktop/Code/stm32/lib/tinyusb/src/device/usbd.c **** #endif
 599:/Users/joostbooy/Desktop/Code/stm32/lib/tinyusb/src/device/usbd.c ****   }
 600:/Users/joostbooy/Desktop/Code/stm32/lib/tinyusb/src/device/usbd.c **** }
 601:/Users/joostbooy/Desktop/Code/stm32/lib/tinyusb/src/device/usbd.c **** 
 602:/Users/joostbooy/Desktop/Code/stm32/lib/tinyusb/src/device/usbd.c **** //--------------------------------------------------------------------+
 603:/Users/joostbooy/Desktop/Code/stm32/lib/tinyusb/src/device/usbd.c **** // Control Request Parser & Handling
 604:/Users/joostbooy/Desktop/Code/stm32/lib/tinyusb/src/device/usbd.c **** //--------------------------------------------------------------------+
 605:/Users/joostbooy/Desktop/Code/stm32/lib/tinyusb/src/device/usbd.c **** 
 606:/Users/joostbooy/Desktop/Code/stm32/lib/tinyusb/src/device/usbd.c **** // Helper to invoke class driver control request handler
 607:/Users/joostbooy/Desktop/Code/stm32/lib/tinyusb/src/device/usbd.c **** static bool invoke_class_control(uint8_t rhport, usbd_class_driver_t const * driver, tusb_control_r
ARM GAS  /var/folders/84/_x1cyy_j36g486tldtwl37280000gn/T//cch4UlI6.s 			page 16


 608:/Users/joostbooy/Desktop/Code/stm32/lib/tinyusb/src/device/usbd.c **** {
 609:/Users/joostbooy/Desktop/Code/stm32/lib/tinyusb/src/device/usbd.c ****   usbd_control_set_complete_callback(driver->control_xfer_cb);
 610:/Users/joostbooy/Desktop/Code/stm32/lib/tinyusb/src/device/usbd.c ****   TU_LOG_USBD("  %s control request\r\n", driver->name);
 611:/Users/joostbooy/Desktop/Code/stm32/lib/tinyusb/src/device/usbd.c ****   return driver->control_xfer_cb(rhport, CONTROL_STAGE_SETUP, request);
 612:/Users/joostbooy/Desktop/Code/stm32/lib/tinyusb/src/device/usbd.c **** }
 613:/Users/joostbooy/Desktop/Code/stm32/lib/tinyusb/src/device/usbd.c **** 
 614:/Users/joostbooy/Desktop/Code/stm32/lib/tinyusb/src/device/usbd.c **** // This handles the actual request and its response.
 615:/Users/joostbooy/Desktop/Code/stm32/lib/tinyusb/src/device/usbd.c **** // return false will cause its caller to stall control endpoint
 616:/Users/joostbooy/Desktop/Code/stm32/lib/tinyusb/src/device/usbd.c **** static bool process_control_request(uint8_t rhport, tusb_control_request_t const * p_request)
 617:/Users/joostbooy/Desktop/Code/stm32/lib/tinyusb/src/device/usbd.c **** {
 618:/Users/joostbooy/Desktop/Code/stm32/lib/tinyusb/src/device/usbd.c ****   usbd_control_set_complete_callback(NULL);
 619:/Users/joostbooy/Desktop/Code/stm32/lib/tinyusb/src/device/usbd.c **** 
 620:/Users/joostbooy/Desktop/Code/stm32/lib/tinyusb/src/device/usbd.c ****   TU_ASSERT(p_request->bmRequestType_bit.type < TUSB_REQ_TYPE_INVALID);
 621:/Users/joostbooy/Desktop/Code/stm32/lib/tinyusb/src/device/usbd.c **** 
 622:/Users/joostbooy/Desktop/Code/stm32/lib/tinyusb/src/device/usbd.c ****   // Vendor request
 623:/Users/joostbooy/Desktop/Code/stm32/lib/tinyusb/src/device/usbd.c ****   if ( p_request->bmRequestType_bit.type == TUSB_REQ_TYPE_VENDOR )
 624:/Users/joostbooy/Desktop/Code/stm32/lib/tinyusb/src/device/usbd.c ****   {
 625:/Users/joostbooy/Desktop/Code/stm32/lib/tinyusb/src/device/usbd.c ****     TU_VERIFY(tud_vendor_control_xfer_cb);
 626:/Users/joostbooy/Desktop/Code/stm32/lib/tinyusb/src/device/usbd.c **** 
 627:/Users/joostbooy/Desktop/Code/stm32/lib/tinyusb/src/device/usbd.c ****     usbd_control_set_complete_callback(tud_vendor_control_xfer_cb);
 628:/Users/joostbooy/Desktop/Code/stm32/lib/tinyusb/src/device/usbd.c ****     return tud_vendor_control_xfer_cb(rhport, CONTROL_STAGE_SETUP, p_request);
 629:/Users/joostbooy/Desktop/Code/stm32/lib/tinyusb/src/device/usbd.c ****   }
 630:/Users/joostbooy/Desktop/Code/stm32/lib/tinyusb/src/device/usbd.c **** 
 631:/Users/joostbooy/Desktop/Code/stm32/lib/tinyusb/src/device/usbd.c **** #if CFG_TUSB_DEBUG >= CFG_TUD_LOG_LEVEL
 632:/Users/joostbooy/Desktop/Code/stm32/lib/tinyusb/src/device/usbd.c ****   if (TUSB_REQ_TYPE_STANDARD == p_request->bmRequestType_bit.type && p_request->bRequest <= TUSB_RE
 633:/Users/joostbooy/Desktop/Code/stm32/lib/tinyusb/src/device/usbd.c ****   {
 634:/Users/joostbooy/Desktop/Code/stm32/lib/tinyusb/src/device/usbd.c ****     TU_LOG_USBD("  %s", tu_str_std_request[p_request->bRequest]);
 635:/Users/joostbooy/Desktop/Code/stm32/lib/tinyusb/src/device/usbd.c ****     if (TUSB_REQ_GET_DESCRIPTOR != p_request->bRequest) TU_LOG_USBD("\r\n");
 636:/Users/joostbooy/Desktop/Code/stm32/lib/tinyusb/src/device/usbd.c ****   }
 637:/Users/joostbooy/Desktop/Code/stm32/lib/tinyusb/src/device/usbd.c **** #endif
 638:/Users/joostbooy/Desktop/Code/stm32/lib/tinyusb/src/device/usbd.c **** 
 639:/Users/joostbooy/Desktop/Code/stm32/lib/tinyusb/src/device/usbd.c ****   switch ( p_request->bmRequestType_bit.recipient )
 640:/Users/joostbooy/Desktop/Code/stm32/lib/tinyusb/src/device/usbd.c ****   {
 641:/Users/joostbooy/Desktop/Code/stm32/lib/tinyusb/src/device/usbd.c ****     //------------- Device Requests e.g in enumeration -------------//
 642:/Users/joostbooy/Desktop/Code/stm32/lib/tinyusb/src/device/usbd.c ****     case TUSB_REQ_RCPT_DEVICE:
 643:/Users/joostbooy/Desktop/Code/stm32/lib/tinyusb/src/device/usbd.c ****       if ( TUSB_REQ_TYPE_CLASS == p_request->bmRequestType_bit.type )
 644:/Users/joostbooy/Desktop/Code/stm32/lib/tinyusb/src/device/usbd.c ****       {
 645:/Users/joostbooy/Desktop/Code/stm32/lib/tinyusb/src/device/usbd.c ****         uint8_t const itf = tu_u16_low(p_request->wIndex);
 646:/Users/joostbooy/Desktop/Code/stm32/lib/tinyusb/src/device/usbd.c ****         TU_VERIFY(itf < TU_ARRAY_SIZE(_usbd_dev.itf2drv));
 647:/Users/joostbooy/Desktop/Code/stm32/lib/tinyusb/src/device/usbd.c **** 
 648:/Users/joostbooy/Desktop/Code/stm32/lib/tinyusb/src/device/usbd.c ****         usbd_class_driver_t const * driver = get_driver(_usbd_dev.itf2drv[itf]);
 649:/Users/joostbooy/Desktop/Code/stm32/lib/tinyusb/src/device/usbd.c ****         TU_VERIFY(driver);
 650:/Users/joostbooy/Desktop/Code/stm32/lib/tinyusb/src/device/usbd.c **** 
 651:/Users/joostbooy/Desktop/Code/stm32/lib/tinyusb/src/device/usbd.c ****         // forward to class driver: "non-STD request to Interface"
 652:/Users/joostbooy/Desktop/Code/stm32/lib/tinyusb/src/device/usbd.c ****         return invoke_class_control(rhport, driver, p_request);
 653:/Users/joostbooy/Desktop/Code/stm32/lib/tinyusb/src/device/usbd.c ****       }
 654:/Users/joostbooy/Desktop/Code/stm32/lib/tinyusb/src/device/usbd.c **** 
 655:/Users/joostbooy/Desktop/Code/stm32/lib/tinyusb/src/device/usbd.c ****       if ( TUSB_REQ_TYPE_STANDARD != p_request->bmRequestType_bit.type )
 656:/Users/joostbooy/Desktop/Code/stm32/lib/tinyusb/src/device/usbd.c ****       {
 657:/Users/joostbooy/Desktop/Code/stm32/lib/tinyusb/src/device/usbd.c ****         // Non standard request is not supported
 658:/Users/joostbooy/Desktop/Code/stm32/lib/tinyusb/src/device/usbd.c ****         TU_BREAKPOINT();
 659:/Users/joostbooy/Desktop/Code/stm32/lib/tinyusb/src/device/usbd.c ****         return false;
 660:/Users/joostbooy/Desktop/Code/stm32/lib/tinyusb/src/device/usbd.c ****       }
 661:/Users/joostbooy/Desktop/Code/stm32/lib/tinyusb/src/device/usbd.c **** 
 662:/Users/joostbooy/Desktop/Code/stm32/lib/tinyusb/src/device/usbd.c ****       switch ( p_request->bRequest )
 663:/Users/joostbooy/Desktop/Code/stm32/lib/tinyusb/src/device/usbd.c ****       {
 664:/Users/joostbooy/Desktop/Code/stm32/lib/tinyusb/src/device/usbd.c ****         case TUSB_REQ_SET_ADDRESS:
ARM GAS  /var/folders/84/_x1cyy_j36g486tldtwl37280000gn/T//cch4UlI6.s 			page 17


 665:/Users/joostbooy/Desktop/Code/stm32/lib/tinyusb/src/device/usbd.c ****           // Depending on mcu, status phase could be sent either before or after changing device ad
 666:/Users/joostbooy/Desktop/Code/stm32/lib/tinyusb/src/device/usbd.c ****           // or even require stack to not response with status at all
 667:/Users/joostbooy/Desktop/Code/stm32/lib/tinyusb/src/device/usbd.c ****           // Therefore DCD must take full responsibility to response and include zlp status packet 
 668:/Users/joostbooy/Desktop/Code/stm32/lib/tinyusb/src/device/usbd.c ****           usbd_control_set_request(p_request); // set request since DCD has no access to tud_contro
 669:/Users/joostbooy/Desktop/Code/stm32/lib/tinyusb/src/device/usbd.c ****           dcd_set_address(rhport, (uint8_t) p_request->wValue);
 670:/Users/joostbooy/Desktop/Code/stm32/lib/tinyusb/src/device/usbd.c ****           // skip tud_control_status()
 671:/Users/joostbooy/Desktop/Code/stm32/lib/tinyusb/src/device/usbd.c ****           _usbd_dev.addressed = 1;
 672:/Users/joostbooy/Desktop/Code/stm32/lib/tinyusb/src/device/usbd.c ****         break;
 673:/Users/joostbooy/Desktop/Code/stm32/lib/tinyusb/src/device/usbd.c **** 
 674:/Users/joostbooy/Desktop/Code/stm32/lib/tinyusb/src/device/usbd.c ****         case TUSB_REQ_GET_CONFIGURATION:
 675:/Users/joostbooy/Desktop/Code/stm32/lib/tinyusb/src/device/usbd.c ****         {
 676:/Users/joostbooy/Desktop/Code/stm32/lib/tinyusb/src/device/usbd.c ****           uint8_t cfg_num = _usbd_dev.cfg_num;
 677:/Users/joostbooy/Desktop/Code/stm32/lib/tinyusb/src/device/usbd.c ****           tud_control_xfer(rhport, p_request, &cfg_num, 1);
 678:/Users/joostbooy/Desktop/Code/stm32/lib/tinyusb/src/device/usbd.c ****         }
 679:/Users/joostbooy/Desktop/Code/stm32/lib/tinyusb/src/device/usbd.c ****         break;
 680:/Users/joostbooy/Desktop/Code/stm32/lib/tinyusb/src/device/usbd.c **** 
 681:/Users/joostbooy/Desktop/Code/stm32/lib/tinyusb/src/device/usbd.c ****         case TUSB_REQ_SET_CONFIGURATION:
 682:/Users/joostbooy/Desktop/Code/stm32/lib/tinyusb/src/device/usbd.c ****         {
 683:/Users/joostbooy/Desktop/Code/stm32/lib/tinyusb/src/device/usbd.c ****           uint8_t const cfg_num = (uint8_t) p_request->wValue;
 684:/Users/joostbooy/Desktop/Code/stm32/lib/tinyusb/src/device/usbd.c **** 
 685:/Users/joostbooy/Desktop/Code/stm32/lib/tinyusb/src/device/usbd.c ****           // Only process if new configure is different
 686:/Users/joostbooy/Desktop/Code/stm32/lib/tinyusb/src/device/usbd.c ****           if (_usbd_dev.cfg_num != cfg_num)
 687:/Users/joostbooy/Desktop/Code/stm32/lib/tinyusb/src/device/usbd.c ****           {
 688:/Users/joostbooy/Desktop/Code/stm32/lib/tinyusb/src/device/usbd.c ****             if ( _usbd_dev.cfg_num )
 689:/Users/joostbooy/Desktop/Code/stm32/lib/tinyusb/src/device/usbd.c ****             {
 690:/Users/joostbooy/Desktop/Code/stm32/lib/tinyusb/src/device/usbd.c ****               // already configured: need to clear all endpoints and driver first
 691:/Users/joostbooy/Desktop/Code/stm32/lib/tinyusb/src/device/usbd.c ****               TU_LOG_USBD("  Clear current Configuration (%u) before switching\r\n", _usbd_dev.cfg_
 692:/Users/joostbooy/Desktop/Code/stm32/lib/tinyusb/src/device/usbd.c **** 
 693:/Users/joostbooy/Desktop/Code/stm32/lib/tinyusb/src/device/usbd.c ****               // close all non-control endpoints, cancel all pending transfers if any
 694:/Users/joostbooy/Desktop/Code/stm32/lib/tinyusb/src/device/usbd.c ****               dcd_edpt_close_all(rhport);
 695:/Users/joostbooy/Desktop/Code/stm32/lib/tinyusb/src/device/usbd.c **** 
 696:/Users/joostbooy/Desktop/Code/stm32/lib/tinyusb/src/device/usbd.c ****               // close all drivers and current configured state except bus speed
 697:/Users/joostbooy/Desktop/Code/stm32/lib/tinyusb/src/device/usbd.c ****               uint8_t const speed = _usbd_dev.speed;
 698:/Users/joostbooy/Desktop/Code/stm32/lib/tinyusb/src/device/usbd.c ****               configuration_reset(rhport);
 699:/Users/joostbooy/Desktop/Code/stm32/lib/tinyusb/src/device/usbd.c **** 
 700:/Users/joostbooy/Desktop/Code/stm32/lib/tinyusb/src/device/usbd.c ****               _usbd_dev.speed = speed; // restore speed
 701:/Users/joostbooy/Desktop/Code/stm32/lib/tinyusb/src/device/usbd.c ****             }
 702:/Users/joostbooy/Desktop/Code/stm32/lib/tinyusb/src/device/usbd.c **** 
 703:/Users/joostbooy/Desktop/Code/stm32/lib/tinyusb/src/device/usbd.c ****             // Handle the new configuration and execute the corresponding callback
 704:/Users/joostbooy/Desktop/Code/stm32/lib/tinyusb/src/device/usbd.c ****             if ( cfg_num )
 705:/Users/joostbooy/Desktop/Code/stm32/lib/tinyusb/src/device/usbd.c ****             {
 706:/Users/joostbooy/Desktop/Code/stm32/lib/tinyusb/src/device/usbd.c ****               // switch to new configuration if not zero
 707:/Users/joostbooy/Desktop/Code/stm32/lib/tinyusb/src/device/usbd.c ****               TU_ASSERT( process_set_config(rhport, cfg_num) );
 708:/Users/joostbooy/Desktop/Code/stm32/lib/tinyusb/src/device/usbd.c **** 
 709:/Users/joostbooy/Desktop/Code/stm32/lib/tinyusb/src/device/usbd.c ****               if ( tud_mount_cb ) tud_mount_cb();
 710:/Users/joostbooy/Desktop/Code/stm32/lib/tinyusb/src/device/usbd.c ****             }
 711:/Users/joostbooy/Desktop/Code/stm32/lib/tinyusb/src/device/usbd.c ****             else
 712:/Users/joostbooy/Desktop/Code/stm32/lib/tinyusb/src/device/usbd.c ****             {
 713:/Users/joostbooy/Desktop/Code/stm32/lib/tinyusb/src/device/usbd.c ****               if ( tud_umount_cb ) tud_umount_cb();
 714:/Users/joostbooy/Desktop/Code/stm32/lib/tinyusb/src/device/usbd.c ****             }
 715:/Users/joostbooy/Desktop/Code/stm32/lib/tinyusb/src/device/usbd.c ****           }
 716:/Users/joostbooy/Desktop/Code/stm32/lib/tinyusb/src/device/usbd.c **** 
 717:/Users/joostbooy/Desktop/Code/stm32/lib/tinyusb/src/device/usbd.c ****           _usbd_dev.cfg_num = cfg_num;
 718:/Users/joostbooy/Desktop/Code/stm32/lib/tinyusb/src/device/usbd.c ****           tud_control_status(rhport, p_request);
 719:/Users/joostbooy/Desktop/Code/stm32/lib/tinyusb/src/device/usbd.c ****         }
 720:/Users/joostbooy/Desktop/Code/stm32/lib/tinyusb/src/device/usbd.c ****         break;
 721:/Users/joostbooy/Desktop/Code/stm32/lib/tinyusb/src/device/usbd.c **** 
ARM GAS  /var/folders/84/_x1cyy_j36g486tldtwl37280000gn/T//cch4UlI6.s 			page 18


 722:/Users/joostbooy/Desktop/Code/stm32/lib/tinyusb/src/device/usbd.c ****         case TUSB_REQ_GET_DESCRIPTOR:
 723:/Users/joostbooy/Desktop/Code/stm32/lib/tinyusb/src/device/usbd.c ****           TU_VERIFY( process_get_descriptor(rhport, p_request) );
 724:/Users/joostbooy/Desktop/Code/stm32/lib/tinyusb/src/device/usbd.c ****         break;
 725:/Users/joostbooy/Desktop/Code/stm32/lib/tinyusb/src/device/usbd.c **** 
 726:/Users/joostbooy/Desktop/Code/stm32/lib/tinyusb/src/device/usbd.c ****         case TUSB_REQ_SET_FEATURE:
 727:/Users/joostbooy/Desktop/Code/stm32/lib/tinyusb/src/device/usbd.c ****           // Only support remote wakeup for device feature
 728:/Users/joostbooy/Desktop/Code/stm32/lib/tinyusb/src/device/usbd.c ****           TU_VERIFY(TUSB_REQ_FEATURE_REMOTE_WAKEUP == p_request->wValue);
 729:/Users/joostbooy/Desktop/Code/stm32/lib/tinyusb/src/device/usbd.c **** 
 730:/Users/joostbooy/Desktop/Code/stm32/lib/tinyusb/src/device/usbd.c ****           TU_LOG_USBD("    Enable Remote Wakeup\r\n");
 731:/Users/joostbooy/Desktop/Code/stm32/lib/tinyusb/src/device/usbd.c **** 
 732:/Users/joostbooy/Desktop/Code/stm32/lib/tinyusb/src/device/usbd.c ****           // Host may enable remote wake up before suspending especially HID device
 733:/Users/joostbooy/Desktop/Code/stm32/lib/tinyusb/src/device/usbd.c ****           _usbd_dev.remote_wakeup_en = true;
 734:/Users/joostbooy/Desktop/Code/stm32/lib/tinyusb/src/device/usbd.c ****           tud_control_status(rhport, p_request);
 735:/Users/joostbooy/Desktop/Code/stm32/lib/tinyusb/src/device/usbd.c ****         break;
 736:/Users/joostbooy/Desktop/Code/stm32/lib/tinyusb/src/device/usbd.c **** 
 737:/Users/joostbooy/Desktop/Code/stm32/lib/tinyusb/src/device/usbd.c ****         case TUSB_REQ_CLEAR_FEATURE:
 738:/Users/joostbooy/Desktop/Code/stm32/lib/tinyusb/src/device/usbd.c ****           // Only support remote wakeup for device feature
 739:/Users/joostbooy/Desktop/Code/stm32/lib/tinyusb/src/device/usbd.c ****           TU_VERIFY(TUSB_REQ_FEATURE_REMOTE_WAKEUP == p_request->wValue);
 740:/Users/joostbooy/Desktop/Code/stm32/lib/tinyusb/src/device/usbd.c **** 
 741:/Users/joostbooy/Desktop/Code/stm32/lib/tinyusb/src/device/usbd.c ****           TU_LOG_USBD("    Disable Remote Wakeup\r\n");
 742:/Users/joostbooy/Desktop/Code/stm32/lib/tinyusb/src/device/usbd.c **** 
 743:/Users/joostbooy/Desktop/Code/stm32/lib/tinyusb/src/device/usbd.c ****           // Host may disable remote wake up after resuming
 744:/Users/joostbooy/Desktop/Code/stm32/lib/tinyusb/src/device/usbd.c ****           _usbd_dev.remote_wakeup_en = false;
 745:/Users/joostbooy/Desktop/Code/stm32/lib/tinyusb/src/device/usbd.c ****           tud_control_status(rhport, p_request);
 746:/Users/joostbooy/Desktop/Code/stm32/lib/tinyusb/src/device/usbd.c ****         break;
 747:/Users/joostbooy/Desktop/Code/stm32/lib/tinyusb/src/device/usbd.c **** 
 748:/Users/joostbooy/Desktop/Code/stm32/lib/tinyusb/src/device/usbd.c ****         case TUSB_REQ_GET_STATUS:
 749:/Users/joostbooy/Desktop/Code/stm32/lib/tinyusb/src/device/usbd.c ****         {
 750:/Users/joostbooy/Desktop/Code/stm32/lib/tinyusb/src/device/usbd.c ****           // Device status bit mask
 751:/Users/joostbooy/Desktop/Code/stm32/lib/tinyusb/src/device/usbd.c ****           // - Bit 0: Self Powered
 752:/Users/joostbooy/Desktop/Code/stm32/lib/tinyusb/src/device/usbd.c ****           // - Bit 1: Remote Wakeup enabled
 753:/Users/joostbooy/Desktop/Code/stm32/lib/tinyusb/src/device/usbd.c ****           uint16_t status = (uint16_t) ((_usbd_dev.self_powered ? 1u : 0u) | (_usbd_dev.remote_wake
 754:/Users/joostbooy/Desktop/Code/stm32/lib/tinyusb/src/device/usbd.c ****           tud_control_xfer(rhport, p_request, &status, 2);
 755:/Users/joostbooy/Desktop/Code/stm32/lib/tinyusb/src/device/usbd.c ****         }
 756:/Users/joostbooy/Desktop/Code/stm32/lib/tinyusb/src/device/usbd.c ****         break;
 757:/Users/joostbooy/Desktop/Code/stm32/lib/tinyusb/src/device/usbd.c **** 
 758:/Users/joostbooy/Desktop/Code/stm32/lib/tinyusb/src/device/usbd.c ****         // Unknown/Unsupported request
 759:/Users/joostbooy/Desktop/Code/stm32/lib/tinyusb/src/device/usbd.c ****         default: TU_BREAKPOINT(); return false;
 760:/Users/joostbooy/Desktop/Code/stm32/lib/tinyusb/src/device/usbd.c ****       }
 761:/Users/joostbooy/Desktop/Code/stm32/lib/tinyusb/src/device/usbd.c ****     break;
 762:/Users/joostbooy/Desktop/Code/stm32/lib/tinyusb/src/device/usbd.c **** 
 763:/Users/joostbooy/Desktop/Code/stm32/lib/tinyusb/src/device/usbd.c ****     //------------- Class/Interface Specific Request -------------//
 764:/Users/joostbooy/Desktop/Code/stm32/lib/tinyusb/src/device/usbd.c ****     case TUSB_REQ_RCPT_INTERFACE:
 765:/Users/joostbooy/Desktop/Code/stm32/lib/tinyusb/src/device/usbd.c ****     {
 766:/Users/joostbooy/Desktop/Code/stm32/lib/tinyusb/src/device/usbd.c ****       uint8_t const itf = tu_u16_low(p_request->wIndex);
 767:/Users/joostbooy/Desktop/Code/stm32/lib/tinyusb/src/device/usbd.c ****       TU_VERIFY(itf < TU_ARRAY_SIZE(_usbd_dev.itf2drv));
 768:/Users/joostbooy/Desktop/Code/stm32/lib/tinyusb/src/device/usbd.c **** 
 769:/Users/joostbooy/Desktop/Code/stm32/lib/tinyusb/src/device/usbd.c ****       usbd_class_driver_t const * driver = get_driver(_usbd_dev.itf2drv[itf]);
 770:/Users/joostbooy/Desktop/Code/stm32/lib/tinyusb/src/device/usbd.c ****       TU_VERIFY(driver);
 771:/Users/joostbooy/Desktop/Code/stm32/lib/tinyusb/src/device/usbd.c **** 
 772:/Users/joostbooy/Desktop/Code/stm32/lib/tinyusb/src/device/usbd.c ****       // all requests to Interface (STD or Class) is forwarded to class driver.
 773:/Users/joostbooy/Desktop/Code/stm32/lib/tinyusb/src/device/usbd.c ****       // notable requests are: GET HID REPORT DESCRIPTOR, SET_INTERFACE, GET_INTERFACE
 774:/Users/joostbooy/Desktop/Code/stm32/lib/tinyusb/src/device/usbd.c ****       if ( !invoke_class_control(rhport, driver, p_request) )
 775:/Users/joostbooy/Desktop/Code/stm32/lib/tinyusb/src/device/usbd.c ****       {
 776:/Users/joostbooy/Desktop/Code/stm32/lib/tinyusb/src/device/usbd.c ****         // For GET_INTERFACE and SET_INTERFACE, it is mandatory to respond even if the class
 777:/Users/joostbooy/Desktop/Code/stm32/lib/tinyusb/src/device/usbd.c ****         // driver doesn't use alternate settings or implement this
 778:/Users/joostbooy/Desktop/Code/stm32/lib/tinyusb/src/device/usbd.c ****         TU_VERIFY(TUSB_REQ_TYPE_STANDARD == p_request->bmRequestType_bit.type);
ARM GAS  /var/folders/84/_x1cyy_j36g486tldtwl37280000gn/T//cch4UlI6.s 			page 19


 779:/Users/joostbooy/Desktop/Code/stm32/lib/tinyusb/src/device/usbd.c **** 
 780:/Users/joostbooy/Desktop/Code/stm32/lib/tinyusb/src/device/usbd.c ****         switch(p_request->bRequest)
 781:/Users/joostbooy/Desktop/Code/stm32/lib/tinyusb/src/device/usbd.c ****         {
 782:/Users/joostbooy/Desktop/Code/stm32/lib/tinyusb/src/device/usbd.c ****           case TUSB_REQ_GET_INTERFACE:
 783:/Users/joostbooy/Desktop/Code/stm32/lib/tinyusb/src/device/usbd.c ****           case TUSB_REQ_SET_INTERFACE:
 784:/Users/joostbooy/Desktop/Code/stm32/lib/tinyusb/src/device/usbd.c ****             // Clear complete callback if driver set since it can also stall the request.
 785:/Users/joostbooy/Desktop/Code/stm32/lib/tinyusb/src/device/usbd.c ****             usbd_control_set_complete_callback(NULL);
 786:/Users/joostbooy/Desktop/Code/stm32/lib/tinyusb/src/device/usbd.c **** 
 787:/Users/joostbooy/Desktop/Code/stm32/lib/tinyusb/src/device/usbd.c ****             if (TUSB_REQ_GET_INTERFACE == p_request->bRequest)
 788:/Users/joostbooy/Desktop/Code/stm32/lib/tinyusb/src/device/usbd.c ****             {
 789:/Users/joostbooy/Desktop/Code/stm32/lib/tinyusb/src/device/usbd.c ****               uint8_t alternate = 0;
 790:/Users/joostbooy/Desktop/Code/stm32/lib/tinyusb/src/device/usbd.c ****               tud_control_xfer(rhport, p_request, &alternate, 1);
 791:/Users/joostbooy/Desktop/Code/stm32/lib/tinyusb/src/device/usbd.c ****             }else
 792:/Users/joostbooy/Desktop/Code/stm32/lib/tinyusb/src/device/usbd.c ****             {
 793:/Users/joostbooy/Desktop/Code/stm32/lib/tinyusb/src/device/usbd.c ****               tud_control_status(rhport, p_request);
 794:/Users/joostbooy/Desktop/Code/stm32/lib/tinyusb/src/device/usbd.c ****             }
 795:/Users/joostbooy/Desktop/Code/stm32/lib/tinyusb/src/device/usbd.c ****           break;
 796:/Users/joostbooy/Desktop/Code/stm32/lib/tinyusb/src/device/usbd.c **** 
 797:/Users/joostbooy/Desktop/Code/stm32/lib/tinyusb/src/device/usbd.c ****           default: return false;
 798:/Users/joostbooy/Desktop/Code/stm32/lib/tinyusb/src/device/usbd.c ****         }
 799:/Users/joostbooy/Desktop/Code/stm32/lib/tinyusb/src/device/usbd.c ****       }
 800:/Users/joostbooy/Desktop/Code/stm32/lib/tinyusb/src/device/usbd.c ****     }
 801:/Users/joostbooy/Desktop/Code/stm32/lib/tinyusb/src/device/usbd.c ****     break;
 802:/Users/joostbooy/Desktop/Code/stm32/lib/tinyusb/src/device/usbd.c **** 
 803:/Users/joostbooy/Desktop/Code/stm32/lib/tinyusb/src/device/usbd.c ****     //------------- Endpoint Request -------------//
 804:/Users/joostbooy/Desktop/Code/stm32/lib/tinyusb/src/device/usbd.c ****     case TUSB_REQ_RCPT_ENDPOINT:
 805:/Users/joostbooy/Desktop/Code/stm32/lib/tinyusb/src/device/usbd.c ****     {
 806:/Users/joostbooy/Desktop/Code/stm32/lib/tinyusb/src/device/usbd.c ****       uint8_t const ep_addr = tu_u16_low(p_request->wIndex);
 807:/Users/joostbooy/Desktop/Code/stm32/lib/tinyusb/src/device/usbd.c ****       uint8_t const ep_num  = tu_edpt_number(ep_addr);
 808:/Users/joostbooy/Desktop/Code/stm32/lib/tinyusb/src/device/usbd.c ****       uint8_t const ep_dir  = tu_edpt_dir(ep_addr);
 809:/Users/joostbooy/Desktop/Code/stm32/lib/tinyusb/src/device/usbd.c **** 
 810:/Users/joostbooy/Desktop/Code/stm32/lib/tinyusb/src/device/usbd.c ****       TU_ASSERT(ep_num < TU_ARRAY_SIZE(_usbd_dev.ep2drv) );
 811:/Users/joostbooy/Desktop/Code/stm32/lib/tinyusb/src/device/usbd.c **** 
 812:/Users/joostbooy/Desktop/Code/stm32/lib/tinyusb/src/device/usbd.c ****       usbd_class_driver_t const * driver = get_driver(_usbd_dev.ep2drv[ep_num][ep_dir]);
 813:/Users/joostbooy/Desktop/Code/stm32/lib/tinyusb/src/device/usbd.c **** 
 814:/Users/joostbooy/Desktop/Code/stm32/lib/tinyusb/src/device/usbd.c ****       if ( TUSB_REQ_TYPE_STANDARD != p_request->bmRequestType_bit.type )
 815:/Users/joostbooy/Desktop/Code/stm32/lib/tinyusb/src/device/usbd.c ****       {
 816:/Users/joostbooy/Desktop/Code/stm32/lib/tinyusb/src/device/usbd.c ****         // Forward class request to its driver
 817:/Users/joostbooy/Desktop/Code/stm32/lib/tinyusb/src/device/usbd.c ****         TU_VERIFY(driver);
 818:/Users/joostbooy/Desktop/Code/stm32/lib/tinyusb/src/device/usbd.c ****         return invoke_class_control(rhport, driver, p_request);
 819:/Users/joostbooy/Desktop/Code/stm32/lib/tinyusb/src/device/usbd.c ****       }
 820:/Users/joostbooy/Desktop/Code/stm32/lib/tinyusb/src/device/usbd.c ****       else
 821:/Users/joostbooy/Desktop/Code/stm32/lib/tinyusb/src/device/usbd.c ****       {
 822:/Users/joostbooy/Desktop/Code/stm32/lib/tinyusb/src/device/usbd.c ****         // Handle STD request to endpoint
 823:/Users/joostbooy/Desktop/Code/stm32/lib/tinyusb/src/device/usbd.c ****         switch ( p_request->bRequest )
 824:/Users/joostbooy/Desktop/Code/stm32/lib/tinyusb/src/device/usbd.c ****         {
 825:/Users/joostbooy/Desktop/Code/stm32/lib/tinyusb/src/device/usbd.c ****           case TUSB_REQ_GET_STATUS:
 826:/Users/joostbooy/Desktop/Code/stm32/lib/tinyusb/src/device/usbd.c ****           {
 827:/Users/joostbooy/Desktop/Code/stm32/lib/tinyusb/src/device/usbd.c ****             uint16_t status = usbd_edpt_stalled(rhport, ep_addr) ? 0x0001 : 0x0000;
 828:/Users/joostbooy/Desktop/Code/stm32/lib/tinyusb/src/device/usbd.c ****             tud_control_xfer(rhport, p_request, &status, 2);
 829:/Users/joostbooy/Desktop/Code/stm32/lib/tinyusb/src/device/usbd.c ****           }
 830:/Users/joostbooy/Desktop/Code/stm32/lib/tinyusb/src/device/usbd.c ****           break;
 831:/Users/joostbooy/Desktop/Code/stm32/lib/tinyusb/src/device/usbd.c **** 
 832:/Users/joostbooy/Desktop/Code/stm32/lib/tinyusb/src/device/usbd.c ****           case TUSB_REQ_CLEAR_FEATURE:
 833:/Users/joostbooy/Desktop/Code/stm32/lib/tinyusb/src/device/usbd.c ****           case TUSB_REQ_SET_FEATURE:
 834:/Users/joostbooy/Desktop/Code/stm32/lib/tinyusb/src/device/usbd.c ****           {
 835:/Users/joostbooy/Desktop/Code/stm32/lib/tinyusb/src/device/usbd.c ****             if ( TUSB_REQ_FEATURE_EDPT_HALT == p_request->wValue )
ARM GAS  /var/folders/84/_x1cyy_j36g486tldtwl37280000gn/T//cch4UlI6.s 			page 20


 836:/Users/joostbooy/Desktop/Code/stm32/lib/tinyusb/src/device/usbd.c ****             {
 837:/Users/joostbooy/Desktop/Code/stm32/lib/tinyusb/src/device/usbd.c ****               if ( TUSB_REQ_CLEAR_FEATURE ==  p_request->bRequest )
 838:/Users/joostbooy/Desktop/Code/stm32/lib/tinyusb/src/device/usbd.c ****               {
 839:/Users/joostbooy/Desktop/Code/stm32/lib/tinyusb/src/device/usbd.c ****                 usbd_edpt_clear_stall(rhport, ep_addr);
 840:/Users/joostbooy/Desktop/Code/stm32/lib/tinyusb/src/device/usbd.c ****               }else
 841:/Users/joostbooy/Desktop/Code/stm32/lib/tinyusb/src/device/usbd.c ****               {
 842:/Users/joostbooy/Desktop/Code/stm32/lib/tinyusb/src/device/usbd.c ****                 usbd_edpt_stall(rhport, ep_addr);
 843:/Users/joostbooy/Desktop/Code/stm32/lib/tinyusb/src/device/usbd.c ****               }
 844:/Users/joostbooy/Desktop/Code/stm32/lib/tinyusb/src/device/usbd.c ****             }
 845:/Users/joostbooy/Desktop/Code/stm32/lib/tinyusb/src/device/usbd.c **** 
 846:/Users/joostbooy/Desktop/Code/stm32/lib/tinyusb/src/device/usbd.c ****             if (driver)
 847:/Users/joostbooy/Desktop/Code/stm32/lib/tinyusb/src/device/usbd.c ****             {
 848:/Users/joostbooy/Desktop/Code/stm32/lib/tinyusb/src/device/usbd.c ****               // Some classes such as USBTMC needs to clear/re-init its buffer when receiving CLEAR
 849:/Users/joostbooy/Desktop/Code/stm32/lib/tinyusb/src/device/usbd.c ****               // We will also forward std request targeted endpoint to class drivers as well
 850:/Users/joostbooy/Desktop/Code/stm32/lib/tinyusb/src/device/usbd.c **** 
 851:/Users/joostbooy/Desktop/Code/stm32/lib/tinyusb/src/device/usbd.c ****               // STD request must always be ACKed regardless of driver returned value
 852:/Users/joostbooy/Desktop/Code/stm32/lib/tinyusb/src/device/usbd.c ****               // Also clear complete callback if driver set since it can also stall the request.
 853:/Users/joostbooy/Desktop/Code/stm32/lib/tinyusb/src/device/usbd.c ****               (void) invoke_class_control(rhport, driver, p_request);
 854:/Users/joostbooy/Desktop/Code/stm32/lib/tinyusb/src/device/usbd.c ****               usbd_control_set_complete_callback(NULL);
 855:/Users/joostbooy/Desktop/Code/stm32/lib/tinyusb/src/device/usbd.c **** 
 856:/Users/joostbooy/Desktop/Code/stm32/lib/tinyusb/src/device/usbd.c ****               // skip ZLP status if driver already did that
 857:/Users/joostbooy/Desktop/Code/stm32/lib/tinyusb/src/device/usbd.c ****               if ( !_usbd_dev.ep_status[0][TUSB_DIR_IN].busy ) tud_control_status(rhport, p_request
 858:/Users/joostbooy/Desktop/Code/stm32/lib/tinyusb/src/device/usbd.c ****             }
 859:/Users/joostbooy/Desktop/Code/stm32/lib/tinyusb/src/device/usbd.c ****           }
 860:/Users/joostbooy/Desktop/Code/stm32/lib/tinyusb/src/device/usbd.c ****           break;
 861:/Users/joostbooy/Desktop/Code/stm32/lib/tinyusb/src/device/usbd.c **** 
 862:/Users/joostbooy/Desktop/Code/stm32/lib/tinyusb/src/device/usbd.c ****           // Unknown/Unsupported request
 863:/Users/joostbooy/Desktop/Code/stm32/lib/tinyusb/src/device/usbd.c ****           default: TU_BREAKPOINT(); return false;
 864:/Users/joostbooy/Desktop/Code/stm32/lib/tinyusb/src/device/usbd.c ****         }
 865:/Users/joostbooy/Desktop/Code/stm32/lib/tinyusb/src/device/usbd.c ****       }
 866:/Users/joostbooy/Desktop/Code/stm32/lib/tinyusb/src/device/usbd.c ****     }
 867:/Users/joostbooy/Desktop/Code/stm32/lib/tinyusb/src/device/usbd.c ****     break;
 868:/Users/joostbooy/Desktop/Code/stm32/lib/tinyusb/src/device/usbd.c **** 
 869:/Users/joostbooy/Desktop/Code/stm32/lib/tinyusb/src/device/usbd.c ****     // Unknown recipient
 870:/Users/joostbooy/Desktop/Code/stm32/lib/tinyusb/src/device/usbd.c ****     default: TU_BREAKPOINT(); return false;
 871:/Users/joostbooy/Desktop/Code/stm32/lib/tinyusb/src/device/usbd.c ****   }
 872:/Users/joostbooy/Desktop/Code/stm32/lib/tinyusb/src/device/usbd.c **** 
 873:/Users/joostbooy/Desktop/Code/stm32/lib/tinyusb/src/device/usbd.c ****   return true;
 874:/Users/joostbooy/Desktop/Code/stm32/lib/tinyusb/src/device/usbd.c **** }
 875:/Users/joostbooy/Desktop/Code/stm32/lib/tinyusb/src/device/usbd.c **** 
 876:/Users/joostbooy/Desktop/Code/stm32/lib/tinyusb/src/device/usbd.c **** // Process Set Configure Request
 877:/Users/joostbooy/Desktop/Code/stm32/lib/tinyusb/src/device/usbd.c **** // This function parse configuration descriptor & open drivers accordingly
 878:/Users/joostbooy/Desktop/Code/stm32/lib/tinyusb/src/device/usbd.c **** static bool process_set_config(uint8_t rhport, uint8_t cfg_num)
 879:/Users/joostbooy/Desktop/Code/stm32/lib/tinyusb/src/device/usbd.c **** {
 880:/Users/joostbooy/Desktop/Code/stm32/lib/tinyusb/src/device/usbd.c ****   // index is cfg_num-1
 881:/Users/joostbooy/Desktop/Code/stm32/lib/tinyusb/src/device/usbd.c ****   tusb_desc_configuration_t const * desc_cfg = (tusb_desc_configuration_t const *) tud_descriptor_c
 882:/Users/joostbooy/Desktop/Code/stm32/lib/tinyusb/src/device/usbd.c ****   TU_ASSERT(desc_cfg != NULL && desc_cfg->bDescriptorType == TUSB_DESC_CONFIGURATION);
 883:/Users/joostbooy/Desktop/Code/stm32/lib/tinyusb/src/device/usbd.c **** 
 884:/Users/joostbooy/Desktop/Code/stm32/lib/tinyusb/src/device/usbd.c ****   // Parse configuration descriptor
 885:/Users/joostbooy/Desktop/Code/stm32/lib/tinyusb/src/device/usbd.c ****   _usbd_dev.remote_wakeup_support = (desc_cfg->bmAttributes & TUSB_DESC_CONFIG_ATT_REMOTE_WAKEUP) ?
 886:/Users/joostbooy/Desktop/Code/stm32/lib/tinyusb/src/device/usbd.c ****   _usbd_dev.self_powered          = (desc_cfg->bmAttributes & TUSB_DESC_CONFIG_ATT_SELF_POWERED ) ?
 887:/Users/joostbooy/Desktop/Code/stm32/lib/tinyusb/src/device/usbd.c **** 
 888:/Users/joostbooy/Desktop/Code/stm32/lib/tinyusb/src/device/usbd.c ****   // Parse interface descriptor
 889:/Users/joostbooy/Desktop/Code/stm32/lib/tinyusb/src/device/usbd.c ****   uint8_t const * p_desc   = ((uint8_t const*) desc_cfg) + sizeof(tusb_desc_configuration_t);
 890:/Users/joostbooy/Desktop/Code/stm32/lib/tinyusb/src/device/usbd.c ****   uint8_t const * desc_end = ((uint8_t const*) desc_cfg) + tu_le16toh(desc_cfg->wTotalLength);
 891:/Users/joostbooy/Desktop/Code/stm32/lib/tinyusb/src/device/usbd.c **** 
 892:/Users/joostbooy/Desktop/Code/stm32/lib/tinyusb/src/device/usbd.c ****   while( p_desc < desc_end )
ARM GAS  /var/folders/84/_x1cyy_j36g486tldtwl37280000gn/T//cch4UlI6.s 			page 21


 893:/Users/joostbooy/Desktop/Code/stm32/lib/tinyusb/src/device/usbd.c ****   {
 894:/Users/joostbooy/Desktop/Code/stm32/lib/tinyusb/src/device/usbd.c ****     uint8_t assoc_itf_count = 1;
 895:/Users/joostbooy/Desktop/Code/stm32/lib/tinyusb/src/device/usbd.c **** 
 896:/Users/joostbooy/Desktop/Code/stm32/lib/tinyusb/src/device/usbd.c ****     // Class will always starts with Interface Association (if any) and then Interface descriptor
 897:/Users/joostbooy/Desktop/Code/stm32/lib/tinyusb/src/device/usbd.c ****     if ( TUSB_DESC_INTERFACE_ASSOCIATION == tu_desc_type(p_desc) )
 898:/Users/joostbooy/Desktop/Code/stm32/lib/tinyusb/src/device/usbd.c ****     {
 899:/Users/joostbooy/Desktop/Code/stm32/lib/tinyusb/src/device/usbd.c ****       tusb_desc_interface_assoc_t const * desc_iad = (tusb_desc_interface_assoc_t const *) p_desc;
 900:/Users/joostbooy/Desktop/Code/stm32/lib/tinyusb/src/device/usbd.c ****       assoc_itf_count = desc_iad->bInterfaceCount;
 901:/Users/joostbooy/Desktop/Code/stm32/lib/tinyusb/src/device/usbd.c **** 
 902:/Users/joostbooy/Desktop/Code/stm32/lib/tinyusb/src/device/usbd.c ****       p_desc = tu_desc_next(p_desc); // next to Interface
 903:/Users/joostbooy/Desktop/Code/stm32/lib/tinyusb/src/device/usbd.c **** 
 904:/Users/joostbooy/Desktop/Code/stm32/lib/tinyusb/src/device/usbd.c ****       // IAD's first interface number and class should match with opened interface
 905:/Users/joostbooy/Desktop/Code/stm32/lib/tinyusb/src/device/usbd.c ****       //TU_ASSERT(desc_iad->bFirstInterface == desc_itf->bInterfaceNumber &&
 906:/Users/joostbooy/Desktop/Code/stm32/lib/tinyusb/src/device/usbd.c ****       //          desc_iad->bFunctionClass  == desc_itf->bInterfaceClass);
 907:/Users/joostbooy/Desktop/Code/stm32/lib/tinyusb/src/device/usbd.c ****     }
 908:/Users/joostbooy/Desktop/Code/stm32/lib/tinyusb/src/device/usbd.c **** 
 909:/Users/joostbooy/Desktop/Code/stm32/lib/tinyusb/src/device/usbd.c ****     TU_ASSERT( TUSB_DESC_INTERFACE == tu_desc_type(p_desc) );
 910:/Users/joostbooy/Desktop/Code/stm32/lib/tinyusb/src/device/usbd.c ****     tusb_desc_interface_t const * desc_itf = (tusb_desc_interface_t const*) p_desc;
 911:/Users/joostbooy/Desktop/Code/stm32/lib/tinyusb/src/device/usbd.c **** 
 912:/Users/joostbooy/Desktop/Code/stm32/lib/tinyusb/src/device/usbd.c ****     // Find driver for this interface
 913:/Users/joostbooy/Desktop/Code/stm32/lib/tinyusb/src/device/usbd.c ****     uint16_t const remaining_len = (uint16_t) (desc_end-p_desc);
 914:/Users/joostbooy/Desktop/Code/stm32/lib/tinyusb/src/device/usbd.c ****     uint8_t drv_id;
 915:/Users/joostbooy/Desktop/Code/stm32/lib/tinyusb/src/device/usbd.c ****     for (drv_id = 0; drv_id < TOTAL_DRIVER_COUNT; drv_id++)
 916:/Users/joostbooy/Desktop/Code/stm32/lib/tinyusb/src/device/usbd.c ****     {
 917:/Users/joostbooy/Desktop/Code/stm32/lib/tinyusb/src/device/usbd.c ****       usbd_class_driver_t const *driver = get_driver(drv_id);
 918:/Users/joostbooy/Desktop/Code/stm32/lib/tinyusb/src/device/usbd.c ****       TU_ASSERT(driver);
 919:/Users/joostbooy/Desktop/Code/stm32/lib/tinyusb/src/device/usbd.c ****       uint16_t const drv_len = driver->open(rhport, desc_itf, remaining_len);
 920:/Users/joostbooy/Desktop/Code/stm32/lib/tinyusb/src/device/usbd.c **** 
 921:/Users/joostbooy/Desktop/Code/stm32/lib/tinyusb/src/device/usbd.c ****       if ( (sizeof(tusb_desc_interface_t) <= drv_len)  && (drv_len <= remaining_len) )
 922:/Users/joostbooy/Desktop/Code/stm32/lib/tinyusb/src/device/usbd.c ****       {
 923:/Users/joostbooy/Desktop/Code/stm32/lib/tinyusb/src/device/usbd.c ****         // Open successfully
 924:/Users/joostbooy/Desktop/Code/stm32/lib/tinyusb/src/device/usbd.c ****         TU_LOG_USBD("  %s opened\r\n", driver->name);
 925:/Users/joostbooy/Desktop/Code/stm32/lib/tinyusb/src/device/usbd.c **** 
 926:/Users/joostbooy/Desktop/Code/stm32/lib/tinyusb/src/device/usbd.c ****         // Some drivers use 2 or more interfaces but may not have IAD e.g MIDI (always) or
 927:/Users/joostbooy/Desktop/Code/stm32/lib/tinyusb/src/device/usbd.c ****         // BTH (even CDC) with class in device descriptor (single interface)
 928:/Users/joostbooy/Desktop/Code/stm32/lib/tinyusb/src/device/usbd.c ****         if ( assoc_itf_count == 1)
 929:/Users/joostbooy/Desktop/Code/stm32/lib/tinyusb/src/device/usbd.c ****         {
 930:/Users/joostbooy/Desktop/Code/stm32/lib/tinyusb/src/device/usbd.c ****           #if CFG_TUD_CDC
 931:/Users/joostbooy/Desktop/Code/stm32/lib/tinyusb/src/device/usbd.c ****           if ( driver->open == cdcd_open ) assoc_itf_count = 2;
 932:/Users/joostbooy/Desktop/Code/stm32/lib/tinyusb/src/device/usbd.c ****           #endif
 933:/Users/joostbooy/Desktop/Code/stm32/lib/tinyusb/src/device/usbd.c **** 
 934:/Users/joostbooy/Desktop/Code/stm32/lib/tinyusb/src/device/usbd.c ****           #if CFG_TUD_MIDI
 935:/Users/joostbooy/Desktop/Code/stm32/lib/tinyusb/src/device/usbd.c ****           if ( driver->open == midid_open ) assoc_itf_count = 2;
 936:/Users/joostbooy/Desktop/Code/stm32/lib/tinyusb/src/device/usbd.c ****           #endif
 937:/Users/joostbooy/Desktop/Code/stm32/lib/tinyusb/src/device/usbd.c **** 
 938:/Users/joostbooy/Desktop/Code/stm32/lib/tinyusb/src/device/usbd.c ****           #if CFG_TUD_BTH && CFG_TUD_BTH_ISO_ALT_COUNT
 939:/Users/joostbooy/Desktop/Code/stm32/lib/tinyusb/src/device/usbd.c ****           if ( driver->open == btd_open ) assoc_itf_count = 2;
 940:/Users/joostbooy/Desktop/Code/stm32/lib/tinyusb/src/device/usbd.c ****           #endif
 941:/Users/joostbooy/Desktop/Code/stm32/lib/tinyusb/src/device/usbd.c ****         }
 942:/Users/joostbooy/Desktop/Code/stm32/lib/tinyusb/src/device/usbd.c **** 
 943:/Users/joostbooy/Desktop/Code/stm32/lib/tinyusb/src/device/usbd.c ****         // bind (associated) interfaces to found driver
 944:/Users/joostbooy/Desktop/Code/stm32/lib/tinyusb/src/device/usbd.c ****         for(uint8_t i=0; i<assoc_itf_count; i++)
 945:/Users/joostbooy/Desktop/Code/stm32/lib/tinyusb/src/device/usbd.c ****         {
 946:/Users/joostbooy/Desktop/Code/stm32/lib/tinyusb/src/device/usbd.c ****           uint8_t const itf_num = desc_itf->bInterfaceNumber+i;
 947:/Users/joostbooy/Desktop/Code/stm32/lib/tinyusb/src/device/usbd.c **** 
 948:/Users/joostbooy/Desktop/Code/stm32/lib/tinyusb/src/device/usbd.c ****           // Interface number must not be used already
 949:/Users/joostbooy/Desktop/Code/stm32/lib/tinyusb/src/device/usbd.c ****           TU_ASSERT(DRVID_INVALID == _usbd_dev.itf2drv[itf_num]);
ARM GAS  /var/folders/84/_x1cyy_j36g486tldtwl37280000gn/T//cch4UlI6.s 			page 22


 950:/Users/joostbooy/Desktop/Code/stm32/lib/tinyusb/src/device/usbd.c ****           _usbd_dev.itf2drv[itf_num] = drv_id;
 951:/Users/joostbooy/Desktop/Code/stm32/lib/tinyusb/src/device/usbd.c ****         }
 952:/Users/joostbooy/Desktop/Code/stm32/lib/tinyusb/src/device/usbd.c **** 
 953:/Users/joostbooy/Desktop/Code/stm32/lib/tinyusb/src/device/usbd.c ****         // bind all endpoints to found driver
 954:/Users/joostbooy/Desktop/Code/stm32/lib/tinyusb/src/device/usbd.c ****         tu_edpt_bind_driver(_usbd_dev.ep2drv, desc_itf, drv_len, drv_id);
 955:/Users/joostbooy/Desktop/Code/stm32/lib/tinyusb/src/device/usbd.c **** 
 956:/Users/joostbooy/Desktop/Code/stm32/lib/tinyusb/src/device/usbd.c ****         // next Interface
 957:/Users/joostbooy/Desktop/Code/stm32/lib/tinyusb/src/device/usbd.c ****         p_desc += drv_len;
 958:/Users/joostbooy/Desktop/Code/stm32/lib/tinyusb/src/device/usbd.c **** 
 959:/Users/joostbooy/Desktop/Code/stm32/lib/tinyusb/src/device/usbd.c ****         break; // exit driver find loop
 960:/Users/joostbooy/Desktop/Code/stm32/lib/tinyusb/src/device/usbd.c ****       }
 961:/Users/joostbooy/Desktop/Code/stm32/lib/tinyusb/src/device/usbd.c ****     }
 962:/Users/joostbooy/Desktop/Code/stm32/lib/tinyusb/src/device/usbd.c **** 
 963:/Users/joostbooy/Desktop/Code/stm32/lib/tinyusb/src/device/usbd.c ****     // Failed if there is no supported drivers
 964:/Users/joostbooy/Desktop/Code/stm32/lib/tinyusb/src/device/usbd.c ****     TU_ASSERT(drv_id < TOTAL_DRIVER_COUNT);
 965:/Users/joostbooy/Desktop/Code/stm32/lib/tinyusb/src/device/usbd.c ****   }
 966:/Users/joostbooy/Desktop/Code/stm32/lib/tinyusb/src/device/usbd.c **** 
 967:/Users/joostbooy/Desktop/Code/stm32/lib/tinyusb/src/device/usbd.c ****   return true;
 968:/Users/joostbooy/Desktop/Code/stm32/lib/tinyusb/src/device/usbd.c **** }
 969:/Users/joostbooy/Desktop/Code/stm32/lib/tinyusb/src/device/usbd.c **** 
 970:/Users/joostbooy/Desktop/Code/stm32/lib/tinyusb/src/device/usbd.c **** // return descriptor's buffer and update desc_len
 971:/Users/joostbooy/Desktop/Code/stm32/lib/tinyusb/src/device/usbd.c **** static bool process_get_descriptor(uint8_t rhport, tusb_control_request_t const * p_request)
 972:/Users/joostbooy/Desktop/Code/stm32/lib/tinyusb/src/device/usbd.c **** {
 973:/Users/joostbooy/Desktop/Code/stm32/lib/tinyusb/src/device/usbd.c ****   tusb_desc_type_t const desc_type = (tusb_desc_type_t) tu_u16_high(p_request->wValue);
 974:/Users/joostbooy/Desktop/Code/stm32/lib/tinyusb/src/device/usbd.c ****   uint8_t const desc_index = tu_u16_low( p_request->wValue );
 975:/Users/joostbooy/Desktop/Code/stm32/lib/tinyusb/src/device/usbd.c **** 
 976:/Users/joostbooy/Desktop/Code/stm32/lib/tinyusb/src/device/usbd.c ****   switch(desc_type)
 977:/Users/joostbooy/Desktop/Code/stm32/lib/tinyusb/src/device/usbd.c ****   {
 978:/Users/joostbooy/Desktop/Code/stm32/lib/tinyusb/src/device/usbd.c ****     case TUSB_DESC_DEVICE:
 979:/Users/joostbooy/Desktop/Code/stm32/lib/tinyusb/src/device/usbd.c ****     {
 980:/Users/joostbooy/Desktop/Code/stm32/lib/tinyusb/src/device/usbd.c ****       TU_LOG_USBD(" Device\r\n");
 981:/Users/joostbooy/Desktop/Code/stm32/lib/tinyusb/src/device/usbd.c **** 
 982:/Users/joostbooy/Desktop/Code/stm32/lib/tinyusb/src/device/usbd.c ****       void* desc_device = (void*) (uintptr_t) tud_descriptor_device_cb();
 983:/Users/joostbooy/Desktop/Code/stm32/lib/tinyusb/src/device/usbd.c **** 
 984:/Users/joostbooy/Desktop/Code/stm32/lib/tinyusb/src/device/usbd.c ****       // Only response with exactly 1 Packet if: not addressed and host requested more data than de
 985:/Users/joostbooy/Desktop/Code/stm32/lib/tinyusb/src/device/usbd.c ****       // This only happens with the very first get device descriptor and EP0 size = 8 or 16.
 986:/Users/joostbooy/Desktop/Code/stm32/lib/tinyusb/src/device/usbd.c ****       if ((CFG_TUD_ENDPOINT0_SIZE < sizeof(tusb_desc_device_t)) && !_usbd_dev.addressed &&
 987:/Users/joostbooy/Desktop/Code/stm32/lib/tinyusb/src/device/usbd.c ****           ((tusb_control_request_t const*) p_request)->wLength > sizeof(tusb_desc_device_t))
 988:/Users/joostbooy/Desktop/Code/stm32/lib/tinyusb/src/device/usbd.c ****       {
 989:/Users/joostbooy/Desktop/Code/stm32/lib/tinyusb/src/device/usbd.c ****         // Hack here: we modify the request length to prevent usbd_control response with zlp
 990:/Users/joostbooy/Desktop/Code/stm32/lib/tinyusb/src/device/usbd.c ****         // since we are responding with 1 packet & less data than wLength.
 991:/Users/joostbooy/Desktop/Code/stm32/lib/tinyusb/src/device/usbd.c ****         tusb_control_request_t mod_request = *p_request;
 992:/Users/joostbooy/Desktop/Code/stm32/lib/tinyusb/src/device/usbd.c ****         mod_request.wLength = CFG_TUD_ENDPOINT0_SIZE;
 993:/Users/joostbooy/Desktop/Code/stm32/lib/tinyusb/src/device/usbd.c **** 
 994:/Users/joostbooy/Desktop/Code/stm32/lib/tinyusb/src/device/usbd.c ****         return tud_control_xfer(rhport, &mod_request, desc_device, CFG_TUD_ENDPOINT0_SIZE);
 995:/Users/joostbooy/Desktop/Code/stm32/lib/tinyusb/src/device/usbd.c ****       }else
 996:/Users/joostbooy/Desktop/Code/stm32/lib/tinyusb/src/device/usbd.c ****       {
 997:/Users/joostbooy/Desktop/Code/stm32/lib/tinyusb/src/device/usbd.c ****         return tud_control_xfer(rhport, p_request, desc_device, sizeof(tusb_desc_device_t));
 998:/Users/joostbooy/Desktop/Code/stm32/lib/tinyusb/src/device/usbd.c ****       }
 999:/Users/joostbooy/Desktop/Code/stm32/lib/tinyusb/src/device/usbd.c ****     }
1000:/Users/joostbooy/Desktop/Code/stm32/lib/tinyusb/src/device/usbd.c ****     // break; // unreachable
1001:/Users/joostbooy/Desktop/Code/stm32/lib/tinyusb/src/device/usbd.c **** 
1002:/Users/joostbooy/Desktop/Code/stm32/lib/tinyusb/src/device/usbd.c ****     case TUSB_DESC_BOS:
1003:/Users/joostbooy/Desktop/Code/stm32/lib/tinyusb/src/device/usbd.c ****     {
1004:/Users/joostbooy/Desktop/Code/stm32/lib/tinyusb/src/device/usbd.c ****       TU_LOG_USBD(" BOS\r\n");
1005:/Users/joostbooy/Desktop/Code/stm32/lib/tinyusb/src/device/usbd.c **** 
1006:/Users/joostbooy/Desktop/Code/stm32/lib/tinyusb/src/device/usbd.c ****       // requested by host if USB > 2.0 ( i.e 2.1 or 3.x )
ARM GAS  /var/folders/84/_x1cyy_j36g486tldtwl37280000gn/T//cch4UlI6.s 			page 23


1007:/Users/joostbooy/Desktop/Code/stm32/lib/tinyusb/src/device/usbd.c ****       if (!tud_descriptor_bos_cb) return false;
1008:/Users/joostbooy/Desktop/Code/stm32/lib/tinyusb/src/device/usbd.c **** 
1009:/Users/joostbooy/Desktop/Code/stm32/lib/tinyusb/src/device/usbd.c ****       uintptr_t desc_bos = (uintptr_t) tud_descriptor_bos_cb();
1010:/Users/joostbooy/Desktop/Code/stm32/lib/tinyusb/src/device/usbd.c ****       TU_ASSERT(desc_bos);
1011:/Users/joostbooy/Desktop/Code/stm32/lib/tinyusb/src/device/usbd.c **** 
1012:/Users/joostbooy/Desktop/Code/stm32/lib/tinyusb/src/device/usbd.c ****       // Use offsetof to avoid pointer to the odd/misaligned address
1013:/Users/joostbooy/Desktop/Code/stm32/lib/tinyusb/src/device/usbd.c ****       uint16_t const total_len = tu_le16toh( tu_unaligned_read16((const void*) (desc_bos + offsetof
1014:/Users/joostbooy/Desktop/Code/stm32/lib/tinyusb/src/device/usbd.c **** 
1015:/Users/joostbooy/Desktop/Code/stm32/lib/tinyusb/src/device/usbd.c ****       return tud_control_xfer(rhport, p_request, (void*) desc_bos, total_len);
1016:/Users/joostbooy/Desktop/Code/stm32/lib/tinyusb/src/device/usbd.c ****     }
1017:/Users/joostbooy/Desktop/Code/stm32/lib/tinyusb/src/device/usbd.c ****     // break; // unreachable
1018:/Users/joostbooy/Desktop/Code/stm32/lib/tinyusb/src/device/usbd.c **** 
1019:/Users/joostbooy/Desktop/Code/stm32/lib/tinyusb/src/device/usbd.c ****     case TUSB_DESC_CONFIGURATION:
1020:/Users/joostbooy/Desktop/Code/stm32/lib/tinyusb/src/device/usbd.c ****     case TUSB_DESC_OTHER_SPEED_CONFIG:
1021:/Users/joostbooy/Desktop/Code/stm32/lib/tinyusb/src/device/usbd.c ****     {
1022:/Users/joostbooy/Desktop/Code/stm32/lib/tinyusb/src/device/usbd.c ****       uintptr_t desc_config;
1023:/Users/joostbooy/Desktop/Code/stm32/lib/tinyusb/src/device/usbd.c **** 
1024:/Users/joostbooy/Desktop/Code/stm32/lib/tinyusb/src/device/usbd.c ****       if ( desc_type == TUSB_DESC_CONFIGURATION )
1025:/Users/joostbooy/Desktop/Code/stm32/lib/tinyusb/src/device/usbd.c ****       {
1026:/Users/joostbooy/Desktop/Code/stm32/lib/tinyusb/src/device/usbd.c ****         TU_LOG_USBD(" Configuration[%u]\r\n", desc_index);
1027:/Users/joostbooy/Desktop/Code/stm32/lib/tinyusb/src/device/usbd.c ****         desc_config = (uintptr_t) tud_descriptor_configuration_cb(desc_index);
1028:/Users/joostbooy/Desktop/Code/stm32/lib/tinyusb/src/device/usbd.c ****       }else
1029:/Users/joostbooy/Desktop/Code/stm32/lib/tinyusb/src/device/usbd.c ****       {
1030:/Users/joostbooy/Desktop/Code/stm32/lib/tinyusb/src/device/usbd.c ****         // Host only request this after getting Device Qualifier descriptor
1031:/Users/joostbooy/Desktop/Code/stm32/lib/tinyusb/src/device/usbd.c ****         TU_LOG_USBD(" Other Speed Configuration\r\n");
1032:/Users/joostbooy/Desktop/Code/stm32/lib/tinyusb/src/device/usbd.c ****         TU_VERIFY( tud_descriptor_other_speed_configuration_cb );
1033:/Users/joostbooy/Desktop/Code/stm32/lib/tinyusb/src/device/usbd.c ****         desc_config = (uintptr_t) tud_descriptor_other_speed_configuration_cb(desc_index);
1034:/Users/joostbooy/Desktop/Code/stm32/lib/tinyusb/src/device/usbd.c ****       }
1035:/Users/joostbooy/Desktop/Code/stm32/lib/tinyusb/src/device/usbd.c **** 
1036:/Users/joostbooy/Desktop/Code/stm32/lib/tinyusb/src/device/usbd.c ****       TU_ASSERT(desc_config);
1037:/Users/joostbooy/Desktop/Code/stm32/lib/tinyusb/src/device/usbd.c **** 
1038:/Users/joostbooy/Desktop/Code/stm32/lib/tinyusb/src/device/usbd.c ****       // Use offsetof to avoid pointer to the odd/misaligned address
1039:/Users/joostbooy/Desktop/Code/stm32/lib/tinyusb/src/device/usbd.c ****       uint16_t const total_len = tu_le16toh( tu_unaligned_read16((const void*) (desc_config + offse
1040:/Users/joostbooy/Desktop/Code/stm32/lib/tinyusb/src/device/usbd.c **** 
1041:/Users/joostbooy/Desktop/Code/stm32/lib/tinyusb/src/device/usbd.c ****       return tud_control_xfer(rhport, p_request, (void*) desc_config, total_len);
1042:/Users/joostbooy/Desktop/Code/stm32/lib/tinyusb/src/device/usbd.c ****     }
1043:/Users/joostbooy/Desktop/Code/stm32/lib/tinyusb/src/device/usbd.c ****     // break; // unreachable
1044:/Users/joostbooy/Desktop/Code/stm32/lib/tinyusb/src/device/usbd.c **** 
1045:/Users/joostbooy/Desktop/Code/stm32/lib/tinyusb/src/device/usbd.c ****     case TUSB_DESC_STRING:
1046:/Users/joostbooy/Desktop/Code/stm32/lib/tinyusb/src/device/usbd.c ****     {
1047:/Users/joostbooy/Desktop/Code/stm32/lib/tinyusb/src/device/usbd.c ****       TU_LOG_USBD(" String[%u]\r\n", desc_index);
1048:/Users/joostbooy/Desktop/Code/stm32/lib/tinyusb/src/device/usbd.c **** 
1049:/Users/joostbooy/Desktop/Code/stm32/lib/tinyusb/src/device/usbd.c ****       // String Descriptor always uses the desc set from user
1050:/Users/joostbooy/Desktop/Code/stm32/lib/tinyusb/src/device/usbd.c ****       uint8_t const* desc_str = (uint8_t const*) tud_descriptor_string_cb(desc_index, tu_le16toh(p_
1051:/Users/joostbooy/Desktop/Code/stm32/lib/tinyusb/src/device/usbd.c ****       TU_VERIFY(desc_str);
1052:/Users/joostbooy/Desktop/Code/stm32/lib/tinyusb/src/device/usbd.c **** 
1053:/Users/joostbooy/Desktop/Code/stm32/lib/tinyusb/src/device/usbd.c ****       // first byte of descriptor is its size
1054:/Users/joostbooy/Desktop/Code/stm32/lib/tinyusb/src/device/usbd.c ****       return tud_control_xfer(rhport, p_request, (void*) (uintptr_t) desc_str, tu_desc_len(desc_str
1055:/Users/joostbooy/Desktop/Code/stm32/lib/tinyusb/src/device/usbd.c ****     }
1056:/Users/joostbooy/Desktop/Code/stm32/lib/tinyusb/src/device/usbd.c ****     // break; // unreachable
1057:/Users/joostbooy/Desktop/Code/stm32/lib/tinyusb/src/device/usbd.c **** 
1058:/Users/joostbooy/Desktop/Code/stm32/lib/tinyusb/src/device/usbd.c ****     case TUSB_DESC_DEVICE_QUALIFIER:
1059:/Users/joostbooy/Desktop/Code/stm32/lib/tinyusb/src/device/usbd.c ****     {
1060:/Users/joostbooy/Desktop/Code/stm32/lib/tinyusb/src/device/usbd.c ****       TU_LOG_USBD(" Device Qualifier\r\n");
1061:/Users/joostbooy/Desktop/Code/stm32/lib/tinyusb/src/device/usbd.c **** 
1062:/Users/joostbooy/Desktop/Code/stm32/lib/tinyusb/src/device/usbd.c ****       TU_VERIFY( tud_descriptor_device_qualifier_cb );
1063:/Users/joostbooy/Desktop/Code/stm32/lib/tinyusb/src/device/usbd.c **** 
ARM GAS  /var/folders/84/_x1cyy_j36g486tldtwl37280000gn/T//cch4UlI6.s 			page 24


1064:/Users/joostbooy/Desktop/Code/stm32/lib/tinyusb/src/device/usbd.c ****       uint8_t const* desc_qualifier = tud_descriptor_device_qualifier_cb();
1065:/Users/joostbooy/Desktop/Code/stm32/lib/tinyusb/src/device/usbd.c ****       TU_VERIFY(desc_qualifier);
1066:/Users/joostbooy/Desktop/Code/stm32/lib/tinyusb/src/device/usbd.c **** 
1067:/Users/joostbooy/Desktop/Code/stm32/lib/tinyusb/src/device/usbd.c ****       // first byte of descriptor is its size
1068:/Users/joostbooy/Desktop/Code/stm32/lib/tinyusb/src/device/usbd.c ****       return tud_control_xfer(rhport, p_request, (void*) (uintptr_t) desc_qualifier, tu_desc_len(de
1069:/Users/joostbooy/Desktop/Code/stm32/lib/tinyusb/src/device/usbd.c ****     }
1070:/Users/joostbooy/Desktop/Code/stm32/lib/tinyusb/src/device/usbd.c ****     // break; // unreachable
1071:/Users/joostbooy/Desktop/Code/stm32/lib/tinyusb/src/device/usbd.c **** 
1072:/Users/joostbooy/Desktop/Code/stm32/lib/tinyusb/src/device/usbd.c ****     default: return false;
1073:/Users/joostbooy/Desktop/Code/stm32/lib/tinyusb/src/device/usbd.c ****   }
1074:/Users/joostbooy/Desktop/Code/stm32/lib/tinyusb/src/device/usbd.c **** }
1075:/Users/joostbooy/Desktop/Code/stm32/lib/tinyusb/src/device/usbd.c **** 
1076:/Users/joostbooy/Desktop/Code/stm32/lib/tinyusb/src/device/usbd.c **** //--------------------------------------------------------------------+
1077:/Users/joostbooy/Desktop/Code/stm32/lib/tinyusb/src/device/usbd.c **** // DCD Event Handler
1078:/Users/joostbooy/Desktop/Code/stm32/lib/tinyusb/src/device/usbd.c **** //--------------------------------------------------------------------+
1079:/Users/joostbooy/Desktop/Code/stm32/lib/tinyusb/src/device/usbd.c **** TU_ATTR_FAST_FUNC void dcd_event_handler(dcd_event_t const* event, bool in_isr) {
1080:/Users/joostbooy/Desktop/Code/stm32/lib/tinyusb/src/device/usbd.c ****   bool send = false;
1081:/Users/joostbooy/Desktop/Code/stm32/lib/tinyusb/src/device/usbd.c ****   switch (event->event_id) {
1082:/Users/joostbooy/Desktop/Code/stm32/lib/tinyusb/src/device/usbd.c ****     case DCD_EVENT_UNPLUGGED:
1083:/Users/joostbooy/Desktop/Code/stm32/lib/tinyusb/src/device/usbd.c ****       _usbd_dev.connected = 0;
1084:/Users/joostbooy/Desktop/Code/stm32/lib/tinyusb/src/device/usbd.c ****       _usbd_dev.addressed = 0;
1085:/Users/joostbooy/Desktop/Code/stm32/lib/tinyusb/src/device/usbd.c ****       _usbd_dev.cfg_num = 0;
1086:/Users/joostbooy/Desktop/Code/stm32/lib/tinyusb/src/device/usbd.c ****       _usbd_dev.suspended = 0;
1087:/Users/joostbooy/Desktop/Code/stm32/lib/tinyusb/src/device/usbd.c ****       send = true;
1088:/Users/joostbooy/Desktop/Code/stm32/lib/tinyusb/src/device/usbd.c ****       break;
1089:/Users/joostbooy/Desktop/Code/stm32/lib/tinyusb/src/device/usbd.c **** 
1090:/Users/joostbooy/Desktop/Code/stm32/lib/tinyusb/src/device/usbd.c ****     case DCD_EVENT_SUSPEND:
1091:/Users/joostbooy/Desktop/Code/stm32/lib/tinyusb/src/device/usbd.c ****       // NOTE: When plugging/unplugging device, the D+/D- state are unstable and
1092:/Users/joostbooy/Desktop/Code/stm32/lib/tinyusb/src/device/usbd.c ****       // can accidentally meet the SUSPEND condition ( Bus Idle for 3ms ).
1093:/Users/joostbooy/Desktop/Code/stm32/lib/tinyusb/src/device/usbd.c ****       // In addition, some MCUs such as SAMD or boards that haven no VBUS detection cannot distingu
1094:/Users/joostbooy/Desktop/Code/stm32/lib/tinyusb/src/device/usbd.c ****       // suspended vs disconnected. We will skip handling SUSPEND/RESUME event if not currently con
1095:/Users/joostbooy/Desktop/Code/stm32/lib/tinyusb/src/device/usbd.c ****       if (_usbd_dev.connected) {
1096:/Users/joostbooy/Desktop/Code/stm32/lib/tinyusb/src/device/usbd.c ****         _usbd_dev.suspended = 1;
1097:/Users/joostbooy/Desktop/Code/stm32/lib/tinyusb/src/device/usbd.c ****         send = true;
1098:/Users/joostbooy/Desktop/Code/stm32/lib/tinyusb/src/device/usbd.c ****       }
1099:/Users/joostbooy/Desktop/Code/stm32/lib/tinyusb/src/device/usbd.c ****       break;
1100:/Users/joostbooy/Desktop/Code/stm32/lib/tinyusb/src/device/usbd.c **** 
1101:/Users/joostbooy/Desktop/Code/stm32/lib/tinyusb/src/device/usbd.c ****     case DCD_EVENT_RESUME:
1102:/Users/joostbooy/Desktop/Code/stm32/lib/tinyusb/src/device/usbd.c ****       // skip event if not connected (especially required for SAMD)
1103:/Users/joostbooy/Desktop/Code/stm32/lib/tinyusb/src/device/usbd.c ****       if (_usbd_dev.connected) {
1104:/Users/joostbooy/Desktop/Code/stm32/lib/tinyusb/src/device/usbd.c ****         _usbd_dev.suspended = 0;
1105:/Users/joostbooy/Desktop/Code/stm32/lib/tinyusb/src/device/usbd.c ****         send = true;
1106:/Users/joostbooy/Desktop/Code/stm32/lib/tinyusb/src/device/usbd.c ****       }
1107:/Users/joostbooy/Desktop/Code/stm32/lib/tinyusb/src/device/usbd.c ****       break;
1108:/Users/joostbooy/Desktop/Code/stm32/lib/tinyusb/src/device/usbd.c **** 
1109:/Users/joostbooy/Desktop/Code/stm32/lib/tinyusb/src/device/usbd.c ****     case DCD_EVENT_SOF:
1110:/Users/joostbooy/Desktop/Code/stm32/lib/tinyusb/src/device/usbd.c ****       // Some MCUs after running dcd_remote_wakeup() does not have way to detect the end of remote 
1111:/Users/joostbooy/Desktop/Code/stm32/lib/tinyusb/src/device/usbd.c ****       // which last 1-15 ms. DCD can use SOF as a clear indicator that bus is back to operational
1112:/Users/joostbooy/Desktop/Code/stm32/lib/tinyusb/src/device/usbd.c ****       if (_usbd_dev.suspended) {
1113:/Users/joostbooy/Desktop/Code/stm32/lib/tinyusb/src/device/usbd.c ****         _usbd_dev.suspended = 0;
1114:/Users/joostbooy/Desktop/Code/stm32/lib/tinyusb/src/device/usbd.c **** 
1115:/Users/joostbooy/Desktop/Code/stm32/lib/tinyusb/src/device/usbd.c ****         dcd_event_t const event_resume = {.rhport = event->rhport, .event_id = DCD_EVENT_RESUME};
1116:/Users/joostbooy/Desktop/Code/stm32/lib/tinyusb/src/device/usbd.c ****         queue_event(&event_resume, in_isr);
1117:/Users/joostbooy/Desktop/Code/stm32/lib/tinyusb/src/device/usbd.c ****       }
1118:/Users/joostbooy/Desktop/Code/stm32/lib/tinyusb/src/device/usbd.c **** 
1119:/Users/joostbooy/Desktop/Code/stm32/lib/tinyusb/src/device/usbd.c ****       // SOF driver handler in ISR context
1120:/Users/joostbooy/Desktop/Code/stm32/lib/tinyusb/src/device/usbd.c ****       for (uint8_t i = 0; i < TOTAL_DRIVER_COUNT; i++) {
ARM GAS  /var/folders/84/_x1cyy_j36g486tldtwl37280000gn/T//cch4UlI6.s 			page 25


1121:/Users/joostbooy/Desktop/Code/stm32/lib/tinyusb/src/device/usbd.c ****         usbd_class_driver_t const* driver = get_driver(i);
1122:/Users/joostbooy/Desktop/Code/stm32/lib/tinyusb/src/device/usbd.c ****         if (driver && driver->sof) {
1123:/Users/joostbooy/Desktop/Code/stm32/lib/tinyusb/src/device/usbd.c ****           driver->sof(event->rhport, event->sof.frame_count);
1124:/Users/joostbooy/Desktop/Code/stm32/lib/tinyusb/src/device/usbd.c ****         }
1125:/Users/joostbooy/Desktop/Code/stm32/lib/tinyusb/src/device/usbd.c ****       }
1126:/Users/joostbooy/Desktop/Code/stm32/lib/tinyusb/src/device/usbd.c **** 
1127:/Users/joostbooy/Desktop/Code/stm32/lib/tinyusb/src/device/usbd.c ****       // skip osal queue for SOF in usbd task
1128:/Users/joostbooy/Desktop/Code/stm32/lib/tinyusb/src/device/usbd.c ****       break;
1129:/Users/joostbooy/Desktop/Code/stm32/lib/tinyusb/src/device/usbd.c **** 
1130:/Users/joostbooy/Desktop/Code/stm32/lib/tinyusb/src/device/usbd.c ****     default:
1131:/Users/joostbooy/Desktop/Code/stm32/lib/tinyusb/src/device/usbd.c ****       send = true;
1132:/Users/joostbooy/Desktop/Code/stm32/lib/tinyusb/src/device/usbd.c ****       break;
1133:/Users/joostbooy/Desktop/Code/stm32/lib/tinyusb/src/device/usbd.c ****   }
1134:/Users/joostbooy/Desktop/Code/stm32/lib/tinyusb/src/device/usbd.c **** 
1135:/Users/joostbooy/Desktop/Code/stm32/lib/tinyusb/src/device/usbd.c ****   if (send) {
1136:/Users/joostbooy/Desktop/Code/stm32/lib/tinyusb/src/device/usbd.c ****     queue_event(event, in_isr);
1137:/Users/joostbooy/Desktop/Code/stm32/lib/tinyusb/src/device/usbd.c ****   }
1138:/Users/joostbooy/Desktop/Code/stm32/lib/tinyusb/src/device/usbd.c **** }
1139:/Users/joostbooy/Desktop/Code/stm32/lib/tinyusb/src/device/usbd.c **** 
1140:/Users/joostbooy/Desktop/Code/stm32/lib/tinyusb/src/device/usbd.c **** //--------------------------------------------------------------------+
1141:/Users/joostbooy/Desktop/Code/stm32/lib/tinyusb/src/device/usbd.c **** // USBD API For Class Driver
1142:/Users/joostbooy/Desktop/Code/stm32/lib/tinyusb/src/device/usbd.c **** //--------------------------------------------------------------------+
1143:/Users/joostbooy/Desktop/Code/stm32/lib/tinyusb/src/device/usbd.c **** 
1144:/Users/joostbooy/Desktop/Code/stm32/lib/tinyusb/src/device/usbd.c **** void usbd_int_set(bool enabled)
1145:/Users/joostbooy/Desktop/Code/stm32/lib/tinyusb/src/device/usbd.c **** {
 215              		.loc 1 1145 1 is_stmt 1 view -0
 216              		.cfi_startproc
 217              		@ args = 0, pretend = 0, frame = 0
 218              		@ frame_needed = 0, uses_anonymous_args = 0
 219              		@ link register save eliminated.
1146:/Users/joostbooy/Desktop/Code/stm32/lib/tinyusb/src/device/usbd.c ****   if (enabled)
 220              		.loc 1 1146 3 view .LVU54
 221              	.LBB333:
 222              	.LBB334:
1147:/Users/joostbooy/Desktop/Code/stm32/lib/tinyusb/src/device/usbd.c ****   {
1148:/Users/joostbooy/Desktop/Code/stm32/lib/tinyusb/src/device/usbd.c ****     dcd_int_enable(_usbd_rhport);
 223              		.loc 1 1148 5 is_stmt 0 view .LVU55
 224 0000 034B     		ldr	r3, .L20
 225              	.LBE334:
 226              	.LBE333:
1146:/Users/joostbooy/Desktop/Code/stm32/lib/tinyusb/src/device/usbd.c ****   if (enabled)
 227              		.loc 1 1146 6 view .LVU56
 228 0002 10B1     		cbz	r0, .L19
 229              	.LBB336:
 230              	.LBI333:
1144:/Users/joostbooy/Desktop/Code/stm32/lib/tinyusb/src/device/usbd.c **** {
 231              		.loc 1 1144 6 is_stmt 1 view .LVU57
 232              	.LVL15:
 233              	.LBB335:
 234              		.loc 1 1148 5 view .LVU58
 235 0004 1878     		ldrb	r0, [r3]	@ zero_extendqisi2
 236              	.LVL16:
 237              		.loc 1 1148 5 is_stmt 0 view .LVU59
 238 0006 FFF7FEBF 		b	dcd_int_enable
 239              	.LVL17:
 240              	.L19:
 241              		.loc 1 1148 5 view .LVU60
ARM GAS  /var/folders/84/_x1cyy_j36g486tldtwl37280000gn/T//cch4UlI6.s 			page 26


 242              	.LBE335:
 243              	.LBE336:
1149:/Users/joostbooy/Desktop/Code/stm32/lib/tinyusb/src/device/usbd.c ****   }else
1150:/Users/joostbooy/Desktop/Code/stm32/lib/tinyusb/src/device/usbd.c ****   {
1151:/Users/joostbooy/Desktop/Code/stm32/lib/tinyusb/src/device/usbd.c ****     dcd_int_disable(_usbd_rhport);
 244              		.loc 1 1151 5 is_stmt 1 view .LVU61
 245 000a 1878     		ldrb	r0, [r3]	@ zero_extendqisi2
 246              	.LVL18:
 247              		.loc 1 1151 5 is_stmt 0 view .LVU62
 248 000c FFF7FEBF 		b	dcd_int_disable
 249              	.LVL19:
 250              	.L21:
 251              		.align	2
 252              	.L20:
 253 0010 00000000 		.word	.LANCHOR4
 254              		.cfi_endproc
 255              	.LFE104:
 257              		.section	.text.tud_speed_get,"ax",%progbits
 258              		.align	1
 259              		.p2align 2,,3
 260              		.global	tud_speed_get
 261              		.syntax unified
 262              		.thumb
 263              		.thumb_func
 264              		.fpu fpv4-sp-d16
 266              	tud_speed_get:
 267              	.LFB86:
 333:/Users/joostbooy/Desktop/Code/stm32/lib/tinyusb/src/device/usbd.c ****   return (tusb_speed_t) _usbd_dev.speed;
 268              		.loc 1 333 1 is_stmt 1 view -0
 269              		.cfi_startproc
 270              		@ args = 0, pretend = 0, frame = 0
 271              		@ frame_needed = 0, uses_anonymous_args = 0
 272              		@ link register save eliminated.
 334:/Users/joostbooy/Desktop/Code/stm32/lib/tinyusb/src/device/usbd.c **** }
 273              		.loc 1 334 3 view .LVU64
 334:/Users/joostbooy/Desktop/Code/stm32/lib/tinyusb/src/device/usbd.c **** }
 274              		.loc 1 334 10 is_stmt 0 view .LVU65
 275 0000 014B     		ldr	r3, .L23
 335:/Users/joostbooy/Desktop/Code/stm32/lib/tinyusb/src/device/usbd.c **** 
 276              		.loc 1 335 1 view .LVU66
 277 0002 9878     		ldrb	r0, [r3, #2]	@ zero_extendqisi2
 278 0004 7047     		bx	lr
 279              	.L24:
 280 0006 00BF     		.align	2
 281              	.L23:
 282 0008 00000000 		.word	.LANCHOR3
 283              		.cfi_endproc
 284              	.LFE86:
 286              		.section	.text.tud_connected,"ax",%progbits
 287              		.align	1
 288              		.p2align 2,,3
 289              		.global	tud_connected
 290              		.syntax unified
 291              		.thumb
 292              		.thumb_func
 293              		.fpu fpv4-sp-d16
 295              	tud_connected:
ARM GAS  /var/folders/84/_x1cyy_j36g486tldtwl37280000gn/T//cch4UlI6.s 			page 27


 296              	.LFB87:
 338:/Users/joostbooy/Desktop/Code/stm32/lib/tinyusb/src/device/usbd.c ****   return _usbd_dev.connected;
 297              		.loc 1 338 1 is_stmt 1 view -0
 298              		.cfi_startproc
 299              		@ args = 0, pretend = 0, frame = 0
 300              		@ frame_needed = 0, uses_anonymous_args = 0
 301              		@ link register save eliminated.
 339:/Users/joostbooy/Desktop/Code/stm32/lib/tinyusb/src/device/usbd.c **** }
 302              		.loc 1 339 3 view .LVU68
 339:/Users/joostbooy/Desktop/Code/stm32/lib/tinyusb/src/device/usbd.c **** }
 303              		.loc 1 339 19 is_stmt 0 view .LVU69
 304 0000 024B     		ldr	r3, .L26
 305 0002 1878     		ldrb	r0, [r3]	@ zero_extendqisi2
 340:/Users/joostbooy/Desktop/Code/stm32/lib/tinyusb/src/device/usbd.c **** 
 306              		.loc 1 340 1 view .LVU70
 307 0004 00F00100 		and	r0, r0, #1
 308 0008 7047     		bx	lr
 309              	.L27:
 310 000a 00BF     		.align	2
 311              	.L26:
 312 000c 00000000 		.word	.LANCHOR3
 313              		.cfi_endproc
 314              	.LFE87:
 316              		.section	.text.tud_mounted,"ax",%progbits
 317              		.align	1
 318              		.p2align 2,,3
 319              		.global	tud_mounted
 320              		.syntax unified
 321              		.thumb
 322              		.thumb_func
 323              		.fpu fpv4-sp-d16
 325              	tud_mounted:
 326              	.LFB88:
 343:/Users/joostbooy/Desktop/Code/stm32/lib/tinyusb/src/device/usbd.c ****   return _usbd_dev.cfg_num ? true : false;
 327              		.loc 1 343 1 is_stmt 1 view -0
 328              		.cfi_startproc
 329              		@ args = 0, pretend = 0, frame = 0
 330              		@ frame_needed = 0, uses_anonymous_args = 0
 331              		@ link register save eliminated.
 344:/Users/joostbooy/Desktop/Code/stm32/lib/tinyusb/src/device/usbd.c **** }
 332              		.loc 1 344 3 view .LVU72
 344:/Users/joostbooy/Desktop/Code/stm32/lib/tinyusb/src/device/usbd.c **** }
 333              		.loc 1 344 19 is_stmt 0 view .LVU73
 334 0000 024B     		ldr	r3, .L29
 335 0002 5878     		ldrb	r0, [r3, #1]	@ zero_extendqisi2
 345:/Users/joostbooy/Desktop/Code/stm32/lib/tinyusb/src/device/usbd.c **** 
 336              		.loc 1 345 1 view .LVU74
 337 0004 0038     		subs	r0, r0, #0
 338 0006 18BF     		it	ne
 339 0008 0120     		movne	r0, #1
 340 000a 7047     		bx	lr
 341              	.L30:
 342              		.align	2
 343              	.L29:
 344 000c 00000000 		.word	.LANCHOR3
 345              		.cfi_endproc
 346              	.LFE88:
ARM GAS  /var/folders/84/_x1cyy_j36g486tldtwl37280000gn/T//cch4UlI6.s 			page 28


 348              		.section	.text.tud_suspended,"ax",%progbits
 349              		.align	1
 350              		.p2align 2,,3
 351              		.global	tud_suspended
 352              		.syntax unified
 353              		.thumb
 354              		.thumb_func
 355              		.fpu fpv4-sp-d16
 357              	tud_suspended:
 358              	.LFB89:
 348:/Users/joostbooy/Desktop/Code/stm32/lib/tinyusb/src/device/usbd.c ****   return _usbd_dev.suspended;
 359              		.loc 1 348 1 is_stmt 1 view -0
 360              		.cfi_startproc
 361              		@ args = 0, pretend = 0, frame = 0
 362              		@ frame_needed = 0, uses_anonymous_args = 0
 363              		@ link register save eliminated.
 349:/Users/joostbooy/Desktop/Code/stm32/lib/tinyusb/src/device/usbd.c **** }
 364              		.loc 1 349 3 view .LVU76
 349:/Users/joostbooy/Desktop/Code/stm32/lib/tinyusb/src/device/usbd.c **** }
 365              		.loc 1 349 19 is_stmt 0 view .LVU77
 366 0000 024B     		ldr	r3, .L32
 367 0002 1878     		ldrb	r0, [r3]	@ zero_extendqisi2
 350:/Users/joostbooy/Desktop/Code/stm32/lib/tinyusb/src/device/usbd.c **** 
 368              		.loc 1 350 1 view .LVU78
 369 0004 C0F38000 		ubfx	r0, r0, #2, #1
 370 0008 7047     		bx	lr
 371              	.L33:
 372 000a 00BF     		.align	2
 373              	.L32:
 374 000c 00000000 		.word	.LANCHOR3
 375              		.cfi_endproc
 376              	.LFE89:
 378              		.section	.text.tud_remote_wakeup,"ax",%progbits
 379              		.align	1
 380              		.p2align 2,,3
 381              		.global	tud_remote_wakeup
 382              		.syntax unified
 383              		.thumb
 384              		.thumb_func
 385              		.fpu fpv4-sp-d16
 387              	tud_remote_wakeup:
 388              	.LFB90:
 353:/Users/joostbooy/Desktop/Code/stm32/lib/tinyusb/src/device/usbd.c ****   // only wake up host if this feature is supported and enabled and we are suspended
 389              		.loc 1 353 1 is_stmt 1 view -0
 390              		.cfi_startproc
 391              		@ args = 0, pretend = 0, frame = 0
 392              		@ frame_needed = 0, uses_anonymous_args = 0
 355:/Users/joostbooy/Desktop/Code/stm32/lib/tinyusb/src/device/usbd.c ****   dcd_remote_wakeup(_usbd_rhport);
 393              		.loc 1 355 3 view .LVU80
 355:/Users/joostbooy/Desktop/Code/stm32/lib/tinyusb/src/device/usbd.c ****   dcd_remote_wakeup(_usbd_rhport);
 394              		.loc 1 355 3 view .LVU81
 395 0000 0A4A     		ldr	r2, .L42
 396 0002 1378     		ldrb	r3, [r2]	@ zero_extendqisi2
 353:/Users/joostbooy/Desktop/Code/stm32/lib/tinyusb/src/device/usbd.c ****   // only wake up host if this feature is supported and enabled and we are suspended
 397              		.loc 1 353 1 is_stmt 0 view .LVU82
 398 0004 10B5     		push	{r4, lr}
 399              		.cfi_def_cfa_offset 8
ARM GAS  /var/folders/84/_x1cyy_j36g486tldtwl37280000gn/T//cch4UlI6.s 			page 29


 400              		.cfi_offset 4, -8
 401              		.cfi_offset 14, -4
 355:/Users/joostbooy/Desktop/Code/stm32/lib/tinyusb/src/device/usbd.c ****   dcd_remote_wakeup(_usbd_rhport);
 402              		.loc 1 355 3 view .LVU83
 403 0006 C3F38004 		ubfx	r4, r3, #2, #1
 404 000a 5B07     		lsls	r3, r3, #29
 405 000c 05D5     		bpl	.L35
 355:/Users/joostbooy/Desktop/Code/stm32/lib/tinyusb/src/device/usbd.c ****   dcd_remote_wakeup(_usbd_rhport);
 406              		.loc 1 355 3 discriminator 2 view .LVU84
 407 000e 1078     		ldrb	r0, [r2]	@ zero_extendqisi2
 408 0010 00F01801 		and	r1, r0, #24
 409 0014 1829     		cmp	r1, #24
 410 0016 02D0     		beq	.L41
 355:/Users/joostbooy/Desktop/Code/stm32/lib/tinyusb/src/device/usbd.c ****   dcd_remote_wakeup(_usbd_rhport);
 411              		.loc 1 355 3 view .LVU85
 412 0018 0024     		movs	r4, #0
 413              	.L35:
 358:/Users/joostbooy/Desktop/Code/stm32/lib/tinyusb/src/device/usbd.c **** 
 414              		.loc 1 358 1 view .LVU86
 415 001a 2046     		mov	r0, r4
 416 001c 10BD     		pop	{r4, pc}
 417              	.L41:
 355:/Users/joostbooy/Desktop/Code/stm32/lib/tinyusb/src/device/usbd.c ****   dcd_remote_wakeup(_usbd_rhport);
 418              		.loc 1 355 3 is_stmt 1 discriminator 4 view .LVU87
 356:/Users/joostbooy/Desktop/Code/stm32/lib/tinyusb/src/device/usbd.c ****   return true;
 419              		.loc 1 356 3 discriminator 4 view .LVU88
 420 001e 044A     		ldr	r2, .L42+4
 421 0020 1078     		ldrb	r0, [r2]	@ zero_extendqisi2
 422 0022 FFF7FEFF 		bl	dcd_remote_wakeup
 423              	.LVL20:
 357:/Users/joostbooy/Desktop/Code/stm32/lib/tinyusb/src/device/usbd.c **** }
 424              		.loc 1 357 3 discriminator 4 view .LVU89
 358:/Users/joostbooy/Desktop/Code/stm32/lib/tinyusb/src/device/usbd.c **** 
 425              		.loc 1 358 1 is_stmt 0 discriminator 4 view .LVU90
 426 0026 2046     		mov	r0, r4
 427 0028 10BD     		pop	{r4, pc}
 428              	.L43:
 429 002a 00BF     		.align	2
 430              	.L42:
 431 002c 00000000 		.word	.LANCHOR3
 432 0030 00000000 		.word	.LANCHOR4
 433              		.cfi_endproc
 434              	.LFE90:
 436              		.section	.text.tud_disconnect,"ax",%progbits
 437              		.align	1
 438              		.p2align 2,,3
 439              		.global	tud_disconnect
 440              		.syntax unified
 441              		.thumb
 442              		.thumb_func
 443              		.fpu fpv4-sp-d16
 445              	tud_disconnect:
 446              	.LFB91:
 361:/Users/joostbooy/Desktop/Code/stm32/lib/tinyusb/src/device/usbd.c ****   TU_VERIFY(dcd_disconnect);
 447              		.loc 1 361 1 is_stmt 1 view -0
 448              		.cfi_startproc
 449              		@ args = 0, pretend = 0, frame = 0
ARM GAS  /var/folders/84/_x1cyy_j36g486tldtwl37280000gn/T//cch4UlI6.s 			page 30


 450              		@ frame_needed = 0, uses_anonymous_args = 0
 362:/Users/joostbooy/Desktop/Code/stm32/lib/tinyusb/src/device/usbd.c ****   dcd_disconnect(_usbd_rhport);
 451              		.loc 1 362 3 view .LVU92
 362:/Users/joostbooy/Desktop/Code/stm32/lib/tinyusb/src/device/usbd.c ****   dcd_disconnect(_usbd_rhport);
 452              		.loc 1 362 3 view .LVU93
 453 0000 0448     		ldr	r0, .L51
 454 0002 30B1     		cbz	r0, .L48
 362:/Users/joostbooy/Desktop/Code/stm32/lib/tinyusb/src/device/usbd.c ****   dcd_disconnect(_usbd_rhport);
 455              		.loc 1 362 3 discriminator 2 view .LVU94
 363:/Users/joostbooy/Desktop/Code/stm32/lib/tinyusb/src/device/usbd.c ****   return true;
 456              		.loc 1 363 3 discriminator 2 view .LVU95
 361:/Users/joostbooy/Desktop/Code/stm32/lib/tinyusb/src/device/usbd.c ****   TU_VERIFY(dcd_disconnect);
 457              		.loc 1 361 1 is_stmt 0 discriminator 2 view .LVU96
 458 0004 08B5     		push	{r3, lr}
 459              		.cfi_def_cfa_offset 8
 460              		.cfi_offset 3, -8
 461              		.cfi_offset 14, -4
 363:/Users/joostbooy/Desktop/Code/stm32/lib/tinyusb/src/device/usbd.c ****   return true;
 462              		.loc 1 363 3 discriminator 2 view .LVU97
 463 0006 044B     		ldr	r3, .L51+4
 464 0008 1878     		ldrb	r0, [r3]	@ zero_extendqisi2
 465 000a FFF7FEFF 		bl	dcd_disconnect
 466              	.LVL21:
 364:/Users/joostbooy/Desktop/Code/stm32/lib/tinyusb/src/device/usbd.c **** }
 467              		.loc 1 364 3 is_stmt 1 discriminator 2 view .LVU98
 364:/Users/joostbooy/Desktop/Code/stm32/lib/tinyusb/src/device/usbd.c **** }
 468              		.loc 1 364 10 is_stmt 0 discriminator 2 view .LVU99
 469 000e 0120     		movs	r0, #1
 365:/Users/joostbooy/Desktop/Code/stm32/lib/tinyusb/src/device/usbd.c **** 
 470              		.loc 1 365 1 discriminator 2 view .LVU100
 471 0010 08BD     		pop	{r3, pc}
 472              	.L48:
 473              		.cfi_def_cfa_offset 0
 474              		.cfi_restore 3
 475              		.cfi_restore 14
 365:/Users/joostbooy/Desktop/Code/stm32/lib/tinyusb/src/device/usbd.c **** 
 476              		.loc 1 365 1 view .LVU101
 477 0012 7047     		bx	lr
 478              	.L52:
 479              		.align	2
 480              	.L51:
 481 0014 00000000 		.word	dcd_disconnect
 482 0018 00000000 		.word	.LANCHOR4
 483              		.cfi_endproc
 484              	.LFE91:
 486              		.section	.text.tud_connect,"ax",%progbits
 487              		.align	1
 488              		.p2align 2,,3
 489              		.global	tud_connect
 490              		.syntax unified
 491              		.thumb
 492              		.thumb_func
 493              		.fpu fpv4-sp-d16
 495              	tud_connect:
 496              	.LFB92:
 368:/Users/joostbooy/Desktop/Code/stm32/lib/tinyusb/src/device/usbd.c ****   TU_VERIFY(dcd_connect);
 497              		.loc 1 368 1 is_stmt 1 view -0
ARM GAS  /var/folders/84/_x1cyy_j36g486tldtwl37280000gn/T//cch4UlI6.s 			page 31


 498              		.cfi_startproc
 499              		@ args = 0, pretend = 0, frame = 0
 500              		@ frame_needed = 0, uses_anonymous_args = 0
 369:/Users/joostbooy/Desktop/Code/stm32/lib/tinyusb/src/device/usbd.c ****   dcd_connect(_usbd_rhport);
 501              		.loc 1 369 3 view .LVU103
 369:/Users/joostbooy/Desktop/Code/stm32/lib/tinyusb/src/device/usbd.c ****   dcd_connect(_usbd_rhport);
 502              		.loc 1 369 3 view .LVU104
 503 0000 0448     		ldr	r0, .L60
 504 0002 30B1     		cbz	r0, .L57
 369:/Users/joostbooy/Desktop/Code/stm32/lib/tinyusb/src/device/usbd.c ****   dcd_connect(_usbd_rhport);
 505              		.loc 1 369 3 discriminator 2 view .LVU105
 370:/Users/joostbooy/Desktop/Code/stm32/lib/tinyusb/src/device/usbd.c ****   return true;
 506              		.loc 1 370 3 discriminator 2 view .LVU106
 368:/Users/joostbooy/Desktop/Code/stm32/lib/tinyusb/src/device/usbd.c ****   TU_VERIFY(dcd_connect);
 507              		.loc 1 368 1 is_stmt 0 discriminator 2 view .LVU107
 508 0004 08B5     		push	{r3, lr}
 509              		.cfi_def_cfa_offset 8
 510              		.cfi_offset 3, -8
 511              		.cfi_offset 14, -4
 370:/Users/joostbooy/Desktop/Code/stm32/lib/tinyusb/src/device/usbd.c ****   return true;
 512              		.loc 1 370 3 discriminator 2 view .LVU108
 513 0006 044B     		ldr	r3, .L60+4
 514 0008 1878     		ldrb	r0, [r3]	@ zero_extendqisi2
 515 000a FFF7FEFF 		bl	dcd_connect
 516              	.LVL22:
 371:/Users/joostbooy/Desktop/Code/stm32/lib/tinyusb/src/device/usbd.c **** }
 517              		.loc 1 371 3 is_stmt 1 discriminator 2 view .LVU109
 371:/Users/joostbooy/Desktop/Code/stm32/lib/tinyusb/src/device/usbd.c **** }
 518              		.loc 1 371 10 is_stmt 0 discriminator 2 view .LVU110
 519 000e 0120     		movs	r0, #1
 372:/Users/joostbooy/Desktop/Code/stm32/lib/tinyusb/src/device/usbd.c **** 
 520              		.loc 1 372 1 discriminator 2 view .LVU111
 521 0010 08BD     		pop	{r3, pc}
 522              	.L57:
 523              		.cfi_def_cfa_offset 0
 524              		.cfi_restore 3
 525              		.cfi_restore 14
 372:/Users/joostbooy/Desktop/Code/stm32/lib/tinyusb/src/device/usbd.c **** 
 526              		.loc 1 372 1 view .LVU112
 527 0012 7047     		bx	lr
 528              	.L61:
 529              		.align	2
 530              	.L60:
 531 0014 00000000 		.word	dcd_connect
 532 0018 00000000 		.word	.LANCHOR4
 533              		.cfi_endproc
 534              	.LFE92:
 536              		.section	.text.tud_inited,"ax",%progbits
 537              		.align	1
 538              		.p2align 2,,3
 539              		.global	tud_inited
 540              		.syntax unified
 541              		.thumb
 542              		.thumb_func
 543              		.fpu fpv4-sp-d16
 545              	tud_inited:
 546              	.LFB93:
ARM GAS  /var/folders/84/_x1cyy_j36g486tldtwl37280000gn/T//cch4UlI6.s 			page 32


 377:/Users/joostbooy/Desktop/Code/stm32/lib/tinyusb/src/device/usbd.c ****   return _usbd_rhport != RHPORT_INVALID;
 547              		.loc 1 377 23 is_stmt 1 view -0
 548              		.cfi_startproc
 549              		@ args = 0, pretend = 0, frame = 0
 550              		@ frame_needed = 0, uses_anonymous_args = 0
 551              		@ link register save eliminated.
 378:/Users/joostbooy/Desktop/Code/stm32/lib/tinyusb/src/device/usbd.c **** }
 552              		.loc 1 378 3 view .LVU114
 378:/Users/joostbooy/Desktop/Code/stm32/lib/tinyusb/src/device/usbd.c **** }
 553              		.loc 1 378 23 is_stmt 0 view .LVU115
 554 0000 024B     		ldr	r3, .L63
 555 0002 1878     		ldrb	r0, [r3]	@ zero_extendqisi2
 379:/Users/joostbooy/Desktop/Code/stm32/lib/tinyusb/src/device/usbd.c **** 
 556              		.loc 1 379 1 view .LVU116
 557 0004 FF38     		subs	r0, r0, #255
 558 0006 18BF     		it	ne
 559 0008 0120     		movne	r0, #1
 560 000a 7047     		bx	lr
 561              	.L64:
 562              		.align	2
 563              	.L63:
 564 000c 00000000 		.word	.LANCHOR4
 565              		.cfi_endproc
 566              	.LFE93:
 568              		.section	.text.tud_init,"ax",%progbits
 569              		.align	1
 570              		.p2align 2,,3
 571              		.global	tud_init
 572              		.syntax unified
 573              		.thumb
 574              		.thumb_func
 575              		.fpu fpv4-sp-d16
 577              	tud_init:
 578              	.LVL23:
 579              	.LFB94:
 382:/Users/joostbooy/Desktop/Code/stm32/lib/tinyusb/src/device/usbd.c ****   // skip if already initialized
 580              		.loc 1 382 1 is_stmt 1 view -0
 581              		.cfi_startproc
 582              		@ args = 0, pretend = 0, frame = 0
 583              		@ frame_needed = 0, uses_anonymous_args = 0
 384:/Users/joostbooy/Desktop/Code/stm32/lib/tinyusb/src/device/usbd.c **** 
 584              		.loc 1 384 3 view .LVU118
 585              	.LBB337:
 586              	.LBI337:
 377:/Users/joostbooy/Desktop/Code/stm32/lib/tinyusb/src/device/usbd.c ****   return _usbd_rhport != RHPORT_INVALID;
 587              		.loc 1 377 6 view .LVU119
 588              	.LBB338:
 378:/Users/joostbooy/Desktop/Code/stm32/lib/tinyusb/src/device/usbd.c **** }
 589              		.loc 1 378 3 view .LVU120
 590              	.LBE338:
 591              	.LBE337:
 382:/Users/joostbooy/Desktop/Code/stm32/lib/tinyusb/src/device/usbd.c ****   // skip if already initialized
 592              		.loc 1 382 1 is_stmt 0 view .LVU121
 593 0000 2DE9F041 		push	{r4, r5, r6, r7, r8, lr}
 594              		.cfi_def_cfa_offset 24
 595              		.cfi_offset 4, -24
 596              		.cfi_offset 5, -20
ARM GAS  /var/folders/84/_x1cyy_j36g486tldtwl37280000gn/T//cch4UlI6.s 			page 33


 597              		.cfi_offset 6, -16
 598              		.cfi_offset 7, -12
 599              		.cfi_offset 8, -8
 600              		.cfi_offset 14, -4
 601              	.LBB340:
 602              	.LBB339:
 378:/Users/joostbooy/Desktop/Code/stm32/lib/tinyusb/src/device/usbd.c **** }
 603              		.loc 1 378 23 view .LVU122
 604 0004 264E     		ldr	r6, .L83
 605              	.LBE339:
 606              	.LBE340:
 384:/Users/joostbooy/Desktop/Code/stm32/lib/tinyusb/src/device/usbd.c **** 
 607              		.loc 1 384 6 view .LVU123
 608 0006 3378     		ldrb	r3, [r6]	@ zero_extendqisi2
 609 0008 FF2B     		cmp	r3, #255
 610 000a 02D0     		beq	.L79
 384:/Users/joostbooy/Desktop/Code/stm32/lib/tinyusb/src/device/usbd.c **** 
 611              		.loc 1 384 30 view .LVU124
 612 000c 0120     		movs	r0, #1
 613              	.LVL24:
 614              	.L66:
 425:/Users/joostbooy/Desktop/Code/stm32/lib/tinyusb/src/device/usbd.c **** 
 615              		.loc 1 425 1 view .LVU125
 616 000e BDE8F081 		pop	{r4, r5, r6, r7, r8, pc}
 617              	.LVL25:
 618              	.L79:
 386:/Users/joostbooy/Desktop/Code/stm32/lib/tinyusb/src/device/usbd.c ****   TU_LOG_INT(CFG_TUD_LOG_LEVEL, sizeof(usbd_device_t));
 619              		.loc 1 386 56 is_stmt 1 view .LVU126
 387:/Users/joostbooy/Desktop/Code/stm32/lib/tinyusb/src/device/usbd.c ****   TU_LOG_INT(CFG_TUD_LOG_LEVEL, sizeof(tu_fifo_t));
 620              		.loc 1 387 55 view .LVU127
 388:/Users/joostbooy/Desktop/Code/stm32/lib/tinyusb/src/device/usbd.c ****   TU_LOG_INT(CFG_TUD_LOG_LEVEL, sizeof(tu_edpt_stream_t));
 621              		.loc 1 388 51 view .LVU128
 389:/Users/joostbooy/Desktop/Code/stm32/lib/tinyusb/src/device/usbd.c **** 
 622              		.loc 1 389 58 view .LVU129
 391:/Users/joostbooy/Desktop/Code/stm32/lib/tinyusb/src/device/usbd.c **** 
 623              		.loc 1 391 3 view .LVU130
 624              	.LBB341:
 625              	.LBB342:
 626              		.file 2 "/Users/joostbooy/Desktop/Code/stm32/lib/tinyusb/src/osal/osal_none.h"
   1:/Users/joostbooy/Desktop/Code/stm32/lib/tinyusb/src/osal/osal_none.h **** /*
   2:/Users/joostbooy/Desktop/Code/stm32/lib/tinyusb/src/osal/osal_none.h ****  * The MIT License (MIT)
   3:/Users/joostbooy/Desktop/Code/stm32/lib/tinyusb/src/osal/osal_none.h ****  *
   4:/Users/joostbooy/Desktop/Code/stm32/lib/tinyusb/src/osal/osal_none.h ****  * Copyright (c) 2019 Ha Thach (tinyusb.org)
   5:/Users/joostbooy/Desktop/Code/stm32/lib/tinyusb/src/osal/osal_none.h ****  *
   6:/Users/joostbooy/Desktop/Code/stm32/lib/tinyusb/src/osal/osal_none.h ****  * Permission is hereby granted, free of charge, to any person obtaining a copy
   7:/Users/joostbooy/Desktop/Code/stm32/lib/tinyusb/src/osal/osal_none.h ****  * of this software and associated documentation files (the "Software"), to deal
   8:/Users/joostbooy/Desktop/Code/stm32/lib/tinyusb/src/osal/osal_none.h ****  * in the Software without restriction, including without limitation the rights
   9:/Users/joostbooy/Desktop/Code/stm32/lib/tinyusb/src/osal/osal_none.h ****  * to use, copy, modify, merge, publish, distribute, sublicense, and/or sell
  10:/Users/joostbooy/Desktop/Code/stm32/lib/tinyusb/src/osal/osal_none.h ****  * copies of the Software, and to permit persons to whom the Software is
  11:/Users/joostbooy/Desktop/Code/stm32/lib/tinyusb/src/osal/osal_none.h ****  * furnished to do so, subject to the following conditions:
  12:/Users/joostbooy/Desktop/Code/stm32/lib/tinyusb/src/osal/osal_none.h ****  *
  13:/Users/joostbooy/Desktop/Code/stm32/lib/tinyusb/src/osal/osal_none.h ****  * The above copyright notice and this permission notice shall be included in
  14:/Users/joostbooy/Desktop/Code/stm32/lib/tinyusb/src/osal/osal_none.h ****  * all copies or substantial portions of the Software.
  15:/Users/joostbooy/Desktop/Code/stm32/lib/tinyusb/src/osal/osal_none.h ****  *
  16:/Users/joostbooy/Desktop/Code/stm32/lib/tinyusb/src/osal/osal_none.h ****  * THE SOFTWARE IS PROVIDED "AS IS", WITHOUT WARRANTY OF ANY KIND, EXPRESS OR
  17:/Users/joostbooy/Desktop/Code/stm32/lib/tinyusb/src/osal/osal_none.h ****  * IMPLIED, INCLUDING BUT NOT LIMITED TO THE WARRANTIES OF MERCHANTABILITY,
  18:/Users/joostbooy/Desktop/Code/stm32/lib/tinyusb/src/osal/osal_none.h ****  * FITNESS FOR A PARTICULAR PURPOSE AND NONINFRINGEMENT. IN NO EVENT SHALL THE
ARM GAS  /var/folders/84/_x1cyy_j36g486tldtwl37280000gn/T//cch4UlI6.s 			page 34


  19:/Users/joostbooy/Desktop/Code/stm32/lib/tinyusb/src/osal/osal_none.h ****  * AUTHORS OR COPYRIGHT HOLDERS BE LIABLE FOR ANY CLAIM, DAMAGES OR OTHER
  20:/Users/joostbooy/Desktop/Code/stm32/lib/tinyusb/src/osal/osal_none.h ****  * LIABILITY, WHETHER IN AN ACTION OF CONTRACT, TORT OR OTHERWISE, ARISING FROM,
  21:/Users/joostbooy/Desktop/Code/stm32/lib/tinyusb/src/osal/osal_none.h ****  * OUT OF OR IN CONNECTION WITH THE SOFTWARE OR THE USE OR OTHER DEALINGS IN
  22:/Users/joostbooy/Desktop/Code/stm32/lib/tinyusb/src/osal/osal_none.h ****  * THE SOFTWARE.
  23:/Users/joostbooy/Desktop/Code/stm32/lib/tinyusb/src/osal/osal_none.h ****  *
  24:/Users/joostbooy/Desktop/Code/stm32/lib/tinyusb/src/osal/osal_none.h ****  * This file is part of the TinyUSB stack.
  25:/Users/joostbooy/Desktop/Code/stm32/lib/tinyusb/src/osal/osal_none.h ****  */
  26:/Users/joostbooy/Desktop/Code/stm32/lib/tinyusb/src/osal/osal_none.h **** 
  27:/Users/joostbooy/Desktop/Code/stm32/lib/tinyusb/src/osal/osal_none.h **** #ifndef TUSB_OSAL_NONE_H_
  28:/Users/joostbooy/Desktop/Code/stm32/lib/tinyusb/src/osal/osal_none.h **** #define TUSB_OSAL_NONE_H_
  29:/Users/joostbooy/Desktop/Code/stm32/lib/tinyusb/src/osal/osal_none.h **** 
  30:/Users/joostbooy/Desktop/Code/stm32/lib/tinyusb/src/osal/osal_none.h **** #ifdef __cplusplus
  31:/Users/joostbooy/Desktop/Code/stm32/lib/tinyusb/src/osal/osal_none.h **** extern "C" {
  32:/Users/joostbooy/Desktop/Code/stm32/lib/tinyusb/src/osal/osal_none.h **** #endif
  33:/Users/joostbooy/Desktop/Code/stm32/lib/tinyusb/src/osal/osal_none.h **** 
  34:/Users/joostbooy/Desktop/Code/stm32/lib/tinyusb/src/osal/osal_none.h **** //--------------------------------------------------------------------+
  35:/Users/joostbooy/Desktop/Code/stm32/lib/tinyusb/src/osal/osal_none.h **** // TASK API
  36:/Users/joostbooy/Desktop/Code/stm32/lib/tinyusb/src/osal/osal_none.h **** //--------------------------------------------------------------------+
  37:/Users/joostbooy/Desktop/Code/stm32/lib/tinyusb/src/osal/osal_none.h **** 
  38:/Users/joostbooy/Desktop/Code/stm32/lib/tinyusb/src/osal/osal_none.h **** #if CFG_TUH_ENABLED
  39:/Users/joostbooy/Desktop/Code/stm32/lib/tinyusb/src/osal/osal_none.h **** // currently only needed/available in host mode
  40:/Users/joostbooy/Desktop/Code/stm32/lib/tinyusb/src/osal/osal_none.h **** TU_ATTR_WEAK void osal_task_delay(uint32_t msec);
  41:/Users/joostbooy/Desktop/Code/stm32/lib/tinyusb/src/osal/osal_none.h **** #endif
  42:/Users/joostbooy/Desktop/Code/stm32/lib/tinyusb/src/osal/osal_none.h **** 
  43:/Users/joostbooy/Desktop/Code/stm32/lib/tinyusb/src/osal/osal_none.h **** //--------------------------------------------------------------------+
  44:/Users/joostbooy/Desktop/Code/stm32/lib/tinyusb/src/osal/osal_none.h **** // Binary Semaphore API
  45:/Users/joostbooy/Desktop/Code/stm32/lib/tinyusb/src/osal/osal_none.h **** //--------------------------------------------------------------------+
  46:/Users/joostbooy/Desktop/Code/stm32/lib/tinyusb/src/osal/osal_none.h **** typedef struct {
  47:/Users/joostbooy/Desktop/Code/stm32/lib/tinyusb/src/osal/osal_none.h ****   volatile uint16_t count;
  48:/Users/joostbooy/Desktop/Code/stm32/lib/tinyusb/src/osal/osal_none.h **** } osal_semaphore_def_t;
  49:/Users/joostbooy/Desktop/Code/stm32/lib/tinyusb/src/osal/osal_none.h **** 
  50:/Users/joostbooy/Desktop/Code/stm32/lib/tinyusb/src/osal/osal_none.h **** typedef osal_semaphore_def_t* osal_semaphore_t;
  51:/Users/joostbooy/Desktop/Code/stm32/lib/tinyusb/src/osal/osal_none.h **** 
  52:/Users/joostbooy/Desktop/Code/stm32/lib/tinyusb/src/osal/osal_none.h **** TU_ATTR_ALWAYS_INLINE static inline osal_semaphore_t osal_semaphore_create(osal_semaphore_def_t* se
  53:/Users/joostbooy/Desktop/Code/stm32/lib/tinyusb/src/osal/osal_none.h ****   semdef->count = 0;
  54:/Users/joostbooy/Desktop/Code/stm32/lib/tinyusb/src/osal/osal_none.h ****   return semdef;
  55:/Users/joostbooy/Desktop/Code/stm32/lib/tinyusb/src/osal/osal_none.h **** }
  56:/Users/joostbooy/Desktop/Code/stm32/lib/tinyusb/src/osal/osal_none.h **** 
  57:/Users/joostbooy/Desktop/Code/stm32/lib/tinyusb/src/osal/osal_none.h **** TU_ATTR_ALWAYS_INLINE static inline bool osal_semaphore_post(osal_semaphore_t sem_hdl, bool in_isr)
  58:/Users/joostbooy/Desktop/Code/stm32/lib/tinyusb/src/osal/osal_none.h ****   (void) in_isr;
  59:/Users/joostbooy/Desktop/Code/stm32/lib/tinyusb/src/osal/osal_none.h ****   sem_hdl->count++;
  60:/Users/joostbooy/Desktop/Code/stm32/lib/tinyusb/src/osal/osal_none.h ****   return true;
  61:/Users/joostbooy/Desktop/Code/stm32/lib/tinyusb/src/osal/osal_none.h **** }
  62:/Users/joostbooy/Desktop/Code/stm32/lib/tinyusb/src/osal/osal_none.h **** 
  63:/Users/joostbooy/Desktop/Code/stm32/lib/tinyusb/src/osal/osal_none.h **** // TODO blocking for now
  64:/Users/joostbooy/Desktop/Code/stm32/lib/tinyusb/src/osal/osal_none.h **** TU_ATTR_ALWAYS_INLINE static inline bool osal_semaphore_wait(osal_semaphore_t sem_hdl, uint32_t mse
  65:/Users/joostbooy/Desktop/Code/stm32/lib/tinyusb/src/osal/osal_none.h ****   (void) msec;
  66:/Users/joostbooy/Desktop/Code/stm32/lib/tinyusb/src/osal/osal_none.h **** 
  67:/Users/joostbooy/Desktop/Code/stm32/lib/tinyusb/src/osal/osal_none.h ****   while (sem_hdl->count == 0) {}
  68:/Users/joostbooy/Desktop/Code/stm32/lib/tinyusb/src/osal/osal_none.h ****   sem_hdl->count--;
  69:/Users/joostbooy/Desktop/Code/stm32/lib/tinyusb/src/osal/osal_none.h **** 
  70:/Users/joostbooy/Desktop/Code/stm32/lib/tinyusb/src/osal/osal_none.h ****   return true;
  71:/Users/joostbooy/Desktop/Code/stm32/lib/tinyusb/src/osal/osal_none.h **** }
  72:/Users/joostbooy/Desktop/Code/stm32/lib/tinyusb/src/osal/osal_none.h **** 
  73:/Users/joostbooy/Desktop/Code/stm32/lib/tinyusb/src/osal/osal_none.h **** TU_ATTR_ALWAYS_INLINE static inline void osal_semaphore_reset(osal_semaphore_t sem_hdl) {
  74:/Users/joostbooy/Desktop/Code/stm32/lib/tinyusb/src/osal/osal_none.h ****   sem_hdl->count = 0;
  75:/Users/joostbooy/Desktop/Code/stm32/lib/tinyusb/src/osal/osal_none.h **** }
ARM GAS  /var/folders/84/_x1cyy_j36g486tldtwl37280000gn/T//cch4UlI6.s 			page 35


  76:/Users/joostbooy/Desktop/Code/stm32/lib/tinyusb/src/osal/osal_none.h **** 
  77:/Users/joostbooy/Desktop/Code/stm32/lib/tinyusb/src/osal/osal_none.h **** //--------------------------------------------------------------------+
  78:/Users/joostbooy/Desktop/Code/stm32/lib/tinyusb/src/osal/osal_none.h **** // MUTEX API
  79:/Users/joostbooy/Desktop/Code/stm32/lib/tinyusb/src/osal/osal_none.h **** // Within tinyusb, mutex is never used in ISR context
  80:/Users/joostbooy/Desktop/Code/stm32/lib/tinyusb/src/osal/osal_none.h **** //--------------------------------------------------------------------+
  81:/Users/joostbooy/Desktop/Code/stm32/lib/tinyusb/src/osal/osal_none.h **** typedef osal_semaphore_def_t osal_mutex_def_t;
  82:/Users/joostbooy/Desktop/Code/stm32/lib/tinyusb/src/osal/osal_none.h **** typedef osal_semaphore_t osal_mutex_t;
  83:/Users/joostbooy/Desktop/Code/stm32/lib/tinyusb/src/osal/osal_none.h **** 
  84:/Users/joostbooy/Desktop/Code/stm32/lib/tinyusb/src/osal/osal_none.h **** #if OSAL_MUTEX_REQUIRED
  85:/Users/joostbooy/Desktop/Code/stm32/lib/tinyusb/src/osal/osal_none.h **** // Note: multiple cores MCUs usually do provide IPC API for mutex
  86:/Users/joostbooy/Desktop/Code/stm32/lib/tinyusb/src/osal/osal_none.h **** // or we can use std atomic function
  87:/Users/joostbooy/Desktop/Code/stm32/lib/tinyusb/src/osal/osal_none.h **** 
  88:/Users/joostbooy/Desktop/Code/stm32/lib/tinyusb/src/osal/osal_none.h **** TU_ATTR_ALWAYS_INLINE static inline osal_mutex_t osal_mutex_create(osal_mutex_def_t* mdef) {
  89:/Users/joostbooy/Desktop/Code/stm32/lib/tinyusb/src/osal/osal_none.h ****   mdef->count = 1;
  90:/Users/joostbooy/Desktop/Code/stm32/lib/tinyusb/src/osal/osal_none.h ****   return mdef;
  91:/Users/joostbooy/Desktop/Code/stm32/lib/tinyusb/src/osal/osal_none.h **** }
  92:/Users/joostbooy/Desktop/Code/stm32/lib/tinyusb/src/osal/osal_none.h **** 
  93:/Users/joostbooy/Desktop/Code/stm32/lib/tinyusb/src/osal/osal_none.h **** TU_ATTR_ALWAYS_INLINE static inline bool osal_mutex_lock (osal_mutex_t mutex_hdl, uint32_t msec) {
  94:/Users/joostbooy/Desktop/Code/stm32/lib/tinyusb/src/osal/osal_none.h ****   return osal_semaphore_wait(mutex_hdl, msec);
  95:/Users/joostbooy/Desktop/Code/stm32/lib/tinyusb/src/osal/osal_none.h **** }
  96:/Users/joostbooy/Desktop/Code/stm32/lib/tinyusb/src/osal/osal_none.h **** 
  97:/Users/joostbooy/Desktop/Code/stm32/lib/tinyusb/src/osal/osal_none.h **** TU_ATTR_ALWAYS_INLINE static inline bool osal_mutex_unlock(osal_mutex_t mutex_hdl) {
  98:/Users/joostbooy/Desktop/Code/stm32/lib/tinyusb/src/osal/osal_none.h ****   return osal_semaphore_post(mutex_hdl, false);
  99:/Users/joostbooy/Desktop/Code/stm32/lib/tinyusb/src/osal/osal_none.h **** }
 100:/Users/joostbooy/Desktop/Code/stm32/lib/tinyusb/src/osal/osal_none.h **** 
 101:/Users/joostbooy/Desktop/Code/stm32/lib/tinyusb/src/osal/osal_none.h **** #else
 102:/Users/joostbooy/Desktop/Code/stm32/lib/tinyusb/src/osal/osal_none.h **** 
 103:/Users/joostbooy/Desktop/Code/stm32/lib/tinyusb/src/osal/osal_none.h **** #define osal_mutex_create(_mdef)          (NULL)
 104:/Users/joostbooy/Desktop/Code/stm32/lib/tinyusb/src/osal/osal_none.h **** #define osal_mutex_lock(_mutex_hdl, _ms)  (true)
 105:/Users/joostbooy/Desktop/Code/stm32/lib/tinyusb/src/osal/osal_none.h **** #define osal_mutex_unlock(_mutex_hdl)     (true)
 106:/Users/joostbooy/Desktop/Code/stm32/lib/tinyusb/src/osal/osal_none.h **** 
 107:/Users/joostbooy/Desktop/Code/stm32/lib/tinyusb/src/osal/osal_none.h **** #endif
 108:/Users/joostbooy/Desktop/Code/stm32/lib/tinyusb/src/osal/osal_none.h **** 
 109:/Users/joostbooy/Desktop/Code/stm32/lib/tinyusb/src/osal/osal_none.h **** //--------------------------------------------------------------------+
 110:/Users/joostbooy/Desktop/Code/stm32/lib/tinyusb/src/osal/osal_none.h **** // QUEUE API
 111:/Users/joostbooy/Desktop/Code/stm32/lib/tinyusb/src/osal/osal_none.h **** //--------------------------------------------------------------------+
 112:/Users/joostbooy/Desktop/Code/stm32/lib/tinyusb/src/osal/osal_none.h **** #include "common/tusb_fifo.h"
 113:/Users/joostbooy/Desktop/Code/stm32/lib/tinyusb/src/osal/osal_none.h **** 
 114:/Users/joostbooy/Desktop/Code/stm32/lib/tinyusb/src/osal/osal_none.h **** typedef struct {
 115:/Users/joostbooy/Desktop/Code/stm32/lib/tinyusb/src/osal/osal_none.h ****   void (* interrupt_set)(bool);
 116:/Users/joostbooy/Desktop/Code/stm32/lib/tinyusb/src/osal/osal_none.h ****   tu_fifo_t ff;
 117:/Users/joostbooy/Desktop/Code/stm32/lib/tinyusb/src/osal/osal_none.h **** } osal_queue_def_t;
 118:/Users/joostbooy/Desktop/Code/stm32/lib/tinyusb/src/osal/osal_none.h **** 
 119:/Users/joostbooy/Desktop/Code/stm32/lib/tinyusb/src/osal/osal_none.h **** typedef osal_queue_def_t* osal_queue_t;
 120:/Users/joostbooy/Desktop/Code/stm32/lib/tinyusb/src/osal/osal_none.h **** 
 121:/Users/joostbooy/Desktop/Code/stm32/lib/tinyusb/src/osal/osal_none.h **** // _int_set is used as mutex in OS NONE (disable/enable USB ISR)
 122:/Users/joostbooy/Desktop/Code/stm32/lib/tinyusb/src/osal/osal_none.h **** #define OSAL_QUEUE_DEF(_int_set, _name, _depth, _type)    \
 123:/Users/joostbooy/Desktop/Code/stm32/lib/tinyusb/src/osal/osal_none.h ****   uint8_t _name##_buf[_depth*sizeof(_type)];              \
 124:/Users/joostbooy/Desktop/Code/stm32/lib/tinyusb/src/osal/osal_none.h ****   osal_queue_def_t _name = {                              \
 125:/Users/joostbooy/Desktop/Code/stm32/lib/tinyusb/src/osal/osal_none.h ****     .interrupt_set = _int_set,                            \
 126:/Users/joostbooy/Desktop/Code/stm32/lib/tinyusb/src/osal/osal_none.h ****     .ff = TU_FIFO_INIT(_name##_buf, _depth, _type, false) \
 127:/Users/joostbooy/Desktop/Code/stm32/lib/tinyusb/src/osal/osal_none.h ****   }
 128:/Users/joostbooy/Desktop/Code/stm32/lib/tinyusb/src/osal/osal_none.h **** 
 129:/Users/joostbooy/Desktop/Code/stm32/lib/tinyusb/src/osal/osal_none.h **** // lock queue by disable USB interrupt
 130:/Users/joostbooy/Desktop/Code/stm32/lib/tinyusb/src/osal/osal_none.h **** TU_ATTR_ALWAYS_INLINE static inline void _osal_q_lock(osal_queue_t qhdl) {
 131:/Users/joostbooy/Desktop/Code/stm32/lib/tinyusb/src/osal/osal_none.h ****   // disable dcd/hcd interrupt
 132:/Users/joostbooy/Desktop/Code/stm32/lib/tinyusb/src/osal/osal_none.h ****   qhdl->interrupt_set(false);
ARM GAS  /var/folders/84/_x1cyy_j36g486tldtwl37280000gn/T//cch4UlI6.s 			page 36


 133:/Users/joostbooy/Desktop/Code/stm32/lib/tinyusb/src/osal/osal_none.h **** }
 134:/Users/joostbooy/Desktop/Code/stm32/lib/tinyusb/src/osal/osal_none.h **** 
 135:/Users/joostbooy/Desktop/Code/stm32/lib/tinyusb/src/osal/osal_none.h **** // unlock queue
 136:/Users/joostbooy/Desktop/Code/stm32/lib/tinyusb/src/osal/osal_none.h **** TU_ATTR_ALWAYS_INLINE static inline void _osal_q_unlock(osal_queue_t qhdl) {
 137:/Users/joostbooy/Desktop/Code/stm32/lib/tinyusb/src/osal/osal_none.h ****   // enable dcd/hcd interrupt
 138:/Users/joostbooy/Desktop/Code/stm32/lib/tinyusb/src/osal/osal_none.h ****   qhdl->interrupt_set(true);
 139:/Users/joostbooy/Desktop/Code/stm32/lib/tinyusb/src/osal/osal_none.h **** }
 140:/Users/joostbooy/Desktop/Code/stm32/lib/tinyusb/src/osal/osal_none.h **** 
 141:/Users/joostbooy/Desktop/Code/stm32/lib/tinyusb/src/osal/osal_none.h **** TU_ATTR_ALWAYS_INLINE static inline osal_queue_t osal_queue_create(osal_queue_def_t* qdef) {
 142:/Users/joostbooy/Desktop/Code/stm32/lib/tinyusb/src/osal/osal_none.h ****   tu_fifo_clear(&qdef->ff);
 627              		.loc 2 142 3 is_stmt 0 view .LVU131
 628 0012 244D     		ldr	r5, .L83+4
 629              	.LBE342:
 630              	.LBE341:
 391:/Users/joostbooy/Desktop/Code/stm32/lib/tinyusb/src/device/usbd.c **** 
 631              		.loc 1 391 3 view .LVU132
 632 0014 2B22     		movs	r2, #43
 633 0016 0021     		movs	r1, #0
 634 0018 0446     		mov	r4, r0
 635 001a 2348     		ldr	r0, .L83+8
 636              	.LVL26:
 391:/Users/joostbooy/Desktop/Code/stm32/lib/tinyusb/src/device/usbd.c **** 
 637              		.loc 1 391 3 view .LVU133
 638 001c FFF7FEFF 		bl	memset
 639              	.LVL27:
 400:/Users/joostbooy/Desktop/Code/stm32/lib/tinyusb/src/device/usbd.c ****   TU_ASSERT(_usbd_q);
 640              		.loc 1 400 3 is_stmt 1 view .LVU134
 641              	.LBB344:
 642              	.LBI341:
 141:/Users/joostbooy/Desktop/Code/stm32/lib/tinyusb/src/osal/osal_none.h ****   tu_fifo_clear(&qdef->ff);
 643              		.loc 2 141 50 view .LVU135
 644              	.LBB343:
 645              		.loc 2 142 3 view .LVU136
 646 0020 281D     		adds	r0, r5, #4
 647 0022 FFF7FEFF 		bl	tu_fifo_clear
 648              	.LVL28:
 143:/Users/joostbooy/Desktop/Code/stm32/lib/tinyusb/src/osal/osal_none.h ****   return (osal_queue_t) qdef;
 649              		.loc 2 143 3 view .LVU137
 650              		.loc 2 143 3 is_stmt 0 view .LVU138
 651              	.LBE343:
 652              	.LBE344:
 400:/Users/joostbooy/Desktop/Code/stm32/lib/tinyusb/src/device/usbd.c ****   TU_ASSERT(_usbd_q);
 653              		.loc 1 400 11 view .LVU139
 654 0026 214A     		ldr	r2, .L83+12
 404:/Users/joostbooy/Desktop/Code/stm32/lib/tinyusb/src/device/usbd.c ****   {
 655              		.loc 1 404 6 view .LVU140
 656 0028 2148     		ldr	r0, .L83+16
 400:/Users/joostbooy/Desktop/Code/stm32/lib/tinyusb/src/device/usbd.c ****   TU_ASSERT(_usbd_q);
 657              		.loc 1 400 11 view .LVU141
 658 002a 1560     		str	r5, [r2]
 401:/Users/joostbooy/Desktop/Code/stm32/lib/tinyusb/src/device/usbd.c **** 
 659              		.loc 1 401 3 is_stmt 1 view .LVU142
 401:/Users/joostbooy/Desktop/Code/stm32/lib/tinyusb/src/device/usbd.c **** 
 660              		.loc 1 401 3 view .LVU143
 401:/Users/joostbooy/Desktop/Code/stm32/lib/tinyusb/src/device/usbd.c **** 
 661              		.loc 1 401 3 view .LVU144
 404:/Users/joostbooy/Desktop/Code/stm32/lib/tinyusb/src/device/usbd.c ****   {
ARM GAS  /var/folders/84/_x1cyy_j36g486tldtwl37280000gn/T//cch4UlI6.s 			page 37


 662              		.loc 1 404 3 view .LVU145
 404:/Users/joostbooy/Desktop/Code/stm32/lib/tinyusb/src/device/usbd.c ****   {
 663              		.loc 1 404 6 is_stmt 0 view .LVU146
 664 002c 20B1     		cbz	r0, .L67
 406:/Users/joostbooy/Desktop/Code/stm32/lib/tinyusb/src/device/usbd.c ****   }
 665              		.loc 1 406 5 is_stmt 1 view .LVU147
 406:/Users/joostbooy/Desktop/Code/stm32/lib/tinyusb/src/device/usbd.c ****   }
 666              		.loc 1 406 19 is_stmt 0 view .LVU148
 667 002e 2148     		ldr	r0, .L83+20
 668 0030 FFF7FEFF 		bl	usbd_app_driver_get_cb
 669              	.LVL29:
 406:/Users/joostbooy/Desktop/Code/stm32/lib/tinyusb/src/device/usbd.c ****   }
 670              		.loc 1 406 17 view .LVU149
 671 0034 2049     		ldr	r1, .L83+24
 672 0036 0860     		str	r0, [r1]
 673              	.L67:
 674              	.LVL30:
 675              	.LBB345:
 410:/Users/joostbooy/Desktop/Code/stm32/lib/tinyusb/src/device/usbd.c ****   {
 676              		.loc 1 410 23 is_stmt 1 discriminator 2 view .LVU150
 410:/Users/joostbooy/Desktop/Code/stm32/lib/tinyusb/src/device/usbd.c ****   {
 677              		.loc 1 410 25 is_stmt 0 discriminator 2 view .LVU151
 678 0038 1E4D     		ldr	r5, .L83+20
 679 003a 4FF00008 		mov	r8, #0
 680 003e 2F78     		ldrb	r7, [r5]	@ zero_extendqisi2
 681 0040 4346     		mov	r3, r8
 682 0042 0DE0     		b	.L71
 683              	.LVL31:
 684              	.L82:
 685              	.LBB346:
 686              	.LBB347:
 687              	.LBB348:
 249:/Users/joostbooy/Desktop/Code/stm32/lib/tinyusb/src/device/usbd.c ****   } else if ( drvid < TOTAL_DRIVER_COUNT && BUILTIN_DRIVER_COUNT > 0 ){
 688              		.loc 1 249 12 view .LVU152
 689 0044 DCF80010 		ldr	r1, [ip]
 690              	.LVL32:
 253:/Users/joostbooy/Desktop/Code/stm32/lib/tinyusb/src/device/usbd.c **** }
 691              		.loc 1 253 3 is_stmt 1 view .LVU153
 253:/Users/joostbooy/Desktop/Code/stm32/lib/tinyusb/src/device/usbd.c **** }
 692              		.loc 1 253 3 is_stmt 0 view .LVU154
 693              	.LBE348:
 694              	.LBE347:
 413:/Users/joostbooy/Desktop/Code/stm32/lib/tinyusb/src/device/usbd.c ****     TU_LOG_USBD("%s init\r\n", driver->name);
 695              		.loc 1 413 5 is_stmt 1 view .LVU155
 413:/Users/joostbooy/Desktop/Code/stm32/lib/tinyusb/src/device/usbd.c ****     TU_LOG_USBD("%s init\r\n", driver->name);
 696              		.loc 1 413 5 view .LVU156
 697 0048 11EBCE03 		adds	r3, r1, lr, lsl #3
 698              	.LVL33:
 413:/Users/joostbooy/Desktop/Code/stm32/lib/tinyusb/src/device/usbd.c ****     TU_LOG_USBD("%s init\r\n", driver->name);
 699              		.loc 1 413 5 is_stmt 0 view .LVU157
 700 004c 1FD0     		beq	.L80
 701              	.LVL34:
 702              	.L70:
 413:/Users/joostbooy/Desktop/Code/stm32/lib/tinyusb/src/device/usbd.c ****     TU_LOG_USBD("%s init\r\n", driver->name);
 703              		.loc 1 413 5 is_stmt 1 discriminator 2 view .LVU158
 414:/Users/joostbooy/Desktop/Code/stm32/lib/tinyusb/src/device/usbd.c ****     driver->init();
 704              		.loc 1 414 45 discriminator 2 view .LVU159
ARM GAS  /var/folders/84/_x1cyy_j36g486tldtwl37280000gn/T//cch4UlI6.s 			page 38


 415:/Users/joostbooy/Desktop/Code/stm32/lib/tinyusb/src/device/usbd.c ****   }
 705              		.loc 1 415 5 discriminator 2 view .LVU160
 706 004e 1A68     		ldr	r2, [r3]
 707 0050 9047     		blx	r2
 708              	.LVL35:
 415:/Users/joostbooy/Desktop/Code/stm32/lib/tinyusb/src/device/usbd.c ****   }
 709              		.loc 1 415 5 is_stmt 0 discriminator 2 view .LVU161
 710              	.LBE346:
 410:/Users/joostbooy/Desktop/Code/stm32/lib/tinyusb/src/device/usbd.c ****   {
 711              		.loc 1 410 47 is_stmt 1 discriminator 2 view .LVU162
 410:/Users/joostbooy/Desktop/Code/stm32/lib/tinyusb/src/device/usbd.c ****   {
 712              		.loc 1 410 23 discriminator 2 view .LVU163
 713 0052 08F10108 		add	r8, r8, #1
 714              	.LVL36:
 410:/Users/joostbooy/Desktop/Code/stm32/lib/tinyusb/src/device/usbd.c ****   {
 715              		.loc 1 410 25 is_stmt 0 discriminator 2 view .LVU164
 716 0056 2F78     		ldrb	r7, [r5]	@ zero_extendqisi2
 410:/Users/joostbooy/Desktop/Code/stm32/lib/tinyusb/src/device/usbd.c ****   {
 717              		.loc 1 410 3 discriminator 2 view .LVU165
 718 0058 5FFA88F3 		uxtb	r3, r8
 719 005c 9F42     		cmp	r7, r3
 720 005e 0CD3     		bcc	.L81
 721              	.L71:
 722              	.LVL37:
 723              	.LBB352:
 412:/Users/joostbooy/Desktop/Code/stm32/lib/tinyusb/src/device/usbd.c ****     TU_ASSERT(driver);
 724              		.loc 1 412 5 is_stmt 1 view .LVU166
 725              	.LBB350:
 726              	.LBI347:
 245:/Users/joostbooy/Desktop/Code/stm32/lib/tinyusb/src/device/usbd.c ****   usbd_class_driver_t const * driver = NULL;
 727              		.loc 1 245 65 view .LVU167
 728              	.LBB349:
 246:/Users/joostbooy/Desktop/Code/stm32/lib/tinyusb/src/device/usbd.c ****   if ( drvid < _app_driver_count ) {
 729              		.loc 1 246 3 view .LVU168
 247:/Users/joostbooy/Desktop/Code/stm32/lib/tinyusb/src/device/usbd.c ****     // Application drivers
 730              		.loc 1 247 3 view .LVU169
 249:/Users/joostbooy/Desktop/Code/stm32/lib/tinyusb/src/device/usbd.c ****   } else if ( drvid < TOTAL_DRIVER_COUNT && BUILTIN_DRIVER_COUNT > 0 ){
 731              		.loc 1 249 5 view .LVU170
 250:/Users/joostbooy/Desktop/Code/stm32/lib/tinyusb/src/device/usbd.c ****     driver = &_usbd_driver[drvid - _app_driver_count];
 732              		.loc 1 250 10 view .LVU171
 251:/Users/joostbooy/Desktop/Code/stm32/lib/tinyusb/src/device/usbd.c ****   }
 733              		.loc 1 251 5 view .LVU172
 251:/Users/joostbooy/Desktop/Code/stm32/lib/tinyusb/src/device/usbd.c ****   }
 734              		.loc 1 251 34 is_stmt 0 view .LVU173
 735 0060 D81B     		subs	r0, r3, r7
 247:/Users/joostbooy/Desktop/Code/stm32/lib/tinyusb/src/device/usbd.c ****     // Application drivers
 736              		.loc 1 247 6 view .LVU174
 737 0062 BB42     		cmp	r3, r7
 249:/Users/joostbooy/Desktop/Code/stm32/lib/tinyusb/src/device/usbd.c ****   } else if ( drvid < TOTAL_DRIVER_COUNT && BUILTIN_DRIVER_COUNT > 0 ){
 738              		.loc 1 249 14 view .LVU175
 739 0064 DFF850C0 		ldr	ip, .L83+24
 251:/Users/joostbooy/Desktop/Code/stm32/lib/tinyusb/src/device/usbd.c ****   }
 740              		.loc 1 251 12 view .LVU176
 741 0068 144A     		ldr	r2, .L83+28
 249:/Users/joostbooy/Desktop/Code/stm32/lib/tinyusb/src/device/usbd.c ****   } else if ( drvid < TOTAL_DRIVER_COUNT && BUILTIN_DRIVER_COUNT > 0 ){
 742              		.loc 1 249 26 view .LVU177
 743 006a 03EB430E 		add	lr, r3, r3, lsl #1
ARM GAS  /var/folders/84/_x1cyy_j36g486tldtwl37280000gn/T//cch4UlI6.s 			page 39


 251:/Users/joostbooy/Desktop/Code/stm32/lib/tinyusb/src/device/usbd.c ****   }
 744              		.loc 1 251 12 view .LVU178
 745 006e 00EB4007 		add	r7, r0, r0, lsl #1
 247:/Users/joostbooy/Desktop/Code/stm32/lib/tinyusb/src/device/usbd.c ****     // Application drivers
 746              		.loc 1 247 6 view .LVU179
 747 0072 E7D3     		bcc	.L82
 251:/Users/joostbooy/Desktop/Code/stm32/lib/tinyusb/src/device/usbd.c ****   }
 748              		.loc 1 251 12 view .LVU180
 749 0074 02EBC703 		add	r3, r2, r7, lsl #3
 750              	.LVL38:
 253:/Users/joostbooy/Desktop/Code/stm32/lib/tinyusb/src/device/usbd.c **** }
 751              		.loc 1 253 3 is_stmt 1 view .LVU181
 253:/Users/joostbooy/Desktop/Code/stm32/lib/tinyusb/src/device/usbd.c **** }
 752              		.loc 1 253 3 is_stmt 0 view .LVU182
 753              	.LBE349:
 754              	.LBE350:
 413:/Users/joostbooy/Desktop/Code/stm32/lib/tinyusb/src/device/usbd.c ****     TU_LOG_USBD("%s init\r\n", driver->name);
 755              		.loc 1 413 5 is_stmt 1 view .LVU183
 413:/Users/joostbooy/Desktop/Code/stm32/lib/tinyusb/src/device/usbd.c ****     TU_LOG_USBD("%s init\r\n", driver->name);
 756              		.loc 1 413 5 view .LVU184
 757 0078 E9E7     		b	.L70
 758              	.LVL39:
 759              	.L81:
 413:/Users/joostbooy/Desktop/Code/stm32/lib/tinyusb/src/device/usbd.c ****     TU_LOG_USBD("%s init\r\n", driver->name);
 760              		.loc 1 413 5 is_stmt 0 view .LVU185
 761              	.LBE352:
 762              	.LBE345:
 418:/Users/joostbooy/Desktop/Code/stm32/lib/tinyusb/src/device/usbd.c **** 
 763              		.loc 1 418 3 is_stmt 1 view .LVU186
 421:/Users/joostbooy/Desktop/Code/stm32/lib/tinyusb/src/device/usbd.c ****   dcd_int_enable(rhport);
 764              		.loc 1 421 3 is_stmt 0 view .LVU187
 765 007a 2046     		mov	r0, r4
 418:/Users/joostbooy/Desktop/Code/stm32/lib/tinyusb/src/device/usbd.c **** 
 766              		.loc 1 418 16 view .LVU188
 767 007c 3470     		strb	r4, [r6]
 421:/Users/joostbooy/Desktop/Code/stm32/lib/tinyusb/src/device/usbd.c ****   dcd_int_enable(rhport);
 768              		.loc 1 421 3 is_stmt 1 view .LVU189
 769 007e FFF7FEFF 		bl	dcd_init
 770              	.LVL40:
 422:/Users/joostbooy/Desktop/Code/stm32/lib/tinyusb/src/device/usbd.c **** 
 771              		.loc 1 422 3 view .LVU190
 772 0082 2046     		mov	r0, r4
 773 0084 FFF7FEFF 		bl	dcd_int_enable
 774              	.LVL41:
 424:/Users/joostbooy/Desktop/Code/stm32/lib/tinyusb/src/device/usbd.c **** }
 775              		.loc 1 424 3 view .LVU191
 424:/Users/joostbooy/Desktop/Code/stm32/lib/tinyusb/src/device/usbd.c **** }
 776              		.loc 1 424 10 is_stmt 0 view .LVU192
 777 0088 0120     		movs	r0, #1
 425:/Users/joostbooy/Desktop/Code/stm32/lib/tinyusb/src/device/usbd.c **** 
 778              		.loc 1 425 1 view .LVU193
 779 008a BDE8F081 		pop	{r4, r5, r6, r7, r8, pc}
 780              	.LVL42:
 781              	.L80:
 782              	.LBB354:
 783              	.LBB353:
 413:/Users/joostbooy/Desktop/Code/stm32/lib/tinyusb/src/device/usbd.c ****     TU_LOG_USBD("%s init\r\n", driver->name);
ARM GAS  /var/folders/84/_x1cyy_j36g486tldtwl37280000gn/T//cch4UlI6.s 			page 40


 784              		.loc 1 413 5 is_stmt 1 discriminator 1 view .LVU194
 413:/Users/joostbooy/Desktop/Code/stm32/lib/tinyusb/src/device/usbd.c ****     TU_LOG_USBD("%s init\r\n", driver->name);
 785              		.loc 1 413 5 discriminator 1 view .LVU195
 413:/Users/joostbooy/Desktop/Code/stm32/lib/tinyusb/src/device/usbd.c ****     TU_LOG_USBD("%s init\r\n", driver->name);
 786              		.loc 1 413 5 discriminator 1 view .LVU196
 413:/Users/joostbooy/Desktop/Code/stm32/lib/tinyusb/src/device/usbd.c ****     TU_LOG_USBD("%s init\r\n", driver->name);
 787              		.loc 1 413 5 discriminator 1 view .LVU197
 788              	.LBB351:
 413:/Users/joostbooy/Desktop/Code/stm32/lib/tinyusb/src/device/usbd.c ****     TU_LOG_USBD("%s init\r\n", driver->name);
 789              		.loc 1 413 5 discriminator 1 view .LVU198
 413:/Users/joostbooy/Desktop/Code/stm32/lib/tinyusb/src/device/usbd.c ****     TU_LOG_USBD("%s init\r\n", driver->name);
 790              		.loc 1 413 5 discriminator 1 view .LVU199
 791 008e 0C4E     		ldr	r6, .L83+32
 792 0090 3468     		ldr	r4, [r6]
 793 0092 14F00100 		ands	r0, r4, #1
 794 0096 BAD0     		beq	.L66
 413:/Users/joostbooy/Desktop/Code/stm32/lib/tinyusb/src/device/usbd.c ****     TU_LOG_USBD("%s init\r\n", driver->name);
 795              		.loc 1 413 5 discriminator 3 view .LVU200
 796              		.syntax unified
 797              	@ 413 "/Users/joostbooy/Desktop/Code/stm32/lib/tinyusb/src/device/usbd.c" 1
 798 0098 00BE     		BKPT #0
 799              	
 800              	@ 0 "" 2
 801              		.thumb
 802              		.syntax unified
 803              	.LBE351:
 804 009a 1846     		mov	r0, r3
 805 009c B7E7     		b	.L66
 806              	.L84:
 807 009e 00BF     		.align	2
 808              	.L83:
 809 00a0 00000000 		.word	.LANCHOR4
 810 00a4 00000000 		.word	.LANCHOR5
 811 00a8 00000000 		.word	.LANCHOR3
 812 00ac 00000000 		.word	.LANCHOR6
 813 00b0 00000000 		.word	usbd_app_driver_get_cb
 814 00b4 00000000 		.word	.LANCHOR0
 815 00b8 00000000 		.word	.LANCHOR1
 816 00bc 00000000 		.word	.LANCHOR2
 817 00c0 F0ED00E0 		.word	-536810000
 818              	.LBE353:
 819              	.LBE354:
 820              		.cfi_endproc
 821              	.LFE94:
 823              		.section	.text.tud_task_event_ready,"ax",%progbits
 824              		.align	1
 825              		.p2align 2,,3
 826              		.global	tud_task_event_ready
 827              		.syntax unified
 828              		.thumb
 829              		.thumb_func
 830              		.fpu fpv4-sp-d16
 832              	tud_task_event_ready:
 833              	.LFB97:
 448:/Users/joostbooy/Desktop/Code/stm32/lib/tinyusb/src/device/usbd.c ****   // Skip if stack is not initialized
 834              		.loc 1 448 1 view -0
 835              		.cfi_startproc
ARM GAS  /var/folders/84/_x1cyy_j36g486tldtwl37280000gn/T//cch4UlI6.s 			page 41


 836              		@ args = 0, pretend = 0, frame = 0
 837              		@ frame_needed = 0, uses_anonymous_args = 0
 450:/Users/joostbooy/Desktop/Code/stm32/lib/tinyusb/src/device/usbd.c **** 
 838              		.loc 1 450 3 view .LVU202
 839              	.LBB355:
 840              	.LBI355:
 377:/Users/joostbooy/Desktop/Code/stm32/lib/tinyusb/src/device/usbd.c ****   return _usbd_rhport != RHPORT_INVALID;
 841              		.loc 1 377 6 view .LVU203
 842              	.LBB356:
 378:/Users/joostbooy/Desktop/Code/stm32/lib/tinyusb/src/device/usbd.c **** }
 843              		.loc 1 378 3 view .LVU204
 844              	.LBE356:
 845              	.LBE355:
 448:/Users/joostbooy/Desktop/Code/stm32/lib/tinyusb/src/device/usbd.c ****   // Skip if stack is not initialized
 846              		.loc 1 448 1 is_stmt 0 view .LVU205
 847 0000 08B5     		push	{r3, lr}
 848              		.cfi_def_cfa_offset 8
 849              		.cfi_offset 3, -8
 850              		.cfi_offset 14, -4
 851              	.LBB358:
 852              	.LBB357:
 378:/Users/joostbooy/Desktop/Code/stm32/lib/tinyusb/src/device/usbd.c **** }
 853              		.loc 1 378 23 view .LVU206
 854 0002 074B     		ldr	r3, .L89
 855              	.LBE357:
 856              	.LBE358:
 450:/Users/joostbooy/Desktop/Code/stm32/lib/tinyusb/src/device/usbd.c **** 
 857              		.loc 1 450 6 view .LVU207
 858 0004 1878     		ldrb	r0, [r3]	@ zero_extendqisi2
 859 0006 FF28     		cmp	r0, #255
 860 0008 08D0     		beq	.L87
 452:/Users/joostbooy/Desktop/Code/stm32/lib/tinyusb/src/device/usbd.c **** }
 861              		.loc 1 452 3 is_stmt 1 view .LVU208
 862              	.LVL43:
 863              	.LBB359:
 864              	.LBI359:
 144:/Users/joostbooy/Desktop/Code/stm32/lib/tinyusb/src/osal/osal_none.h **** }
 145:/Users/joostbooy/Desktop/Code/stm32/lib/tinyusb/src/osal/osal_none.h **** 
 146:/Users/joostbooy/Desktop/Code/stm32/lib/tinyusb/src/osal/osal_none.h **** TU_ATTR_ALWAYS_INLINE static inline bool osal_queue_receive(osal_queue_t qhdl, void* data, uint32_t
 147:/Users/joostbooy/Desktop/Code/stm32/lib/tinyusb/src/osal/osal_none.h ****   (void) msec; // not used, always behave as msec = 0
 148:/Users/joostbooy/Desktop/Code/stm32/lib/tinyusb/src/osal/osal_none.h **** 
 149:/Users/joostbooy/Desktop/Code/stm32/lib/tinyusb/src/osal/osal_none.h ****   _osal_q_lock(qhdl);
 150:/Users/joostbooy/Desktop/Code/stm32/lib/tinyusb/src/osal/osal_none.h ****   bool success = tu_fifo_read(&qhdl->ff, data);
 151:/Users/joostbooy/Desktop/Code/stm32/lib/tinyusb/src/osal/osal_none.h ****   _osal_q_unlock(qhdl);
 152:/Users/joostbooy/Desktop/Code/stm32/lib/tinyusb/src/osal/osal_none.h **** 
 153:/Users/joostbooy/Desktop/Code/stm32/lib/tinyusb/src/osal/osal_none.h ****   return success;
 154:/Users/joostbooy/Desktop/Code/stm32/lib/tinyusb/src/osal/osal_none.h **** }
 155:/Users/joostbooy/Desktop/Code/stm32/lib/tinyusb/src/osal/osal_none.h **** 
 156:/Users/joostbooy/Desktop/Code/stm32/lib/tinyusb/src/osal/osal_none.h **** TU_ATTR_ALWAYS_INLINE static inline bool osal_queue_send(osal_queue_t qhdl, void const* data, bool 
 157:/Users/joostbooy/Desktop/Code/stm32/lib/tinyusb/src/osal/osal_none.h ****   if (!in_isr) {
 158:/Users/joostbooy/Desktop/Code/stm32/lib/tinyusb/src/osal/osal_none.h ****     _osal_q_lock(qhdl);
 159:/Users/joostbooy/Desktop/Code/stm32/lib/tinyusb/src/osal/osal_none.h ****   }
 160:/Users/joostbooy/Desktop/Code/stm32/lib/tinyusb/src/osal/osal_none.h **** 
 161:/Users/joostbooy/Desktop/Code/stm32/lib/tinyusb/src/osal/osal_none.h ****   bool success = tu_fifo_write(&qhdl->ff, data);
 162:/Users/joostbooy/Desktop/Code/stm32/lib/tinyusb/src/osal/osal_none.h **** 
 163:/Users/joostbooy/Desktop/Code/stm32/lib/tinyusb/src/osal/osal_none.h ****   if (!in_isr) {
 164:/Users/joostbooy/Desktop/Code/stm32/lib/tinyusb/src/osal/osal_none.h ****     _osal_q_unlock(qhdl);
ARM GAS  /var/folders/84/_x1cyy_j36g486tldtwl37280000gn/T//cch4UlI6.s 			page 42


 165:/Users/joostbooy/Desktop/Code/stm32/lib/tinyusb/src/osal/osal_none.h ****   }
 166:/Users/joostbooy/Desktop/Code/stm32/lib/tinyusb/src/osal/osal_none.h **** 
 167:/Users/joostbooy/Desktop/Code/stm32/lib/tinyusb/src/osal/osal_none.h ****   TU_ASSERT(success);
 168:/Users/joostbooy/Desktop/Code/stm32/lib/tinyusb/src/osal/osal_none.h ****   return success;
 169:/Users/joostbooy/Desktop/Code/stm32/lib/tinyusb/src/osal/osal_none.h **** }
 170:/Users/joostbooy/Desktop/Code/stm32/lib/tinyusb/src/osal/osal_none.h **** 
 171:/Users/joostbooy/Desktop/Code/stm32/lib/tinyusb/src/osal/osal_none.h **** TU_ATTR_ALWAYS_INLINE static inline bool osal_queue_empty(osal_queue_t qhdl) {
 865              		.loc 2 171 42 view .LVU209
 866              	.LBB360:
 172:/Users/joostbooy/Desktop/Code/stm32/lib/tinyusb/src/osal/osal_none.h ****   // Skip queue lock/unlock since this function is primarily called
 173:/Users/joostbooy/Desktop/Code/stm32/lib/tinyusb/src/osal/osal_none.h ****   // with interrupt disabled before going into low power mode
 174:/Users/joostbooy/Desktop/Code/stm32/lib/tinyusb/src/osal/osal_none.h ****   return tu_fifo_empty(&qhdl->ff);
 867              		.loc 2 174 3 view .LVU210
 868              	.LBE360:
 869              	.LBE359:
 452:/Users/joostbooy/Desktop/Code/stm32/lib/tinyusb/src/device/usbd.c **** }
 870              		.loc 1 452 11 is_stmt 0 view .LVU211
 871 000a 0649     		ldr	r1, .L89+4
 872              	.LBB362:
 873              	.LBB361:
 874              		.loc 2 174 10 view .LVU212
 875 000c 0868     		ldr	r0, [r1]
 876 000e 0430     		adds	r0, r0, #4
 877 0010 FFF7FEFF 		bl	tu_fifo_empty
 878              	.LVL44:
 879              		.loc 2 174 10 view .LVU213
 880              	.LBE361:
 881              	.LBE362:
 452:/Users/joostbooy/Desktop/Code/stm32/lib/tinyusb/src/device/usbd.c **** }
 882              		.loc 1 452 3 view .LVU214
 883 0014 80F00102 		eor	r2, r0, #1
 884 0018 D0B2     		uxtb	r0, r2
 453:/Users/joostbooy/Desktop/Code/stm32/lib/tinyusb/src/device/usbd.c **** 
 885              		.loc 1 453 1 view .LVU215
 886 001a 08BD     		pop	{r3, pc}
 887              	.L87:
 450:/Users/joostbooy/Desktop/Code/stm32/lib/tinyusb/src/device/usbd.c **** 
 888              		.loc 1 450 31 view .LVU216
 889 001c 0020     		movs	r0, #0
 453:/Users/joostbooy/Desktop/Code/stm32/lib/tinyusb/src/device/usbd.c **** 
 890              		.loc 1 453 1 view .LVU217
 891 001e 08BD     		pop	{r3, pc}
 892              	.L90:
 893              		.align	2
 894              	.L89:
 895 0020 00000000 		.word	.LANCHOR4
 896 0024 00000000 		.word	.LANCHOR6
 897              		.cfi_endproc
 898              	.LFE97:
 900              		.section	.text.dcd_event_handler,"ax",%progbits
 901              		.align	1
 902              		.p2align 2,,3
 903              		.global	dcd_event_handler
 904              		.syntax unified
 905              		.thumb
 906              		.thumb_func
 907              		.fpu fpv4-sp-d16
ARM GAS  /var/folders/84/_x1cyy_j36g486tldtwl37280000gn/T//cch4UlI6.s 			page 43


 909              	dcd_event_handler:
 910              	.LVL45:
 911              	.LFB103:
1079:/Users/joostbooy/Desktop/Code/stm32/lib/tinyusb/src/device/usbd.c ****   bool send = false;
 912              		.loc 1 1079 81 is_stmt 1 view -0
 913              		.cfi_startproc
 914              		@ args = 0, pretend = 0, frame = 16
 915              		@ frame_needed = 0, uses_anonymous_args = 0
1080:/Users/joostbooy/Desktop/Code/stm32/lib/tinyusb/src/device/usbd.c ****   switch (event->event_id) {
 916              		.loc 1 1080 3 view .LVU219
1081:/Users/joostbooy/Desktop/Code/stm32/lib/tinyusb/src/device/usbd.c ****     case DCD_EVENT_UNPLUGGED:
 917              		.loc 1 1081 3 view .LVU220
1079:/Users/joostbooy/Desktop/Code/stm32/lib/tinyusb/src/device/usbd.c ****   bool send = false;
 918              		.loc 1 1079 81 is_stmt 0 view .LVU221
 919 0000 F0B5     		push	{r4, r5, r6, r7, lr}
 920              		.cfi_def_cfa_offset 20
 921              		.cfi_offset 4, -20
 922              		.cfi_offset 5, -16
 923              		.cfi_offset 6, -12
 924              		.cfi_offset 7, -8
 925              		.cfi_offset 14, -4
 926 0002 4378     		ldrb	r3, [r0, #1]	@ zero_extendqisi2
 927 0004 0446     		mov	r4, r0
 928 0006 981E     		subs	r0, r3, #2
 929              	.LVL46:
1079:/Users/joostbooy/Desktop/Code/stm32/lib/tinyusb/src/device/usbd.c ****   bool send = false;
 930              		.loc 1 1079 81 view .LVU222
 931 0008 85B0     		sub	sp, sp, #20
 932              		.cfi_def_cfa_offset 40
1079:/Users/joostbooy/Desktop/Code/stm32/lib/tinyusb/src/device/usbd.c ****   bool send = false;
 933              		.loc 1 1079 81 view .LVU223
 934 000a 0D46     		mov	r5, r1
 935 000c 0328     		cmp	r0, #3
 936 000e 12D8     		bhi	.L92
 937 0010 DFE800F0 		tbb	[pc, r0]
 938              	.L94:
 939 0014 02       		.byte	(.L97-.L94)/2
 940 0015 52       		.byte	(.L96-.L94)/2
 941 0016 45       		.byte	(.L95-.L94)/2
 942 0017 38       		.byte	(.L93-.L94)/2
 943              		.p2align 1
 944              	.L97:
1083:/Users/joostbooy/Desktop/Code/stm32/lib/tinyusb/src/device/usbd.c ****       _usbd_dev.addressed = 0;
 945              		.loc 1 1083 7 is_stmt 1 view .LVU224
1083:/Users/joostbooy/Desktop/Code/stm32/lib/tinyusb/src/device/usbd.c ****       _usbd_dev.addressed = 0;
 946              		.loc 1 1083 27 is_stmt 0 view .LVU225
 947 0018 554E     		ldr	r6, .L141
 948 001a 3178     		ldrb	r1, [r6]	@ zero_extendqisi2
 949              	.LVL47:
1083:/Users/joostbooy/Desktop/Code/stm32/lib/tinyusb/src/device/usbd.c ****       _usbd_dev.addressed = 0;
 950              		.loc 1 1083 27 view .LVU226
 951 001c 6FF30001 		bfc	r1, #0, #1
 952 0020 3170     		strb	r1, [r6]
1084:/Users/joostbooy/Desktop/Code/stm32/lib/tinyusb/src/device/usbd.c ****       _usbd_dev.cfg_num = 0;
 953              		.loc 1 1084 7 is_stmt 1 view .LVU227
1084:/Users/joostbooy/Desktop/Code/stm32/lib/tinyusb/src/device/usbd.c ****       _usbd_dev.cfg_num = 0;
 954              		.loc 1 1084 27 is_stmt 0 view .LVU228
ARM GAS  /var/folders/84/_x1cyy_j36g486tldtwl37280000gn/T//cch4UlI6.s 			page 44


 955 0022 3778     		ldrb	r7, [r6]	@ zero_extendqisi2
1085:/Users/joostbooy/Desktop/Code/stm32/lib/tinyusb/src/device/usbd.c ****       _usbd_dev.suspended = 0;
 956              		.loc 1 1085 25 view .LVU229
 957 0024 0020     		movs	r0, #0
1084:/Users/joostbooy/Desktop/Code/stm32/lib/tinyusb/src/device/usbd.c ****       _usbd_dev.cfg_num = 0;
 958              		.loc 1 1084 27 view .LVU230
 959 0026 6FF34107 		bfc	r7, #1, #1
 960 002a 3770     		strb	r7, [r6]
1085:/Users/joostbooy/Desktop/Code/stm32/lib/tinyusb/src/device/usbd.c ****       _usbd_dev.suspended = 0;
 961              		.loc 1 1085 7 is_stmt 1 view .LVU231
1085:/Users/joostbooy/Desktop/Code/stm32/lib/tinyusb/src/device/usbd.c ****       _usbd_dev.suspended = 0;
 962              		.loc 1 1085 25 is_stmt 0 view .LVU232
 963 002c 7070     		strb	r0, [r6, #1]
1086:/Users/joostbooy/Desktop/Code/stm32/lib/tinyusb/src/device/usbd.c ****       send = true;
 964              		.loc 1 1086 7 is_stmt 1 view .LVU233
1086:/Users/joostbooy/Desktop/Code/stm32/lib/tinyusb/src/device/usbd.c ****       send = true;
 965              		.loc 1 1086 27 is_stmt 0 view .LVU234
 966 002e 3278     		ldrb	r2, [r6]	@ zero_extendqisi2
 967 0030 60F38202 		bfi	r2, r0, #2, #1
 968 0034 3270     		strb	r2, [r6]
1087:/Users/joostbooy/Desktop/Code/stm32/lib/tinyusb/src/device/usbd.c ****       break;
 969              		.loc 1 1087 7 is_stmt 1 view .LVU235
 970              	.LVL48:
1088:/Users/joostbooy/Desktop/Code/stm32/lib/tinyusb/src/device/usbd.c **** 
 971              		.loc 1 1088 7 view .LVU236
1135:/Users/joostbooy/Desktop/Code/stm32/lib/tinyusb/src/device/usbd.c ****     queue_event(event, in_isr);
 972              		.loc 1 1135 3 view .LVU237
 973              	.L92:
1136:/Users/joostbooy/Desktop/Code/stm32/lib/tinyusb/src/device/usbd.c ****   }
 974              		.loc 1 1136 5 view .LVU238
 975              	.LBB363:
 976              	.LBI363:
 276:/Users/joostbooy/Desktop/Code/stm32/lib/tinyusb/src/device/usbd.c ****   bool ret = osal_queue_send(_usbd_q, event, in_isr);
 977              		.loc 1 276 42 view .LVU239
 978              	.LBB364:
 277:/Users/joostbooy/Desktop/Code/stm32/lib/tinyusb/src/device/usbd.c ****   if (tud_event_hook_cb) tud_event_hook_cb(event->rhport, event->event_id, in_isr);
 979              		.loc 1 277 3 view .LVU240
 277:/Users/joostbooy/Desktop/Code/stm32/lib/tinyusb/src/device/usbd.c ****   if (tud_event_hook_cb) tud_event_hook_cb(event->rhport, event->event_id, in_isr);
 980              		.loc 1 277 14 is_stmt 0 view .LVU241
 981 0036 4F4B     		ldr	r3, .L141+4
 982 0038 1F68     		ldr	r7, [r3]
 983              	.LVL49:
 984              	.LBB365:
 985              	.LBI365:
 156:/Users/joostbooy/Desktop/Code/stm32/lib/tinyusb/src/osal/osal_none.h ****   if (!in_isr) {
 986              		.loc 2 156 42 is_stmt 1 view .LVU242
 987              	.LBB366:
 157:/Users/joostbooy/Desktop/Code/stm32/lib/tinyusb/src/osal/osal_none.h ****     _osal_q_lock(qhdl);
 988              		.loc 2 157 3 view .LVU243
 157:/Users/joostbooy/Desktop/Code/stm32/lib/tinyusb/src/osal/osal_none.h ****     _osal_q_lock(qhdl);
 989              		.loc 2 157 6 is_stmt 0 view .LVU244
 990 003a B5B9     		cbnz	r5, .L109
 991              	.L137:
 158:/Users/joostbooy/Desktop/Code/stm32/lib/tinyusb/src/osal/osal_none.h ****   }
 992              		.loc 2 158 5 is_stmt 1 view .LVU245
 993              	.LVL50:
 994              	.LBB367:
ARM GAS  /var/folders/84/_x1cyy_j36g486tldtwl37280000gn/T//cch4UlI6.s 			page 45


 995              	.LBI367:
 130:/Users/joostbooy/Desktop/Code/stm32/lib/tinyusb/src/osal/osal_none.h ****   // disable dcd/hcd interrupt
 996              		.loc 2 130 42 view .LVU246
 997              	.LBB368:
 132:/Users/joostbooy/Desktop/Code/stm32/lib/tinyusb/src/osal/osal_none.h **** }
 998              		.loc 2 132 3 view .LVU247
 999 003c 3E46     		mov	r6, r7
 1000 003e 2846     		mov	r0, r5
 1001 0040 56F8041B 		ldr	r1, [r6], #4
 1002 0044 8847     		blx	r1
 1003              	.LVL51:
 132:/Users/joostbooy/Desktop/Code/stm32/lib/tinyusb/src/osal/osal_none.h **** }
 1004              		.loc 2 132 3 is_stmt 0 view .LVU248
 1005              	.LBE368:
 1006              	.LBE367:
 161:/Users/joostbooy/Desktop/Code/stm32/lib/tinyusb/src/osal/osal_none.h **** 
 1007              		.loc 2 161 3 is_stmt 1 view .LVU249
 161:/Users/joostbooy/Desktop/Code/stm32/lib/tinyusb/src/osal/osal_none.h **** 
 1008              		.loc 2 161 18 is_stmt 0 view .LVU250
 1009 0046 3046     		mov	r0, r6
 1010 0048 2146     		mov	r1, r4
 1011 004a FFF7FEFF 		bl	tu_fifo_write
 1012              	.LVL52:
 1013              	.LBB369:
 1014              	.LBB370:
 138:/Users/joostbooy/Desktop/Code/stm32/lib/tinyusb/src/osal/osal_none.h **** }
 1015              		.loc 2 138 3 view .LVU251
 1016 004e 3A68     		ldr	r2, [r7]
 1017              	.LBE370:
 1018              	.LBE369:
 161:/Users/joostbooy/Desktop/Code/stm32/lib/tinyusb/src/osal/osal_none.h **** 
 1019              		.loc 2 161 18 view .LVU252
 1020 0050 0646     		mov	r6, r0
 1021              	.LBB373:
 1022              	.LBB371:
 138:/Users/joostbooy/Desktop/Code/stm32/lib/tinyusb/src/osal/osal_none.h **** }
 1023              		.loc 2 138 3 view .LVU253
 1024 0052 0120     		movs	r0, #1
 1025              	.LVL53:
 138:/Users/joostbooy/Desktop/Code/stm32/lib/tinyusb/src/osal/osal_none.h **** }
 1026              		.loc 2 138 3 view .LVU254
 1027              	.LBE371:
 1028              	.LBE373:
 163:/Users/joostbooy/Desktop/Code/stm32/lib/tinyusb/src/osal/osal_none.h ****     _osal_q_unlock(qhdl);
 1029              		.loc 2 163 3 is_stmt 1 view .LVU255
 164:/Users/joostbooy/Desktop/Code/stm32/lib/tinyusb/src/osal/osal_none.h ****   }
 1030              		.loc 2 164 5 view .LVU256
 1031              	.LBB374:
 1032              	.LBI369:
 136:/Users/joostbooy/Desktop/Code/stm32/lib/tinyusb/src/osal/osal_none.h ****   // enable dcd/hcd interrupt
 1033              		.loc 2 136 42 view .LVU257
 1034              	.LBB372:
 138:/Users/joostbooy/Desktop/Code/stm32/lib/tinyusb/src/osal/osal_none.h **** }
 1035              		.loc 2 138 3 view .LVU258
 1036 0054 9047     		blx	r2
 1037              	.LVL54:
 138:/Users/joostbooy/Desktop/Code/stm32/lib/tinyusb/src/osal/osal_none.h **** }
ARM GAS  /var/folders/84/_x1cyy_j36g486tldtwl37280000gn/T//cch4UlI6.s 			page 46


 1038              		.loc 2 138 3 is_stmt 0 view .LVU259
 1039              	.LBE372:
 1040              	.LBE374:
 167:/Users/joostbooy/Desktop/Code/stm32/lib/tinyusb/src/osal/osal_none.h ****   return success;
 1041              		.loc 2 167 3 is_stmt 1 view .LVU260
 167:/Users/joostbooy/Desktop/Code/stm32/lib/tinyusb/src/osal/osal_none.h ****   return success;
 1042              		.loc 2 167 3 view .LVU261
 1043 0056 7EB1     		cbz	r6, .L136
 1044              	.L110:
 1045              	.LVL55:
 167:/Users/joostbooy/Desktop/Code/stm32/lib/tinyusb/src/osal/osal_none.h ****   return success;
 1046              		.loc 2 167 3 is_stmt 0 view .LVU262
 1047              	.LBE366:
 1048              	.LBE365:
 278:/Users/joostbooy/Desktop/Code/stm32/lib/tinyusb/src/device/usbd.c ****   return ret;
 1049              		.loc 1 278 3 is_stmt 1 view .LVU263
 278:/Users/joostbooy/Desktop/Code/stm32/lib/tinyusb/src/device/usbd.c ****   return ret;
 1050              		.loc 1 278 6 is_stmt 0 view .LVU264
 1051 0058 474F     		ldr	r7, .L141+8
 1052 005a 27B1     		cbz	r7, .L91
 278:/Users/joostbooy/Desktop/Code/stm32/lib/tinyusb/src/device/usbd.c ****   return ret;
 1053              		.loc 1 278 26 is_stmt 1 view .LVU265
 1054 005c 6178     		ldrb	r1, [r4, #1]	@ zero_extendqisi2
 1055 005e 2078     		ldrb	r0, [r4]	@ zero_extendqisi2
 1056 0060 2A46     		mov	r2, r5
 1057 0062 FFF7FEFF 		bl	tud_event_hook_cb
 1058              	.LVL56:
 1059              	.L91:
 278:/Users/joostbooy/Desktop/Code/stm32/lib/tinyusb/src/device/usbd.c ****   return ret;
 1060              		.loc 1 278 26 is_stmt 0 view .LVU266
 1061              	.LBE364:
 1062              	.LBE363:
1138:/Users/joostbooy/Desktop/Code/stm32/lib/tinyusb/src/device/usbd.c **** 
 1063              		.loc 1 1138 1 view .LVU267
 1064 0066 05B0     		add	sp, sp, #20
 1065              		.cfi_remember_state
 1066              		.cfi_def_cfa_offset 20
 1067              		@ sp needed
 1068 0068 F0BD     		pop	{r4, r5, r6, r7, pc}
 1069              	.LVL57:
 1070              	.L109:
 1071              		.cfi_restore_state
 1072              	.LBB388:
 1073              	.LBB382:
 1074              	.LBB379:
 1075              	.LBB376:
 161:/Users/joostbooy/Desktop/Code/stm32/lib/tinyusb/src/osal/osal_none.h **** 
 1076              		.loc 2 161 3 is_stmt 1 view .LVU268
 161:/Users/joostbooy/Desktop/Code/stm32/lib/tinyusb/src/osal/osal_none.h **** 
 1077              		.loc 2 161 18 is_stmt 0 view .LVU269
 1078 006a 381D     		adds	r0, r7, #4
 1079 006c 2146     		mov	r1, r4
 1080 006e FFF7FEFF 		bl	tu_fifo_write
 1081              	.LVL58:
 1082 0072 0646     		mov	r6, r0
 1083              	.LVL59:
 163:/Users/joostbooy/Desktop/Code/stm32/lib/tinyusb/src/osal/osal_none.h ****     _osal_q_unlock(qhdl);
ARM GAS  /var/folders/84/_x1cyy_j36g486tldtwl37280000gn/T//cch4UlI6.s 			page 47


 1084              		.loc 2 163 3 is_stmt 1 view .LVU270
 167:/Users/joostbooy/Desktop/Code/stm32/lib/tinyusb/src/osal/osal_none.h ****   return success;
 1085              		.loc 2 167 3 view .LVU271
 167:/Users/joostbooy/Desktop/Code/stm32/lib/tinyusb/src/osal/osal_none.h ****   return success;
 1086              		.loc 2 167 3 view .LVU272
 1087 0074 002E     		cmp	r6, #0
 1088 0076 EFD1     		bne	.L110
 1089              	.L136:
 167:/Users/joostbooy/Desktop/Code/stm32/lib/tinyusb/src/osal/osal_none.h ****   return success;
 1090              		.loc 2 167 3 view .LVU273
 167:/Users/joostbooy/Desktop/Code/stm32/lib/tinyusb/src/osal/osal_none.h ****   return success;
 1091              		.loc 2 167 3 view .LVU274
 167:/Users/joostbooy/Desktop/Code/stm32/lib/tinyusb/src/osal/osal_none.h ****   return success;
 1092              		.loc 2 167 3 view .LVU275
 167:/Users/joostbooy/Desktop/Code/stm32/lib/tinyusb/src/osal/osal_none.h ****   return success;
 1093              		.loc 2 167 3 view .LVU276
 1094              	.LBB375:
 167:/Users/joostbooy/Desktop/Code/stm32/lib/tinyusb/src/osal/osal_none.h ****   return success;
 1095              		.loc 2 167 3 view .LVU277
 1096              	.LVL60:
 167:/Users/joostbooy/Desktop/Code/stm32/lib/tinyusb/src/osal/osal_none.h ****   return success;
 1097              		.loc 2 167 3 view .LVU278
 1098 0078 4048     		ldr	r0, .L141+12
 1099 007a 0368     		ldr	r3, [r0]
 1100 007c DB07     		lsls	r3, r3, #31
 1101 007e EBD5     		bpl	.L110
 167:/Users/joostbooy/Desktop/Code/stm32/lib/tinyusb/src/osal/osal_none.h ****   return success;
 1102              		.loc 2 167 3 view .LVU279
 1103              		.syntax unified
 1104              	@ 167 "/Users/joostbooy/Desktop/Code/stm32/lib/tinyusb/src/osal/osal_none.h" 1
 1105 0080 00BE     		BKPT #0
 1106              	
 1107              	@ 0 "" 2
 1108              		.thumb
 1109              		.syntax unified
 1110 0082 E9E7     		b	.L110
 1111              	.LVL61:
 1112              	.L93:
 167:/Users/joostbooy/Desktop/Code/stm32/lib/tinyusb/src/osal/osal_none.h ****   return success;
 1113              		.loc 2 167 3 is_stmt 0 view .LVU280
 1114              	.LBE375:
 1115              	.LBE376:
 1116              	.LBE379:
 1117              	.LBE382:
 1118              	.LBE388:
1103:/Users/joostbooy/Desktop/Code/stm32/lib/tinyusb/src/device/usbd.c ****         _usbd_dev.suspended = 0;
 1119              		.loc 1 1103 7 is_stmt 1 view .LVU281
1103:/Users/joostbooy/Desktop/Code/stm32/lib/tinyusb/src/device/usbd.c ****         _usbd_dev.suspended = 0;
 1120              		.loc 1 1103 20 is_stmt 0 view .LVU282
 1121 0084 3A49     		ldr	r1, .L141
 1122              	.LVL62:
1103:/Users/joostbooy/Desktop/Code/stm32/lib/tinyusb/src/device/usbd.c ****         _usbd_dev.suspended = 0;
 1123              		.loc 1 1103 20 view .LVU283
 1124 0086 0A78     		ldrb	r2, [r1]	@ zero_extendqisi2
1103:/Users/joostbooy/Desktop/Code/stm32/lib/tinyusb/src/device/usbd.c ****         _usbd_dev.suspended = 0;
 1125              		.loc 1 1103 10 view .LVU284
 1126 0088 D007     		lsls	r0, r2, #31
ARM GAS  /var/folders/84/_x1cyy_j36g486tldtwl37280000gn/T//cch4UlI6.s 			page 48


 1127 008a ECD5     		bpl	.L91
1104:/Users/joostbooy/Desktop/Code/stm32/lib/tinyusb/src/device/usbd.c ****         send = true;
 1128              		.loc 1 1104 9 is_stmt 1 view .LVU285
1104:/Users/joostbooy/Desktop/Code/stm32/lib/tinyusb/src/device/usbd.c ****         send = true;
 1129              		.loc 1 1104 29 is_stmt 0 view .LVU286
 1130 008c 0E78     		ldrb	r6, [r1]	@ zero_extendqisi2
 1131              	.LBB389:
 1132              	.LBB383:
 277:/Users/joostbooy/Desktop/Code/stm32/lib/tinyusb/src/device/usbd.c ****   if (tud_event_hook_cb) tud_event_hook_cb(event->rhport, event->event_id, in_isr);
 1133              		.loc 1 277 14 view .LVU287
 1134 008e 394B     		ldr	r3, .L141+4
 1135              	.LBE383:
 1136              	.LBE389:
1104:/Users/joostbooy/Desktop/Code/stm32/lib/tinyusb/src/device/usbd.c ****         send = true;
 1137              		.loc 1 1104 29 view .LVU288
 1138 0090 6FF38206 		bfc	r6, #2, #1
 1139              	.LBB390:
 1140              	.LBB384:
 277:/Users/joostbooy/Desktop/Code/stm32/lib/tinyusb/src/device/usbd.c ****   if (tud_event_hook_cb) tud_event_hook_cb(event->rhport, event->event_id, in_isr);
 1141              		.loc 1 277 14 view .LVU289
 1142 0094 1F68     		ldr	r7, [r3]
 1143              	.LBE384:
 1144              	.LBE390:
1104:/Users/joostbooy/Desktop/Code/stm32/lib/tinyusb/src/device/usbd.c ****         send = true;
 1145              		.loc 1 1104 29 view .LVU290
 1146 0096 0E70     		strb	r6, [r1]
1105:/Users/joostbooy/Desktop/Code/stm32/lib/tinyusb/src/device/usbd.c ****       }
 1147              		.loc 1 1105 9 is_stmt 1 view .LVU291
 1148              	.LVL63:
1135:/Users/joostbooy/Desktop/Code/stm32/lib/tinyusb/src/device/usbd.c ****     queue_event(event, in_isr);
 1149              		.loc 1 1135 3 view .LVU292
1136:/Users/joostbooy/Desktop/Code/stm32/lib/tinyusb/src/device/usbd.c ****   }
 1150              		.loc 1 1136 5 view .LVU293
 1151              	.LBB391:
 276:/Users/joostbooy/Desktop/Code/stm32/lib/tinyusb/src/device/usbd.c ****   bool ret = osal_queue_send(_usbd_q, event, in_isr);
 1152              		.loc 1 276 42 view .LVU294
 1153              	.LBB385:
 277:/Users/joostbooy/Desktop/Code/stm32/lib/tinyusb/src/device/usbd.c ****   if (tud_event_hook_cb) tud_event_hook_cb(event->rhport, event->event_id, in_isr);
 1154              		.loc 1 277 3 view .LVU295
 1155              	.LBB380:
 156:/Users/joostbooy/Desktop/Code/stm32/lib/tinyusb/src/osal/osal_none.h ****   if (!in_isr) {
 1156              		.loc 2 156 42 view .LVU296
 1157              	.LBB377:
 157:/Users/joostbooy/Desktop/Code/stm32/lib/tinyusb/src/osal/osal_none.h ****     _osal_q_lock(qhdl);
 1158              		.loc 2 157 3 view .LVU297
 157:/Users/joostbooy/Desktop/Code/stm32/lib/tinyusb/src/osal/osal_none.h ****     _osal_q_lock(qhdl);
 1159              		.loc 2 157 6 is_stmt 0 view .LVU298
 1160 0098 002D     		cmp	r5, #0
 1161 009a E6D1     		bne	.L109
 1162 009c CEE7     		b	.L137
 1163              	.LVL64:
 1164              	.L95:
 157:/Users/joostbooy/Desktop/Code/stm32/lib/tinyusb/src/osal/osal_none.h ****     _osal_q_lock(qhdl);
 1165              		.loc 2 157 6 view .LVU299
 1166              	.LBE377:
 1167              	.LBE380:
 1168              	.LBE385:
ARM GAS  /var/folders/84/_x1cyy_j36g486tldtwl37280000gn/T//cch4UlI6.s 			page 49


 1169              	.LBE391:
1095:/Users/joostbooy/Desktop/Code/stm32/lib/tinyusb/src/device/usbd.c ****         _usbd_dev.suspended = 1;
 1170              		.loc 1 1095 7 is_stmt 1 view .LVU300
1095:/Users/joostbooy/Desktop/Code/stm32/lib/tinyusb/src/device/usbd.c ****         _usbd_dev.suspended = 1;
 1171              		.loc 1 1095 20 is_stmt 0 view .LVU301
 1172 009e 344F     		ldr	r7, .L141
 1173 00a0 3B78     		ldrb	r3, [r7]	@ zero_extendqisi2
1095:/Users/joostbooy/Desktop/Code/stm32/lib/tinyusb/src/device/usbd.c ****         _usbd_dev.suspended = 1;
 1174              		.loc 1 1095 10 view .LVU302
 1175 00a2 DE07     		lsls	r6, r3, #31
 1176 00a4 DFD5     		bpl	.L91
1096:/Users/joostbooy/Desktop/Code/stm32/lib/tinyusb/src/device/usbd.c ****         send = true;
 1177              		.loc 1 1096 9 is_stmt 1 view .LVU303
1096:/Users/joostbooy/Desktop/Code/stm32/lib/tinyusb/src/device/usbd.c ****         send = true;
 1178              		.loc 1 1096 29 is_stmt 0 view .LVU304
 1179 00a6 3878     		ldrb	r0, [r7]	@ zero_extendqisi2
 1180              	.LBB392:
 1181              	.LBB386:
 277:/Users/joostbooy/Desktop/Code/stm32/lib/tinyusb/src/device/usbd.c ****   if (tud_event_hook_cb) tud_event_hook_cb(event->rhport, event->event_id, in_isr);
 1182              		.loc 1 277 14 view .LVU305
 1183 00a8 324B     		ldr	r3, .L141+4
 1184              	.LBE386:
 1185              	.LBE392:
1096:/Users/joostbooy/Desktop/Code/stm32/lib/tinyusb/src/device/usbd.c ****         send = true;
 1186              		.loc 1 1096 29 view .LVU306
 1187 00aa 40F00401 		orr	r1, r0, #4
 1188              	.LVL65:
1096:/Users/joostbooy/Desktop/Code/stm32/lib/tinyusb/src/device/usbd.c ****         send = true;
 1189              		.loc 1 1096 29 view .LVU307
 1190 00ae 3970     		strb	r1, [r7]
1097:/Users/joostbooy/Desktop/Code/stm32/lib/tinyusb/src/device/usbd.c ****       }
 1191              		.loc 1 1097 9 is_stmt 1 view .LVU308
 1192              	.LVL66:
1135:/Users/joostbooy/Desktop/Code/stm32/lib/tinyusb/src/device/usbd.c ****     queue_event(event, in_isr);
 1193              		.loc 1 1135 3 view .LVU309
1136:/Users/joostbooy/Desktop/Code/stm32/lib/tinyusb/src/device/usbd.c ****   }
 1194              		.loc 1 1136 5 view .LVU310
 1195              	.LBB393:
 276:/Users/joostbooy/Desktop/Code/stm32/lib/tinyusb/src/device/usbd.c ****   bool ret = osal_queue_send(_usbd_q, event, in_isr);
 1196              		.loc 1 276 42 view .LVU311
 1197              	.LBB387:
 277:/Users/joostbooy/Desktop/Code/stm32/lib/tinyusb/src/device/usbd.c ****   if (tud_event_hook_cb) tud_event_hook_cb(event->rhport, event->event_id, in_isr);
 1198              		.loc 1 277 3 view .LVU312
 277:/Users/joostbooy/Desktop/Code/stm32/lib/tinyusb/src/device/usbd.c ****   if (tud_event_hook_cb) tud_event_hook_cb(event->rhport, event->event_id, in_isr);
 1199              		.loc 1 277 14 is_stmt 0 view .LVU313
 1200 00b0 1F68     		ldr	r7, [r3]
 1201              	.LVL67:
 1202              	.LBB381:
 156:/Users/joostbooy/Desktop/Code/stm32/lib/tinyusb/src/osal/osal_none.h ****   if (!in_isr) {
 1203              		.loc 2 156 42 is_stmt 1 view .LVU314
 1204              	.LBB378:
 157:/Users/joostbooy/Desktop/Code/stm32/lib/tinyusb/src/osal/osal_none.h ****     _osal_q_lock(qhdl);
 1205              		.loc 2 157 3 view .LVU315
 157:/Users/joostbooy/Desktop/Code/stm32/lib/tinyusb/src/osal/osal_none.h ****     _osal_q_lock(qhdl);
 1206              		.loc 2 157 6 is_stmt 0 view .LVU316
 1207 00b2 002D     		cmp	r5, #0
 1208 00b4 D9D1     		bne	.L109
ARM GAS  /var/folders/84/_x1cyy_j36g486tldtwl37280000gn/T//cch4UlI6.s 			page 50


 1209 00b6 C1E7     		b	.L137
 1210              	.LVL68:
 1211              	.L96:
 157:/Users/joostbooy/Desktop/Code/stm32/lib/tinyusb/src/osal/osal_none.h ****     _osal_q_lock(qhdl);
 1212              		.loc 2 157 6 view .LVU317
 1213              	.LBE378:
 1214              	.LBE381:
 1215              	.LBE387:
 1216              	.LBE393:
1112:/Users/joostbooy/Desktop/Code/stm32/lib/tinyusb/src/device/usbd.c ****         _usbd_dev.suspended = 0;
 1217              		.loc 1 1112 7 is_stmt 1 view .LVU318
1112:/Users/joostbooy/Desktop/Code/stm32/lib/tinyusb/src/device/usbd.c ****         _usbd_dev.suspended = 0;
 1218              		.loc 1 1112 20 is_stmt 0 view .LVU319
 1219 00b8 2D4E     		ldr	r6, .L141
 1220 00ba 96F800C0 		ldrb	ip, [r6]	@ zero_extendqisi2
1112:/Users/joostbooy/Desktop/Code/stm32/lib/tinyusb/src/device/usbd.c ****         _usbd_dev.suspended = 0;
 1221              		.loc 1 1112 10 view .LVU320
 1222 00be 5FEA4C71 		lsls	r1, ip, #29
 1223              	.LVL69:
1112:/Users/joostbooy/Desktop/Code/stm32/lib/tinyusb/src/device/usbd.c ****         _usbd_dev.suspended = 0;
 1224              		.loc 1 1112 10 view .LVU321
 1225 00c2 1FD4     		bmi	.L138
 1226              	.L101:
 1227              	.LVL70:
 1228              	.LBB394:
1120:/Users/joostbooy/Desktop/Code/stm32/lib/tinyusb/src/device/usbd.c ****         usbd_class_driver_t const* driver = get_driver(i);
 1229              		.loc 1 1120 27 is_stmt 1 discriminator 1 view .LVU322
1120:/Users/joostbooy/Desktop/Code/stm32/lib/tinyusb/src/device/usbd.c ****         usbd_class_driver_t const* driver = get_driver(i);
 1230              		.loc 1 1120 29 is_stmt 0 discriminator 1 view .LVU323
 1231 00c4 2E4E     		ldr	r6, .L141+16
 1232 00c6 0025     		movs	r5, #0
 1233 00c8 3078     		ldrb	r0, [r6]	@ zero_extendqisi2
 1234 00ca 2B46     		mov	r3, r5
 1235 00cc 08E0     		b	.L108
 1236              	.LVL71:
 1237              	.L139:
 1238              	.LBB395:
 1239              	.LBB396:
 1240              	.LBB397:
 249:/Users/joostbooy/Desktop/Code/stm32/lib/tinyusb/src/device/usbd.c ****   } else if ( drvid < TOTAL_DRIVER_COUNT && BUILTIN_DRIVER_COUNT > 0 ){
 1241              		.loc 1 249 12 view .LVU324
 1242 00ce 3F68     		ldr	r7, [r7]
 1243              	.LVL72:
 253:/Users/joostbooy/Desktop/Code/stm32/lib/tinyusb/src/device/usbd.c **** }
 1244              		.loc 1 253 3 is_stmt 1 view .LVU325
 253:/Users/joostbooy/Desktop/Code/stm32/lib/tinyusb/src/device/usbd.c **** }
 1245              		.loc 1 253 3 is_stmt 0 view .LVU326
 1246              	.LBE397:
 1247              	.LBE396:
1122:/Users/joostbooy/Desktop/Code/stm32/lib/tinyusb/src/device/usbd.c ****           driver->sof(event->rhport, event->sof.frame_count);
 1248              		.loc 1 1122 9 is_stmt 1 view .LVU327
1122:/Users/joostbooy/Desktop/Code/stm32/lib/tinyusb/src/device/usbd.c ****           driver->sof(event->rhport, event->sof.frame_count);
 1249              		.loc 1 1122 12 is_stmt 0 view .LVU328
 1250 00d0 17EBCC01 		adds	r1, r7, ip, lsl #3
 1251              	.LVL73:
1122:/Users/joostbooy/Desktop/Code/stm32/lib/tinyusb/src/device/usbd.c ****           driver->sof(event->rhport, event->sof.frame_count);
 1252              		.loc 1 1122 12 view .LVU329
ARM GAS  /var/folders/84/_x1cyy_j36g486tldtwl37280000gn/T//cch4UlI6.s 			page 51


 1253 00d4 0FD1     		bne	.L106
 1254              	.LVL74:
 1255              	.L107:
1122:/Users/joostbooy/Desktop/Code/stm32/lib/tinyusb/src/device/usbd.c ****           driver->sof(event->rhport, event->sof.frame_count);
 1256              		.loc 1 1122 12 view .LVU330
 1257              	.LBE395:
1120:/Users/joostbooy/Desktop/Code/stm32/lib/tinyusb/src/device/usbd.c ****         usbd_class_driver_t const* driver = get_driver(i);
 1258              		.loc 1 1120 51 is_stmt 1 discriminator 2 view .LVU331
1120:/Users/joostbooy/Desktop/Code/stm32/lib/tinyusb/src/device/usbd.c ****         usbd_class_driver_t const* driver = get_driver(i);
 1259              		.loc 1 1120 27 discriminator 2 view .LVU332
1120:/Users/joostbooy/Desktop/Code/stm32/lib/tinyusb/src/device/usbd.c ****         usbd_class_driver_t const* driver = get_driver(i);
 1260              		.loc 1 1120 29 is_stmt 0 discriminator 2 view .LVU333
 1261 00d6 3078     		ldrb	r0, [r6]	@ zero_extendqisi2
 1262 00d8 0135     		adds	r5, r5, #1
 1263              	.LVL75:
1120:/Users/joostbooy/Desktop/Code/stm32/lib/tinyusb/src/device/usbd.c ****         usbd_class_driver_t const* driver = get_driver(i);
 1264              		.loc 1 1120 7 discriminator 2 view .LVU334
 1265 00da EBB2     		uxtb	r3, r5
 1266 00dc 9842     		cmp	r0, r3
 1267 00de C2D3     		bcc	.L91
 1268              	.L108:
 1269              	.LVL76:
 1270              	.LBB400:
1121:/Users/joostbooy/Desktop/Code/stm32/lib/tinyusb/src/device/usbd.c ****         if (driver && driver->sof) {
 1271              		.loc 1 1121 9 is_stmt 1 view .LVU335
 1272              	.LBB399:
 1273              	.LBI396:
 245:/Users/joostbooy/Desktop/Code/stm32/lib/tinyusb/src/device/usbd.c ****   usbd_class_driver_t const * driver = NULL;
 1274              		.loc 1 245 65 view .LVU336
 1275              	.LBB398:
 246:/Users/joostbooy/Desktop/Code/stm32/lib/tinyusb/src/device/usbd.c ****   if ( drvid < _app_driver_count ) {
 1276              		.loc 1 246 3 view .LVU337
 247:/Users/joostbooy/Desktop/Code/stm32/lib/tinyusb/src/device/usbd.c ****     // Application drivers
 1277              		.loc 1 247 3 view .LVU338
 249:/Users/joostbooy/Desktop/Code/stm32/lib/tinyusb/src/device/usbd.c ****   } else if ( drvid < TOTAL_DRIVER_COUNT && BUILTIN_DRIVER_COUNT > 0 ){
 1278              		.loc 1 249 5 view .LVU339
 250:/Users/joostbooy/Desktop/Code/stm32/lib/tinyusb/src/device/usbd.c ****     driver = &_usbd_driver[drvid - _app_driver_count];
 1279              		.loc 1 250 10 view .LVU340
 251:/Users/joostbooy/Desktop/Code/stm32/lib/tinyusb/src/device/usbd.c ****   }
 1280              		.loc 1 251 5 view .LVU341
 247:/Users/joostbooy/Desktop/Code/stm32/lib/tinyusb/src/device/usbd.c ****     // Application drivers
 1281              		.loc 1 247 6 is_stmt 0 view .LVU342
 1282 00e0 9842     		cmp	r0, r3
 249:/Users/joostbooy/Desktop/Code/stm32/lib/tinyusb/src/device/usbd.c ****   } else if ( drvid < TOTAL_DRIVER_COUNT && BUILTIN_DRIVER_COUNT > 0 ){
 1283              		.loc 1 249 14 view .LVU343
 1284 00e2 284F     		ldr	r7, .L141+20
 251:/Users/joostbooy/Desktop/Code/stm32/lib/tinyusb/src/device/usbd.c ****   }
 1285              		.loc 1 251 12 view .LVU344
 1286 00e4 284A     		ldr	r2, .L141+24
 249:/Users/joostbooy/Desktop/Code/stm32/lib/tinyusb/src/device/usbd.c ****   } else if ( drvid < TOTAL_DRIVER_COUNT && BUILTIN_DRIVER_COUNT > 0 ){
 1287              		.loc 1 249 26 view .LVU345
 1288 00e6 03EB430C 		add	ip, r3, r3, lsl #1
 247:/Users/joostbooy/Desktop/Code/stm32/lib/tinyusb/src/device/usbd.c ****     // Application drivers
 1289              		.loc 1 247 6 view .LVU346
 1290 00ea F0D8     		bhi	.L139
 251:/Users/joostbooy/Desktop/Code/stm32/lib/tinyusb/src/device/usbd.c ****   }
 1291              		.loc 1 251 34 view .LVU347
ARM GAS  /var/folders/84/_x1cyy_j36g486tldtwl37280000gn/T//cch4UlI6.s 			page 52


 1292 00ec 181A     		subs	r0, r3, r0
 251:/Users/joostbooy/Desktop/Code/stm32/lib/tinyusb/src/device/usbd.c ****   }
 1293              		.loc 1 251 12 view .LVU348
 1294 00ee 00EB4003 		add	r3, r0, r0, lsl #1
 1295 00f2 02EBC301 		add	r1, r2, r3, lsl #3
 1296              	.LVL77:
 253:/Users/joostbooy/Desktop/Code/stm32/lib/tinyusb/src/device/usbd.c **** }
 1297              		.loc 1 253 3 is_stmt 1 view .LVU349
 253:/Users/joostbooy/Desktop/Code/stm32/lib/tinyusb/src/device/usbd.c **** }
 1298              		.loc 1 253 3 is_stmt 0 view .LVU350
 1299              	.LBE398:
 1300              	.LBE399:
1122:/Users/joostbooy/Desktop/Code/stm32/lib/tinyusb/src/device/usbd.c ****           driver->sof(event->rhport, event->sof.frame_count);
 1301              		.loc 1 1122 9 is_stmt 1 view .LVU351
 1302              	.L106:
1123:/Users/joostbooy/Desktop/Code/stm32/lib/tinyusb/src/device/usbd.c ****         }
 1303              		.loc 1 1123 11 discriminator 1 view .LVU352
1122:/Users/joostbooy/Desktop/Code/stm32/lib/tinyusb/src/device/usbd.c ****           driver->sof(event->rhport, event->sof.frame_count);
 1304              		.loc 1 1122 29 is_stmt 0 discriminator 1 view .LVU353
 1305 00f6 4A69     		ldr	r2, [r1, #20]
1122:/Users/joostbooy/Desktop/Code/stm32/lib/tinyusb/src/device/usbd.c ****           driver->sof(event->rhport, event->sof.frame_count);
 1306              		.loc 1 1122 20 discriminator 1 view .LVU354
 1307 00f8 002A     		cmp	r2, #0
 1308 00fa ECD0     		beq	.L107
1123:/Users/joostbooy/Desktop/Code/stm32/lib/tinyusb/src/device/usbd.c ****         }
 1309              		.loc 1 1123 11 view .LVU355
 1310 00fc 6168     		ldr	r1, [r4, #4]
 1311              	.LVL78:
1123:/Users/joostbooy/Desktop/Code/stm32/lib/tinyusb/src/device/usbd.c ****         }
 1312              		.loc 1 1123 11 view .LVU356
 1313 00fe 2078     		ldrb	r0, [r4]	@ zero_extendqisi2
 1314 0100 9047     		blx	r2
 1315              	.LVL79:
 1316 0102 E8E7     		b	.L107
 1317              	.LVL80:
 1318              	.L138:
1123:/Users/joostbooy/Desktop/Code/stm32/lib/tinyusb/src/device/usbd.c ****         }
 1319              		.loc 1 1123 11 view .LVU357
 1320              	.LBE400:
 1321              	.LBE394:
 1322              	.LBB401:
1113:/Users/joostbooy/Desktop/Code/stm32/lib/tinyusb/src/device/usbd.c **** 
 1323              		.loc 1 1113 9 is_stmt 1 view .LVU358
1113:/Users/joostbooy/Desktop/Code/stm32/lib/tinyusb/src/device/usbd.c **** 
 1324              		.loc 1 1113 29 is_stmt 0 view .LVU359
 1325 0104 3278     		ldrb	r2, [r6]	@ zero_extendqisi2
 1326              	.LBB402:
 1327              	.LBB403:
 277:/Users/joostbooy/Desktop/Code/stm32/lib/tinyusb/src/device/usbd.c ****   if (tud_event_hook_cb) tud_event_hook_cb(event->rhport, event->event_id, in_isr);
 1328              		.loc 1 277 14 view .LVU360
 1329 0106 1B4F     		ldr	r7, .L141+4
 1330              	.LBE403:
 1331              	.LBE402:
1113:/Users/joostbooy/Desktop/Code/stm32/lib/tinyusb/src/device/usbd.c **** 
 1332              		.loc 1 1113 29 view .LVU361
 1333 0108 6FF38202 		bfc	r2, #2, #1
 1334 010c 3270     		strb	r2, [r6]
ARM GAS  /var/folders/84/_x1cyy_j36g486tldtwl37280000gn/T//cch4UlI6.s 			page 53


1115:/Users/joostbooy/Desktop/Code/stm32/lib/tinyusb/src/device/usbd.c ****         queue_event(&event_resume, in_isr);
 1335              		.loc 1 1115 9 is_stmt 1 view .LVU362
1115:/Users/joostbooy/Desktop/Code/stm32/lib/tinyusb/src/device/usbd.c ****         queue_event(&event_resume, in_isr);
 1336              		.loc 1 1115 27 is_stmt 0 view .LVU363
 1337 010e 0023     		movs	r3, #0
 1338 0110 2078     		ldrb	r0, [r4]	@ zero_extendqisi2
 1339              	.LBB419:
 1340              	.LBB417:
 277:/Users/joostbooy/Desktop/Code/stm32/lib/tinyusb/src/device/usbd.c ****   if (tud_event_hook_cb) tud_event_hook_cb(event->rhport, event->event_id, in_isr);
 1341              		.loc 1 277 14 view .LVU364
 1342 0112 3F68     		ldr	r7, [r7]
 1343              	.LBE417:
 1344              	.LBE419:
1115:/Users/joostbooy/Desktop/Code/stm32/lib/tinyusb/src/device/usbd.c ****         queue_event(&event_resume, in_isr);
 1345              		.loc 1 1115 27 view .LVU365
 1346 0114 0393     		str	r3, [sp, #12]
 1347 0116 0521     		movs	r1, #5
 1348 0118 CDE90133 		strd	r3, r3, [sp, #4]
 1349 011c 8DF80400 		strb	r0, [sp, #4]
 1350 0120 8DF80510 		strb	r1, [sp, #5]
1116:/Users/joostbooy/Desktop/Code/stm32/lib/tinyusb/src/device/usbd.c ****       }
 1351              		.loc 1 1116 9 is_stmt 1 view .LVU366
 1352              	.LVL81:
 1353              	.LBB420:
 1354              	.LBI402:
 276:/Users/joostbooy/Desktop/Code/stm32/lib/tinyusb/src/device/usbd.c ****   bool ret = osal_queue_send(_usbd_q, event, in_isr);
 1355              		.loc 1 276 42 view .LVU367
 1356              	.LBB418:
 277:/Users/joostbooy/Desktop/Code/stm32/lib/tinyusb/src/device/usbd.c ****   if (tud_event_hook_cb) tud_event_hook_cb(event->rhport, event->event_id, in_isr);
 1357              		.loc 1 277 3 view .LVU368
 1358              	.LBB404:
 1359              	.LBI404:
 156:/Users/joostbooy/Desktop/Code/stm32/lib/tinyusb/src/osal/osal_none.h ****   if (!in_isr) {
 1360              		.loc 2 156 42 view .LVU369
 1361              	.LBB405:
 157:/Users/joostbooy/Desktop/Code/stm32/lib/tinyusb/src/osal/osal_none.h ****     _osal_q_lock(qhdl);
 1362              		.loc 2 157 3 view .LVU370
 157:/Users/joostbooy/Desktop/Code/stm32/lib/tinyusb/src/osal/osal_none.h ****     _osal_q_lock(qhdl);
 1363              		.loc 2 157 6 is_stmt 0 view .LVU371
 1364 0124 C5B9     		cbnz	r5, .L102
 158:/Users/joostbooy/Desktop/Code/stm32/lib/tinyusb/src/osal/osal_none.h ****   }
 1365              		.loc 2 158 5 is_stmt 1 view .LVU372
 1366              	.LVL82:
 1367              	.LBB406:
 1368              	.LBI406:
 130:/Users/joostbooy/Desktop/Code/stm32/lib/tinyusb/src/osal/osal_none.h ****   // disable dcd/hcd interrupt
 1369              		.loc 2 130 42 view .LVU373
 1370              	.LBB407:
 132:/Users/joostbooy/Desktop/Code/stm32/lib/tinyusb/src/osal/osal_none.h **** }
 1371              		.loc 2 132 3 view .LVU374
 1372 0126 3E46     		mov	r6, r7
 1373 0128 2846     		mov	r0, r5
 1374 012a 56F8042B 		ldr	r2, [r6], #4
 1375 012e 9047     		blx	r2
 1376              	.LVL83:
 132:/Users/joostbooy/Desktop/Code/stm32/lib/tinyusb/src/osal/osal_none.h **** }
 1377              		.loc 2 132 3 is_stmt 0 view .LVU375
ARM GAS  /var/folders/84/_x1cyy_j36g486tldtwl37280000gn/T//cch4UlI6.s 			page 54


 1378              	.LBE407:
 1379              	.LBE406:
 161:/Users/joostbooy/Desktop/Code/stm32/lib/tinyusb/src/osal/osal_none.h **** 
 1380              		.loc 2 161 3 is_stmt 1 view .LVU376
 161:/Users/joostbooy/Desktop/Code/stm32/lib/tinyusb/src/osal/osal_none.h **** 
 1381              		.loc 2 161 18 is_stmt 0 view .LVU377
 1382 0130 3046     		mov	r0, r6
 1383 0132 01A9     		add	r1, sp, #4
 1384              	.LVL84:
 161:/Users/joostbooy/Desktop/Code/stm32/lib/tinyusb/src/osal/osal_none.h **** 
 1385              		.loc 2 161 18 view .LVU378
 1386 0134 FFF7FEFF 		bl	tu_fifo_write
 1387              	.LVL85:
 1388              	.LBB408:
 1389              	.LBB409:
 138:/Users/joostbooy/Desktop/Code/stm32/lib/tinyusb/src/osal/osal_none.h **** }
 1390              		.loc 2 138 3 view .LVU379
 1391 0138 3F68     		ldr	r7, [r7]
 1392              	.LVL86:
 138:/Users/joostbooy/Desktop/Code/stm32/lib/tinyusb/src/osal/osal_none.h **** }
 1393              		.loc 2 138 3 view .LVU380
 1394              	.LBE409:
 1395              	.LBE408:
 161:/Users/joostbooy/Desktop/Code/stm32/lib/tinyusb/src/osal/osal_none.h **** 
 1396              		.loc 2 161 18 view .LVU381
 1397 013a 0646     		mov	r6, r0
 1398              	.LVL87:
 1399              	.LBB412:
 1400              	.LBB410:
 138:/Users/joostbooy/Desktop/Code/stm32/lib/tinyusb/src/osal/osal_none.h **** }
 1401              		.loc 2 138 3 view .LVU382
 1402 013c 0120     		movs	r0, #1
 1403              	.LVL88:
 138:/Users/joostbooy/Desktop/Code/stm32/lib/tinyusb/src/osal/osal_none.h **** }
 1404              		.loc 2 138 3 view .LVU383
 1405              	.LBE410:
 1406              	.LBE412:
 163:/Users/joostbooy/Desktop/Code/stm32/lib/tinyusb/src/osal/osal_none.h ****     _osal_q_unlock(qhdl);
 1407              		.loc 2 163 3 is_stmt 1 view .LVU384
 164:/Users/joostbooy/Desktop/Code/stm32/lib/tinyusb/src/osal/osal_none.h ****   }
 1408              		.loc 2 164 5 view .LVU385
 1409              	.LBB413:
 1410              	.LBI408:
 136:/Users/joostbooy/Desktop/Code/stm32/lib/tinyusb/src/osal/osal_none.h ****   // enable dcd/hcd interrupt
 1411              		.loc 2 136 42 view .LVU386
 1412              	.LBB411:
 138:/Users/joostbooy/Desktop/Code/stm32/lib/tinyusb/src/osal/osal_none.h **** }
 1413              		.loc 2 138 3 view .LVU387
 1414 013e B847     		blx	r7
 1415              	.LVL89:
 1416              	.L112:
 138:/Users/joostbooy/Desktop/Code/stm32/lib/tinyusb/src/osal/osal_none.h **** }
 1417              		.loc 2 138 3 is_stmt 0 view .LVU388
 1418              	.LBE411:
 1419              	.LBE413:
 167:/Users/joostbooy/Desktop/Code/stm32/lib/tinyusb/src/osal/osal_none.h ****   return success;
 1420              		.loc 2 167 3 is_stmt 1 view .LVU389
ARM GAS  /var/folders/84/_x1cyy_j36g486tldtwl37280000gn/T//cch4UlI6.s 			page 55


 167:/Users/joostbooy/Desktop/Code/stm32/lib/tinyusb/src/osal/osal_none.h ****   return success;
 1421              		.loc 2 167 3 view .LVU390
 1422 0140 86B1     		cbz	r6, .L140
 1423              	.L103:
 1424              	.LVL90:
 167:/Users/joostbooy/Desktop/Code/stm32/lib/tinyusb/src/osal/osal_none.h ****   return success;
 1425              		.loc 2 167 3 is_stmt 0 view .LVU391
 1426              	.LBE405:
 1427              	.LBE404:
 278:/Users/joostbooy/Desktop/Code/stm32/lib/tinyusb/src/device/usbd.c ****   return ret;
 1428              		.loc 1 278 3 is_stmt 1 view .LVU392
 278:/Users/joostbooy/Desktop/Code/stm32/lib/tinyusb/src/device/usbd.c ****   return ret;
 1429              		.loc 1 278 6 is_stmt 0 view .LVU393
 1430 0142 0D49     		ldr	r1, .L141+8
 1431 0144 0029     		cmp	r1, #0
 1432 0146 BDD0     		beq	.L101
 278:/Users/joostbooy/Desktop/Code/stm32/lib/tinyusb/src/device/usbd.c ****   return ret;
 1433              		.loc 1 278 26 is_stmt 1 view .LVU394
 1434 0148 9DF80510 		ldrb	r1, [sp, #5]	@ zero_extendqisi2
 1435 014c 9DF80400 		ldrb	r0, [sp, #4]	@ zero_extendqisi2
 1436 0150 2A46     		mov	r2, r5
 1437 0152 FFF7FEFF 		bl	tud_event_hook_cb
 1438              	.LVL91:
 279:/Users/joostbooy/Desktop/Code/stm32/lib/tinyusb/src/device/usbd.c **** }
 1439              		.loc 1 279 3 view .LVU395
 279:/Users/joostbooy/Desktop/Code/stm32/lib/tinyusb/src/device/usbd.c **** }
 1440              		.loc 1 279 3 is_stmt 0 view .LVU396
 1441 0156 B5E7     		b	.L101
 1442              	.LVL92:
 1443              	.L102:
 1444              	.LBB416:
 1445              	.LBB415:
 161:/Users/joostbooy/Desktop/Code/stm32/lib/tinyusb/src/osal/osal_none.h **** 
 1446              		.loc 2 161 3 is_stmt 1 view .LVU397
 161:/Users/joostbooy/Desktop/Code/stm32/lib/tinyusb/src/osal/osal_none.h **** 
 1447              		.loc 2 161 18 is_stmt 0 view .LVU398
 1448 0158 01A9     		add	r1, sp, #4
 1449              	.LVL93:
 161:/Users/joostbooy/Desktop/Code/stm32/lib/tinyusb/src/osal/osal_none.h **** 
 1450              		.loc 2 161 18 view .LVU399
 1451 015a 381D     		adds	r0, r7, #4
 1452 015c FFF7FEFF 		bl	tu_fifo_write
 1453              	.LVL94:
 161:/Users/joostbooy/Desktop/Code/stm32/lib/tinyusb/src/osal/osal_none.h **** 
 1454              		.loc 2 161 18 view .LVU400
 1455 0160 0646     		mov	r6, r0
 1456              	.LVL95:
 163:/Users/joostbooy/Desktop/Code/stm32/lib/tinyusb/src/osal/osal_none.h ****     _osal_q_unlock(qhdl);
 1457              		.loc 2 163 3 is_stmt 1 view .LVU401
 1458 0162 EDE7     		b	.L112
 1459              	.LVL96:
 1460              	.L140:
 167:/Users/joostbooy/Desktop/Code/stm32/lib/tinyusb/src/osal/osal_none.h ****   return success;
 1461              		.loc 2 167 3 view .LVU402
 167:/Users/joostbooy/Desktop/Code/stm32/lib/tinyusb/src/osal/osal_none.h ****   return success;
 1462              		.loc 2 167 3 view .LVU403
 167:/Users/joostbooy/Desktop/Code/stm32/lib/tinyusb/src/osal/osal_none.h ****   return success;
ARM GAS  /var/folders/84/_x1cyy_j36g486tldtwl37280000gn/T//cch4UlI6.s 			page 56


 1463              		.loc 2 167 3 view .LVU404
 167:/Users/joostbooy/Desktop/Code/stm32/lib/tinyusb/src/osal/osal_none.h ****   return success;
 1464              		.loc 2 167 3 view .LVU405
 1465              	.LBB414:
 167:/Users/joostbooy/Desktop/Code/stm32/lib/tinyusb/src/osal/osal_none.h ****   return success;
 1466              		.loc 2 167 3 view .LVU406
 167:/Users/joostbooy/Desktop/Code/stm32/lib/tinyusb/src/osal/osal_none.h ****   return success;
 1467              		.loc 2 167 3 view .LVU407
 1468 0164 0548     		ldr	r0, .L141+12
 1469 0166 0368     		ldr	r3, [r0]
 1470 0168 DA07     		lsls	r2, r3, #31
 1471 016a EAD5     		bpl	.L103
 167:/Users/joostbooy/Desktop/Code/stm32/lib/tinyusb/src/osal/osal_none.h ****   return success;
 1472              		.loc 2 167 3 view .LVU408
 1473              		.syntax unified
 1474              	@ 167 "/Users/joostbooy/Desktop/Code/stm32/lib/tinyusb/src/osal/osal_none.h" 1
 1475 016c 00BE     		BKPT #0
 1476              	
 1477              	@ 0 "" 2
 1478              		.thumb
 1479              		.syntax unified
 1480 016e E8E7     		b	.L103
 1481              	.L142:
 1482              		.align	2
 1483              	.L141:
 1484 0170 00000000 		.word	.LANCHOR3
 1485 0174 00000000 		.word	.LANCHOR6
 1486 0178 00000000 		.word	tud_event_hook_cb
 1487 017c F0ED00E0 		.word	-536810000
 1488 0180 00000000 		.word	.LANCHOR0
 1489 0184 00000000 		.word	.LANCHOR1
 1490 0188 00000000 		.word	.LANCHOR2
 1491              	.LBE414:
 1492              	.LBE415:
 1493              	.LBE416:
 1494              	.LBE418:
 1495              	.LBE420:
 1496              	.LBE401:
 1497              		.cfi_endproc
 1498              	.LFE103:
 1500              		.section	.text.usbd_defer_func,"ax",%progbits
 1501              		.align	1
 1502              		.p2align 2,,3
 1503              		.global	usbd_defer_func
 1504              		.syntax unified
 1505              		.thumb
 1506              		.thumb_func
 1507              		.fpu fpv4-sp-d16
 1509              	usbd_defer_func:
 1510              	.LVL97:
 1511              	.LFB106:
1152:/Users/joostbooy/Desktop/Code/stm32/lib/tinyusb/src/device/usbd.c ****   }
1153:/Users/joostbooy/Desktop/Code/stm32/lib/tinyusb/src/device/usbd.c **** }
1154:/Users/joostbooy/Desktop/Code/stm32/lib/tinyusb/src/device/usbd.c **** 
1155:/Users/joostbooy/Desktop/Code/stm32/lib/tinyusb/src/device/usbd.c **** // Parse consecutive endpoint descriptors (IN & OUT)
1156:/Users/joostbooy/Desktop/Code/stm32/lib/tinyusb/src/device/usbd.c **** bool usbd_open_edpt_pair(uint8_t rhport, uint8_t const* p_desc, uint8_t ep_count, uint8_t xfer_type
1157:/Users/joostbooy/Desktop/Code/stm32/lib/tinyusb/src/device/usbd.c **** {
ARM GAS  /var/folders/84/_x1cyy_j36g486tldtwl37280000gn/T//cch4UlI6.s 			page 57


1158:/Users/joostbooy/Desktop/Code/stm32/lib/tinyusb/src/device/usbd.c ****   for(int i=0; i<ep_count; i++)
1159:/Users/joostbooy/Desktop/Code/stm32/lib/tinyusb/src/device/usbd.c ****   {
1160:/Users/joostbooy/Desktop/Code/stm32/lib/tinyusb/src/device/usbd.c ****     tusb_desc_endpoint_t const * desc_ep = (tusb_desc_endpoint_t const *) p_desc;
1161:/Users/joostbooy/Desktop/Code/stm32/lib/tinyusb/src/device/usbd.c **** 
1162:/Users/joostbooy/Desktop/Code/stm32/lib/tinyusb/src/device/usbd.c ****     TU_ASSERT(TUSB_DESC_ENDPOINT == desc_ep->bDescriptorType && xfer_type == desc_ep->bmAttributes.
1163:/Users/joostbooy/Desktop/Code/stm32/lib/tinyusb/src/device/usbd.c ****     TU_ASSERT(usbd_edpt_open(rhport, desc_ep));
1164:/Users/joostbooy/Desktop/Code/stm32/lib/tinyusb/src/device/usbd.c **** 
1165:/Users/joostbooy/Desktop/Code/stm32/lib/tinyusb/src/device/usbd.c ****     if ( tu_edpt_dir(desc_ep->bEndpointAddress) == TUSB_DIR_IN )
1166:/Users/joostbooy/Desktop/Code/stm32/lib/tinyusb/src/device/usbd.c ****     {
1167:/Users/joostbooy/Desktop/Code/stm32/lib/tinyusb/src/device/usbd.c ****       (*ep_in) = desc_ep->bEndpointAddress;
1168:/Users/joostbooy/Desktop/Code/stm32/lib/tinyusb/src/device/usbd.c ****     }else
1169:/Users/joostbooy/Desktop/Code/stm32/lib/tinyusb/src/device/usbd.c ****     {
1170:/Users/joostbooy/Desktop/Code/stm32/lib/tinyusb/src/device/usbd.c ****       (*ep_out) = desc_ep->bEndpointAddress;
1171:/Users/joostbooy/Desktop/Code/stm32/lib/tinyusb/src/device/usbd.c ****     }
1172:/Users/joostbooy/Desktop/Code/stm32/lib/tinyusb/src/device/usbd.c **** 
1173:/Users/joostbooy/Desktop/Code/stm32/lib/tinyusb/src/device/usbd.c ****     p_desc = tu_desc_next(p_desc);
1174:/Users/joostbooy/Desktop/Code/stm32/lib/tinyusb/src/device/usbd.c ****   }
1175:/Users/joostbooy/Desktop/Code/stm32/lib/tinyusb/src/device/usbd.c **** 
1176:/Users/joostbooy/Desktop/Code/stm32/lib/tinyusb/src/device/usbd.c ****   return true;
1177:/Users/joostbooy/Desktop/Code/stm32/lib/tinyusb/src/device/usbd.c **** }
1178:/Users/joostbooy/Desktop/Code/stm32/lib/tinyusb/src/device/usbd.c **** 
1179:/Users/joostbooy/Desktop/Code/stm32/lib/tinyusb/src/device/usbd.c **** // Helper to defer an isr function
1180:/Users/joostbooy/Desktop/Code/stm32/lib/tinyusb/src/device/usbd.c **** void usbd_defer_func(osal_task_func_t func, void* param, bool in_isr) {
 1512              		.loc 1 1180 71 view -0
 1513              		.cfi_startproc
 1514              		@ args = 0, pretend = 0, frame = 16
 1515              		@ frame_needed = 0, uses_anonymous_args = 0
1181:/Users/joostbooy/Desktop/Code/stm32/lib/tinyusb/src/device/usbd.c ****   dcd_event_t event = {
 1516              		.loc 1 1181 3 view .LVU410
1180:/Users/joostbooy/Desktop/Code/stm32/lib/tinyusb/src/device/usbd.c ****   dcd_event_t event = {
 1517              		.loc 1 1180 71 is_stmt 0 view .LVU411
 1518 0000 70B5     		push	{r4, r5, r6, lr}
 1519              		.cfi_def_cfa_offset 16
 1520              		.cfi_offset 4, -16
 1521              		.cfi_offset 5, -12
 1522              		.cfi_offset 6, -8
 1523              		.cfi_offset 14, -4
 1524              	.LBB421:
 1525              	.LBB422:
 277:/Users/joostbooy/Desktop/Code/stm32/lib/tinyusb/src/device/usbd.c ****   if (tud_event_hook_cb) tud_event_hook_cb(event->rhport, event->event_id, in_isr);
 1526              		.loc 1 277 14 view .LVU412
 1527 0002 194D     		ldr	r5, .L156
 1528              	.LBE422:
 1529              	.LBE421:
1180:/Users/joostbooy/Desktop/Code/stm32/lib/tinyusb/src/device/usbd.c ****   dcd_event_t event = {
 1530              		.loc 1 1180 71 view .LVU413
 1531 0004 84B0     		sub	sp, sp, #16
 1532              		.cfi_def_cfa_offset 32
 1533              		.loc 1 1181 15 view .LVU414
 1534 0006 0024     		movs	r4, #0
 1535 0008 0823     		movs	r3, #8
 1536 000a 0194     		str	r4, [sp, #4]
1182:/Users/joostbooy/Desktop/Code/stm32/lib/tinyusb/src/device/usbd.c ****       .rhport   = 0,
1183:/Users/joostbooy/Desktop/Code/stm32/lib/tinyusb/src/device/usbd.c ****       .event_id = USBD_EVENT_FUNC_CALL,
1184:/Users/joostbooy/Desktop/Code/stm32/lib/tinyusb/src/device/usbd.c ****   };
1185:/Users/joostbooy/Desktop/Code/stm32/lib/tinyusb/src/device/usbd.c ****   event.func_call.func  = func;
1186:/Users/joostbooy/Desktop/Code/stm32/lib/tinyusb/src/device/usbd.c ****   event.func_call.param = param;
ARM GAS  /var/folders/84/_x1cyy_j36g486tldtwl37280000gn/T//cch4UlI6.s 			page 58


 1537              		.loc 1 1186 25 view .LVU415
 1538 000c CDE90201 		strd	r0, r1, [sp, #8]
 1539              	.LBB439:
 1540              	.LBB436:
 277:/Users/joostbooy/Desktop/Code/stm32/lib/tinyusb/src/device/usbd.c ****   if (tud_event_hook_cb) tud_event_hook_cb(event->rhport, event->event_id, in_isr);
 1541              		.loc 1 277 14 view .LVU416
 1542 0010 2E68     		ldr	r6, [r5]
 1543              	.LBE436:
 1544              	.LBE439:
1181:/Users/joostbooy/Desktop/Code/stm32/lib/tinyusb/src/device/usbd.c ****       .rhport   = 0,
 1545              		.loc 1 1181 15 view .LVU417
 1546 0012 8DF80530 		strb	r3, [sp, #5]
