ARM GAS  /var/folders/84/_x1cyy_j36g486tldtwl37280000gn/T//cc4xoZU1.s 			page 1


   1              		.cpu cortex-m4
   2              		.eabi_attribute 27, 1
   3              		.eabi_attribute 28, 1
   4              		.eabi_attribute 20, 1
   5              		.eabi_attribute 21, 1
   6              		.eabi_attribute 23, 3
   7              		.eabi_attribute 24, 1
   8              		.eabi_attribute 25, 1
   9              		.eabi_attribute 26, 1
  10              		.eabi_attribute 30, 2
  11              		.eabi_attribute 34, 1
  12              		.eabi_attribute 18, 4
  13              		.file	"usbd_control.c"
  14              		.text
  15              	.Ltext0:
  16              		.cfi_sections	.debug_frame
  17              		.section	.text._data_stage_xact,"ax",%progbits
  18              		.align	1
  19              		.p2align 2,,3
  20              		.arch armv7e-m
  21              		.syntax unified
  22              		.thumb
  23              		.thumb_func
  24              		.fpu fpv4-sp-d16
  26              	_data_stage_xact:
  27              	.LVL0:
  28              	.LFB78:
  29              		.file 1 "/Users/joostbooy/Desktop/Code/stm32/lib/tinyusb/src/device/usbd_control.c"
   1:/Users/joostbooy/Desktop/Code/stm32/lib/tinyusb/src/device/usbd_control.c **** /*
   2:/Users/joostbooy/Desktop/Code/stm32/lib/tinyusb/src/device/usbd_control.c ****  * The MIT License (MIT)
   3:/Users/joostbooy/Desktop/Code/stm32/lib/tinyusb/src/device/usbd_control.c ****  *
   4:/Users/joostbooy/Desktop/Code/stm32/lib/tinyusb/src/device/usbd_control.c ****  * Copyright (c) 2019 Ha Thach (tinyusb.org)
   5:/Users/joostbooy/Desktop/Code/stm32/lib/tinyusb/src/device/usbd_control.c ****  *
   6:/Users/joostbooy/Desktop/Code/stm32/lib/tinyusb/src/device/usbd_control.c ****  * Permission is hereby granted, free of charge, to any person obtaining a copy
   7:/Users/joostbooy/Desktop/Code/stm32/lib/tinyusb/src/device/usbd_control.c ****  * of this software and associated documentation files (the "Software"), to deal
   8:/Users/joostbooy/Desktop/Code/stm32/lib/tinyusb/src/device/usbd_control.c ****  * in the Software without restriction, including without limitation the rights
   9:/Users/joostbooy/Desktop/Code/stm32/lib/tinyusb/src/device/usbd_control.c ****  * to use, copy, modify, merge, publish, distribute, sublicense, and/or sell
  10:/Users/joostbooy/Desktop/Code/stm32/lib/tinyusb/src/device/usbd_control.c ****  * copies of the Software, and to permit persons to whom the Software is
  11:/Users/joostbooy/Desktop/Code/stm32/lib/tinyusb/src/device/usbd_control.c ****  * furnished to do so, subject to the following conditions:
  12:/Users/joostbooy/Desktop/Code/stm32/lib/tinyusb/src/device/usbd_control.c ****  *
  13:/Users/joostbooy/Desktop/Code/stm32/lib/tinyusb/src/device/usbd_control.c ****  * The above copyright notice and this permission notice shall be included in
  14:/Users/joostbooy/Desktop/Code/stm32/lib/tinyusb/src/device/usbd_control.c ****  * all copies or substantial portions of the Software.
  15:/Users/joostbooy/Desktop/Code/stm32/lib/tinyusb/src/device/usbd_control.c ****  *
  16:/Users/joostbooy/Desktop/Code/stm32/lib/tinyusb/src/device/usbd_control.c ****  * THE SOFTWARE IS PROVIDED "AS IS", WITHOUT WARRANTY OF ANY KIND, EXPRESS OR
  17:/Users/joostbooy/Desktop/Code/stm32/lib/tinyusb/src/device/usbd_control.c ****  * IMPLIED, INCLUDING BUT NOT LIMITED TO THE WARRANTIES OF MERCHANTABILITY,
  18:/Users/joostbooy/Desktop/Code/stm32/lib/tinyusb/src/device/usbd_control.c ****  * FITNESS FOR A PARTICULAR PURPOSE AND NONINFRINGEMENT. IN NO EVENT SHALL THE
  19:/Users/joostbooy/Desktop/Code/stm32/lib/tinyusb/src/device/usbd_control.c ****  * AUTHORS OR COPYRIGHT HOLDERS BE LIABLE FOR ANY CLAIM, DAMAGES OR OTHER
  20:/Users/joostbooy/Desktop/Code/stm32/lib/tinyusb/src/device/usbd_control.c ****  * LIABILITY, WHETHER IN AN ACTION OF CONTRACT, TORT OR OTHERWISE, ARISING FROM,
  21:/Users/joostbooy/Desktop/Code/stm32/lib/tinyusb/src/device/usbd_control.c ****  * OUT OF OR IN CONNECTION WITH THE SOFTWARE OR THE USE OR OTHER DEALINGS IN
  22:/Users/joostbooy/Desktop/Code/stm32/lib/tinyusb/src/device/usbd_control.c ****  * THE SOFTWARE.
  23:/Users/joostbooy/Desktop/Code/stm32/lib/tinyusb/src/device/usbd_control.c ****  *
  24:/Users/joostbooy/Desktop/Code/stm32/lib/tinyusb/src/device/usbd_control.c ****  * This file is part of the TinyUSB stack.
  25:/Users/joostbooy/Desktop/Code/stm32/lib/tinyusb/src/device/usbd_control.c ****  */
  26:/Users/joostbooy/Desktop/Code/stm32/lib/tinyusb/src/device/usbd_control.c **** 
  27:/Users/joostbooy/Desktop/Code/stm32/lib/tinyusb/src/device/usbd_control.c **** #include "tusb_option.h"
  28:/Users/joostbooy/Desktop/Code/stm32/lib/tinyusb/src/device/usbd_control.c **** 
  29:/Users/joostbooy/Desktop/Code/stm32/lib/tinyusb/src/device/usbd_control.c **** #if CFG_TUD_ENABLED
ARM GAS  /var/folders/84/_x1cyy_j36g486tldtwl37280000gn/T//cc4xoZU1.s 			page 2


  30:/Users/joostbooy/Desktop/Code/stm32/lib/tinyusb/src/device/usbd_control.c **** 
  31:/Users/joostbooy/Desktop/Code/stm32/lib/tinyusb/src/device/usbd_control.c **** #include "dcd.h"
  32:/Users/joostbooy/Desktop/Code/stm32/lib/tinyusb/src/device/usbd_control.c **** #include "tusb.h"
  33:/Users/joostbooy/Desktop/Code/stm32/lib/tinyusb/src/device/usbd_control.c **** #include "device/usbd_pvt.h"
  34:/Users/joostbooy/Desktop/Code/stm32/lib/tinyusb/src/device/usbd_control.c **** 
  35:/Users/joostbooy/Desktop/Code/stm32/lib/tinyusb/src/device/usbd_control.c **** #if CFG_TUSB_DEBUG >= CFG_TUD_LOG_LEVEL
  36:/Users/joostbooy/Desktop/Code/stm32/lib/tinyusb/src/device/usbd_control.c **** extern void usbd_driver_print_control_complete_name(usbd_control_xfer_cb_t callback);
  37:/Users/joostbooy/Desktop/Code/stm32/lib/tinyusb/src/device/usbd_control.c **** #endif
  38:/Users/joostbooy/Desktop/Code/stm32/lib/tinyusb/src/device/usbd_control.c **** 
  39:/Users/joostbooy/Desktop/Code/stm32/lib/tinyusb/src/device/usbd_control.c **** enum
  40:/Users/joostbooy/Desktop/Code/stm32/lib/tinyusb/src/device/usbd_control.c **** {
  41:/Users/joostbooy/Desktop/Code/stm32/lib/tinyusb/src/device/usbd_control.c ****   EDPT_CTRL_OUT = 0x00,
  42:/Users/joostbooy/Desktop/Code/stm32/lib/tinyusb/src/device/usbd_control.c ****   EDPT_CTRL_IN  = 0x80
  43:/Users/joostbooy/Desktop/Code/stm32/lib/tinyusb/src/device/usbd_control.c **** };
  44:/Users/joostbooy/Desktop/Code/stm32/lib/tinyusb/src/device/usbd_control.c **** 
  45:/Users/joostbooy/Desktop/Code/stm32/lib/tinyusb/src/device/usbd_control.c **** typedef struct
  46:/Users/joostbooy/Desktop/Code/stm32/lib/tinyusb/src/device/usbd_control.c **** {
  47:/Users/joostbooy/Desktop/Code/stm32/lib/tinyusb/src/device/usbd_control.c ****   tusb_control_request_t request;
  48:/Users/joostbooy/Desktop/Code/stm32/lib/tinyusb/src/device/usbd_control.c **** 
  49:/Users/joostbooy/Desktop/Code/stm32/lib/tinyusb/src/device/usbd_control.c ****   uint8_t* buffer;
  50:/Users/joostbooy/Desktop/Code/stm32/lib/tinyusb/src/device/usbd_control.c ****   uint16_t data_len;
  51:/Users/joostbooy/Desktop/Code/stm32/lib/tinyusb/src/device/usbd_control.c ****   uint16_t total_xferred;
  52:/Users/joostbooy/Desktop/Code/stm32/lib/tinyusb/src/device/usbd_control.c **** 
  53:/Users/joostbooy/Desktop/Code/stm32/lib/tinyusb/src/device/usbd_control.c ****   usbd_control_xfer_cb_t complete_cb;
  54:/Users/joostbooy/Desktop/Code/stm32/lib/tinyusb/src/device/usbd_control.c **** } usbd_control_xfer_t;
  55:/Users/joostbooy/Desktop/Code/stm32/lib/tinyusb/src/device/usbd_control.c **** 
  56:/Users/joostbooy/Desktop/Code/stm32/lib/tinyusb/src/device/usbd_control.c **** tu_static usbd_control_xfer_t _ctrl_xfer;
  57:/Users/joostbooy/Desktop/Code/stm32/lib/tinyusb/src/device/usbd_control.c **** 
  58:/Users/joostbooy/Desktop/Code/stm32/lib/tinyusb/src/device/usbd_control.c **** CFG_TUD_MEM_SECTION CFG_TUSB_MEM_ALIGN
  59:/Users/joostbooy/Desktop/Code/stm32/lib/tinyusb/src/device/usbd_control.c **** tu_static uint8_t _usbd_ctrl_buf[CFG_TUD_ENDPOINT0_SIZE];
  60:/Users/joostbooy/Desktop/Code/stm32/lib/tinyusb/src/device/usbd_control.c **** 
  61:/Users/joostbooy/Desktop/Code/stm32/lib/tinyusb/src/device/usbd_control.c **** //--------------------------------------------------------------------+
  62:/Users/joostbooy/Desktop/Code/stm32/lib/tinyusb/src/device/usbd_control.c **** // Application API
  63:/Users/joostbooy/Desktop/Code/stm32/lib/tinyusb/src/device/usbd_control.c **** //--------------------------------------------------------------------+
  64:/Users/joostbooy/Desktop/Code/stm32/lib/tinyusb/src/device/usbd_control.c **** 
  65:/Users/joostbooy/Desktop/Code/stm32/lib/tinyusb/src/device/usbd_control.c **** // Queue ZLP status transaction
  66:/Users/joostbooy/Desktop/Code/stm32/lib/tinyusb/src/device/usbd_control.c **** static inline bool _status_stage_xact(uint8_t rhport, tusb_control_request_t const * request)
  67:/Users/joostbooy/Desktop/Code/stm32/lib/tinyusb/src/device/usbd_control.c **** {
  68:/Users/joostbooy/Desktop/Code/stm32/lib/tinyusb/src/device/usbd_control.c ****   // Opposite to endpoint in Data Phase
  69:/Users/joostbooy/Desktop/Code/stm32/lib/tinyusb/src/device/usbd_control.c ****   uint8_t const ep_addr = request->bmRequestType_bit.direction ? EDPT_CTRL_OUT : EDPT_CTRL_IN;
  70:/Users/joostbooy/Desktop/Code/stm32/lib/tinyusb/src/device/usbd_control.c ****   return usbd_edpt_xfer(rhport, ep_addr, NULL, 0);
  71:/Users/joostbooy/Desktop/Code/stm32/lib/tinyusb/src/device/usbd_control.c **** }
  72:/Users/joostbooy/Desktop/Code/stm32/lib/tinyusb/src/device/usbd_control.c **** 
  73:/Users/joostbooy/Desktop/Code/stm32/lib/tinyusb/src/device/usbd_control.c **** // Status phase
  74:/Users/joostbooy/Desktop/Code/stm32/lib/tinyusb/src/device/usbd_control.c **** bool tud_control_status(uint8_t rhport, tusb_control_request_t const * request)
  75:/Users/joostbooy/Desktop/Code/stm32/lib/tinyusb/src/device/usbd_control.c **** {
  76:/Users/joostbooy/Desktop/Code/stm32/lib/tinyusb/src/device/usbd_control.c ****   _ctrl_xfer.request       = (*request);
  77:/Users/joostbooy/Desktop/Code/stm32/lib/tinyusb/src/device/usbd_control.c ****   _ctrl_xfer.buffer        = NULL;
  78:/Users/joostbooy/Desktop/Code/stm32/lib/tinyusb/src/device/usbd_control.c ****   _ctrl_xfer.total_xferred = 0;
  79:/Users/joostbooy/Desktop/Code/stm32/lib/tinyusb/src/device/usbd_control.c ****   _ctrl_xfer.data_len      = 0;
  80:/Users/joostbooy/Desktop/Code/stm32/lib/tinyusb/src/device/usbd_control.c **** 
  81:/Users/joostbooy/Desktop/Code/stm32/lib/tinyusb/src/device/usbd_control.c ****   return _status_stage_xact(rhport, request);
  82:/Users/joostbooy/Desktop/Code/stm32/lib/tinyusb/src/device/usbd_control.c **** }
  83:/Users/joostbooy/Desktop/Code/stm32/lib/tinyusb/src/device/usbd_control.c **** 
  84:/Users/joostbooy/Desktop/Code/stm32/lib/tinyusb/src/device/usbd_control.c **** // Queue a transaction in Data Stage
  85:/Users/joostbooy/Desktop/Code/stm32/lib/tinyusb/src/device/usbd_control.c **** // Each transaction has up to Endpoint0's max packet size.
  86:/Users/joostbooy/Desktop/Code/stm32/lib/tinyusb/src/device/usbd_control.c **** // This function can also transfer an zero-length packet
ARM GAS  /var/folders/84/_x1cyy_j36g486tldtwl37280000gn/T//cc4xoZU1.s 			page 3


  87:/Users/joostbooy/Desktop/Code/stm32/lib/tinyusb/src/device/usbd_control.c **** static bool _data_stage_xact(uint8_t rhport)
  88:/Users/joostbooy/Desktop/Code/stm32/lib/tinyusb/src/device/usbd_control.c **** {
  30              		.loc 1 88 1 view -0
  31              		.cfi_startproc
  32              		@ args = 0, pretend = 0, frame = 8
  33              		@ frame_needed = 0, uses_anonymous_args = 0
  89:/Users/joostbooy/Desktop/Code/stm32/lib/tinyusb/src/device/usbd_control.c ****   uint16_t const xact_len = tu_min16(_ctrl_xfer.data_len - _ctrl_xfer.total_xferred, CFG_TUD_ENDPOI
  34              		.loc 1 89 3 view .LVU1
  35              		.loc 1 89 48 is_stmt 0 view .LVU2
  36 0000 1C4A     		ldr	r2, .L10
  88:/Users/joostbooy/Desktop/Code/stm32/lib/tinyusb/src/device/usbd_control.c ****   uint16_t const xact_len = tu_min16(_ctrl_xfer.data_len - _ctrl_xfer.total_xferred, CFG_TUD_ENDPOI
  37              		.loc 1 88 1 view .LVU3
  38 0002 70B5     		push	{r4, r5, r6, lr}
  39              		.cfi_def_cfa_offset 16
  40              		.cfi_offset 4, -16
  41              		.cfi_offset 5, -12
  42              		.cfi_offset 6, -8
  43              		.cfi_offset 14, -4
  44              		.loc 1 89 70 view .LVU4
  45 0004 D189     		ldrh	r1, [r2, #14]
  46              		.loc 1 89 48 view .LVU5
  47 0006 9589     		ldrh	r5, [r2, #12]
  48              	.LVL1:
  49              	.LBB34:
  50              	.LBI34:
  51              		.file 2 "/Users/joostbooy/Desktop/Code/stm32/lib/tinyusb/src/common/tusb_common.h"
   1:/Users/joostbooy/Desktop/Code/stm32/lib/tinyusb/src/common/tusb_common.h **** /*
   2:/Users/joostbooy/Desktop/Code/stm32/lib/tinyusb/src/common/tusb_common.h ****  * The MIT License (MIT)
   3:/Users/joostbooy/Desktop/Code/stm32/lib/tinyusb/src/common/tusb_common.h ****  *
   4:/Users/joostbooy/Desktop/Code/stm32/lib/tinyusb/src/common/tusb_common.h ****  * Copyright (c) 2019 Ha Thach (tinyusb.org)
   5:/Users/joostbooy/Desktop/Code/stm32/lib/tinyusb/src/common/tusb_common.h ****  *
   6:/Users/joostbooy/Desktop/Code/stm32/lib/tinyusb/src/common/tusb_common.h ****  * Permission is hereby granted, free of charge, to any person obtaining a copy
   7:/Users/joostbooy/Desktop/Code/stm32/lib/tinyusb/src/common/tusb_common.h ****  * of this software and associated documentation files (the "Software"), to deal
   8:/Users/joostbooy/Desktop/Code/stm32/lib/tinyusb/src/common/tusb_common.h ****  * in the Software without restriction, including without limitation the rights
   9:/Users/joostbooy/Desktop/Code/stm32/lib/tinyusb/src/common/tusb_common.h ****  * to use, copy, modify, merge, publish, distribute, sublicense, and/or sell
  10:/Users/joostbooy/Desktop/Code/stm32/lib/tinyusb/src/common/tusb_common.h ****  * copies of the Software, and to permit persons to whom the Software is
  11:/Users/joostbooy/Desktop/Code/stm32/lib/tinyusb/src/common/tusb_common.h ****  * furnished to do so, subject to the following conditions:
  12:/Users/joostbooy/Desktop/Code/stm32/lib/tinyusb/src/common/tusb_common.h ****  *
  13:/Users/joostbooy/Desktop/Code/stm32/lib/tinyusb/src/common/tusb_common.h ****  * The above copyright notice and this permission notice shall be included in
  14:/Users/joostbooy/Desktop/Code/stm32/lib/tinyusb/src/common/tusb_common.h ****  * all copies or substantial portions of the Software.
  15:/Users/joostbooy/Desktop/Code/stm32/lib/tinyusb/src/common/tusb_common.h ****  *
  16:/Users/joostbooy/Desktop/Code/stm32/lib/tinyusb/src/common/tusb_common.h ****  * THE SOFTWARE IS PROVIDED "AS IS", WITHOUT WARRANTY OF ANY KIND, EXPRESS OR
  17:/Users/joostbooy/Desktop/Code/stm32/lib/tinyusb/src/common/tusb_common.h ****  * IMPLIED, INCLUDING BUT NOT LIMITED TO THE WARRANTIES OF MERCHANTABILITY,
  18:/Users/joostbooy/Desktop/Code/stm32/lib/tinyusb/src/common/tusb_common.h ****  * FITNESS FOR A PARTICULAR PURPOSE AND NONINFRINGEMENT. IN NO EVENT SHALL THE
  19:/Users/joostbooy/Desktop/Code/stm32/lib/tinyusb/src/common/tusb_common.h ****  * AUTHORS OR COPYRIGHT HOLDERS BE LIABLE FOR ANY CLAIM, DAMAGES OR OTHER
  20:/Users/joostbooy/Desktop/Code/stm32/lib/tinyusb/src/common/tusb_common.h ****  * LIABILITY, WHETHER IN AN ACTION OF CONTRACT, TORT OR OTHERWISE, ARISING FROM,
  21:/Users/joostbooy/Desktop/Code/stm32/lib/tinyusb/src/common/tusb_common.h ****  * OUT OF OR IN CONNECTION WITH THE SOFTWARE OR THE USE OR OTHER DEALINGS IN
  22:/Users/joostbooy/Desktop/Code/stm32/lib/tinyusb/src/common/tusb_common.h ****  * THE SOFTWARE.
  23:/Users/joostbooy/Desktop/Code/stm32/lib/tinyusb/src/common/tusb_common.h ****  *
  24:/Users/joostbooy/Desktop/Code/stm32/lib/tinyusb/src/common/tusb_common.h ****  * This file is part of the TinyUSB stack.
  25:/Users/joostbooy/Desktop/Code/stm32/lib/tinyusb/src/common/tusb_common.h ****  */
  26:/Users/joostbooy/Desktop/Code/stm32/lib/tinyusb/src/common/tusb_common.h **** 
  27:/Users/joostbooy/Desktop/Code/stm32/lib/tinyusb/src/common/tusb_common.h **** #ifndef _TUSB_COMMON_H_
  28:/Users/joostbooy/Desktop/Code/stm32/lib/tinyusb/src/common/tusb_common.h **** #define _TUSB_COMMON_H_
  29:/Users/joostbooy/Desktop/Code/stm32/lib/tinyusb/src/common/tusb_common.h **** 
  30:/Users/joostbooy/Desktop/Code/stm32/lib/tinyusb/src/common/tusb_common.h **** #ifdef __cplusplus
  31:/Users/joostbooy/Desktop/Code/stm32/lib/tinyusb/src/common/tusb_common.h ****  extern "C" {
ARM GAS  /var/folders/84/_x1cyy_j36g486tldtwl37280000gn/T//cc4xoZU1.s 			page 4


  32:/Users/joostbooy/Desktop/Code/stm32/lib/tinyusb/src/common/tusb_common.h **** #endif
  33:/Users/joostbooy/Desktop/Code/stm32/lib/tinyusb/src/common/tusb_common.h **** 
  34:/Users/joostbooy/Desktop/Code/stm32/lib/tinyusb/src/common/tusb_common.h **** //--------------------------------------------------------------------+
  35:/Users/joostbooy/Desktop/Code/stm32/lib/tinyusb/src/common/tusb_common.h **** // Macros Helper
  36:/Users/joostbooy/Desktop/Code/stm32/lib/tinyusb/src/common/tusb_common.h **** //--------------------------------------------------------------------+
  37:/Users/joostbooy/Desktop/Code/stm32/lib/tinyusb/src/common/tusb_common.h **** #define TU_ARRAY_SIZE(_arr)   ( sizeof(_arr) / sizeof(_arr[0]) )
  38:/Users/joostbooy/Desktop/Code/stm32/lib/tinyusb/src/common/tusb_common.h **** #define TU_MIN(_x, _y)        ( ( (_x) < (_y) ) ? (_x) : (_y) )
  39:/Users/joostbooy/Desktop/Code/stm32/lib/tinyusb/src/common/tusb_common.h **** #define TU_MAX(_x, _y)        ( ( (_x) > (_y) ) ? (_x) : (_y) )
  40:/Users/joostbooy/Desktop/Code/stm32/lib/tinyusb/src/common/tusb_common.h **** 
  41:/Users/joostbooy/Desktop/Code/stm32/lib/tinyusb/src/common/tusb_common.h **** #define TU_U16(_high, _low)   ((uint16_t) (((_high) << 8) | (_low)))
  42:/Users/joostbooy/Desktop/Code/stm32/lib/tinyusb/src/common/tusb_common.h **** #define TU_U16_HIGH(_u16)     ((uint8_t) (((_u16) >> 8) & 0x00ff))
  43:/Users/joostbooy/Desktop/Code/stm32/lib/tinyusb/src/common/tusb_common.h **** #define TU_U16_LOW(_u16)      ((uint8_t) ((_u16)       & 0x00ff))
  44:/Users/joostbooy/Desktop/Code/stm32/lib/tinyusb/src/common/tusb_common.h **** #define U16_TO_U8S_BE(_u16)   TU_U16_HIGH(_u16), TU_U16_LOW(_u16)
  45:/Users/joostbooy/Desktop/Code/stm32/lib/tinyusb/src/common/tusb_common.h **** #define U16_TO_U8S_LE(_u16)   TU_U16_LOW(_u16), TU_U16_HIGH(_u16)
  46:/Users/joostbooy/Desktop/Code/stm32/lib/tinyusb/src/common/tusb_common.h **** 
  47:/Users/joostbooy/Desktop/Code/stm32/lib/tinyusb/src/common/tusb_common.h **** #define TU_U32_BYTE3(_u32)    ((uint8_t) ((((uint32_t) _u32) >> 24) & 0x000000ff)) // MSB
  48:/Users/joostbooy/Desktop/Code/stm32/lib/tinyusb/src/common/tusb_common.h **** #define TU_U32_BYTE2(_u32)    ((uint8_t) ((((uint32_t) _u32) >> 16) & 0x000000ff))
  49:/Users/joostbooy/Desktop/Code/stm32/lib/tinyusb/src/common/tusb_common.h **** #define TU_U32_BYTE1(_u32)    ((uint8_t) ((((uint32_t) _u32) >>  8) & 0x000000ff))
  50:/Users/joostbooy/Desktop/Code/stm32/lib/tinyusb/src/common/tusb_common.h **** #define TU_U32_BYTE0(_u32)    ((uint8_t) (((uint32_t)  _u32)        & 0x000000ff)) // LSB
  51:/Users/joostbooy/Desktop/Code/stm32/lib/tinyusb/src/common/tusb_common.h **** 
  52:/Users/joostbooy/Desktop/Code/stm32/lib/tinyusb/src/common/tusb_common.h **** #define U32_TO_U8S_BE(_u32)   TU_U32_BYTE3(_u32), TU_U32_BYTE2(_u32), TU_U32_BYTE1(_u32), TU_U32_BY
  53:/Users/joostbooy/Desktop/Code/stm32/lib/tinyusb/src/common/tusb_common.h **** #define U32_TO_U8S_LE(_u32)   TU_U32_BYTE0(_u32), TU_U32_BYTE1(_u32), TU_U32_BYTE2(_u32), TU_U32_BY
  54:/Users/joostbooy/Desktop/Code/stm32/lib/tinyusb/src/common/tusb_common.h **** 
  55:/Users/joostbooy/Desktop/Code/stm32/lib/tinyusb/src/common/tusb_common.h **** #define TU_BIT(n)             (1UL << (n))
  56:/Users/joostbooy/Desktop/Code/stm32/lib/tinyusb/src/common/tusb_common.h **** 
  57:/Users/joostbooy/Desktop/Code/stm32/lib/tinyusb/src/common/tusb_common.h **** // Generate a mask with bit from high (31) to low (0) set, e.g TU_GENMASK(3, 0) = 0b1111
  58:/Users/joostbooy/Desktop/Code/stm32/lib/tinyusb/src/common/tusb_common.h **** #define TU_GENMASK(h, l)      ( (UINT32_MAX << (l)) & (UINT32_MAX >> (31 - (h))) )
  59:/Users/joostbooy/Desktop/Code/stm32/lib/tinyusb/src/common/tusb_common.h **** 
  60:/Users/joostbooy/Desktop/Code/stm32/lib/tinyusb/src/common/tusb_common.h **** //--------------------------------------------------------------------+
  61:/Users/joostbooy/Desktop/Code/stm32/lib/tinyusb/src/common/tusb_common.h **** // Includes
  62:/Users/joostbooy/Desktop/Code/stm32/lib/tinyusb/src/common/tusb_common.h **** //--------------------------------------------------------------------+
  63:/Users/joostbooy/Desktop/Code/stm32/lib/tinyusb/src/common/tusb_common.h **** 
  64:/Users/joostbooy/Desktop/Code/stm32/lib/tinyusb/src/common/tusb_common.h **** // Standard Headers
  65:/Users/joostbooy/Desktop/Code/stm32/lib/tinyusb/src/common/tusb_common.h **** #include <stdbool.h>
  66:/Users/joostbooy/Desktop/Code/stm32/lib/tinyusb/src/common/tusb_common.h **** #include <stdint.h>
  67:/Users/joostbooy/Desktop/Code/stm32/lib/tinyusb/src/common/tusb_common.h **** #include <stddef.h>
  68:/Users/joostbooy/Desktop/Code/stm32/lib/tinyusb/src/common/tusb_common.h **** #include <string.h>
  69:/Users/joostbooy/Desktop/Code/stm32/lib/tinyusb/src/common/tusb_common.h **** #include <stdio.h>
  70:/Users/joostbooy/Desktop/Code/stm32/lib/tinyusb/src/common/tusb_common.h **** 
  71:/Users/joostbooy/Desktop/Code/stm32/lib/tinyusb/src/common/tusb_common.h **** // Tinyusb Common Headers
  72:/Users/joostbooy/Desktop/Code/stm32/lib/tinyusb/src/common/tusb_common.h **** #include "tusb_option.h"
  73:/Users/joostbooy/Desktop/Code/stm32/lib/tinyusb/src/common/tusb_common.h **** #include "tusb_compiler.h"
  74:/Users/joostbooy/Desktop/Code/stm32/lib/tinyusb/src/common/tusb_common.h **** #include "tusb_verify.h"
  75:/Users/joostbooy/Desktop/Code/stm32/lib/tinyusb/src/common/tusb_common.h **** #include "tusb_types.h"
  76:/Users/joostbooy/Desktop/Code/stm32/lib/tinyusb/src/common/tusb_common.h **** #include "tusb_debug.h"
  77:/Users/joostbooy/Desktop/Code/stm32/lib/tinyusb/src/common/tusb_common.h **** 
  78:/Users/joostbooy/Desktop/Code/stm32/lib/tinyusb/src/common/tusb_common.h **** //--------------------------------------------------------------------+
  79:/Users/joostbooy/Desktop/Code/stm32/lib/tinyusb/src/common/tusb_common.h **** // Optional API implemented by application if needed
  80:/Users/joostbooy/Desktop/Code/stm32/lib/tinyusb/src/common/tusb_common.h **** // TODO move to a more ovious place/file
  81:/Users/joostbooy/Desktop/Code/stm32/lib/tinyusb/src/common/tusb_common.h **** //--------------------------------------------------------------------+
  82:/Users/joostbooy/Desktop/Code/stm32/lib/tinyusb/src/common/tusb_common.h **** 
  83:/Users/joostbooy/Desktop/Code/stm32/lib/tinyusb/src/common/tusb_common.h **** // flush data cache
  84:/Users/joostbooy/Desktop/Code/stm32/lib/tinyusb/src/common/tusb_common.h **** TU_ATTR_WEAK extern void tusb_app_dcache_flush(uintptr_t addr, uint32_t data_size);
  85:/Users/joostbooy/Desktop/Code/stm32/lib/tinyusb/src/common/tusb_common.h **** 
  86:/Users/joostbooy/Desktop/Code/stm32/lib/tinyusb/src/common/tusb_common.h **** // invalidate data cache
  87:/Users/joostbooy/Desktop/Code/stm32/lib/tinyusb/src/common/tusb_common.h **** TU_ATTR_WEAK extern void tusb_app_dcache_invalidate(uintptr_t addr, uint32_t data_size);
  88:/Users/joostbooy/Desktop/Code/stm32/lib/tinyusb/src/common/tusb_common.h **** 
ARM GAS  /var/folders/84/_x1cyy_j36g486tldtwl37280000gn/T//cc4xoZU1.s 			page 5


  89:/Users/joostbooy/Desktop/Code/stm32/lib/tinyusb/src/common/tusb_common.h **** // Optional physical <-> virtual address translation
  90:/Users/joostbooy/Desktop/Code/stm32/lib/tinyusb/src/common/tusb_common.h **** TU_ATTR_WEAK extern void* tusb_app_virt_to_phys(void *virt_addr);
  91:/Users/joostbooy/Desktop/Code/stm32/lib/tinyusb/src/common/tusb_common.h **** TU_ATTR_WEAK extern void* tusb_app_phys_to_virt(void *phys_addr);
  92:/Users/joostbooy/Desktop/Code/stm32/lib/tinyusb/src/common/tusb_common.h **** 
  93:/Users/joostbooy/Desktop/Code/stm32/lib/tinyusb/src/common/tusb_common.h **** //--------------------------------------------------------------------+
  94:/Users/joostbooy/Desktop/Code/stm32/lib/tinyusb/src/common/tusb_common.h **** // Internal Inline Functions
  95:/Users/joostbooy/Desktop/Code/stm32/lib/tinyusb/src/common/tusb_common.h **** //--------------------------------------------------------------------+
  96:/Users/joostbooy/Desktop/Code/stm32/lib/tinyusb/src/common/tusb_common.h **** 
  97:/Users/joostbooy/Desktop/Code/stm32/lib/tinyusb/src/common/tusb_common.h **** //------------- Mem -------------//
  98:/Users/joostbooy/Desktop/Code/stm32/lib/tinyusb/src/common/tusb_common.h **** #define tu_memclr(buffer, size)  memset((buffer), 0, (size))
  99:/Users/joostbooy/Desktop/Code/stm32/lib/tinyusb/src/common/tusb_common.h **** #define tu_varclr(_var)          tu_memclr(_var, sizeof(*(_var)))
 100:/Users/joostbooy/Desktop/Code/stm32/lib/tinyusb/src/common/tusb_common.h **** 
 101:/Users/joostbooy/Desktop/Code/stm32/lib/tinyusb/src/common/tusb_common.h **** // This is a backport of memset_s from c11
 102:/Users/joostbooy/Desktop/Code/stm32/lib/tinyusb/src/common/tusb_common.h **** TU_ATTR_ALWAYS_INLINE static inline int tu_memset_s(void *dest, size_t destsz, int ch, size_t count
 103:/Users/joostbooy/Desktop/Code/stm32/lib/tinyusb/src/common/tusb_common.h ****   // TODO may check if desst and src is not NULL
 104:/Users/joostbooy/Desktop/Code/stm32/lib/tinyusb/src/common/tusb_common.h ****   if ( count > destsz ) {
 105:/Users/joostbooy/Desktop/Code/stm32/lib/tinyusb/src/common/tusb_common.h ****     return -1;
 106:/Users/joostbooy/Desktop/Code/stm32/lib/tinyusb/src/common/tusb_common.h ****   }
 107:/Users/joostbooy/Desktop/Code/stm32/lib/tinyusb/src/common/tusb_common.h ****   memset(dest, ch, count);
 108:/Users/joostbooy/Desktop/Code/stm32/lib/tinyusb/src/common/tusb_common.h ****   return 0;
 109:/Users/joostbooy/Desktop/Code/stm32/lib/tinyusb/src/common/tusb_common.h **** }
 110:/Users/joostbooy/Desktop/Code/stm32/lib/tinyusb/src/common/tusb_common.h **** 
 111:/Users/joostbooy/Desktop/Code/stm32/lib/tinyusb/src/common/tusb_common.h **** // This is a backport of memcpy_s from c11
 112:/Users/joostbooy/Desktop/Code/stm32/lib/tinyusb/src/common/tusb_common.h **** TU_ATTR_ALWAYS_INLINE static inline int tu_memcpy_s(void *dest, size_t destsz, const void *src, siz
 113:/Users/joostbooy/Desktop/Code/stm32/lib/tinyusb/src/common/tusb_common.h ****   // TODO may check if desst and src is not NULL
 114:/Users/joostbooy/Desktop/Code/stm32/lib/tinyusb/src/common/tusb_common.h ****   if ( count > destsz ) {
 115:/Users/joostbooy/Desktop/Code/stm32/lib/tinyusb/src/common/tusb_common.h ****     return -1;
 116:/Users/joostbooy/Desktop/Code/stm32/lib/tinyusb/src/common/tusb_common.h ****   }
 117:/Users/joostbooy/Desktop/Code/stm32/lib/tinyusb/src/common/tusb_common.h ****   memcpy(dest, src, count);
 118:/Users/joostbooy/Desktop/Code/stm32/lib/tinyusb/src/common/tusb_common.h ****   return 0;
 119:/Users/joostbooy/Desktop/Code/stm32/lib/tinyusb/src/common/tusb_common.h **** }
 120:/Users/joostbooy/Desktop/Code/stm32/lib/tinyusb/src/common/tusb_common.h **** 
 121:/Users/joostbooy/Desktop/Code/stm32/lib/tinyusb/src/common/tusb_common.h **** 
 122:/Users/joostbooy/Desktop/Code/stm32/lib/tinyusb/src/common/tusb_common.h **** //------------- Bytes -------------//
 123:/Users/joostbooy/Desktop/Code/stm32/lib/tinyusb/src/common/tusb_common.h **** TU_ATTR_ALWAYS_INLINE static inline uint32_t tu_u32(uint8_t b3, uint8_t b2, uint8_t b1, uint8_t b0)
 124:/Users/joostbooy/Desktop/Code/stm32/lib/tinyusb/src/common/tusb_common.h ****   return ( ((uint32_t) b3) << 24) | ( ((uint32_t) b2) << 16) | ( ((uint32_t) b1) << 8) | b0;
 125:/Users/joostbooy/Desktop/Code/stm32/lib/tinyusb/src/common/tusb_common.h **** }
 126:/Users/joostbooy/Desktop/Code/stm32/lib/tinyusb/src/common/tusb_common.h **** 
 127:/Users/joostbooy/Desktop/Code/stm32/lib/tinyusb/src/common/tusb_common.h **** TU_ATTR_ALWAYS_INLINE static inline uint16_t tu_u16(uint8_t high, uint8_t low) {
 128:/Users/joostbooy/Desktop/Code/stm32/lib/tinyusb/src/common/tusb_common.h ****   return (uint16_t) ((((uint16_t) high) << 8) | low);
 129:/Users/joostbooy/Desktop/Code/stm32/lib/tinyusb/src/common/tusb_common.h **** }
 130:/Users/joostbooy/Desktop/Code/stm32/lib/tinyusb/src/common/tusb_common.h **** 
 131:/Users/joostbooy/Desktop/Code/stm32/lib/tinyusb/src/common/tusb_common.h **** TU_ATTR_ALWAYS_INLINE static inline uint8_t tu_u32_byte3(uint32_t ui32) { return TU_U32_BYTE3(ui32)
 132:/Users/joostbooy/Desktop/Code/stm32/lib/tinyusb/src/common/tusb_common.h **** TU_ATTR_ALWAYS_INLINE static inline uint8_t tu_u32_byte2(uint32_t ui32) { return TU_U32_BYTE2(ui32)
 133:/Users/joostbooy/Desktop/Code/stm32/lib/tinyusb/src/common/tusb_common.h **** TU_ATTR_ALWAYS_INLINE static inline uint8_t tu_u32_byte1(uint32_t ui32) { return TU_U32_BYTE1(ui32)
 134:/Users/joostbooy/Desktop/Code/stm32/lib/tinyusb/src/common/tusb_common.h **** TU_ATTR_ALWAYS_INLINE static inline uint8_t tu_u32_byte0(uint32_t ui32) { return TU_U32_BYTE0(ui32)
 135:/Users/joostbooy/Desktop/Code/stm32/lib/tinyusb/src/common/tusb_common.h **** 
 136:/Users/joostbooy/Desktop/Code/stm32/lib/tinyusb/src/common/tusb_common.h **** TU_ATTR_ALWAYS_INLINE static inline uint16_t tu_u32_high16(uint32_t ui32) { return (uint16_t) (ui32
 137:/Users/joostbooy/Desktop/Code/stm32/lib/tinyusb/src/common/tusb_common.h **** TU_ATTR_ALWAYS_INLINE static inline uint16_t tu_u32_low16 (uint32_t ui32) { return (uint16_t) (ui32
 138:/Users/joostbooy/Desktop/Code/stm32/lib/tinyusb/src/common/tusb_common.h **** 
 139:/Users/joostbooy/Desktop/Code/stm32/lib/tinyusb/src/common/tusb_common.h **** TU_ATTR_ALWAYS_INLINE static inline uint8_t tu_u16_high(uint16_t ui16) { return TU_U16_HIGH(ui16); 
 140:/Users/joostbooy/Desktop/Code/stm32/lib/tinyusb/src/common/tusb_common.h **** TU_ATTR_ALWAYS_INLINE static inline uint8_t tu_u16_low (uint16_t ui16) { return TU_U16_LOW(ui16); }
 141:/Users/joostbooy/Desktop/Code/stm32/lib/tinyusb/src/common/tusb_common.h **** 
 142:/Users/joostbooy/Desktop/Code/stm32/lib/tinyusb/src/common/tusb_common.h **** //------------- Bits -------------//
 143:/Users/joostbooy/Desktop/Code/stm32/lib/tinyusb/src/common/tusb_common.h **** TU_ATTR_ALWAYS_INLINE static inline uint32_t tu_bit_set  (uint32_t value, uint8_t pos) { return val
 144:/Users/joostbooy/Desktop/Code/stm32/lib/tinyusb/src/common/tusb_common.h **** TU_ATTR_ALWAYS_INLINE static inline uint32_t tu_bit_clear(uint32_t value, uint8_t pos) { return val
 145:/Users/joostbooy/Desktop/Code/stm32/lib/tinyusb/src/common/tusb_common.h **** TU_ATTR_ALWAYS_INLINE static inline bool     tu_bit_test (uint32_t value, uint8_t pos) { return (va
ARM GAS  /var/folders/84/_x1cyy_j36g486tldtwl37280000gn/T//cc4xoZU1.s 			page 6


 146:/Users/joostbooy/Desktop/Code/stm32/lib/tinyusb/src/common/tusb_common.h **** 
 147:/Users/joostbooy/Desktop/Code/stm32/lib/tinyusb/src/common/tusb_common.h **** //------------- Min -------------//
 148:/Users/joostbooy/Desktop/Code/stm32/lib/tinyusb/src/common/tusb_common.h **** TU_ATTR_ALWAYS_INLINE static inline uint8_t  tu_min8  (uint8_t  x, uint8_t y ) { return (x < y) ? x
 149:/Users/joostbooy/Desktop/Code/stm32/lib/tinyusb/src/common/tusb_common.h **** TU_ATTR_ALWAYS_INLINE static inline uint16_t tu_min16 (uint16_t x, uint16_t y) { return (x < y) ? x
  52              		.loc 2 149 46 is_stmt 1 view .LVU6
  53              	.LBB35:
  54              		.loc 2 149 82 view .LVU7
  55              	.LBE35:
  56              	.LBE34:
  90:/Users/joostbooy/Desktop/Code/stm32/lib/tinyusb/src/device/usbd_control.c **** 
  91:/Users/joostbooy/Desktop/Code/stm32/lib/tinyusb/src/device/usbd_control.c ****   uint8_t ep_addr = EDPT_CTRL_OUT;
  92:/Users/joostbooy/Desktop/Code/stm32/lib/tinyusb/src/device/usbd_control.c **** 
  93:/Users/joostbooy/Desktop/Code/stm32/lib/tinyusb/src/device/usbd_control.c ****   if ( _ctrl_xfer.request.bmRequestType_bit.direction == TUSB_DIR_IN )
  57              		.loc 1 93 6 is_stmt 0 view .LVU8
  58 0008 92F90060 		ldrsb	r6, [r2]
  89:/Users/joostbooy/Desktop/Code/stm32/lib/tinyusb/src/device/usbd_control.c **** 
  59              		.loc 1 89 29 view .LVU9
  60 000c 6B1A     		subs	r3, r5, r1
  61              	.LBB37:
  62              	.LBB36:
  63              		.loc 2 149 101 view .LVU10
  64 000e 9BB2     		uxth	r3, r3
  65 0010 402B     		cmp	r3, #64
  66 0012 28BF     		it	cs
  67 0014 4023     		movcs	r3, #64
  68              	.LVL2:
  69              		.loc 2 149 101 view .LVU11
  70              	.LBE36:
  71              	.LBE37:
  91:/Users/joostbooy/Desktop/Code/stm32/lib/tinyusb/src/device/usbd_control.c **** 
  72              		.loc 1 91 3 is_stmt 1 view .LVU12
  73              		.loc 1 93 3 view .LVU13
  74              		.loc 1 93 6 is_stmt 0 view .LVU14
  75 0016 002E     		cmp	r6, #0
  88:/Users/joostbooy/Desktop/Code/stm32/lib/tinyusb/src/device/usbd_control.c ****   uint16_t const xact_len = tu_min16(_ctrl_xfer.data_len - _ctrl_xfer.total_xferred, CFG_TUD_ENDPOI
  76              		.loc 1 88 1 view .LVU15
  77 0018 82B0     		sub	sp, sp, #8
  78              		.cfi_def_cfa_offset 24
  88:/Users/joostbooy/Desktop/Code/stm32/lib/tinyusb/src/device/usbd_control.c ****   uint16_t const xact_len = tu_min16(_ctrl_xfer.data_len - _ctrl_xfer.total_xferred, CFG_TUD_ENDPOI
  79              		.loc 1 88 1 view .LVU16
  80 001a 0446     		mov	r4, r0
  81              		.loc 1 93 6 view .LVU17
  82 001c 09DB     		blt	.L8
  94:/Users/joostbooy/Desktop/Code/stm32/lib/tinyusb/src/device/usbd_control.c ****   {
  95:/Users/joostbooy/Desktop/Code/stm32/lib/tinyusb/src/device/usbd_control.c ****     ep_addr = EDPT_CTRL_IN;
  96:/Users/joostbooy/Desktop/Code/stm32/lib/tinyusb/src/device/usbd_control.c ****     if ( xact_len ) {
  97:/Users/joostbooy/Desktop/Code/stm32/lib/tinyusb/src/device/usbd_control.c ****       TU_VERIFY(0 == tu_memcpy_s(_usbd_ctrl_buf, CFG_TUD_ENDPOINT0_SIZE, _ctrl_xfer.buffer, xact_le
  83              		.loc 1 97 7 is_stmt 1 discriminator 2 view .LVU18
  98:/Users/joostbooy/Desktop/Code/stm32/lib/tinyusb/src/device/usbd_control.c ****     }
  99:/Users/joostbooy/Desktop/Code/stm32/lib/tinyusb/src/device/usbd_control.c ****   }
 100:/Users/joostbooy/Desktop/Code/stm32/lib/tinyusb/src/device/usbd_control.c **** 
 101:/Users/joostbooy/Desktop/Code/stm32/lib/tinyusb/src/device/usbd_control.c ****   return usbd_edpt_xfer(rhport, ep_addr, xact_len ? _usbd_ctrl_buf : NULL, xact_len);
  84              		.loc 1 101 3 discriminator 2 view .LVU19
  85              		.loc 1 101 10 is_stmt 0 discriminator 2 view .LVU20
  86 001e 8D42     		cmp	r5, r1
  87 0020 20D0     		beq	.L9
  88              		.loc 1 101 10 view .LVU21
ARM GAS  /var/folders/84/_x1cyy_j36g486tldtwl37280000gn/T//cc4xoZU1.s 			page 7


  89 0022 154A     		ldr	r2, .L10+4
  91:/Users/joostbooy/Desktop/Code/stm32/lib/tinyusb/src/device/usbd_control.c **** 
  90              		.loc 1 91 11 view .LVU22
  91 0024 0021     		movs	r1, #0
  92              	.LVL3:
  93              		.loc 1 101 10 view .LVU23
  94 0026 2046     		mov	r0, r4
  95              	.LVL4:
 102:/Users/joostbooy/Desktop/Code/stm32/lib/tinyusb/src/device/usbd_control.c **** }
  96              		.loc 1 102 1 view .LVU24
  97 0028 02B0     		add	sp, sp, #8
  98              		.cfi_remember_state
  99              		.cfi_def_cfa_offset 16
 100              		@ sp needed
 101 002a BDE87040 		pop	{r4, r5, r6, lr}
 102              		.cfi_restore 14
 103              		.cfi_restore 6
 104              		.cfi_restore 5
 105              		.cfi_restore 4
 106              		.cfi_def_cfa_offset 0
 101:/Users/joostbooy/Desktop/Code/stm32/lib/tinyusb/src/device/usbd_control.c **** }
 107              		.loc 1 101 10 view .LVU25
 108 002e FFF7FEBF 		b	usbd_edpt_xfer
 109              	.LVL5:
 110              	.L8:
 111              		.cfi_restore_state
  95:/Users/joostbooy/Desktop/Code/stm32/lib/tinyusb/src/device/usbd_control.c ****     if ( xact_len ) {
 112              		.loc 1 95 5 is_stmt 1 view .LVU26
  96:/Users/joostbooy/Desktop/Code/stm32/lib/tinyusb/src/device/usbd_control.c ****       TU_VERIFY(0 == tu_memcpy_s(_usbd_ctrl_buf, CFG_TUD_ENDPOINT0_SIZE, _ctrl_xfer.buffer, xact_le
 113              		.loc 1 96 5 view .LVU27
  96:/Users/joostbooy/Desktop/Code/stm32/lib/tinyusb/src/device/usbd_control.c ****       TU_VERIFY(0 == tu_memcpy_s(_usbd_ctrl_buf, CFG_TUD_ENDPOINT0_SIZE, _ctrl_xfer.buffer, xact_le
 114              		.loc 1 96 8 is_stmt 0 view .LVU28
 115 0032 8D42     		cmp	r5, r1
 116 0034 0ED0     		beq	.L4
  97:/Users/joostbooy/Desktop/Code/stm32/lib/tinyusb/src/device/usbd_control.c ****     }
 117              		.loc 1 97 7 is_stmt 1 view .LVU29
  97:/Users/joostbooy/Desktop/Code/stm32/lib/tinyusb/src/device/usbd_control.c ****     }
 118              		.loc 1 97 7 view .LVU30
 119              	.LVL6:
 120              	.LBB38:
 121              	.LBI38:
 112:/Users/joostbooy/Desktop/Code/stm32/lib/tinyusb/src/common/tusb_common.h ****   // TODO may check if desst and src is not NULL
 122              		.loc 2 112 41 view .LVU31
 123              	.LBB39:
 114:/Users/joostbooy/Desktop/Code/stm32/lib/tinyusb/src/common/tusb_common.h ****     return -1;
 124              		.loc 2 114 3 view .LVU32
 117:/Users/joostbooy/Desktop/Code/stm32/lib/tinyusb/src/common/tusb_common.h ****   return 0;
 125              		.loc 2 117 3 view .LVU33
 126 0036 9168     		ldr	r1, [r2, #8]
 127 0038 0F48     		ldr	r0, .L10+4
 128              	.LVL7:
 117:/Users/joostbooy/Desktop/Code/stm32/lib/tinyusb/src/common/tusb_common.h ****   return 0;
 129              		.loc 2 117 3 is_stmt 0 view .LVU34
 130 003a 0193     		str	r3, [sp, #4]
 131 003c 1A46     		mov	r2, r3
 132 003e FFF7FEFF 		bl	memcpy
 133              	.LVL8:
ARM GAS  /var/folders/84/_x1cyy_j36g486tldtwl37280000gn/T//cc4xoZU1.s 			page 8


 118:/Users/joostbooy/Desktop/Code/stm32/lib/tinyusb/src/common/tusb_common.h **** }
 134              		.loc 2 118 3 is_stmt 1 view .LVU35
 118:/Users/joostbooy/Desktop/Code/stm32/lib/tinyusb/src/common/tusb_common.h **** }
 135              		.loc 2 118 3 is_stmt 0 view .LVU36
 136              	.LBE39:
 137              	.LBE38:
  97:/Users/joostbooy/Desktop/Code/stm32/lib/tinyusb/src/device/usbd_control.c ****     }
 138              		.loc 1 97 7 is_stmt 1 view .LVU37
 101:/Users/joostbooy/Desktop/Code/stm32/lib/tinyusb/src/device/usbd_control.c **** }
 139              		.loc 1 101 3 view .LVU38
 101:/Users/joostbooy/Desktop/Code/stm32/lib/tinyusb/src/device/usbd_control.c **** }
 140              		.loc 1 101 10 is_stmt 0 view .LVU39
 141 0042 0D4A     		ldr	r2, .L10+4
 142 0044 019B     		ldr	r3, [sp, #4]
 143              	.LVL9:
  95:/Users/joostbooy/Desktop/Code/stm32/lib/tinyusb/src/device/usbd_control.c ****     if ( xact_len ) {
 144              		.loc 1 95 13 view .LVU40
 145 0046 8021     		movs	r1, #128
 101:/Users/joostbooy/Desktop/Code/stm32/lib/tinyusb/src/device/usbd_control.c **** }
 146              		.loc 1 101 10 view .LVU41
 147 0048 2046     		mov	r0, r4
 148              		.loc 1 102 1 view .LVU42
 149 004a 02B0     		add	sp, sp, #8
 150              		.cfi_remember_state
 151              		.cfi_def_cfa_offset 16
 152              		@ sp needed
 153 004c BDE87040 		pop	{r4, r5, r6, lr}
 154              		.cfi_restore 14
 155              		.cfi_restore 6
 156              		.cfi_restore 5
 157              		.cfi_restore 4
 158              		.cfi_def_cfa_offset 0
 159              	.LVL10:
 101:/Users/joostbooy/Desktop/Code/stm32/lib/tinyusb/src/device/usbd_control.c **** }
 160              		.loc 1 101 10 view .LVU43
 161 0050 FFF7FEBF 		b	usbd_edpt_xfer
 162              	.LVL11:
 163              	.L4:
 164              		.cfi_restore_state
  95:/Users/joostbooy/Desktop/Code/stm32/lib/tinyusb/src/device/usbd_control.c ****     if ( xact_len ) {
 165              		.loc 1 95 13 view .LVU44
 166 0054 8021     		movs	r1, #128
 101:/Users/joostbooy/Desktop/Code/stm32/lib/tinyusb/src/device/usbd_control.c **** }
 167              		.loc 1 101 10 view .LVU45
 168 0056 0022     		movs	r2, #0
 169              	.LVL12:
 101:/Users/joostbooy/Desktop/Code/stm32/lib/tinyusb/src/device/usbd_control.c **** }
 170              		.loc 1 101 10 view .LVU46
 171 0058 2046     		mov	r0, r4
 172              	.LVL13:
 173              		.loc 1 102 1 view .LVU47
 174 005a 02B0     		add	sp, sp, #8
 175              		.cfi_remember_state
 176              		.cfi_def_cfa_offset 16
 177              		@ sp needed
 178 005c BDE87040 		pop	{r4, r5, r6, lr}
 179              		.cfi_restore 14
ARM GAS  /var/folders/84/_x1cyy_j36g486tldtwl37280000gn/T//cc4xoZU1.s 			page 9


 180              		.cfi_restore 6
 181              		.cfi_restore 5
 182              		.cfi_restore 4
 183              		.cfi_def_cfa_offset 0
 101:/Users/joostbooy/Desktop/Code/stm32/lib/tinyusb/src/device/usbd_control.c **** }
 184              		.loc 1 101 10 view .LVU48
 185 0060 FFF7FEBF 		b	usbd_edpt_xfer
 186              	.LVL14:
 187              	.L9:
 188              		.cfi_restore_state
  91:/Users/joostbooy/Desktop/Code/stm32/lib/tinyusb/src/device/usbd_control.c **** 
 189              		.loc 1 91 11 view .LVU49
 190 0064 0021     		movs	r1, #0
 101:/Users/joostbooy/Desktop/Code/stm32/lib/tinyusb/src/device/usbd_control.c **** }
 191              		.loc 1 101 10 view .LVU50
 192 0066 0A46     		mov	r2, r1
 193              	.LVL15:
 101:/Users/joostbooy/Desktop/Code/stm32/lib/tinyusb/src/device/usbd_control.c **** }
 194              		.loc 1 101 10 view .LVU51
 195 0068 2046     		mov	r0, r4
 196              	.LVL16:
 197              		.loc 1 102 1 view .LVU52
 198 006a 02B0     		add	sp, sp, #8
 199              		.cfi_def_cfa_offset 16
 200              		@ sp needed
 201 006c BDE87040 		pop	{r4, r5, r6, lr}
 202              		.cfi_restore 14
 203              		.cfi_restore 6
 204              		.cfi_restore 5
 205              		.cfi_restore 4
 206              		.cfi_def_cfa_offset 0
 101:/Users/joostbooy/Desktop/Code/stm32/lib/tinyusb/src/device/usbd_control.c **** }
 207              		.loc 1 101 10 view .LVU53
 208 0070 FFF7FEBF 		b	usbd_edpt_xfer
 209              	.LVL17:
 210              	.L11:
 101:/Users/joostbooy/Desktop/Code/stm32/lib/tinyusb/src/device/usbd_control.c **** }
 211              		.loc 1 101 10 view .LVU54
 212              		.align	2
 213              	.L10:
 214 0074 00000000 		.word	.LANCHOR1
 215 0078 00000000 		.word	.LANCHOR0
 216              		.cfi_endproc
 217              	.LFE78:
 219              		.section	.text.tud_control_status,"ax",%progbits
 220              		.align	1
 221              		.p2align 2,,3
 222              		.global	tud_control_status
 223              		.syntax unified
 224              		.thumb
 225              		.thumb_func
 226              		.fpu fpv4-sp-d16
 228              	tud_control_status:
 229              	.LVL18:
 230              	.LFB77:
  75:/Users/joostbooy/Desktop/Code/stm32/lib/tinyusb/src/device/usbd_control.c ****   _ctrl_xfer.request       = (*request);
 231              		.loc 1 75 1 is_stmt 1 view -0
ARM GAS  /var/folders/84/_x1cyy_j36g486tldtwl37280000gn/T//cc4xoZU1.s 			page 10


 232              		.cfi_startproc
 233              		@ args = 0, pretend = 0, frame = 0
 234              		@ frame_needed = 0, uses_anonymous_args = 0
 235              		@ link register save eliminated.
  76:/Users/joostbooy/Desktop/Code/stm32/lib/tinyusb/src/device/usbd_control.c ****   _ctrl_xfer.buffer        = NULL;
 236              		.loc 1 76 3 view .LVU56
  75:/Users/joostbooy/Desktop/Code/stm32/lib/tinyusb/src/device/usbd_control.c ****   _ctrl_xfer.request       = (*request);
 237              		.loc 1 75 1 is_stmt 0 view .LVU57
 238 0000 0B46     		mov	r3, r1
 239 0002 30B4     		push	{r4, r5}
 240              		.cfi_def_cfa_offset 8
 241              		.cfi_offset 4, -8
 242              		.cfi_offset 5, -4
  76:/Users/joostbooy/Desktop/Code/stm32/lib/tinyusb/src/device/usbd_control.c ****   _ctrl_xfer.buffer        = NULL;
 243              		.loc 1 76 28 view .LVU58
 244 0004 0A4C     		ldr	r4, .L16
 245 0006 4968     		ldr	r1, [r1, #4]	@ unaligned
 246              	.LVL19:
  75:/Users/joostbooy/Desktop/Code/stm32/lib/tinyusb/src/device/usbd_control.c ****   _ctrl_xfer.request       = (*request);
 247              		.loc 1 75 1 view .LVU59
 248 0008 0546     		mov	r5, r0
  76:/Users/joostbooy/Desktop/Code/stm32/lib/tinyusb/src/device/usbd_control.c ****   _ctrl_xfer.buffer        = NULL;
 249              		.loc 1 76 28 view .LVU60
 250 000a 1868     		ldr	r0, [r3]	@ unaligned
 251              	.LVL20:
  76:/Users/joostbooy/Desktop/Code/stm32/lib/tinyusb/src/device/usbd_control.c ****   _ctrl_xfer.buffer        = NULL;
 252              		.loc 1 76 28 view .LVU61
 253 000c 2246     		mov	r2, r4
 254 000e 03C2     		stmia	r2!, {r0, r1}
  77:/Users/joostbooy/Desktop/Code/stm32/lib/tinyusb/src/device/usbd_control.c ****   _ctrl_xfer.total_xferred = 0;
 255              		.loc 1 77 3 is_stmt 1 view .LVU62
  78:/Users/joostbooy/Desktop/Code/stm32/lib/tinyusb/src/device/usbd_control.c ****   _ctrl_xfer.data_len      = 0;
 256              		.loc 1 78 3 view .LVU63
  79:/Users/joostbooy/Desktop/Code/stm32/lib/tinyusb/src/device/usbd_control.c **** 
 257              		.loc 1 79 3 view .LVU64
 258              	.LBB40:
 259              	.LBB41:
  69:/Users/joostbooy/Desktop/Code/stm32/lib/tinyusb/src/device/usbd_control.c ****   return usbd_edpt_xfer(rhport, ep_addr, NULL, 0);
 260              		.loc 1 69 17 is_stmt 0 view .LVU65
 261 0010 93F90000 		ldrsb	r0, [r3]
 262              	.LBE41:
 263              	.LBE40:
  77:/Users/joostbooy/Desktop/Code/stm32/lib/tinyusb/src/device/usbd_control.c ****   _ctrl_xfer.total_xferred = 0;
 264              		.loc 1 77 28 view .LVU66
 265 0014 0023     		movs	r3, #0
 266              	.LVL21:
 267              	.LBB46:
 268              	.LBB42:
  69:/Users/joostbooy/Desktop/Code/stm32/lib/tinyusb/src/device/usbd_control.c ****   return usbd_edpt_xfer(rhport, ep_addr, NULL, 0);
 269              		.loc 1 69 17 view .LVU67
 270 0016 9842     		cmp	r0, r3
 271              	.LBE42:
 272              	.LBE46:
  79:/Users/joostbooy/Desktop/Code/stm32/lib/tinyusb/src/device/usbd_control.c **** 
 273              		.loc 1 79 28 view .LVU68
 274 0018 C4E90233 		strd	r3, r3, [r4, #8]
 275              	.LBB47:
ARM GAS  /var/folders/84/_x1cyy_j36g486tldtwl37280000gn/T//cc4xoZU1.s 			page 11


 276              	.LBB43:
  70:/Users/joostbooy/Desktop/Code/stm32/lib/tinyusb/src/device/usbd_control.c **** }
 277              		.loc 1 70 10 view .LVU69
 278 001c 2846     		mov	r0, r5
 279              	.LBE43:
 280              	.LBE47:
  81:/Users/joostbooy/Desktop/Code/stm32/lib/tinyusb/src/device/usbd_control.c **** }
 281              		.loc 1 81 3 is_stmt 1 view .LVU70
 282              	.LVL22:
 283              	.LBB48:
 284              	.LBI40:
  66:/Users/joostbooy/Desktop/Code/stm32/lib/tinyusb/src/device/usbd_control.c **** {
 285              		.loc 1 66 20 view .LVU71
 286              	.LBB44:
  69:/Users/joostbooy/Desktop/Code/stm32/lib/tinyusb/src/device/usbd_control.c ****   return usbd_edpt_xfer(rhport, ep_addr, NULL, 0);
 287              		.loc 1 69 3 view .LVU72
  70:/Users/joostbooy/Desktop/Code/stm32/lib/tinyusb/src/device/usbd_control.c **** }
 288              		.loc 1 70 3 view .LVU73
  70:/Users/joostbooy/Desktop/Code/stm32/lib/tinyusb/src/device/usbd_control.c **** }
 289              		.loc 1 70 10 is_stmt 0 view .LVU74
 290 001e A8BF     		it	ge
 291 0020 8021     		movge	r1, #128
 292              	.LBE44:
 293              	.LBE48:
  82:/Users/joostbooy/Desktop/Code/stm32/lib/tinyusb/src/device/usbd_control.c **** 
 294              		.loc 1 82 1 view .LVU75
 295 0022 30BC     		pop	{r4, r5}
 296              		.cfi_restore 5
 297              		.cfi_restore 4
 298              		.cfi_def_cfa_offset 0
 299              	.LBB49:
 300              	.LBB45:
  70:/Users/joostbooy/Desktop/Code/stm32/lib/tinyusb/src/device/usbd_control.c **** }
 301              		.loc 1 70 10 view .LVU76
 302 0024 B8BF     		it	lt
 303 0026 1946     		movlt	r1, r3
 304 0028 1A46     		mov	r2, r3
 305 002a FFF7FEBF 		b	usbd_edpt_xfer
 306              	.LVL23:
 307              	.L17:
  70:/Users/joostbooy/Desktop/Code/stm32/lib/tinyusb/src/device/usbd_control.c **** }
 308              		.loc 1 70 10 view .LVU77
 309 002e 00BF     		.align	2
 310              	.L16:
 311 0030 00000000 		.word	.LANCHOR1
 312              	.LBE45:
 313              	.LBE49:
 314              		.cfi_endproc
 315              	.LFE77:
 317              		.section	.text.tud_control_xfer,"ax",%progbits
 318              		.align	1
 319              		.p2align 2,,3
 320              		.global	tud_control_xfer
 321              		.syntax unified
 322              		.thumb
 323              		.thumb_func
 324              		.fpu fpv4-sp-d16
ARM GAS  /var/folders/84/_x1cyy_j36g486tldtwl37280000gn/T//cc4xoZU1.s 			page 12


 326              	tud_control_xfer:
 327              	.LVL24:
 328              	.LFB79:
 103:/Users/joostbooy/Desktop/Code/stm32/lib/tinyusb/src/device/usbd_control.c **** 
 104:/Users/joostbooy/Desktop/Code/stm32/lib/tinyusb/src/device/usbd_control.c **** // Transmit data to/from the control endpoint.
 105:/Users/joostbooy/Desktop/Code/stm32/lib/tinyusb/src/device/usbd_control.c **** // If the request's wLength is zero, a status packet is sent instead.
 106:/Users/joostbooy/Desktop/Code/stm32/lib/tinyusb/src/device/usbd_control.c **** bool tud_control_xfer(uint8_t rhport, tusb_control_request_t const * request, void* buffer, uint16_
 107:/Users/joostbooy/Desktop/Code/stm32/lib/tinyusb/src/device/usbd_control.c **** {
 329              		.loc 1 107 1 is_stmt 1 view -0
 330              		.cfi_startproc
 331              		@ args = 0, pretend = 0, frame = 0
 332              		@ frame_needed = 0, uses_anonymous_args = 0
 108:/Users/joostbooy/Desktop/Code/stm32/lib/tinyusb/src/device/usbd_control.c ****   _ctrl_xfer.request       = (*request);
 333              		.loc 1 108 3 view .LVU79
 107:/Users/joostbooy/Desktop/Code/stm32/lib/tinyusb/src/device/usbd_control.c ****   _ctrl_xfer.request       = (*request);
 334              		.loc 1 107 1 is_stmt 0 view .LVU80
 335 0000 F8B5     		push	{r3, r4, r5, r6, r7, lr}
 336              		.cfi_def_cfa_offset 24
 337              		.cfi_offset 3, -24
 338              		.cfi_offset 4, -20
 339              		.cfi_offset 5, -16
 340              		.cfi_offset 6, -12
 341              		.cfi_offset 7, -8
 342              		.cfi_offset 14, -4
 107:/Users/joostbooy/Desktop/Code/stm32/lib/tinyusb/src/device/usbd_control.c ****   _ctrl_xfer.request       = (*request);
 343              		.loc 1 107 1 view .LVU81
 344 0002 0C46     		mov	r4, r1
 345              		.loc 1 108 28 view .LVU82
 346 0004 184D     		ldr	r5, .L42
 347 0006 4968     		ldr	r1, [r1, #4]	@ unaligned
 348              	.LVL25:
 107:/Users/joostbooy/Desktop/Code/stm32/lib/tinyusb/src/device/usbd_control.c ****   _ctrl_xfer.request       = (*request);
 349              		.loc 1 107 1 view .LVU83
 350 0008 0746     		mov	r7, r0
 351              		.loc 1 108 28 view .LVU84
 352 000a 2068     		ldr	r0, [r4]	@ unaligned
 353              	.LVL26:
 109:/Users/joostbooy/Desktop/Code/stm32/lib/tinyusb/src/device/usbd_control.c ****   _ctrl_xfer.buffer        = (uint8_t*) buffer;
 354              		.loc 1 109 28 view .LVU85
 355 000c AA60     		str	r2, [r5, #8]
 108:/Users/joostbooy/Desktop/Code/stm32/lib/tinyusb/src/device/usbd_control.c ****   _ctrl_xfer.request       = (*request);
 356              		.loc 1 108 28 view .LVU86
 357 000e 2E46     		mov	r6, r5
 358 0010 03C6     		stmia	r6!, {r0, r1}
 359              		.loc 1 109 3 is_stmt 1 view .LVU87
 110:/Users/joostbooy/Desktop/Code/stm32/lib/tinyusb/src/device/usbd_control.c ****   _ctrl_xfer.total_xferred = 0U;
 360              		.loc 1 110 3 view .LVU88
 361              		.loc 1 110 28 is_stmt 0 view .LVU89
 362 0012 0021     		movs	r1, #0
 363 0014 E981     		strh	r1, [r5, #14]	@ movhi
 111:/Users/joostbooy/Desktop/Code/stm32/lib/tinyusb/src/device/usbd_control.c ****   _ctrl_xfer.data_len      = tu_min16(len, request->wLength);
 364              		.loc 1 111 3 is_stmt 1 view .LVU90
 365              		.loc 1 111 30 is_stmt 0 view .LVU91
 366 0016 E688     		ldrh	r6, [r4, #6]	@ unaligned
 367              	.LVL27:
 368              	.LBB50:
 369              	.LBI50:
ARM GAS  /var/folders/84/_x1cyy_j36g486tldtwl37280000gn/T//cc4xoZU1.s 			page 13


 370              		.loc 2 149 46 is_stmt 1 view .LVU92
 371              	.LBB51:
 372              		.loc 2 149 82 view .LVU93
 373              		.loc 2 149 101 is_stmt 0 view .LVU94
 374 0018 B342     		cmp	r3, r6
 375 001a 28BF     		it	cs
 376 001c 3346     		movcs	r3, r6
 377              	.LVL28:
 378              		.loc 2 149 101 view .LVU95
 379              	.LBE51:
 380              	.LBE50:
 107:/Users/joostbooy/Desktop/Code/stm32/lib/tinyusb/src/device/usbd_control.c ****   _ctrl_xfer.request       = (*request);
 381              		.loc 1 107 1 view .LVU96
 382 001e 3846     		mov	r0, r7
 383              		.loc 1 111 28 view .LVU97
 384 0020 AB81     		strh	r3, [r5, #12]	@ movhi
 112:/Users/joostbooy/Desktop/Code/stm32/lib/tinyusb/src/device/usbd_control.c **** 
 113:/Users/joostbooy/Desktop/Code/stm32/lib/tinyusb/src/device/usbd_control.c ****   if (request->wLength > 0U)
 385              		.loc 1 113 3 is_stmt 1 view .LVU98
 386              		.loc 1 113 6 is_stmt 0 view .LVU99
 387 0022 36B1     		cbz	r6, .L19
 114:/Users/joostbooy/Desktop/Code/stm32/lib/tinyusb/src/device/usbd_control.c ****   {
 115:/Users/joostbooy/Desktop/Code/stm32/lib/tinyusb/src/device/usbd_control.c ****     if(_ctrl_xfer.data_len > 0U)
 388              		.loc 1 115 5 is_stmt 1 view .LVU100
 389              		.loc 1 115 7 is_stmt 0 view .LVU101
 390 0024 03B1     		cbz	r3, .L20
 116:/Users/joostbooy/Desktop/Code/stm32/lib/tinyusb/src/device/usbd_control.c ****     {
 117:/Users/joostbooy/Desktop/Code/stm32/lib/tinyusb/src/device/usbd_control.c ****       TU_ASSERT(buffer);
 391              		.loc 1 117 7 is_stmt 1 view .LVU102
 392              		.loc 1 117 7 view .LVU103
 393 0026 B2B1     		cbz	r2, .L41
 394              	.L20:
 395              		.loc 1 117 7 discriminator 2 view .LVU104
 118:/Users/joostbooy/Desktop/Code/stm32/lib/tinyusb/src/device/usbd_control.c ****     }
 119:/Users/joostbooy/Desktop/Code/stm32/lib/tinyusb/src/device/usbd_control.c **** 
 120:/Users/joostbooy/Desktop/Code/stm32/lib/tinyusb/src/device/usbd_control.c **** //    TU_LOG2("  Control total data length is %u bytes\r\n", _ctrl_xfer.data_len);
 121:/Users/joostbooy/Desktop/Code/stm32/lib/tinyusb/src/device/usbd_control.c **** 
 122:/Users/joostbooy/Desktop/Code/stm32/lib/tinyusb/src/device/usbd_control.c ****     // Data stage
 123:/Users/joostbooy/Desktop/Code/stm32/lib/tinyusb/src/device/usbd_control.c ****     TU_ASSERT( _data_stage_xact(rhport) );
 396              		.loc 1 123 5 discriminator 2 view .LVU105
 397              		.loc 1 123 5 discriminator 2 view .LVU106
 398 0028 FFF7FEFF 		bl	_data_stage_xact
 399              	.LVL29:
 400              		.loc 1 123 5 is_stmt 0 discriminator 2 view .LVU107
 401 002c 68B1     		cbz	r0, .L40
 402              	.L26:
 124:/Users/joostbooy/Desktop/Code/stm32/lib/tinyusb/src/device/usbd_control.c ****   }
 125:/Users/joostbooy/Desktop/Code/stm32/lib/tinyusb/src/device/usbd_control.c ****   else
 126:/Users/joostbooy/Desktop/Code/stm32/lib/tinyusb/src/device/usbd_control.c ****   {
 127:/Users/joostbooy/Desktop/Code/stm32/lib/tinyusb/src/device/usbd_control.c ****     // Status stage
 128:/Users/joostbooy/Desktop/Code/stm32/lib/tinyusb/src/device/usbd_control.c ****     TU_ASSERT( _status_stage_xact(rhport, request) );
 129:/Users/joostbooy/Desktop/Code/stm32/lib/tinyusb/src/device/usbd_control.c ****   }
 130:/Users/joostbooy/Desktop/Code/stm32/lib/tinyusb/src/device/usbd_control.c **** 
 131:/Users/joostbooy/Desktop/Code/stm32/lib/tinyusb/src/device/usbd_control.c ****   return true;
 403              		.loc 1 131 10 view .LVU108
 404 002e 0120     		movs	r0, #1
 132:/Users/joostbooy/Desktop/Code/stm32/lib/tinyusb/src/device/usbd_control.c **** }
ARM GAS  /var/folders/84/_x1cyy_j36g486tldtwl37280000gn/T//cc4xoZU1.s 			page 14


 405              		.loc 1 132 1 view .LVU109
 406 0030 F8BD     		pop	{r3, r4, r5, r6, r7, pc}
 407              	.LVL30:
 408              	.L19:
 128:/Users/joostbooy/Desktop/Code/stm32/lib/tinyusb/src/device/usbd_control.c ****   }
 409              		.loc 1 128 5 is_stmt 1 view .LVU110
 128:/Users/joostbooy/Desktop/Code/stm32/lib/tinyusb/src/device/usbd_control.c ****   }
 410              		.loc 1 128 5 view .LVU111
 411              	.LBB52:
 412              	.LBI52:
  66:/Users/joostbooy/Desktop/Code/stm32/lib/tinyusb/src/device/usbd_control.c **** {
 413              		.loc 1 66 20 view .LVU112
 414              	.LBB53:
  69:/Users/joostbooy/Desktop/Code/stm32/lib/tinyusb/src/device/usbd_control.c ****   return usbd_edpt_xfer(rhport, ep_addr, NULL, 0);
 415              		.loc 1 69 3 view .LVU113
  69:/Users/joostbooy/Desktop/Code/stm32/lib/tinyusb/src/device/usbd_control.c ****   return usbd_edpt_xfer(rhport, ep_addr, NULL, 0);
 416              		.loc 1 69 17 is_stmt 0 view .LVU114
 417 0032 94F90030 		ldrsb	r3, [r4]
 418 0036 002B     		cmp	r3, #0
 419              	.LVL31:
  70:/Users/joostbooy/Desktop/Code/stm32/lib/tinyusb/src/device/usbd_control.c **** }
 420              		.loc 1 70 3 is_stmt 1 view .LVU115
  70:/Users/joostbooy/Desktop/Code/stm32/lib/tinyusb/src/device/usbd_control.c **** }
 421              		.loc 1 70 10 is_stmt 0 view .LVU116
 422 0038 ACBF     		ite	ge
 423 003a 8021     		movge	r1, #128
 424 003c 0021     		movlt	r1, #0
 425 003e 3346     		mov	r3, r6
 426 0040 3246     		mov	r2, r6
 427              	.LVL32:
  70:/Users/joostbooy/Desktop/Code/stm32/lib/tinyusb/src/device/usbd_control.c **** }
 428              		.loc 1 70 10 view .LVU117
 429 0042 FFF7FEFF 		bl	usbd_edpt_xfer
 430              	.LVL33:
  70:/Users/joostbooy/Desktop/Code/stm32/lib/tinyusb/src/device/usbd_control.c **** }
 431              		.loc 1 70 10 view .LVU118
 432              	.LBE53:
 433              	.LBE52:
 128:/Users/joostbooy/Desktop/Code/stm32/lib/tinyusb/src/device/usbd_control.c ****   }
 434              		.loc 1 128 5 view .LVU119
 435 0046 0028     		cmp	r0, #0
 436 0048 F1D1     		bne	.L26
 437              	.LVL34:
 438              	.L40:
 128:/Users/joostbooy/Desktop/Code/stm32/lib/tinyusb/src/device/usbd_control.c ****   }
 439              		.loc 1 128 5 is_stmt 1 discriminator 1 view .LVU120
 128:/Users/joostbooy/Desktop/Code/stm32/lib/tinyusb/src/device/usbd_control.c ****   }
 440              		.loc 1 128 5 discriminator 1 view .LVU121
 128:/Users/joostbooy/Desktop/Code/stm32/lib/tinyusb/src/device/usbd_control.c ****   }
 441              		.loc 1 128 5 discriminator 1 view .LVU122
 128:/Users/joostbooy/Desktop/Code/stm32/lib/tinyusb/src/device/usbd_control.c ****   }
 442              		.loc 1 128 5 discriminator 1 view .LVU123
 443              	.LBB54:
 128:/Users/joostbooy/Desktop/Code/stm32/lib/tinyusb/src/device/usbd_control.c ****   }
 444              		.loc 1 128 5 discriminator 1 view .LVU124
 128:/Users/joostbooy/Desktop/Code/stm32/lib/tinyusb/src/device/usbd_control.c ****   }
 445              		.loc 1 128 5 discriminator 1 view .LVU125
ARM GAS  /var/folders/84/_x1cyy_j36g486tldtwl37280000gn/T//cc4xoZU1.s 			page 15


 446 004a 0849     		ldr	r1, .L42+4
 447 004c 0A68     		ldr	r2, [r1]
 448 004e D307     		lsls	r3, r2, #31
 449 0050 05D5     		bpl	.L24
 128:/Users/joostbooy/Desktop/Code/stm32/lib/tinyusb/src/device/usbd_control.c ****   }
 450              		.loc 1 128 5 discriminator 3 view .LVU126
 451              		.syntax unified
 452              	@ 128 "/Users/joostbooy/Desktop/Code/stm32/lib/tinyusb/src/device/usbd_control.c" 1
 453 0052 00BE     		BKPT #0
 454              	
 455              	@ 0 "" 2
 456              		.thumb
 457              		.syntax unified
 458              	.LBE54:
 459              		.loc 1 132 1 is_stmt 0 discriminator 3 view .LVU127
 460 0054 F8BD     		pop	{r3, r4, r5, r6, r7, pc}
 461              	.LVL35:
 462              	.L41:
 117:/Users/joostbooy/Desktop/Code/stm32/lib/tinyusb/src/device/usbd_control.c ****     }
 463              		.loc 1 117 7 is_stmt 1 discriminator 1 view .LVU128
 117:/Users/joostbooy/Desktop/Code/stm32/lib/tinyusb/src/device/usbd_control.c ****     }
 464              		.loc 1 117 7 discriminator 1 view .LVU129
 117:/Users/joostbooy/Desktop/Code/stm32/lib/tinyusb/src/device/usbd_control.c ****     }
 465              		.loc 1 117 7 discriminator 1 view .LVU130
 117:/Users/joostbooy/Desktop/Code/stm32/lib/tinyusb/src/device/usbd_control.c ****     }
 466              		.loc 1 117 7 discriminator 1 view .LVU131
 467              	.LBB55:
 117:/Users/joostbooy/Desktop/Code/stm32/lib/tinyusb/src/device/usbd_control.c ****     }
 468              		.loc 1 117 7 discriminator 1 view .LVU132
 117:/Users/joostbooy/Desktop/Code/stm32/lib/tinyusb/src/device/usbd_control.c ****     }
 469              		.loc 1 117 7 discriminator 1 view .LVU133
 470 0056 0548     		ldr	r0, .L42+4
 471 0058 0468     		ldr	r4, [r0]
 472              	.LVL36:
 117:/Users/joostbooy/Desktop/Code/stm32/lib/tinyusb/src/device/usbd_control.c ****     }
 473              		.loc 1 117 7 is_stmt 0 discriminator 1 view .LVU134
 474 005a E107     		lsls	r1, r4, #31
 475 005c 01D4     		bmi	.L21
 476              	.LVL37:
 477              	.L24:
 117:/Users/joostbooy/Desktop/Code/stm32/lib/tinyusb/src/device/usbd_control.c ****     }
 478              		.loc 1 117 7 discriminator 1 view .LVU135
 479              	.LBE55:
 117:/Users/joostbooy/Desktop/Code/stm32/lib/tinyusb/src/device/usbd_control.c ****     }
 480              		.loc 1 117 7 view .LVU136
 481 005e 0020     		movs	r0, #0
 482              		.loc 1 132 1 view .LVU137
 483 0060 F8BD     		pop	{r3, r4, r5, r6, r7, pc}
 484              	.LVL38:
 485              	.L21:
 486              	.LBB56:
 117:/Users/joostbooy/Desktop/Code/stm32/lib/tinyusb/src/device/usbd_control.c ****     }
 487              		.loc 1 117 7 is_stmt 1 discriminator 3 view .LVU138
 488              		.syntax unified
 489              	@ 117 "/Users/joostbooy/Desktop/Code/stm32/lib/tinyusb/src/device/usbd_control.c" 1
 490 0062 00BE     		BKPT #0
 491              	
ARM GAS  /var/folders/84/_x1cyy_j36g486tldtwl37280000gn/T//cc4xoZU1.s 			page 16


 492              	@ 0 "" 2
 493              		.thumb
 494              		.syntax unified
 495              	.LBE56:
 496 0064 1046     		mov	r0, r2
 497              		.loc 1 132 1 is_stmt 0 discriminator 3 view .LVU139
 498 0066 F8BD     		pop	{r3, r4, r5, r6, r7, pc}
 499              	.L43:
 500              		.align	2
 501              	.L42:
 502 0068 00000000 		.word	.LANCHOR1
 503 006c F0ED00E0 		.word	-536810000
 504              		.cfi_endproc
 505              	.LFE79:
 507              		.section	.text.usbd_control_reset,"ax",%progbits
 508              		.align	1
 509              		.p2align 2,,3
 510              		.global	usbd_control_reset
 511              		.syntax unified
 512              		.thumb
 513              		.thumb_func
 514              		.fpu fpv4-sp-d16
 516              	usbd_control_reset:
 517              	.LFB80:
 133:/Users/joostbooy/Desktop/Code/stm32/lib/tinyusb/src/device/usbd_control.c **** 
 134:/Users/joostbooy/Desktop/Code/stm32/lib/tinyusb/src/device/usbd_control.c **** //--------------------------------------------------------------------+
 135:/Users/joostbooy/Desktop/Code/stm32/lib/tinyusb/src/device/usbd_control.c **** // USBD API
 136:/Users/joostbooy/Desktop/Code/stm32/lib/tinyusb/src/device/usbd_control.c **** //--------------------------------------------------------------------+
 137:/Users/joostbooy/Desktop/Code/stm32/lib/tinyusb/src/device/usbd_control.c **** 
 138:/Users/joostbooy/Desktop/Code/stm32/lib/tinyusb/src/device/usbd_control.c **** void usbd_control_reset(void);
 139:/Users/joostbooy/Desktop/Code/stm32/lib/tinyusb/src/device/usbd_control.c **** void usbd_control_set_request(tusb_control_request_t const *request);
 140:/Users/joostbooy/Desktop/Code/stm32/lib/tinyusb/src/device/usbd_control.c **** void usbd_control_set_complete_callback( usbd_control_xfer_cb_t fp );
 141:/Users/joostbooy/Desktop/Code/stm32/lib/tinyusb/src/device/usbd_control.c **** bool usbd_control_xfer_cb (uint8_t rhport, uint8_t ep_addr, xfer_result_t event, uint32_t xferred_b
 142:/Users/joostbooy/Desktop/Code/stm32/lib/tinyusb/src/device/usbd_control.c **** 
 143:/Users/joostbooy/Desktop/Code/stm32/lib/tinyusb/src/device/usbd_control.c **** void usbd_control_reset(void)
 144:/Users/joostbooy/Desktop/Code/stm32/lib/tinyusb/src/device/usbd_control.c **** {
 518              		.loc 1 144 1 is_stmt 1 view -0
 519              		.cfi_startproc
 520              		@ args = 0, pretend = 0, frame = 0
 521              		@ frame_needed = 0, uses_anonymous_args = 0
 522              		@ link register save eliminated.
 145:/Users/joostbooy/Desktop/Code/stm32/lib/tinyusb/src/device/usbd_control.c ****   tu_varclr(&_ctrl_xfer);
 523              		.loc 1 145 3 view .LVU141
 524 0000 034B     		ldr	r3, .L45
 525 0002 0022     		movs	r2, #0
 526 0004 C3E90022 		strd	r2, r2, [r3]
 527 0008 C3E90222 		strd	r2, r2, [r3, #8]
 528 000c 1A61     		str	r2, [r3, #16]
 146:/Users/joostbooy/Desktop/Code/stm32/lib/tinyusb/src/device/usbd_control.c **** }
 529              		.loc 1 146 1 is_stmt 0 view .LVU142
 530 000e 7047     		bx	lr
 531              	.L46:
 532              		.align	2
 533              	.L45:
 534 0010 00000000 		.word	.LANCHOR1
 535              		.cfi_endproc
 536              	.LFE80:
ARM GAS  /var/folders/84/_x1cyy_j36g486tldtwl37280000gn/T//cc4xoZU1.s 			page 17


 538              		.section	.text.usbd_control_set_complete_callback,"ax",%progbits
 539              		.align	1
 540              		.p2align 2,,3
 541              		.global	usbd_control_set_complete_callback
 542              		.syntax unified
 543              		.thumb
 544              		.thumb_func
 545              		.fpu fpv4-sp-d16
 547              	usbd_control_set_complete_callback:
 548              	.LVL39:
 549              	.LFB81:
 147:/Users/joostbooy/Desktop/Code/stm32/lib/tinyusb/src/device/usbd_control.c **** 
 148:/Users/joostbooy/Desktop/Code/stm32/lib/tinyusb/src/device/usbd_control.c **** // Set complete callback
 149:/Users/joostbooy/Desktop/Code/stm32/lib/tinyusb/src/device/usbd_control.c **** void usbd_control_set_complete_callback( usbd_control_xfer_cb_t fp )
 150:/Users/joostbooy/Desktop/Code/stm32/lib/tinyusb/src/device/usbd_control.c **** {
 550              		.loc 1 150 1 is_stmt 1 view -0
 551              		.cfi_startproc
 552              		@ args = 0, pretend = 0, frame = 0
 553              		@ frame_needed = 0, uses_anonymous_args = 0
 554              		@ link register save eliminated.
 151:/Users/joostbooy/Desktop/Code/stm32/lib/tinyusb/src/device/usbd_control.c ****   _ctrl_xfer.complete_cb = fp;
 555              		.loc 1 151 3 view .LVU144
 556              		.loc 1 151 26 is_stmt 0 view .LVU145
 557 0000 014B     		ldr	r3, .L48
 558 0002 1861     		str	r0, [r3, #16]
 152:/Users/joostbooy/Desktop/Code/stm32/lib/tinyusb/src/device/usbd_control.c **** }
 559              		.loc 1 152 1 view .LVU146
 560 0004 7047     		bx	lr
 561              	.L49:
 562 0006 00BF     		.align	2
 563              	.L48:
 564 0008 00000000 		.word	.LANCHOR1
 565              		.cfi_endproc
 566              	.LFE81:
 568              		.section	.text.usbd_control_set_request,"ax",%progbits
 569              		.align	1
 570              		.p2align 2,,3
 571              		.global	usbd_control_set_request
 572              		.syntax unified
 573              		.thumb
 574              		.thumb_func
 575              		.fpu fpv4-sp-d16
 577              	usbd_control_set_request:
 578              	.LVL40:
 579              	.LFB82:
 153:/Users/joostbooy/Desktop/Code/stm32/lib/tinyusb/src/device/usbd_control.c **** 
 154:/Users/joostbooy/Desktop/Code/stm32/lib/tinyusb/src/device/usbd_control.c **** // for dcd_set_address where DCD is responsible for status response
 155:/Users/joostbooy/Desktop/Code/stm32/lib/tinyusb/src/device/usbd_control.c **** void usbd_control_set_request(tusb_control_request_t const *request)
 156:/Users/joostbooy/Desktop/Code/stm32/lib/tinyusb/src/device/usbd_control.c **** {
 580              		.loc 1 156 1 is_stmt 1 view -0
 581              		.cfi_startproc
 582              		@ args = 0, pretend = 0, frame = 0
 583              		@ frame_needed = 0, uses_anonymous_args = 0
 584              		@ link register save eliminated.
 157:/Users/joostbooy/Desktop/Code/stm32/lib/tinyusb/src/device/usbd_control.c ****   _ctrl_xfer.request       = (*request);
 585              		.loc 1 157 3 view .LVU148
 156:/Users/joostbooy/Desktop/Code/stm32/lib/tinyusb/src/device/usbd_control.c ****   _ctrl_xfer.request       = (*request);
ARM GAS  /var/folders/84/_x1cyy_j36g486tldtwl37280000gn/T//cc4xoZU1.s 			page 18


 586              		.loc 1 156 1 is_stmt 0 view .LVU149
 587 0000 0346     		mov	r3, r0
 588              		.loc 1 157 28 view .LVU150
 589 0002 054A     		ldr	r2, .L51
 590 0004 0068     		ldr	r0, [r0]	@ unaligned
 591              	.LVL41:
 592              		.loc 1 157 28 view .LVU151
 593 0006 5968     		ldr	r1, [r3, #4]	@ unaligned
 594 0008 9446     		mov	ip, r2
 595 000a ACE80300 		stmia	ip!, {r0, r1}
 158:/Users/joostbooy/Desktop/Code/stm32/lib/tinyusb/src/device/usbd_control.c ****   _ctrl_xfer.buffer        = NULL;
 596              		.loc 1 158 3 is_stmt 1 view .LVU152
 159:/Users/joostbooy/Desktop/Code/stm32/lib/tinyusb/src/device/usbd_control.c ****   _ctrl_xfer.total_xferred = 0;
 597              		.loc 1 159 3 view .LVU153
 160:/Users/joostbooy/Desktop/Code/stm32/lib/tinyusb/src/device/usbd_control.c ****   _ctrl_xfer.data_len      = 0;
 598              		.loc 1 160 3 view .LVU154
 158:/Users/joostbooy/Desktop/Code/stm32/lib/tinyusb/src/device/usbd_control.c ****   _ctrl_xfer.buffer        = NULL;
 599              		.loc 1 158 28 is_stmt 0 view .LVU155
 600 000e 0020     		movs	r0, #0
 601              		.loc 1 160 28 view .LVU156
 602 0010 C2E90200 		strd	r0, r0, [r2, #8]
 161:/Users/joostbooy/Desktop/Code/stm32/lib/tinyusb/src/device/usbd_control.c **** }
 603              		.loc 1 161 1 view .LVU157
 604 0014 7047     		bx	lr
 605              	.L52:
 606 0016 00BF     		.align	2
 607              	.L51:
 608 0018 00000000 		.word	.LANCHOR1
 609              		.cfi_endproc
 610              	.LFE82:
 612              		.section	.text.usbd_control_xfer_cb,"ax",%progbits
 613              		.align	1
 614              		.p2align 2,,3
 615              		.global	usbd_control_xfer_cb
 616              		.syntax unified
 617              		.thumb
 618              		.thumb_func
 619              		.fpu fpv4-sp-d16
 621              	usbd_control_xfer_cb:
 622              	.LVL42:
 623              	.LFB83:
 162:/Users/joostbooy/Desktop/Code/stm32/lib/tinyusb/src/device/usbd_control.c **** 
 163:/Users/joostbooy/Desktop/Code/stm32/lib/tinyusb/src/device/usbd_control.c **** // callback when a transaction complete on
 164:/Users/joostbooy/Desktop/Code/stm32/lib/tinyusb/src/device/usbd_control.c **** // - DATA stage of control endpoint or
 165:/Users/joostbooy/Desktop/Code/stm32/lib/tinyusb/src/device/usbd_control.c **** // - Status stage
 166:/Users/joostbooy/Desktop/Code/stm32/lib/tinyusb/src/device/usbd_control.c **** bool usbd_control_xfer_cb (uint8_t rhport, uint8_t ep_addr, xfer_result_t result, uint32_t xferred_
 167:/Users/joostbooy/Desktop/Code/stm32/lib/tinyusb/src/device/usbd_control.c **** {
 624              		.loc 1 167 1 is_stmt 1 view -0
 625              		.cfi_startproc
 626              		@ args = 0, pretend = 0, frame = 0
 627              		@ frame_needed = 0, uses_anonymous_args = 0
 168:/Users/joostbooy/Desktop/Code/stm32/lib/tinyusb/src/device/usbd_control.c ****   (void) result;
 628              		.loc 1 168 3 view .LVU159
 169:/Users/joostbooy/Desktop/Code/stm32/lib/tinyusb/src/device/usbd_control.c **** 
 170:/Users/joostbooy/Desktop/Code/stm32/lib/tinyusb/src/device/usbd_control.c ****   // Endpoint Address is opposite to direction bit, this is Status Stage complete event
 171:/Users/joostbooy/Desktop/Code/stm32/lib/tinyusb/src/device/usbd_control.c ****   if ( tu_edpt_dir(ep_addr) != _ctrl_xfer.request.bmRequestType_bit.direction )
 629              		.loc 1 171 3 view .LVU160
ARM GAS  /var/folders/84/_x1cyy_j36g486tldtwl37280000gn/T//cc4xoZU1.s 			page 19


 167:/Users/joostbooy/Desktop/Code/stm32/lib/tinyusb/src/device/usbd_control.c ****   (void) result;
 630              		.loc 1 167 1 is_stmt 0 view .LVU161
 631 0000 F8B5     		push	{r3, r4, r5, r6, r7, lr}
 632              		.cfi_def_cfa_offset 24
 633              		.cfi_offset 3, -24
 634              		.cfi_offset 4, -20
 635              		.cfi_offset 5, -16
 636              		.cfi_offset 6, -12
 637              		.cfi_offset 7, -8
 638              		.cfi_offset 14, -4
 639              		.loc 1 171 68 view .LVU162
 640 0002 2E4C     		ldr	r4, .L91
 641              	.LVL43:
 642              	.LBB57:
 643              	.LBI57:
 644              		.file 3 "/Users/joostbooy/Desktop/Code/stm32/lib/tinyusb/src/common/tusb_types.h"
   1:/Users/joostbooy/Desktop/Code/stm32/lib/tinyusb/src/common/tusb_types.h **** /*
   2:/Users/joostbooy/Desktop/Code/stm32/lib/tinyusb/src/common/tusb_types.h ****  * The MIT License (MIT)
   3:/Users/joostbooy/Desktop/Code/stm32/lib/tinyusb/src/common/tusb_types.h ****  *
   4:/Users/joostbooy/Desktop/Code/stm32/lib/tinyusb/src/common/tusb_types.h ****  * Copyright (c) 2019 Ha Thach (tinyusb.org)
   5:/Users/joostbooy/Desktop/Code/stm32/lib/tinyusb/src/common/tusb_types.h ****  *
   6:/Users/joostbooy/Desktop/Code/stm32/lib/tinyusb/src/common/tusb_types.h ****  * Permission is hereby granted, free of charge, to any person obtaining a copy
   7:/Users/joostbooy/Desktop/Code/stm32/lib/tinyusb/src/common/tusb_types.h ****  * of this software and associated documentation files (the "Software"), to deal
   8:/Users/joostbooy/Desktop/Code/stm32/lib/tinyusb/src/common/tusb_types.h ****  * in the Software without restriction, including without limitation the rights
   9:/Users/joostbooy/Desktop/Code/stm32/lib/tinyusb/src/common/tusb_types.h ****  * to use, copy, modify, merge, publish, distribute, sublicense, and/or sell
  10:/Users/joostbooy/Desktop/Code/stm32/lib/tinyusb/src/common/tusb_types.h ****  * copies of the Software, and to permit persons to whom the Software is
  11:/Users/joostbooy/Desktop/Code/stm32/lib/tinyusb/src/common/tusb_types.h ****  * furnished to do so, subject to the following conditions:
  12:/Users/joostbooy/Desktop/Code/stm32/lib/tinyusb/src/common/tusb_types.h ****  *
  13:/Users/joostbooy/Desktop/Code/stm32/lib/tinyusb/src/common/tusb_types.h ****  * The above copyright notice and this permission notice shall be included in
  14:/Users/joostbooy/Desktop/Code/stm32/lib/tinyusb/src/common/tusb_types.h ****  * all copies or substantial portions of the Software.
  15:/Users/joostbooy/Desktop/Code/stm32/lib/tinyusb/src/common/tusb_types.h ****  *
  16:/Users/joostbooy/Desktop/Code/stm32/lib/tinyusb/src/common/tusb_types.h ****  * THE SOFTWARE IS PROVIDED "AS IS", WITHOUT WARRANTY OF ANY KIND, EXPRESS OR
  17:/Users/joostbooy/Desktop/Code/stm32/lib/tinyusb/src/common/tusb_types.h ****  * IMPLIED, INCLUDING BUT NOT LIMITED TO THE WARRANTIES OF MERCHANTABILITY,
  18:/Users/joostbooy/Desktop/Code/stm32/lib/tinyusb/src/common/tusb_types.h ****  * FITNESS FOR A PARTICULAR PURPOSE AND NONINFRINGEMENT. IN NO EVENT SHALL THE
  19:/Users/joostbooy/Desktop/Code/stm32/lib/tinyusb/src/common/tusb_types.h ****  * AUTHORS OR COPYRIGHT HOLDERS BE LIABLE FOR ANY CLAIM, DAMAGES OR OTHER
  20:/Users/joostbooy/Desktop/Code/stm32/lib/tinyusb/src/common/tusb_types.h ****  * LIABILITY, WHETHER IN AN ACTION OF CONTRACT, TORT OR OTHERWISE, ARISING FROM,
  21:/Users/joostbooy/Desktop/Code/stm32/lib/tinyusb/src/common/tusb_types.h ****  * OUT OF OR IN CONNECTION WITH THE SOFTWARE OR THE USE OR OTHER DEALINGS IN
  22:/Users/joostbooy/Desktop/Code/stm32/lib/tinyusb/src/common/tusb_types.h ****  * THE SOFTWARE.
  23:/Users/joostbooy/Desktop/Code/stm32/lib/tinyusb/src/common/tusb_types.h ****  *
  24:/Users/joostbooy/Desktop/Code/stm32/lib/tinyusb/src/common/tusb_types.h ****  * This file is part of the TinyUSB stack.
  25:/Users/joostbooy/Desktop/Code/stm32/lib/tinyusb/src/common/tusb_types.h ****  */
  26:/Users/joostbooy/Desktop/Code/stm32/lib/tinyusb/src/common/tusb_types.h **** 
  27:/Users/joostbooy/Desktop/Code/stm32/lib/tinyusb/src/common/tusb_types.h **** /** \ingroup group_usb_definitions
  28:/Users/joostbooy/Desktop/Code/stm32/lib/tinyusb/src/common/tusb_types.h ****  *  \defgroup USBDef_Type USB Types
  29:/Users/joostbooy/Desktop/Code/stm32/lib/tinyusb/src/common/tusb_types.h ****  *  @{ */
  30:/Users/joostbooy/Desktop/Code/stm32/lib/tinyusb/src/common/tusb_types.h **** 
  31:/Users/joostbooy/Desktop/Code/stm32/lib/tinyusb/src/common/tusb_types.h **** #ifndef _TUSB_TYPES_H_
  32:/Users/joostbooy/Desktop/Code/stm32/lib/tinyusb/src/common/tusb_types.h **** #define _TUSB_TYPES_H_
  33:/Users/joostbooy/Desktop/Code/stm32/lib/tinyusb/src/common/tusb_types.h **** 
  34:/Users/joostbooy/Desktop/Code/stm32/lib/tinyusb/src/common/tusb_types.h **** #include <stdbool.h>
  35:/Users/joostbooy/Desktop/Code/stm32/lib/tinyusb/src/common/tusb_types.h **** #include <stdint.h>
  36:/Users/joostbooy/Desktop/Code/stm32/lib/tinyusb/src/common/tusb_types.h **** #include "tusb_compiler.h"
  37:/Users/joostbooy/Desktop/Code/stm32/lib/tinyusb/src/common/tusb_types.h **** 
  38:/Users/joostbooy/Desktop/Code/stm32/lib/tinyusb/src/common/tusb_types.h **** #ifdef __cplusplus
  39:/Users/joostbooy/Desktop/Code/stm32/lib/tinyusb/src/common/tusb_types.h ****  extern "C" {
  40:/Users/joostbooy/Desktop/Code/stm32/lib/tinyusb/src/common/tusb_types.h **** #endif
  41:/Users/joostbooy/Desktop/Code/stm32/lib/tinyusb/src/common/tusb_types.h **** 
ARM GAS  /var/folders/84/_x1cyy_j36g486tldtwl37280000gn/T//cc4xoZU1.s 			page 20


  42:/Users/joostbooy/Desktop/Code/stm32/lib/tinyusb/src/common/tusb_types.h **** /*------------------------------------------------------------------*/
  43:/Users/joostbooy/Desktop/Code/stm32/lib/tinyusb/src/common/tusb_types.h **** /* CONSTANTS
  44:/Users/joostbooy/Desktop/Code/stm32/lib/tinyusb/src/common/tusb_types.h ****  *------------------------------------------------------------------*/
  45:/Users/joostbooy/Desktop/Code/stm32/lib/tinyusb/src/common/tusb_types.h **** 
  46:/Users/joostbooy/Desktop/Code/stm32/lib/tinyusb/src/common/tusb_types.h **** /// defined base on EHCI specs value for Endpoint Speed
  47:/Users/joostbooy/Desktop/Code/stm32/lib/tinyusb/src/common/tusb_types.h **** typedef enum
  48:/Users/joostbooy/Desktop/Code/stm32/lib/tinyusb/src/common/tusb_types.h **** {
  49:/Users/joostbooy/Desktop/Code/stm32/lib/tinyusb/src/common/tusb_types.h ****   TUSB_SPEED_FULL = 0,
  50:/Users/joostbooy/Desktop/Code/stm32/lib/tinyusb/src/common/tusb_types.h ****   TUSB_SPEED_LOW  = 1,
  51:/Users/joostbooy/Desktop/Code/stm32/lib/tinyusb/src/common/tusb_types.h ****   TUSB_SPEED_HIGH = 2,
  52:/Users/joostbooy/Desktop/Code/stm32/lib/tinyusb/src/common/tusb_types.h ****   TUSB_SPEED_INVALID = 0xff,
  53:/Users/joostbooy/Desktop/Code/stm32/lib/tinyusb/src/common/tusb_types.h **** }tusb_speed_t;
  54:/Users/joostbooy/Desktop/Code/stm32/lib/tinyusb/src/common/tusb_types.h **** 
  55:/Users/joostbooy/Desktop/Code/stm32/lib/tinyusb/src/common/tusb_types.h **** /// defined base on USB Specs Endpoint's bmAttributes
  56:/Users/joostbooy/Desktop/Code/stm32/lib/tinyusb/src/common/tusb_types.h **** typedef enum
  57:/Users/joostbooy/Desktop/Code/stm32/lib/tinyusb/src/common/tusb_types.h **** {
  58:/Users/joostbooy/Desktop/Code/stm32/lib/tinyusb/src/common/tusb_types.h ****   TUSB_XFER_CONTROL = 0 ,
  59:/Users/joostbooy/Desktop/Code/stm32/lib/tinyusb/src/common/tusb_types.h ****   TUSB_XFER_ISOCHRONOUS ,
  60:/Users/joostbooy/Desktop/Code/stm32/lib/tinyusb/src/common/tusb_types.h ****   TUSB_XFER_BULK        ,
  61:/Users/joostbooy/Desktop/Code/stm32/lib/tinyusb/src/common/tusb_types.h ****   TUSB_XFER_INTERRUPT
  62:/Users/joostbooy/Desktop/Code/stm32/lib/tinyusb/src/common/tusb_types.h **** }tusb_xfer_type_t;
  63:/Users/joostbooy/Desktop/Code/stm32/lib/tinyusb/src/common/tusb_types.h **** 
  64:/Users/joostbooy/Desktop/Code/stm32/lib/tinyusb/src/common/tusb_types.h **** typedef enum
  65:/Users/joostbooy/Desktop/Code/stm32/lib/tinyusb/src/common/tusb_types.h **** {
  66:/Users/joostbooy/Desktop/Code/stm32/lib/tinyusb/src/common/tusb_types.h ****   TUSB_DIR_OUT = 0,
  67:/Users/joostbooy/Desktop/Code/stm32/lib/tinyusb/src/common/tusb_types.h ****   TUSB_DIR_IN  = 1,
  68:/Users/joostbooy/Desktop/Code/stm32/lib/tinyusb/src/common/tusb_types.h **** 
  69:/Users/joostbooy/Desktop/Code/stm32/lib/tinyusb/src/common/tusb_types.h ****   TUSB_DIR_IN_MASK = 0x80
  70:/Users/joostbooy/Desktop/Code/stm32/lib/tinyusb/src/common/tusb_types.h **** }tusb_dir_t;
  71:/Users/joostbooy/Desktop/Code/stm32/lib/tinyusb/src/common/tusb_types.h **** 
  72:/Users/joostbooy/Desktop/Code/stm32/lib/tinyusb/src/common/tusb_types.h **** enum
  73:/Users/joostbooy/Desktop/Code/stm32/lib/tinyusb/src/common/tusb_types.h **** {
  74:/Users/joostbooy/Desktop/Code/stm32/lib/tinyusb/src/common/tusb_types.h ****   TUSB_EPSIZE_BULK_FS = 64,
  75:/Users/joostbooy/Desktop/Code/stm32/lib/tinyusb/src/common/tusb_types.h ****   TUSB_EPSIZE_BULK_HS= 512,
  76:/Users/joostbooy/Desktop/Code/stm32/lib/tinyusb/src/common/tusb_types.h **** 
  77:/Users/joostbooy/Desktop/Code/stm32/lib/tinyusb/src/common/tusb_types.h ****   TUSB_EPSIZE_ISO_FS_MAX = 1023,
  78:/Users/joostbooy/Desktop/Code/stm32/lib/tinyusb/src/common/tusb_types.h ****   TUSB_EPSIZE_ISO_HS_MAX = 1024,
  79:/Users/joostbooy/Desktop/Code/stm32/lib/tinyusb/src/common/tusb_types.h **** };
  80:/Users/joostbooy/Desktop/Code/stm32/lib/tinyusb/src/common/tusb_types.h **** 
  81:/Users/joostbooy/Desktop/Code/stm32/lib/tinyusb/src/common/tusb_types.h **** /// Isochronous End Point Attributes
  82:/Users/joostbooy/Desktop/Code/stm32/lib/tinyusb/src/common/tusb_types.h **** typedef enum
  83:/Users/joostbooy/Desktop/Code/stm32/lib/tinyusb/src/common/tusb_types.h **** {
  84:/Users/joostbooy/Desktop/Code/stm32/lib/tinyusb/src/common/tusb_types.h ****   TUSB_ISO_EP_ATT_NO_SYNC         = 0x00,
  85:/Users/joostbooy/Desktop/Code/stm32/lib/tinyusb/src/common/tusb_types.h ****   TUSB_ISO_EP_ATT_ASYNCHRONOUS    = 0x04,
  86:/Users/joostbooy/Desktop/Code/stm32/lib/tinyusb/src/common/tusb_types.h ****   TUSB_ISO_EP_ATT_ADAPTIVE        = 0x08,
  87:/Users/joostbooy/Desktop/Code/stm32/lib/tinyusb/src/common/tusb_types.h ****   TUSB_ISO_EP_ATT_SYNCHRONOUS     = 0x0C,
  88:/Users/joostbooy/Desktop/Code/stm32/lib/tinyusb/src/common/tusb_types.h ****   TUSB_ISO_EP_ATT_DATA            = 0x00, ///< Data End Point
  89:/Users/joostbooy/Desktop/Code/stm32/lib/tinyusb/src/common/tusb_types.h ****   TUSB_ISO_EP_ATT_EXPLICIT_FB     = 0x10, ///< Feedback End Point
  90:/Users/joostbooy/Desktop/Code/stm32/lib/tinyusb/src/common/tusb_types.h ****   TUSB_ISO_EP_ATT_IMPLICIT_FB     = 0x20, ///< Data endpoint that also serves as an implicit feedba
  91:/Users/joostbooy/Desktop/Code/stm32/lib/tinyusb/src/common/tusb_types.h **** }tusb_iso_ep_attribute_t;
  92:/Users/joostbooy/Desktop/Code/stm32/lib/tinyusb/src/common/tusb_types.h **** 
  93:/Users/joostbooy/Desktop/Code/stm32/lib/tinyusb/src/common/tusb_types.h **** /// USB Descriptor Types
  94:/Users/joostbooy/Desktop/Code/stm32/lib/tinyusb/src/common/tusb_types.h **** typedef enum
  95:/Users/joostbooy/Desktop/Code/stm32/lib/tinyusb/src/common/tusb_types.h **** {
  96:/Users/joostbooy/Desktop/Code/stm32/lib/tinyusb/src/common/tusb_types.h ****   TUSB_DESC_DEVICE                = 0x01,
  97:/Users/joostbooy/Desktop/Code/stm32/lib/tinyusb/src/common/tusb_types.h ****   TUSB_DESC_CONFIGURATION         = 0x02,
  98:/Users/joostbooy/Desktop/Code/stm32/lib/tinyusb/src/common/tusb_types.h ****   TUSB_DESC_STRING                = 0x03,
ARM GAS  /var/folders/84/_x1cyy_j36g486tldtwl37280000gn/T//cc4xoZU1.s 			page 21


  99:/Users/joostbooy/Desktop/Code/stm32/lib/tinyusb/src/common/tusb_types.h ****   TUSB_DESC_INTERFACE             = 0x04,
 100:/Users/joostbooy/Desktop/Code/stm32/lib/tinyusb/src/common/tusb_types.h ****   TUSB_DESC_ENDPOINT              = 0x05,
 101:/Users/joostbooy/Desktop/Code/stm32/lib/tinyusb/src/common/tusb_types.h ****   TUSB_DESC_DEVICE_QUALIFIER      = 0x06,
 102:/Users/joostbooy/Desktop/Code/stm32/lib/tinyusb/src/common/tusb_types.h ****   TUSB_DESC_OTHER_SPEED_CONFIG    = 0x07,
 103:/Users/joostbooy/Desktop/Code/stm32/lib/tinyusb/src/common/tusb_types.h ****   TUSB_DESC_INTERFACE_POWER       = 0x08,
 104:/Users/joostbooy/Desktop/Code/stm32/lib/tinyusb/src/common/tusb_types.h ****   TUSB_DESC_OTG                   = 0x09,
 105:/Users/joostbooy/Desktop/Code/stm32/lib/tinyusb/src/common/tusb_types.h ****   TUSB_DESC_DEBUG                 = 0x0A,
 106:/Users/joostbooy/Desktop/Code/stm32/lib/tinyusb/src/common/tusb_types.h ****   TUSB_DESC_INTERFACE_ASSOCIATION = 0x0B,
 107:/Users/joostbooy/Desktop/Code/stm32/lib/tinyusb/src/common/tusb_types.h **** 
 108:/Users/joostbooy/Desktop/Code/stm32/lib/tinyusb/src/common/tusb_types.h ****   TUSB_DESC_BOS                   = 0x0F,
 109:/Users/joostbooy/Desktop/Code/stm32/lib/tinyusb/src/common/tusb_types.h ****   TUSB_DESC_DEVICE_CAPABILITY     = 0x10,
 110:/Users/joostbooy/Desktop/Code/stm32/lib/tinyusb/src/common/tusb_types.h **** 
 111:/Users/joostbooy/Desktop/Code/stm32/lib/tinyusb/src/common/tusb_types.h ****   TUSB_DESC_FUNCTIONAL            = 0x21,
 112:/Users/joostbooy/Desktop/Code/stm32/lib/tinyusb/src/common/tusb_types.h **** 
 113:/Users/joostbooy/Desktop/Code/stm32/lib/tinyusb/src/common/tusb_types.h ****   // Class Specific Descriptor
 114:/Users/joostbooy/Desktop/Code/stm32/lib/tinyusb/src/common/tusb_types.h ****   TUSB_DESC_CS_DEVICE             = 0x21,
 115:/Users/joostbooy/Desktop/Code/stm32/lib/tinyusb/src/common/tusb_types.h ****   TUSB_DESC_CS_CONFIGURATION      = 0x22,
 116:/Users/joostbooy/Desktop/Code/stm32/lib/tinyusb/src/common/tusb_types.h ****   TUSB_DESC_CS_STRING             = 0x23,
 117:/Users/joostbooy/Desktop/Code/stm32/lib/tinyusb/src/common/tusb_types.h ****   TUSB_DESC_CS_INTERFACE          = 0x24,
 118:/Users/joostbooy/Desktop/Code/stm32/lib/tinyusb/src/common/tusb_types.h ****   TUSB_DESC_CS_ENDPOINT           = 0x25,
 119:/Users/joostbooy/Desktop/Code/stm32/lib/tinyusb/src/common/tusb_types.h **** 
 120:/Users/joostbooy/Desktop/Code/stm32/lib/tinyusb/src/common/tusb_types.h ****   TUSB_DESC_SUPERSPEED_ENDPOINT_COMPANION     = 0x30,
 121:/Users/joostbooy/Desktop/Code/stm32/lib/tinyusb/src/common/tusb_types.h ****   TUSB_DESC_SUPERSPEED_ISO_ENDPOINT_COMPANION = 0x31
 122:/Users/joostbooy/Desktop/Code/stm32/lib/tinyusb/src/common/tusb_types.h **** }tusb_desc_type_t;
 123:/Users/joostbooy/Desktop/Code/stm32/lib/tinyusb/src/common/tusb_types.h **** 
 124:/Users/joostbooy/Desktop/Code/stm32/lib/tinyusb/src/common/tusb_types.h **** typedef enum
 125:/Users/joostbooy/Desktop/Code/stm32/lib/tinyusb/src/common/tusb_types.h **** {
 126:/Users/joostbooy/Desktop/Code/stm32/lib/tinyusb/src/common/tusb_types.h ****   TUSB_REQ_GET_STATUS        = 0  ,
 127:/Users/joostbooy/Desktop/Code/stm32/lib/tinyusb/src/common/tusb_types.h ****   TUSB_REQ_CLEAR_FEATURE     = 1  ,
 128:/Users/joostbooy/Desktop/Code/stm32/lib/tinyusb/src/common/tusb_types.h ****   TUSB_REQ_RESERVED          = 2  ,
 129:/Users/joostbooy/Desktop/Code/stm32/lib/tinyusb/src/common/tusb_types.h ****   TUSB_REQ_SET_FEATURE       = 3  ,
 130:/Users/joostbooy/Desktop/Code/stm32/lib/tinyusb/src/common/tusb_types.h ****   TUSB_REQ_RESERVED2         = 4  ,
 131:/Users/joostbooy/Desktop/Code/stm32/lib/tinyusb/src/common/tusb_types.h ****   TUSB_REQ_SET_ADDRESS       = 5  ,
 132:/Users/joostbooy/Desktop/Code/stm32/lib/tinyusb/src/common/tusb_types.h ****   TUSB_REQ_GET_DESCRIPTOR    = 6  ,
 133:/Users/joostbooy/Desktop/Code/stm32/lib/tinyusb/src/common/tusb_types.h ****   TUSB_REQ_SET_DESCRIPTOR    = 7  ,
 134:/Users/joostbooy/Desktop/Code/stm32/lib/tinyusb/src/common/tusb_types.h ****   TUSB_REQ_GET_CONFIGURATION = 8  ,
 135:/Users/joostbooy/Desktop/Code/stm32/lib/tinyusb/src/common/tusb_types.h ****   TUSB_REQ_SET_CONFIGURATION = 9  ,
 136:/Users/joostbooy/Desktop/Code/stm32/lib/tinyusb/src/common/tusb_types.h ****   TUSB_REQ_GET_INTERFACE     = 10 ,
 137:/Users/joostbooy/Desktop/Code/stm32/lib/tinyusb/src/common/tusb_types.h ****   TUSB_REQ_SET_INTERFACE     = 11 ,
 138:/Users/joostbooy/Desktop/Code/stm32/lib/tinyusb/src/common/tusb_types.h ****   TUSB_REQ_SYNCH_FRAME       = 12
 139:/Users/joostbooy/Desktop/Code/stm32/lib/tinyusb/src/common/tusb_types.h **** }tusb_request_code_t;
 140:/Users/joostbooy/Desktop/Code/stm32/lib/tinyusb/src/common/tusb_types.h **** 
 141:/Users/joostbooy/Desktop/Code/stm32/lib/tinyusb/src/common/tusb_types.h **** typedef enum
 142:/Users/joostbooy/Desktop/Code/stm32/lib/tinyusb/src/common/tusb_types.h **** {
 143:/Users/joostbooy/Desktop/Code/stm32/lib/tinyusb/src/common/tusb_types.h ****   TUSB_REQ_FEATURE_EDPT_HALT     = 0,
 144:/Users/joostbooy/Desktop/Code/stm32/lib/tinyusb/src/common/tusb_types.h ****   TUSB_REQ_FEATURE_REMOTE_WAKEUP = 1,
 145:/Users/joostbooy/Desktop/Code/stm32/lib/tinyusb/src/common/tusb_types.h ****   TUSB_REQ_FEATURE_TEST_MODE     = 2
 146:/Users/joostbooy/Desktop/Code/stm32/lib/tinyusb/src/common/tusb_types.h **** }tusb_request_feature_selector_t;
 147:/Users/joostbooy/Desktop/Code/stm32/lib/tinyusb/src/common/tusb_types.h **** 
 148:/Users/joostbooy/Desktop/Code/stm32/lib/tinyusb/src/common/tusb_types.h **** typedef enum
 149:/Users/joostbooy/Desktop/Code/stm32/lib/tinyusb/src/common/tusb_types.h **** {
 150:/Users/joostbooy/Desktop/Code/stm32/lib/tinyusb/src/common/tusb_types.h ****   TUSB_REQ_TYPE_STANDARD = 0,
 151:/Users/joostbooy/Desktop/Code/stm32/lib/tinyusb/src/common/tusb_types.h ****   TUSB_REQ_TYPE_CLASS,
 152:/Users/joostbooy/Desktop/Code/stm32/lib/tinyusb/src/common/tusb_types.h ****   TUSB_REQ_TYPE_VENDOR,
 153:/Users/joostbooy/Desktop/Code/stm32/lib/tinyusb/src/common/tusb_types.h ****   TUSB_REQ_TYPE_INVALID
 154:/Users/joostbooy/Desktop/Code/stm32/lib/tinyusb/src/common/tusb_types.h **** } tusb_request_type_t;
 155:/Users/joostbooy/Desktop/Code/stm32/lib/tinyusb/src/common/tusb_types.h **** 
ARM GAS  /var/folders/84/_x1cyy_j36g486tldtwl37280000gn/T//cc4xoZU1.s 			page 22


 156:/Users/joostbooy/Desktop/Code/stm32/lib/tinyusb/src/common/tusb_types.h **** typedef enum
 157:/Users/joostbooy/Desktop/Code/stm32/lib/tinyusb/src/common/tusb_types.h **** {
 158:/Users/joostbooy/Desktop/Code/stm32/lib/tinyusb/src/common/tusb_types.h ****   TUSB_REQ_RCPT_DEVICE =0,
 159:/Users/joostbooy/Desktop/Code/stm32/lib/tinyusb/src/common/tusb_types.h ****   TUSB_REQ_RCPT_INTERFACE,
 160:/Users/joostbooy/Desktop/Code/stm32/lib/tinyusb/src/common/tusb_types.h ****   TUSB_REQ_RCPT_ENDPOINT,
 161:/Users/joostbooy/Desktop/Code/stm32/lib/tinyusb/src/common/tusb_types.h ****   TUSB_REQ_RCPT_OTHER
 162:/Users/joostbooy/Desktop/Code/stm32/lib/tinyusb/src/common/tusb_types.h **** } tusb_request_recipient_t;
 163:/Users/joostbooy/Desktop/Code/stm32/lib/tinyusb/src/common/tusb_types.h **** 
 164:/Users/joostbooy/Desktop/Code/stm32/lib/tinyusb/src/common/tusb_types.h **** // https://www.usb.org/defined-class-codes
 165:/Users/joostbooy/Desktop/Code/stm32/lib/tinyusb/src/common/tusb_types.h **** typedef enum
 166:/Users/joostbooy/Desktop/Code/stm32/lib/tinyusb/src/common/tusb_types.h **** {
 167:/Users/joostbooy/Desktop/Code/stm32/lib/tinyusb/src/common/tusb_types.h ****   TUSB_CLASS_UNSPECIFIED          = 0    ,
 168:/Users/joostbooy/Desktop/Code/stm32/lib/tinyusb/src/common/tusb_types.h ****   TUSB_CLASS_AUDIO                = 1    ,
 169:/Users/joostbooy/Desktop/Code/stm32/lib/tinyusb/src/common/tusb_types.h ****   TUSB_CLASS_CDC                  = 2    ,
 170:/Users/joostbooy/Desktop/Code/stm32/lib/tinyusb/src/common/tusb_types.h ****   TUSB_CLASS_HID                  = 3    ,
 171:/Users/joostbooy/Desktop/Code/stm32/lib/tinyusb/src/common/tusb_types.h ****   TUSB_CLASS_RESERVED_4           = 4    ,
 172:/Users/joostbooy/Desktop/Code/stm32/lib/tinyusb/src/common/tusb_types.h ****   TUSB_CLASS_PHYSICAL             = 5    ,
 173:/Users/joostbooy/Desktop/Code/stm32/lib/tinyusb/src/common/tusb_types.h ****   TUSB_CLASS_IMAGE                = 6    ,
 174:/Users/joostbooy/Desktop/Code/stm32/lib/tinyusb/src/common/tusb_types.h ****   TUSB_CLASS_PRINTER              = 7    ,
 175:/Users/joostbooy/Desktop/Code/stm32/lib/tinyusb/src/common/tusb_types.h ****   TUSB_CLASS_MSC                  = 8    ,
 176:/Users/joostbooy/Desktop/Code/stm32/lib/tinyusb/src/common/tusb_types.h ****   TUSB_CLASS_HUB                  = 9    ,
 177:/Users/joostbooy/Desktop/Code/stm32/lib/tinyusb/src/common/tusb_types.h ****   TUSB_CLASS_CDC_DATA             = 10   ,
 178:/Users/joostbooy/Desktop/Code/stm32/lib/tinyusb/src/common/tusb_types.h ****   TUSB_CLASS_SMART_CARD           = 11   ,
 179:/Users/joostbooy/Desktop/Code/stm32/lib/tinyusb/src/common/tusb_types.h ****   TUSB_CLASS_RESERVED_12          = 12   ,
 180:/Users/joostbooy/Desktop/Code/stm32/lib/tinyusb/src/common/tusb_types.h ****   TUSB_CLASS_CONTENT_SECURITY     = 13   ,
 181:/Users/joostbooy/Desktop/Code/stm32/lib/tinyusb/src/common/tusb_types.h ****   TUSB_CLASS_VIDEO                = 14   ,
 182:/Users/joostbooy/Desktop/Code/stm32/lib/tinyusb/src/common/tusb_types.h ****   TUSB_CLASS_PERSONAL_HEALTHCARE  = 15   ,
 183:/Users/joostbooy/Desktop/Code/stm32/lib/tinyusb/src/common/tusb_types.h ****   TUSB_CLASS_AUDIO_VIDEO          = 16   ,
 184:/Users/joostbooy/Desktop/Code/stm32/lib/tinyusb/src/common/tusb_types.h **** 
 185:/Users/joostbooy/Desktop/Code/stm32/lib/tinyusb/src/common/tusb_types.h ****   TUSB_CLASS_DIAGNOSTIC           = 0xDC ,
 186:/Users/joostbooy/Desktop/Code/stm32/lib/tinyusb/src/common/tusb_types.h ****   TUSB_CLASS_WIRELESS_CONTROLLER  = 0xE0 ,
 187:/Users/joostbooy/Desktop/Code/stm32/lib/tinyusb/src/common/tusb_types.h ****   TUSB_CLASS_MISC                 = 0xEF ,
 188:/Users/joostbooy/Desktop/Code/stm32/lib/tinyusb/src/common/tusb_types.h ****   TUSB_CLASS_APPLICATION_SPECIFIC = 0xFE ,
 189:/Users/joostbooy/Desktop/Code/stm32/lib/tinyusb/src/common/tusb_types.h ****   TUSB_CLASS_VENDOR_SPECIFIC      = 0xFF
 190:/Users/joostbooy/Desktop/Code/stm32/lib/tinyusb/src/common/tusb_types.h **** }tusb_class_code_t;
 191:/Users/joostbooy/Desktop/Code/stm32/lib/tinyusb/src/common/tusb_types.h **** 
 192:/Users/joostbooy/Desktop/Code/stm32/lib/tinyusb/src/common/tusb_types.h **** typedef enum
 193:/Users/joostbooy/Desktop/Code/stm32/lib/tinyusb/src/common/tusb_types.h **** {
 194:/Users/joostbooy/Desktop/Code/stm32/lib/tinyusb/src/common/tusb_types.h ****   MISC_SUBCLASS_COMMON = 2
 195:/Users/joostbooy/Desktop/Code/stm32/lib/tinyusb/src/common/tusb_types.h **** }misc_subclass_type_t;
 196:/Users/joostbooy/Desktop/Code/stm32/lib/tinyusb/src/common/tusb_types.h **** 
 197:/Users/joostbooy/Desktop/Code/stm32/lib/tinyusb/src/common/tusb_types.h **** typedef enum
 198:/Users/joostbooy/Desktop/Code/stm32/lib/tinyusb/src/common/tusb_types.h **** {
 199:/Users/joostbooy/Desktop/Code/stm32/lib/tinyusb/src/common/tusb_types.h ****   MISC_PROTOCOL_IAD = 1
 200:/Users/joostbooy/Desktop/Code/stm32/lib/tinyusb/src/common/tusb_types.h **** }misc_protocol_type_t;
 201:/Users/joostbooy/Desktop/Code/stm32/lib/tinyusb/src/common/tusb_types.h **** 
 202:/Users/joostbooy/Desktop/Code/stm32/lib/tinyusb/src/common/tusb_types.h **** typedef enum
 203:/Users/joostbooy/Desktop/Code/stm32/lib/tinyusb/src/common/tusb_types.h **** {
 204:/Users/joostbooy/Desktop/Code/stm32/lib/tinyusb/src/common/tusb_types.h ****   APP_SUBCLASS_USBTMC = 0x03,
 205:/Users/joostbooy/Desktop/Code/stm32/lib/tinyusb/src/common/tusb_types.h ****   APP_SUBCLASS_DFU_RUNTIME = 0x01
 206:/Users/joostbooy/Desktop/Code/stm32/lib/tinyusb/src/common/tusb_types.h **** } app_subclass_type_t;
 207:/Users/joostbooy/Desktop/Code/stm32/lib/tinyusb/src/common/tusb_types.h **** 
 208:/Users/joostbooy/Desktop/Code/stm32/lib/tinyusb/src/common/tusb_types.h **** typedef enum
 209:/Users/joostbooy/Desktop/Code/stm32/lib/tinyusb/src/common/tusb_types.h **** {
 210:/Users/joostbooy/Desktop/Code/stm32/lib/tinyusb/src/common/tusb_types.h ****   DEVICE_CAPABILITY_WIRELESS_USB               = 0x01,
 211:/Users/joostbooy/Desktop/Code/stm32/lib/tinyusb/src/common/tusb_types.h ****   DEVICE_CAPABILITY_USB20_EXTENSION            = 0x02,
 212:/Users/joostbooy/Desktop/Code/stm32/lib/tinyusb/src/common/tusb_types.h ****   DEVICE_CAPABILITY_SUPERSPEED_USB             = 0x03,
ARM GAS  /var/folders/84/_x1cyy_j36g486tldtwl37280000gn/T//cc4xoZU1.s 			page 23


 213:/Users/joostbooy/Desktop/Code/stm32/lib/tinyusb/src/common/tusb_types.h ****   DEVICE_CAPABILITY_CONTAINER_id               = 0x04,
 214:/Users/joostbooy/Desktop/Code/stm32/lib/tinyusb/src/common/tusb_types.h ****   DEVICE_CAPABILITY_PLATFORM                   = 0x05,
 215:/Users/joostbooy/Desktop/Code/stm32/lib/tinyusb/src/common/tusb_types.h ****   DEVICE_CAPABILITY_POWER_DELIVERY             = 0x06,
 216:/Users/joostbooy/Desktop/Code/stm32/lib/tinyusb/src/common/tusb_types.h ****   DEVICE_CAPABILITY_BATTERY_INFO               = 0x07,
 217:/Users/joostbooy/Desktop/Code/stm32/lib/tinyusb/src/common/tusb_types.h ****   DEVICE_CAPABILITY_PD_CONSUMER_PORT           = 0x08,
 218:/Users/joostbooy/Desktop/Code/stm32/lib/tinyusb/src/common/tusb_types.h ****   DEVICE_CAPABILITY_PD_PROVIDER_PORT           = 0x09,
 219:/Users/joostbooy/Desktop/Code/stm32/lib/tinyusb/src/common/tusb_types.h ****   DEVICE_CAPABILITY_SUPERSPEED_PLUS            = 0x0A,
 220:/Users/joostbooy/Desktop/Code/stm32/lib/tinyusb/src/common/tusb_types.h ****   DEVICE_CAPABILITY_PRECESION_TIME_MEASUREMENT = 0x0B,
 221:/Users/joostbooy/Desktop/Code/stm32/lib/tinyusb/src/common/tusb_types.h ****   DEVICE_CAPABILITY_WIRELESS_USB_EXT           = 0x0C,
 222:/Users/joostbooy/Desktop/Code/stm32/lib/tinyusb/src/common/tusb_types.h ****   DEVICE_CAPABILITY_BILLBOARD                  = 0x0D,
 223:/Users/joostbooy/Desktop/Code/stm32/lib/tinyusb/src/common/tusb_types.h ****   DEVICE_CAPABILITY_AUTHENTICATION             = 0x0E,
 224:/Users/joostbooy/Desktop/Code/stm32/lib/tinyusb/src/common/tusb_types.h ****   DEVICE_CAPABILITY_BILLBOARD_EX               = 0x0F,
 225:/Users/joostbooy/Desktop/Code/stm32/lib/tinyusb/src/common/tusb_types.h ****   DEVICE_CAPABILITY_CONFIGURATION_SUMMARY      = 0x10
 226:/Users/joostbooy/Desktop/Code/stm32/lib/tinyusb/src/common/tusb_types.h **** }device_capability_type_t;
 227:/Users/joostbooy/Desktop/Code/stm32/lib/tinyusb/src/common/tusb_types.h **** 
 228:/Users/joostbooy/Desktop/Code/stm32/lib/tinyusb/src/common/tusb_types.h **** enum {
 229:/Users/joostbooy/Desktop/Code/stm32/lib/tinyusb/src/common/tusb_types.h ****   TUSB_DESC_CONFIG_ATT_REMOTE_WAKEUP = TU_BIT(5),
 230:/Users/joostbooy/Desktop/Code/stm32/lib/tinyusb/src/common/tusb_types.h ****   TUSB_DESC_CONFIG_ATT_SELF_POWERED  = TU_BIT(6),
 231:/Users/joostbooy/Desktop/Code/stm32/lib/tinyusb/src/common/tusb_types.h **** };
 232:/Users/joostbooy/Desktop/Code/stm32/lib/tinyusb/src/common/tusb_types.h **** 
 233:/Users/joostbooy/Desktop/Code/stm32/lib/tinyusb/src/common/tusb_types.h **** #define TUSB_DESC_CONFIG_POWER_MA(x)  ((x)/2)
 234:/Users/joostbooy/Desktop/Code/stm32/lib/tinyusb/src/common/tusb_types.h **** 
 235:/Users/joostbooy/Desktop/Code/stm32/lib/tinyusb/src/common/tusb_types.h **** //--------------------------------------------------------------------+
 236:/Users/joostbooy/Desktop/Code/stm32/lib/tinyusb/src/common/tusb_types.h **** //
 237:/Users/joostbooy/Desktop/Code/stm32/lib/tinyusb/src/common/tusb_types.h **** //--------------------------------------------------------------------+
 238:/Users/joostbooy/Desktop/Code/stm32/lib/tinyusb/src/common/tusb_types.h **** typedef enum
 239:/Users/joostbooy/Desktop/Code/stm32/lib/tinyusb/src/common/tusb_types.h **** {
 240:/Users/joostbooy/Desktop/Code/stm32/lib/tinyusb/src/common/tusb_types.h ****   XFER_RESULT_SUCCESS = 0,
 241:/Users/joostbooy/Desktop/Code/stm32/lib/tinyusb/src/common/tusb_types.h ****   XFER_RESULT_FAILED,
 242:/Users/joostbooy/Desktop/Code/stm32/lib/tinyusb/src/common/tusb_types.h ****   XFER_RESULT_STALLED,
 243:/Users/joostbooy/Desktop/Code/stm32/lib/tinyusb/src/common/tusb_types.h ****   XFER_RESULT_TIMEOUT,
 244:/Users/joostbooy/Desktop/Code/stm32/lib/tinyusb/src/common/tusb_types.h ****   XFER_RESULT_INVALID
 245:/Users/joostbooy/Desktop/Code/stm32/lib/tinyusb/src/common/tusb_types.h **** }xfer_result_t;
 246:/Users/joostbooy/Desktop/Code/stm32/lib/tinyusb/src/common/tusb_types.h **** 
 247:/Users/joostbooy/Desktop/Code/stm32/lib/tinyusb/src/common/tusb_types.h **** enum // TODO remove
 248:/Users/joostbooy/Desktop/Code/stm32/lib/tinyusb/src/common/tusb_types.h **** {
 249:/Users/joostbooy/Desktop/Code/stm32/lib/tinyusb/src/common/tusb_types.h ****   DESC_OFFSET_LEN  = 0,
 250:/Users/joostbooy/Desktop/Code/stm32/lib/tinyusb/src/common/tusb_types.h ****   DESC_OFFSET_TYPE = 1
 251:/Users/joostbooy/Desktop/Code/stm32/lib/tinyusb/src/common/tusb_types.h **** };
 252:/Users/joostbooy/Desktop/Code/stm32/lib/tinyusb/src/common/tusb_types.h **** 
 253:/Users/joostbooy/Desktop/Code/stm32/lib/tinyusb/src/common/tusb_types.h **** enum
 254:/Users/joostbooy/Desktop/Code/stm32/lib/tinyusb/src/common/tusb_types.h **** {
 255:/Users/joostbooy/Desktop/Code/stm32/lib/tinyusb/src/common/tusb_types.h ****   INTERFACE_INVALID_NUMBER = 0xff
 256:/Users/joostbooy/Desktop/Code/stm32/lib/tinyusb/src/common/tusb_types.h **** };
 257:/Users/joostbooy/Desktop/Code/stm32/lib/tinyusb/src/common/tusb_types.h **** 
 258:/Users/joostbooy/Desktop/Code/stm32/lib/tinyusb/src/common/tusb_types.h **** typedef enum
 259:/Users/joostbooy/Desktop/Code/stm32/lib/tinyusb/src/common/tusb_types.h **** {
 260:/Users/joostbooy/Desktop/Code/stm32/lib/tinyusb/src/common/tusb_types.h ****   MS_OS_20_SET_HEADER_DESCRIPTOR       = 0x00,
 261:/Users/joostbooy/Desktop/Code/stm32/lib/tinyusb/src/common/tusb_types.h ****   MS_OS_20_SUBSET_HEADER_CONFIGURATION = 0x01,
 262:/Users/joostbooy/Desktop/Code/stm32/lib/tinyusb/src/common/tusb_types.h ****   MS_OS_20_SUBSET_HEADER_FUNCTION      = 0x02,
 263:/Users/joostbooy/Desktop/Code/stm32/lib/tinyusb/src/common/tusb_types.h ****   MS_OS_20_FEATURE_COMPATBLE_ID        = 0x03,
 264:/Users/joostbooy/Desktop/Code/stm32/lib/tinyusb/src/common/tusb_types.h ****   MS_OS_20_FEATURE_REG_PROPERTY        = 0x04,
 265:/Users/joostbooy/Desktop/Code/stm32/lib/tinyusb/src/common/tusb_types.h ****   MS_OS_20_FEATURE_MIN_RESUME_TIME     = 0x05,
 266:/Users/joostbooy/Desktop/Code/stm32/lib/tinyusb/src/common/tusb_types.h ****   MS_OS_20_FEATURE_MODEL_ID            = 0x06,
 267:/Users/joostbooy/Desktop/Code/stm32/lib/tinyusb/src/common/tusb_types.h ****   MS_OS_20_FEATURE_CCGP_DEVICE         = 0x07,
 268:/Users/joostbooy/Desktop/Code/stm32/lib/tinyusb/src/common/tusb_types.h ****   MS_OS_20_FEATURE_VENDOR_REVISION     = 0x08
 269:/Users/joostbooy/Desktop/Code/stm32/lib/tinyusb/src/common/tusb_types.h **** } microsoft_os_20_type_t;
ARM GAS  /var/folders/84/_x1cyy_j36g486tldtwl37280000gn/T//cc4xoZU1.s 			page 24


 270:/Users/joostbooy/Desktop/Code/stm32/lib/tinyusb/src/common/tusb_types.h **** 
 271:/Users/joostbooy/Desktop/Code/stm32/lib/tinyusb/src/common/tusb_types.h **** enum
 272:/Users/joostbooy/Desktop/Code/stm32/lib/tinyusb/src/common/tusb_types.h **** {
 273:/Users/joostbooy/Desktop/Code/stm32/lib/tinyusb/src/common/tusb_types.h ****   CONTROL_STAGE_IDLE,
 274:/Users/joostbooy/Desktop/Code/stm32/lib/tinyusb/src/common/tusb_types.h ****   CONTROL_STAGE_SETUP,
 275:/Users/joostbooy/Desktop/Code/stm32/lib/tinyusb/src/common/tusb_types.h ****   CONTROL_STAGE_DATA,
 276:/Users/joostbooy/Desktop/Code/stm32/lib/tinyusb/src/common/tusb_types.h ****   CONTROL_STAGE_ACK
 277:/Users/joostbooy/Desktop/Code/stm32/lib/tinyusb/src/common/tusb_types.h **** };
 278:/Users/joostbooy/Desktop/Code/stm32/lib/tinyusb/src/common/tusb_types.h **** 
 279:/Users/joostbooy/Desktop/Code/stm32/lib/tinyusb/src/common/tusb_types.h **** enum
 280:/Users/joostbooy/Desktop/Code/stm32/lib/tinyusb/src/common/tusb_types.h **** {
 281:/Users/joostbooy/Desktop/Code/stm32/lib/tinyusb/src/common/tusb_types.h ****   TUSB_INDEX_INVALID_8 = 0xFFu
 282:/Users/joostbooy/Desktop/Code/stm32/lib/tinyusb/src/common/tusb_types.h **** };
 283:/Users/joostbooy/Desktop/Code/stm32/lib/tinyusb/src/common/tusb_types.h **** 
 284:/Users/joostbooy/Desktop/Code/stm32/lib/tinyusb/src/common/tusb_types.h **** //--------------------------------------------------------------------+
 285:/Users/joostbooy/Desktop/Code/stm32/lib/tinyusb/src/common/tusb_types.h **** // USB Descriptors
 286:/Users/joostbooy/Desktop/Code/stm32/lib/tinyusb/src/common/tusb_types.h **** //--------------------------------------------------------------------+
 287:/Users/joostbooy/Desktop/Code/stm32/lib/tinyusb/src/common/tusb_types.h **** 
 288:/Users/joostbooy/Desktop/Code/stm32/lib/tinyusb/src/common/tusb_types.h **** // Start of all packed definitions for compiler without per-type packed
 289:/Users/joostbooy/Desktop/Code/stm32/lib/tinyusb/src/common/tusb_types.h **** TU_ATTR_PACKED_BEGIN
 290:/Users/joostbooy/Desktop/Code/stm32/lib/tinyusb/src/common/tusb_types.h **** TU_ATTR_BIT_FIELD_ORDER_BEGIN
 291:/Users/joostbooy/Desktop/Code/stm32/lib/tinyusb/src/common/tusb_types.h **** 
 292:/Users/joostbooy/Desktop/Code/stm32/lib/tinyusb/src/common/tusb_types.h **** /// USB Device Descriptor
 293:/Users/joostbooy/Desktop/Code/stm32/lib/tinyusb/src/common/tusb_types.h **** typedef struct TU_ATTR_PACKED
 294:/Users/joostbooy/Desktop/Code/stm32/lib/tinyusb/src/common/tusb_types.h **** {
 295:/Users/joostbooy/Desktop/Code/stm32/lib/tinyusb/src/common/tusb_types.h ****   uint8_t  bLength            ; ///< Size of this descriptor in bytes.
 296:/Users/joostbooy/Desktop/Code/stm32/lib/tinyusb/src/common/tusb_types.h ****   uint8_t  bDescriptorType    ; ///< DEVICE Descriptor Type.
 297:/Users/joostbooy/Desktop/Code/stm32/lib/tinyusb/src/common/tusb_types.h ****   uint16_t bcdUSB             ; ///< BUSB Specification Release Number in Binary-Coded Decimal (i.e
 298:/Users/joostbooy/Desktop/Code/stm32/lib/tinyusb/src/common/tusb_types.h **** 
 299:/Users/joostbooy/Desktop/Code/stm32/lib/tinyusb/src/common/tusb_types.h ****   uint8_t  bDeviceClass       ; ///< Class code (assigned by the USB-IF). \li If this field is rese
 300:/Users/joostbooy/Desktop/Code/stm32/lib/tinyusb/src/common/tusb_types.h ****   uint8_t  bDeviceSubClass    ; ///< Subclass code (assigned by the USB-IF). These codes are qualif
 301:/Users/joostbooy/Desktop/Code/stm32/lib/tinyusb/src/common/tusb_types.h ****   uint8_t  bDeviceProtocol    ; ///< Protocol code (assigned by the USB-IF). These codes are qualif
 302:/Users/joostbooy/Desktop/Code/stm32/lib/tinyusb/src/common/tusb_types.h ****   uint8_t  bMaxPacketSize0    ; ///< Maximum packet size for endpoint zero (only 8, 16, 32, or 64 a
 303:/Users/joostbooy/Desktop/Code/stm32/lib/tinyusb/src/common/tusb_types.h **** 
 304:/Users/joostbooy/Desktop/Code/stm32/lib/tinyusb/src/common/tusb_types.h ****   uint16_t idVendor           ; ///< Vendor ID (assigned by the USB-IF).
 305:/Users/joostbooy/Desktop/Code/stm32/lib/tinyusb/src/common/tusb_types.h ****   uint16_t idProduct          ; ///< Product ID (assigned by the manufacturer).
 306:/Users/joostbooy/Desktop/Code/stm32/lib/tinyusb/src/common/tusb_types.h ****   uint16_t bcdDevice          ; ///< Device release number in binary-coded decimal.
 307:/Users/joostbooy/Desktop/Code/stm32/lib/tinyusb/src/common/tusb_types.h ****   uint8_t  iManufacturer      ; ///< Index of string descriptor describing manufacturer.
 308:/Users/joostbooy/Desktop/Code/stm32/lib/tinyusb/src/common/tusb_types.h ****   uint8_t  iProduct           ; ///< Index of string descriptor describing product.
 309:/Users/joostbooy/Desktop/Code/stm32/lib/tinyusb/src/common/tusb_types.h ****   uint8_t  iSerialNumber      ; ///< Index of string descriptor describing the device's serial numb
 310:/Users/joostbooy/Desktop/Code/stm32/lib/tinyusb/src/common/tusb_types.h **** 
 311:/Users/joostbooy/Desktop/Code/stm32/lib/tinyusb/src/common/tusb_types.h ****   uint8_t  bNumConfigurations ; ///< Number of possible configurations.
 312:/Users/joostbooy/Desktop/Code/stm32/lib/tinyusb/src/common/tusb_types.h **** } tusb_desc_device_t;
 313:/Users/joostbooy/Desktop/Code/stm32/lib/tinyusb/src/common/tusb_types.h **** 
 314:/Users/joostbooy/Desktop/Code/stm32/lib/tinyusb/src/common/tusb_types.h **** TU_VERIFY_STATIC( sizeof(tusb_desc_device_t) == 18, "size is not correct");
 315:/Users/joostbooy/Desktop/Code/stm32/lib/tinyusb/src/common/tusb_types.h **** 
 316:/Users/joostbooy/Desktop/Code/stm32/lib/tinyusb/src/common/tusb_types.h **** // USB Binary Device Object Store (BOS) Descriptor
 317:/Users/joostbooy/Desktop/Code/stm32/lib/tinyusb/src/common/tusb_types.h **** typedef struct TU_ATTR_PACKED
 318:/Users/joostbooy/Desktop/Code/stm32/lib/tinyusb/src/common/tusb_types.h **** {
 319:/Users/joostbooy/Desktop/Code/stm32/lib/tinyusb/src/common/tusb_types.h ****   uint8_t  bLength         ; ///< Size of this descriptor in bytes
 320:/Users/joostbooy/Desktop/Code/stm32/lib/tinyusb/src/common/tusb_types.h ****   uint8_t  bDescriptorType ; ///< CONFIGURATION Descriptor Type
 321:/Users/joostbooy/Desktop/Code/stm32/lib/tinyusb/src/common/tusb_types.h ****   uint16_t wTotalLength    ; ///< Total length of data returned for this descriptor
 322:/Users/joostbooy/Desktop/Code/stm32/lib/tinyusb/src/common/tusb_types.h ****   uint8_t  bNumDeviceCaps  ; ///< Number of device capability descriptors in the BOS
 323:/Users/joostbooy/Desktop/Code/stm32/lib/tinyusb/src/common/tusb_types.h **** } tusb_desc_bos_t;
 324:/Users/joostbooy/Desktop/Code/stm32/lib/tinyusb/src/common/tusb_types.h **** 
 325:/Users/joostbooy/Desktop/Code/stm32/lib/tinyusb/src/common/tusb_types.h **** TU_VERIFY_STATIC( sizeof(tusb_desc_bos_t) == 5, "size is not correct");
 326:/Users/joostbooy/Desktop/Code/stm32/lib/tinyusb/src/common/tusb_types.h **** 
ARM GAS  /var/folders/84/_x1cyy_j36g486tldtwl37280000gn/T//cc4xoZU1.s 			page 25


 327:/Users/joostbooy/Desktop/Code/stm32/lib/tinyusb/src/common/tusb_types.h **** /// USB Configuration Descriptor
 328:/Users/joostbooy/Desktop/Code/stm32/lib/tinyusb/src/common/tusb_types.h **** typedef struct TU_ATTR_PACKED
 329:/Users/joostbooy/Desktop/Code/stm32/lib/tinyusb/src/common/tusb_types.h **** {
 330:/Users/joostbooy/Desktop/Code/stm32/lib/tinyusb/src/common/tusb_types.h ****   uint8_t  bLength             ; ///< Size of this descriptor in bytes
 331:/Users/joostbooy/Desktop/Code/stm32/lib/tinyusb/src/common/tusb_types.h ****   uint8_t  bDescriptorType     ; ///< CONFIGURATION Descriptor Type
 332:/Users/joostbooy/Desktop/Code/stm32/lib/tinyusb/src/common/tusb_types.h ****   uint16_t wTotalLength        ; ///< Total length of data returned for this configuration. Include
 333:/Users/joostbooy/Desktop/Code/stm32/lib/tinyusb/src/common/tusb_types.h **** 
 334:/Users/joostbooy/Desktop/Code/stm32/lib/tinyusb/src/common/tusb_types.h ****   uint8_t  bNumInterfaces      ; ///< Number of interfaces supported by this configuration
 335:/Users/joostbooy/Desktop/Code/stm32/lib/tinyusb/src/common/tusb_types.h ****   uint8_t  bConfigurationValue ; ///< Value to use as an argument to the SetConfiguration() request
 336:/Users/joostbooy/Desktop/Code/stm32/lib/tinyusb/src/common/tusb_types.h ****   uint8_t  iConfiguration      ; ///< Index of string descriptor describing this configuration
 337:/Users/joostbooy/Desktop/Code/stm32/lib/tinyusb/src/common/tusb_types.h ****   uint8_t  bmAttributes        ; ///< Configuration characteristics \n D7: Reserved (set to one)\n 
 338:/Users/joostbooy/Desktop/Code/stm32/lib/tinyusb/src/common/tusb_types.h ****   uint8_t  bMaxPower           ; ///< Maximum power consumption of the USB device from the bus in t
 339:/Users/joostbooy/Desktop/Code/stm32/lib/tinyusb/src/common/tusb_types.h **** } tusb_desc_configuration_t;
 340:/Users/joostbooy/Desktop/Code/stm32/lib/tinyusb/src/common/tusb_types.h **** 
 341:/Users/joostbooy/Desktop/Code/stm32/lib/tinyusb/src/common/tusb_types.h **** TU_VERIFY_STATIC( sizeof(tusb_desc_configuration_t) == 9, "size is not correct");
 342:/Users/joostbooy/Desktop/Code/stm32/lib/tinyusb/src/common/tusb_types.h **** 
 343:/Users/joostbooy/Desktop/Code/stm32/lib/tinyusb/src/common/tusb_types.h **** /// USB Interface Descriptor
 344:/Users/joostbooy/Desktop/Code/stm32/lib/tinyusb/src/common/tusb_types.h **** typedef struct TU_ATTR_PACKED
 345:/Users/joostbooy/Desktop/Code/stm32/lib/tinyusb/src/common/tusb_types.h **** {
 346:/Users/joostbooy/Desktop/Code/stm32/lib/tinyusb/src/common/tusb_types.h ****   uint8_t  bLength            ; ///< Size of this descriptor in bytes
 347:/Users/joostbooy/Desktop/Code/stm32/lib/tinyusb/src/common/tusb_types.h ****   uint8_t  bDescriptorType    ; ///< INTERFACE Descriptor Type
 348:/Users/joostbooy/Desktop/Code/stm32/lib/tinyusb/src/common/tusb_types.h **** 
 349:/Users/joostbooy/Desktop/Code/stm32/lib/tinyusb/src/common/tusb_types.h ****   uint8_t  bInterfaceNumber   ; ///< Number of this interface. Zero-based value identifying the ind
 350:/Users/joostbooy/Desktop/Code/stm32/lib/tinyusb/src/common/tusb_types.h ****   uint8_t  bAlternateSetting  ; ///< Value used to select this alternate setting for the interface 
 351:/Users/joostbooy/Desktop/Code/stm32/lib/tinyusb/src/common/tusb_types.h ****   uint8_t  bNumEndpoints      ; ///< Number of endpoints used by this interface (excluding endpoint
 352:/Users/joostbooy/Desktop/Code/stm32/lib/tinyusb/src/common/tusb_types.h ****   uint8_t  bInterfaceClass    ; ///< Class code (assigned by the USB-IF). \li A value of zero is re
 353:/Users/joostbooy/Desktop/Code/stm32/lib/tinyusb/src/common/tusb_types.h ****   uint8_t  bInterfaceSubClass ; ///< Subclass code (assigned by the USB-IF). \n These codes are qua
 354:/Users/joostbooy/Desktop/Code/stm32/lib/tinyusb/src/common/tusb_types.h ****   uint8_t  bInterfaceProtocol ; ///< Protocol code (assigned by the USB). \n These codes are qualif
 355:/Users/joostbooy/Desktop/Code/stm32/lib/tinyusb/src/common/tusb_types.h ****   uint8_t  iInterface         ; ///< Index of string descriptor describing this interface
 356:/Users/joostbooy/Desktop/Code/stm32/lib/tinyusb/src/common/tusb_types.h **** } tusb_desc_interface_t;
 357:/Users/joostbooy/Desktop/Code/stm32/lib/tinyusb/src/common/tusb_types.h **** 
 358:/Users/joostbooy/Desktop/Code/stm32/lib/tinyusb/src/common/tusb_types.h **** TU_VERIFY_STATIC( sizeof(tusb_desc_interface_t) == 9, "size is not correct");
 359:/Users/joostbooy/Desktop/Code/stm32/lib/tinyusb/src/common/tusb_types.h **** 
 360:/Users/joostbooy/Desktop/Code/stm32/lib/tinyusb/src/common/tusb_types.h **** /// USB Endpoint Descriptor
 361:/Users/joostbooy/Desktop/Code/stm32/lib/tinyusb/src/common/tusb_types.h **** typedef struct TU_ATTR_PACKED
 362:/Users/joostbooy/Desktop/Code/stm32/lib/tinyusb/src/common/tusb_types.h **** {
 363:/Users/joostbooy/Desktop/Code/stm32/lib/tinyusb/src/common/tusb_types.h ****   uint8_t  bLength          ; // Size of this descriptor in bytes
 364:/Users/joostbooy/Desktop/Code/stm32/lib/tinyusb/src/common/tusb_types.h ****   uint8_t  bDescriptorType  ; // ENDPOINT Descriptor Type
 365:/Users/joostbooy/Desktop/Code/stm32/lib/tinyusb/src/common/tusb_types.h **** 
 366:/Users/joostbooy/Desktop/Code/stm32/lib/tinyusb/src/common/tusb_types.h ****   uint8_t  bEndpointAddress ; // The address of the endpoint
 367:/Users/joostbooy/Desktop/Code/stm32/lib/tinyusb/src/common/tusb_types.h **** 
 368:/Users/joostbooy/Desktop/Code/stm32/lib/tinyusb/src/common/tusb_types.h ****   struct TU_ATTR_PACKED {
 369:/Users/joostbooy/Desktop/Code/stm32/lib/tinyusb/src/common/tusb_types.h ****     uint8_t xfer  : 2;        // Control, ISO, Bulk, Interrupt
 370:/Users/joostbooy/Desktop/Code/stm32/lib/tinyusb/src/common/tusb_types.h ****     uint8_t sync  : 2;        // None, Asynchronous, Adaptive, Synchronous
 371:/Users/joostbooy/Desktop/Code/stm32/lib/tinyusb/src/common/tusb_types.h ****     uint8_t usage : 2;        // Data, Feedback, Implicit feedback
 372:/Users/joostbooy/Desktop/Code/stm32/lib/tinyusb/src/common/tusb_types.h ****     uint8_t       : 2;
 373:/Users/joostbooy/Desktop/Code/stm32/lib/tinyusb/src/common/tusb_types.h ****   } bmAttributes;
 374:/Users/joostbooy/Desktop/Code/stm32/lib/tinyusb/src/common/tusb_types.h **** 
 375:/Users/joostbooy/Desktop/Code/stm32/lib/tinyusb/src/common/tusb_types.h ****   uint16_t wMaxPacketSize   ; // Bit 10..0 : max packet size, bit 12..11 additional transaction per
 376:/Users/joostbooy/Desktop/Code/stm32/lib/tinyusb/src/common/tusb_types.h ****   uint8_t  bInterval        ; // Polling interval, in frames or microframes depending on the operat
 377:/Users/joostbooy/Desktop/Code/stm32/lib/tinyusb/src/common/tusb_types.h **** } tusb_desc_endpoint_t;
 378:/Users/joostbooy/Desktop/Code/stm32/lib/tinyusb/src/common/tusb_types.h **** 
 379:/Users/joostbooy/Desktop/Code/stm32/lib/tinyusb/src/common/tusb_types.h **** TU_VERIFY_STATIC( sizeof(tusb_desc_endpoint_t) == 7, "size is not correct");
 380:/Users/joostbooy/Desktop/Code/stm32/lib/tinyusb/src/common/tusb_types.h **** 
 381:/Users/joostbooy/Desktop/Code/stm32/lib/tinyusb/src/common/tusb_types.h **** /// USB Other Speed Configuration Descriptor
 382:/Users/joostbooy/Desktop/Code/stm32/lib/tinyusb/src/common/tusb_types.h **** typedef struct TU_ATTR_PACKED
 383:/Users/joostbooy/Desktop/Code/stm32/lib/tinyusb/src/common/tusb_types.h **** {
ARM GAS  /var/folders/84/_x1cyy_j36g486tldtwl37280000gn/T//cc4xoZU1.s 			page 26


 384:/Users/joostbooy/Desktop/Code/stm32/lib/tinyusb/src/common/tusb_types.h ****   uint8_t  bLength             ; ///< Size of descriptor
 385:/Users/joostbooy/Desktop/Code/stm32/lib/tinyusb/src/common/tusb_types.h ****   uint8_t  bDescriptorType     ; ///< Other_speed_Configuration Type
 386:/Users/joostbooy/Desktop/Code/stm32/lib/tinyusb/src/common/tusb_types.h ****   uint16_t wTotalLength        ; ///< Total length of data returned
 387:/Users/joostbooy/Desktop/Code/stm32/lib/tinyusb/src/common/tusb_types.h **** 
 388:/Users/joostbooy/Desktop/Code/stm32/lib/tinyusb/src/common/tusb_types.h ****   uint8_t  bNumInterfaces      ; ///< Number of interfaces supported by this speed configuration
 389:/Users/joostbooy/Desktop/Code/stm32/lib/tinyusb/src/common/tusb_types.h ****   uint8_t  bConfigurationValue ; ///< Value to use to select configuration
 390:/Users/joostbooy/Desktop/Code/stm32/lib/tinyusb/src/common/tusb_types.h ****   uint8_t  iConfiguration      ; ///< Index of string descriptor
 391:/Users/joostbooy/Desktop/Code/stm32/lib/tinyusb/src/common/tusb_types.h ****   uint8_t  bmAttributes        ; ///< Same as Configuration descriptor
 392:/Users/joostbooy/Desktop/Code/stm32/lib/tinyusb/src/common/tusb_types.h ****   uint8_t  bMaxPower           ; ///< Same as Configuration descriptor
 393:/Users/joostbooy/Desktop/Code/stm32/lib/tinyusb/src/common/tusb_types.h **** } tusb_desc_other_speed_t;
 394:/Users/joostbooy/Desktop/Code/stm32/lib/tinyusb/src/common/tusb_types.h **** 
 395:/Users/joostbooy/Desktop/Code/stm32/lib/tinyusb/src/common/tusb_types.h **** /// USB Device Qualifier Descriptor
 396:/Users/joostbooy/Desktop/Code/stm32/lib/tinyusb/src/common/tusb_types.h **** typedef struct TU_ATTR_PACKED
 397:/Users/joostbooy/Desktop/Code/stm32/lib/tinyusb/src/common/tusb_types.h **** {
 398:/Users/joostbooy/Desktop/Code/stm32/lib/tinyusb/src/common/tusb_types.h ****   uint8_t  bLength            ; ///< Size of descriptor
 399:/Users/joostbooy/Desktop/Code/stm32/lib/tinyusb/src/common/tusb_types.h ****   uint8_t  bDescriptorType    ; ///< Device Qualifier Type
 400:/Users/joostbooy/Desktop/Code/stm32/lib/tinyusb/src/common/tusb_types.h ****   uint16_t bcdUSB             ; ///< USB specification version number (e.g., 0200H for V2.00)
 401:/Users/joostbooy/Desktop/Code/stm32/lib/tinyusb/src/common/tusb_types.h **** 
 402:/Users/joostbooy/Desktop/Code/stm32/lib/tinyusb/src/common/tusb_types.h ****   uint8_t  bDeviceClass       ; ///< Class Code
 403:/Users/joostbooy/Desktop/Code/stm32/lib/tinyusb/src/common/tusb_types.h ****   uint8_t  bDeviceSubClass    ; ///< SubClass Code
 404:/Users/joostbooy/Desktop/Code/stm32/lib/tinyusb/src/common/tusb_types.h ****   uint8_t  bDeviceProtocol    ; ///< Protocol Code
 405:/Users/joostbooy/Desktop/Code/stm32/lib/tinyusb/src/common/tusb_types.h **** 
 406:/Users/joostbooy/Desktop/Code/stm32/lib/tinyusb/src/common/tusb_types.h ****   uint8_t  bMaxPacketSize0    ; ///< Maximum packet size for other speed
 407:/Users/joostbooy/Desktop/Code/stm32/lib/tinyusb/src/common/tusb_types.h ****   uint8_t  bNumConfigurations ; ///< Number of Other-speed Configurations
 408:/Users/joostbooy/Desktop/Code/stm32/lib/tinyusb/src/common/tusb_types.h ****   uint8_t  bReserved          ; ///< Reserved for future use, must be zero
 409:/Users/joostbooy/Desktop/Code/stm32/lib/tinyusb/src/common/tusb_types.h **** } tusb_desc_device_qualifier_t;
 410:/Users/joostbooy/Desktop/Code/stm32/lib/tinyusb/src/common/tusb_types.h **** 
 411:/Users/joostbooy/Desktop/Code/stm32/lib/tinyusb/src/common/tusb_types.h **** TU_VERIFY_STATIC( sizeof(tusb_desc_device_qualifier_t) == 10, "size is not correct");
 412:/Users/joostbooy/Desktop/Code/stm32/lib/tinyusb/src/common/tusb_types.h **** 
 413:/Users/joostbooy/Desktop/Code/stm32/lib/tinyusb/src/common/tusb_types.h **** /// USB Interface Association Descriptor (IAD ECN)
 414:/Users/joostbooy/Desktop/Code/stm32/lib/tinyusb/src/common/tusb_types.h **** typedef struct TU_ATTR_PACKED
 415:/Users/joostbooy/Desktop/Code/stm32/lib/tinyusb/src/common/tusb_types.h **** {
 416:/Users/joostbooy/Desktop/Code/stm32/lib/tinyusb/src/common/tusb_types.h ****   uint8_t bLength           ; ///< Size of descriptor
 417:/Users/joostbooy/Desktop/Code/stm32/lib/tinyusb/src/common/tusb_types.h ****   uint8_t bDescriptorType   ; ///< Other_speed_Configuration Type
 418:/Users/joostbooy/Desktop/Code/stm32/lib/tinyusb/src/common/tusb_types.h **** 
 419:/Users/joostbooy/Desktop/Code/stm32/lib/tinyusb/src/common/tusb_types.h ****   uint8_t bFirstInterface   ; ///< Index of the first associated interface.
 420:/Users/joostbooy/Desktop/Code/stm32/lib/tinyusb/src/common/tusb_types.h ****   uint8_t bInterfaceCount   ; ///< Total number of associated interfaces.
 421:/Users/joostbooy/Desktop/Code/stm32/lib/tinyusb/src/common/tusb_types.h **** 
 422:/Users/joostbooy/Desktop/Code/stm32/lib/tinyusb/src/common/tusb_types.h ****   uint8_t bFunctionClass    ; ///< Interface class ID.
 423:/Users/joostbooy/Desktop/Code/stm32/lib/tinyusb/src/common/tusb_types.h ****   uint8_t bFunctionSubClass ; ///< Interface subclass ID.
 424:/Users/joostbooy/Desktop/Code/stm32/lib/tinyusb/src/common/tusb_types.h ****   uint8_t bFunctionProtocol ; ///< Interface protocol ID.
 425:/Users/joostbooy/Desktop/Code/stm32/lib/tinyusb/src/common/tusb_types.h **** 
 426:/Users/joostbooy/Desktop/Code/stm32/lib/tinyusb/src/common/tusb_types.h ****   uint8_t iFunction         ; ///< Index of the string descriptor describing the interface associat
 427:/Users/joostbooy/Desktop/Code/stm32/lib/tinyusb/src/common/tusb_types.h **** } tusb_desc_interface_assoc_t;
 428:/Users/joostbooy/Desktop/Code/stm32/lib/tinyusb/src/common/tusb_types.h **** 
 429:/Users/joostbooy/Desktop/Code/stm32/lib/tinyusb/src/common/tusb_types.h **** // USB String Descriptor
 430:/Users/joostbooy/Desktop/Code/stm32/lib/tinyusb/src/common/tusb_types.h **** typedef struct TU_ATTR_PACKED
 431:/Users/joostbooy/Desktop/Code/stm32/lib/tinyusb/src/common/tusb_types.h **** {
 432:/Users/joostbooy/Desktop/Code/stm32/lib/tinyusb/src/common/tusb_types.h ****   uint8_t  bLength         ; ///< Size of this descriptor in bytes
 433:/Users/joostbooy/Desktop/Code/stm32/lib/tinyusb/src/common/tusb_types.h ****   uint8_t  bDescriptorType ; ///< Descriptor Type
 434:/Users/joostbooy/Desktop/Code/stm32/lib/tinyusb/src/common/tusb_types.h ****   uint16_t unicode_string[];
 435:/Users/joostbooy/Desktop/Code/stm32/lib/tinyusb/src/common/tusb_types.h **** } tusb_desc_string_t;
 436:/Users/joostbooy/Desktop/Code/stm32/lib/tinyusb/src/common/tusb_types.h **** 
 437:/Users/joostbooy/Desktop/Code/stm32/lib/tinyusb/src/common/tusb_types.h **** // USB Binary Device Object Store (BOS)
 438:/Users/joostbooy/Desktop/Code/stm32/lib/tinyusb/src/common/tusb_types.h **** typedef struct TU_ATTR_PACKED
 439:/Users/joostbooy/Desktop/Code/stm32/lib/tinyusb/src/common/tusb_types.h **** {
 440:/Users/joostbooy/Desktop/Code/stm32/lib/tinyusb/src/common/tusb_types.h ****   uint8_t bLength;
ARM GAS  /var/folders/84/_x1cyy_j36g486tldtwl37280000gn/T//cc4xoZU1.s 			page 27


 441:/Users/joostbooy/Desktop/Code/stm32/lib/tinyusb/src/common/tusb_types.h ****   uint8_t bDescriptorType ;
 442:/Users/joostbooy/Desktop/Code/stm32/lib/tinyusb/src/common/tusb_types.h ****   uint8_t bDevCapabilityType;
 443:/Users/joostbooy/Desktop/Code/stm32/lib/tinyusb/src/common/tusb_types.h ****   uint8_t bReserved;
 444:/Users/joostbooy/Desktop/Code/stm32/lib/tinyusb/src/common/tusb_types.h ****   uint8_t PlatformCapabilityUUID[16];
 445:/Users/joostbooy/Desktop/Code/stm32/lib/tinyusb/src/common/tusb_types.h ****   uint8_t CapabilityData[];
 446:/Users/joostbooy/Desktop/Code/stm32/lib/tinyusb/src/common/tusb_types.h **** } tusb_desc_bos_platform_t;
 447:/Users/joostbooy/Desktop/Code/stm32/lib/tinyusb/src/common/tusb_types.h **** 
 448:/Users/joostbooy/Desktop/Code/stm32/lib/tinyusb/src/common/tusb_types.h **** // USB WebuSB URL Descriptor
 449:/Users/joostbooy/Desktop/Code/stm32/lib/tinyusb/src/common/tusb_types.h **** typedef struct TU_ATTR_PACKED
 450:/Users/joostbooy/Desktop/Code/stm32/lib/tinyusb/src/common/tusb_types.h **** {
 451:/Users/joostbooy/Desktop/Code/stm32/lib/tinyusb/src/common/tusb_types.h ****   uint8_t bLength;
 452:/Users/joostbooy/Desktop/Code/stm32/lib/tinyusb/src/common/tusb_types.h ****   uint8_t bDescriptorType;
 453:/Users/joostbooy/Desktop/Code/stm32/lib/tinyusb/src/common/tusb_types.h ****   uint8_t bScheme;
 454:/Users/joostbooy/Desktop/Code/stm32/lib/tinyusb/src/common/tusb_types.h ****   char    url[];
 455:/Users/joostbooy/Desktop/Code/stm32/lib/tinyusb/src/common/tusb_types.h **** } tusb_desc_webusb_url_t;
 456:/Users/joostbooy/Desktop/Code/stm32/lib/tinyusb/src/common/tusb_types.h **** 
 457:/Users/joostbooy/Desktop/Code/stm32/lib/tinyusb/src/common/tusb_types.h **** // DFU Functional Descriptor
 458:/Users/joostbooy/Desktop/Code/stm32/lib/tinyusb/src/common/tusb_types.h **** typedef struct TU_ATTR_PACKED
 459:/Users/joostbooy/Desktop/Code/stm32/lib/tinyusb/src/common/tusb_types.h **** {
 460:/Users/joostbooy/Desktop/Code/stm32/lib/tinyusb/src/common/tusb_types.h ****   uint8_t  bLength;
 461:/Users/joostbooy/Desktop/Code/stm32/lib/tinyusb/src/common/tusb_types.h ****   uint8_t  bDescriptorType;
 462:/Users/joostbooy/Desktop/Code/stm32/lib/tinyusb/src/common/tusb_types.h **** 
 463:/Users/joostbooy/Desktop/Code/stm32/lib/tinyusb/src/common/tusb_types.h ****   union {
 464:/Users/joostbooy/Desktop/Code/stm32/lib/tinyusb/src/common/tusb_types.h ****     struct TU_ATTR_PACKED {
 465:/Users/joostbooy/Desktop/Code/stm32/lib/tinyusb/src/common/tusb_types.h ****       uint8_t bitCanDnload             : 1;
 466:/Users/joostbooy/Desktop/Code/stm32/lib/tinyusb/src/common/tusb_types.h ****       uint8_t bitCanUpload             : 1;
 467:/Users/joostbooy/Desktop/Code/stm32/lib/tinyusb/src/common/tusb_types.h ****       uint8_t bitManifestationTolerant : 1;
 468:/Users/joostbooy/Desktop/Code/stm32/lib/tinyusb/src/common/tusb_types.h ****       uint8_t bitWillDetach            : 1;
 469:/Users/joostbooy/Desktop/Code/stm32/lib/tinyusb/src/common/tusb_types.h ****       uint8_t reserved                 : 4;
 470:/Users/joostbooy/Desktop/Code/stm32/lib/tinyusb/src/common/tusb_types.h ****     } bmAttributes;
 471:/Users/joostbooy/Desktop/Code/stm32/lib/tinyusb/src/common/tusb_types.h **** 
 472:/Users/joostbooy/Desktop/Code/stm32/lib/tinyusb/src/common/tusb_types.h ****     uint8_t bAttributes;
 473:/Users/joostbooy/Desktop/Code/stm32/lib/tinyusb/src/common/tusb_types.h ****   };
 474:/Users/joostbooy/Desktop/Code/stm32/lib/tinyusb/src/common/tusb_types.h **** 
 475:/Users/joostbooy/Desktop/Code/stm32/lib/tinyusb/src/common/tusb_types.h ****   uint16_t wDetachTimeOut;
 476:/Users/joostbooy/Desktop/Code/stm32/lib/tinyusb/src/common/tusb_types.h ****   uint16_t wTransferSize;
 477:/Users/joostbooy/Desktop/Code/stm32/lib/tinyusb/src/common/tusb_types.h ****   uint16_t bcdDFUVersion;
 478:/Users/joostbooy/Desktop/Code/stm32/lib/tinyusb/src/common/tusb_types.h **** } tusb_desc_dfu_functional_t;
 479:/Users/joostbooy/Desktop/Code/stm32/lib/tinyusb/src/common/tusb_types.h **** 
 480:/Users/joostbooy/Desktop/Code/stm32/lib/tinyusb/src/common/tusb_types.h **** //--------------------------------------------------------------------+
 481:/Users/joostbooy/Desktop/Code/stm32/lib/tinyusb/src/common/tusb_types.h **** //
 482:/Users/joostbooy/Desktop/Code/stm32/lib/tinyusb/src/common/tusb_types.h **** //--------------------------------------------------------------------+
 483:/Users/joostbooy/Desktop/Code/stm32/lib/tinyusb/src/common/tusb_types.h **** 
 484:/Users/joostbooy/Desktop/Code/stm32/lib/tinyusb/src/common/tusb_types.h **** typedef struct TU_ATTR_PACKED{
 485:/Users/joostbooy/Desktop/Code/stm32/lib/tinyusb/src/common/tusb_types.h ****   union {
 486:/Users/joostbooy/Desktop/Code/stm32/lib/tinyusb/src/common/tusb_types.h ****     struct TU_ATTR_PACKED {
 487:/Users/joostbooy/Desktop/Code/stm32/lib/tinyusb/src/common/tusb_types.h ****       uint8_t recipient :  5; ///< Recipient type tusb_request_recipient_t.
 488:/Users/joostbooy/Desktop/Code/stm32/lib/tinyusb/src/common/tusb_types.h ****       uint8_t type      :  2; ///< Request type tusb_request_type_t.
 489:/Users/joostbooy/Desktop/Code/stm32/lib/tinyusb/src/common/tusb_types.h ****       uint8_t direction :  1; ///< Direction type. tusb_dir_t
 490:/Users/joostbooy/Desktop/Code/stm32/lib/tinyusb/src/common/tusb_types.h ****     } bmRequestType_bit;
 491:/Users/joostbooy/Desktop/Code/stm32/lib/tinyusb/src/common/tusb_types.h **** 
 492:/Users/joostbooy/Desktop/Code/stm32/lib/tinyusb/src/common/tusb_types.h ****     uint8_t bmRequestType;
 493:/Users/joostbooy/Desktop/Code/stm32/lib/tinyusb/src/common/tusb_types.h ****   };
 494:/Users/joostbooy/Desktop/Code/stm32/lib/tinyusb/src/common/tusb_types.h **** 
 495:/Users/joostbooy/Desktop/Code/stm32/lib/tinyusb/src/common/tusb_types.h ****   uint8_t  bRequest;
 496:/Users/joostbooy/Desktop/Code/stm32/lib/tinyusb/src/common/tusb_types.h ****   uint16_t wValue;
 497:/Users/joostbooy/Desktop/Code/stm32/lib/tinyusb/src/common/tusb_types.h ****   uint16_t wIndex;
ARM GAS  /var/folders/84/_x1cyy_j36g486tldtwl37280000gn/T//cc4xoZU1.s 			page 28


 498:/Users/joostbooy/Desktop/Code/stm32/lib/tinyusb/src/common/tusb_types.h ****   uint16_t wLength;
 499:/Users/joostbooy/Desktop/Code/stm32/lib/tinyusb/src/common/tusb_types.h **** } tusb_control_request_t;
 500:/Users/joostbooy/Desktop/Code/stm32/lib/tinyusb/src/common/tusb_types.h **** 
 501:/Users/joostbooy/Desktop/Code/stm32/lib/tinyusb/src/common/tusb_types.h **** TU_VERIFY_STATIC( sizeof(tusb_control_request_t) == 8, "size is not correct");
 502:/Users/joostbooy/Desktop/Code/stm32/lib/tinyusb/src/common/tusb_types.h **** 
 503:/Users/joostbooy/Desktop/Code/stm32/lib/tinyusb/src/common/tusb_types.h **** 
 504:/Users/joostbooy/Desktop/Code/stm32/lib/tinyusb/src/common/tusb_types.h **** TU_ATTR_PACKED_END  // End of all packed definitions
 505:/Users/joostbooy/Desktop/Code/stm32/lib/tinyusb/src/common/tusb_types.h **** TU_ATTR_BIT_FIELD_ORDER_END
 506:/Users/joostbooy/Desktop/Code/stm32/lib/tinyusb/src/common/tusb_types.h **** 
 507:/Users/joostbooy/Desktop/Code/stm32/lib/tinyusb/src/common/tusb_types.h **** //--------------------------------------------------------------------+
 508:/Users/joostbooy/Desktop/Code/stm32/lib/tinyusb/src/common/tusb_types.h **** // Endpoint helper
 509:/Users/joostbooy/Desktop/Code/stm32/lib/tinyusb/src/common/tusb_types.h **** //--------------------------------------------------------------------+
 510:/Users/joostbooy/Desktop/Code/stm32/lib/tinyusb/src/common/tusb_types.h **** 
 511:/Users/joostbooy/Desktop/Code/stm32/lib/tinyusb/src/common/tusb_types.h **** // Get direction from Endpoint address
 512:/Users/joostbooy/Desktop/Code/stm32/lib/tinyusb/src/common/tusb_types.h **** TU_ATTR_ALWAYS_INLINE static inline tusb_dir_t tu_edpt_dir(uint8_t addr)
 645              		.loc 3 512 48 is_stmt 1 view .LVU163
 646              	.LBB58:
 513:/Users/joostbooy/Desktop/Code/stm32/lib/tinyusb/src/common/tusb_types.h **** {
 514:/Users/joostbooy/Desktop/Code/stm32/lib/tinyusb/src/common/tusb_types.h ****   return (addr & TUSB_DIR_IN_MASK) ? TUSB_DIR_IN : TUSB_DIR_OUT;
 647              		.loc 3 514 3 view .LVU164
 648              		.loc 3 514 3 is_stmt 0 view .LVU165
 649              	.LBE58:
 650              	.LBE57:
 651              		.loc 1 171 68 view .LVU166
 652 0004 2578     		ldrb	r5, [r4]	@ zero_extendqisi2
 653              		.loc 1 171 6 view .LVU167
 654 0006 C909     		lsrs	r1, r1, #7
 655              	.LVL44:
 656              		.loc 1 171 6 view .LVU168
 657 0008 B1EBD51F 		cmp	r1, r5, lsr #7
 167:/Users/joostbooy/Desktop/Code/stm32/lib/tinyusb/src/device/usbd_control.c ****   (void) result;
 658              		.loc 1 167 1 view .LVU169
 659 000c 1F46     		mov	r7, r3
 660 000e 0646     		mov	r6, r0
 661              		.loc 1 171 6 view .LVU170
 662 0010 14D0     		beq	.L54
 172:/Users/joostbooy/Desktop/Code/stm32/lib/tinyusb/src/device/usbd_control.c ****   {
 173:/Users/joostbooy/Desktop/Code/stm32/lib/tinyusb/src/device/usbd_control.c ****     TU_ASSERT(0 == xferred_bytes);
 663              		.loc 1 173 5 is_stmt 1 view .LVU171
 664              		.loc 1 173 5 view .LVU172
 665 0012 33B1     		cbz	r3, .L55
 666              		.loc 1 173 5 discriminator 1 view .LVU173
 667              		.loc 1 173 5 discriminator 1 view .LVU174
 668              		.loc 1 173 5 discriminator 1 view .LVU175
 669              		.loc 1 173 5 discriminator 1 view .LVU176
 670              	.LBB59:
 671              		.loc 1 173 5 discriminator 1 view .LVU177
 672              	.LVL45:
 673              		.loc 1 173 5 discriminator 1 view .LVU178
 674 0014 2A48     		ldr	r0, .L91+4
 675              	.LVL46:
 676              		.loc 1 173 5 is_stmt 0 discriminator 1 view .LVU179
 677 0016 0568     		ldr	r5, [r0]
 678 0018 EA07     		lsls	r2, r5, #31
 679              	.LVL47:
 680              		.loc 1 173 5 discriminator 1 view .LVU180
 681 001a 00D5     		bpl	.L85
ARM GAS  /var/folders/84/_x1cyy_j36g486tldtwl37280000gn/T//cc4xoZU1.s 			page 29


 682              		.loc 1 173 5 is_stmt 1 discriminator 3 view .LVU181
 683              		.syntax unified
 684              	@ 173 "/Users/joostbooy/Desktop/Code/stm32/lib/tinyusb/src/device/usbd_control.c" 1
 685 001c 00BE     		BKPT #0
 686              	
 687              	@ 0 "" 2
 688              	.LVL48:
 689              		.thumb
 690              		.syntax unified
 691              	.L85:
 692              		.loc 1 173 5 is_stmt 0 discriminator 3 view .LVU182
 693              	.LBE59:
 694 001e 0020     		movs	r0, #0
 174:/Users/joostbooy/Desktop/Code/stm32/lib/tinyusb/src/device/usbd_control.c **** 
 175:/Users/joostbooy/Desktop/Code/stm32/lib/tinyusb/src/device/usbd_control.c ****     // invoke optional dcd hook if available
 176:/Users/joostbooy/Desktop/Code/stm32/lib/tinyusb/src/device/usbd_control.c ****     if (dcd_edpt0_status_complete) dcd_edpt0_status_complete(rhport, &_ctrl_xfer.request);
 177:/Users/joostbooy/Desktop/Code/stm32/lib/tinyusb/src/device/usbd_control.c **** 
 178:/Users/joostbooy/Desktop/Code/stm32/lib/tinyusb/src/device/usbd_control.c ****     if (_ctrl_xfer.complete_cb)
 179:/Users/joostbooy/Desktop/Code/stm32/lib/tinyusb/src/device/usbd_control.c ****     {
 180:/Users/joostbooy/Desktop/Code/stm32/lib/tinyusb/src/device/usbd_control.c ****       // TODO refactor with usbd_driver_print_control_complete_name
 181:/Users/joostbooy/Desktop/Code/stm32/lib/tinyusb/src/device/usbd_control.c ****       _ctrl_xfer.complete_cb(rhport, CONTROL_STAGE_ACK, &_ctrl_xfer.request);
 182:/Users/joostbooy/Desktop/Code/stm32/lib/tinyusb/src/device/usbd_control.c ****     }
 183:/Users/joostbooy/Desktop/Code/stm32/lib/tinyusb/src/device/usbd_control.c **** 
 184:/Users/joostbooy/Desktop/Code/stm32/lib/tinyusb/src/device/usbd_control.c ****     return true;
 185:/Users/joostbooy/Desktop/Code/stm32/lib/tinyusb/src/device/usbd_control.c ****   }
 186:/Users/joostbooy/Desktop/Code/stm32/lib/tinyusb/src/device/usbd_control.c **** 
 187:/Users/joostbooy/Desktop/Code/stm32/lib/tinyusb/src/device/usbd_control.c ****   if ( _ctrl_xfer.request.bmRequestType_bit.direction == TUSB_DIR_OUT )
 188:/Users/joostbooy/Desktop/Code/stm32/lib/tinyusb/src/device/usbd_control.c ****   {
 189:/Users/joostbooy/Desktop/Code/stm32/lib/tinyusb/src/device/usbd_control.c ****     TU_VERIFY(_ctrl_xfer.buffer);
 190:/Users/joostbooy/Desktop/Code/stm32/lib/tinyusb/src/device/usbd_control.c ****     memcpy(_ctrl_xfer.buffer, _usbd_ctrl_buf, xferred_bytes);
 191:/Users/joostbooy/Desktop/Code/stm32/lib/tinyusb/src/device/usbd_control.c ****     TU_LOG_MEM(CFG_TUD_LOG_LEVEL, _usbd_ctrl_buf, xferred_bytes, 2);
 192:/Users/joostbooy/Desktop/Code/stm32/lib/tinyusb/src/device/usbd_control.c ****   }
 193:/Users/joostbooy/Desktop/Code/stm32/lib/tinyusb/src/device/usbd_control.c **** 
 194:/Users/joostbooy/Desktop/Code/stm32/lib/tinyusb/src/device/usbd_control.c ****   _ctrl_xfer.total_xferred += (uint16_t) xferred_bytes;
 195:/Users/joostbooy/Desktop/Code/stm32/lib/tinyusb/src/device/usbd_control.c ****   _ctrl_xfer.buffer += xferred_bytes;
 196:/Users/joostbooy/Desktop/Code/stm32/lib/tinyusb/src/device/usbd_control.c **** 
 197:/Users/joostbooy/Desktop/Code/stm32/lib/tinyusb/src/device/usbd_control.c ****   // Data Stage is complete when all request's length are transferred or
 198:/Users/joostbooy/Desktop/Code/stm32/lib/tinyusb/src/device/usbd_control.c ****   // a short packet is sent including zero-length packet.
 199:/Users/joostbooy/Desktop/Code/stm32/lib/tinyusb/src/device/usbd_control.c ****   if ( (_ctrl_xfer.request.wLength == _ctrl_xfer.total_xferred) || (xferred_bytes < CFG_TUD_ENDPOIN
 200:/Users/joostbooy/Desktop/Code/stm32/lib/tinyusb/src/device/usbd_control.c ****   {
 201:/Users/joostbooy/Desktop/Code/stm32/lib/tinyusb/src/device/usbd_control.c ****     // DATA stage is complete
 202:/Users/joostbooy/Desktop/Code/stm32/lib/tinyusb/src/device/usbd_control.c ****     bool is_ok = true;
 203:/Users/joostbooy/Desktop/Code/stm32/lib/tinyusb/src/device/usbd_control.c **** 
 204:/Users/joostbooy/Desktop/Code/stm32/lib/tinyusb/src/device/usbd_control.c ****     // invoke complete callback if set
 205:/Users/joostbooy/Desktop/Code/stm32/lib/tinyusb/src/device/usbd_control.c ****     // callback can still stall control in status phase e.g out data does not make sense
 206:/Users/joostbooy/Desktop/Code/stm32/lib/tinyusb/src/device/usbd_control.c ****     if ( _ctrl_xfer.complete_cb )
 207:/Users/joostbooy/Desktop/Code/stm32/lib/tinyusb/src/device/usbd_control.c ****     {
 208:/Users/joostbooy/Desktop/Code/stm32/lib/tinyusb/src/device/usbd_control.c ****       #if CFG_TUSB_DEBUG >= CFG_TUD_LOG_LEVEL
 209:/Users/joostbooy/Desktop/Code/stm32/lib/tinyusb/src/device/usbd_control.c ****       usbd_driver_print_control_complete_name(_ctrl_xfer.complete_cb);
 210:/Users/joostbooy/Desktop/Code/stm32/lib/tinyusb/src/device/usbd_control.c ****       #endif
 211:/Users/joostbooy/Desktop/Code/stm32/lib/tinyusb/src/device/usbd_control.c **** 
 212:/Users/joostbooy/Desktop/Code/stm32/lib/tinyusb/src/device/usbd_control.c ****       is_ok = _ctrl_xfer.complete_cb(rhport, CONTROL_STAGE_DATA, &_ctrl_xfer.request);
 213:/Users/joostbooy/Desktop/Code/stm32/lib/tinyusb/src/device/usbd_control.c ****     }
 214:/Users/joostbooy/Desktop/Code/stm32/lib/tinyusb/src/device/usbd_control.c **** 
 215:/Users/joostbooy/Desktop/Code/stm32/lib/tinyusb/src/device/usbd_control.c ****     if ( is_ok )
 216:/Users/joostbooy/Desktop/Code/stm32/lib/tinyusb/src/device/usbd_control.c ****     {
 217:/Users/joostbooy/Desktop/Code/stm32/lib/tinyusb/src/device/usbd_control.c ****       // Send status
ARM GAS  /var/folders/84/_x1cyy_j36g486tldtwl37280000gn/T//cc4xoZU1.s 			page 30


 218:/Users/joostbooy/Desktop/Code/stm32/lib/tinyusb/src/device/usbd_control.c ****       TU_ASSERT( _status_stage_xact(rhport, &_ctrl_xfer.request) );
 219:/Users/joostbooy/Desktop/Code/stm32/lib/tinyusb/src/device/usbd_control.c ****     }else
 220:/Users/joostbooy/Desktop/Code/stm32/lib/tinyusb/src/device/usbd_control.c ****     {
 221:/Users/joostbooy/Desktop/Code/stm32/lib/tinyusb/src/device/usbd_control.c ****       // Stall both IN and OUT control endpoint
 222:/Users/joostbooy/Desktop/Code/stm32/lib/tinyusb/src/device/usbd_control.c ****       dcd_edpt_stall(rhport, EDPT_CTRL_OUT);
 223:/Users/joostbooy/Desktop/Code/stm32/lib/tinyusb/src/device/usbd_control.c ****       dcd_edpt_stall(rhport, EDPT_CTRL_IN);
 224:/Users/joostbooy/Desktop/Code/stm32/lib/tinyusb/src/device/usbd_control.c ****     }
 225:/Users/joostbooy/Desktop/Code/stm32/lib/tinyusb/src/device/usbd_control.c ****   }
 226:/Users/joostbooy/Desktop/Code/stm32/lib/tinyusb/src/device/usbd_control.c ****   else
 227:/Users/joostbooy/Desktop/Code/stm32/lib/tinyusb/src/device/usbd_control.c ****   {
 228:/Users/joostbooy/Desktop/Code/stm32/lib/tinyusb/src/device/usbd_control.c ****     // More data to transfer
 229:/Users/joostbooy/Desktop/Code/stm32/lib/tinyusb/src/device/usbd_control.c ****     TU_ASSERT( _data_stage_xact(rhport) );
 230:/Users/joostbooy/Desktop/Code/stm32/lib/tinyusb/src/device/usbd_control.c ****   }
 231:/Users/joostbooy/Desktop/Code/stm32/lib/tinyusb/src/device/usbd_control.c **** 
 232:/Users/joostbooy/Desktop/Code/stm32/lib/tinyusb/src/device/usbd_control.c ****   return true;
 233:/Users/joostbooy/Desktop/Code/stm32/lib/tinyusb/src/device/usbd_control.c **** }
 695              		.loc 1 233 1 discriminator 3 view .LVU183
 696 0020 F8BD     		pop	{r3, r4, r5, r6, r7, pc}
 697              	.LVL49:
 698              	.L55:
 173:/Users/joostbooy/Desktop/Code/stm32/lib/tinyusb/src/device/usbd_control.c **** 
 699              		.loc 1 173 5 is_stmt 1 discriminator 2 view .LVU184
 176:/Users/joostbooy/Desktop/Code/stm32/lib/tinyusb/src/device/usbd_control.c **** 
 700              		.loc 1 176 5 discriminator 2 view .LVU185
 176:/Users/joostbooy/Desktop/Code/stm32/lib/tinyusb/src/device/usbd_control.c **** 
 701              		.loc 1 176 8 is_stmt 0 discriminator 2 view .LVU186
 702 0022 284A     		ldr	r2, .L91+8
 703              	.LVL50:
 176:/Users/joostbooy/Desktop/Code/stm32/lib/tinyusb/src/device/usbd_control.c **** 
 704              		.loc 1 176 8 discriminator 2 view .LVU187
 705 0024 12B1     		cbz	r2, .L58
 176:/Users/joostbooy/Desktop/Code/stm32/lib/tinyusb/src/device/usbd_control.c **** 
 706              		.loc 1 176 36 is_stmt 1 discriminator 1 view .LVU188
 707 0026 2146     		mov	r1, r4
 708 0028 FFF7FEFF 		bl	dcd_edpt0_status_complete
 709              	.LVL51:
 710              	.L58:
 178:/Users/joostbooy/Desktop/Code/stm32/lib/tinyusb/src/device/usbd_control.c ****     {
 711              		.loc 1 178 5 view .LVU189
 178:/Users/joostbooy/Desktop/Code/stm32/lib/tinyusb/src/device/usbd_control.c ****     {
 712              		.loc 1 178 19 is_stmt 0 view .LVU190
 713 002c 2369     		ldr	r3, [r4, #16]
 178:/Users/joostbooy/Desktop/Code/stm32/lib/tinyusb/src/device/usbd_control.c ****     {
 714              		.loc 1 178 8 view .LVU191
 715 002e 03B3     		cbz	r3, .L86
 181:/Users/joostbooy/Desktop/Code/stm32/lib/tinyusb/src/device/usbd_control.c ****     }
 716              		.loc 1 181 7 is_stmt 1 view .LVU192
 717 0030 224A     		ldr	r2, .L91
 718 0032 3046     		mov	r0, r6
 719 0034 0321     		movs	r1, #3
 720 0036 9847     		blx	r3
 721              	.LVL52:
 184:/Users/joostbooy/Desktop/Code/stm32/lib/tinyusb/src/device/usbd_control.c ****   }
 722              		.loc 1 184 12 is_stmt 0 view .LVU193
 723 0038 0120     		movs	r0, #1
 724              		.loc 1 233 1 view .LVU194
 725 003a F8BD     		pop	{r3, r4, r5, r6, r7, pc}
ARM GAS  /var/folders/84/_x1cyy_j36g486tldtwl37280000gn/T//cc4xoZU1.s 			page 31


 726              	.LVL53:
 727              	.L54:
 187:/Users/joostbooy/Desktop/Code/stm32/lib/tinyusb/src/device/usbd_control.c ****   {
 728              		.loc 1 187 3 is_stmt 1 view .LVU195
 187:/Users/joostbooy/Desktop/Code/stm32/lib/tinyusb/src/device/usbd_control.c ****   {
 729              		.loc 1 187 6 is_stmt 0 view .LVU196
 730 003c 94F90020 		ldrsb	r2, [r4]
 731              	.LVL54:
 187:/Users/joostbooy/Desktop/Code/stm32/lib/tinyusb/src/device/usbd_control.c ****   {
 732              		.loc 1 187 6 view .LVU197
 733 0040 002A     		cmp	r2, #0
 734 0042 06DB     		blt	.L60
 189:/Users/joostbooy/Desktop/Code/stm32/lib/tinyusb/src/device/usbd_control.c ****     memcpy(_ctrl_xfer.buffer, _usbd_ctrl_buf, xferred_bytes);
 735              		.loc 1 189 5 is_stmt 1 view .LVU198
 189:/Users/joostbooy/Desktop/Code/stm32/lib/tinyusb/src/device/usbd_control.c ****     memcpy(_ctrl_xfer.buffer, _usbd_ctrl_buf, xferred_bytes);
 736              		.loc 1 189 5 view .LVU199
 737 0044 A068     		ldr	r0, [r4, #8]
 738              	.LVL55:
 189:/Users/joostbooy/Desktop/Code/stm32/lib/tinyusb/src/device/usbd_control.c ****     memcpy(_ctrl_xfer.buffer, _usbd_ctrl_buf, xferred_bytes);
 739              		.loc 1 189 5 is_stmt 0 view .LVU200
 740 0046 0028     		cmp	r0, #0
 741 0048 E9D0     		beq	.L85
 189:/Users/joostbooy/Desktop/Code/stm32/lib/tinyusb/src/device/usbd_control.c ****     memcpy(_ctrl_xfer.buffer, _usbd_ctrl_buf, xferred_bytes);
 742              		.loc 1 189 5 is_stmt 1 discriminator 2 view .LVU201
 190:/Users/joostbooy/Desktop/Code/stm32/lib/tinyusb/src/device/usbd_control.c ****     TU_LOG_MEM(CFG_TUD_LOG_LEVEL, _usbd_ctrl_buf, xferred_bytes, 2);
 743              		.loc 1 190 5 discriminator 2 view .LVU202
 744 004a 1F49     		ldr	r1, .L91+12
 745 004c 1A46     		mov	r2, r3
 746 004e FFF7FEFF 		bl	memcpy
 747              	.LVL56:
 748              	.L60:
 191:/Users/joostbooy/Desktop/Code/stm32/lib/tinyusb/src/device/usbd_control.c ****   }
 749              		.loc 1 191 68 view .LVU203
 194:/Users/joostbooy/Desktop/Code/stm32/lib/tinyusb/src/device/usbd_control.c ****   _ctrl_xfer.buffer += xferred_bytes;
 750              		.loc 1 194 3 view .LVU204
 194:/Users/joostbooy/Desktop/Code/stm32/lib/tinyusb/src/device/usbd_control.c ****   _ctrl_xfer.buffer += xferred_bytes;
 751              		.loc 1 194 28 is_stmt 0 view .LVU205
 752 0052 E389     		ldrh	r3, [r4, #14]
 195:/Users/joostbooy/Desktop/Code/stm32/lib/tinyusb/src/device/usbd_control.c **** 
 753              		.loc 1 195 21 view .LVU206
 754 0054 A168     		ldr	r1, [r4, #8]
 199:/Users/joostbooy/Desktop/Code/stm32/lib/tinyusb/src/device/usbd_control.c ****   {
 755              		.loc 1 199 6 view .LVU207
 756 0056 E088     		ldrh	r0, [r4, #6]
 194:/Users/joostbooy/Desktop/Code/stm32/lib/tinyusb/src/device/usbd_control.c ****   _ctrl_xfer.buffer += xferred_bytes;
 757              		.loc 1 194 28 view .LVU208
 758 0058 3B44     		add	r3, r3, r7
 759 005a 9DB2     		uxth	r5, r3
 195:/Users/joostbooy/Desktop/Code/stm32/lib/tinyusb/src/device/usbd_control.c **** 
 760              		.loc 1 195 21 view .LVU209
 761 005c 3944     		add	r1, r1, r7
 199:/Users/joostbooy/Desktop/Code/stm32/lib/tinyusb/src/device/usbd_control.c ****   {
 762              		.loc 1 199 6 view .LVU210
 763 005e A842     		cmp	r0, r5
 194:/Users/joostbooy/Desktop/Code/stm32/lib/tinyusb/src/device/usbd_control.c ****   _ctrl_xfer.buffer += xferred_bytes;
 764              		.loc 1 194 28 view .LVU211
 765 0060 E581     		strh	r5, [r4, #14]	@ movhi
ARM GAS  /var/folders/84/_x1cyy_j36g486tldtwl37280000gn/T//cc4xoZU1.s 			page 32


 195:/Users/joostbooy/Desktop/Code/stm32/lib/tinyusb/src/device/usbd_control.c **** 
 766              		.loc 1 195 3 is_stmt 1 view .LVU212
 195:/Users/joostbooy/Desktop/Code/stm32/lib/tinyusb/src/device/usbd_control.c **** 
 767              		.loc 1 195 21 is_stmt 0 view .LVU213
 768 0062 A160     		str	r1, [r4, #8]
 199:/Users/joostbooy/Desktop/Code/stm32/lib/tinyusb/src/device/usbd_control.c ****   {
 769              		.loc 1 199 3 is_stmt 1 view .LVU214
 199:/Users/joostbooy/Desktop/Code/stm32/lib/tinyusb/src/device/usbd_control.c ****   {
 770              		.loc 1 199 6 is_stmt 0 view .LVU215
 771 0064 07D0     		beq	.L62
 199:/Users/joostbooy/Desktop/Code/stm32/lib/tinyusb/src/device/usbd_control.c ****   {
 772              		.loc 1 199 65 discriminator 1 view .LVU216
 773 0066 3F2F     		cmp	r7, #63
 774 0068 05D9     		bls	.L62
 229:/Users/joostbooy/Desktop/Code/stm32/lib/tinyusb/src/device/usbd_control.c ****   }
 775              		.loc 1 229 5 is_stmt 1 view .LVU217
 229:/Users/joostbooy/Desktop/Code/stm32/lib/tinyusb/src/device/usbd_control.c ****   }
 776              		.loc 1 229 5 view .LVU218
 777 006a 3046     		mov	r0, r6
 778 006c FFF7FEFF 		bl	_data_stage_xact
 779              	.LVL57:
 780 0070 A8B1     		cbz	r0, .L89
 781              	.LVL58:
 782              	.L86:
 232:/Users/joostbooy/Desktop/Code/stm32/lib/tinyusb/src/device/usbd_control.c **** }
 783              		.loc 1 232 10 is_stmt 0 view .LVU219
 784 0072 0120     		movs	r0, #1
 785              		.loc 1 233 1 view .LVU220
 786 0074 F8BD     		pop	{r3, r4, r5, r6, r7, pc}
 787              	.LVL59:
 788              	.L62:
 789              	.LBB60:
 202:/Users/joostbooy/Desktop/Code/stm32/lib/tinyusb/src/device/usbd_control.c **** 
 790              		.loc 1 202 5 is_stmt 1 view .LVU221
 206:/Users/joostbooy/Desktop/Code/stm32/lib/tinyusb/src/device/usbd_control.c ****     {
 791              		.loc 1 206 5 view .LVU222
 206:/Users/joostbooy/Desktop/Code/stm32/lib/tinyusb/src/device/usbd_control.c ****     {
 792              		.loc 1 206 20 is_stmt 0 view .LVU223
 793 0076 2769     		ldr	r7, [r4, #16]
 794              	.LVL60:
 206:/Users/joostbooy/Desktop/Code/stm32/lib/tinyusb/src/device/usbd_control.c ****     {
 795              		.loc 1 206 8 view .LVU224
 796 0078 27B1     		cbz	r7, .L66
 212:/Users/joostbooy/Desktop/Code/stm32/lib/tinyusb/src/device/usbd_control.c ****     }
 797              		.loc 1 212 7 is_stmt 1 view .LVU225
 212:/Users/joostbooy/Desktop/Code/stm32/lib/tinyusb/src/device/usbd_control.c ****     }
 798              		.loc 1 212 15 is_stmt 0 view .LVU226
 799 007a 104A     		ldr	r2, .L91
 800 007c 0221     		movs	r1, #2
 801 007e 3046     		mov	r0, r6
 802 0080 B847     		blx	r7
 803              	.LVL61:
 215:/Users/joostbooy/Desktop/Code/stm32/lib/tinyusb/src/device/usbd_control.c ****     {
 804              		.loc 1 215 5 is_stmt 1 view .LVU227
 215:/Users/joostbooy/Desktop/Code/stm32/lib/tinyusb/src/device/usbd_control.c ****     {
 805              		.loc 1 215 8 is_stmt 0 view .LVU228
 806 0082 90B1     		cbz	r0, .L90
ARM GAS  /var/folders/84/_x1cyy_j36g486tldtwl37280000gn/T//cc4xoZU1.s 			page 33


 807              	.LVL62:
 808              	.L66:
 218:/Users/joostbooy/Desktop/Code/stm32/lib/tinyusb/src/device/usbd_control.c ****     }else
 809              		.loc 1 218 7 is_stmt 1 view .LVU229
 218:/Users/joostbooy/Desktop/Code/stm32/lib/tinyusb/src/device/usbd_control.c ****     }else
 810              		.loc 1 218 7 view .LVU230
 811              	.LBB61:
 812              	.LBI61:
  66:/Users/joostbooy/Desktop/Code/stm32/lib/tinyusb/src/device/usbd_control.c **** {
 813              		.loc 1 66 20 view .LVU231
 814              	.LBB62:
  69:/Users/joostbooy/Desktop/Code/stm32/lib/tinyusb/src/device/usbd_control.c ****   return usbd_edpt_xfer(rhport, ep_addr, NULL, 0);
 815              		.loc 1 69 3 view .LVU232
  69:/Users/joostbooy/Desktop/Code/stm32/lib/tinyusb/src/device/usbd_control.c ****   return usbd_edpt_xfer(rhport, ep_addr, NULL, 0);
 816              		.loc 1 69 17 is_stmt 0 view .LVU233
 817 0084 94F90040 		ldrsb	r4, [r4]
  70:/Users/joostbooy/Desktop/Code/stm32/lib/tinyusb/src/device/usbd_control.c **** }
 818              		.loc 1 70 10 view .LVU234
 819 0088 0023     		movs	r3, #0
  69:/Users/joostbooy/Desktop/Code/stm32/lib/tinyusb/src/device/usbd_control.c ****   return usbd_edpt_xfer(rhport, ep_addr, NULL, 0);
 820              		.loc 1 69 17 view .LVU235
 821 008a 9C42     		cmp	r4, r3
 822              	.LVL63:
  70:/Users/joostbooy/Desktop/Code/stm32/lib/tinyusb/src/device/usbd_control.c **** }
 823              		.loc 1 70 3 is_stmt 1 view .LVU236
  70:/Users/joostbooy/Desktop/Code/stm32/lib/tinyusb/src/device/usbd_control.c **** }
 824              		.loc 1 70 10 is_stmt 0 view .LVU237
 825 008c ACBF     		ite	ge
 826 008e 8021     		movge	r1, #128
 827 0090 1946     		movlt	r1, r3
 828 0092 3046     		mov	r0, r6
 829 0094 1A46     		mov	r2, r3
 830 0096 FFF7FEFF 		bl	usbd_edpt_xfer
 831              	.LVL64:
  70:/Users/joostbooy/Desktop/Code/stm32/lib/tinyusb/src/device/usbd_control.c **** }
 832              		.loc 1 70 10 view .LVU238
 833              	.LBE62:
 834              	.LBE61:
 218:/Users/joostbooy/Desktop/Code/stm32/lib/tinyusb/src/device/usbd_control.c ****     }else
 835              		.loc 1 218 7 view .LVU239
 836 009a 0028     		cmp	r0, #0
 837 009c E9D1     		bne	.L86
 838              	.LVL65:
 839              	.L89:
 218:/Users/joostbooy/Desktop/Code/stm32/lib/tinyusb/src/device/usbd_control.c ****     }else
 840              		.loc 1 218 7 view .LVU240
 841              	.LBE60:
 229:/Users/joostbooy/Desktop/Code/stm32/lib/tinyusb/src/device/usbd_control.c ****   }
 842              		.loc 1 229 5 is_stmt 1 discriminator 1 view .LVU241
 229:/Users/joostbooy/Desktop/Code/stm32/lib/tinyusb/src/device/usbd_control.c ****   }
 843              		.loc 1 229 5 discriminator 1 view .LVU242
 229:/Users/joostbooy/Desktop/Code/stm32/lib/tinyusb/src/device/usbd_control.c ****   }
 844              		.loc 1 229 5 discriminator 1 view .LVU243
 229:/Users/joostbooy/Desktop/Code/stm32/lib/tinyusb/src/device/usbd_control.c ****   }
 845              		.loc 1 229 5 discriminator 1 view .LVU244
 846              	.LBB63:
 229:/Users/joostbooy/Desktop/Code/stm32/lib/tinyusb/src/device/usbd_control.c ****   }
ARM GAS  /var/folders/84/_x1cyy_j36g486tldtwl37280000gn/T//cc4xoZU1.s 			page 34


 847              		.loc 1 229 5 discriminator 1 view .LVU245
 229:/Users/joostbooy/Desktop/Code/stm32/lib/tinyusb/src/device/usbd_control.c ****   }
 848              		.loc 1 229 5 discriminator 1 view .LVU246
 849 009e 0849     		ldr	r1, .L91+4
 850 00a0 0E68     		ldr	r6, [r1]
 851 00a2 F307     		lsls	r3, r6, #31
 852 00a4 BBD5     		bpl	.L85
 229:/Users/joostbooy/Desktop/Code/stm32/lib/tinyusb/src/device/usbd_control.c ****   }
 853              		.loc 1 229 5 discriminator 3 view .LVU247
 854              		.syntax unified
 855              	@ 229 "/Users/joostbooy/Desktop/Code/stm32/lib/tinyusb/src/device/usbd_control.c" 1
 856 00a6 00BE     		BKPT #0
 857              	
 858              	@ 0 "" 2
 859              		.thumb
 860              		.syntax unified
 861              	.LBE63:
 862              		.loc 1 233 1 is_stmt 0 discriminator 3 view .LVU248
 863 00a8 F8BD     		pop	{r3, r4, r5, r6, r7, pc}
 864              	.LVL66:
 865              	.L90:
 866              	.LBB64:
 222:/Users/joostbooy/Desktop/Code/stm32/lib/tinyusb/src/device/usbd_control.c ****       dcd_edpt_stall(rhport, EDPT_CTRL_IN);
 867              		.loc 1 222 7 is_stmt 1 view .LVU249
 868 00aa 0146     		mov	r1, r0
 869 00ac 3046     		mov	r0, r6
 870              	.LVL67:
 222:/Users/joostbooy/Desktop/Code/stm32/lib/tinyusb/src/device/usbd_control.c ****       dcd_edpt_stall(rhport, EDPT_CTRL_IN);
 871              		.loc 1 222 7 is_stmt 0 view .LVU250
 872 00ae FFF7FEFF 		bl	dcd_edpt_stall
 873              	.LVL68:
 223:/Users/joostbooy/Desktop/Code/stm32/lib/tinyusb/src/device/usbd_control.c ****     }
 874              		.loc 1 223 7 is_stmt 1 view .LVU251
 875 00b2 3046     		mov	r0, r6
 876 00b4 8021     		movs	r1, #128
 877 00b6 FFF7FEFF 		bl	dcd_edpt_stall
 878              	.LVL69:
 879 00ba DAE7     		b	.L86
 880              	.L92:
 881              		.align	2
 882              	.L91:
 883 00bc 00000000 		.word	.LANCHOR1
 884 00c0 F0ED00E0 		.word	-536810000
 885 00c4 00000000 		.word	dcd_edpt0_status_complete
 886 00c8 00000000 		.word	.LANCHOR0
 887              	.LBE64:
 888              		.cfi_endproc
 889              	.LFE83:
 891              		.section	.bss._ctrl_xfer,"aw",%nobits
 892              		.align	2
 893              		.set	.LANCHOR1,. + 0
 896              	_ctrl_xfer:
 897 0000 00000000 		.space	20
 897      00000000 
 897      00000000 
 897      00000000 
 897      00000000 
ARM GAS  /var/folders/84/_x1cyy_j36g486tldtwl37280000gn/T//cc4xoZU1.s 			page 35


 898              		.section	.bss._usbd_ctrl_buf,"aw",%nobits
 899              		.align	2
 900              		.set	.LANCHOR0,. + 0
 903              	_usbd_ctrl_buf:
 904 0000 00000000 		.space	64
 904      00000000 
 904      00000000 
 904      00000000 
 904      00000000 
 905              		.weak	dcd_edpt0_status_complete
 906              		.text
 907              	.Letext0:
 908              		.file 4 "/usr/local/Caskroom/gcc-arm-embedded/9-2019-q4-major/gcc-arm-none-eabi-9-2019-q4-major/ar
 909              		.file 5 "/usr/local/Caskroom/gcc-arm-embedded/9-2019-q4-major/gcc-arm-none-eabi-9-2019-q4-major/ar
 910              		.file 6 "/usr/local/Caskroom/gcc-arm-embedded/9-2019-q4-major/gcc-arm-none-eabi-9-2019-q4-major/li
 911              		.file 7 "/usr/local/Caskroom/gcc-arm-embedded/9-2019-q4-major/gcc-arm-none-eabi-9-2019-q4-major/ar
 912              		.file 8 "/usr/local/Caskroom/gcc-arm-embedded/9-2019-q4-major/gcc-arm-none-eabi-9-2019-q4-major/ar
 913              		.file 9 "/usr/local/Caskroom/gcc-arm-embedded/9-2019-q4-major/gcc-arm-none-eabi-9-2019-q4-major/ar
 914              		.file 10 "/Users/joostbooy/Desktop/Code/stm32/lib/tinyusb/src/device/usbd_pvt.h"
 915              		.file 11 "/Users/joostbooy/Desktop/Code/stm32/lib/tinyusb/src/device/dcd.h"
 916              		.file 12 "<built-in>"
ARM GAS  /var/folders/84/_x1cyy_j36g486tldtwl37280000gn/T//cc4xoZU1.s 			page 36

